ARM GAS  C:\Users\legoc\AppData\Local\Temp\ccKRZKhE.s 			page 1


   1              		.syntax unified
   2              		.cpu cortex-m3
   3              		.fpu softvfp
   4              		.eabi_attribute 20, 1
   5              		.eabi_attribute 21, 1
   6              		.eabi_attribute 23, 3
   7              		.eabi_attribute 24, 1
   8              		.eabi_attribute 25, 1
   9              		.eabi_attribute 26, 1
  10              		.eabi_attribute 30, 2
  11              		.eabi_attribute 34, 1
  12              		.eabi_attribute 18, 4
  13              		.thumb
  14              		.syntax unified
  15              		.file	"ADC_SAR_1.c"
  16              		.text
  17              	.Ltext0:
  18              		.cfi_sections	.debug_frame
  19              		.section	.text.ADC_SAR_1_Start,"ax",%progbits
  20              		.align	2
  21              		.global	ADC_SAR_1_Start
  22              		.thumb
  23              		.thumb_func
  24              		.type	ADC_SAR_1_Start, %function
  25              	ADC_SAR_1_Start:
  26              	.LFB0:
  27              		.file 1 "Generated_Source\\PSoC5\\ADC_SAR_1.c"
   1:Generated_Source\PSoC5/ADC_SAR_1.c **** /*******************************************************************************
   2:Generated_Source\PSoC5/ADC_SAR_1.c **** * File Name: ADC_SAR_1.c
   3:Generated_Source\PSoC5/ADC_SAR_1.c **** * Version 3.10
   4:Generated_Source\PSoC5/ADC_SAR_1.c **** *
   5:Generated_Source\PSoC5/ADC_SAR_1.c **** * Description:
   6:Generated_Source\PSoC5/ADC_SAR_1.c **** *  This file provides the source code to the API for the Successive
   7:Generated_Source\PSoC5/ADC_SAR_1.c **** *  approximation ADC Component.
   8:Generated_Source\PSoC5/ADC_SAR_1.c **** *
   9:Generated_Source\PSoC5/ADC_SAR_1.c **** * Note:
  10:Generated_Source\PSoC5/ADC_SAR_1.c **** *
  11:Generated_Source\PSoC5/ADC_SAR_1.c **** ********************************************************************************
  12:Generated_Source\PSoC5/ADC_SAR_1.c **** * Copyright 2008-2015, Cypress Semiconductor Corporation.  All rights reserved.
  13:Generated_Source\PSoC5/ADC_SAR_1.c **** * You may use this file only in accordance with the license, terms, conditions,
  14:Generated_Source\PSoC5/ADC_SAR_1.c **** * disclaimers, and limitations in the end user license agreement accompanying
  15:Generated_Source\PSoC5/ADC_SAR_1.c **** * the software package with which this file was provided.
  16:Generated_Source\PSoC5/ADC_SAR_1.c **** *******************************************************************************/
  17:Generated_Source\PSoC5/ADC_SAR_1.c **** 
  18:Generated_Source\PSoC5/ADC_SAR_1.c **** #include "CyLib.h"
  19:Generated_Source\PSoC5/ADC_SAR_1.c **** #include "ADC_SAR_1.h"
  20:Generated_Source\PSoC5/ADC_SAR_1.c **** 
  21:Generated_Source\PSoC5/ADC_SAR_1.c **** #if(ADC_SAR_1_DEFAULT_INTERNAL_CLK)
  22:Generated_Source\PSoC5/ADC_SAR_1.c ****     #include "ADC_SAR_1_theACLK.h"
  23:Generated_Source\PSoC5/ADC_SAR_1.c **** #endif /* End ADC_SAR_1_DEFAULT_INTERNAL_CLK */
  24:Generated_Source\PSoC5/ADC_SAR_1.c **** 
  25:Generated_Source\PSoC5/ADC_SAR_1.c **** 
  26:Generated_Source\PSoC5/ADC_SAR_1.c **** /***************************************
  27:Generated_Source\PSoC5/ADC_SAR_1.c **** * Forward function references
  28:Generated_Source\PSoC5/ADC_SAR_1.c **** ***************************************/
  29:Generated_Source\PSoC5/ADC_SAR_1.c **** static void ADC_SAR_1_CalcGain(uint8 resolution);
  30:Generated_Source\PSoC5/ADC_SAR_1.c **** 
ARM GAS  C:\Users\legoc\AppData\Local\Temp\ccKRZKhE.s 			page 2


  31:Generated_Source\PSoC5/ADC_SAR_1.c **** 
  32:Generated_Source\PSoC5/ADC_SAR_1.c **** /***************************************
  33:Generated_Source\PSoC5/ADC_SAR_1.c **** * Global data allocation
  34:Generated_Source\PSoC5/ADC_SAR_1.c **** ***************************************/
  35:Generated_Source\PSoC5/ADC_SAR_1.c **** uint8 ADC_SAR_1_initVar = 0u;
  36:Generated_Source\PSoC5/ADC_SAR_1.c **** volatile int16 ADC_SAR_1_offset;
  37:Generated_Source\PSoC5/ADC_SAR_1.c **** volatile int16 ADC_SAR_1_countsPerVolt;     /* Obsolete Gain compensation */
  38:Generated_Source\PSoC5/ADC_SAR_1.c **** volatile int32 ADC_SAR_1_countsPer10Volt;   /* Gain compensation */
  39:Generated_Source\PSoC5/ADC_SAR_1.c **** volatile int16 ADC_SAR_1_shift;
  40:Generated_Source\PSoC5/ADC_SAR_1.c **** 
  41:Generated_Source\PSoC5/ADC_SAR_1.c **** 
  42:Generated_Source\PSoC5/ADC_SAR_1.c **** /*******************************************************************************
  43:Generated_Source\PSoC5/ADC_SAR_1.c **** * Function Name: ADC_SAR_1_Start
  44:Generated_Source\PSoC5/ADC_SAR_1.c **** ********************************************************************************
  45:Generated_Source\PSoC5/ADC_SAR_1.c **** *
  46:Generated_Source\PSoC5/ADC_SAR_1.c **** * Summary:
  47:Generated_Source\PSoC5/ADC_SAR_1.c **** *  This is the preferred method to begin component operation.
  48:Generated_Source\PSoC5/ADC_SAR_1.c **** *  ADC_SAR_1_Start() sets the initVar variable, calls the
  49:Generated_Source\PSoC5/ADC_SAR_1.c **** *  ADC_SAR_1_Init() function, and then calls the
  50:Generated_Source\PSoC5/ADC_SAR_1.c **** *  ADC_SAR_1_Enable() function.
  51:Generated_Source\PSoC5/ADC_SAR_1.c **** *
  52:Generated_Source\PSoC5/ADC_SAR_1.c **** * Parameters:
  53:Generated_Source\PSoC5/ADC_SAR_1.c **** *  None.
  54:Generated_Source\PSoC5/ADC_SAR_1.c **** *
  55:Generated_Source\PSoC5/ADC_SAR_1.c **** * Return:
  56:Generated_Source\PSoC5/ADC_SAR_1.c **** *  None.
  57:Generated_Source\PSoC5/ADC_SAR_1.c **** *
  58:Generated_Source\PSoC5/ADC_SAR_1.c **** * Global variables:
  59:Generated_Source\PSoC5/ADC_SAR_1.c **** *  The ADC_SAR_1_initVar variable is used to indicate when/if initial
  60:Generated_Source\PSoC5/ADC_SAR_1.c **** *  configuration of this component has happened. The variable is initialized to
  61:Generated_Source\PSoC5/ADC_SAR_1.c **** *  zero and set to 1 the first time ADC_Start() is called. This allows for
  62:Generated_Source\PSoC5/ADC_SAR_1.c **** *  component Re-Start without re-initialization in all subsequent calls to the
  63:Generated_Source\PSoC5/ADC_SAR_1.c **** *  ADC_SAR_1_Start() routine.
  64:Generated_Source\PSoC5/ADC_SAR_1.c **** *  If re-initialization of the component is required the variable should be set
  65:Generated_Source\PSoC5/ADC_SAR_1.c **** *  to zero before call of ADC_SAR_1_Start() routine, or the user may call
  66:Generated_Source\PSoC5/ADC_SAR_1.c **** *  ADC_SAR_1_Init() and ADC_SAR_1_Enable() as done in the
  67:Generated_Source\PSoC5/ADC_SAR_1.c **** *  ADC_SAR_1_Start() routine.
  68:Generated_Source\PSoC5/ADC_SAR_1.c **** *
  69:Generated_Source\PSoC5/ADC_SAR_1.c **** * Side Effect:
  70:Generated_Source\PSoC5/ADC_SAR_1.c **** *  If the initVar variable is already set, this function only calls the
  71:Generated_Source\PSoC5/ADC_SAR_1.c **** *  ADC_SAR_1_Enable() function.
  72:Generated_Source\PSoC5/ADC_SAR_1.c **** *
  73:Generated_Source\PSoC5/ADC_SAR_1.c **** *******************************************************************************/
  74:Generated_Source\PSoC5/ADC_SAR_1.c **** void ADC_SAR_1_Start(void)
  75:Generated_Source\PSoC5/ADC_SAR_1.c **** {
  28              		.loc 1 75 0
  29              		.cfi_startproc
  30              		@ args = 0, pretend = 0, frame = 0
  31              		@ frame_needed = 0, uses_anonymous_args = 0
  32 0000 F8B5     		push	{r3, r4, r5, r6, r7, lr}
  33              		.cfi_def_cfa_offset 24
  34              		.cfi_offset 3, -24
  35              		.cfi_offset 4, -20
  36              		.cfi_offset 5, -16
  37              		.cfi_offset 6, -12
  38              		.cfi_offset 7, -8
  39              		.cfi_offset 14, -4
ARM GAS  C:\Users\legoc\AppData\Local\Temp\ccKRZKhE.s 			page 3


  76:Generated_Source\PSoC5/ADC_SAR_1.c **** 
  77:Generated_Source\PSoC5/ADC_SAR_1.c ****     /* If not Initialized then initialize all required hardware and software */
  78:Generated_Source\PSoC5/ADC_SAR_1.c ****     if(ADC_SAR_1_initVar == 0u)
  40              		.loc 1 78 0
  41 0002 334D     		ldr	r5, .L5
  42 0004 2C78     		ldrb	r4, [r5]	@ zero_extendqisi2
  43 0006 F4B9     		cbnz	r4, .L2
  44              	.LBB12:
  45              	.LBB13:
  79:Generated_Source\PSoC5/ADC_SAR_1.c ****     {
  80:Generated_Source\PSoC5/ADC_SAR_1.c ****         ADC_SAR_1_Init();
  81:Generated_Source\PSoC5/ADC_SAR_1.c ****         ADC_SAR_1_initVar = 1u;
  82:Generated_Source\PSoC5/ADC_SAR_1.c ****     }
  83:Generated_Source\PSoC5/ADC_SAR_1.c ****     ADC_SAR_1_Enable();
  84:Generated_Source\PSoC5/ADC_SAR_1.c **** }
  85:Generated_Source\PSoC5/ADC_SAR_1.c **** 
  86:Generated_Source\PSoC5/ADC_SAR_1.c **** 
  87:Generated_Source\PSoC5/ADC_SAR_1.c **** /*******************************************************************************
  88:Generated_Source\PSoC5/ADC_SAR_1.c **** * Function Name: ADC_SAR_1_Init
  89:Generated_Source\PSoC5/ADC_SAR_1.c **** ********************************************************************************
  90:Generated_Source\PSoC5/ADC_SAR_1.c **** *
  91:Generated_Source\PSoC5/ADC_SAR_1.c **** * Summary:
  92:Generated_Source\PSoC5/ADC_SAR_1.c **** *  Initialize component's parameters to the parameters set by user in the
  93:Generated_Source\PSoC5/ADC_SAR_1.c **** *  customizer of the component placed onto schematic. Usually called in
  94:Generated_Source\PSoC5/ADC_SAR_1.c **** *  ADC_SAR_1_Start().
  95:Generated_Source\PSoC5/ADC_SAR_1.c **** *
  96:Generated_Source\PSoC5/ADC_SAR_1.c **** * Parameters:
  97:Generated_Source\PSoC5/ADC_SAR_1.c **** *  None.
  98:Generated_Source\PSoC5/ADC_SAR_1.c **** *
  99:Generated_Source\PSoC5/ADC_SAR_1.c **** * Return:
 100:Generated_Source\PSoC5/ADC_SAR_1.c **** *  None.
 101:Generated_Source\PSoC5/ADC_SAR_1.c **** *
 102:Generated_Source\PSoC5/ADC_SAR_1.c **** * Global variables:
 103:Generated_Source\PSoC5/ADC_SAR_1.c **** *  The ADC_SAR_1_offset variable is initialized to 0.
 104:Generated_Source\PSoC5/ADC_SAR_1.c **** *
 105:Generated_Source\PSoC5/ADC_SAR_1.c **** *******************************************************************************/
 106:Generated_Source\PSoC5/ADC_SAR_1.c **** void ADC_SAR_1_Init(void)
 107:Generated_Source\PSoC5/ADC_SAR_1.c **** {
 108:Generated_Source\PSoC5/ADC_SAR_1.c **** 
 109:Generated_Source\PSoC5/ADC_SAR_1.c ****     /* This is only valid if there is an internal clock */
 110:Generated_Source\PSoC5/ADC_SAR_1.c ****     #if(ADC_SAR_1_DEFAULT_INTERNAL_CLK)
 111:Generated_Source\PSoC5/ADC_SAR_1.c ****         ADC_SAR_1_theACLK_SetMode(CYCLK_DUTY);
  46              		.loc 1 111 0
  47 0008 1020     		movs	r0, #16
  48 000a FFF7FEFF 		bl	ADC_SAR_1_theACLK_SetModeRegister
  49              	.LVL0:
 112:Generated_Source\PSoC5/ADC_SAR_1.c ****     #endif /* End ADC_SAR_1_DEFAULT_INTERNAL_CLK */
 113:Generated_Source\PSoC5/ADC_SAR_1.c **** 
 114:Generated_Source\PSoC5/ADC_SAR_1.c ****     #if(ADC_SAR_1_IRQ_REMOVE == 0u)
 115:Generated_Source\PSoC5/ADC_SAR_1.c ****         /* Start and set interrupt vector */
 116:Generated_Source\PSoC5/ADC_SAR_1.c ****         CyIntSetPriority(ADC_SAR_1_INTC_NUMBER, ADC_SAR_1_INTC_PRIOR_NUMBER);
  50              		.loc 1 116 0
  51 000e 0721     		movs	r1, #7
  52 0010 2046     		mov	r0, r4
  53 0012 FFF7FEFF 		bl	CyIntSetPriority
  54              	.LVL1:
 117:Generated_Source\PSoC5/ADC_SAR_1.c ****         (void)CyIntSetVector(ADC_SAR_1_INTC_NUMBER, &ADC_SAR_1_ISR);
ARM GAS  C:\Users\legoc\AppData\Local\Temp\ccKRZKhE.s 			page 4


  55              		.loc 1 117 0
  56 0016 2F49     		ldr	r1, .L5+4
  57 0018 2046     		mov	r0, r4
  58 001a FFF7FEFF 		bl	CyIntSetVector
  59              	.LVL2:
  60              	.LBB14:
  61              	.LBB15:
  62              	.LBB16:
  63              	.LBB17:
 118:Generated_Source\PSoC5/ADC_SAR_1.c ****     #endif   /* End ADC_SAR_1_IRQ_REMOVE */
 119:Generated_Source\PSoC5/ADC_SAR_1.c **** 
 120:Generated_Source\PSoC5/ADC_SAR_1.c ****     /* Enable IRQ mode*/
 121:Generated_Source\PSoC5/ADC_SAR_1.c ****     ADC_SAR_1_SAR_CSR1_REG |= ADC_SAR_1_SAR_IRQ_MASK_EN | ADC_SAR_1_SAR_IRQ_MODE_EDGE;
 122:Generated_Source\PSoC5/ADC_SAR_1.c **** 
 123:Generated_Source\PSoC5/ADC_SAR_1.c ****     /*Set SAR ADC resolution ADC */
 124:Generated_Source\PSoC5/ADC_SAR_1.c ****     ADC_SAR_1_SetResolution(ADC_SAR_1_DEFAULT_RESOLUTION);
 125:Generated_Source\PSoC5/ADC_SAR_1.c ****     ADC_SAR_1_offset = 0;
 126:Generated_Source\PSoC5/ADC_SAR_1.c **** }
 127:Generated_Source\PSoC5/ADC_SAR_1.c **** 
 128:Generated_Source\PSoC5/ADC_SAR_1.c **** 
 129:Generated_Source\PSoC5/ADC_SAR_1.c **** /*******************************************************************************
 130:Generated_Source\PSoC5/ADC_SAR_1.c **** * Function Name: ADC_SAR_1_Enable
 131:Generated_Source\PSoC5/ADC_SAR_1.c **** ********************************************************************************
 132:Generated_Source\PSoC5/ADC_SAR_1.c **** *
 133:Generated_Source\PSoC5/ADC_SAR_1.c **** * Summary:
 134:Generated_Source\PSoC5/ADC_SAR_1.c **** *  Enables the reference, clock and power for SAR ADC.
 135:Generated_Source\PSoC5/ADC_SAR_1.c **** *
 136:Generated_Source\PSoC5/ADC_SAR_1.c **** * Parameters:
 137:Generated_Source\PSoC5/ADC_SAR_1.c **** *  None.
 138:Generated_Source\PSoC5/ADC_SAR_1.c **** *
 139:Generated_Source\PSoC5/ADC_SAR_1.c **** * Return:
 140:Generated_Source\PSoC5/ADC_SAR_1.c **** *  None.
 141:Generated_Source\PSoC5/ADC_SAR_1.c **** *
 142:Generated_Source\PSoC5/ADC_SAR_1.c **** *******************************************************************************/
 143:Generated_Source\PSoC5/ADC_SAR_1.c **** void ADC_SAR_1_Enable(void)
 144:Generated_Source\PSoC5/ADC_SAR_1.c **** {
 145:Generated_Source\PSoC5/ADC_SAR_1.c ****     uint8 tmpReg;
 146:Generated_Source\PSoC5/ADC_SAR_1.c ****     uint8 enableInterrupts;
 147:Generated_Source\PSoC5/ADC_SAR_1.c ****     enableInterrupts = CyEnterCriticalSection();
 148:Generated_Source\PSoC5/ADC_SAR_1.c **** 
 149:Generated_Source\PSoC5/ADC_SAR_1.c ****     /* Enable the SAR ADC block in Active Power Mode */
 150:Generated_Source\PSoC5/ADC_SAR_1.c ****     ADC_SAR_1_PWRMGR_SAR_REG |= ADC_SAR_1_ACT_PWR_SAR_EN;
 151:Generated_Source\PSoC5/ADC_SAR_1.c **** 
 152:Generated_Source\PSoC5/ADC_SAR_1.c ****      /* Enable the SAR ADC in Standby Power Mode*/
 153:Generated_Source\PSoC5/ADC_SAR_1.c ****     ADC_SAR_1_STBY_PWRMGR_SAR_REG |= ADC_SAR_1_STBY_PWR_SAR_EN;
 154:Generated_Source\PSoC5/ADC_SAR_1.c **** 
 155:Generated_Source\PSoC5/ADC_SAR_1.c ****     /* This is only valid if there is an internal clock */
 156:Generated_Source\PSoC5/ADC_SAR_1.c ****     #if(ADC_SAR_1_DEFAULT_INTERNAL_CLK)
 157:Generated_Source\PSoC5/ADC_SAR_1.c ****         ADC_SAR_1_PWRMGR_CLK_REG |= ADC_SAR_1_ACT_PWR_CLK_EN;
 158:Generated_Source\PSoC5/ADC_SAR_1.c ****         ADC_SAR_1_STBY_PWRMGR_CLK_REG |= ADC_SAR_1_STBY_PWR_CLK_EN;
 159:Generated_Source\PSoC5/ADC_SAR_1.c ****     #endif /* End ADC_SAR_1_DEFAULT_INTERNAL_CLK */
 160:Generated_Source\PSoC5/ADC_SAR_1.c **** 
 161:Generated_Source\PSoC5/ADC_SAR_1.c ****     /* Enable VCM buffer and Enable Int Ref Amp */
 162:Generated_Source\PSoC5/ADC_SAR_1.c ****     tmpReg = ADC_SAR_1_SAR_CSR3_REG;
 163:Generated_Source\PSoC5/ADC_SAR_1.c ****     tmpReg |= ADC_SAR_1_SAR_EN_BUF_VCM_EN;
 164:Generated_Source\PSoC5/ADC_SAR_1.c ****     /* PD_BUF_VREF is OFF in External reference or Vdda reference mode */
 165:Generated_Source\PSoC5/ADC_SAR_1.c ****     #if((ADC_SAR_1_DEFAULT_REFERENCE == ADC_SAR_1__EXT_REF) || \
ARM GAS  C:\Users\legoc\AppData\Local\Temp\ccKRZKhE.s 			page 5


 166:Generated_Source\PSoC5/ADC_SAR_1.c ****         (ADC_SAR_1_DEFAULT_RANGE == ADC_SAR_1__VNEG_VDDA_DIFF))
 167:Generated_Source\PSoC5/ADC_SAR_1.c ****         tmpReg &= (uint8)~ADC_SAR_1_SAR_EN_BUF_VREF_EN;
 168:Generated_Source\PSoC5/ADC_SAR_1.c ****     #else /* In INTREF or INTREF Bypassed this buffer is ON */
 169:Generated_Source\PSoC5/ADC_SAR_1.c ****         tmpReg |= ADC_SAR_1_SAR_EN_BUF_VREF_EN;
 170:Generated_Source\PSoC5/ADC_SAR_1.c ****     #endif /* ADC_SAR_1_DEFAULT_REFERENCE == ADC_SAR_1__EXT_REF */
 171:Generated_Source\PSoC5/ADC_SAR_1.c ****     ADC_SAR_1_SAR_CSR3_REG = tmpReg;
 172:Generated_Source\PSoC5/ADC_SAR_1.c **** 
 173:Generated_Source\PSoC5/ADC_SAR_1.c ****     /* Set reference for ADC */
 174:Generated_Source\PSoC5/ADC_SAR_1.c ****     #if(ADC_SAR_1_DEFAULT_RANGE == ADC_SAR_1__VNEG_VDDA_DIFF)
 175:Generated_Source\PSoC5/ADC_SAR_1.c ****         #if(ADC_SAR_1_DEFAULT_REFERENCE == ADC_SAR_1__EXT_REF)
 176:Generated_Source\PSoC5/ADC_SAR_1.c ****             ADC_SAR_1_SAR_CSR6_REG = ADC_SAR_1_INT_BYPASS_EXT_VREF; /* S2 */
 177:Generated_Source\PSoC5/ADC_SAR_1.c ****         #else /* Internal Vdda reference or obsolete bypass mode */
 178:Generated_Source\PSoC5/ADC_SAR_1.c ****             ADC_SAR_1_SAR_CSR6_REG = ADC_SAR_1_VDDA_VREF;           /* S7 */
 179:Generated_Source\PSoC5/ADC_SAR_1.c ****         #endif /* ADC_SAR_1_DEFAULT_REFERENCE == ADC_SAR_1__EXT_REF */
 180:Generated_Source\PSoC5/ADC_SAR_1.c ****     #else  /* Reference goes through internal buffer */
 181:Generated_Source\PSoC5/ADC_SAR_1.c ****         #if(ADC_SAR_1_DEFAULT_REFERENCE == ADC_SAR_1__INT_REF_NOT_BYPASSED)
 182:Generated_Source\PSoC5/ADC_SAR_1.c ****             ADC_SAR_1_SAR_CSR6_REG = ADC_SAR_1_INT_VREF;            /* S3 + S4 */
 183:Generated_Source\PSoC5/ADC_SAR_1.c ****         #else /* INTREF Bypassed of External */
 184:Generated_Source\PSoC5/ADC_SAR_1.c ****             ADC_SAR_1_SAR_CSR6_REG = ADC_SAR_1_INT_BYPASS_EXT_VREF; /* S2 */
 185:Generated_Source\PSoC5/ADC_SAR_1.c ****         #endif /* ADC_SAR_1_DEFAULT_REFERENCE == ADC_SAR_1__INT_REF_NOT_BYPASSED */
 186:Generated_Source\PSoC5/ADC_SAR_1.c ****     #endif /* VNEG_VDDA_DIFF */
 187:Generated_Source\PSoC5/ADC_SAR_1.c **** 
 188:Generated_Source\PSoC5/ADC_SAR_1.c ****     /* Low non-overlap delay for sampling clock signals (for 1MSPS) */
 189:Generated_Source\PSoC5/ADC_SAR_1.c ****     #if(ADC_SAR_1_HIGH_POWER_PULSE == 0u) /* MinPulseWidth <= 50 ns */
 190:Generated_Source\PSoC5/ADC_SAR_1.c ****         ADC_SAR_1_SAR_CSR5_REG &= (uint8)~ADC_SAR_1_SAR_DLY_INC;
 191:Generated_Source\PSoC5/ADC_SAR_1.c ****     #else /* Set High non-overlap delay for sampling clock signals (for <500KSPS)*/
 192:Generated_Source\PSoC5/ADC_SAR_1.c ****         ADC_SAR_1_SAR_CSR5_REG |= ADC_SAR_1_SAR_DLY_INC;
 193:Generated_Source\PSoC5/ADC_SAR_1.c ****     #endif /* ADC_SAR_1_HIGH_POWER_PULSE == 0u */
 194:Generated_Source\PSoC5/ADC_SAR_1.c **** 
 195:Generated_Source\PSoC5/ADC_SAR_1.c ****     /* Increase comparator latch enable delay by 20%, 
 196:Generated_Source\PSoC5/ADC_SAR_1.c ****     *  Increase comparator bias current by 30% without impacting delaysDelay 
 197:Generated_Source\PSoC5/ADC_SAR_1.c ****     *  Default for 1MSPS) 
 198:Generated_Source\PSoC5/ADC_SAR_1.c ****     */
 199:Generated_Source\PSoC5/ADC_SAR_1.c ****     #if(ADC_SAR_1_HIGH_POWER_PULSE == 0u)    /* MinPulseWidth <= 50 ns */
 200:Generated_Source\PSoC5/ADC_SAR_1.c ****         ADC_SAR_1_SAR_CSR5_REG |= ADC_SAR_1_SAR_SEL_CSEL_DFT_CHAR;
 201:Generated_Source\PSoC5/ADC_SAR_1.c ****     #else /* for <500ksps */
 202:Generated_Source\PSoC5/ADC_SAR_1.c ****         ADC_SAR_1_SAR_CSR5_REG &= (uint8)~ADC_SAR_1_SAR_SEL_CSEL_DFT_CHAR;
 203:Generated_Source\PSoC5/ADC_SAR_1.c ****     #endif /* ADC_SAR_1_HIGH_POWER_PULSE == 0u */
 204:Generated_Source\PSoC5/ADC_SAR_1.c **** 
 205:Generated_Source\PSoC5/ADC_SAR_1.c ****     /* Set default power and other configurations for control register 0 in multiple lines */
 206:Generated_Source\PSoC5/ADC_SAR_1.c ****     ADC_SAR_1_SAR_CSR0_REG = (uint8)((uint8)ADC_SAR_1_DEFAULT_POWER << ADC_SAR_1_SAR_POWER_SHIFT)
 207:Generated_Source\PSoC5/ADC_SAR_1.c ****     /* SAR_HIZ_CLEAR:   Should not be used for LP */
 208:Generated_Source\PSoC5/ADC_SAR_1.c ****     #if ((CY_PSOC5LP) || (ADC_SAR_1_DEFAULT_REFERENCE != ADC_SAR_1__EXT_REF))
 209:Generated_Source\PSoC5/ADC_SAR_1.c ****         | ADC_SAR_1_SAR_HIZ_CLEAR
 210:Generated_Source\PSoC5/ADC_SAR_1.c ****     #endif /* SAR_HIZ_CLEAR */
 211:Generated_Source\PSoC5/ADC_SAR_1.c ****     /*Set Convertion mode */
 212:Generated_Source\PSoC5/ADC_SAR_1.c ****     #if(ADC_SAR_1_DEFAULT_CONV_MODE != ADC_SAR_1__FREE_RUNNING)      /* If triggered mode */
 213:Generated_Source\PSoC5/ADC_SAR_1.c ****         | ADC_SAR_1_SAR_MX_SOF_UDB           /* source: UDB */
 214:Generated_Source\PSoC5/ADC_SAR_1.c ****         | ADC_SAR_1_SAR_SOF_MODE_EDGE        /* Set edge-sensitive sof source */
 215:Generated_Source\PSoC5/ADC_SAR_1.c ****     #endif /* ADC_SAR_1_DEFAULT_CONV_MODE */
 216:Generated_Source\PSoC5/ADC_SAR_1.c ****     ; /* end of multiple line initialization */
 217:Generated_Source\PSoC5/ADC_SAR_1.c **** 
 218:Generated_Source\PSoC5/ADC_SAR_1.c ****     ADC_SAR_1_SAR_TR0_REG = ADC_SAR_1_SAR_CAP_TRIM_2;
 219:Generated_Source\PSoC5/ADC_SAR_1.c **** 
 220:Generated_Source\PSoC5/ADC_SAR_1.c ****     /* Enable clock for SAR ADC*/
 221:Generated_Source\PSoC5/ADC_SAR_1.c ****     ADC_SAR_1_SAR_CLK_REG |= ADC_SAR_1_SAR_MX_CLK_EN;
 222:Generated_Source\PSoC5/ADC_SAR_1.c **** 
ARM GAS  C:\Users\legoc\AppData\Local\Temp\ccKRZKhE.s 			page 6


 223:Generated_Source\PSoC5/ADC_SAR_1.c ****     CyDelayUs(10u); /* The block is ready to use 10 us after the enable signal is set high. */
 224:Generated_Source\PSoC5/ADC_SAR_1.c **** 
 225:Generated_Source\PSoC5/ADC_SAR_1.c ****     #if(ADC_SAR_1_IRQ_REMOVE == 0u)
 226:Generated_Source\PSoC5/ADC_SAR_1.c ****         /* Clear a pending interrupt */
 227:Generated_Source\PSoC5/ADC_SAR_1.c ****         CyIntClearPending(ADC_SAR_1_INTC_NUMBER);
 228:Generated_Source\PSoC5/ADC_SAR_1.c ****     #endif   /* End ADC_SAR_1_IRQ_REMOVE */
 229:Generated_Source\PSoC5/ADC_SAR_1.c **** 
 230:Generated_Source\PSoC5/ADC_SAR_1.c ****     CyExitCriticalSection(enableInterrupts);
 231:Generated_Source\PSoC5/ADC_SAR_1.c **** }
 232:Generated_Source\PSoC5/ADC_SAR_1.c **** 
 233:Generated_Source\PSoC5/ADC_SAR_1.c **** 
 234:Generated_Source\PSoC5/ADC_SAR_1.c **** /*******************************************************************************
 235:Generated_Source\PSoC5/ADC_SAR_1.c **** * Function Name: ADC_SAR_1_Stop
 236:Generated_Source\PSoC5/ADC_SAR_1.c **** ********************************************************************************
 237:Generated_Source\PSoC5/ADC_SAR_1.c **** *
 238:Generated_Source\PSoC5/ADC_SAR_1.c **** * Summary:
 239:Generated_Source\PSoC5/ADC_SAR_1.c **** *  Stops ADC conversions and puts the ADC into its lowest power mode.
 240:Generated_Source\PSoC5/ADC_SAR_1.c **** *
 241:Generated_Source\PSoC5/ADC_SAR_1.c **** * Parameters:
 242:Generated_Source\PSoC5/ADC_SAR_1.c **** *  None.
 243:Generated_Source\PSoC5/ADC_SAR_1.c **** *
 244:Generated_Source\PSoC5/ADC_SAR_1.c **** * Return:
 245:Generated_Source\PSoC5/ADC_SAR_1.c **** *  None.
 246:Generated_Source\PSoC5/ADC_SAR_1.c **** *
 247:Generated_Source\PSoC5/ADC_SAR_1.c **** *******************************************************************************/
 248:Generated_Source\PSoC5/ADC_SAR_1.c **** void ADC_SAR_1_Stop(void)
 249:Generated_Source\PSoC5/ADC_SAR_1.c **** {
 250:Generated_Source\PSoC5/ADC_SAR_1.c ****     uint8 enableInterrupts;
 251:Generated_Source\PSoC5/ADC_SAR_1.c ****     enableInterrupts = CyEnterCriticalSection();
 252:Generated_Source\PSoC5/ADC_SAR_1.c **** 
 253:Generated_Source\PSoC5/ADC_SAR_1.c ****     /* Stop all conversions */
 254:Generated_Source\PSoC5/ADC_SAR_1.c ****     ADC_SAR_1_SAR_CSR0_REG &= (uint8)~ADC_SAR_1_SAR_SOF_START_CONV;
 255:Generated_Source\PSoC5/ADC_SAR_1.c ****     /* Disable the SAR ADC block in Active Power Mode */
 256:Generated_Source\PSoC5/ADC_SAR_1.c ****     ADC_SAR_1_PWRMGR_SAR_REG &= (uint8)~ADC_SAR_1_ACT_PWR_SAR_EN;
 257:Generated_Source\PSoC5/ADC_SAR_1.c ****     /* Disable the SAR ADC in Standby Power Mode */
 258:Generated_Source\PSoC5/ADC_SAR_1.c ****     ADC_SAR_1_STBY_PWRMGR_SAR_REG &= (uint8)~ADC_SAR_1_STBY_PWR_SAR_EN;
 259:Generated_Source\PSoC5/ADC_SAR_1.c **** 
 260:Generated_Source\PSoC5/ADC_SAR_1.c ****     /* This is only valid if there is an internal clock */
 261:Generated_Source\PSoC5/ADC_SAR_1.c ****     #if(ADC_SAR_1_DEFAULT_INTERNAL_CLK)
 262:Generated_Source\PSoC5/ADC_SAR_1.c ****         ADC_SAR_1_PWRMGR_CLK_REG &= (uint8)~ADC_SAR_1_ACT_PWR_CLK_EN;
 263:Generated_Source\PSoC5/ADC_SAR_1.c ****         ADC_SAR_1_STBY_PWRMGR_CLK_REG &= (uint8)~ADC_SAR_1_STBY_PWR_CLK_EN;
 264:Generated_Source\PSoC5/ADC_SAR_1.c ****     #endif /* End ADC_SAR_1_DEFAULT_INTERNAL_CLK */
 265:Generated_Source\PSoC5/ADC_SAR_1.c **** 
 266:Generated_Source\PSoC5/ADC_SAR_1.c ****     CyExitCriticalSection(enableInterrupts);
 267:Generated_Source\PSoC5/ADC_SAR_1.c **** 
 268:Generated_Source\PSoC5/ADC_SAR_1.c **** }
 269:Generated_Source\PSoC5/ADC_SAR_1.c **** 
 270:Generated_Source\PSoC5/ADC_SAR_1.c **** 
 271:Generated_Source\PSoC5/ADC_SAR_1.c **** /*******************************************************************************
 272:Generated_Source\PSoC5/ADC_SAR_1.c **** * Function Name: ADC_SAR_1_SetPower
 273:Generated_Source\PSoC5/ADC_SAR_1.c **** ********************************************************************************
 274:Generated_Source\PSoC5/ADC_SAR_1.c **** *
 275:Generated_Source\PSoC5/ADC_SAR_1.c **** * Summary:
 276:Generated_Source\PSoC5/ADC_SAR_1.c **** *  Sets the operational power of the ADC. You should use the higher power
 277:Generated_Source\PSoC5/ADC_SAR_1.c **** *  settings with faster clock speeds.
 278:Generated_Source\PSoC5/ADC_SAR_1.c **** *
 279:Generated_Source\PSoC5/ADC_SAR_1.c **** * Parameters:
ARM GAS  C:\Users\legoc\AppData\Local\Temp\ccKRZKhE.s 			page 7


 280:Generated_Source\PSoC5/ADC_SAR_1.c **** *  power:  Power setting for ADC
 281:Generated_Source\PSoC5/ADC_SAR_1.c **** *  0 ->    Normal
 282:Generated_Source\PSoC5/ADC_SAR_1.c **** *  1 ->    Medium power
 283:Generated_Source\PSoC5/ADC_SAR_1.c **** *  2 ->    1.25 power
 284:Generated_Source\PSoC5/ADC_SAR_1.c **** *  3 ->    Minimum power.
 285:Generated_Source\PSoC5/ADC_SAR_1.c **** *
 286:Generated_Source\PSoC5/ADC_SAR_1.c **** * Return:
 287:Generated_Source\PSoC5/ADC_SAR_1.c **** *  None.
 288:Generated_Source\PSoC5/ADC_SAR_1.c **** *
 289:Generated_Source\PSoC5/ADC_SAR_1.c **** *******************************************************************************/
 290:Generated_Source\PSoC5/ADC_SAR_1.c **** void ADC_SAR_1_SetPower(uint8 power)
 291:Generated_Source\PSoC5/ADC_SAR_1.c **** {
 292:Generated_Source\PSoC5/ADC_SAR_1.c ****     uint8 tmpReg;
 293:Generated_Source\PSoC5/ADC_SAR_1.c **** 
 294:Generated_Source\PSoC5/ADC_SAR_1.c ****     /* mask off invalid power settings */
 295:Generated_Source\PSoC5/ADC_SAR_1.c ****     power &= ADC_SAR_1_SAR_API_POWER_MASK;
 296:Generated_Source\PSoC5/ADC_SAR_1.c **** 
 297:Generated_Source\PSoC5/ADC_SAR_1.c ****     /* Set Power parameter  */
 298:Generated_Source\PSoC5/ADC_SAR_1.c ****     tmpReg = ADC_SAR_1_SAR_CSR0_REG & (uint8)~ADC_SAR_1_SAR_POWER_MASK;
 299:Generated_Source\PSoC5/ADC_SAR_1.c ****     tmpReg |= (uint8)(power << ADC_SAR_1_SAR_POWER_SHIFT);
 300:Generated_Source\PSoC5/ADC_SAR_1.c ****     ADC_SAR_1_SAR_CSR0_REG = tmpReg;
 301:Generated_Source\PSoC5/ADC_SAR_1.c **** }
 302:Generated_Source\PSoC5/ADC_SAR_1.c **** 
 303:Generated_Source\PSoC5/ADC_SAR_1.c **** 
 304:Generated_Source\PSoC5/ADC_SAR_1.c **** /*******************************************************************************
 305:Generated_Source\PSoC5/ADC_SAR_1.c **** * Function Name: ADC_SAR_1_SetResolution
 306:Generated_Source\PSoC5/ADC_SAR_1.c **** ********************************************************************************
 307:Generated_Source\PSoC5/ADC_SAR_1.c **** *
 308:Generated_Source\PSoC5/ADC_SAR_1.c **** * Summary:
 309:Generated_Source\PSoC5/ADC_SAR_1.c **** *  Sets the Relution of the SAR.
 310:Generated_Source\PSoC5/ADC_SAR_1.c **** *
 311:Generated_Source\PSoC5/ADC_SAR_1.c **** * Parameters:
 312:Generated_Source\PSoC5/ADC_SAR_1.c **** *  resolution:
 313:Generated_Source\PSoC5/ADC_SAR_1.c **** *  12 ->    RES12
 314:Generated_Source\PSoC5/ADC_SAR_1.c **** *  10 ->    RES10
 315:Generated_Source\PSoC5/ADC_SAR_1.c **** *  8  ->    RES8
 316:Generated_Source\PSoC5/ADC_SAR_1.c **** *
 317:Generated_Source\PSoC5/ADC_SAR_1.c **** * Return:
 318:Generated_Source\PSoC5/ADC_SAR_1.c **** *  None.
 319:Generated_Source\PSoC5/ADC_SAR_1.c **** *
 320:Generated_Source\PSoC5/ADC_SAR_1.c **** * Side Effects:
 321:Generated_Source\PSoC5/ADC_SAR_1.c **** *  The ADC resolution cannot be changed during a conversion cycle. The
 322:Generated_Source\PSoC5/ADC_SAR_1.c **** *  recommended best practice is to stop conversions with
 323:Generated_Source\PSoC5/ADC_SAR_1.c **** *  ADC_StopConvert(), change the resolution, then restart the
 324:Generated_Source\PSoC5/ADC_SAR_1.c **** *  conversions with ADC_StartConvert().
 325:Generated_Source\PSoC5/ADC_SAR_1.c **** *  If you decide not to stop conversions before calling this API, you
 326:Generated_Source\PSoC5/ADC_SAR_1.c **** *  should use ADC_IsEndConversion() to wait until conversion is complete
 327:Generated_Source\PSoC5/ADC_SAR_1.c **** *  before changing the resolution.
 328:Generated_Source\PSoC5/ADC_SAR_1.c **** *  If you call ADC_SetResolution() during a conversion, the resolution will
 329:Generated_Source\PSoC5/ADC_SAR_1.c **** *  not be changed until the current conversion is complete. Data will not be
 330:Generated_Source\PSoC5/ADC_SAR_1.c **** *  available in the new resolution for another 6 + "New Resolution(in bits)"
 331:Generated_Source\PSoC5/ADC_SAR_1.c **** *  clock cycles.
 332:Generated_Source\PSoC5/ADC_SAR_1.c **** *  You may need add a delay of this number of clock cycles after
 333:Generated_Source\PSoC5/ADC_SAR_1.c **** *  ADC_SetResolution() is called before data is valid again.
 334:Generated_Source\PSoC5/ADC_SAR_1.c **** *  Affects ADC_CountsTo_Volts(), ADC_CountsTo_mVolts(), and
 335:Generated_Source\PSoC5/ADC_SAR_1.c **** *  ADC_CountsTo_uVolts() by calculating the correct conversion between ADC
 336:Generated_Source\PSoC5/ADC_SAR_1.c **** *  counts and the applied input voltage. Calculation depends on resolution,
ARM GAS  C:\Users\legoc\AppData\Local\Temp\ccKRZKhE.s 			page 8


 337:Generated_Source\PSoC5/ADC_SAR_1.c **** *  input range, and voltage reference.
 338:Generated_Source\PSoC5/ADC_SAR_1.c **** *
 339:Generated_Source\PSoC5/ADC_SAR_1.c **** *******************************************************************************/
 340:Generated_Source\PSoC5/ADC_SAR_1.c **** void ADC_SAR_1_SetResolution(uint8 resolution)
 341:Generated_Source\PSoC5/ADC_SAR_1.c **** {
 342:Generated_Source\PSoC5/ADC_SAR_1.c ****     uint8 tmpReg;
 343:Generated_Source\PSoC5/ADC_SAR_1.c **** 
 344:Generated_Source\PSoC5/ADC_SAR_1.c ****     /* Set SAR ADC resolution and sample width: 18 conversion cycles at 12bits + 1 gap */
 345:Generated_Source\PSoC5/ADC_SAR_1.c ****     switch (resolution)
 346:Generated_Source\PSoC5/ADC_SAR_1.c ****     {
 347:Generated_Source\PSoC5/ADC_SAR_1.c ****         case (uint8)ADC_SAR_1__BITS_12:
 348:Generated_Source\PSoC5/ADC_SAR_1.c ****             tmpReg = ADC_SAR_1_SAR_RESOLUTION_12BIT | ADC_SAR_1_SAR_SAMPLE_WIDTH;
 349:Generated_Source\PSoC5/ADC_SAR_1.c ****             break;
 350:Generated_Source\PSoC5/ADC_SAR_1.c ****         case (uint8)ADC_SAR_1__BITS_10:
 351:Generated_Source\PSoC5/ADC_SAR_1.c ****             tmpReg = ADC_SAR_1_SAR_RESOLUTION_10BIT | ADC_SAR_1_SAR_SAMPLE_WIDTH;
 352:Generated_Source\PSoC5/ADC_SAR_1.c ****             break;
 353:Generated_Source\PSoC5/ADC_SAR_1.c ****         case (uint8)ADC_SAR_1__BITS_8:
 354:Generated_Source\PSoC5/ADC_SAR_1.c ****             tmpReg = ADC_SAR_1_SAR_RESOLUTION_8BIT | ADC_SAR_1_SAR_SAMPLE_WIDTH;
 355:Generated_Source\PSoC5/ADC_SAR_1.c ****             break;
 356:Generated_Source\PSoC5/ADC_SAR_1.c ****         default:
 357:Generated_Source\PSoC5/ADC_SAR_1.c ****             tmpReg = ADC_SAR_1_SAR_RESOLUTION_12BIT | ADC_SAR_1_SAR_SAMPLE_WIDTH;
 358:Generated_Source\PSoC5/ADC_SAR_1.c ****             /* Halt CPU in debug mode if resolution is out of valid range */
 359:Generated_Source\PSoC5/ADC_SAR_1.c ****             CYASSERT(0u != 0u);
 360:Generated_Source\PSoC5/ADC_SAR_1.c ****             break;
 361:Generated_Source\PSoC5/ADC_SAR_1.c ****     }
 362:Generated_Source\PSoC5/ADC_SAR_1.c ****     ADC_SAR_1_SAR_CSR2_REG = tmpReg;
 363:Generated_Source\PSoC5/ADC_SAR_1.c **** 
 364:Generated_Source\PSoC5/ADC_SAR_1.c ****      /* Calculate gain for convert counts to volts */
 365:Generated_Source\PSoC5/ADC_SAR_1.c ****     ADC_SAR_1_CalcGain(resolution);
 366:Generated_Source\PSoC5/ADC_SAR_1.c **** }
 367:Generated_Source\PSoC5/ADC_SAR_1.c **** 
 368:Generated_Source\PSoC5/ADC_SAR_1.c **** 
 369:Generated_Source\PSoC5/ADC_SAR_1.c **** #if(ADC_SAR_1_DEFAULT_CONV_MODE != ADC_SAR_1__HARDWARE_TRIGGER)
 370:Generated_Source\PSoC5/ADC_SAR_1.c **** 
 371:Generated_Source\PSoC5/ADC_SAR_1.c **** 
 372:Generated_Source\PSoC5/ADC_SAR_1.c ****     /*******************************************************************************
 373:Generated_Source\PSoC5/ADC_SAR_1.c ****     * Function Name: ADC_SAR_1_StartConvert
 374:Generated_Source\PSoC5/ADC_SAR_1.c ****     ********************************************************************************
 375:Generated_Source\PSoC5/ADC_SAR_1.c ****     *
 376:Generated_Source\PSoC5/ADC_SAR_1.c ****     * Summary:
 377:Generated_Source\PSoC5/ADC_SAR_1.c ****     *  Forces the ADC to initiate a conversion. In free-running mode, the ADC runs
 378:Generated_Source\PSoC5/ADC_SAR_1.c ****     *  continuously. In software trigger mode, the function also acts as a software
 379:Generated_Source\PSoC5/ADC_SAR_1.c ****     *  version of the SOC and every conversion must be triggered by
 380:Generated_Source\PSoC5/ADC_SAR_1.c ****     *  ADC_SAR_1_StartConvert(). This function is not available when the
 381:Generated_Source\PSoC5/ADC_SAR_1.c ****     *  Hardware Trigger sample mode is selected.
 382:Generated_Source\PSoC5/ADC_SAR_1.c ****     *
 383:Generated_Source\PSoC5/ADC_SAR_1.c ****     * Parameters:
 384:Generated_Source\PSoC5/ADC_SAR_1.c ****     *  None.
 385:Generated_Source\PSoC5/ADC_SAR_1.c ****     *
 386:Generated_Source\PSoC5/ADC_SAR_1.c ****     * Return:
 387:Generated_Source\PSoC5/ADC_SAR_1.c ****     *  None.
 388:Generated_Source\PSoC5/ADC_SAR_1.c ****     *
 389:Generated_Source\PSoC5/ADC_SAR_1.c ****     * Theory:
 390:Generated_Source\PSoC5/ADC_SAR_1.c ****     *  Forces the ADC to initiate a conversion. In Free Running mode, the ADC will
 391:Generated_Source\PSoC5/ADC_SAR_1.c ****     *  run continuously. In a software trigger mode the function also acts as a
 392:Generated_Source\PSoC5/ADC_SAR_1.c ****     *  software version of the SOC. Here every conversion has to be triggered by
 393:Generated_Source\PSoC5/ADC_SAR_1.c ****     *  the routine. This writes into the SOC bit in SAR_CTRL reg.
ARM GAS  C:\Users\legoc\AppData\Local\Temp\ccKRZKhE.s 			page 9


 394:Generated_Source\PSoC5/ADC_SAR_1.c ****     *
 395:Generated_Source\PSoC5/ADC_SAR_1.c ****     * Side Effects:
 396:Generated_Source\PSoC5/ADC_SAR_1.c ****     *  In a software trigger mode the function switches source for SOF from the
 397:Generated_Source\PSoC5/ADC_SAR_1.c ****     *  external pin to the internal SOF generation. Application should not call
 398:Generated_Source\PSoC5/ADC_SAR_1.c ****     *  StartConvert if external source used for SOF.
 399:Generated_Source\PSoC5/ADC_SAR_1.c ****     *
 400:Generated_Source\PSoC5/ADC_SAR_1.c ****     *******************************************************************************/
 401:Generated_Source\PSoC5/ADC_SAR_1.c ****     void ADC_SAR_1_StartConvert(void)
 402:Generated_Source\PSoC5/ADC_SAR_1.c ****     {
 403:Generated_Source\PSoC5/ADC_SAR_1.c ****         #if(ADC_SAR_1_DEFAULT_CONV_MODE != ADC_SAR_1__FREE_RUNNING)  /* If software triggered mode 
 404:Generated_Source\PSoC5/ADC_SAR_1.c ****             ADC_SAR_1_SAR_CSR0_REG &= (uint8)~ADC_SAR_1_SAR_MX_SOF_UDB;   /* source: SOF bit */
 405:Generated_Source\PSoC5/ADC_SAR_1.c ****         #endif /* End ADC_SAR_1_DEFAULT_CONV_MODE */
 406:Generated_Source\PSoC5/ADC_SAR_1.c **** 
 407:Generated_Source\PSoC5/ADC_SAR_1.c ****         /* Start the conversion */
 408:Generated_Source\PSoC5/ADC_SAR_1.c ****         ADC_SAR_1_SAR_CSR0_REG |= ADC_SAR_1_SAR_SOF_START_CONV;
 409:Generated_Source\PSoC5/ADC_SAR_1.c ****     }
 410:Generated_Source\PSoC5/ADC_SAR_1.c **** 
 411:Generated_Source\PSoC5/ADC_SAR_1.c **** 
 412:Generated_Source\PSoC5/ADC_SAR_1.c ****     /*******************************************************************************
 413:Generated_Source\PSoC5/ADC_SAR_1.c ****     * Function Name: ADC_SAR_1_StopConvert
 414:Generated_Source\PSoC5/ADC_SAR_1.c ****     ********************************************************************************
 415:Generated_Source\PSoC5/ADC_SAR_1.c ****     *
 416:Generated_Source\PSoC5/ADC_SAR_1.c ****     * Summary:
 417:Generated_Source\PSoC5/ADC_SAR_1.c ****     *  Forces the ADC to stop conversions. If a conversion is currently executing,
 418:Generated_Source\PSoC5/ADC_SAR_1.c ****     *  that conversion will complete, but no further conversions will occur. This
 419:Generated_Source\PSoC5/ADC_SAR_1.c ****     *  function is not available when the Hardware Trigger sample mode is selected.
 420:Generated_Source\PSoC5/ADC_SAR_1.c ****     *
 421:Generated_Source\PSoC5/ADC_SAR_1.c ****     * Parameters:
 422:Generated_Source\PSoC5/ADC_SAR_1.c ****     *  None.
 423:Generated_Source\PSoC5/ADC_SAR_1.c ****     *
 424:Generated_Source\PSoC5/ADC_SAR_1.c ****     * Return:
 425:Generated_Source\PSoC5/ADC_SAR_1.c ****     *  None.
 426:Generated_Source\PSoC5/ADC_SAR_1.c ****     *
 427:Generated_Source\PSoC5/ADC_SAR_1.c ****     * Theory:
 428:Generated_Source\PSoC5/ADC_SAR_1.c ****     *  Stops ADC conversion in Free Running mode.
 429:Generated_Source\PSoC5/ADC_SAR_1.c ****     *
 430:Generated_Source\PSoC5/ADC_SAR_1.c ****     * Side Effects:
 431:Generated_Source\PSoC5/ADC_SAR_1.c ****     *  In Software Trigger sample mode, this function sets a software version of the
 432:Generated_Source\PSoC5/ADC_SAR_1.c ****     *  SOC to low level and switches the SOC source to hardware SOC input.
 433:Generated_Source\PSoC5/ADC_SAR_1.c ****     *
 434:Generated_Source\PSoC5/ADC_SAR_1.c ****     *******************************************************************************/
 435:Generated_Source\PSoC5/ADC_SAR_1.c ****     void ADC_SAR_1_StopConvert(void)
 436:Generated_Source\PSoC5/ADC_SAR_1.c ****     {
 437:Generated_Source\PSoC5/ADC_SAR_1.c ****         /* Stop all conversions */
 438:Generated_Source\PSoC5/ADC_SAR_1.c ****         ADC_SAR_1_SAR_CSR0_REG &= (uint8)~ADC_SAR_1_SAR_SOF_START_CONV;
 439:Generated_Source\PSoC5/ADC_SAR_1.c **** 
 440:Generated_Source\PSoC5/ADC_SAR_1.c ****         #if(ADC_SAR_1_DEFAULT_CONV_MODE != ADC_SAR_1__FREE_RUNNING)  /* If software triggered mode 
 441:Generated_Source\PSoC5/ADC_SAR_1.c ****             /* Return source to UDB for hardware SOF signal */
 442:Generated_Source\PSoC5/ADC_SAR_1.c ****             ADC_SAR_1_SAR_CSR0_REG |= ADC_SAR_1_SAR_MX_SOF_UDB;    /* source: UDB */
 443:Generated_Source\PSoC5/ADC_SAR_1.c ****         #endif /* End ADC_SAR_1_DEFAULT_CONV_MODE */
 444:Generated_Source\PSoC5/ADC_SAR_1.c **** 
 445:Generated_Source\PSoC5/ADC_SAR_1.c ****     }
 446:Generated_Source\PSoC5/ADC_SAR_1.c **** 
 447:Generated_Source\PSoC5/ADC_SAR_1.c **** #endif /* End ADC_SAR_1_DEFAULT_CONV_MODE != ADC_SAR_1__HARDWARE_TRIGGER */
 448:Generated_Source\PSoC5/ADC_SAR_1.c **** 
 449:Generated_Source\PSoC5/ADC_SAR_1.c **** 
 450:Generated_Source\PSoC5/ADC_SAR_1.c **** /*******************************************************************************
ARM GAS  C:\Users\legoc\AppData\Local\Temp\ccKRZKhE.s 			page 10


 451:Generated_Source\PSoC5/ADC_SAR_1.c **** * Function Name: ADC_SAR_1_IsEndConversion
 452:Generated_Source\PSoC5/ADC_SAR_1.c **** ********************************************************************************
 453:Generated_Source\PSoC5/ADC_SAR_1.c **** *
 454:Generated_Source\PSoC5/ADC_SAR_1.c **** * Summary:
 455:Generated_Source\PSoC5/ADC_SAR_1.c **** *  Immediately returns the status of the conversion or does not return
 456:Generated_Source\PSoC5/ADC_SAR_1.c **** *  (blocking) until the conversion completes, depending on the retMode
 457:Generated_Source\PSoC5/ADC_SAR_1.c **** *  parameter.
 458:Generated_Source\PSoC5/ADC_SAR_1.c **** *
 459:Generated_Source\PSoC5/ADC_SAR_1.c **** * Parameters:
 460:Generated_Source\PSoC5/ADC_SAR_1.c **** *  retMode:  Check conversion return mode.
 461:Generated_Source\PSoC5/ADC_SAR_1.c **** *   ADC_SAR_1_RETURN_STATUS: Immediately returns the status. If the
 462:Generated_Source\PSoC5/ADC_SAR_1.c **** *     value returned is zero, the conversion is not complete, and this function
 463:Generated_Source\PSoC5/ADC_SAR_1.c **** *     should be retried until a nonzero result is returned.
 464:Generated_Source\PSoC5/ADC_SAR_1.c **** *   ADC_SAR_1_WAIT_FOR_RESULT: Does not return a result until the ADC
 465:Generated_Source\PSoC5/ADC_SAR_1.c **** *     conversion is complete.
 466:Generated_Source\PSoC5/ADC_SAR_1.c **** *
 467:Generated_Source\PSoC5/ADC_SAR_1.c **** * Return:
 468:Generated_Source\PSoC5/ADC_SAR_1.c **** *  (uint8)  0 =>  The ADC is still calculating the last result.
 469:Generated_Source\PSoC5/ADC_SAR_1.c **** *           1 =>  The last conversion is complete.
 470:Generated_Source\PSoC5/ADC_SAR_1.c **** *
 471:Generated_Source\PSoC5/ADC_SAR_1.c **** * Side Effects:
 472:Generated_Source\PSoC5/ADC_SAR_1.c **** *  This function reads the end of conversion status, which is cleared on read.
 473:Generated_Source\PSoC5/ADC_SAR_1.c **** *
 474:Generated_Source\PSoC5/ADC_SAR_1.c **** *******************************************************************************/
 475:Generated_Source\PSoC5/ADC_SAR_1.c **** uint8 ADC_SAR_1_IsEndConversion(uint8 retMode)
 476:Generated_Source\PSoC5/ADC_SAR_1.c **** {
 477:Generated_Source\PSoC5/ADC_SAR_1.c ****     uint8 status;
 478:Generated_Source\PSoC5/ADC_SAR_1.c **** 
 479:Generated_Source\PSoC5/ADC_SAR_1.c ****     do
 480:Generated_Source\PSoC5/ADC_SAR_1.c ****     {
 481:Generated_Source\PSoC5/ADC_SAR_1.c ****         status = ADC_SAR_1_SAR_CSR1_REG & ADC_SAR_1_SAR_EOF_1;
 482:Generated_Source\PSoC5/ADC_SAR_1.c ****     } while ((status != ADC_SAR_1_SAR_EOF_1) && (retMode == ADC_SAR_1_WAIT_FOR_RESULT));
 483:Generated_Source\PSoC5/ADC_SAR_1.c ****     /* If convertion complete, wait until EOF bit released */
 484:Generated_Source\PSoC5/ADC_SAR_1.c ****     if(status == ADC_SAR_1_SAR_EOF_1)
 485:Generated_Source\PSoC5/ADC_SAR_1.c ****     {
 486:Generated_Source\PSoC5/ADC_SAR_1.c ****         /* wait one ADC clock to let the EOC status bit release */
 487:Generated_Source\PSoC5/ADC_SAR_1.c ****         CyDelayUs(1u);
 488:Generated_Source\PSoC5/ADC_SAR_1.c ****         /* Do the unconditional read operation of the CSR1 register to make sure the EOC bit has be
 489:Generated_Source\PSoC5/ADC_SAR_1.c ****         CY_GET_REG8(ADC_SAR_1_SAR_CSR1_PTR);
 490:Generated_Source\PSoC5/ADC_SAR_1.c ****     }
 491:Generated_Source\PSoC5/ADC_SAR_1.c **** 
 492:Generated_Source\PSoC5/ADC_SAR_1.c ****     return(status);
 493:Generated_Source\PSoC5/ADC_SAR_1.c **** }
 494:Generated_Source\PSoC5/ADC_SAR_1.c **** 
 495:Generated_Source\PSoC5/ADC_SAR_1.c **** 
 496:Generated_Source\PSoC5/ADC_SAR_1.c **** /*******************************************************************************
 497:Generated_Source\PSoC5/ADC_SAR_1.c **** * Function Name: ADC_SAR_1_GetResult8
 498:Generated_Source\PSoC5/ADC_SAR_1.c **** ********************************************************************************
 499:Generated_Source\PSoC5/ADC_SAR_1.c **** *
 500:Generated_Source\PSoC5/ADC_SAR_1.c **** * Summary:
 501:Generated_Source\PSoC5/ADC_SAR_1.c **** *  Returns the result of an 8-bit conversion. If the resolution is set greater
 502:Generated_Source\PSoC5/ADC_SAR_1.c **** *  than 8 bits, the function returns the LSB of the result.
 503:Generated_Source\PSoC5/ADC_SAR_1.c **** *  ADC_SAR_1_IsEndConversion() should be called to verify that the data
 504:Generated_Source\PSoC5/ADC_SAR_1.c **** *   sample is ready.
 505:Generated_Source\PSoC5/ADC_SAR_1.c **** *
 506:Generated_Source\PSoC5/ADC_SAR_1.c **** * Parameters:
 507:Generated_Source\PSoC5/ADC_SAR_1.c **** *  None.
ARM GAS  C:\Users\legoc\AppData\Local\Temp\ccKRZKhE.s 			page 11


 508:Generated_Source\PSoC5/ADC_SAR_1.c **** *
 509:Generated_Source\PSoC5/ADC_SAR_1.c **** * Return:
 510:Generated_Source\PSoC5/ADC_SAR_1.c **** *  The LSB of the last ADC conversion.
 511:Generated_Source\PSoC5/ADC_SAR_1.c **** *
 512:Generated_Source\PSoC5/ADC_SAR_1.c **** * Global Variables:
 513:Generated_Source\PSoC5/ADC_SAR_1.c **** *  ADC_SAR_1_shift - used to convert the ADC counts to the 2s
 514:Generated_Source\PSoC5/ADC_SAR_1.c **** *  compliment form.
 515:Generated_Source\PSoC5/ADC_SAR_1.c **** *
 516:Generated_Source\PSoC5/ADC_SAR_1.c **** * Side Effects:
 517:Generated_Source\PSoC5/ADC_SAR_1.c **** *  Converts the ADC counts to the 2s complement form.
 518:Generated_Source\PSoC5/ADC_SAR_1.c **** *
 519:Generated_Source\PSoC5/ADC_SAR_1.c **** *******************************************************************************/
 520:Generated_Source\PSoC5/ADC_SAR_1.c **** int8 ADC_SAR_1_GetResult8( void )
 521:Generated_Source\PSoC5/ADC_SAR_1.c **** {
 522:Generated_Source\PSoC5/ADC_SAR_1.c ****     return( (int8)ADC_SAR_1_SAR_WRK0_REG - (int8)ADC_SAR_1_shift);
 523:Generated_Source\PSoC5/ADC_SAR_1.c **** }
 524:Generated_Source\PSoC5/ADC_SAR_1.c **** 
 525:Generated_Source\PSoC5/ADC_SAR_1.c **** 
 526:Generated_Source\PSoC5/ADC_SAR_1.c **** /*******************************************************************************
 527:Generated_Source\PSoC5/ADC_SAR_1.c **** * Function Name: ADC_SAR_1_GetResult16
 528:Generated_Source\PSoC5/ADC_SAR_1.c **** ********************************************************************************
 529:Generated_Source\PSoC5/ADC_SAR_1.c **** *
 530:Generated_Source\PSoC5/ADC_SAR_1.c **** * Summary:
 531:Generated_Source\PSoC5/ADC_SAR_1.c **** *  Returns a 16-bit result for a conversion with a result that has a resolution
 532:Generated_Source\PSoC5/ADC_SAR_1.c **** *  of 8 to 12 bits.
 533:Generated_Source\PSoC5/ADC_SAR_1.c **** *  ADC_SAR_1_IsEndConversion() should be called to verify that the data
 534:Generated_Source\PSoC5/ADC_SAR_1.c **** *   sample is ready
 535:Generated_Source\PSoC5/ADC_SAR_1.c **** *
 536:Generated_Source\PSoC5/ADC_SAR_1.c **** * Parameters:
 537:Generated_Source\PSoC5/ADC_SAR_1.c **** *  None.
 538:Generated_Source\PSoC5/ADC_SAR_1.c **** *
 539:Generated_Source\PSoC5/ADC_SAR_1.c **** * Return:
 540:Generated_Source\PSoC5/ADC_SAR_1.c **** *  The 16-bit result of the last ADC conversion
 541:Generated_Source\PSoC5/ADC_SAR_1.c **** *
 542:Generated_Source\PSoC5/ADC_SAR_1.c **** * Global Variables:
 543:Generated_Source\PSoC5/ADC_SAR_1.c **** *  ADC_SAR_1_shift - used to convert the ADC counts to the 2s
 544:Generated_Source\PSoC5/ADC_SAR_1.c **** *  compliment form.
 545:Generated_Source\PSoC5/ADC_SAR_1.c **** *
 546:Generated_Source\PSoC5/ADC_SAR_1.c **** * Side Effects:
 547:Generated_Source\PSoC5/ADC_SAR_1.c **** *  Converts the ADC counts to the 2s complement form.
 548:Generated_Source\PSoC5/ADC_SAR_1.c **** *
 549:Generated_Source\PSoC5/ADC_SAR_1.c **** *******************************************************************************/
 550:Generated_Source\PSoC5/ADC_SAR_1.c **** int16 ADC_SAR_1_GetResult16( void )
 551:Generated_Source\PSoC5/ADC_SAR_1.c **** {
 552:Generated_Source\PSoC5/ADC_SAR_1.c ****     uint16 res;
 553:Generated_Source\PSoC5/ADC_SAR_1.c **** 
 554:Generated_Source\PSoC5/ADC_SAR_1.c ****     res = CY_GET_REG16(ADC_SAR_1_SAR_WRK_PTR);
 555:Generated_Source\PSoC5/ADC_SAR_1.c **** 
 556:Generated_Source\PSoC5/ADC_SAR_1.c ****     return( (int16)res - ADC_SAR_1_shift );
 557:Generated_Source\PSoC5/ADC_SAR_1.c **** }
 558:Generated_Source\PSoC5/ADC_SAR_1.c **** 
 559:Generated_Source\PSoC5/ADC_SAR_1.c **** 
 560:Generated_Source\PSoC5/ADC_SAR_1.c **** /*******************************************************************************
 561:Generated_Source\PSoC5/ADC_SAR_1.c **** * Function Name: ADC_SAR_1_SetOffset
 562:Generated_Source\PSoC5/ADC_SAR_1.c **** ********************************************************************************
 563:Generated_Source\PSoC5/ADC_SAR_1.c **** *
 564:Generated_Source\PSoC5/ADC_SAR_1.c **** * Summary:
ARM GAS  C:\Users\legoc\AppData\Local\Temp\ccKRZKhE.s 			page 12


 565:Generated_Source\PSoC5/ADC_SAR_1.c **** *  Sets the ADC offset, which is used by ADC_SAR_1_CountsTo_Volts(),
 566:Generated_Source\PSoC5/ADC_SAR_1.c **** *  ADC_SAR_1_CountsTo_mVolts(), and ADC_SAR_1_CountsTo_uVolts()
 567:Generated_Source\PSoC5/ADC_SAR_1.c **** *  to subtract the offset from the given reading before calculating the voltage
 568:Generated_Source\PSoC5/ADC_SAR_1.c **** *  conversion.
 569:Generated_Source\PSoC5/ADC_SAR_1.c **** *
 570:Generated_Source\PSoC5/ADC_SAR_1.c **** * Parameters:
 571:Generated_Source\PSoC5/ADC_SAR_1.c **** *  int16: This value is measured when the inputs are shorted or connected to
 572:Generated_Source\PSoC5/ADC_SAR_1.c ****    the same input voltage.
 573:Generated_Source\PSoC5/ADC_SAR_1.c **** *
 574:Generated_Source\PSoC5/ADC_SAR_1.c **** * Return:
 575:Generated_Source\PSoC5/ADC_SAR_1.c **** *  None.
 576:Generated_Source\PSoC5/ADC_SAR_1.c **** *
 577:Generated_Source\PSoC5/ADC_SAR_1.c **** * Global Variables:
 578:Generated_Source\PSoC5/ADC_SAR_1.c **** *  The ADC_SAR_1_offset variable modified. This variable is used for
 579:Generated_Source\PSoC5/ADC_SAR_1.c **** *  offset calibration purpose.
 580:Generated_Source\PSoC5/ADC_SAR_1.c **** *  Affects the ADC_SAR_1_CountsTo_Volts,
 581:Generated_Source\PSoC5/ADC_SAR_1.c **** *  ADC_SAR_1_CountsTo_mVolts, ADC_SAR_1_CountsTo_uVolts functions
 582:Generated_Source\PSoC5/ADC_SAR_1.c **** *  by subtracting the given offset.
 583:Generated_Source\PSoC5/ADC_SAR_1.c **** *
 584:Generated_Source\PSoC5/ADC_SAR_1.c **** *******************************************************************************/
 585:Generated_Source\PSoC5/ADC_SAR_1.c **** void ADC_SAR_1_SetOffset(int16 offset)
 586:Generated_Source\PSoC5/ADC_SAR_1.c **** {
 587:Generated_Source\PSoC5/ADC_SAR_1.c ****     ADC_SAR_1_offset = offset;
 588:Generated_Source\PSoC5/ADC_SAR_1.c **** }
 589:Generated_Source\PSoC5/ADC_SAR_1.c **** 
 590:Generated_Source\PSoC5/ADC_SAR_1.c **** 
 591:Generated_Source\PSoC5/ADC_SAR_1.c **** /*******************************************************************************
 592:Generated_Source\PSoC5/ADC_SAR_1.c **** * Function Name: ADC_SAR_1_CalcGain
 593:Generated_Source\PSoC5/ADC_SAR_1.c **** ********************************************************************************
 594:Generated_Source\PSoC5/ADC_SAR_1.c **** *
 595:Generated_Source\PSoC5/ADC_SAR_1.c **** * Summary:
 596:Generated_Source\PSoC5/ADC_SAR_1.c **** *  This function calculates the ADC gain in counts per 10 volt.
 597:Generated_Source\PSoC5/ADC_SAR_1.c **** *
 598:Generated_Source\PSoC5/ADC_SAR_1.c **** * Parameters:
 599:Generated_Source\PSoC5/ADC_SAR_1.c **** *  uint8: resolution
 600:Generated_Source\PSoC5/ADC_SAR_1.c **** *
 601:Generated_Source\PSoC5/ADC_SAR_1.c **** * Return:
 602:Generated_Source\PSoC5/ADC_SAR_1.c **** *  None.
 603:Generated_Source\PSoC5/ADC_SAR_1.c **** *
 604:Generated_Source\PSoC5/ADC_SAR_1.c **** * Global Variables:
 605:Generated_Source\PSoC5/ADC_SAR_1.c **** *  ADC_SAR_1_shift variable initialized. This variable is used to
 606:Generated_Source\PSoC5/ADC_SAR_1.c **** *  convert the ADC counts to the 2s compliment form.
 607:Generated_Source\PSoC5/ADC_SAR_1.c **** *  ADC_SAR_1_countsPer10Volt variable initialized. This variable is used
 608:Generated_Source\PSoC5/ADC_SAR_1.c **** *  for gain calibration purpose.
 609:Generated_Source\PSoC5/ADC_SAR_1.c **** *
 610:Generated_Source\PSoC5/ADC_SAR_1.c **** *******************************************************************************/
 611:Generated_Source\PSoC5/ADC_SAR_1.c **** static void ADC_SAR_1_CalcGain( uint8 resolution )
 612:Generated_Source\PSoC5/ADC_SAR_1.c **** {
 613:Generated_Source\PSoC5/ADC_SAR_1.c ****     int32 counts;
 614:Generated_Source\PSoC5/ADC_SAR_1.c ****     #if(!((ADC_SAR_1_DEFAULT_RANGE == ADC_SAR_1__VSS_TO_VREF) || \
 615:Generated_Source\PSoC5/ADC_SAR_1.c ****          (ADC_SAR_1_DEFAULT_RANGE == ADC_SAR_1__VSSA_TO_VDDA) || \
 616:Generated_Source\PSoC5/ADC_SAR_1.c ****          (ADC_SAR_1_DEFAULT_RANGE == ADC_SAR_1__VSSA_TO_VDAC)) )
 617:Generated_Source\PSoC5/ADC_SAR_1.c ****         uint16 diff_zero;
 618:Generated_Source\PSoC5/ADC_SAR_1.c ****     #endif /* End ADC_SAR_1_DEFAULT_RANGE */
 619:Generated_Source\PSoC5/ADC_SAR_1.c **** 
 620:Generated_Source\PSoC5/ADC_SAR_1.c ****     switch (resolution)
 621:Generated_Source\PSoC5/ADC_SAR_1.c ****     {
ARM GAS  C:\Users\legoc\AppData\Local\Temp\ccKRZKhE.s 			page 13


 622:Generated_Source\PSoC5/ADC_SAR_1.c ****         case (uint8)ADC_SAR_1__BITS_12:
 623:Generated_Source\PSoC5/ADC_SAR_1.c ****             counts = (int32)ADC_SAR_1_SAR_WRK_MAX_12BIT;
 624:Generated_Source\PSoC5/ADC_SAR_1.c ****             #if(!((ADC_SAR_1_DEFAULT_RANGE == ADC_SAR_1__VSS_TO_VREF) || \
 625:Generated_Source\PSoC5/ADC_SAR_1.c ****                  (ADC_SAR_1_DEFAULT_RANGE == ADC_SAR_1__VSSA_TO_VDDA) || \
 626:Generated_Source\PSoC5/ADC_SAR_1.c ****                  (ADC_SAR_1_DEFAULT_RANGE == ADC_SAR_1__VSSA_TO_VDAC)) )
 627:Generated_Source\PSoC5/ADC_SAR_1.c ****                 diff_zero = ADC_SAR_1_SAR_DIFF_SHIFT;
 628:Generated_Source\PSoC5/ADC_SAR_1.c ****             #endif /* End ADC_SAR_1_DEFAULT_RANGE */
 629:Generated_Source\PSoC5/ADC_SAR_1.c ****             break;
 630:Generated_Source\PSoC5/ADC_SAR_1.c ****         case (uint8)ADC_SAR_1__BITS_10:
 631:Generated_Source\PSoC5/ADC_SAR_1.c ****             counts = (int32)ADC_SAR_1_SAR_WRK_MAX_10BIT;
 632:Generated_Source\PSoC5/ADC_SAR_1.c ****             #if(!((ADC_SAR_1_DEFAULT_RANGE == ADC_SAR_1__VSS_TO_VREF) || \
 633:Generated_Source\PSoC5/ADC_SAR_1.c ****                  (ADC_SAR_1_DEFAULT_RANGE == ADC_SAR_1__VSSA_TO_VDDA) || \
 634:Generated_Source\PSoC5/ADC_SAR_1.c ****                  (ADC_SAR_1_DEFAULT_RANGE == ADC_SAR_1__VSSA_TO_VDAC)) )
 635:Generated_Source\PSoC5/ADC_SAR_1.c ****                 diff_zero = ADC_SAR_1_SAR_DIFF_SHIFT >> 2u;
 636:Generated_Source\PSoC5/ADC_SAR_1.c ****             #endif /* End ADC_SAR_1_DEFAULT_RANGE */
 637:Generated_Source\PSoC5/ADC_SAR_1.c ****             break;
 638:Generated_Source\PSoC5/ADC_SAR_1.c ****         case (uint8)ADC_SAR_1__BITS_8:
 639:Generated_Source\PSoC5/ADC_SAR_1.c ****             counts = (int32)ADC_SAR_1_SAR_WRK_MAX_8BIT;
 640:Generated_Source\PSoC5/ADC_SAR_1.c ****             #if(!((ADC_SAR_1_DEFAULT_RANGE == ADC_SAR_1__VSS_TO_VREF) || \
 641:Generated_Source\PSoC5/ADC_SAR_1.c ****                  (ADC_SAR_1_DEFAULT_RANGE == ADC_SAR_1__VSSA_TO_VDDA) || \
 642:Generated_Source\PSoC5/ADC_SAR_1.c ****                  (ADC_SAR_1_DEFAULT_RANGE == ADC_SAR_1__VSSA_TO_VDAC)) )
 643:Generated_Source\PSoC5/ADC_SAR_1.c ****                 diff_zero = ADC_SAR_1_SAR_DIFF_SHIFT >> 4u;
 644:Generated_Source\PSoC5/ADC_SAR_1.c ****             #endif /* End ADC_SAR_1_DEFAULT_RANGE */
 645:Generated_Source\PSoC5/ADC_SAR_1.c ****             break;
 646:Generated_Source\PSoC5/ADC_SAR_1.c ****         default: /* Halt CPU in debug mode if resolution is out of valid range */
 647:Generated_Source\PSoC5/ADC_SAR_1.c ****             counts = 0;
 648:Generated_Source\PSoC5/ADC_SAR_1.c ****             #if(!((ADC_SAR_1_DEFAULT_RANGE == ADC_SAR_1__VSS_TO_VREF) || \
 649:Generated_Source\PSoC5/ADC_SAR_1.c ****                  (ADC_SAR_1_DEFAULT_RANGE == ADC_SAR_1__VSSA_TO_VDDA) || \
 650:Generated_Source\PSoC5/ADC_SAR_1.c ****                  (ADC_SAR_1_DEFAULT_RANGE == ADC_SAR_1__VSSA_TO_VDAC)) )
 651:Generated_Source\PSoC5/ADC_SAR_1.c ****                 diff_zero = 0u;
 652:Generated_Source\PSoC5/ADC_SAR_1.c ****             #endif /* End ADC_SAR_1_DEFAULT_RANGE */
 653:Generated_Source\PSoC5/ADC_SAR_1.c ****             CYASSERT(0u != 0u);
 654:Generated_Source\PSoC5/ADC_SAR_1.c ****             break;
 655:Generated_Source\PSoC5/ADC_SAR_1.c ****     }
 656:Generated_Source\PSoC5/ADC_SAR_1.c ****     ADC_SAR_1_countsPerVolt = 0; /* Clear obsolete variable */
 657:Generated_Source\PSoC5/ADC_SAR_1.c ****     /* Calculate gain in counts per 10 volts with rounding */
 658:Generated_Source\PSoC5/ADC_SAR_1.c ****     ADC_SAR_1_countsPer10Volt = (((counts * ADC_SAR_1_10MV_COUNTS) +
  64              		.loc 1 658 0
  65 001e 44F62060 		movw	r0, #20000
  66              	.LBE17:
  67              	.LBE16:
  68              	.LBE15:
  69              	.LBE14:
 121:Generated_Source\PSoC5/ADC_SAR_1.c **** 
  70              		.loc 1 121 0
  71 0022 2D4A     		ldr	r2, .L5+8
  72              	.LBB31:
  73              	.LBB26:
 362:Generated_Source\PSoC5/ADC_SAR_1.c **** 
  74              		.loc 1 362 0
  75 0024 2D4E     		ldr	r6, .L5+12
  76              	.LBE26:
  77              	.LBE31:
 121:Generated_Source\PSoC5/ADC_SAR_1.c **** 
  78              		.loc 1 121 0
  79 0026 1378     		ldrb	r3, [r2]	@ zero_extendqisi2
  80              	.LBB32:
ARM GAS  C:\Users\legoc\AppData\Local\Temp\ccKRZKhE.s 			page 14


  81              	.LBB27:
  82              	.LBB22:
  83              	.LBB18:
 656:Generated_Source\PSoC5/ADC_SAR_1.c ****     /* Calculate gain in counts per 10 volts with rounding */
  84              		.loc 1 656 0
  85 0028 2D4F     		ldr	r7, .L5+16
  86              	.LBE18:
  87              	.LBE22:
  88              	.LBE27:
  89              	.LBE32:
 121:Generated_Source\PSoC5/ADC_SAR_1.c **** 
  90              		.loc 1 121 0
  91 002a 43F00603 		orr	r3, r3, #6
  92 002e 1370     		strb	r3, [r2]
  93              	.LVL3:
  94              	.LBB33:
  95              	.LBB28:
 362:Generated_Source\PSoC5/ADC_SAR_1.c **** 
  96              		.loc 1 362 0
  97 0030 C223     		movs	r3, #194
  98 0032 3370     		strb	r3, [r6]
  99              	.LVL4:
 100              	.LBB23:
 101              	.LBB19:
 102              		.loc 1 658 0
 103 0034 2B49     		ldr	r1, .L5+20
 659:Generated_Source\PSoC5/ADC_SAR_1.c ****                         ADC_SAR_1_DEFAULT_REF_VOLTAGE_MV) / (ADC_SAR_1_DEFAULT_REF_VOLTAGE_MV * 2))
 660:Generated_Source\PSoC5/ADC_SAR_1.c **** 
 661:Generated_Source\PSoC5/ADC_SAR_1.c ****     #if( (ADC_SAR_1_DEFAULT_RANGE == ADC_SAR_1__VSS_TO_VREF) || \
 662:Generated_Source\PSoC5/ADC_SAR_1.c ****          (ADC_SAR_1_DEFAULT_RANGE == ADC_SAR_1__VSSA_TO_VDDA) || \
 663:Generated_Source\PSoC5/ADC_SAR_1.c ****          (ADC_SAR_1_DEFAULT_RANGE == ADC_SAR_1__VSSA_TO_VDAC) )
 664:Generated_Source\PSoC5/ADC_SAR_1.c ****         ADC_SAR_1_shift = 0;
 104              		.loc 1 664 0
 105 0036 2C4A     		ldr	r2, .L5+24
 106              	.LBE19:
 107              	.LBE23:
 108              	.LBE28:
 109              	.LBE33:
 125:Generated_Source\PSoC5/ADC_SAR_1.c **** }
 110              		.loc 1 125 0
 111 0038 2C4B     		ldr	r3, .L5+28
 112              	.LBE13:
 113              	.LBE12:
  81:Generated_Source\PSoC5/ADC_SAR_1.c ****     }
 114              		.loc 1 81 0
 115 003a 0126     		movs	r6, #1
 116              	.LBB38:
 117              	.LBB36:
 118              	.LBB34:
 119              	.LBB29:
 120              	.LBB24:
 121              	.LBB20:
 656:Generated_Source\PSoC5/ADC_SAR_1.c ****     /* Calculate gain in counts per 10 volts with rounding */
 122              		.loc 1 656 0
 123 003c 3C80     		strh	r4, [r7]	@ movhi
 124              	.LBE20:
 125              	.LBE24:
ARM GAS  C:\Users\legoc\AppData\Local\Temp\ccKRZKhE.s 			page 15


 126              	.LBE29:
 127              	.LBE34:
 128              	.LBE36:
 129              	.LBE38:
  81:Generated_Source\PSoC5/ADC_SAR_1.c ****     }
 130              		.loc 1 81 0
 131 003e 2E70     		strb	r6, [r5]
 132              	.LBB39:
 133              	.LBB37:
 134              	.LBB35:
 135              	.LBB30:
 136              	.LBB25:
 137              	.LBB21:
 658:Generated_Source\PSoC5/ADC_SAR_1.c ****                         ADC_SAR_1_DEFAULT_REF_VOLTAGE_MV) / (ADC_SAR_1_DEFAULT_REF_VOLTAGE_MV * 2))
 138              		.loc 1 658 0
 139 0040 0860     		str	r0, [r1]
 140              		.loc 1 664 0
 141 0042 1480     		strh	r4, [r2]	@ movhi
 142              	.LVL5:
 143              	.LBE21:
 144              	.LBE25:
 145              	.LBE30:
 146              	.LBE35:
 125:Generated_Source\PSoC5/ADC_SAR_1.c **** }
 147              		.loc 1 125 0
 148 0044 1C80     		strh	r4, [r3]	@ movhi
 149              	.L2:
 150              	.LBE37:
 151              	.LBE39:
 152              	.LBB40:
 153              	.LBB41:
 147:Generated_Source\PSoC5/ADC_SAR_1.c **** 
 154              		.loc 1 147 0
 155 0046 FFF7FEFF 		bl	CyEnterCriticalSection
 156              	.LVL6:
 150:Generated_Source\PSoC5/ADC_SAR_1.c **** 
 157              		.loc 1 150 0
 158 004a 294A     		ldr	r2, .L5+32
 147:Generated_Source\PSoC5/ADC_SAR_1.c **** 
 159              		.loc 1 147 0
 160 004c 0446     		mov	r4, r0
 161              	.LVL7:
 150:Generated_Source\PSoC5/ADC_SAR_1.c **** 
 162              		.loc 1 150 0
 163 004e 1378     		ldrb	r3, [r2]	@ zero_extendqisi2
 153:Generated_Source\PSoC5/ADC_SAR_1.c **** 
 164              		.loc 1 153 0
 165 0050 2849     		ldr	r1, .L5+36
 150:Generated_Source\PSoC5/ADC_SAR_1.c **** 
 166              		.loc 1 150 0
 167 0052 43F00203 		orr	r3, r3, #2
 168 0056 1370     		strb	r3, [r2]
 153:Generated_Source\PSoC5/ADC_SAR_1.c **** 
 169              		.loc 1 153 0
 170 0058 0B78     		ldrb	r3, [r1]	@ zero_extendqisi2
 157:Generated_Source\PSoC5/ADC_SAR_1.c ****         ADC_SAR_1_STBY_PWRMGR_CLK_REG |= ADC_SAR_1_STBY_PWR_CLK_EN;
 171              		.loc 1 157 0
ARM GAS  C:\Users\legoc\AppData\Local\Temp\ccKRZKhE.s 			page 16


 172 005a 2748     		ldr	r0, .L5+40
 153:Generated_Source\PSoC5/ADC_SAR_1.c **** 
 173              		.loc 1 153 0
 174 005c 43F00203 		orr	r3, r3, #2
 175 0060 0B70     		strb	r3, [r1]
 157:Generated_Source\PSoC5/ADC_SAR_1.c ****         ADC_SAR_1_STBY_PWRMGR_CLK_REG |= ADC_SAR_1_STBY_PWR_CLK_EN;
 176              		.loc 1 157 0
 177 0062 0378     		ldrb	r3, [r0]	@ zero_extendqisi2
 162:Generated_Source\PSoC5/ADC_SAR_1.c ****     tmpReg |= ADC_SAR_1_SAR_EN_BUF_VCM_EN;
 178              		.loc 1 162 0
 179 0064 01F5AA51 		add	r1, r1, #5440
 157:Generated_Source\PSoC5/ADC_SAR_1.c ****         ADC_SAR_1_STBY_PWRMGR_CLK_REG |= ADC_SAR_1_STBY_PWR_CLK_EN;
 180              		.loc 1 157 0
 181 0068 43F00103 		orr	r3, r3, #1
 182 006c 0370     		strb	r3, [r0]
 158:Generated_Source\PSoC5/ADC_SAR_1.c ****     #endif /* End ADC_SAR_1_DEFAULT_INTERNAL_CLK */
 183              		.loc 1 158 0
 184 006e 9379     		ldrb	r3, [r2, #6]	@ zero_extendqisi2
 162:Generated_Source\PSoC5/ADC_SAR_1.c ****     tmpReg |= ADC_SAR_1_SAR_EN_BUF_VCM_EN;
 185              		.loc 1 162 0
 186 0070 1031     		adds	r1, r1, #16
 158:Generated_Source\PSoC5/ADC_SAR_1.c ****     #endif /* End ADC_SAR_1_DEFAULT_INTERNAL_CLK */
 187              		.loc 1 158 0
 188 0072 43F00103 		orr	r3, r3, #1
 189 0076 9371     		strb	r3, [r2, #6]
 162:Generated_Source\PSoC5/ADC_SAR_1.c ****     tmpReg |= ADC_SAR_1_SAR_EN_BUF_VCM_EN;
 190              		.loc 1 162 0
 191 0078 0A78     		ldrb	r2, [r1]	@ zero_extendqisi2
 192              	.LVL8:
 182:Generated_Source\PSoC5/ADC_SAR_1.c ****         #else /* INTREF Bypassed of External */
 193              		.loc 1 182 0
 194 007a 00F5AB50 		add	r0, r0, #5472
 192:Generated_Source\PSoC5/ADC_SAR_1.c ****     #endif /* ADC_SAR_1_HIGH_POWER_PULSE == 0u */
 195              		.loc 1 192 0
 196 007e 1F4B     		ldr	r3, .L5+44
 182:Generated_Source\PSoC5/ADC_SAR_1.c ****         #else /* INTREF Bypassed of External */
 197              		.loc 1 182 0
 198 0080 0D30     		adds	r0, r0, #13
 199 0082 1825     		movs	r5, #24
 169:Generated_Source\PSoC5/ADC_SAR_1.c ****     #endif /* ADC_SAR_1_DEFAULT_REFERENCE == ADC_SAR_1__EXT_REF */
 200              		.loc 1 169 0
 201 0084 42F00302 		orr	r2, r2, #3
 202              	.LVL9:
 171:Generated_Source\PSoC5/ADC_SAR_1.c **** 
 203              		.loc 1 171 0
 204 0088 0A70     		strb	r2, [r1]
 182:Generated_Source\PSoC5/ADC_SAR_1.c ****         #else /* INTREF Bypassed of External */
 205              		.loc 1 182 0
 206 008a 0570     		strb	r5, [r0]
 192:Generated_Source\PSoC5/ADC_SAR_1.c ****     #endif /* ADC_SAR_1_HIGH_POWER_PULSE == 0u */
 207              		.loc 1 192 0
 208 008c 1A78     		ldrb	r2, [r3]	@ zero_extendqisi2
 209              	.LVL10:
 206:Generated_Source\PSoC5/ADC_SAR_1.c ****     /* SAR_HIZ_CLEAR:   Should not be used for LP */
 210              		.loc 1 206 0
 211 008e 1C4E     		ldr	r6, .L5+48
 192:Generated_Source\PSoC5/ADC_SAR_1.c ****     #endif /* ADC_SAR_1_HIGH_POWER_PULSE == 0u */
ARM GAS  C:\Users\legoc\AppData\Local\Temp\ccKRZKhE.s 			page 17


 212              		.loc 1 192 0
 213 0090 42F04002 		orr	r2, r2, #64
 214 0094 1A70     		strb	r2, [r3]
 202:Generated_Source\PSoC5/ADC_SAR_1.c ****     #endif /* ADC_SAR_1_HIGH_POWER_PULSE == 0u */
 215              		.loc 1 202 0
 216 0096 1A78     		ldrb	r2, [r3]	@ zero_extendqisi2
 218:Generated_Source\PSoC5/ADC_SAR_1.c **** 
 217              		.loc 1 218 0
 218 0098 A0F59750 		sub	r0, r0, #4832
 202:Generated_Source\PSoC5/ADC_SAR_1.c ****     #endif /* ADC_SAR_1_HIGH_POWER_PULSE == 0u */
 219              		.loc 1 202 0
 220 009c 02F0FC02 		and	r2, r2, #252
 218:Generated_Source\PSoC5/ADC_SAR_1.c **** 
 221              		.loc 1 218 0
 222 00a0 1838     		subs	r0, r0, #24
 206:Generated_Source\PSoC5/ADC_SAR_1.c ****     /* SAR_HIZ_CLEAR:   Should not be used for LP */
 223              		.loc 1 206 0
 224 00a2 CE27     		movs	r7, #206
 218:Generated_Source\PSoC5/ADC_SAR_1.c **** 
 225              		.loc 1 218 0
 226 00a4 0225     		movs	r5, #2
 202:Generated_Source\PSoC5/ADC_SAR_1.c ****     #endif /* ADC_SAR_1_HIGH_POWER_PULSE == 0u */
 227              		.loc 1 202 0
 228 00a6 1A70     		strb	r2, [r3]
 206:Generated_Source\PSoC5/ADC_SAR_1.c ****     /* SAR_HIZ_CLEAR:   Should not be used for LP */
 229              		.loc 1 206 0
 230 00a8 3770     		strb	r7, [r6]
 218:Generated_Source\PSoC5/ADC_SAR_1.c **** 
 231              		.loc 1 218 0
 232 00aa 0570     		strb	r5, [r0]
 221:Generated_Source\PSoC5/ADC_SAR_1.c **** 
 233              		.loc 1 221 0
 234 00ac 91F82432 		ldrb	r3, [r1, #548]	@ zero_extendqisi2
 223:Generated_Source\PSoC5/ADC_SAR_1.c **** 
 235              		.loc 1 223 0
 236 00b0 0A20     		movs	r0, #10
 221:Generated_Source\PSoC5/ADC_SAR_1.c **** 
 237              		.loc 1 221 0
 238 00b2 43F00803 		orr	r3, r3, #8
 239 00b6 81F82432 		strb	r3, [r1, #548]
 223:Generated_Source\PSoC5/ADC_SAR_1.c **** 
 240              		.loc 1 223 0
 241 00ba FFF7FEFF 		bl	CyDelayUs
 242              	.LVL11:
 227:Generated_Source\PSoC5/ADC_SAR_1.c ****     #endif   /* End ADC_SAR_1_IRQ_REMOVE */
 243              		.loc 1 227 0
 244 00be 114B     		ldr	r3, .L5+52
 245 00c0 0122     		movs	r2, #1
 230:Generated_Source\PSoC5/ADC_SAR_1.c **** }
 246              		.loc 1 230 0
 247 00c2 2046     		mov	r0, r4
 227:Generated_Source\PSoC5/ADC_SAR_1.c ****     #endif   /* End ADC_SAR_1_IRQ_REMOVE */
 248              		.loc 1 227 0
 249 00c4 1A60     		str	r2, [r3]
 250              	.LBE41:
 251              	.LBE40:
  84:Generated_Source\PSoC5/ADC_SAR_1.c **** 
ARM GAS  C:\Users\legoc\AppData\Local\Temp\ccKRZKhE.s 			page 18


 252              		.loc 1 84 0
 253 00c6 BDE8F840 		pop	{r3, r4, r5, r6, r7, lr}
 254              		.cfi_restore 14
 255              		.cfi_restore 7
 256              		.cfi_restore 6
 257              		.cfi_restore 5
 258              		.cfi_restore 4
 259              		.cfi_restore 3
 260              		.cfi_def_cfa_offset 0
 261              	.LVL12:
 262              	.LBB43:
 263              	.LBB42:
 230:Generated_Source\PSoC5/ADC_SAR_1.c **** }
 264              		.loc 1 230 0
 265 00ca FFF7FEBF 		b	CyExitCriticalSection
 266              	.LVL13:
 267              	.L6:
 268 00ce 00BF     		.align	2
 269              	.L5:
 270 00d0 00000000 		.word	.LANCHOR0
 271 00d4 00000000 		.word	ADC_SAR_1_ISR
 272 00d8 09590040 		.word	1073764617
 273 00dc 0A590040 		.word	1073764618
 274 00e0 00000000 		.word	ADC_SAR_1_countsPerVolt
 275 00e4 00000000 		.word	ADC_SAR_1_countsPer10Volt
 276 00e8 00000000 		.word	ADC_SAR_1_shift
 277 00ec 00000000 		.word	ADC_SAR_1_offset
 278 00f0 AB430040 		.word	1073759147
 279 00f4 BB430040 		.word	1073759163
 280 00f8 A1430040 		.word	1073759137
 281 00fc 0D590040 		.word	1073764621
 282 0100 08590040 		.word	1073764616
 283 0104 80E200E0 		.word	-536812928
 284              	.LBE42:
 285              	.LBE43:
 286              		.cfi_endproc
 287              	.LFE0:
 288              		.size	ADC_SAR_1_Start, .-ADC_SAR_1_Start
 289              		.section	.text.ADC_SAR_1_Init,"ax",%progbits
 290              		.align	2
 291              		.global	ADC_SAR_1_Init
 292              		.thumb
 293              		.thumb_func
 294              		.type	ADC_SAR_1_Init, %function
 295              	ADC_SAR_1_Init:
 296              	.LFB1:
 107:Generated_Source\PSoC5/ADC_SAR_1.c **** 
 297              		.loc 1 107 0
 298              		.cfi_startproc
 299              		@ args = 0, pretend = 0, frame = 0
 300              		@ frame_needed = 0, uses_anonymous_args = 0
 301 0000 F8B5     		push	{r3, r4, r5, r6, r7, lr}
 302              		.cfi_def_cfa_offset 24
 303              		.cfi_offset 3, -24
 304              		.cfi_offset 4, -20
 305              		.cfi_offset 5, -16
 306              		.cfi_offset 6, -12
ARM GAS  C:\Users\legoc\AppData\Local\Temp\ccKRZKhE.s 			page 19


 307              		.cfi_offset 7, -8
 308              		.cfi_offset 14, -4
 309              	.LBB48:
 310              	.LBB49:
 311              	.LBB50:
 312              	.LBB51:
 658:Generated_Source\PSoC5/ADC_SAR_1.c ****                         ADC_SAR_1_DEFAULT_REF_VOLTAGE_MV) / (ADC_SAR_1_DEFAULT_REF_VOLTAGE_MV * 2))
 313              		.loc 1 658 0
 314 0002 44F62065 		movw	r5, #20000
 315              	.LBE51:
 316              	.LBE50:
 317              	.LBE49:
 318              	.LBE48:
 111:Generated_Source\PSoC5/ADC_SAR_1.c ****     #endif /* End ADC_SAR_1_DEFAULT_INTERNAL_CLK */
 319              		.loc 1 111 0
 320 0006 1020     		movs	r0, #16
 321 0008 FFF7FEFF 		bl	ADC_SAR_1_theACLK_SetModeRegister
 322              	.LVL14:
 116:Generated_Source\PSoC5/ADC_SAR_1.c ****         (void)CyIntSetVector(ADC_SAR_1_INTC_NUMBER, &ADC_SAR_1_ISR);
 323              		.loc 1 116 0
 324 000c 0721     		movs	r1, #7
 325 000e 0020     		movs	r0, #0
 326 0010 FFF7FEFF 		bl	CyIntSetPriority
 327              	.LVL15:
 117:Generated_Source\PSoC5/ADC_SAR_1.c ****     #endif   /* End ADC_SAR_1_IRQ_REMOVE */
 328              		.loc 1 117 0
 329 0014 0A49     		ldr	r1, .L9
 330 0016 0020     		movs	r0, #0
 331 0018 FFF7FEFF 		bl	CyIntSetVector
 332              	.LVL16:
 121:Generated_Source\PSoC5/ADC_SAR_1.c **** 
 333              		.loc 1 121 0
 334 001c 094A     		ldr	r2, .L9+4
 335              	.LBB62:
 336              	.LBB58:
 362:Generated_Source\PSoC5/ADC_SAR_1.c **** 
 337              		.loc 1 362 0
 338 001e 0A4F     		ldr	r7, .L9+8
 339              	.LBE58:
 340              	.LBE62:
 121:Generated_Source\PSoC5/ADC_SAR_1.c **** 
 341              		.loc 1 121 0
 342 0020 1378     		ldrb	r3, [r2]	@ zero_extendqisi2
 343              	.LBB63:
 344              	.LBB59:
 345              	.LBB55:
 346              	.LBB52:
 656:Generated_Source\PSoC5/ADC_SAR_1.c ****     /* Calculate gain in counts per 10 volts with rounding */
 347              		.loc 1 656 0
 348 0022 0A4E     		ldr	r6, .L9+12
 349              	.LBE52:
 350              	.LBE55:
 351              	.LBE59:
 352              	.LBE63:
 121:Generated_Source\PSoC5/ADC_SAR_1.c **** 
 353              		.loc 1 121 0
 354 0024 43F00603 		orr	r3, r3, #6
ARM GAS  C:\Users\legoc\AppData\Local\Temp\ccKRZKhE.s 			page 20


 355 0028 1370     		strb	r3, [r2]
 356              	.LVL17:
 357              	.LBB64:
 358              	.LBB60:
 359              	.LBB56:
 360              	.LBB53:
 658:Generated_Source\PSoC5/ADC_SAR_1.c ****                         ADC_SAR_1_DEFAULT_REF_VOLTAGE_MV) / (ADC_SAR_1_DEFAULT_REF_VOLTAGE_MV * 2))
 361              		.loc 1 658 0
 362 002a 094C     		ldr	r4, .L9+16
 363              		.loc 1 664 0
 364 002c 0948     		ldr	r0, .L9+20
 365              	.LBE53:
 366              	.LBE56:
 367              	.LBE60:
 368              	.LBE64:
 125:Generated_Source\PSoC5/ADC_SAR_1.c **** }
 369              		.loc 1 125 0
 370 002e 0A49     		ldr	r1, .L9+24
 371              	.LBB65:
 372              	.LBB61:
 362:Generated_Source\PSoC5/ADC_SAR_1.c **** 
 373              		.loc 1 362 0
 374 0030 C222     		movs	r2, #194
 375 0032 3A70     		strb	r2, [r7]
 376              	.LVL18:
 377              	.LBB57:
 378              	.LBB54:
 656:Generated_Source\PSoC5/ADC_SAR_1.c ****     /* Calculate gain in counts per 10 volts with rounding */
 379              		.loc 1 656 0
 380 0034 0023     		movs	r3, #0
 381 0036 3380     		strh	r3, [r6]	@ movhi
 658:Generated_Source\PSoC5/ADC_SAR_1.c ****                         ADC_SAR_1_DEFAULT_REF_VOLTAGE_MV) / (ADC_SAR_1_DEFAULT_REF_VOLTAGE_MV * 2))
 382              		.loc 1 658 0
 383 0038 2560     		str	r5, [r4]
 384              		.loc 1 664 0
 385 003a 0380     		strh	r3, [r0]	@ movhi
 386              	.LVL19:
 387              	.LBE54:
 388              	.LBE57:
 389              	.LBE61:
 390              	.LBE65:
 125:Generated_Source\PSoC5/ADC_SAR_1.c **** }
 391              		.loc 1 125 0
 392 003c 0B80     		strh	r3, [r1]	@ movhi
 393 003e F8BD     		pop	{r3, r4, r5, r6, r7, pc}
 394              	.L10:
 395              		.align	2
 396              	.L9:
 397 0040 00000000 		.word	ADC_SAR_1_ISR
 398 0044 09590040 		.word	1073764617
 399 0048 0A590040 		.word	1073764618
 400 004c 00000000 		.word	ADC_SAR_1_countsPerVolt
 401 0050 00000000 		.word	ADC_SAR_1_countsPer10Volt
 402 0054 00000000 		.word	ADC_SAR_1_shift
 403 0058 00000000 		.word	ADC_SAR_1_offset
 404              		.cfi_endproc
 405              	.LFE1:
ARM GAS  C:\Users\legoc\AppData\Local\Temp\ccKRZKhE.s 			page 21


 406              		.size	ADC_SAR_1_Init, .-ADC_SAR_1_Init
 407              		.section	.text.ADC_SAR_1_Enable,"ax",%progbits
 408              		.align	2
 409              		.global	ADC_SAR_1_Enable
 410              		.thumb
 411              		.thumb_func
 412              		.type	ADC_SAR_1_Enable, %function
 413              	ADC_SAR_1_Enable:
 414              	.LFB2:
 144:Generated_Source\PSoC5/ADC_SAR_1.c ****     uint8 tmpReg;
 415              		.loc 1 144 0
 416              		.cfi_startproc
 417              		@ args = 0, pretend = 0, frame = 0
 418              		@ frame_needed = 0, uses_anonymous_args = 0
 419 0000 F8B5     		push	{r3, r4, r5, r6, r7, lr}
 420              		.cfi_def_cfa_offset 24
 421              		.cfi_offset 3, -24
 422              		.cfi_offset 4, -20
 423              		.cfi_offset 5, -16
 424              		.cfi_offset 6, -12
 425              		.cfi_offset 7, -8
 426              		.cfi_offset 14, -4
 147:Generated_Source\PSoC5/ADC_SAR_1.c **** 
 427              		.loc 1 147 0
 428 0002 FFF7FEFF 		bl	CyEnterCriticalSection
 429              	.LVL20:
 150:Generated_Source\PSoC5/ADC_SAR_1.c **** 
 430              		.loc 1 150 0
 431 0006 214A     		ldr	r2, .L13
 147:Generated_Source\PSoC5/ADC_SAR_1.c **** 
 432              		.loc 1 147 0
 433 0008 0446     		mov	r4, r0
 434              	.LVL21:
 150:Generated_Source\PSoC5/ADC_SAR_1.c **** 
 435              		.loc 1 150 0
 436 000a 1378     		ldrb	r3, [r2]	@ zero_extendqisi2
 153:Generated_Source\PSoC5/ADC_SAR_1.c **** 
 437              		.loc 1 153 0
 438 000c 2049     		ldr	r1, .L13+4
 150:Generated_Source\PSoC5/ADC_SAR_1.c **** 
 439              		.loc 1 150 0
 440 000e 43F00203 		orr	r3, r3, #2
 441 0012 1370     		strb	r3, [r2]
 153:Generated_Source\PSoC5/ADC_SAR_1.c **** 
 442              		.loc 1 153 0
 443 0014 0B78     		ldrb	r3, [r1]	@ zero_extendqisi2
 157:Generated_Source\PSoC5/ADC_SAR_1.c ****         ADC_SAR_1_STBY_PWRMGR_CLK_REG |= ADC_SAR_1_STBY_PWR_CLK_EN;
 444              		.loc 1 157 0
 445 0016 1F48     		ldr	r0, .L13+8
 153:Generated_Source\PSoC5/ADC_SAR_1.c **** 
 446              		.loc 1 153 0
 447 0018 43F00203 		orr	r3, r3, #2
 448 001c 0B70     		strb	r3, [r1]
 157:Generated_Source\PSoC5/ADC_SAR_1.c ****         ADC_SAR_1_STBY_PWRMGR_CLK_REG |= ADC_SAR_1_STBY_PWR_CLK_EN;
 449              		.loc 1 157 0
 450 001e 0378     		ldrb	r3, [r0]	@ zero_extendqisi2
 162:Generated_Source\PSoC5/ADC_SAR_1.c ****     tmpReg |= ADC_SAR_1_SAR_EN_BUF_VCM_EN;
ARM GAS  C:\Users\legoc\AppData\Local\Temp\ccKRZKhE.s 			page 22


 451              		.loc 1 162 0
 452 0020 01F5AA51 		add	r1, r1, #5440
 157:Generated_Source\PSoC5/ADC_SAR_1.c ****         ADC_SAR_1_STBY_PWRMGR_CLK_REG |= ADC_SAR_1_STBY_PWR_CLK_EN;
 453              		.loc 1 157 0
 454 0024 43F00103 		orr	r3, r3, #1
 455 0028 0370     		strb	r3, [r0]
 158:Generated_Source\PSoC5/ADC_SAR_1.c ****     #endif /* End ADC_SAR_1_DEFAULT_INTERNAL_CLK */
 456              		.loc 1 158 0
 457 002a 9379     		ldrb	r3, [r2, #6]	@ zero_extendqisi2
 162:Generated_Source\PSoC5/ADC_SAR_1.c ****     tmpReg |= ADC_SAR_1_SAR_EN_BUF_VCM_EN;
 458              		.loc 1 162 0
 459 002c 1031     		adds	r1, r1, #16
 158:Generated_Source\PSoC5/ADC_SAR_1.c ****     #endif /* End ADC_SAR_1_DEFAULT_INTERNAL_CLK */
 460              		.loc 1 158 0
 461 002e 43F00103 		orr	r3, r3, #1
 462 0032 9371     		strb	r3, [r2, #6]
 162:Generated_Source\PSoC5/ADC_SAR_1.c ****     tmpReg |= ADC_SAR_1_SAR_EN_BUF_VCM_EN;
 463              		.loc 1 162 0
 464 0034 0A78     		ldrb	r2, [r1]	@ zero_extendqisi2
 465              	.LVL22:
 182:Generated_Source\PSoC5/ADC_SAR_1.c ****         #else /* INTREF Bypassed of External */
 466              		.loc 1 182 0
 467 0036 00F5AB50 		add	r0, r0, #5472
 192:Generated_Source\PSoC5/ADC_SAR_1.c ****     #endif /* ADC_SAR_1_HIGH_POWER_PULSE == 0u */
 468              		.loc 1 192 0
 469 003a 174B     		ldr	r3, .L13+12
 182:Generated_Source\PSoC5/ADC_SAR_1.c ****         #else /* INTREF Bypassed of External */
 470              		.loc 1 182 0
 471 003c 0D30     		adds	r0, r0, #13
 472 003e 1825     		movs	r5, #24
 169:Generated_Source\PSoC5/ADC_SAR_1.c ****     #endif /* ADC_SAR_1_DEFAULT_REFERENCE == ADC_SAR_1__EXT_REF */
 473              		.loc 1 169 0
 474 0040 42F00302 		orr	r2, r2, #3
 475              	.LVL23:
 171:Generated_Source\PSoC5/ADC_SAR_1.c **** 
 476              		.loc 1 171 0
 477 0044 0A70     		strb	r2, [r1]
 182:Generated_Source\PSoC5/ADC_SAR_1.c ****         #else /* INTREF Bypassed of External */
 478              		.loc 1 182 0
 479 0046 0570     		strb	r5, [r0]
 192:Generated_Source\PSoC5/ADC_SAR_1.c ****     #endif /* ADC_SAR_1_HIGH_POWER_PULSE == 0u */
 480              		.loc 1 192 0
 481 0048 1A78     		ldrb	r2, [r3]	@ zero_extendqisi2
 482              	.LVL24:
 206:Generated_Source\PSoC5/ADC_SAR_1.c ****     /* SAR_HIZ_CLEAR:   Should not be used for LP */
 483              		.loc 1 206 0
 484 004a 144E     		ldr	r6, .L13+16
 192:Generated_Source\PSoC5/ADC_SAR_1.c ****     #endif /* ADC_SAR_1_HIGH_POWER_PULSE == 0u */
 485              		.loc 1 192 0
 486 004c 42F04002 		orr	r2, r2, #64
 487 0050 1A70     		strb	r2, [r3]
 202:Generated_Source\PSoC5/ADC_SAR_1.c ****     #endif /* ADC_SAR_1_HIGH_POWER_PULSE == 0u */
 488              		.loc 1 202 0
 489 0052 1A78     		ldrb	r2, [r3]	@ zero_extendqisi2
 218:Generated_Source\PSoC5/ADC_SAR_1.c **** 
 490              		.loc 1 218 0
 491 0054 A0F59750 		sub	r0, r0, #4832
ARM GAS  C:\Users\legoc\AppData\Local\Temp\ccKRZKhE.s 			page 23


 202:Generated_Source\PSoC5/ADC_SAR_1.c ****     #endif /* ADC_SAR_1_HIGH_POWER_PULSE == 0u */
 492              		.loc 1 202 0
 493 0058 02F0FC02 		and	r2, r2, #252
 218:Generated_Source\PSoC5/ADC_SAR_1.c **** 
 494              		.loc 1 218 0
 495 005c 1838     		subs	r0, r0, #24
 206:Generated_Source\PSoC5/ADC_SAR_1.c ****     /* SAR_HIZ_CLEAR:   Should not be used for LP */
 496              		.loc 1 206 0
 497 005e CE27     		movs	r7, #206
 218:Generated_Source\PSoC5/ADC_SAR_1.c **** 
 498              		.loc 1 218 0
 499 0060 0225     		movs	r5, #2
 202:Generated_Source\PSoC5/ADC_SAR_1.c ****     #endif /* ADC_SAR_1_HIGH_POWER_PULSE == 0u */
 500              		.loc 1 202 0
 501 0062 1A70     		strb	r2, [r3]
 206:Generated_Source\PSoC5/ADC_SAR_1.c ****     /* SAR_HIZ_CLEAR:   Should not be used for LP */
 502              		.loc 1 206 0
 503 0064 3770     		strb	r7, [r6]
 218:Generated_Source\PSoC5/ADC_SAR_1.c **** 
 504              		.loc 1 218 0
 505 0066 0570     		strb	r5, [r0]
 221:Generated_Source\PSoC5/ADC_SAR_1.c **** 
 506              		.loc 1 221 0
 507 0068 91F82432 		ldrb	r3, [r1, #548]	@ zero_extendqisi2
 223:Generated_Source\PSoC5/ADC_SAR_1.c **** 
 508              		.loc 1 223 0
 509 006c 0A20     		movs	r0, #10
 221:Generated_Source\PSoC5/ADC_SAR_1.c **** 
 510              		.loc 1 221 0
 511 006e 43F00803 		orr	r3, r3, #8
 512 0072 81F82432 		strb	r3, [r1, #548]
 223:Generated_Source\PSoC5/ADC_SAR_1.c **** 
 513              		.loc 1 223 0
 514 0076 FFF7FEFF 		bl	CyDelayUs
 515              	.LVL25:
 227:Generated_Source\PSoC5/ADC_SAR_1.c ****     #endif   /* End ADC_SAR_1_IRQ_REMOVE */
 516              		.loc 1 227 0
 517 007a 094B     		ldr	r3, .L13+20
 518 007c 0122     		movs	r2, #1
 230:Generated_Source\PSoC5/ADC_SAR_1.c **** }
 519              		.loc 1 230 0
 520 007e 2046     		mov	r0, r4
 227:Generated_Source\PSoC5/ADC_SAR_1.c ****     #endif   /* End ADC_SAR_1_IRQ_REMOVE */
 521              		.loc 1 227 0
 522 0080 1A60     		str	r2, [r3]
 231:Generated_Source\PSoC5/ADC_SAR_1.c **** 
 523              		.loc 1 231 0
 524 0082 BDE8F840 		pop	{r3, r4, r5, r6, r7, lr}
 525              		.cfi_restore 14
 526              		.cfi_restore 7
 527              		.cfi_restore 6
 528              		.cfi_restore 5
 529              		.cfi_restore 4
 530              		.cfi_restore 3
 531              		.cfi_def_cfa_offset 0
 532              	.LVL26:
 230:Generated_Source\PSoC5/ADC_SAR_1.c **** }
ARM GAS  C:\Users\legoc\AppData\Local\Temp\ccKRZKhE.s 			page 24


 533              		.loc 1 230 0
 534 0086 FFF7FEBF 		b	CyExitCriticalSection
 535              	.LVL27:
 536              	.L14:
 537 008a 00BF     		.align	2
 538              	.L13:
 539 008c AB430040 		.word	1073759147
 540 0090 BB430040 		.word	1073759163
 541 0094 A1430040 		.word	1073759137
 542 0098 0D590040 		.word	1073764621
 543 009c 08590040 		.word	1073764616
 544 00a0 80E200E0 		.word	-536812928
 545              		.cfi_endproc
 546              	.LFE2:
 547              		.size	ADC_SAR_1_Enable, .-ADC_SAR_1_Enable
 548              		.section	.text.ADC_SAR_1_Stop,"ax",%progbits
 549              		.align	2
 550              		.global	ADC_SAR_1_Stop
 551              		.thumb
 552              		.thumb_func
 553              		.type	ADC_SAR_1_Stop, %function
 554              	ADC_SAR_1_Stop:
 555              	.LFB3:
 249:Generated_Source\PSoC5/ADC_SAR_1.c ****     uint8 enableInterrupts;
 556              		.loc 1 249 0
 557              		.cfi_startproc
 558              		@ args = 0, pretend = 0, frame = 0
 559              		@ frame_needed = 0, uses_anonymous_args = 0
 560 0000 10B5     		push	{r4, lr}
 561              		.cfi_def_cfa_offset 8
 562              		.cfi_offset 4, -8
 563              		.cfi_offset 14, -4
 251:Generated_Source\PSoC5/ADC_SAR_1.c **** 
 564              		.loc 1 251 0
 565 0002 FFF7FEFF 		bl	CyEnterCriticalSection
 566              	.LVL28:
 254:Generated_Source\PSoC5/ADC_SAR_1.c ****     /* Disable the SAR ADC block in Active Power Mode */
 567              		.loc 1 254 0
 568 0006 0F49     		ldr	r1, .L17
 256:Generated_Source\PSoC5/ADC_SAR_1.c ****     /* Disable the SAR ADC in Standby Power Mode */
 569              		.loc 1 256 0
 570 0008 0F4A     		ldr	r2, .L17+4
 254:Generated_Source\PSoC5/ADC_SAR_1.c ****     /* Disable the SAR ADC block in Active Power Mode */
 571              		.loc 1 254 0
 572 000a 0B78     		ldrb	r3, [r1]	@ zero_extendqisi2
 258:Generated_Source\PSoC5/ADC_SAR_1.c **** 
 573              		.loc 1 258 0
 574 000c 0F4C     		ldr	r4, .L17+8
 254:Generated_Source\PSoC5/ADC_SAR_1.c ****     /* Disable the SAR ADC block in Active Power Mode */
 575              		.loc 1 254 0
 576 000e 03F0FE03 		and	r3, r3, #254
 577 0012 0B70     		strb	r3, [r1]
 256:Generated_Source\PSoC5/ADC_SAR_1.c ****     /* Disable the SAR ADC in Standby Power Mode */
 578              		.loc 1 256 0
 579 0014 1378     		ldrb	r3, [r2]	@ zero_extendqisi2
 262:Generated_Source\PSoC5/ADC_SAR_1.c ****         ADC_SAR_1_STBY_PWRMGR_CLK_REG &= (uint8)~ADC_SAR_1_STBY_PWR_CLK_EN;
 580              		.loc 1 262 0
ARM GAS  C:\Users\legoc\AppData\Local\Temp\ccKRZKhE.s 			page 25


 581 0016 A1F5AB51 		sub	r1, r1, #5472
 256:Generated_Source\PSoC5/ADC_SAR_1.c ****     /* Disable the SAR ADC in Standby Power Mode */
 582              		.loc 1 256 0
 583 001a 03F0FD03 		and	r3, r3, #253
 584 001e 1370     		strb	r3, [r2]
 258:Generated_Source\PSoC5/ADC_SAR_1.c **** 
 585              		.loc 1 258 0
 586 0020 2378     		ldrb	r3, [r4]	@ zero_extendqisi2
 262:Generated_Source\PSoC5/ADC_SAR_1.c ****         ADC_SAR_1_STBY_PWRMGR_CLK_REG &= (uint8)~ADC_SAR_1_STBY_PWR_CLK_EN;
 587              		.loc 1 262 0
 588 0022 0739     		subs	r1, r1, #7
 258:Generated_Source\PSoC5/ADC_SAR_1.c **** 
 589              		.loc 1 258 0
 590 0024 03F0FD03 		and	r3, r3, #253
 591 0028 2370     		strb	r3, [r4]
 262:Generated_Source\PSoC5/ADC_SAR_1.c ****         ADC_SAR_1_STBY_PWRMGR_CLK_REG &= (uint8)~ADC_SAR_1_STBY_PWR_CLK_EN;
 592              		.loc 1 262 0
 593 002a 0B78     		ldrb	r3, [r1]	@ zero_extendqisi2
 594 002c 03F0FE03 		and	r3, r3, #254
 595 0030 0B70     		strb	r3, [r1]
 263:Generated_Source\PSoC5/ADC_SAR_1.c ****     #endif /* End ADC_SAR_1_DEFAULT_INTERNAL_CLK */
 596              		.loc 1 263 0
 597 0032 9379     		ldrb	r3, [r2, #6]	@ zero_extendqisi2
 598 0034 03F0FE03 		and	r3, r3, #254
 599 0038 9371     		strb	r3, [r2, #6]
 268:Generated_Source\PSoC5/ADC_SAR_1.c **** 
 600              		.loc 1 268 0
 601 003a BDE81040 		pop	{r4, lr}
 602              		.cfi_restore 14
 603              		.cfi_restore 4
 604              		.cfi_def_cfa_offset 0
 266:Generated_Source\PSoC5/ADC_SAR_1.c **** 
 605              		.loc 1 266 0
 606 003e FFF7FEBF 		b	CyExitCriticalSection
 607              	.LVL29:
 608              	.L18:
 609 0042 00BF     		.align	2
 610              	.L17:
 611 0044 08590040 		.word	1073764616
 612 0048 AB430040 		.word	1073759147
 613 004c BB430040 		.word	1073759163
 614              		.cfi_endproc
 615              	.LFE3:
 616              		.size	ADC_SAR_1_Stop, .-ADC_SAR_1_Stop
 617              		.section	.text.ADC_SAR_1_SetPower,"ax",%progbits
 618              		.align	2
 619              		.global	ADC_SAR_1_SetPower
 620              		.thumb
 621              		.thumb_func
 622              		.type	ADC_SAR_1_SetPower, %function
 623              	ADC_SAR_1_SetPower:
 624              	.LFB4:
 291:Generated_Source\PSoC5/ADC_SAR_1.c ****     uint8 tmpReg;
 625              		.loc 1 291 0
 626              		.cfi_startproc
 627              		@ args = 0, pretend = 0, frame = 0
 628              		@ frame_needed = 0, uses_anonymous_args = 0
ARM GAS  C:\Users\legoc\AppData\Local\Temp\ccKRZKhE.s 			page 26


 629              		@ link register save eliminated.
 630              	.LVL30:
 298:Generated_Source\PSoC5/ADC_SAR_1.c ****     tmpReg |= (uint8)(power << ADC_SAR_1_SAR_POWER_SHIFT);
 631              		.loc 1 298 0
 632 0000 044A     		ldr	r2, .L20
 633 0002 1378     		ldrb	r3, [r2]	@ zero_extendqisi2
 634 0004 03F03F03 		and	r3, r3, #63
 635              	.LVL31:
 299:Generated_Source\PSoC5/ADC_SAR_1.c ****     ADC_SAR_1_SAR_CSR0_REG = tmpReg;
 636              		.loc 1 299 0
 637 0008 43EA8010 		orr	r0, r3, r0, lsl #6
 638              	.LVL32:
 639 000c C0B2     		uxtb	r0, r0
 640              	.LVL33:
 300:Generated_Source\PSoC5/ADC_SAR_1.c **** }
 641              		.loc 1 300 0
 642 000e 1070     		strb	r0, [r2]
 643 0010 7047     		bx	lr
 644              	.L21:
 645 0012 00BF     		.align	2
 646              	.L20:
 647 0014 08590040 		.word	1073764616
 648              		.cfi_endproc
 649              	.LFE4:
 650              		.size	ADC_SAR_1_SetPower, .-ADC_SAR_1_SetPower
 651              		.section	.text.ADC_SAR_1_SetResolution,"ax",%progbits
 652              		.align	2
 653              		.global	ADC_SAR_1_SetResolution
 654              		.thumb
 655              		.thumb_func
 656              		.type	ADC_SAR_1_SetResolution, %function
 657              	ADC_SAR_1_SetResolution:
 658              	.LFB5:
 341:Generated_Source\PSoC5/ADC_SAR_1.c ****     uint8 tmpReg;
 659              		.loc 1 341 0
 660              		.cfi_startproc
 661              		@ args = 0, pretend = 0, frame = 0
 662              		@ frame_needed = 0, uses_anonymous_args = 0
 663              	.LVL34:
 345:Generated_Source\PSoC5/ADC_SAR_1.c ****     {
 664              		.loc 1 345 0
 665 0000 0A28     		cmp	r0, #10
 341:Generated_Source\PSoC5/ADC_SAR_1.c ****     uint8 tmpReg;
 666              		.loc 1 341 0
 667 0002 10B5     		push	{r4, lr}
 668              		.cfi_def_cfa_offset 8
 669              		.cfi_offset 4, -8
 670              		.cfi_offset 14, -4
 341:Generated_Source\PSoC5/ADC_SAR_1.c ****     uint8 tmpReg;
 671              		.loc 1 341 0
 672 0004 0446     		mov	r4, r0
 345:Generated_Source\PSoC5/ADC_SAR_1.c ****     {
 673              		.loc 1 345 0
 674 0006 2AD0     		beq	.L31
 675 0008 0C28     		cmp	r0, #12
 676 000a 1FD0     		beq	.L25
 677 000c 0828     		cmp	r0, #8
ARM GAS  C:\Users\legoc\AppData\Local\Temp\ccKRZKhE.s 			page 27


 678 000e 17D0     		beq	.L26
 679              	.LVL35:
 359:Generated_Source\PSoC5/ADC_SAR_1.c ****             break;
 680              		.loc 1 359 0
 681 0010 0020     		movs	r0, #0
 682              	.LVL36:
 683 0012 FFF7FEFF 		bl	CyHalt
 684              	.LVL37:
 357:Generated_Source\PSoC5/ADC_SAR_1.c ****             /* Halt CPU in debug mode if resolution is out of valid range */
 685              		.loc 1 357 0
 686 0016 C223     		movs	r3, #194
 687              	.LVL38:
 688              	.L24:
 362:Generated_Source\PSoC5/ADC_SAR_1.c **** 
 689              		.loc 1 362 0
 690 0018 124A     		ldr	r2, .L40
 691              	.LBB68:
 692              	.LBB69:
 620:Generated_Source\PSoC5/ADC_SAR_1.c ****     {
 693              		.loc 1 620 0
 694 001a 0A2C     		cmp	r4, #10
 695              	.LBE69:
 696              	.LBE68:
 362:Generated_Source\PSoC5/ADC_SAR_1.c **** 
 697              		.loc 1 362 0
 698 001c 1370     		strb	r3, [r2]
 699              	.LVL39:
 700              	.LBB73:
 701              	.LBB70:
 620:Generated_Source\PSoC5/ADC_SAR_1.c ****     {
 702              		.loc 1 620 0
 703 001e 1BD0     		beq	.L32
 704 0020 0C2C     		cmp	r4, #12
 705 0022 16D0     		beq	.L39
 706 0024 082C     		cmp	r4, #8
 707 0026 0ED0     		beq	.L30
 708              	.LVL40:
 653:Generated_Source\PSoC5/ADC_SAR_1.c ****             break;
 709              		.loc 1 653 0
 710 0028 0020     		movs	r0, #0
 711 002a FFF7FEFF 		bl	CyHalt
 712              	.LVL41:
 713 002e 0022     		movs	r2, #0
 714              	.LVL42:
 715              	.L28:
 656:Generated_Source\PSoC5/ADC_SAR_1.c ****     /* Calculate gain in counts per 10 volts with rounding */
 716              		.loc 1 656 0
 717 0030 0D4C     		ldr	r4, .L40+4
 658:Generated_Source\PSoC5/ADC_SAR_1.c ****                         ADC_SAR_1_DEFAULT_REF_VOLTAGE_MV) / (ADC_SAR_1_DEFAULT_REF_VOLTAGE_MV * 2))
 718              		.loc 1 658 0
 719 0032 0E48     		ldr	r0, .L40+8
 720              		.loc 1 664 0
 721 0034 0E49     		ldr	r1, .L40+12
 656:Generated_Source\PSoC5/ADC_SAR_1.c ****     /* Calculate gain in counts per 10 volts with rounding */
 722              		.loc 1 656 0
 723 0036 0023     		movs	r3, #0
 724 0038 2380     		strh	r3, [r4]	@ movhi
ARM GAS  C:\Users\legoc\AppData\Local\Temp\ccKRZKhE.s 			page 28


 658:Generated_Source\PSoC5/ADC_SAR_1.c ****                         ADC_SAR_1_DEFAULT_REF_VOLTAGE_MV) / (ADC_SAR_1_DEFAULT_REF_VOLTAGE_MV * 2))
 725              		.loc 1 658 0
 726 003a 0260     		str	r2, [r0]
 727              		.loc 1 664 0
 728 003c 0B80     		strh	r3, [r1]	@ movhi
 729              	.LBE70:
 730              	.LBE73:
 366:Generated_Source\PSoC5/ADC_SAR_1.c **** 
 731              		.loc 1 366 0
 732 003e 10BD     		pop	{r4, pc}
 733              	.LVL43:
 734              	.L26:
 362:Generated_Source\PSoC5/ADC_SAR_1.c **** 
 735              		.loc 1 362 0
 736 0040 084B     		ldr	r3, .L40
 737 0042 4222     		movs	r2, #66
 738 0044 1A70     		strb	r2, [r3]
 739              	.LVL44:
 740              	.L30:
 741              	.LBB74:
 742              	.LBB71:
 743 0046 40F2E242 		movw	r2, #1250
 744 004a F1E7     		b	.L28
 745              	.LVL45:
 746              	.L25:
 747              	.LBE71:
 748              	.LBE74:
 749 004c 054B     		ldr	r3, .L40
 750 004e C222     		movs	r2, #194
 751 0050 1A70     		strb	r2, [r3]
 752              	.LVL46:
 753              	.L39:
 754 0052 44F62062 		movw	r2, #20000
 755 0056 EBE7     		b	.L28
 756              	.LVL47:
 757              	.L32:
 758              	.LBB75:
 759              	.LBB72:
 620:Generated_Source\PSoC5/ADC_SAR_1.c ****     {
 760              		.loc 1 620 0
 761 0058 41F28832 		movw	r2, #5000
 762 005c E8E7     		b	.L28
 763              	.LVL48:
 764              	.L31:
 765              	.LBE72:
 766              	.LBE75:
 351:Generated_Source\PSoC5/ADC_SAR_1.c ****             break;
 767              		.loc 1 351 0
 768 005e 8223     		movs	r3, #130
 769 0060 DAE7     		b	.L24
 770              	.L41:
 771 0062 00BF     		.align	2
 772              	.L40:
 773 0064 0A590040 		.word	1073764618
 774 0068 00000000 		.word	ADC_SAR_1_countsPerVolt
 775 006c 00000000 		.word	ADC_SAR_1_countsPer10Volt
 776 0070 00000000 		.word	ADC_SAR_1_shift
ARM GAS  C:\Users\legoc\AppData\Local\Temp\ccKRZKhE.s 			page 29


 777              		.cfi_endproc
 778              	.LFE5:
 779              		.size	ADC_SAR_1_SetResolution, .-ADC_SAR_1_SetResolution
 780              		.section	.text.ADC_SAR_1_StartConvert,"ax",%progbits
 781              		.align	2
 782              		.global	ADC_SAR_1_StartConvert
 783              		.thumb
 784              		.thumb_func
 785              		.type	ADC_SAR_1_StartConvert, %function
 786              	ADC_SAR_1_StartConvert:
 787              	.LFB6:
 402:Generated_Source\PSoC5/ADC_SAR_1.c ****         #if(ADC_SAR_1_DEFAULT_CONV_MODE != ADC_SAR_1__FREE_RUNNING)  /* If software triggered mode 
 788              		.loc 1 402 0
 789              		.cfi_startproc
 790              		@ args = 0, pretend = 0, frame = 0
 791              		@ frame_needed = 0, uses_anonymous_args = 0
 792              		@ link register save eliminated.
 404:Generated_Source\PSoC5/ADC_SAR_1.c ****         #endif /* End ADC_SAR_1_DEFAULT_CONV_MODE */
 793              		.loc 1 404 0
 794 0000 044B     		ldr	r3, .L43
 795 0002 1A78     		ldrb	r2, [r3]	@ zero_extendqisi2
 796 0004 02F0FB02 		and	r2, r2, #251
 797 0008 1A70     		strb	r2, [r3]
 408:Generated_Source\PSoC5/ADC_SAR_1.c ****     }
 798              		.loc 1 408 0
 799 000a 1A78     		ldrb	r2, [r3]	@ zero_extendqisi2
 800 000c 42F00102 		orr	r2, r2, #1
 801 0010 1A70     		strb	r2, [r3]
 802 0012 7047     		bx	lr
 803              	.L44:
 804              		.align	2
 805              	.L43:
 806 0014 08590040 		.word	1073764616
 807              		.cfi_endproc
 808              	.LFE6:
 809              		.size	ADC_SAR_1_StartConvert, .-ADC_SAR_1_StartConvert
 810              		.section	.text.ADC_SAR_1_StopConvert,"ax",%progbits
 811              		.align	2
 812              		.global	ADC_SAR_1_StopConvert
 813              		.thumb
 814              		.thumb_func
 815              		.type	ADC_SAR_1_StopConvert, %function
 816              	ADC_SAR_1_StopConvert:
 817              	.LFB7:
 436:Generated_Source\PSoC5/ADC_SAR_1.c ****         /* Stop all conversions */
 818              		.loc 1 436 0
 819              		.cfi_startproc
 820              		@ args = 0, pretend = 0, frame = 0
 821              		@ frame_needed = 0, uses_anonymous_args = 0
 822              		@ link register save eliminated.
 438:Generated_Source\PSoC5/ADC_SAR_1.c **** 
 823              		.loc 1 438 0
 824 0000 044B     		ldr	r3, .L46
 825 0002 1A78     		ldrb	r2, [r3]	@ zero_extendqisi2
 826 0004 02F0FE02 		and	r2, r2, #254
 827 0008 1A70     		strb	r2, [r3]
 442:Generated_Source\PSoC5/ADC_SAR_1.c ****         #endif /* End ADC_SAR_1_DEFAULT_CONV_MODE */
ARM GAS  C:\Users\legoc\AppData\Local\Temp\ccKRZKhE.s 			page 30


 828              		.loc 1 442 0
 829 000a 1A78     		ldrb	r2, [r3]	@ zero_extendqisi2
 830 000c 42F00402 		orr	r2, r2, #4
 831 0010 1A70     		strb	r2, [r3]
 832 0012 7047     		bx	lr
 833              	.L47:
 834              		.align	2
 835              	.L46:
 836 0014 08590040 		.word	1073764616
 837              		.cfi_endproc
 838              	.LFE7:
 839              		.size	ADC_SAR_1_StopConvert, .-ADC_SAR_1_StopConvert
 840              		.section	.text.ADC_SAR_1_IsEndConversion,"ax",%progbits
 841              		.align	2
 842              		.global	ADC_SAR_1_IsEndConversion
 843              		.thumb
 844              		.thumb_func
 845              		.type	ADC_SAR_1_IsEndConversion, %function
 846              	ADC_SAR_1_IsEndConversion:
 847              	.LFB8:
 476:Generated_Source\PSoC5/ADC_SAR_1.c ****     uint8 status;
 848              		.loc 1 476 0
 849              		.cfi_startproc
 850              		@ args = 0, pretend = 0, frame = 0
 851              		@ frame_needed = 0, uses_anonymous_args = 0
 852              	.LVL49:
 853 0000 08B5     		push	{r3, lr}
 854              		.cfi_def_cfa_offset 8
 855              		.cfi_offset 3, -8
 856              		.cfi_offset 14, -4
 857 0002 50B9     		cbnz	r0, .L55
 481:Generated_Source\PSoC5/ADC_SAR_1.c ****     } while ((status != ADC_SAR_1_SAR_EOF_1) && (retMode == ADC_SAR_1_WAIT_FOR_RESULT));
 858              		.loc 1 481 0
 859 0004 084A     		ldr	r2, .L58
 860              	.L49:
 481:Generated_Source\PSoC5/ADC_SAR_1.c ****     } while ((status != ADC_SAR_1_SAR_EOF_1) && (retMode == ADC_SAR_1_WAIT_FOR_RESULT));
 861              		.loc 1 481 0 is_stmt 0 discriminator 2
 862 0006 1378     		ldrb	r3, [r2]	@ zero_extendqisi2
 863              	.LVL50:
 482:Generated_Source\PSoC5/ADC_SAR_1.c ****     /* If convertion complete, wait until EOF bit released */
 864              		.loc 1 482 0 is_stmt 1 discriminator 2
 865 0008 DB07     		lsls	r3, r3, #31
 866              	.LVL51:
 867 000a FCD5     		bpl	.L49
 868              	.L51:
 487:Generated_Source\PSoC5/ADC_SAR_1.c ****         /* Do the unconditional read operation of the CSR1 register to make sure the EOC bit has be
 869              		.loc 1 487 0
 870 000c 0120     		movs	r0, #1
 871              	.LVL52:
 872 000e FFF7FEFF 		bl	CyDelayUs
 873              	.LVL53:
 489:Generated_Source\PSoC5/ADC_SAR_1.c ****     }
 874              		.loc 1 489 0
 875 0012 054B     		ldr	r3, .L58
 876 0014 0120     		movs	r0, #1
 877 0016 1B78     		ldrb	r3, [r3]	@ zero_extendqisi2
 493:Generated_Source\PSoC5/ADC_SAR_1.c **** 
ARM GAS  C:\Users\legoc\AppData\Local\Temp\ccKRZKhE.s 			page 31


 878              		.loc 1 493 0
 879 0018 08BD     		pop	{r3, pc}
 880              	.LVL54:
 881              	.L55:
 481:Generated_Source\PSoC5/ADC_SAR_1.c ****     } while ((status != ADC_SAR_1_SAR_EOF_1) && (retMode == ADC_SAR_1_WAIT_FOR_RESULT));
 882              		.loc 1 481 0
 883 001a 034B     		ldr	r3, .L58
 884 001c 1B78     		ldrb	r3, [r3]	@ zero_extendqisi2
 885              	.LVL55:
 482:Generated_Source\PSoC5/ADC_SAR_1.c ****     /* If convertion complete, wait until EOF bit released */
 886              		.loc 1 482 0
 887 001e DA07     		lsls	r2, r3, #31
 888 0020 F4D4     		bmi	.L51
 889 0022 0020     		movs	r0, #0
 890              	.LVL56:
 891 0024 08BD     		pop	{r3, pc}
 892              	.LVL57:
 893              	.L59:
 894 0026 00BF     		.align	2
 895              	.L58:
 896 0028 09590040 		.word	1073764617
 897              		.cfi_endproc
 898              	.LFE8:
 899              		.size	ADC_SAR_1_IsEndConversion, .-ADC_SAR_1_IsEndConversion
 900              		.section	.text.ADC_SAR_1_GetResult8,"ax",%progbits
 901              		.align	2
 902              		.global	ADC_SAR_1_GetResult8
 903              		.thumb
 904              		.thumb_func
 905              		.type	ADC_SAR_1_GetResult8, %function
 906              	ADC_SAR_1_GetResult8:
 907              	.LFB9:
 521:Generated_Source\PSoC5/ADC_SAR_1.c ****     return( (int8)ADC_SAR_1_SAR_WRK0_REG - (int8)ADC_SAR_1_shift);
 908              		.loc 1 521 0
 909              		.cfi_startproc
 910              		@ args = 0, pretend = 0, frame = 0
 911              		@ frame_needed = 0, uses_anonymous_args = 0
 912              		@ link register save eliminated.
 522:Generated_Source\PSoC5/ADC_SAR_1.c **** }
 913              		.loc 1 522 0
 914 0000 034A     		ldr	r2, .L61
 915 0002 044B     		ldr	r3, .L61+4
 916 0004 1B78     		ldrb	r3, [r3]	@ zero_extendqisi2
 917 0006 1088     		ldrh	r0, [r2]
 918 0008 181A     		subs	r0, r3, r0
 523:Generated_Source\PSoC5/ADC_SAR_1.c **** 
 919              		.loc 1 523 0
 920 000a 40B2     		sxtb	r0, r0
 921 000c 7047     		bx	lr
 922              	.L62:
 923 000e 00BF     		.align	2
 924              	.L61:
 925 0010 00000000 		.word	ADC_SAR_1_shift
 926 0014 A25B0040 		.word	1073765282
 927              		.cfi_endproc
 928              	.LFE9:
 929              		.size	ADC_SAR_1_GetResult8, .-ADC_SAR_1_GetResult8
ARM GAS  C:\Users\legoc\AppData\Local\Temp\ccKRZKhE.s 			page 32


 930              		.section	.text.ADC_SAR_1_GetResult16,"ax",%progbits
 931              		.align	2
 932              		.global	ADC_SAR_1_GetResult16
 933              		.thumb
 934              		.thumb_func
 935              		.type	ADC_SAR_1_GetResult16, %function
 936              	ADC_SAR_1_GetResult16:
 937              	.LFB10:
 551:Generated_Source\PSoC5/ADC_SAR_1.c ****     uint16 res;
 938              		.loc 1 551 0
 939              		.cfi_startproc
 940              		@ args = 0, pretend = 0, frame = 0
 941              		@ frame_needed = 0, uses_anonymous_args = 0
 942              		@ link register save eliminated.
 556:Generated_Source\PSoC5/ADC_SAR_1.c **** }
 943              		.loc 1 556 0
 944 0000 034A     		ldr	r2, .L64
 554:Generated_Source\PSoC5/ADC_SAR_1.c **** 
 945              		.loc 1 554 0
 946 0002 044B     		ldr	r3, .L64+4
 947 0004 1B88     		ldrh	r3, [r3]
 948              	.LVL58:
 556:Generated_Source\PSoC5/ADC_SAR_1.c **** }
 949              		.loc 1 556 0
 950 0006 1088     		ldrh	r0, [r2]
 951 0008 181A     		subs	r0, r3, r0
 557:Generated_Source\PSoC5/ADC_SAR_1.c **** 
 952              		.loc 1 557 0
 953 000a 00B2     		sxth	r0, r0
 954 000c 7047     		bx	lr
 955              	.L65:
 956 000e 00BF     		.align	2
 957              	.L64:
 958 0010 00000000 		.word	ADC_SAR_1_shift
 959 0014 A25B0040 		.word	1073765282
 960              		.cfi_endproc
 961              	.LFE10:
 962              		.size	ADC_SAR_1_GetResult16, .-ADC_SAR_1_GetResult16
 963              		.section	.text.ADC_SAR_1_SetOffset,"ax",%progbits
 964              		.align	2
 965              		.global	ADC_SAR_1_SetOffset
 966              		.thumb
 967              		.thumb_func
 968              		.type	ADC_SAR_1_SetOffset, %function
 969              	ADC_SAR_1_SetOffset:
 970              	.LFB11:
 586:Generated_Source\PSoC5/ADC_SAR_1.c ****     ADC_SAR_1_offset = offset;
 971              		.loc 1 586 0
 972              		.cfi_startproc
 973              		@ args = 0, pretend = 0, frame = 0
 974              		@ frame_needed = 0, uses_anonymous_args = 0
 975              		@ link register save eliminated.
 976              	.LVL59:
 587:Generated_Source\PSoC5/ADC_SAR_1.c **** }
 977              		.loc 1 587 0
 978 0000 014B     		ldr	r3, .L67
 979 0002 1880     		strh	r0, [r3]	@ movhi
ARM GAS  C:\Users\legoc\AppData\Local\Temp\ccKRZKhE.s 			page 33


 980 0004 7047     		bx	lr
 981              	.L68:
 982 0006 00BF     		.align	2
 983              	.L67:
 984 0008 00000000 		.word	ADC_SAR_1_offset
 985              		.cfi_endproc
 986              	.LFE11:
 987              		.size	ADC_SAR_1_SetOffset, .-ADC_SAR_1_SetOffset
 988              		.section	.text.ADC_SAR_1_SetGain,"ax",%progbits
 989              		.align	2
 990              		.global	ADC_SAR_1_SetGain
 991              		.thumb
 992              		.thumb_func
 993              		.type	ADC_SAR_1_SetGain, %function
 994              	ADC_SAR_1_SetGain:
 995              	.LFB13:
 665:Generated_Source\PSoC5/ADC_SAR_1.c ****     #else
 666:Generated_Source\PSoC5/ADC_SAR_1.c ****         ADC_SAR_1_shift = diff_zero;
 667:Generated_Source\PSoC5/ADC_SAR_1.c ****     #endif /* End ADC_SAR_1_DEFAULT_RANGE */
 668:Generated_Source\PSoC5/ADC_SAR_1.c **** }
 669:Generated_Source\PSoC5/ADC_SAR_1.c **** 
 670:Generated_Source\PSoC5/ADC_SAR_1.c **** 
 671:Generated_Source\PSoC5/ADC_SAR_1.c **** /*******************************************************************************
 672:Generated_Source\PSoC5/ADC_SAR_1.c **** * Function Name: ADC_SAR_1_SetGain
 673:Generated_Source\PSoC5/ADC_SAR_1.c **** ********************************************************************************
 674:Generated_Source\PSoC5/ADC_SAR_1.c **** *
 675:Generated_Source\PSoC5/ADC_SAR_1.c **** * Summary:
 676:Generated_Source\PSoC5/ADC_SAR_1.c **** *  Sets the ADC gain in counts per volt for the voltage conversion functions
 677:Generated_Source\PSoC5/ADC_SAR_1.c **** *  that follow. This value is set by default by the reference and input range
 678:Generated_Source\PSoC5/ADC_SAR_1.c **** *  settings. It should only be used to further calibrate the ADC with a known
 679:Generated_Source\PSoC5/ADC_SAR_1.c **** *  input or if the ADC is using an external reference.
 680:Generated_Source\PSoC5/ADC_SAR_1.c **** *
 681:Generated_Source\PSoC5/ADC_SAR_1.c **** * Parameters:
 682:Generated_Source\PSoC5/ADC_SAR_1.c **** *  int16 adcGain counts per volt
 683:Generated_Source\PSoC5/ADC_SAR_1.c **** *
 684:Generated_Source\PSoC5/ADC_SAR_1.c **** * Return:
 685:Generated_Source\PSoC5/ADC_SAR_1.c **** *  None.
 686:Generated_Source\PSoC5/ADC_SAR_1.c **** *
 687:Generated_Source\PSoC5/ADC_SAR_1.c **** * Global Variables:
 688:Generated_Source\PSoC5/ADC_SAR_1.c **** *  ADC_SAR_1_countsPer10Volt variable modified. This variable is used
 689:Generated_Source\PSoC5/ADC_SAR_1.c **** *  for gain calibration purpose.
 690:Generated_Source\PSoC5/ADC_SAR_1.c **** *
 691:Generated_Source\PSoC5/ADC_SAR_1.c **** *******************************************************************************/
 692:Generated_Source\PSoC5/ADC_SAR_1.c **** void ADC_SAR_1_SetGain(int16 adcGain)
 693:Generated_Source\PSoC5/ADC_SAR_1.c **** {
 996              		.loc 1 693 0
 997              		.cfi_startproc
 998              		@ args = 0, pretend = 0, frame = 0
 999              		@ frame_needed = 0, uses_anonymous_args = 0
 1000              		@ link register save eliminated.
 1001              	.LVL60:
 694:Generated_Source\PSoC5/ADC_SAR_1.c ****     ADC_SAR_1_countsPer10Volt = (int32)adcGain * 10;
 1002              		.loc 1 694 0
 1003 0000 00EB8000 		add	r0, r0, r0, lsl #2
 1004              	.LVL61:
 1005 0004 014B     		ldr	r3, .L70
 1006 0006 4000     		lsls	r0, r0, #1
ARM GAS  C:\Users\legoc\AppData\Local\Temp\ccKRZKhE.s 			page 34


 1007 0008 1860     		str	r0, [r3]
 1008 000a 7047     		bx	lr
 1009              	.L71:
 1010              		.align	2
 1011              	.L70:
 1012 000c 00000000 		.word	ADC_SAR_1_countsPer10Volt
 1013              		.cfi_endproc
 1014              	.LFE13:
 1015              		.size	ADC_SAR_1_SetGain, .-ADC_SAR_1_SetGain
 1016              		.section	.text.ADC_SAR_1_SetScaledGain,"ax",%progbits
 1017              		.align	2
 1018              		.global	ADC_SAR_1_SetScaledGain
 1019              		.thumb
 1020              		.thumb_func
 1021              		.type	ADC_SAR_1_SetScaledGain, %function
 1022              	ADC_SAR_1_SetScaledGain:
 1023              	.LFB14:
 695:Generated_Source\PSoC5/ADC_SAR_1.c **** }
 696:Generated_Source\PSoC5/ADC_SAR_1.c **** 
 697:Generated_Source\PSoC5/ADC_SAR_1.c **** 
 698:Generated_Source\PSoC5/ADC_SAR_1.c **** /*******************************************************************************
 699:Generated_Source\PSoC5/ADC_SAR_1.c **** * Function Name: ADC_SAR_1_SetScaledGain
 700:Generated_Source\PSoC5/ADC_SAR_1.c **** ********************************************************************************
 701:Generated_Source\PSoC5/ADC_SAR_1.c **** *
 702:Generated_Source\PSoC5/ADC_SAR_1.c **** * Summary:
 703:Generated_Source\PSoC5/ADC_SAR_1.c **** *  Sets the ADC gain in counts per 10 volt for the voltage conversion functions
 704:Generated_Source\PSoC5/ADC_SAR_1.c **** *  that follow. This value is set by default by the reference and input range
 705:Generated_Source\PSoC5/ADC_SAR_1.c **** *  settings. It should only be used to further calibrate the ADC with a known
 706:Generated_Source\PSoC5/ADC_SAR_1.c **** *  input or if the ADC is using an external reference.
 707:Generated_Source\PSoC5/ADC_SAR_1.c **** *
 708:Generated_Source\PSoC5/ADC_SAR_1.c **** * Parameters:
 709:Generated_Source\PSoC5/ADC_SAR_1.c **** *  int32 adcGain  counts per 10 volt
 710:Generated_Source\PSoC5/ADC_SAR_1.c **** *
 711:Generated_Source\PSoC5/ADC_SAR_1.c **** * Return:
 712:Generated_Source\PSoC5/ADC_SAR_1.c **** *  None.
 713:Generated_Source\PSoC5/ADC_SAR_1.c **** *
 714:Generated_Source\PSoC5/ADC_SAR_1.c **** * Global Variables:
 715:Generated_Source\PSoC5/ADC_SAR_1.c **** *  ADC_SAR_1_countsPer10Volt variable modified. This variable is used
 716:Generated_Source\PSoC5/ADC_SAR_1.c **** *  for gain calibration purpose.
 717:Generated_Source\PSoC5/ADC_SAR_1.c **** *
 718:Generated_Source\PSoC5/ADC_SAR_1.c **** *******************************************************************************/
 719:Generated_Source\PSoC5/ADC_SAR_1.c **** void ADC_SAR_1_SetScaledGain(int32 adcGain)
 720:Generated_Source\PSoC5/ADC_SAR_1.c **** {
 1024              		.loc 1 720 0
 1025              		.cfi_startproc
 1026              		@ args = 0, pretend = 0, frame = 0
 1027              		@ frame_needed = 0, uses_anonymous_args = 0
 1028              		@ link register save eliminated.
 1029              	.LVL62:
 721:Generated_Source\PSoC5/ADC_SAR_1.c ****     ADC_SAR_1_countsPer10Volt = adcGain;
 1030              		.loc 1 721 0
 1031 0000 014B     		ldr	r3, .L73
 1032 0002 1860     		str	r0, [r3]
 1033 0004 7047     		bx	lr
 1034              	.L74:
 1035 0006 00BF     		.align	2
 1036              	.L73:
ARM GAS  C:\Users\legoc\AppData\Local\Temp\ccKRZKhE.s 			page 35


 1037 0008 00000000 		.word	ADC_SAR_1_countsPer10Volt
 1038              		.cfi_endproc
 1039              	.LFE14:
 1040              		.size	ADC_SAR_1_SetScaledGain, .-ADC_SAR_1_SetScaledGain
 1041              		.section	.text.ADC_SAR_1_CountsTo_mVolts,"ax",%progbits
 1042              		.align	2
 1043              		.global	ADC_SAR_1_CountsTo_mVolts
 1044              		.thumb
 1045              		.thumb_func
 1046              		.type	ADC_SAR_1_CountsTo_mVolts, %function
 1047              	ADC_SAR_1_CountsTo_mVolts:
 1048              	.LFB15:
 722:Generated_Source\PSoC5/ADC_SAR_1.c **** }
 723:Generated_Source\PSoC5/ADC_SAR_1.c **** 
 724:Generated_Source\PSoC5/ADC_SAR_1.c **** 
 725:Generated_Source\PSoC5/ADC_SAR_1.c **** /*******************************************************************************
 726:Generated_Source\PSoC5/ADC_SAR_1.c **** * Function Name: ADC_SAR_1_CountsTo_mVolts
 727:Generated_Source\PSoC5/ADC_SAR_1.c **** ********************************************************************************
 728:Generated_Source\PSoC5/ADC_SAR_1.c **** *
 729:Generated_Source\PSoC5/ADC_SAR_1.c **** * Summary:
 730:Generated_Source\PSoC5/ADC_SAR_1.c **** *  Converts the ADC output to millivolts as a 16-bit integer.
 731:Generated_Source\PSoC5/ADC_SAR_1.c **** *
 732:Generated_Source\PSoC5/ADC_SAR_1.c **** * Parameters:
 733:Generated_Source\PSoC5/ADC_SAR_1.c **** *  int16 adcCounts:  Result from the ADC conversion
 734:Generated_Source\PSoC5/ADC_SAR_1.c **** *
 735:Generated_Source\PSoC5/ADC_SAR_1.c **** * Return:
 736:Generated_Source\PSoC5/ADC_SAR_1.c **** *  int16 Result in mVolts
 737:Generated_Source\PSoC5/ADC_SAR_1.c **** *
 738:Generated_Source\PSoC5/ADC_SAR_1.c **** * Global Variables:
 739:Generated_Source\PSoC5/ADC_SAR_1.c **** *  ADC_SAR_1_offset variable used.
 740:Generated_Source\PSoC5/ADC_SAR_1.c **** *  ADC_SAR_1_countsPer10Volt variable used.
 741:Generated_Source\PSoC5/ADC_SAR_1.c **** *
 742:Generated_Source\PSoC5/ADC_SAR_1.c **** *******************************************************************************/
 743:Generated_Source\PSoC5/ADC_SAR_1.c **** int16 ADC_SAR_1_CountsTo_mVolts(int16 adcCounts)
 744:Generated_Source\PSoC5/ADC_SAR_1.c **** {
 1049              		.loc 1 744 0
 1050              		.cfi_startproc
 1051              		@ args = 0, pretend = 0, frame = 0
 1052              		@ frame_needed = 0, uses_anonymous_args = 0
 1053              		@ link register save eliminated.
 1054              	.LVL63:
 745:Generated_Source\PSoC5/ADC_SAR_1.c ****     int16 mVolts;
 746:Generated_Source\PSoC5/ADC_SAR_1.c ****     int32 countsPer10Volt;
 747:Generated_Source\PSoC5/ADC_SAR_1.c **** 
 748:Generated_Source\PSoC5/ADC_SAR_1.c ****     if(ADC_SAR_1_countsPerVolt != 0)
 1055              		.loc 1 748 0
 1056 0000 0F4A     		ldr	r2, .L80
 1057 0002 1388     		ldrh	r3, [r2]
 1058 0004 1BB2     		sxth	r3, r3
 1059 0006 C3B1     		cbz	r3, .L76
 749:Generated_Source\PSoC5/ADC_SAR_1.c ****     {   /* Support obsolete method */
 750:Generated_Source\PSoC5/ADC_SAR_1.c ****         countsPer10Volt = (int32)ADC_SAR_1_countsPerVolt * 10;
 1060              		.loc 1 750 0
 1061 0008 1288     		ldrh	r2, [r2]
 1062 000a 12B2     		sxth	r2, r2
 1063 000c 02EB8202 		add	r2, r2, r2, lsl #2
 1064 0010 5200     		lsls	r2, r2, #1
ARM GAS  C:\Users\legoc\AppData\Local\Temp\ccKRZKhE.s 			page 36


 1065              	.LVL64:
 1066              	.L77:
 751:Generated_Source\PSoC5/ADC_SAR_1.c ****     }
 752:Generated_Source\PSoC5/ADC_SAR_1.c ****     else
 753:Generated_Source\PSoC5/ADC_SAR_1.c ****     {
 754:Generated_Source\PSoC5/ADC_SAR_1.c ****         countsPer10Volt = ADC_SAR_1_countsPer10Volt;
 755:Generated_Source\PSoC5/ADC_SAR_1.c ****     }
 756:Generated_Source\PSoC5/ADC_SAR_1.c **** 
 757:Generated_Source\PSoC5/ADC_SAR_1.c ****     /* Subtract ADC offset */
 758:Generated_Source\PSoC5/ADC_SAR_1.c ****     adcCounts -= ADC_SAR_1_offset;
 759:Generated_Source\PSoC5/ADC_SAR_1.c ****     /* Convert to millivolts with rounding */
 760:Generated_Source\PSoC5/ADC_SAR_1.c ****     mVolts = (int16)( (( (int32)adcCounts * ADC_SAR_1_10MV_COUNTS ) + ( (adcCounts > 0) ?
 1067              		.loc 1 760 0
 1068 0012 42F21073 		movw	r3, #10000
 758:Generated_Source\PSoC5/ADC_SAR_1.c ****     /* Convert to millivolts with rounding */
 1069              		.loc 1 758 0
 1070 0016 0B49     		ldr	r1, .L80+4
 1071 0018 0988     		ldrh	r1, [r1]
 1072 001a 401A     		subs	r0, r0, r1
 1073              	.LVL65:
 1074 001c 00B2     		sxth	r0, r0
 1075              	.LVL66:
 1076              		.loc 1 760 0
 1077 001e 03FB00F3 		mul	r3, r3, r0
 761:Generated_Source\PSoC5/ADC_SAR_1.c ****                        (countsPer10Volt / 2) : (-(countsPer10Volt / 2)) )) / countsPer10Volt);
 1078              		.loc 1 761 0
 1079 0022 0028     		cmp	r0, #0
 1080 0024 02EBD270 		add	r0, r2, r2, lsr #31
 1081              	.LVL67:
 1082 0028 4FEA6000 		asr	r0, r0, #1
 1083 002c D8BF     		it	le
 1084 002e 4042     		rsble	r0, r0, #0
 1085              	.LVL68:
 762:Generated_Source\PSoC5/ADC_SAR_1.c **** 
 763:Generated_Source\PSoC5/ADC_SAR_1.c ****     return( mVolts );
 1086              		.loc 1 763 0
 1087 0030 1844     		add	r0, r0, r3
 1088              	.LVL69:
 1089 0032 90FBF2F0 		sdiv	r0, r0, r2
 764:Generated_Source\PSoC5/ADC_SAR_1.c **** }
 1090              		.loc 1 764 0
 1091 0036 00B2     		sxth	r0, r0
 1092 0038 7047     		bx	lr
 1093              	.LVL70:
 1094              	.L76:
 754:Generated_Source\PSoC5/ADC_SAR_1.c ****     }
 1095              		.loc 1 754 0
 1096 003a 034B     		ldr	r3, .L80+8
 1097 003c 1A68     		ldr	r2, [r3]
 1098              	.LVL71:
 1099 003e E8E7     		b	.L77
 1100              	.L81:
 1101              		.align	2
 1102              	.L80:
 1103 0040 00000000 		.word	ADC_SAR_1_countsPerVolt
 1104 0044 00000000 		.word	ADC_SAR_1_offset
 1105 0048 00000000 		.word	ADC_SAR_1_countsPer10Volt
ARM GAS  C:\Users\legoc\AppData\Local\Temp\ccKRZKhE.s 			page 37


 1106              		.cfi_endproc
 1107              	.LFE15:
 1108              		.size	ADC_SAR_1_CountsTo_mVolts, .-ADC_SAR_1_CountsTo_mVolts
 1109              		.global	__aeabi_ldivmod
 1110              		.section	.text.ADC_SAR_1_CountsTo_uVolts,"ax",%progbits
 1111              		.align	2
 1112              		.global	ADC_SAR_1_CountsTo_uVolts
 1113              		.thumb
 1114              		.thumb_func
 1115              		.type	ADC_SAR_1_CountsTo_uVolts, %function
 1116              	ADC_SAR_1_CountsTo_uVolts:
 1117              	.LFB16:
 765:Generated_Source\PSoC5/ADC_SAR_1.c **** 
 766:Generated_Source\PSoC5/ADC_SAR_1.c **** 
 767:Generated_Source\PSoC5/ADC_SAR_1.c **** /*******************************************************************************
 768:Generated_Source\PSoC5/ADC_SAR_1.c **** * Function Name: ADC_SAR_1_CountsTo_uVolts
 769:Generated_Source\PSoC5/ADC_SAR_1.c **** ********************************************************************************
 770:Generated_Source\PSoC5/ADC_SAR_1.c **** *
 771:Generated_Source\PSoC5/ADC_SAR_1.c **** * Summary:
 772:Generated_Source\PSoC5/ADC_SAR_1.c **** *  Converts the ADC output to microvolts as a 32-bit integer.
 773:Generated_Source\PSoC5/ADC_SAR_1.c **** *
 774:Generated_Source\PSoC5/ADC_SAR_1.c **** * Parameters:
 775:Generated_Source\PSoC5/ADC_SAR_1.c **** *  int16 adcCounts: Result from the ADC conversion
 776:Generated_Source\PSoC5/ADC_SAR_1.c **** *
 777:Generated_Source\PSoC5/ADC_SAR_1.c **** * Return:
 778:Generated_Source\PSoC5/ADC_SAR_1.c **** *  int32 Result in micro Volts
 779:Generated_Source\PSoC5/ADC_SAR_1.c **** *
 780:Generated_Source\PSoC5/ADC_SAR_1.c **** * Global Variables:
 781:Generated_Source\PSoC5/ADC_SAR_1.c **** *  ADC_SAR_1_offset variable used.
 782:Generated_Source\PSoC5/ADC_SAR_1.c **** *  ADC_SAR_1_countsPer10Volt used to convert ADC counts to uVolts.
 783:Generated_Source\PSoC5/ADC_SAR_1.c **** *
 784:Generated_Source\PSoC5/ADC_SAR_1.c **** *******************************************************************************/
 785:Generated_Source\PSoC5/ADC_SAR_1.c **** int32 ADC_SAR_1_CountsTo_uVolts(int16 adcCounts)
 786:Generated_Source\PSoC5/ADC_SAR_1.c **** {
 1118              		.loc 1 786 0
 1119              		.cfi_startproc
 1120              		@ args = 0, pretend = 0, frame = 0
 1121              		@ frame_needed = 0, uses_anonymous_args = 0
 1122              	.LVL72:
 787:Generated_Source\PSoC5/ADC_SAR_1.c **** 
 788:Generated_Source\PSoC5/ADC_SAR_1.c ****     int64 uVolts;
 789:Generated_Source\PSoC5/ADC_SAR_1.c ****     int32 countsPer10Volt;
 790:Generated_Source\PSoC5/ADC_SAR_1.c **** 
 791:Generated_Source\PSoC5/ADC_SAR_1.c ****     if(ADC_SAR_1_countsPerVolt != 0)
 1123              		.loc 1 791 0
 1124 0000 0D4A     		ldr	r2, .L87
 786:Generated_Source\PSoC5/ADC_SAR_1.c **** 
 1125              		.loc 1 786 0
 1126 0002 70B5     		push	{r4, r5, r6, lr}
 1127              		.cfi_def_cfa_offset 16
 1128              		.cfi_offset 4, -16
 1129              		.cfi_offset 5, -12
 1130              		.cfi_offset 6, -8
 1131              		.cfi_offset 14, -4
 1132              		.loc 1 791 0
 1133 0004 1388     		ldrh	r3, [r2]
 1134 0006 1BB2     		sxth	r3, r3
ARM GAS  C:\Users\legoc\AppData\Local\Temp\ccKRZKhE.s 			page 38


 1135 0008 7BB9     		cbnz	r3, .L86
 792:Generated_Source\PSoC5/ADC_SAR_1.c ****     {   /* Support obsolete method */
 793:Generated_Source\PSoC5/ADC_SAR_1.c ****         countsPer10Volt = (int32)ADC_SAR_1_countsPerVolt * 10;
 794:Generated_Source\PSoC5/ADC_SAR_1.c ****     }
 795:Generated_Source\PSoC5/ADC_SAR_1.c ****     else
 796:Generated_Source\PSoC5/ADC_SAR_1.c ****     {
 797:Generated_Source\PSoC5/ADC_SAR_1.c ****         countsPer10Volt = ADC_SAR_1_countsPer10Volt;
 1136              		.loc 1 797 0
 1137 000a 0C4B     		ldr	r3, .L87+4
 1138 000c 1A68     		ldr	r2, [r3]
 1139              	.LVL73:
 1140              	.L84:
 798:Generated_Source\PSoC5/ADC_SAR_1.c ****     }
 799:Generated_Source\PSoC5/ADC_SAR_1.c **** 
 800:Generated_Source\PSoC5/ADC_SAR_1.c ****     /* Subtract ADC offset */
 801:Generated_Source\PSoC5/ADC_SAR_1.c ****     adcCounts -= ADC_SAR_1_offset;
 1141              		.loc 1 801 0
 1142 000e 0C4B     		ldr	r3, .L87+8
 802:Generated_Source\PSoC5/ADC_SAR_1.c ****     /* To convert adcCounts to microVolts it is required to be multiplied
 803:Generated_Source\PSoC5/ADC_SAR_1.c ****     *  on 10 million and later divide on gain in counts per 10V.
 804:Generated_Source\PSoC5/ADC_SAR_1.c ****     */
 805:Generated_Source\PSoC5/ADC_SAR_1.c ****     uVolts = (( (int64)adcCounts * ADC_SAR_1_10UV_COUNTS ) / countsPer10Volt);
 806:Generated_Source\PSoC5/ADC_SAR_1.c **** 
 807:Generated_Source\PSoC5/ADC_SAR_1.c ****     return((int32) uVolts );
 1143              		.loc 1 807 0
 1144 0010 0C4E     		ldr	r6, .L87+12
 801:Generated_Source\PSoC5/ADC_SAR_1.c ****     /* To convert adcCounts to microVolts it is required to be multiplied
 1145              		.loc 1 801 0
 1146 0012 1C88     		ldrh	r4, [r3]
 1147              		.loc 1 807 0
 1148 0014 D317     		asrs	r3, r2, #31
 801:Generated_Source\PSoC5/ADC_SAR_1.c ****     /* To convert adcCounts to microVolts it is required to be multiplied
 1149              		.loc 1 801 0
 1150 0016 041B     		subs	r4, r0, r4
 1151              	.LVL74:
 1152              		.loc 1 807 0
 1153 0018 24B2     		sxth	r4, r4
 1154 001a A4FB0601 		umull	r0, r1, r4, r6
 1155 001e E517     		asrs	r5, r4, #31
 1156 0020 06FB0511 		mla	r1, r6, r5, r1
 1157 0024 FFF7FEFF 		bl	__aeabi_ldivmod
 1158              	.LVL75:
 808:Generated_Source\PSoC5/ADC_SAR_1.c **** }
 1159              		.loc 1 808 0
 1160 0028 70BD     		pop	{r4, r5, r6, pc}
 1161              	.LVL76:
 1162              	.L86:
 793:Generated_Source\PSoC5/ADC_SAR_1.c ****     }
 1163              		.loc 1 793 0
 1164 002a 1288     		ldrh	r2, [r2]
 1165 002c 12B2     		sxth	r2, r2
 1166 002e 02EB8202 		add	r2, r2, r2, lsl #2
 1167 0032 5200     		lsls	r2, r2, #1
 1168              	.LVL77:
 1169 0034 EBE7     		b	.L84
 1170              	.L88:
 1171 0036 00BF     		.align	2
ARM GAS  C:\Users\legoc\AppData\Local\Temp\ccKRZKhE.s 			page 39


 1172              	.L87:
 1173 0038 00000000 		.word	ADC_SAR_1_countsPerVolt
 1174 003c 00000000 		.word	ADC_SAR_1_countsPer10Volt
 1175 0040 00000000 		.word	ADC_SAR_1_offset
 1176 0044 80969800 		.word	10000000
 1177              		.cfi_endproc
 1178              	.LFE16:
 1179              		.size	ADC_SAR_1_CountsTo_uVolts, .-ADC_SAR_1_CountsTo_uVolts
 1180              		.global	__aeabi_i2f
 1181              		.global	__aeabi_fmul
 1182              		.global	__aeabi_fdiv
 1183              		.section	.text.ADC_SAR_1_CountsTo_Volts,"ax",%progbits
 1184              		.align	2
 1185              		.global	ADC_SAR_1_CountsTo_Volts
 1186              		.thumb
 1187              		.thumb_func
 1188              		.type	ADC_SAR_1_CountsTo_Volts, %function
 1189              	ADC_SAR_1_CountsTo_Volts:
 1190              	.LFB17:
 809:Generated_Source\PSoC5/ADC_SAR_1.c **** 
 810:Generated_Source\PSoC5/ADC_SAR_1.c **** 
 811:Generated_Source\PSoC5/ADC_SAR_1.c **** /*******************************************************************************
 812:Generated_Source\PSoC5/ADC_SAR_1.c **** * Function Name: ADC_SAR_1_CountsTo_Volts
 813:Generated_Source\PSoC5/ADC_SAR_1.c **** ********************************************************************************
 814:Generated_Source\PSoC5/ADC_SAR_1.c **** *
 815:Generated_Source\PSoC5/ADC_SAR_1.c **** * Summary:
 816:Generated_Source\PSoC5/ADC_SAR_1.c **** *  Converts the ADC output to volts as a floating-point number.
 817:Generated_Source\PSoC5/ADC_SAR_1.c **** *
 818:Generated_Source\PSoC5/ADC_SAR_1.c **** * Parameters:
 819:Generated_Source\PSoC5/ADC_SAR_1.c **** *  int16 adcCounts: Result from the ADC conversion
 820:Generated_Source\PSoC5/ADC_SAR_1.c **** *
 821:Generated_Source\PSoC5/ADC_SAR_1.c **** * Return:
 822:Generated_Source\PSoC5/ADC_SAR_1.c **** *  float Result in Volts
 823:Generated_Source\PSoC5/ADC_SAR_1.c **** *
 824:Generated_Source\PSoC5/ADC_SAR_1.c **** * Global Variables:
 825:Generated_Source\PSoC5/ADC_SAR_1.c **** *  ADC_SAR_1_offset variable used.
 826:Generated_Source\PSoC5/ADC_SAR_1.c **** *  ADC_SAR_1_countsPer10Volt used to convert ADC counts to Volts.
 827:Generated_Source\PSoC5/ADC_SAR_1.c **** *
 828:Generated_Source\PSoC5/ADC_SAR_1.c **** *******************************************************************************/
 829:Generated_Source\PSoC5/ADC_SAR_1.c **** float32 ADC_SAR_1_CountsTo_Volts(int16 adcCounts)
 830:Generated_Source\PSoC5/ADC_SAR_1.c **** {
 1191              		.loc 1 830 0
 1192              		.cfi_startproc
 1193              		@ args = 0, pretend = 0, frame = 0
 1194              		@ frame_needed = 0, uses_anonymous_args = 0
 1195              	.LVL78:
 831:Generated_Source\PSoC5/ADC_SAR_1.c ****     float32 volts;
 832:Generated_Source\PSoC5/ADC_SAR_1.c ****     int32 countsPer10Volt;
 833:Generated_Source\PSoC5/ADC_SAR_1.c **** 
 834:Generated_Source\PSoC5/ADC_SAR_1.c ****     if(ADC_SAR_1_countsPerVolt != 0)
 1196              		.loc 1 834 0
 1197 0000 0F4A     		ldr	r2, .L94
 830:Generated_Source\PSoC5/ADC_SAR_1.c ****     float32 volts;
 1198              		.loc 1 830 0
 1199 0002 38B5     		push	{r3, r4, r5, lr}
 1200              		.cfi_def_cfa_offset 16
 1201              		.cfi_offset 3, -16
ARM GAS  C:\Users\legoc\AppData\Local\Temp\ccKRZKhE.s 			page 40


 1202              		.cfi_offset 4, -12
 1203              		.cfi_offset 5, -8
 1204              		.cfi_offset 14, -4
 1205              		.loc 1 834 0
 1206 0004 1388     		ldrh	r3, [r2]
 1207 0006 1BB2     		sxth	r3, r3
 1208 0008 9BB9     		cbnz	r3, .L93
 835:Generated_Source\PSoC5/ADC_SAR_1.c ****     {   /* Support obsolete method */
 836:Generated_Source\PSoC5/ADC_SAR_1.c ****         countsPer10Volt = (int32)ADC_SAR_1_countsPerVolt * 10;
 837:Generated_Source\PSoC5/ADC_SAR_1.c ****     }
 838:Generated_Source\PSoC5/ADC_SAR_1.c ****     else
 839:Generated_Source\PSoC5/ADC_SAR_1.c ****     {
 840:Generated_Source\PSoC5/ADC_SAR_1.c ****         countsPer10Volt = ADC_SAR_1_countsPer10Volt;
 1209              		.loc 1 840 0
 1210 000a 0E4B     		ldr	r3, .L94+4
 1211 000c 1C68     		ldr	r4, [r3]
 1212              	.LVL79:
 1213              	.L91:
 841:Generated_Source\PSoC5/ADC_SAR_1.c ****     }
 842:Generated_Source\PSoC5/ADC_SAR_1.c **** 
 843:Generated_Source\PSoC5/ADC_SAR_1.c ****     /* Subtract ADC offset */
 844:Generated_Source\PSoC5/ADC_SAR_1.c ****     adcCounts -= ADC_SAR_1_offset;
 1214              		.loc 1 844 0
 1215 000e 0E4B     		ldr	r3, .L94+8
 1216 0010 1B88     		ldrh	r3, [r3]
 1217 0012 C01A     		subs	r0, r0, r3
 1218              	.LVL80:
 845:Generated_Source\PSoC5/ADC_SAR_1.c **** 
 846:Generated_Source\PSoC5/ADC_SAR_1.c ****     volts = ((float32)adcCounts * ADC_SAR_1_10V_COUNTS) / (float32)countsPer10Volt;
 847:Generated_Source\PSoC5/ADC_SAR_1.c **** 
 848:Generated_Source\PSoC5/ADC_SAR_1.c ****     return( volts );
 1219              		.loc 1 848 0
 1220 0014 00B2     		sxth	r0, r0
 1221 0016 FFF7FEFF 		bl	__aeabi_i2f
 1222              	.LVL81:
 1223 001a 0C49     		ldr	r1, .L94+12
 1224 001c FFF7FEFF 		bl	__aeabi_fmul
 1225              	.LVL82:
 1226 0020 0546     		mov	r5, r0
 1227 0022 2046     		mov	r0, r4
 1228 0024 FFF7FEFF 		bl	__aeabi_i2f
 1229              	.LVL83:
 1230 0028 0146     		mov	r1, r0
 1231 002a 2846     		mov	r0, r5
 1232 002c FFF7FEFF 		bl	__aeabi_fdiv
 1233              	.LVL84:
 849:Generated_Source\PSoC5/ADC_SAR_1.c **** }
 1234              		.loc 1 849 0
 1235 0030 38BD     		pop	{r3, r4, r5, pc}
 1236              	.LVL85:
 1237              	.L93:
 836:Generated_Source\PSoC5/ADC_SAR_1.c ****     }
 1238              		.loc 1 836 0
 1239 0032 1488     		ldrh	r4, [r2]
 1240 0034 24B2     		sxth	r4, r4
 1241 0036 04EB8404 		add	r4, r4, r4, lsl #2
 1242 003a 6400     		lsls	r4, r4, #1
ARM GAS  C:\Users\legoc\AppData\Local\Temp\ccKRZKhE.s 			page 41


 1243              	.LVL86:
 1244 003c E7E7     		b	.L91
 1245              	.L95:
 1246 003e 00BF     		.align	2
 1247              	.L94:
 1248 0040 00000000 		.word	ADC_SAR_1_countsPerVolt
 1249 0044 00000000 		.word	ADC_SAR_1_countsPer10Volt
 1250 0048 00000000 		.word	ADC_SAR_1_offset
 1251 004c 00002041 		.word	1092616192
 1252              		.cfi_endproc
 1253              	.LFE17:
 1254              		.size	ADC_SAR_1_CountsTo_Volts, .-ADC_SAR_1_CountsTo_Volts
 1255              		.comm	ADC_SAR_1_shift,2,2
 1256              		.comm	ADC_SAR_1_countsPer10Volt,4,4
 1257              		.comm	ADC_SAR_1_countsPerVolt,2,2
 1258              		.comm	ADC_SAR_1_offset,2,2
 1259              		.global	ADC_SAR_1_initVar
 1260              		.bss
 1261              		.set	.LANCHOR0,. + 0
 1262              		.type	ADC_SAR_1_initVar, %object
 1263              		.size	ADC_SAR_1_initVar, 1
 1264              	ADC_SAR_1_initVar:
 1265 0000 00       		.space	1
 1266              		.text
 1267              	.Letext0:
 1268              		.file 2 "Generated_Source\\PSoC5\\cytypes.h"
 1269              		.file 3 "Generated_Source\\PSoC5\\ADC_SAR_1_theACLK.h"
 1270              		.file 4 "Generated_Source\\PSoC5\\CyLib.h"