ARM GAS  C:\Users\JACOB-~1\AppData\Local\Temp\ccd2JyOp.s 			page 1


   1              		.syntax unified
   2              		.cpu cortex-m3
   3              		.fpu softvfp
   4              		.eabi_attribute 20, 1
   5              		.eabi_attribute 21, 1
   6              		.eabi_attribute 23, 3
   7              		.eabi_attribute 24, 1
   8              		.eabi_attribute 25, 1
   9              		.eabi_attribute 26, 1
  10              		.eabi_attribute 30, 2
  11              		.eabi_attribute 34, 1
  12              		.eabi_attribute 18, 4
  13              		.thumb
  14              		.syntax unified
  15              		.file	"AMux_2.c"
  16              		.text
  17              	.Ltext0:
  18              		.cfi_sections	.debug_frame
  19              		.section	.text.AMux_2_Start,"ax",%progbits
  20              		.align	2
  21              		.global	AMux_2_Start
  22              		.thumb
  23              		.thumb_func
  24              		.type	AMux_2_Start, %function
  25              	AMux_2_Start:
  26              	.LFB0:
  27              		.file 1 "Generated_Source\\PSoC5\\AMux_2.c"
   1:Generated_Source\PSoC5/AMux_2.c **** /*******************************************************************************
   2:Generated_Source\PSoC5/AMux_2.c **** * File Name: AMux_2.c
   3:Generated_Source\PSoC5/AMux_2.c **** * Version 1.80
   4:Generated_Source\PSoC5/AMux_2.c **** *
   5:Generated_Source\PSoC5/AMux_2.c **** *  Description:
   6:Generated_Source\PSoC5/AMux_2.c **** *    This file contains all functions required for the analog multiplexer
   7:Generated_Source\PSoC5/AMux_2.c **** *    AMux User Module.
   8:Generated_Source\PSoC5/AMux_2.c **** *
   9:Generated_Source\PSoC5/AMux_2.c **** *   Note:
  10:Generated_Source\PSoC5/AMux_2.c **** *
  11:Generated_Source\PSoC5/AMux_2.c **** *******************************************************************************
  12:Generated_Source\PSoC5/AMux_2.c **** * Copyright 2008-2010, Cypress Semiconductor Corporation.  All rights reserved.
  13:Generated_Source\PSoC5/AMux_2.c **** * You may use this file only in accordance with the license, terms, conditions, 
  14:Generated_Source\PSoC5/AMux_2.c **** * disclaimers, and limitations in the end user license agreement accompanying 
  15:Generated_Source\PSoC5/AMux_2.c **** * the software package with which this file was provided.
  16:Generated_Source\PSoC5/AMux_2.c **** ********************************************************************************/
  17:Generated_Source\PSoC5/AMux_2.c **** 
  18:Generated_Source\PSoC5/AMux_2.c **** #include "AMux_2.h"
  19:Generated_Source\PSoC5/AMux_2.c **** 
  20:Generated_Source\PSoC5/AMux_2.c **** static uint8 AMux_2_lastChannel = AMux_2_NULL_CHANNEL;
  21:Generated_Source\PSoC5/AMux_2.c **** 
  22:Generated_Source\PSoC5/AMux_2.c **** 
  23:Generated_Source\PSoC5/AMux_2.c **** /*******************************************************************************
  24:Generated_Source\PSoC5/AMux_2.c **** * Function Name: AMux_2_Start
  25:Generated_Source\PSoC5/AMux_2.c **** ********************************************************************************
  26:Generated_Source\PSoC5/AMux_2.c **** * Summary:
  27:Generated_Source\PSoC5/AMux_2.c **** *  Disconnect all channels.
  28:Generated_Source\PSoC5/AMux_2.c **** *
  29:Generated_Source\PSoC5/AMux_2.c **** * Parameters:
  30:Generated_Source\PSoC5/AMux_2.c **** *  void
ARM GAS  C:\Users\JACOB-~1\AppData\Local\Temp\ccd2JyOp.s 			page 2


  31:Generated_Source\PSoC5/AMux_2.c **** *
  32:Generated_Source\PSoC5/AMux_2.c **** * Return:
  33:Generated_Source\PSoC5/AMux_2.c **** *  void
  34:Generated_Source\PSoC5/AMux_2.c **** *
  35:Generated_Source\PSoC5/AMux_2.c **** *******************************************************************************/
  36:Generated_Source\PSoC5/AMux_2.c **** void AMux_2_Start(void) 
  37:Generated_Source\PSoC5/AMux_2.c **** {
  28              		.loc 1 37 0
  29              		.cfi_startproc
  30              		@ args = 0, pretend = 0, frame = 0
  31              		@ frame_needed = 0, uses_anonymous_args = 0
  32              	.LVL0:
  33 0000 08B5     		push	{r3, lr}
  34              		.cfi_def_cfa_offset 8
  35              		.cfi_offset 3, -8
  36              		.cfi_offset 14, -4
  38:Generated_Source\PSoC5/AMux_2.c ****     uint8 chan;
  39:Generated_Source\PSoC5/AMux_2.c **** 
  40:Generated_Source\PSoC5/AMux_2.c ****     for(chan = 0u; chan < AMux_2_CHANNELS ; chan++)
  41:Generated_Source\PSoC5/AMux_2.c ****     {
  42:Generated_Source\PSoC5/AMux_2.c **** #if (AMux_2_MUXTYPE == AMux_2_MUX_SINGLE)
  43:Generated_Source\PSoC5/AMux_2.c ****         AMux_2_Unset(chan);
  37              		.loc 1 43 0
  38 0002 0020     		movs	r0, #0
  39 0004 FFF7FEFF 		bl	AMux_2_Unset
  40              	.LVL1:
  41 0008 0120     		movs	r0, #1
  42 000a FFF7FEFF 		bl	AMux_2_Unset
  43              	.LVL2:
  44:Generated_Source\PSoC5/AMux_2.c **** #else
  45:Generated_Source\PSoC5/AMux_2.c ****         AMux_2_CYAMUXSIDE_A_Unset(chan);
  46:Generated_Source\PSoC5/AMux_2.c ****         AMux_2_CYAMUXSIDE_B_Unset(chan);
  47:Generated_Source\PSoC5/AMux_2.c **** #endif
  48:Generated_Source\PSoC5/AMux_2.c ****     }
  49:Generated_Source\PSoC5/AMux_2.c **** 
  50:Generated_Source\PSoC5/AMux_2.c ****     AMux_2_lastChannel = AMux_2_NULL_CHANNEL;
  44              		.loc 1 50 0
  45 000e 024B     		ldr	r3, .L3
  46 0010 FF22     		movs	r2, #255
  47 0012 1A70     		strb	r2, [r3]
  48 0014 08BD     		pop	{r3, pc}
  49              	.L4:
  50 0016 00BF     		.align	2
  51              	.L3:
  52 0018 00000000 		.word	.LANCHOR0
  53              		.cfi_endproc
  54              	.LFE0:
  55              		.size	AMux_2_Start, .-AMux_2_Start
  56              		.section	.text.AMux_2_Select,"ax",%progbits
  57              		.align	2
  58              		.global	AMux_2_Select
  59              		.thumb
  60              		.thumb_func
  61              		.type	AMux_2_Select, %function
  62              	AMux_2_Select:
  63              	.LFB1:
  51:Generated_Source\PSoC5/AMux_2.c **** }
ARM GAS  C:\Users\JACOB-~1\AppData\Local\Temp\ccd2JyOp.s 			page 3


  52:Generated_Source\PSoC5/AMux_2.c **** 
  53:Generated_Source\PSoC5/AMux_2.c **** 
  54:Generated_Source\PSoC5/AMux_2.c **** #if (!AMux_2_ATMOSTONE)
  55:Generated_Source\PSoC5/AMux_2.c **** /*******************************************************************************
  56:Generated_Source\PSoC5/AMux_2.c **** * Function Name: AMux_2_Select
  57:Generated_Source\PSoC5/AMux_2.c **** ********************************************************************************
  58:Generated_Source\PSoC5/AMux_2.c **** * Summary:
  59:Generated_Source\PSoC5/AMux_2.c **** *  This functions first disconnects all channels then connects the given
  60:Generated_Source\PSoC5/AMux_2.c **** *  channel.
  61:Generated_Source\PSoC5/AMux_2.c **** *
  62:Generated_Source\PSoC5/AMux_2.c **** * Parameters:
  63:Generated_Source\PSoC5/AMux_2.c **** *  channel:  The channel to connect to the common terminal.
  64:Generated_Source\PSoC5/AMux_2.c **** *
  65:Generated_Source\PSoC5/AMux_2.c **** * Return:
  66:Generated_Source\PSoC5/AMux_2.c **** *  void
  67:Generated_Source\PSoC5/AMux_2.c **** *
  68:Generated_Source\PSoC5/AMux_2.c **** *******************************************************************************/
  69:Generated_Source\PSoC5/AMux_2.c **** void AMux_2_Select(uint8 channel) 
  70:Generated_Source\PSoC5/AMux_2.c **** {
  64              		.loc 1 70 0
  65              		.cfi_startproc
  66              		@ args = 0, pretend = 0, frame = 0
  67              		@ frame_needed = 0, uses_anonymous_args = 0
  68              	.LVL3:
  69 0000 38B5     		push	{r3, r4, r5, lr}
  70              		.cfi_def_cfa_offset 16
  71              		.cfi_offset 3, -16
  72              		.cfi_offset 4, -12
  73              		.cfi_offset 5, -8
  74              		.cfi_offset 14, -4
  75              		.loc 1 70 0
  76 0002 0546     		mov	r5, r0
  77              	.LBB4:
  78              	.LBB5:
  43:Generated_Source\PSoC5/AMux_2.c **** #else
  79              		.loc 1 43 0
  80 0004 0020     		movs	r0, #0
  81              	.LVL4:
  82 0006 FFF7FEFF 		bl	AMux_2_Unset
  83              	.LVL5:
  50:Generated_Source\PSoC5/AMux_2.c **** }
  84              		.loc 1 50 0
  85 000a 054C     		ldr	r4, .L7
  43:Generated_Source\PSoC5/AMux_2.c **** #else
  86              		.loc 1 43 0
  87 000c 0120     		movs	r0, #1
  88 000e FFF7FEFF 		bl	AMux_2_Unset
  89              	.LVL6:
  50:Generated_Source\PSoC5/AMux_2.c **** }
  90              		.loc 1 50 0
  91 0012 FF23     		movs	r3, #255
  92              	.LBE5:
  93              	.LBE4:
  71:Generated_Source\PSoC5/AMux_2.c ****     AMux_2_DisconnectAll();        /* Disconnect all previous connections */
  72:Generated_Source\PSoC5/AMux_2.c ****     AMux_2_Connect(channel);       /* Make the given selection */
  94              		.loc 1 72 0
  95 0014 2846     		mov	r0, r5
ARM GAS  C:\Users\JACOB-~1\AppData\Local\Temp\ccd2JyOp.s 			page 4


  96              	.LBB7:
  97              	.LBB6:
  50:Generated_Source\PSoC5/AMux_2.c **** }
  98              		.loc 1 50 0
  99 0016 2370     		strb	r3, [r4]
 100              	.LVL7:
 101              	.LBE6:
 102              	.LBE7:
 103              		.loc 1 72 0
 104 0018 FFF7FEFF 		bl	AMux_2_Set
 105              	.LVL8:
  73:Generated_Source\PSoC5/AMux_2.c ****     AMux_2_lastChannel = channel;  /* Update last channel */
 106              		.loc 1 73 0
 107 001c 2570     		strb	r5, [r4]
 108 001e 38BD     		pop	{r3, r4, r5, pc}
 109              	.L8:
 110              		.align	2
 111              	.L7:
 112 0020 00000000 		.word	.LANCHOR0
 113              		.cfi_endproc
 114              	.LFE1:
 115              		.size	AMux_2_Select, .-AMux_2_Select
 116              		.section	.text.AMux_2_FastSelect,"ax",%progbits
 117              		.align	2
 118              		.global	AMux_2_FastSelect
 119              		.thumb
 120              		.thumb_func
 121              		.type	AMux_2_FastSelect, %function
 122              	AMux_2_FastSelect:
 123              	.LFB2:
  74:Generated_Source\PSoC5/AMux_2.c **** }
  75:Generated_Source\PSoC5/AMux_2.c **** #endif
  76:Generated_Source\PSoC5/AMux_2.c **** 
  77:Generated_Source\PSoC5/AMux_2.c **** 
  78:Generated_Source\PSoC5/AMux_2.c **** /*******************************************************************************
  79:Generated_Source\PSoC5/AMux_2.c **** * Function Name: AMux_2_FastSelect
  80:Generated_Source\PSoC5/AMux_2.c **** ********************************************************************************
  81:Generated_Source\PSoC5/AMux_2.c **** * Summary:
  82:Generated_Source\PSoC5/AMux_2.c **** *  This function first disconnects the last connection made with FastSelect or
  83:Generated_Source\PSoC5/AMux_2.c **** *  Select, then connects the given channel. The FastSelect function is similar
  84:Generated_Source\PSoC5/AMux_2.c **** *  to the Select function, except it is faster since it only disconnects the
  85:Generated_Source\PSoC5/AMux_2.c **** *  last channel selected rather than all channels.
  86:Generated_Source\PSoC5/AMux_2.c **** *
  87:Generated_Source\PSoC5/AMux_2.c **** * Parameters:
  88:Generated_Source\PSoC5/AMux_2.c **** *  channel:  The channel to connect to the common terminal.
  89:Generated_Source\PSoC5/AMux_2.c **** *
  90:Generated_Source\PSoC5/AMux_2.c **** * Return:
  91:Generated_Source\PSoC5/AMux_2.c **** *  void
  92:Generated_Source\PSoC5/AMux_2.c **** *
  93:Generated_Source\PSoC5/AMux_2.c **** *******************************************************************************/
  94:Generated_Source\PSoC5/AMux_2.c **** void AMux_2_FastSelect(uint8 channel) 
  95:Generated_Source\PSoC5/AMux_2.c **** {
 124              		.loc 1 95 0
 125              		.cfi_startproc
 126              		@ args = 0, pretend = 0, frame = 0
 127              		@ frame_needed = 0, uses_anonymous_args = 0
 128              	.LVL9:
ARM GAS  C:\Users\JACOB-~1\AppData\Local\Temp\ccd2JyOp.s 			page 5


 129 0000 38B5     		push	{r3, r4, r5, lr}
 130              		.cfi_def_cfa_offset 16
 131              		.cfi_offset 3, -16
 132              		.cfi_offset 4, -12
 133              		.cfi_offset 5, -8
 134              		.cfi_offset 14, -4
  96:Generated_Source\PSoC5/AMux_2.c ****     /* Disconnect the last valid channel */
  97:Generated_Source\PSoC5/AMux_2.c ****     if( AMux_2_lastChannel != AMux_2_NULL_CHANNEL)
 135              		.loc 1 97 0
 136 0002 064C     		ldr	r4, .L16
  95:Generated_Source\PSoC5/AMux_2.c ****     /* Disconnect the last valid channel */
 137              		.loc 1 95 0
 138 0004 0546     		mov	r5, r0
 139              		.loc 1 97 0
 140 0006 2078     		ldrb	r0, [r4]	@ zero_extendqisi2
 141              	.LVL10:
 142 0008 FF28     		cmp	r0, #255
 143 000a 01D0     		beq	.L10
  98:Generated_Source\PSoC5/AMux_2.c ****     {
  99:Generated_Source\PSoC5/AMux_2.c ****         AMux_2_Disconnect(AMux_2_lastChannel);
 144              		.loc 1 99 0
 145 000c FFF7FEFF 		bl	AMux_2_Unset
 146              	.LVL11:
 147              	.L10:
 100:Generated_Source\PSoC5/AMux_2.c ****     }
 101:Generated_Source\PSoC5/AMux_2.c **** 
 102:Generated_Source\PSoC5/AMux_2.c ****     /* Make the new channel connection */
 103:Generated_Source\PSoC5/AMux_2.c **** #if (AMux_2_MUXTYPE == AMux_2_MUX_SINGLE)
 104:Generated_Source\PSoC5/AMux_2.c ****     AMux_2_Set(channel);
 148              		.loc 1 104 0
 149 0010 2846     		mov	r0, r5
 150 0012 FFF7FEFF 		bl	AMux_2_Set
 151              	.LVL12:
 105:Generated_Source\PSoC5/AMux_2.c **** #else
 106:Generated_Source\PSoC5/AMux_2.c ****     AMux_2_CYAMUXSIDE_A_Set(channel);
 107:Generated_Source\PSoC5/AMux_2.c ****     AMux_2_CYAMUXSIDE_B_Set(channel);
 108:Generated_Source\PSoC5/AMux_2.c **** #endif
 109:Generated_Source\PSoC5/AMux_2.c **** 
 110:Generated_Source\PSoC5/AMux_2.c **** 
 111:Generated_Source\PSoC5/AMux_2.c ****     AMux_2_lastChannel = channel;   /* Update last channel */
 152              		.loc 1 111 0
 153 0016 2570     		strb	r5, [r4]
 154 0018 38BD     		pop	{r3, r4, r5, pc}
 155              	.L17:
 156 001a 00BF     		.align	2
 157              	.L16:
 158 001c 00000000 		.word	.LANCHOR0
 159              		.cfi_endproc
 160              	.LFE2:
 161              		.size	AMux_2_FastSelect, .-AMux_2_FastSelect
 162              		.data
 163              		.set	.LANCHOR0,. + 0
 164              		.type	AMux_2_lastChannel, %object
 165              		.size	AMux_2_lastChannel, 1
 166              	AMux_2_lastChannel:
 167 0000 FF       		.byte	-1
 168              		.text
ARM GAS  C:\Users\JACOB-~1\AppData\Local\Temp\ccd2JyOp.s 			page 6


 169              	.Letext0:
 170              		.file 2 "Generated_Source\\PSoC5\\cyfitter_cfg.h"
 171              		.file 3 "Generated_Source\\PSoC5\\cytypes.h"