ARM GAS  C:\Users\legoc\AppData\Local\Temp\ccFRWr2w.s 			page 1


   1              		.syntax unified
   2              		.cpu cortex-m3
   3              		.fpu softvfp
   4              		.eabi_attribute 20, 1
   5              		.eabi_attribute 21, 1
   6              		.eabi_attribute 23, 3
   7              		.eabi_attribute 24, 1
   8              		.eabi_attribute 25, 1
   9              		.eabi_attribute 26, 1
  10              		.eabi_attribute 30, 2
  11              		.eabi_attribute 34, 1
  12              		.eabi_attribute 18, 4
  13              		.thumb
  14              		.syntax unified
  15              		.file	"cyfitter_cfg.c"
  16              		.text
  17              	.Ltext0:
  18              		.cfi_sections	.debug_frame
  19              		.section	.text.SetAnalogRoutingPumps,"ax",%progbits
  20              		.align	2
  21              		.global	SetAnalogRoutingPumps
  22              		.thumb
  23              		.thumb_func
  24              		.type	SetAnalogRoutingPumps, %function
  25              	SetAnalogRoutingPumps:
  26              	.LFB7:
  27              		.file 1 "Generated_Source\\PSoC5\\cyfitter_cfg.c"
   1:Generated_Source\PSoC5/cyfitter_cfg.c **** 
   2:Generated_Source\PSoC5/cyfitter_cfg.c **** /*******************************************************************************
   3:Generated_Source\PSoC5/cyfitter_cfg.c **** * File Name: cyfitter_cfg.c
   4:Generated_Source\PSoC5/cyfitter_cfg.c **** * 
   5:Generated_Source\PSoC5/cyfitter_cfg.c **** * PSoC Creator  4.2
   6:Generated_Source\PSoC5/cyfitter_cfg.c **** *
   7:Generated_Source\PSoC5/cyfitter_cfg.c **** * Description:
   8:Generated_Source\PSoC5/cyfitter_cfg.c **** * This file contains device initialization code.
   9:Generated_Source\PSoC5/cyfitter_cfg.c **** * Except for the user defined sections in CyClockStartupError(), this file should not be modified.
  10:Generated_Source\PSoC5/cyfitter_cfg.c **** * This file is automatically generated by PSoC Creator.
  11:Generated_Source\PSoC5/cyfitter_cfg.c **** *
  12:Generated_Source\PSoC5/cyfitter_cfg.c **** ********************************************************************************
  13:Generated_Source\PSoC5/cyfitter_cfg.c **** * Copyright (c) 2007-2018 Cypress Semiconductor.  All rights reserved.
  14:Generated_Source\PSoC5/cyfitter_cfg.c **** * You may use this file only in accordance with the license, terms, conditions, 
  15:Generated_Source\PSoC5/cyfitter_cfg.c **** * disclaimers, and limitations in the end user license agreement accompanying 
  16:Generated_Source\PSoC5/cyfitter_cfg.c **** * the software package with which this file was provided.
  17:Generated_Source\PSoC5/cyfitter_cfg.c **** ********************************************************************************/
  18:Generated_Source\PSoC5/cyfitter_cfg.c **** 
  19:Generated_Source\PSoC5/cyfitter_cfg.c **** #include <string.h>
  20:Generated_Source\PSoC5/cyfitter_cfg.c **** #include "cytypes.h"
  21:Generated_Source\PSoC5/cyfitter_cfg.c **** #include "cydevice_trm.h"
  22:Generated_Source\PSoC5/cyfitter_cfg.c **** #include "cyfitter.h"
  23:Generated_Source\PSoC5/cyfitter_cfg.c **** #include "CyLib.h"
  24:Generated_Source\PSoC5/cyfitter_cfg.c **** #include "cyfitter_cfg.h"
  25:Generated_Source\PSoC5/cyfitter_cfg.c **** #include "cyapicallbacks.h"
  26:Generated_Source\PSoC5/cyfitter_cfg.c **** 
  27:Generated_Source\PSoC5/cyfitter_cfg.c **** #define CY_NEED_CYCLOCKSTARTUPERROR 1
  28:Generated_Source\PSoC5/cyfitter_cfg.c **** 
  29:Generated_Source\PSoC5/cyfitter_cfg.c **** 
  30:Generated_Source\PSoC5/cyfitter_cfg.c **** #if defined(__GNUC__) || defined(__ARMCC_VERSION)
ARM GAS  C:\Users\legoc\AppData\Local\Temp\ccFRWr2w.s 			page 2


  31:Generated_Source\PSoC5/cyfitter_cfg.c ****     #define CYPACKED 
  32:Generated_Source\PSoC5/cyfitter_cfg.c ****     #define CYPACKED_ATTR __attribute__ ((packed))
  33:Generated_Source\PSoC5/cyfitter_cfg.c ****     #define CYALIGNED __attribute__ ((aligned))
  34:Generated_Source\PSoC5/cyfitter_cfg.c ****     #define CY_CFG_UNUSED __attribute__ ((unused))
  35:Generated_Source\PSoC5/cyfitter_cfg.c ****     #ifndef CY_CFG_SECTION
  36:Generated_Source\PSoC5/cyfitter_cfg.c ****         #define CY_CFG_SECTION __attribute__ ((section(".psocinit")))
  37:Generated_Source\PSoC5/cyfitter_cfg.c ****     #endif
  38:Generated_Source\PSoC5/cyfitter_cfg.c ****     
  39:Generated_Source\PSoC5/cyfitter_cfg.c ****     #if defined(__ARMCC_VERSION)
  40:Generated_Source\PSoC5/cyfitter_cfg.c ****         #define CY_CFG_MEMORY_BARRIER() __memory_changed()
  41:Generated_Source\PSoC5/cyfitter_cfg.c ****     #else
  42:Generated_Source\PSoC5/cyfitter_cfg.c ****         #define CY_CFG_MEMORY_BARRIER() __sync_synchronize()
  43:Generated_Source\PSoC5/cyfitter_cfg.c ****     #endif
  44:Generated_Source\PSoC5/cyfitter_cfg.c ****     
  45:Generated_Source\PSoC5/cyfitter_cfg.c **** #elif defined(__ICCARM__)
  46:Generated_Source\PSoC5/cyfitter_cfg.c ****     #include <intrinsics.h>
  47:Generated_Source\PSoC5/cyfitter_cfg.c **** 
  48:Generated_Source\PSoC5/cyfitter_cfg.c ****     #define CYPACKED __packed
  49:Generated_Source\PSoC5/cyfitter_cfg.c ****     #define CYPACKED_ATTR 
  50:Generated_Source\PSoC5/cyfitter_cfg.c ****     #define CYALIGNED _Pragma("data_alignment=4")
  51:Generated_Source\PSoC5/cyfitter_cfg.c ****     #define CY_CFG_UNUSED _Pragma("diag_suppress=Pe177")
  52:Generated_Source\PSoC5/cyfitter_cfg.c ****     #define CY_CFG_SECTION _Pragma("location=\".psocinit\"")
  53:Generated_Source\PSoC5/cyfitter_cfg.c ****     
  54:Generated_Source\PSoC5/cyfitter_cfg.c ****     #define CY_CFG_MEMORY_BARRIER() __DMB()
  55:Generated_Source\PSoC5/cyfitter_cfg.c ****     
  56:Generated_Source\PSoC5/cyfitter_cfg.c **** #else
  57:Generated_Source\PSoC5/cyfitter_cfg.c ****     #error Unsupported toolchain
  58:Generated_Source\PSoC5/cyfitter_cfg.c **** #endif
  59:Generated_Source\PSoC5/cyfitter_cfg.c **** 
  60:Generated_Source\PSoC5/cyfitter_cfg.c **** #ifndef CYCODE
  61:Generated_Source\PSoC5/cyfitter_cfg.c ****     #define CYCODE
  62:Generated_Source\PSoC5/cyfitter_cfg.c **** #endif
  63:Generated_Source\PSoC5/cyfitter_cfg.c **** #ifndef CYDATA
  64:Generated_Source\PSoC5/cyfitter_cfg.c ****     #define CYDATA
  65:Generated_Source\PSoC5/cyfitter_cfg.c **** #endif
  66:Generated_Source\PSoC5/cyfitter_cfg.c **** #ifndef CYFAR
  67:Generated_Source\PSoC5/cyfitter_cfg.c ****     #define CYFAR
  68:Generated_Source\PSoC5/cyfitter_cfg.c **** #endif
  69:Generated_Source\PSoC5/cyfitter_cfg.c **** #ifndef CYXDATA
  70:Generated_Source\PSoC5/cyfitter_cfg.c ****     #define CYXDATA
  71:Generated_Source\PSoC5/cyfitter_cfg.c **** #endif
  72:Generated_Source\PSoC5/cyfitter_cfg.c **** 
  73:Generated_Source\PSoC5/cyfitter_cfg.c **** 
  74:Generated_Source\PSoC5/cyfitter_cfg.c **** CY_CFG_UNUSED
  75:Generated_Source\PSoC5/cyfitter_cfg.c **** static void CYMEMZERO(void *s, size_t n);
  76:Generated_Source\PSoC5/cyfitter_cfg.c **** CY_CFG_UNUSED
  77:Generated_Source\PSoC5/cyfitter_cfg.c **** static void CYMEMZERO(void *s, size_t n)
  78:Generated_Source\PSoC5/cyfitter_cfg.c **** {
  79:Generated_Source\PSoC5/cyfitter_cfg.c **** 	(void)memset(s, 0, n);
  80:Generated_Source\PSoC5/cyfitter_cfg.c **** }
  81:Generated_Source\PSoC5/cyfitter_cfg.c **** CY_CFG_UNUSED
  82:Generated_Source\PSoC5/cyfitter_cfg.c **** static void CYCONFIGCPY(void *dest, const void *src, size_t n);
  83:Generated_Source\PSoC5/cyfitter_cfg.c **** CY_CFG_UNUSED
  84:Generated_Source\PSoC5/cyfitter_cfg.c **** static void CYCONFIGCPY(void *dest, const void *src, size_t n)
  85:Generated_Source\PSoC5/cyfitter_cfg.c **** {
  86:Generated_Source\PSoC5/cyfitter_cfg.c **** 	(void)memcpy(dest, src, n);
  87:Generated_Source\PSoC5/cyfitter_cfg.c **** }
ARM GAS  C:\Users\legoc\AppData\Local\Temp\ccFRWr2w.s 			page 3


  88:Generated_Source\PSoC5/cyfitter_cfg.c **** CY_CFG_UNUSED
  89:Generated_Source\PSoC5/cyfitter_cfg.c **** static void CYCONFIGCPYCODE(void *dest, const void *src, size_t n);
  90:Generated_Source\PSoC5/cyfitter_cfg.c **** CY_CFG_UNUSED
  91:Generated_Source\PSoC5/cyfitter_cfg.c **** static void CYCONFIGCPYCODE(void *dest, const void *src, size_t n)
  92:Generated_Source\PSoC5/cyfitter_cfg.c **** {
  93:Generated_Source\PSoC5/cyfitter_cfg.c **** 	(void)memcpy(dest, src, n);
  94:Generated_Source\PSoC5/cyfitter_cfg.c **** }
  95:Generated_Source\PSoC5/cyfitter_cfg.c **** 
  96:Generated_Source\PSoC5/cyfitter_cfg.c **** 
  97:Generated_Source\PSoC5/cyfitter_cfg.c **** 
  98:Generated_Source\PSoC5/cyfitter_cfg.c **** 
  99:Generated_Source\PSoC5/cyfitter_cfg.c **** /* Clock startup error codes                                                   */
 100:Generated_Source\PSoC5/cyfitter_cfg.c **** #define CYCLOCKSTART_NO_ERROR    0u
 101:Generated_Source\PSoC5/cyfitter_cfg.c **** #define CYCLOCKSTART_XTAL_ERROR  1u
 102:Generated_Source\PSoC5/cyfitter_cfg.c **** #define CYCLOCKSTART_32KHZ_ERROR 2u
 103:Generated_Source\PSoC5/cyfitter_cfg.c **** #define CYCLOCKSTART_PLL_ERROR   3u
 104:Generated_Source\PSoC5/cyfitter_cfg.c **** #define CYCLOCKSTART_FLL_ERROR   4u
 105:Generated_Source\PSoC5/cyfitter_cfg.c **** #define CYCLOCKSTART_WCO_ERROR   5u
 106:Generated_Source\PSoC5/cyfitter_cfg.c **** 
 107:Generated_Source\PSoC5/cyfitter_cfg.c **** 
 108:Generated_Source\PSoC5/cyfitter_cfg.c **** #ifdef CY_NEED_CYCLOCKSTARTUPERROR
 109:Generated_Source\PSoC5/cyfitter_cfg.c **** /*******************************************************************************
 110:Generated_Source\PSoC5/cyfitter_cfg.c **** * Function Name: CyClockStartupError
 111:Generated_Source\PSoC5/cyfitter_cfg.c **** ********************************************************************************
 112:Generated_Source\PSoC5/cyfitter_cfg.c **** * Summary:
 113:Generated_Source\PSoC5/cyfitter_cfg.c **** *  If an error is encountered during clock configuration (crystal startup error,
 114:Generated_Source\PSoC5/cyfitter_cfg.c **** *  PLL lock error, etc.), the system will end up here.  Unless reimplemented by
 115:Generated_Source\PSoC5/cyfitter_cfg.c **** *  the customer, this function will stop in an infinite loop.
 116:Generated_Source\PSoC5/cyfitter_cfg.c **** *
 117:Generated_Source\PSoC5/cyfitter_cfg.c **** * Parameters:
 118:Generated_Source\PSoC5/cyfitter_cfg.c **** *   void
 119:Generated_Source\PSoC5/cyfitter_cfg.c **** *
 120:Generated_Source\PSoC5/cyfitter_cfg.c **** * Return:
 121:Generated_Source\PSoC5/cyfitter_cfg.c **** *   void
 122:Generated_Source\PSoC5/cyfitter_cfg.c **** *
 123:Generated_Source\PSoC5/cyfitter_cfg.c **** *******************************************************************************/
 124:Generated_Source\PSoC5/cyfitter_cfg.c **** CY_CFG_UNUSED
 125:Generated_Source\PSoC5/cyfitter_cfg.c **** static void CyClockStartupError(uint8 errorCode);
 126:Generated_Source\PSoC5/cyfitter_cfg.c **** CY_CFG_UNUSED
 127:Generated_Source\PSoC5/cyfitter_cfg.c **** static void CyClockStartupError(uint8 errorCode)
 128:Generated_Source\PSoC5/cyfitter_cfg.c **** {
 129:Generated_Source\PSoC5/cyfitter_cfg.c ****     /* To remove the compiler warning if errorCode not used.                */
 130:Generated_Source\PSoC5/cyfitter_cfg.c ****     errorCode = errorCode;
 131:Generated_Source\PSoC5/cyfitter_cfg.c **** 
 132:Generated_Source\PSoC5/cyfitter_cfg.c ****     /* If we have a clock startup error (bad MHz crystal, PLL lock, etc.),  */
 133:Generated_Source\PSoC5/cyfitter_cfg.c ****     /* we will end up here to allow the customer to implement something to  */
 134:Generated_Source\PSoC5/cyfitter_cfg.c ****     /* deal with the clock condition.                                       */
 135:Generated_Source\PSoC5/cyfitter_cfg.c **** 
 136:Generated_Source\PSoC5/cyfitter_cfg.c **** #ifdef CY_CFG_CLOCK_STARTUP_ERROR_CALLBACK
 137:Generated_Source\PSoC5/cyfitter_cfg.c ****     CY_CFG_Clock_Startup_ErrorCallback();
 138:Generated_Source\PSoC5/cyfitter_cfg.c **** #else
 139:Generated_Source\PSoC5/cyfitter_cfg.c ****     /*  If not using CY_CFG_CLOCK_STARTUP_ERROR_CALLBACK, place your clock startup code here. */
 140:Generated_Source\PSoC5/cyfitter_cfg.c ****     /* `#START CyClockStartupError` */
 141:Generated_Source\PSoC5/cyfitter_cfg.c **** 
 142:Generated_Source\PSoC5/cyfitter_cfg.c **** 
 143:Generated_Source\PSoC5/cyfitter_cfg.c **** 
 144:Generated_Source\PSoC5/cyfitter_cfg.c ****     /* `#END` */
ARM GAS  C:\Users\legoc\AppData\Local\Temp\ccFRWr2w.s 			page 4


 145:Generated_Source\PSoC5/cyfitter_cfg.c **** 
 146:Generated_Source\PSoC5/cyfitter_cfg.c ****     while(1) {}
 147:Generated_Source\PSoC5/cyfitter_cfg.c **** #endif /* CY_CFG_CLOCK_STARTUP_ERROR_CALLBACK */
 148:Generated_Source\PSoC5/cyfitter_cfg.c **** }
 149:Generated_Source\PSoC5/cyfitter_cfg.c **** #endif
 150:Generated_Source\PSoC5/cyfitter_cfg.c **** 
 151:Generated_Source\PSoC5/cyfitter_cfg.c **** #define CY_CFG_BASE_ADDR_COUNT 21u
 152:Generated_Source\PSoC5/cyfitter_cfg.c **** CYPACKED typedef struct
 153:Generated_Source\PSoC5/cyfitter_cfg.c **** {
 154:Generated_Source\PSoC5/cyfitter_cfg.c **** 	uint8 offset;
 155:Generated_Source\PSoC5/cyfitter_cfg.c **** 	uint8 value;
 156:Generated_Source\PSoC5/cyfitter_cfg.c **** } CYPACKED_ATTR cy_cfg_addrvalue_t;
 157:Generated_Source\PSoC5/cyfitter_cfg.c **** 
 158:Generated_Source\PSoC5/cyfitter_cfg.c **** #define cy_cfg_addr_table ((const uint32 CYFAR *)0x48000000u)
 159:Generated_Source\PSoC5/cyfitter_cfg.c **** #define cy_cfg_data_table ((const cy_cfg_addrvalue_t CYFAR *)0x48000054u)
 160:Generated_Source\PSoC5/cyfitter_cfg.c **** 
 161:Generated_Source\PSoC5/cyfitter_cfg.c **** /* UDB_1_5_1_CONFIG Address: CYDEV_UCFG_B0_P0_U1_BASE Size (bytes): 128 */
 162:Generated_Source\PSoC5/cyfitter_cfg.c **** #define BS_UDB_1_5_1_CONFIG_VAL ((const uint8 CYFAR *)0x48000250u)
 163:Generated_Source\PSoC5/cyfitter_cfg.c **** 
 164:Generated_Source\PSoC5/cyfitter_cfg.c **** /* IOPINS0_0 Address: CYREG_PRT0_DM0 Size (bytes): 8 */
 165:Generated_Source\PSoC5/cyfitter_cfg.c **** #define BS_IOPINS0_0_VAL ((const uint8 CYFAR *)0x480002D0u)
 166:Generated_Source\PSoC5/cyfitter_cfg.c **** 
 167:Generated_Source\PSoC5/cyfitter_cfg.c **** /* IOPINS0_8 Address: CYREG_PRT15_DM0 Size (bytes): 8 */
 168:Generated_Source\PSoC5/cyfitter_cfg.c **** #define BS_IOPINS0_8_VAL ((const uint8 CYFAR *)0x480002D8u)
 169:Generated_Source\PSoC5/cyfitter_cfg.c **** 
 170:Generated_Source\PSoC5/cyfitter_cfg.c **** /* IOPINS0_1 Address: CYREG_PRT1_DM0 Size (bytes): 8 */
 171:Generated_Source\PSoC5/cyfitter_cfg.c **** #define BS_IOPINS0_1_VAL ((const uint8 CYFAR *)0x480002E0u)
 172:Generated_Source\PSoC5/cyfitter_cfg.c **** 
 173:Generated_Source\PSoC5/cyfitter_cfg.c **** /* IOPINS0_3 Address: CYREG_PRT3_DM0 Size (bytes): 8 */
 174:Generated_Source\PSoC5/cyfitter_cfg.c **** #define BS_IOPINS0_3_VAL ((const uint8 CYFAR *)0x480002E8u)
 175:Generated_Source\PSoC5/cyfitter_cfg.c **** 
 176:Generated_Source\PSoC5/cyfitter_cfg.c **** /* CYDEV_CLKDIST_ACFG0_CFG0 Address: CYREG_CLKDIST_ACFG0_CFG0 Size (bytes): 4 */
 177:Generated_Source\PSoC5/cyfitter_cfg.c **** #define BS_CYDEV_CLKDIST_ACFG0_CFG0_VAL ((const uint8 CYFAR *)0x480002F0u)
 178:Generated_Source\PSoC5/cyfitter_cfg.c **** 
 179:Generated_Source\PSoC5/cyfitter_cfg.c **** 
 180:Generated_Source\PSoC5/cyfitter_cfg.c **** /*******************************************************************************
 181:Generated_Source\PSoC5/cyfitter_cfg.c **** * Function Name: cfg_write_bytes32
 182:Generated_Source\PSoC5/cyfitter_cfg.c **** ********************************************************************************
 183:Generated_Source\PSoC5/cyfitter_cfg.c **** * Summary:
 184:Generated_Source\PSoC5/cyfitter_cfg.c **** *  This function is used for setting up the chip configuration areas that
 185:Generated_Source\PSoC5/cyfitter_cfg.c **** *  contain relatively sparse data.
 186:Generated_Source\PSoC5/cyfitter_cfg.c **** *
 187:Generated_Source\PSoC5/cyfitter_cfg.c **** * Parameters:
 188:Generated_Source\PSoC5/cyfitter_cfg.c **** *   void
 189:Generated_Source\PSoC5/cyfitter_cfg.c **** *
 190:Generated_Source\PSoC5/cyfitter_cfg.c **** * Return:
 191:Generated_Source\PSoC5/cyfitter_cfg.c **** *   void
 192:Generated_Source\PSoC5/cyfitter_cfg.c **** *
 193:Generated_Source\PSoC5/cyfitter_cfg.c **** *******************************************************************************/
 194:Generated_Source\PSoC5/cyfitter_cfg.c **** static void cfg_write_bytes32(const uint32 addr_table[], const cy_cfg_addrvalue_t data_table[]);
 195:Generated_Source\PSoC5/cyfitter_cfg.c **** static void cfg_write_bytes32(const uint32 addr_table[], const cy_cfg_addrvalue_t data_table[])
 196:Generated_Source\PSoC5/cyfitter_cfg.c **** {
 197:Generated_Source\PSoC5/cyfitter_cfg.c **** 	/* For 32-bit little-endian architectures */
 198:Generated_Source\PSoC5/cyfitter_cfg.c **** 	uint32 i, j = 0u;
 199:Generated_Source\PSoC5/cyfitter_cfg.c **** 	for (i = 0u; i < CY_CFG_BASE_ADDR_COUNT; i++)
 200:Generated_Source\PSoC5/cyfitter_cfg.c **** 	{
 201:Generated_Source\PSoC5/cyfitter_cfg.c **** 		uint32 baseAddr = addr_table[i];
ARM GAS  C:\Users\legoc\AppData\Local\Temp\ccFRWr2w.s 			page 5


 202:Generated_Source\PSoC5/cyfitter_cfg.c **** 		uint8 count = (uint8)baseAddr;
 203:Generated_Source\PSoC5/cyfitter_cfg.c **** 		baseAddr &= 0xFFFFFF00u;
 204:Generated_Source\PSoC5/cyfitter_cfg.c **** 		while (count != 0u)
 205:Generated_Source\PSoC5/cyfitter_cfg.c **** 		{
 206:Generated_Source\PSoC5/cyfitter_cfg.c **** 			CY_SET_REG8((void *)(baseAddr + data_table[j].offset), data_table[j].value);
 207:Generated_Source\PSoC5/cyfitter_cfg.c **** 			j++;
 208:Generated_Source\PSoC5/cyfitter_cfg.c **** 			count--;
 209:Generated_Source\PSoC5/cyfitter_cfg.c **** 		}
 210:Generated_Source\PSoC5/cyfitter_cfg.c **** 	}
 211:Generated_Source\PSoC5/cyfitter_cfg.c **** }
 212:Generated_Source\PSoC5/cyfitter_cfg.c **** 
 213:Generated_Source\PSoC5/cyfitter_cfg.c **** /*******************************************************************************
 214:Generated_Source\PSoC5/cyfitter_cfg.c **** * Function Name: ClockSetup
 215:Generated_Source\PSoC5/cyfitter_cfg.c **** ********************************************************************************
 216:Generated_Source\PSoC5/cyfitter_cfg.c **** *
 217:Generated_Source\PSoC5/cyfitter_cfg.c **** * Summary:
 218:Generated_Source\PSoC5/cyfitter_cfg.c **** *  Performs the initialization of all of the clocks in the device based on the
 219:Generated_Source\PSoC5/cyfitter_cfg.c **** *  settings in the Clock tab of the DWR.  This includes enabling the requested
 220:Generated_Source\PSoC5/cyfitter_cfg.c **** *  clocks and setting the necessary dividers to produce the desired frequency. 
 221:Generated_Source\PSoC5/cyfitter_cfg.c **** *
 222:Generated_Source\PSoC5/cyfitter_cfg.c **** * Parameters:
 223:Generated_Source\PSoC5/cyfitter_cfg.c **** *  void
 224:Generated_Source\PSoC5/cyfitter_cfg.c **** *
 225:Generated_Source\PSoC5/cyfitter_cfg.c **** * Return:
 226:Generated_Source\PSoC5/cyfitter_cfg.c **** *  void
 227:Generated_Source\PSoC5/cyfitter_cfg.c **** *
 228:Generated_Source\PSoC5/cyfitter_cfg.c **** *******************************************************************************/
 229:Generated_Source\PSoC5/cyfitter_cfg.c **** static void ClockSetup(void);
 230:Generated_Source\PSoC5/cyfitter_cfg.c **** static void ClockSetup(void)
 231:Generated_Source\PSoC5/cyfitter_cfg.c **** {
 232:Generated_Source\PSoC5/cyfitter_cfg.c **** 	uint32 timeout;
 233:Generated_Source\PSoC5/cyfitter_cfg.c **** 	uint8 pllLock;
 234:Generated_Source\PSoC5/cyfitter_cfg.c **** 
 235:Generated_Source\PSoC5/cyfitter_cfg.c **** 
 236:Generated_Source\PSoC5/cyfitter_cfg.c **** 	/* Configure Digital Clocks based on settings from Clock DWR */
 237:Generated_Source\PSoC5/cyfitter_cfg.c **** 	CY_SET_XTND_REG16((void CYFAR *)(CYREG_CLKDIST_DCFG0_CFG0), 0x0001u);
 238:Generated_Source\PSoC5/cyfitter_cfg.c **** 	CY_SET_XTND_REG8((void CYFAR *)(CYREG_CLKDIST_DCFG0_CFG0 + 0x2u), 0x1Cu);
 239:Generated_Source\PSoC5/cyfitter_cfg.c **** 
 240:Generated_Source\PSoC5/cyfitter_cfg.c **** 	/* Configure Analog Clocks based on settings from Clock DWR */
 241:Generated_Source\PSoC5/cyfitter_cfg.c **** 	CYCONFIGCPY((void CYFAR *)(CYREG_CLKDIST_ACFG0_CFG0), (const void CYFAR *)(BS_CYDEV_CLKDIST_ACFG0_
 242:Generated_Source\PSoC5/cyfitter_cfg.c **** 
 243:Generated_Source\PSoC5/cyfitter_cfg.c **** 	/* Configure ILO based on settings from Clock DWR */
 244:Generated_Source\PSoC5/cyfitter_cfg.c **** 	CY_SET_XTND_REG8((void CYFAR *)(CYREG_SLOWCLK_ILO_CR0), 0x02u);
 245:Generated_Source\PSoC5/cyfitter_cfg.c **** 	CY_SET_XTND_REG8((void CYFAR *)(CYREG_CLKDIST_CR), 0x08u);
 246:Generated_Source\PSoC5/cyfitter_cfg.c **** 
 247:Generated_Source\PSoC5/cyfitter_cfg.c **** 	/* Configure IMO based on settings from Clock DWR */
 248:Generated_Source\PSoC5/cyfitter_cfg.c **** 	CY_SET_XTND_REG8((void CYFAR *)(CYREG_FASTCLK_IMO_CR), 0x03u);
 249:Generated_Source\PSoC5/cyfitter_cfg.c **** 	CY_SET_XTND_REG8((void CYFAR *)(CYREG_IMO_TR1), (CY_GET_XTND_REG8((void CYFAR *)CYREG_FLSHID_CUST_
 250:Generated_Source\PSoC5/cyfitter_cfg.c **** 
 251:Generated_Source\PSoC5/cyfitter_cfg.c **** 	/* Configure PLL based on settings from Clock DWR */
 252:Generated_Source\PSoC5/cyfitter_cfg.c **** 	CY_SET_XTND_REG16((void CYFAR *)(CYREG_FASTCLK_PLL_P), 0x0008u);
 253:Generated_Source\PSoC5/cyfitter_cfg.c **** 	CY_SET_XTND_REG16((void CYFAR *)(CYREG_FASTCLK_PLL_CFG0), 0x1251u);
 254:Generated_Source\PSoC5/cyfitter_cfg.c **** 	/* Wait up to 250us for the PLL to lock */
 255:Generated_Source\PSoC5/cyfitter_cfg.c **** 	pllLock = 0u;
 256:Generated_Source\PSoC5/cyfitter_cfg.c **** 	for (timeout = 250u / 10u; (timeout > 0u) && (pllLock != 0x03u); timeout--)
 257:Generated_Source\PSoC5/cyfitter_cfg.c **** 	{ 
 258:Generated_Source\PSoC5/cyfitter_cfg.c **** 		pllLock = 0x03u & ((uint8)((uint8)pllLock << 1) | ((CY_GET_XTND_REG8((void CYFAR *)CYREG_FASTCLK_
ARM GAS  C:\Users\legoc\AppData\Local\Temp\ccFRWr2w.s 			page 6


 259:Generated_Source\PSoC5/cyfitter_cfg.c **** 		CyDelayCycles(10u * 48u); /* Delay 10us based on 48MHz clock */
 260:Generated_Source\PSoC5/cyfitter_cfg.c **** 	}
 261:Generated_Source\PSoC5/cyfitter_cfg.c **** 	/* If we ran out of time the PLL didn't lock so go to the error function */
 262:Generated_Source\PSoC5/cyfitter_cfg.c **** 	if (timeout == 0u)
 263:Generated_Source\PSoC5/cyfitter_cfg.c **** 	{
 264:Generated_Source\PSoC5/cyfitter_cfg.c **** 		CyClockStartupError(CYCLOCKSTART_PLL_ERROR);
 265:Generated_Source\PSoC5/cyfitter_cfg.c **** 	}
 266:Generated_Source\PSoC5/cyfitter_cfg.c **** 
 267:Generated_Source\PSoC5/cyfitter_cfg.c **** 	/* Configure Bus/Master Clock based on settings from Clock DWR */
 268:Generated_Source\PSoC5/cyfitter_cfg.c **** 	CY_SET_XTND_REG16((void CYFAR *)(CYREG_CLKDIST_MSTR0), 0x0100u);
 269:Generated_Source\PSoC5/cyfitter_cfg.c **** 	CY_SET_XTND_REG8((void CYFAR *)(CYREG_CLKDIST_MSTR0), 0x07u);
 270:Generated_Source\PSoC5/cyfitter_cfg.c **** 	CY_SET_XTND_REG8((void CYFAR *)(CYREG_CLKDIST_BCFG0), 0x00u);
 271:Generated_Source\PSoC5/cyfitter_cfg.c **** 	CY_SET_XTND_REG8((void CYFAR *)(CYREG_CLKDIST_BCFG2), 0x48u);
 272:Generated_Source\PSoC5/cyfitter_cfg.c **** 	CY_SET_XTND_REG8((void CYFAR *)(CYREG_CLKDIST_MSTR0), 0x00u);
 273:Generated_Source\PSoC5/cyfitter_cfg.c **** 	CY_SET_XTND_REG8((void CYFAR *)(CYREG_CLKDIST_LD), 0x02u);
 274:Generated_Source\PSoC5/cyfitter_cfg.c **** 	CY_SET_XTND_REG8((void CYFAR *)(CYREG_CLKDIST_DLY1), 0x04u);
 275:Generated_Source\PSoC5/cyfitter_cfg.c **** 
 276:Generated_Source\PSoC5/cyfitter_cfg.c **** 	CY_SET_XTND_REG8((void CYFAR *)(CYREG_PM_ACT_CFG2), ((CY_GET_XTND_REG8((void CYFAR *)CYREG_PM_ACT_
 277:Generated_Source\PSoC5/cyfitter_cfg.c **** 	CY_SET_XTND_REG8((void CYFAR *)(CYREG_PM_ACT_CFG1), ((CY_GET_XTND_REG8((void CYFAR *)CYREG_PM_ACT_
 278:Generated_Source\PSoC5/cyfitter_cfg.c **** 	CY_SET_XTND_REG8((void CYFAR *)(CYREG_PM_ACT_CFG0), ((CY_GET_XTND_REG8((void CYFAR *)CYREG_PM_ACT_
 279:Generated_Source\PSoC5/cyfitter_cfg.c **** }
 280:Generated_Source\PSoC5/cyfitter_cfg.c **** 
 281:Generated_Source\PSoC5/cyfitter_cfg.c **** 
 282:Generated_Source\PSoC5/cyfitter_cfg.c **** /* Analog API Functions */
 283:Generated_Source\PSoC5/cyfitter_cfg.c **** 
 284:Generated_Source\PSoC5/cyfitter_cfg.c **** 
 285:Generated_Source\PSoC5/cyfitter_cfg.c **** /*******************************************************************************
 286:Generated_Source\PSoC5/cyfitter_cfg.c **** * Function Name: AnalogSetDefault
 287:Generated_Source\PSoC5/cyfitter_cfg.c **** ********************************************************************************
 288:Generated_Source\PSoC5/cyfitter_cfg.c **** *
 289:Generated_Source\PSoC5/cyfitter_cfg.c **** * Summary:
 290:Generated_Source\PSoC5/cyfitter_cfg.c **** *  Sets up the analog portions of the chip to default values based on chip
 291:Generated_Source\PSoC5/cyfitter_cfg.c **** *  configuration options from the project.
 292:Generated_Source\PSoC5/cyfitter_cfg.c **** *
 293:Generated_Source\PSoC5/cyfitter_cfg.c **** * Parameters:
 294:Generated_Source\PSoC5/cyfitter_cfg.c **** *  void
 295:Generated_Source\PSoC5/cyfitter_cfg.c **** *
 296:Generated_Source\PSoC5/cyfitter_cfg.c **** * Return:
 297:Generated_Source\PSoC5/cyfitter_cfg.c **** *  void
 298:Generated_Source\PSoC5/cyfitter_cfg.c **** *
 299:Generated_Source\PSoC5/cyfitter_cfg.c **** *******************************************************************************/
 300:Generated_Source\PSoC5/cyfitter_cfg.c **** static void AnalogSetDefault(void);
 301:Generated_Source\PSoC5/cyfitter_cfg.c **** static void AnalogSetDefault(void)
 302:Generated_Source\PSoC5/cyfitter_cfg.c **** {
 303:Generated_Source\PSoC5/cyfitter_cfg.c **** 	uint8 bg_xover_inl_trim = CY_GET_XTND_REG8((void CYFAR *)(CYREG_FLSHID_MFG_CFG_BG_XOVER_INL_TRIM +
 304:Generated_Source\PSoC5/cyfitter_cfg.c **** 	uint8 cr4 = CY_GET_XTND_REG8((void CYFAR *)(CYREG_RESET_CR4));
 305:Generated_Source\PSoC5/cyfitter_cfg.c **** 	uint8 cr5 = CY_GET_XTND_REG8((void CYFAR *)(CYREG_RESET_CR5));
 306:Generated_Source\PSoC5/cyfitter_cfg.c **** 	CY_SET_XTND_REG8((void CYFAR *)(CYREG_BG_DFT0), (bg_xover_inl_trim & 0x07u));
 307:Generated_Source\PSoC5/cyfitter_cfg.c **** 	CY_SET_XTND_REG8((void CYFAR *)(CYREG_BG_DFT1), ((bg_xover_inl_trim >> 4) & 0x0Fu));
 308:Generated_Source\PSoC5/cyfitter_cfg.c **** 	/* Disable PRES while setting up SAR voltage reference */
 309:Generated_Source\PSoC5/cyfitter_cfg.c **** 	CY_SET_XTND_REG8((void CYFAR *)(CYREG_RESET_CR4), (cr4 | 0x03u));
 310:Generated_Source\PSoC5/cyfitter_cfg.c **** 	CY_SET_XTND_REG8((void CYFAR *)(CYREG_RESET_CR5), (cr5 | 0x03u));
 311:Generated_Source\PSoC5/cyfitter_cfg.c **** 	CY_SET_XTND_REG8((void CYFAR *)CYREG_PRT3_AG, 0x38u);
 312:Generated_Source\PSoC5/cyfitter_cfg.c **** 	CY_SET_XTND_REG8((void CYFAR *)CYREG_SAR1_CSR1, 0x80u);
 313:Generated_Source\PSoC5/cyfitter_cfg.c **** 	CY_SET_XTND_REG8((void CYFAR *)CYREG_DAC2_SW0, 0x10u);
 314:Generated_Source\PSoC5/cyfitter_cfg.c **** 	CY_SET_XTND_REG8((void CYFAR *)CYREG_DAC3_SW0, 0x20u);
 315:Generated_Source\PSoC5/cyfitter_cfg.c **** 	CY_SET_XTND_REG8((void CYFAR *)CYREG_SAR1_SW0, 0x80u);
ARM GAS  C:\Users\legoc\AppData\Local\Temp\ccFRWr2w.s 			page 7


 316:Generated_Source\PSoC5/cyfitter_cfg.c **** 	CY_SET_XTND_REG8((void CYFAR *)CYREG_SAR1_SW3, 0x20u);
 317:Generated_Source\PSoC5/cyfitter_cfg.c **** 	CY_SET_XTND_REG8((void CYFAR *)CYREG_BUS_SW0, 0x10u);
 318:Generated_Source\PSoC5/cyfitter_cfg.c **** 	CyDelayUs(10u); /* Allow vref to settle before re-enabling PRES */
 319:Generated_Source\PSoC5/cyfitter_cfg.c **** 	CY_SET_XTND_REG8((void CYFAR *)(CYREG_RESET_CR5), (cr5));
 320:Generated_Source\PSoC5/cyfitter_cfg.c **** 	CY_SET_XTND_REG8((void CYFAR *)(CYREG_RESET_CR4), (cr4));
 321:Generated_Source\PSoC5/cyfitter_cfg.c **** 	CY_SET_XTND_REG8((void CYFAR *)CYREG_PUMP_CR0, 0x44u);
 322:Generated_Source\PSoC5/cyfitter_cfg.c **** }
 323:Generated_Source\PSoC5/cyfitter_cfg.c **** 
 324:Generated_Source\PSoC5/cyfitter_cfg.c **** 
 325:Generated_Source\PSoC5/cyfitter_cfg.c **** /*******************************************************************************
 326:Generated_Source\PSoC5/cyfitter_cfg.c **** * Function Name: SetAnalogRoutingPumps
 327:Generated_Source\PSoC5/cyfitter_cfg.c **** ********************************************************************************
 328:Generated_Source\PSoC5/cyfitter_cfg.c **** *
 329:Generated_Source\PSoC5/cyfitter_cfg.c **** * Summary:
 330:Generated_Source\PSoC5/cyfitter_cfg.c **** * Enables or disables the analog pumps feeding analog routing switches.
 331:Generated_Source\PSoC5/cyfitter_cfg.c **** * Intended to be called at startup, based on the Vdda system configuration;
 332:Generated_Source\PSoC5/cyfitter_cfg.c **** * may be called during operation when the user informs us that the Vdda voltage
 333:Generated_Source\PSoC5/cyfitter_cfg.c **** * crossed the pump threshold.
 334:Generated_Source\PSoC5/cyfitter_cfg.c **** *
 335:Generated_Source\PSoC5/cyfitter_cfg.c **** * Parameters:
 336:Generated_Source\PSoC5/cyfitter_cfg.c **** *  enabled - 1 to enable the pumps, 0 to disable the pumps
 337:Generated_Source\PSoC5/cyfitter_cfg.c **** *
 338:Generated_Source\PSoC5/cyfitter_cfg.c **** * Return:
 339:Generated_Source\PSoC5/cyfitter_cfg.c **** *  void
 340:Generated_Source\PSoC5/cyfitter_cfg.c **** *
 341:Generated_Source\PSoC5/cyfitter_cfg.c **** *******************************************************************************/
 342:Generated_Source\PSoC5/cyfitter_cfg.c **** void SetAnalogRoutingPumps(uint8 enabled)
 343:Generated_Source\PSoC5/cyfitter_cfg.c **** {
  28              		.loc 1 343 0
  29              		.cfi_startproc
  30              		@ args = 0, pretend = 0, frame = 0
  31              		@ frame_needed = 0, uses_anonymous_args = 0
  32              		@ link register save eliminated.
  33              	.LVL0:
 344:Generated_Source\PSoC5/cyfitter_cfg.c **** 	uint8 regValue = CY_GET_XTND_REG8((void CYFAR *)CYREG_PUMP_CR0);
  34              		.loc 1 344 0
  35 0000 064B     		ldr	r3, .L6
  36 0002 1B78     		ldrb	r3, [r3]	@ zero_extendqisi2
  37 0004 DBB2     		uxtb	r3, r3
  38              	.LVL1:
 345:Generated_Source\PSoC5/cyfitter_cfg.c **** 	if (enabled != 0u)
  39              		.loc 1 345 0
  40 0006 20B9     		cbnz	r0, .L5
 346:Generated_Source\PSoC5/cyfitter_cfg.c **** 	{
 347:Generated_Source\PSoC5/cyfitter_cfg.c **** 		regValue |= 0x22u;
 348:Generated_Source\PSoC5/cyfitter_cfg.c **** 	}
 349:Generated_Source\PSoC5/cyfitter_cfg.c **** 	else
 350:Generated_Source\PSoC5/cyfitter_cfg.c **** 	{
 351:Generated_Source\PSoC5/cyfitter_cfg.c **** 		regValue &= (uint8)~0x22u;
 352:Generated_Source\PSoC5/cyfitter_cfg.c **** 	}
 353:Generated_Source\PSoC5/cyfitter_cfg.c **** 	CY_SET_XTND_REG8((void CYFAR *)CYREG_PUMP_CR0, regValue);
  41              		.loc 1 353 0
  42 0008 044A     		ldr	r2, .L6
 351:Generated_Source\PSoC5/cyfitter_cfg.c **** 	}
  43              		.loc 1 351 0
  44 000a 03F0DD03 		and	r3, r3, #221
  45              	.LVL2:
ARM GAS  C:\Users\legoc\AppData\Local\Temp\ccFRWr2w.s 			page 8


  46              		.loc 1 353 0
  47 000e 1370     		strb	r3, [r2]
  48 0010 7047     		bx	lr
  49              	.L5:
  50 0012 024A     		ldr	r2, .L6
 347:Generated_Source\PSoC5/cyfitter_cfg.c **** 	}
  51              		.loc 1 347 0
  52 0014 43F02203 		orr	r3, r3, #34
  53              	.LVL3:
  54              		.loc 1 353 0
  55 0018 1370     		strb	r3, [r2]
  56 001a 7047     		bx	lr
  57              	.L7:
  58              		.align	2
  59              	.L6:
  60 001c 76580040 		.word	1073764470
  61              		.cfi_endproc
  62              	.LFE7:
  63              		.size	SetAnalogRoutingPumps, .-SetAnalogRoutingPumps
  64              		.section	.text.cyfitter_cfg,"ax",%progbits
  65              		.align	2
  66              		.global	cyfitter_cfg
  67              		.thumb
  68              		.thumb_func
  69              		.type	cyfitter_cfg, %function
  70              	cyfitter_cfg:
  71              	.LFB8:
 354:Generated_Source\PSoC5/cyfitter_cfg.c **** }
 355:Generated_Source\PSoC5/cyfitter_cfg.c **** 
 356:Generated_Source\PSoC5/cyfitter_cfg.c **** 
 357:Generated_Source\PSoC5/cyfitter_cfg.c **** 
 358:Generated_Source\PSoC5/cyfitter_cfg.c **** 
 359:Generated_Source\PSoC5/cyfitter_cfg.c **** /*******************************************************************************
 360:Generated_Source\PSoC5/cyfitter_cfg.c **** * Function Name: cyfitter_cfg
 361:Generated_Source\PSoC5/cyfitter_cfg.c **** ********************************************************************************
 362:Generated_Source\PSoC5/cyfitter_cfg.c **** * Summary:
 363:Generated_Source\PSoC5/cyfitter_cfg.c **** *  This function is called by the start-up code for the selected device. It
 364:Generated_Source\PSoC5/cyfitter_cfg.c **** *  performs all of the necessary device configuration based on the design
 365:Generated_Source\PSoC5/cyfitter_cfg.c **** *  settings.  This includes settings from the Design Wide Resources (DWR) such
 366:Generated_Source\PSoC5/cyfitter_cfg.c **** *  as Clocks and Pins as well as any component configuration that is necessary.
 367:Generated_Source\PSoC5/cyfitter_cfg.c **** *
 368:Generated_Source\PSoC5/cyfitter_cfg.c **** * Parameters:
 369:Generated_Source\PSoC5/cyfitter_cfg.c **** *   void
 370:Generated_Source\PSoC5/cyfitter_cfg.c **** *
 371:Generated_Source\PSoC5/cyfitter_cfg.c **** * Return:
 372:Generated_Source\PSoC5/cyfitter_cfg.c **** *   void
 373:Generated_Source\PSoC5/cyfitter_cfg.c **** *
 374:Generated_Source\PSoC5/cyfitter_cfg.c **** *******************************************************************************/
 375:Generated_Source\PSoC5/cyfitter_cfg.c **** 
 376:Generated_Source\PSoC5/cyfitter_cfg.c **** void cyfitter_cfg(void)
 377:Generated_Source\PSoC5/cyfitter_cfg.c **** {
  72              		.loc 1 377 0
  73              		.cfi_startproc
  74              		@ args = 0, pretend = 0, frame = 0
  75              		@ frame_needed = 0, uses_anonymous_args = 0
  76 0000 2DE9F041 		push	{r4, r5, r6, r7, r8, lr}
  77              		.cfi_def_cfa_offset 24
ARM GAS  C:\Users\legoc\AppData\Local\Temp\ccFRWr2w.s 			page 9


  78              		.cfi_offset 4, -24
  79              		.cfi_offset 5, -20
  80              		.cfi_offset 6, -16
  81              		.cfi_offset 7, -12
  82              		.cfi_offset 8, -8
  83              		.cfi_offset 14, -4
 378:Generated_Source\PSoC5/cyfitter_cfg.c **** #ifdef CYGlobalIntDisable
 379:Generated_Source\PSoC5/cyfitter_cfg.c **** 	/* Disable interrupts by default. Let user enable if/when they want. */
 380:Generated_Source\PSoC5/cyfitter_cfg.c **** 	CYGlobalIntDisable
  84              		.loc 1 380 0
  85              		.syntax unified
  86              	@ 380 "Generated_Source\PSoC5\cyfitter_cfg.c" 1
  87 0004 72B6     		CPSID   i
  88              	@ 0 "" 2
  89              		.thumb
  90              		.syntax unified
  91 0006 8C4E     		ldr	r6, .L30
 381:Generated_Source\PSoC5/cyfitter_cfg.c **** #endif
 382:Generated_Source\PSoC5/cyfitter_cfg.c **** 
 383:Generated_Source\PSoC5/cyfitter_cfg.c **** 	/* Enable/Disable Debug functionality based on settings from System DWR */
 384:Generated_Source\PSoC5/cyfitter_cfg.c **** 	CY_SET_XTND_REG8((void CYFAR *)CYREG_MLOGIC_DEBUG, (CY_GET_XTND_REG8((void CYFAR *)CYREG_MLOGIC_DE
  92              		.loc 1 384 0
  93 0008 8C4A     		ldr	r2, .L30+4
  94 000a 3546     		mov	r5, r6
  95 000c 1378     		ldrb	r3, [r2]	@ zero_extendqisi2
  96 000e 0024     		movs	r4, #0
  97 0010 43F00403 		orr	r3, r3, #4
  98 0014 1370     		strb	r3, [r2]
  99              	.LVL4:
 100              	.L9:
 101              	.LBB52:
 102              	.LBB53:
 385:Generated_Source\PSoC5/cyfitter_cfg.c **** 
 386:Generated_Source\PSoC5/cyfitter_cfg.c **** 	{
 387:Generated_Source\PSoC5/cyfitter_cfg.c **** 
 388:Generated_Source\PSoC5/cyfitter_cfg.c **** 		CYPACKED typedef struct {
 389:Generated_Source\PSoC5/cyfitter_cfg.c **** 			void CYFAR *address;
 390:Generated_Source\PSoC5/cyfitter_cfg.c **** 			uint16 size;
 391:Generated_Source\PSoC5/cyfitter_cfg.c **** 		} CYPACKED_ATTR cfg_memset_t;
 392:Generated_Source\PSoC5/cyfitter_cfg.c **** 
 393:Generated_Source\PSoC5/cyfitter_cfg.c **** 
 394:Generated_Source\PSoC5/cyfitter_cfg.c **** 		CYPACKED typedef struct {
 395:Generated_Source\PSoC5/cyfitter_cfg.c **** 			void CYFAR *dest;
 396:Generated_Source\PSoC5/cyfitter_cfg.c **** 			const void CYFAR *src;
 397:Generated_Source\PSoC5/cyfitter_cfg.c **** 			uint16 size;
 398:Generated_Source\PSoC5/cyfitter_cfg.c **** 		} CYPACKED_ATTR cfg_memcpy_t;
 399:Generated_Source\PSoC5/cyfitter_cfg.c **** 
 400:Generated_Source\PSoC5/cyfitter_cfg.c **** 		static const cfg_memset_t CYCODE cfg_memset_list[] = {
 401:Generated_Source\PSoC5/cyfitter_cfg.c **** 			/* address, size */
 402:Generated_Source\PSoC5/cyfitter_cfg.c **** 			{(void CYFAR *)(CYREG_I2C_XCFG), 25u},
 403:Generated_Source\PSoC5/cyfitter_cfg.c **** 			{(void CYFAR *)(CYREG_PRT2_DR), 16u},
 404:Generated_Source\PSoC5/cyfitter_cfg.c **** 			{(void CYFAR *)(CYREG_PRT4_DR), 48u},
 405:Generated_Source\PSoC5/cyfitter_cfg.c **** 			{(void CYFAR *)(CYREG_PRT12_DR), 16u},
 406:Generated_Source\PSoC5/cyfitter_cfg.c **** 			{(void CYFAR *)(CYDEV_UCFG_B0_P0_U0_BASE), 128u},
 407:Generated_Source\PSoC5/cyfitter_cfg.c **** 			{(void CYFAR *)(CYDEV_UCFG_B0_P0_ROUTE_BASE), 3840u},
 408:Generated_Source\PSoC5/cyfitter_cfg.c **** 			{(void CYFAR *)(CYDEV_UCFG_B1_P2_U0_BASE), 2048u},
 409:Generated_Source\PSoC5/cyfitter_cfg.c **** 			{(void CYFAR *)(CYDEV_UCFG_DSI0_BASE), 2560u},
ARM GAS  C:\Users\legoc\AppData\Local\Temp\ccFRWr2w.s 			page 10


 410:Generated_Source\PSoC5/cyfitter_cfg.c **** 			{(void CYFAR *)(CYDEV_UCFG_DSI12_BASE), 512u},
 411:Generated_Source\PSoC5/cyfitter_cfg.c **** 			{(void CYFAR *)(CYREG_BCTL0_MDCLK_EN), 32u},
 412:Generated_Source\PSoC5/cyfitter_cfg.c **** 		};
 413:Generated_Source\PSoC5/cyfitter_cfg.c **** 
 414:Generated_Source\PSoC5/cyfitter_cfg.c **** 		static const cfg_memcpy_t CYCODE cfg_memcpy_list [] = {
 415:Generated_Source\PSoC5/cyfitter_cfg.c **** 			/* dest, src, size */
 416:Generated_Source\PSoC5/cyfitter_cfg.c **** 			{(void CYFAR *)(CYDEV_UCFG_B0_P0_U1_BASE), BS_UDB_1_5_1_CONFIG_VAL, 128u},
 417:Generated_Source\PSoC5/cyfitter_cfg.c **** 		};
 418:Generated_Source\PSoC5/cyfitter_cfg.c **** 
 419:Generated_Source\PSoC5/cyfitter_cfg.c **** 		uint8 CYDATA i;
 420:Generated_Source\PSoC5/cyfitter_cfg.c **** 
 421:Generated_Source\PSoC5/cyfitter_cfg.c **** 		/* Zero out critical memory blocks before beginning configuration */
 422:Generated_Source\PSoC5/cyfitter_cfg.c **** 		for (i = 0u; i < (sizeof(cfg_memset_list)/sizeof(cfg_memset_list[0])); i++)
 423:Generated_Source\PSoC5/cyfitter_cfg.c **** 		{
 424:Generated_Source\PSoC5/cyfitter_cfg.c **** 			const cfg_memset_t CYCODE * CYDATA ms = &cfg_memset_list[i];
 425:Generated_Source\PSoC5/cyfitter_cfg.c **** 			CYMEMZERO(ms->address, (size_t)(uint32)(ms->size));
 103              		.loc 1 425 0 discriminator 3
 104 0016 04EB4403 		add	r3, r4, r4, lsl #1
 105              	.LBB54:
 106              	.LBB55:
  79:Generated_Source\PSoC5/cyfitter_cfg.c **** }
 107              		.loc 1 79 0 discriminator 3
 108 001a AA88     		ldrh	r2, [r5, #4]
 109              	.LVL5:
 110 001c 56F81300 		ldr	r0, [r6, r3, lsl #1]	@ unaligned
 111 0020 0134     		adds	r4, r4, #1
 112              	.LVL6:
 113 0022 0021     		movs	r1, #0
 114 0024 FFF7FEFF 		bl	memset
 115              	.LVL7:
 116              	.LBE55:
 117              	.LBE54:
 118              	.LBE53:
 422:Generated_Source\PSoC5/cyfitter_cfg.c **** 		{
 119              		.loc 1 422 0 discriminator 3
 120 0028 0A2C     		cmp	r4, #10
 121 002a 05F10605 		add	r5, r5, #6
 122 002e F2D1     		bne	.L9
 123              	.LVL8:
 124              	.LBB56:
 125              	.LBB57:
 126              	.LBB58:
  86:Generated_Source\PSoC5/cyfitter_cfg.c **** }
 127              		.loc 1 86 0 discriminator 3
 128 0030 8022     		movs	r2, #128
 129 0032 8349     		ldr	r1, .L30+8
 130 0034 8348     		ldr	r0, .L30+12
 131 0036 FFF7FEFF 		bl	memcpy
 132              	.LVL9:
 133 003a 834E     		ldr	r6, .L30+16
 134              	.LBE58:
 135              	.LBE57:
 136              	.LBE56:
 137              	.LBB61:
 138              	.LBB62:
 199:Generated_Source\PSoC5/cyfitter_cfg.c **** 	{
 139              		.loc 1 199 0 discriminator 3
ARM GAS  C:\Users\legoc\AppData\Local\Temp\ccFRWr2w.s 			page 11


 140 003c 834F     		ldr	r7, .L30+20
 141              	.LBE62:
 142              	.LBE61:
 143              	.LBB65:
 144              	.LBB60:
 145              	.LBB59:
  86:Generated_Source\PSoC5/cyfitter_cfg.c **** }
 146              		.loc 1 86 0 discriminator 3
 147 003e 0025     		movs	r5, #0
 148              	.LVL10:
 149              	.L12:
 150              	.LBE59:
 151              	.LBE60:
 152              	.LBE65:
 153              	.LBB66:
 154              	.LBB64:
 155              	.LBB63:
 201:Generated_Source\PSoC5/cyfitter_cfg.c **** 		uint8 count = (uint8)baseAddr;
 156              		.loc 1 201 0
 157 0040 56F8043F 		ldr	r3, [r6, #4]!
 158              	.LVL11:
 204:Generated_Source\PSoC5/cyfitter_cfg.c **** 		{
 159              		.loc 1 204 0
 160 0044 13F0FF0E 		ands	lr, r3, #255
 203:Generated_Source\PSoC5/cyfitter_cfg.c **** 		while (count != 0u)
 161              		.loc 1 203 0
 162 0048 23F0FF04 		bic	r4, r3, #255
 163              	.LVL12:
 204:Generated_Source\PSoC5/cyfitter_cfg.c **** 		{
 164              		.loc 1 204 0
 165 004c 13D0     		beq	.L10
 166 004e 05F11053 		add	r3, r5, #603979776
 167              	.LVL13:
 168 0052 0EF1FF3E 		add	lr, lr, #-1
 169 0056 03F12B00 		add	r0, r3, #43
 170 005a 5FFA8EFE 		uxtb	lr, lr
 171 005e 7044     		add	r0, r0, lr
 172 0060 2A33     		adds	r3, r3, #42
 173 0062 4000     		lsls	r0, r0, #1
 174 0064 5B00     		lsls	r3, r3, #1
 175              	.LVL14:
 176              	.L11:
 206:Generated_Source\PSoC5/cyfitter_cfg.c **** 			j++;
 177              		.loc 1 206 0
 178 0066 1A78     		ldrb	r2, [r3]	@ zero_extendqisi2
 179 0068 5978     		ldrb	r1, [r3, #1]	@ zero_extendqisi2
 180 006a 0233     		adds	r3, r3, #2
 204:Generated_Source\PSoC5/cyfitter_cfg.c **** 		{
 181              		.loc 1 204 0
 182 006c 8342     		cmp	r3, r0
 206:Generated_Source\PSoC5/cyfitter_cfg.c **** 			j++;
 183              		.loc 1 206 0
 184 006e 1155     		strb	r1, [r2, r4]
 204:Generated_Source\PSoC5/cyfitter_cfg.c **** 		{
 185              		.loc 1 204 0
 186 0070 F9D1     		bne	.L11
 187 0072 0135     		adds	r5, r5, #1
ARM GAS  C:\Users\legoc\AppData\Local\Temp\ccFRWr2w.s 			page 12


 188 0074 7544     		add	r5, r5, lr
 189              	.L10:
 190              	.LVL15:
 191              	.LBE63:
 199:Generated_Source\PSoC5/cyfitter_cfg.c **** 	{
 192              		.loc 1 199 0
 193 0076 BE42     		cmp	r6, r7
 194 0078 E2D1     		bne	.L12
 195              	.LVL16:
 196              	.LBE64:
 197              	.LBE66:
 426:Generated_Source\PSoC5/cyfitter_cfg.c **** 		}
 427:Generated_Source\PSoC5/cyfitter_cfg.c **** 
 428:Generated_Source\PSoC5/cyfitter_cfg.c **** 		/* Copy device configuration data into registers */
 429:Generated_Source\PSoC5/cyfitter_cfg.c **** 		for (i = 0u; i < (sizeof(cfg_memcpy_list)/sizeof(cfg_memcpy_list[0])); i++)
 430:Generated_Source\PSoC5/cyfitter_cfg.c **** 		{
 431:Generated_Source\PSoC5/cyfitter_cfg.c **** 			const cfg_memcpy_t CYCODE * CYDATA mc = &cfg_memcpy_list[i];
 432:Generated_Source\PSoC5/cyfitter_cfg.c **** 			void * CYDATA destPtr = mc->dest;
 433:Generated_Source\PSoC5/cyfitter_cfg.c **** 			const void * CYDATA srcPtr = mc->src;
 434:Generated_Source\PSoC5/cyfitter_cfg.c **** 			uint16 CYDATA numBytes = mc->size;
 435:Generated_Source\PSoC5/cyfitter_cfg.c **** 			CYCONFIGCPY(destPtr, srcPtr, numBytes);
 436:Generated_Source\PSoC5/cyfitter_cfg.c **** 		}
 437:Generated_Source\PSoC5/cyfitter_cfg.c **** 
 438:Generated_Source\PSoC5/cyfitter_cfg.c **** 		cfg_write_bytes32(cy_cfg_addr_table, cy_cfg_data_table);
 439:Generated_Source\PSoC5/cyfitter_cfg.c **** 
 440:Generated_Source\PSoC5/cyfitter_cfg.c **** 		/* Enable digital routing */
 441:Generated_Source\PSoC5/cyfitter_cfg.c **** 		CY_SET_XTND_REG8((void CYFAR *)CYREG_BCTL0_BANK_CTL, CY_GET_XTND_REG8((void CYFAR *)CYREG_BCTL0_B
 198              		.loc 1 441 0
 199 007a 7549     		ldr	r1, .L30+24
 200              	.LBE52:
 201              	.LBB67:
 202              	.LBB68:
 253:Generated_Source\PSoC5/cyfitter_cfg.c **** 	/* Wait up to 250us for the PLL to lock */
 203              		.loc 1 253 0
 204 007c 41F25127 		movw	r7, #4689
 205              	.LBE68:
 206              	.LBE67:
 207              	.LBB78:
 208              		.loc 1 441 0
 209 0080 0B78     		ldrb	r3, [r1]	@ zero_extendqisi2
 442:Generated_Source\PSoC5/cyfitter_cfg.c **** 		CY_SET_XTND_REG8((void CYFAR *)CYREG_BCTL1_BANK_CTL, CY_GET_XTND_REG8((void CYFAR *)CYREG_BCTL1_B
 210              		.loc 1 442 0
 211 0082 744A     		ldr	r2, .L30+28
 441:Generated_Source\PSoC5/cyfitter_cfg.c **** 		CY_SET_XTND_REG8((void CYFAR *)CYREG_BCTL1_BANK_CTL, CY_GET_XTND_REG8((void CYFAR *)CYREG_BCTL1_B
 212              		.loc 1 441 0
 213 0084 43F00203 		orr	r3, r3, #2
 214 0088 0B70     		strb	r3, [r1]
 215              		.loc 1 442 0
 216 008a 1378     		ldrb	r3, [r2]	@ zero_extendqisi2
 443:Generated_Source\PSoC5/cyfitter_cfg.c **** 
 444:Generated_Source\PSoC5/cyfitter_cfg.c **** 		/* Enable UDB array */
 445:Generated_Source\PSoC5/cyfitter_cfg.c **** 		CY_SET_XTND_REG8((void CYFAR *)CYREG_PM_ACT_CFG0, CY_GET_XTND_REG8((void CYFAR *)CYREG_PM_ACT_CFG
 217              		.loc 1 445 0
 218 008c 7248     		ldr	r0, .L30+32
 442:Generated_Source\PSoC5/cyfitter_cfg.c **** 
 219              		.loc 1 442 0
 220 008e 43F00203 		orr	r3, r3, #2
ARM GAS  C:\Users\legoc\AppData\Local\Temp\ccFRWr2w.s 			page 13


 221 0092 1370     		strb	r3, [r2]
 222              		.loc 1 445 0
 223 0094 0278     		ldrb	r2, [r0]	@ zero_extendqisi2
 446:Generated_Source\PSoC5/cyfitter_cfg.c **** 		CY_SET_XTND_REG8((void CYFAR *)CYREG_PM_AVAIL_CR2, CY_GET_XTND_REG8((void CYFAR *)CYREG_PM_AVAIL_
 224              		.loc 1 446 0
 225 0096 A1F58631 		sub	r1, r1, #68608
 445:Generated_Source\PSoC5/cyfitter_cfg.c **** 		CY_SET_XTND_REG8((void CYFAR *)CYREG_PM_AVAIL_CR2, CY_GET_XTND_REG8((void CYFAR *)CYREG_PM_AVAIL_
 226              		.loc 1 445 0
 227 009a 42F04002 		orr	r2, r2, #64
 228 009e 0270     		strb	r2, [r0]
 229              		.loc 1 446 0
 230 00a0 4139     		subs	r1, r1, #65
 231 00a2 0A78     		ldrb	r2, [r1]	@ zero_extendqisi2
 232              	.LBE78:
 233              	.LBB79:
 234              	.LBB80:
  86:Generated_Source\PSoC5/cyfitter_cfg.c **** }
 235              		.loc 1 86 0
 236 00a4 6D4C     		ldr	r4, .L30+36
 237              	.LBE80:
 238              	.LBE79:
 239              	.LBB84:
 240              		.loc 1 446 0
 241 00a6 42F01002 		orr	r2, r2, #16
 242              	.LBE84:
 243              	.LBB85:
 244              	.LBB81:
  86:Generated_Source\PSoC5/cyfitter_cfg.c **** }
 245              		.loc 1 86 0
 246 00aa 6D4B     		ldr	r3, .L30+40
 247              	.LBE81:
 248              	.LBE85:
 249              	.LBB86:
 250              		.loc 1 446 0
 251 00ac 0A70     		strb	r2, [r1]
 252              	.LVL17:
 253              	.LBE86:
 254              	.LBB87:
 255              	.LBB88:
  86:Generated_Source\PSoC5/cyfitter_cfg.c **** }
 256              		.loc 1 86 0
 257 00ae 6D4A     		ldr	r2, .L30+44
 258              	.LBE88:
 259              	.LBE87:
 260              	.LBB90:
 261              	.LBB82:
 262 00b0 03CB     		ldmia	r3!, {r0, r1}
 263              	.LBE82:
 264              	.LBE90:
 447:Generated_Source\PSoC5/cyfitter_cfg.c **** 	}
 448:Generated_Source\PSoC5/cyfitter_cfg.c **** 
 449:Generated_Source\PSoC5/cyfitter_cfg.c **** 
 450:Generated_Source\PSoC5/cyfitter_cfg.c **** 	/* Perform second pass device configuration. These items must be configured in specific order afte
 451:Generated_Source\PSoC5/cyfitter_cfg.c **** 	CYCONFIGCPY((void CYFAR *)(CYREG_PRT0_DM0), (const void CYFAR *)(BS_IOPINS0_0_VAL), 8u);
 452:Generated_Source\PSoC5/cyfitter_cfg.c **** 	CYCONFIGCPY((void CYFAR *)(CYREG_PRT15_DM0), (const void CYFAR *)(BS_IOPINS0_8_VAL), 8u);
 453:Generated_Source\PSoC5/cyfitter_cfg.c **** 	CYCONFIGCPY((void CYFAR *)(CYREG_PRT1_DM0), (const void CYFAR *)(BS_IOPINS0_1_VAL), 8u);
 454:Generated_Source\PSoC5/cyfitter_cfg.c **** 	CYCONFIGCPY((void CYFAR *)(CYREG_PRT3_DM0), (const void CYFAR *)(BS_IOPINS0_3_VAL), 8u);
ARM GAS  C:\Users\legoc\AppData\Local\Temp\ccFRWr2w.s 			page 14


 455:Generated_Source\PSoC5/cyfitter_cfg.c **** 	/* Switch Boost to the precision bandgap reference from its internal reference */
 456:Generated_Source\PSoC5/cyfitter_cfg.c **** 	CY_SET_REG8((void CYXDATA *)CYREG_BOOST_CR2, (CY_GET_REG8((void CYXDATA *)CYREG_BOOST_CR2) | 0x08u
 265              		.loc 1 456 0
 266 00b2 6D4D     		ldr	r5, .L30+48
 267              	.LBB91:
 268              	.LBB83:
  86:Generated_Source\PSoC5/cyfitter_cfg.c **** }
 269              		.loc 1 86 0
 270 00b4 2060     		str	r0, [r4]	@ unaligned
 271 00b6 6160     		str	r1, [r4, #4]	@ unaligned
 272              	.LVL18:
 273              	.LBE83:
 274              	.LBE91:
 275              	.LBB92:
 276              	.LBB89:
 277 00b8 03CB     		ldmia	r3!, {r0, r1}
 278 00ba 1060     		str	r0, [r2]	@ unaligned
 279 00bc 5160     		str	r1, [r2, #4]	@ unaligned
 280              	.LVL19:
 281              	.LBE89:
 282              	.LBE92:
 283              		.loc 1 456 0
 284 00be 2A78     		ldrb	r2, [r5]	@ zero_extendqisi2
 285              	.LBB93:
 286              	.LBB94:
  86:Generated_Source\PSoC5/cyfitter_cfg.c **** }
 287              		.loc 1 86 0
 288 00c0 6A4E     		ldr	r6, .L30+52
 289 00c2 03CB     		ldmia	r3!, {r0, r1}
 290              	.LBE94:
 291              	.LBE93:
 292              		.loc 1 456 0
 293 00c4 42F00802 		orr	r2, r2, #8
 294              	.LBB96:
 295              	.LBB95:
  86:Generated_Source\PSoC5/cyfitter_cfg.c **** }
 296              		.loc 1 86 0
 297 00c8 3060     		str	r0, [r6]	@ unaligned
 298 00ca 7160     		str	r1, [r6, #4]	@ unaligned
 299              	.LVL20:
 300              	.LBE95:
 301              	.LBE96:
 302              	.LBB97:
 303              	.LBB98:
 304 00cc 03CB     		ldmia	r3!, {r0, r1}
 305              	.LBE98:
 306              	.LBE97:
 457:Generated_Source\PSoC5/cyfitter_cfg.c **** 
 458:Generated_Source\PSoC5/cyfitter_cfg.c **** 	/* Set Flash Cycles based on max possible frequency in case a glitch occurs during ClockSetup(). *
 459:Generated_Source\PSoC5/cyfitter_cfg.c **** 	CY_SET_XTND_REG8((void CYFAR *)(CYREG_CACHE_CC_CTL), (((CYDEV_INSTRUCT_CACHE_ENABLED) != 0) ? 0x61
 307              		.loc 1 459 0
 308 00ce DFF8E8E1 		ldr	lr, .L30+128
 456:Generated_Source\PSoC5/cyfitter_cfg.c **** 
 309              		.loc 1 456 0
 310 00d2 2A70     		strb	r2, [r5]
 311              	.LBB100:
 312              	.LBB73:
ARM GAS  C:\Users\legoc\AppData\Local\Temp\ccFRWr2w.s 			page 15


 237:Generated_Source\PSoC5/cyfitter_cfg.c **** 	CY_SET_XTND_REG8((void CYFAR *)(CYREG_CLKDIST_DCFG0_CFG0 + 0x2u), 0x1Cu);
 313              		.loc 1 237 0
 314 00d4 664E     		ldr	r6, .L30+56
 238:Generated_Source\PSoC5/cyfitter_cfg.c **** 
 315              		.loc 1 238 0
 316 00d6 674A     		ldr	r2, .L30+60
 317              	.LBE73:
 318              	.LBE100:
 319              	.LBB101:
 320              	.LBB99:
  86:Generated_Source\PSoC5/cyfitter_cfg.c **** }
 321              		.loc 1 86 0
 322 00d8 2063     		str	r0, [r4, #48]	@ unaligned
 323 00da 6163     		str	r1, [r4, #52]	@ unaligned
 324              	.LVL21:
 325              	.LBE99:
 326              	.LBE101:
 327              		.loc 1 459 0
 328 00dc 6125     		movs	r5, #97
 329              	.LBB102:
 330              	.LBB74:
 237:Generated_Source\PSoC5/cyfitter_cfg.c **** 	CY_SET_XTND_REG8((void CYFAR *)(CYREG_CLKDIST_DCFG0_CFG0 + 0x2u), 0x1Cu);
 331              		.loc 1 237 0
 332 00de 0120     		movs	r0, #1
 238:Generated_Source\PSoC5/cyfitter_cfg.c **** 
 333              		.loc 1 238 0
 334 00e0 1C21     		movs	r1, #28
 335              	.LBE74:
 336              	.LBE102:
 337              		.loc 1 459 0
 338 00e2 8EF80050 		strb	r5, [lr]
 339              	.LBB103:
 340              	.LBB75:
 237:Generated_Source\PSoC5/cyfitter_cfg.c **** 	CY_SET_XTND_REG8((void CYFAR *)(CYREG_CLKDIST_DCFG0_CFG0 + 0x2u), 0x1Cu);
 341              		.loc 1 237 0
 342 00e6 3080     		strh	r0, [r6]	@ movhi
 238:Generated_Source\PSoC5/cyfitter_cfg.c **** 
 343              		.loc 1 238 0
 344 00e8 1170     		strb	r1, [r2]
 345              	.LVL22:
 346 00ea 1868     		ldr	r0, [r3]
 347              	.LBB69:
 348              	.LBB70:
  86:Generated_Source\PSoC5/cyfitter_cfg.c **** }
 349              		.loc 1 86 0
 350 00ec 624B     		ldr	r3, .L30+64
 351              	.LBE70:
 352              	.LBE69:
 244:Generated_Source\PSoC5/cyfitter_cfg.c **** 	CY_SET_XTND_REG8((void CYFAR *)(CYREG_CLKDIST_CR), 0x08u);
 353              		.loc 1 244 0
 354 00ee 634D     		ldr	r5, .L30+68
 355              	.LBB72:
 356              	.LBB71:
  86:Generated_Source\PSoC5/cyfitter_cfg.c **** }
 357              		.loc 1 86 0
 358 00f0 1860     		str	r0, [r3]
 359              	.LVL23:
ARM GAS  C:\Users\legoc\AppData\Local\Temp\ccFRWr2w.s 			page 16


 360              	.LBE71:
 361              	.LBE72:
 245:Generated_Source\PSoC5/cyfitter_cfg.c **** 
 362              		.loc 1 245 0
 363 00f2 4FF04024 		mov	r4, #1073758208
 364 00f6 0821     		movs	r1, #8
 244:Generated_Source\PSoC5/cyfitter_cfg.c **** 	CY_SET_XTND_REG8((void CYFAR *)(CYREG_CLKDIST_CR), 0x08u);
 365              		.loc 1 244 0
 366 00f8 0226     		movs	r6, #2
 248:Generated_Source\PSoC5/cyfitter_cfg.c **** 	CY_SET_XTND_REG8((void CYFAR *)(CYREG_IMO_TR1), (CY_GET_XTND_REG8((void CYFAR *)CYREG_FLSHID_CUST_
 367              		.loc 1 248 0
 368 00fa 0320     		movs	r0, #3
 249:Generated_Source\PSoC5/cyfitter_cfg.c **** 
 369              		.loc 1 249 0
 370 00fc 604B     		ldr	r3, .L30+72
 244:Generated_Source\PSoC5/cyfitter_cfg.c **** 	CY_SET_XTND_REG8((void CYFAR *)(CYREG_CLKDIST_CR), 0x08u);
 371              		.loc 1 244 0
 372 00fe 2E70     		strb	r6, [r5]
 245:Generated_Source\PSoC5/cyfitter_cfg.c **** 
 373              		.loc 1 245 0
 374 0100 2170     		strb	r1, [r4]
 248:Generated_Source\PSoC5/cyfitter_cfg.c **** 	CY_SET_XTND_REG8((void CYFAR *)(CYREG_IMO_TR1), (CY_GET_XTND_REG8((void CYFAR *)CYREG_FLSHID_CUST_
 375              		.loc 1 248 0
 376 0102 82F87E01 		strb	r0, [r2, #382]
 249:Generated_Source\PSoC5/cyfitter_cfg.c **** 
 377              		.loc 1 249 0
 378 0106 1A78     		ldrb	r2, [r3]	@ zero_extendqisi2
 253:Generated_Source\PSoC5/cyfitter_cfg.c **** 	/* Wait up to 250us for the PLL to lock */
 379              		.loc 1 253 0
 380 0108 5E48     		ldr	r0, .L30+76
 258:Generated_Source\PSoC5/cyfitter_cfg.c **** 		CyDelayCycles(10u * 48u); /* Delay 10us based on 48MHz clock */
 381              		.loc 1 258 0
 382 010a 5F4B     		ldr	r3, .L30+80
 249:Generated_Source\PSoC5/cyfitter_cfg.c **** 
 383              		.loc 1 249 0
 384 010c D2B2     		uxtb	r2, r2
 385 010e 85F8A123 		strb	r2, [r5, #929]
 252:Generated_Source\PSoC5/cyfitter_cfg.c **** 	CY_SET_XTND_REG16((void CYFAR *)(CYREG_FASTCLK_PLL_CFG0), 0x1251u);
 386              		.loc 1 252 0
 387 0112 A4F82212 		strh	r1, [r4, #546]	@ movhi
 253:Generated_Source\PSoC5/cyfitter_cfg.c **** 	/* Wait up to 250us for the PLL to lock */
 388              		.loc 1 253 0
 389 0116 0780     		strh	r7, [r0]	@ movhi
 390              	.LVL24:
 258:Generated_Source\PSoC5/cyfitter_cfg.c **** 		CyDelayCycles(10u * 48u); /* Delay 10us based on 48MHz clock */
 391              		.loc 1 258 0
 392 0118 1C78     		ldrb	r4, [r3]	@ zero_extendqisi2
 259:Generated_Source\PSoC5/cyfitter_cfg.c **** 	}
 393              		.loc 1 259 0
 394 011a 4FF4F070 		mov	r0, #480
 258:Generated_Source\PSoC5/cyfitter_cfg.c **** 		CyDelayCycles(10u * 48u); /* Delay 10us based on 48MHz clock */
 395              		.loc 1 258 0
 396 011e 1D46     		mov	r5, r3
 397 0120 04F00104 		and	r4, r4, #1
 398              	.LVL25:
 259:Generated_Source\PSoC5/cyfitter_cfg.c **** 	}
 399              		.loc 1 259 0
ARM GAS  C:\Users\legoc\AppData\Local\Temp\ccFRWr2w.s 			page 17


 400 0124 FFF7FEFF 		bl	CyDelayCycles
 401              	.LVL26:
 402 0128 1826     		movs	r6, #24
 403 012a 01E0     		b	.L14
 404              	.L29:
 256:Generated_Source\PSoC5/cyfitter_cfg.c **** 	{ 
 405              		.loc 1 256 0
 406 012c 032C     		cmp	r4, #3
 407 012e 0DD0     		beq	.L28
 408              	.L14:
 258:Generated_Source\PSoC5/cyfitter_cfg.c **** 		CyDelayCycles(10u * 48u); /* Delay 10us based on 48MHz clock */
 409              		.loc 1 258 0
 410 0130 2B78     		ldrb	r3, [r5]	@ zero_extendqisi2
 259:Generated_Source\PSoC5/cyfitter_cfg.c **** 	}
 411              		.loc 1 259 0
 412 0132 4FF4F070 		mov	r0, #480
 258:Generated_Source\PSoC5/cyfitter_cfg.c **** 		CyDelayCycles(10u * 48u); /* Delay 10us based on 48MHz clock */
 413              		.loc 1 258 0
 414 0136 03F00103 		and	r3, r3, #1
 415 013a 43EA4404 		orr	r4, r3, r4, lsl #1
 416              	.LVL27:
 259:Generated_Source\PSoC5/cyfitter_cfg.c **** 	}
 417              		.loc 1 259 0
 418 013e FFF7FEFF 		bl	CyDelayCycles
 419              	.LVL28:
 256:Generated_Source\PSoC5/cyfitter_cfg.c **** 	{ 
 420              		.loc 1 256 0
 421 0142 013E     		subs	r6, r6, #1
 258:Generated_Source\PSoC5/cyfitter_cfg.c **** 		CyDelayCycles(10u * 48u); /* Delay 10us based on 48MHz clock */
 422              		.loc 1 258 0
 423 0144 04F00304 		and	r4, r4, #3
 424              	.LVL29:
 256:Generated_Source\PSoC5/cyfitter_cfg.c **** 	{ 
 425              		.loc 1 256 0
 426 0148 F0D1     		bne	.L29
 427              	.L13:
 428 014a FEE7     		b	.L13
 429              	.L28:
 268:Generated_Source\PSoC5/cyfitter_cfg.c **** 	CY_SET_XTND_REG8((void CYFAR *)(CYREG_CLKDIST_MSTR0), 0x07u);
 430              		.loc 1 268 0
 431 014c 4F4B     		ldr	r3, .L30+84
 271:Generated_Source\PSoC5/cyfitter_cfg.c **** 	CY_SET_XTND_REG8((void CYFAR *)(CYREG_CLKDIST_MSTR0), 0x00u);
 432              		.loc 1 271 0
 433 014e 504F     		ldr	r7, .L30+88
 273:Generated_Source\PSoC5/cyfitter_cfg.c **** 	CY_SET_XTND_REG8((void CYFAR *)(CYREG_CLKDIST_DLY1), 0x04u);
 434              		.loc 1 273 0
 435 0150 504D     		ldr	r5, .L30+92
 270:Generated_Source\PSoC5/cyfitter_cfg.c **** 	CY_SET_XTND_REG8((void CYFAR *)(CYREG_CLKDIST_BCFG2), 0x48u);
 436              		.loc 1 270 0
 437 0152 DFF868C1 		ldr	ip, .L30+132
 274:Generated_Source\PSoC5/cyfitter_cfg.c **** 
 438              		.loc 1 274 0
 439 0156 5048     		ldr	r0, .L30+96
 268:Generated_Source\PSoC5/cyfitter_cfg.c **** 	CY_SET_XTND_REG8((void CYFAR *)(CYREG_CLKDIST_MSTR0), 0x07u);
 440              		.loc 1 268 0
 441 0158 4FF48074 		mov	r4, #256
 442              	.LVL30:
ARM GAS  C:\Users\legoc\AppData\Local\Temp\ccFRWr2w.s 			page 18


 269:Generated_Source\PSoC5/cyfitter_cfg.c **** 	CY_SET_XTND_REG8((void CYFAR *)(CYREG_CLKDIST_BCFG0), 0x00u);
 443              		.loc 1 269 0
 444 015c 0721     		movs	r1, #7
 268:Generated_Source\PSoC5/cyfitter_cfg.c **** 	CY_SET_XTND_REG8((void CYFAR *)(CYREG_CLKDIST_MSTR0), 0x07u);
 445              		.loc 1 268 0
 446 015e 1C80     		strh	r4, [r3]	@ movhi
 270:Generated_Source\PSoC5/cyfitter_cfg.c **** 	CY_SET_XTND_REG8((void CYFAR *)(CYREG_CLKDIST_BCFG2), 0x48u);
 447              		.loc 1 270 0
 448 0160 0022     		movs	r2, #0
 269:Generated_Source\PSoC5/cyfitter_cfg.c **** 	CY_SET_XTND_REG8((void CYFAR *)(CYREG_CLKDIST_BCFG0), 0x00u);
 449              		.loc 1 269 0
 450 0162 1970     		strb	r1, [r3]
 271:Generated_Source\PSoC5/cyfitter_cfg.c **** 	CY_SET_XTND_REG8((void CYFAR *)(CYREG_CLKDIST_MSTR0), 0x00u);
 451              		.loc 1 271 0
 452 0164 4FF0480E 		mov	lr, #72
 276:Generated_Source\PSoC5/cyfitter_cfg.c **** 	CY_SET_XTND_REG8((void CYFAR *)(CYREG_PM_ACT_CFG1), ((CY_GET_XTND_REG8((void CYFAR *)CYREG_PM_ACT_
 453              		.loc 1 276 0
 454 0168 4C49     		ldr	r1, .L30+100
 273:Generated_Source\PSoC5/cyfitter_cfg.c **** 	CY_SET_XTND_REG8((void CYFAR *)(CYREG_CLKDIST_DLY1), 0x04u);
 455              		.loc 1 273 0
 456 016a 0226     		movs	r6, #2
 274:Generated_Source\PSoC5/cyfitter_cfg.c **** 
 457              		.loc 1 274 0
 458 016c 0424     		movs	r4, #4
 270:Generated_Source\PSoC5/cyfitter_cfg.c **** 	CY_SET_XTND_REG8((void CYFAR *)(CYREG_CLKDIST_BCFG2), 0x48u);
 459              		.loc 1 270 0
 460 016e 8CF80020 		strb	r2, [ip]
 271:Generated_Source\PSoC5/cyfitter_cfg.c **** 	CY_SET_XTND_REG8((void CYFAR *)(CYREG_CLKDIST_MSTR0), 0x00u);
 461              		.loc 1 271 0
 462 0172 87F800E0 		strb	lr, [r7]
 272:Generated_Source\PSoC5/cyfitter_cfg.c **** 	CY_SET_XTND_REG8((void CYFAR *)(CYREG_CLKDIST_LD), 0x02u);
 463              		.loc 1 272 0
 464 0176 1A70     		strb	r2, [r3]
 273:Generated_Source\PSoC5/cyfitter_cfg.c **** 	CY_SET_XTND_REG8((void CYFAR *)(CYREG_CLKDIST_DLY1), 0x04u);
 465              		.loc 1 273 0
 466 0178 2E70     		strb	r6, [r5]
 274:Generated_Source\PSoC5/cyfitter_cfg.c **** 
 467              		.loc 1 274 0
 468 017a 0470     		strb	r4, [r0]
 276:Generated_Source\PSoC5/cyfitter_cfg.c **** 	CY_SET_XTND_REG8((void CYFAR *)(CYREG_PM_ACT_CFG1), ((CY_GET_XTND_REG8((void CYFAR *)CYREG_PM_ACT_
 469              		.loc 1 276 0
 470 017c 0B78     		ldrb	r3, [r1]	@ zero_extendqisi2
 277:Generated_Source\PSoC5/cyfitter_cfg.c **** 	CY_SET_XTND_REG8((void CYFAR *)(CYREG_PM_ACT_CFG0), ((CY_GET_XTND_REG8((void CYFAR *)CYREG_PM_ACT_
 471              		.loc 1 277 0
 472 017e 484A     		ldr	r2, .L30+104
 276:Generated_Source\PSoC5/cyfitter_cfg.c **** 	CY_SET_XTND_REG8((void CYFAR *)(CYREG_PM_ACT_CFG1), ((CY_GET_XTND_REG8((void CYFAR *)CYREG_PM_ACT_
 473              		.loc 1 276 0
 474 0180 43F00103 		orr	r3, r3, #1
 475 0184 0B70     		strb	r3, [r1]
 277:Generated_Source\PSoC5/cyfitter_cfg.c **** 	CY_SET_XTND_REG8((void CYFAR *)(CYREG_PM_ACT_CFG0), ((CY_GET_XTND_REG8((void CYFAR *)CYREG_PM_ACT_
 476              		.loc 1 277 0
 477 0186 1378     		ldrb	r3, [r2]	@ zero_extendqisi2
 278:Generated_Source\PSoC5/cyfitter_cfg.c **** }
 478              		.loc 1 278 0
 479 0188 334C     		ldr	r4, .L30+32
 277:Generated_Source\PSoC5/cyfitter_cfg.c **** 	CY_SET_XTND_REG8((void CYFAR *)(CYREG_PM_ACT_CFG0), ((CY_GET_XTND_REG8((void CYFAR *)CYREG_PM_ACT_
 480              		.loc 1 277 0
ARM GAS  C:\Users\legoc\AppData\Local\Temp\ccFRWr2w.s 			page 19


 481 018a 43F00103 		orr	r3, r3, #1
 482 018e 1370     		strb	r3, [r2]
 278:Generated_Source\PSoC5/cyfitter_cfg.c **** }
 483              		.loc 1 278 0
 484 0190 2378     		ldrb	r3, [r4]	@ zero_extendqisi2
 485              	.LBE75:
 486              	.LBE103:
 460:Generated_Source\PSoC5/cyfitter_cfg.c **** 	/* Setup clocks based on selections from Clock DWR */
 461:Generated_Source\PSoC5/cyfitter_cfg.c **** 	ClockSetup();
 462:Generated_Source\PSoC5/cyfitter_cfg.c **** 	/* Set Flash Cycles based on newly configured 24.00MHz Bus Clock. */
 463:Generated_Source\PSoC5/cyfitter_cfg.c **** 	CY_SET_XTND_REG8((void CYFAR *)(CYREG_CACHE_CC_CTL), (((CYDEV_INSTRUCT_CACHE_ENABLED) != 0) ? 0x81
 464:Generated_Source\PSoC5/cyfitter_cfg.c **** 	CY_SET_XTND_REG8((void CYFAR *)(CYREG_PANTHER_WAITPIPE), 0x01u);
 487              		.loc 1 464 0
 488 0192 01F5F721 		add	r1, r1, #505856
 489 0196 01F26241 		addw	r1, r1, #1122
 490              	.LBB104:
 491              	.LBB76:
 278:Generated_Source\PSoC5/cyfitter_cfg.c **** }
 492              		.loc 1 278 0
 493 019a 43F08003 		orr	r3, r3, #128
 494              	.LBE76:
 495              	.LBE104:
 463:Generated_Source\PSoC5/cyfitter_cfg.c **** 	CY_SET_XTND_REG8((void CYFAR *)(CYREG_PANTHER_WAITPIPE), 0x01u);
 496              		.loc 1 463 0
 497 019e 4FF0810E 		mov	lr, #129
 498              		.loc 1 464 0
 499 01a2 0120     		movs	r0, #1
 500              	.LBB105:
 501              	.LBB106:
 303:Generated_Source\PSoC5/cyfitter_cfg.c **** 	uint8 cr4 = CY_GET_XTND_REG8((void CYFAR *)(CYREG_RESET_CR4));
 502              		.loc 1 303 0
 503 01a4 3F4A     		ldr	r2, .L30+108
 504              	.LBE106:
 505              	.LBE105:
 506              	.LBB111:
 507              	.LBB77:
 278:Generated_Source\PSoC5/cyfitter_cfg.c **** }
 508              		.loc 1 278 0
 509 01a6 2370     		strb	r3, [r4]
 510              	.LBE77:
 511              	.LBE111:
 512              	.LBB112:
 513              	.LBB107:
 304:Generated_Source\PSoC5/cyfitter_cfg.c **** 	uint8 cr5 = CY_GET_XTND_REG8((void CYFAR *)(CYREG_RESET_CR5));
 514              		.loc 1 304 0
 515 01a8 3F4E     		ldr	r6, .L30+112
 516              	.LBE107:
 517              	.LBE112:
 463:Generated_Source\PSoC5/cyfitter_cfg.c **** 	CY_SET_XTND_REG8((void CYFAR *)(CYREG_PANTHER_WAITPIPE), 0x01u);
 518              		.loc 1 463 0
 519 01aa 85F8FFE7 		strb	lr, [r5, #2047]
 520              		.loc 1 464 0
 521 01ae 0870     		strb	r0, [r1]
 522              	.LBB113:
 523              	.LBB108:
 303:Generated_Source\PSoC5/cyfitter_cfg.c **** 	uint8 cr4 = CY_GET_XTND_REG8((void CYFAR *)(CYREG_RESET_CR4));
 524              		.loc 1 303 0
ARM GAS  C:\Users\legoc\AppData\Local\Temp\ccFRWr2w.s 			page 20


 525 01b0 1378     		ldrb	r3, [r2]	@ zero_extendqisi2
 304:Generated_Source\PSoC5/cyfitter_cfg.c **** 	uint8 cr5 = CY_GET_XTND_REG8((void CYFAR *)(CYREG_RESET_CR5));
 526              		.loc 1 304 0
 527 01b2 3578     		ldrb	r5, [r6]	@ zero_extendqisi2
 307:Generated_Source\PSoC5/cyfitter_cfg.c **** 	/* Disable PRES while setting up SAR voltage reference */
 528              		.loc 1 307 0
 529 01b4 3D48     		ldr	r0, .L30+116
 305:Generated_Source\PSoC5/cyfitter_cfg.c **** 	CY_SET_XTND_REG8((void CYFAR *)(CYREG_BG_DFT0), (bg_xover_inl_trim & 0x07u));
 530              		.loc 1 305 0
 531 01b6 97F8F186 		ldrb	r8, [r7, #1777]	@ zero_extendqisi2
 306:Generated_Source\PSoC5/cyfitter_cfg.c **** 	CY_SET_XTND_REG8((void CYFAR *)(CYREG_BG_DFT1), ((bg_xover_inl_trim >> 4) & 0x0Fu));
 532              		.loc 1 306 0
 533 01ba 3D4A     		ldr	r2, .L30+120
 303:Generated_Source\PSoC5/cyfitter_cfg.c **** 	uint8 cr4 = CY_GET_XTND_REG8((void CYFAR *)(CYREG_RESET_CR4));
 534              		.loc 1 303 0
 535 01bc DBB2     		uxtb	r3, r3
 536              	.LVL31:
 306:Generated_Source\PSoC5/cyfitter_cfg.c **** 	CY_SET_XTND_REG8((void CYFAR *)(CYREG_BG_DFT1), ((bg_xover_inl_trim >> 4) & 0x0Fu));
 537              		.loc 1 306 0
 538 01be 03F0070E 		and	lr, r3, #7
 304:Generated_Source\PSoC5/cyfitter_cfg.c **** 	uint8 cr5 = CY_GET_XTND_REG8((void CYFAR *)(CYREG_RESET_CR5));
 539              		.loc 1 304 0
 540 01c2 EDB2     		uxtb	r5, r5
 541              	.LVL32:
 307:Generated_Source\PSoC5/cyfitter_cfg.c **** 	/* Disable PRES while setting up SAR voltage reference */
 542              		.loc 1 307 0
 543 01c4 1B09     		lsrs	r3, r3, #4
 544              	.LVL33:
 306:Generated_Source\PSoC5/cyfitter_cfg.c **** 	CY_SET_XTND_REG8((void CYFAR *)(CYREG_BG_DFT1), ((bg_xover_inl_trim >> 4) & 0x0Fu));
 545              		.loc 1 306 0
 546 01c6 82F800E0 		strb	lr, [r2]
 305:Generated_Source\PSoC5/cyfitter_cfg.c **** 	CY_SET_XTND_REG8((void CYFAR *)(CYREG_BG_DFT0), (bg_xover_inl_trim & 0x07u));
 547              		.loc 1 305 0
 548 01ca 5FFA88F8 		uxtb	r8, r8
 549              	.LVL34:
 307:Generated_Source\PSoC5/cyfitter_cfg.c **** 	/* Disable PRES while setting up SAR voltage reference */
 550              		.loc 1 307 0
 551 01ce 0370     		strb	r3, [r0]
 309:Generated_Source\PSoC5/cyfitter_cfg.c **** 	CY_SET_XTND_REG8((void CYFAR *)(CYREG_RESET_CR5), (cr5 | 0x03u));
 552              		.loc 1 309 0
 553 01d0 45F00303 		orr	r3, r5, #3
 554 01d4 3370     		strb	r3, [r6]
 311:Generated_Source\PSoC5/cyfitter_cfg.c **** 	CY_SET_XTND_REG8((void CYFAR *)CYREG_SAR1_CSR1, 0x80u);
 555              		.loc 1 311 0
 556 01d6 A1F5F521 		sub	r1, r1, #501760
 310:Generated_Source\PSoC5/cyfitter_cfg.c **** 	CY_SET_XTND_REG8((void CYFAR *)CYREG_PRT3_AG, 0x38u);
 557              		.loc 1 310 0
 558 01da 48F00303 		orr	r3, r8, #3
 559 01de 87F8F136 		strb	r3, [r7, #1777]
 311:Generated_Source\PSoC5/cyfitter_cfg.c **** 	CY_SET_XTND_REG8((void CYFAR *)CYREG_SAR1_CSR1, 0x80u);
 560              		.loc 1 311 0
 561 01e2 A1F2C761 		subw	r1, r1, #1735
 312:Generated_Source\PSoC5/cyfitter_cfg.c **** 	CY_SET_XTND_REG8((void CYFAR *)CYREG_DAC2_SW0, 0x10u);
 562              		.loc 1 312 0
 563 01e6 0CF5C85C 		add	ip, ip, #6400
 311:Generated_Source\PSoC5/cyfitter_cfg.c **** 	CY_SET_XTND_REG8((void CYFAR *)CYREG_SAR1_CSR1, 0x80u);
 564              		.loc 1 311 0
ARM GAS  C:\Users\legoc\AppData\Local\Temp\ccFRWr2w.s 			page 21


 565 01ea 3823     		movs	r3, #56
 566 01ec 0B70     		strb	r3, [r1]
 315:Generated_Source\PSoC5/cyfitter_cfg.c **** 	CY_SET_XTND_REG8((void CYFAR *)CYREG_SAR1_SW3, 0x20u);
 567              		.loc 1 315 0
 568 01ee DFF8D0E0 		ldr	lr, .L30+136
 313:Generated_Source\PSoC5/cyfitter_cfg.c **** 	CY_SET_XTND_REG8((void CYFAR *)CYREG_DAC3_SW0, 0x20u);
 569              		.loc 1 313 0
 570 01f2 1023     		movs	r3, #16
 312:Generated_Source\PSoC5/cyfitter_cfg.c **** 	CY_SET_XTND_REG8((void CYFAR *)CYREG_DAC2_SW0, 0x10u);
 571              		.loc 1 312 0
 572 01f4 8021     		movs	r1, #128
 573 01f6 0CF1030C 		add	ip, ip, #3
 574 01fa 8CF80010 		strb	r1, [ip]
 313:Generated_Source\PSoC5/cyfitter_cfg.c **** 	CY_SET_XTND_REG8((void CYFAR *)CYREG_DAC3_SW0, 0x20u);
 575              		.loc 1 313 0
 576 01fe 82F82232 		strb	r3, [r2, #546]
 314:Generated_Source\PSoC5/cyfitter_cfg.c **** 	CY_SET_XTND_REG8((void CYFAR *)CYREG_SAR1_SW0, 0x80u);
 577              		.loc 1 314 0
 578 0202 2022     		movs	r2, #32
 579 0204 80F82922 		strb	r2, [r0, #553]
 315:Generated_Source\PSoC5/cyfitter_cfg.c **** 	CY_SET_XTND_REG8((void CYFAR *)CYREG_SAR1_SW3, 0x20u);
 580              		.loc 1 315 0
 581 0208 8EF80010 		strb	r1, [lr]
 317:Generated_Source\PSoC5/cyfitter_cfg.c **** 	CyDelayUs(10u); /* Allow vref to settle before re-enabling PRES */
 582              		.loc 1 317 0
 583 020c 2949     		ldr	r1, .L30+124
 316:Generated_Source\PSoC5/cyfitter_cfg.c **** 	CY_SET_XTND_REG8((void CYFAR *)CYREG_BUS_SW0, 0x10u);
 584              		.loc 1 316 0
 585 020e 80F8BC22 		strb	r2, [r0, #700]
 318:Generated_Source\PSoC5/cyfitter_cfg.c **** 	CY_SET_XTND_REG8((void CYFAR *)(CYREG_RESET_CR5), (cr5));
 586              		.loc 1 318 0
 587 0212 0A20     		movs	r0, #10
 317:Generated_Source\PSoC5/cyfitter_cfg.c **** 	CyDelayUs(10u); /* Allow vref to settle before re-enabling PRES */
 588              		.loc 1 317 0
 589 0214 0B70     		strb	r3, [r1]
 318:Generated_Source\PSoC5/cyfitter_cfg.c **** 	CY_SET_XTND_REG8((void CYFAR *)(CYREG_RESET_CR5), (cr5));
 590              		.loc 1 318 0
 591 0216 FFF7FEFF 		bl	CyDelayUs
 592              	.LVL35:
 593              	.LBE108:
 594              	.LBE113:
 595              	.LBB114:
 596              	.LBB115:
  86:Generated_Source\PSoC5/cyfitter_cfg.c **** }
 597              		.loc 1 86 0
 598 021a 94E80F00 		ldmia	r4, {r0, r1, r2, r3}
 599              	.LBE115:
 600              	.LBE114:
 601              	.LBB118:
 602              	.LBB109:
 321:Generated_Source\PSoC5/cyfitter_cfg.c **** }
 603              		.loc 1 321 0
 604 021e DFF8A4E0 		ldr	lr, .L30+140
 319:Generated_Source\PSoC5/cyfitter_cfg.c **** 	CY_SET_XTND_REG8((void CYFAR *)(CYREG_RESET_CR4), (cr4));
 605              		.loc 1 319 0
 606 0222 87F8F186 		strb	r8, [r7, #1777]
 607              	.LBE109:
ARM GAS  C:\Users\legoc\AppData\Local\Temp\ccFRWr2w.s 			page 22


 608              	.LBE118:
 609              	.LBB119:
 610              	.LBB116:
  86:Generated_Source\PSoC5/cyfitter_cfg.c **** }
 611              		.loc 1 86 0
 612 0226 1034     		adds	r4, r4, #16
 613              	.LBE116:
 614              	.LBE119:
 615              	.LBB120:
 616              	.LBB110:
 321:Generated_Source\PSoC5/cyfitter_cfg.c **** }
 617              		.loc 1 321 0
 618 0228 4427     		movs	r7, #68
 320:Generated_Source\PSoC5/cyfitter_cfg.c **** 	CY_SET_XTND_REG8((void CYFAR *)CYREG_PUMP_CR0, 0x44u);
 619              		.loc 1 320 0
 620 022a 3570     		strb	r5, [r6]
 321:Generated_Source\PSoC5/cyfitter_cfg.c **** }
 621              		.loc 1 321 0
 622 022c 8EF80070 		strb	r7, [lr]
 623              	.LVL36:
 624              	.LBE110:
 625              	.LBE120:
 626              	.LBB121:
 627              	.LBB117:
  86:Generated_Source\PSoC5/cyfitter_cfg.c **** }
 628              		.loc 1 86 0
 629 0230 07C4     		stmia	r4!, {r0, r1, r2}
 630 0232 2380     		strh	r3, [r4]	@ movhi
 631              	.LVL37:
 632 0234 BDE8F081 		pop	{r4, r5, r6, r7, r8, pc}
 633              	.L31:
 634              		.align	2
 635              	.L30:
 636 0238 00000000 		.word	.LANCHOR0
 637 023c E8460040 		.word	1073759976
 638 0240 50020048 		.word	1207960144
 639 0244 80000140 		.word	1073807488
 640 0248 FCFFFF47 		.word	1207959548
 641 024c 50000048 		.word	1207959632
 642 0250 03500140 		.word	1073827843
 643 0254 13500140 		.word	1073827859
 644 0258 A0430040 		.word	1073759136
 645 025c 02510040 		.word	1073762562
 646 0260 D0020048 		.word	1207960272
 647 0264 F2510040 		.word	1073762802
 648 0268 22430040 		.word	1073759010
 649 026c 12510040 		.word	1073762578
 650 0270 80400040 		.word	1073758336
 651 0274 82400040 		.word	1073758338
 652 0278 00410040 		.word	1073758464
 653 027c 00430040 		.word	1073758976
 654 0280 08010049 		.word	1224737032
 655 0284 20420040 		.word	1073758752
 656 0288 25420040 		.word	1073758757
 657 028c 04400040 		.word	1073758212
 658 0290 08400040 		.word	1073758216
 659 0294 01400040 		.word	1073758209
ARM GAS  C:\Users\legoc\AppData\Local\Temp\ccFRWr2w.s 			page 23


 660 0298 0B400040 		.word	1073758219
 661 029c A2430040 		.word	1073759138
 662 02a0 A1430040 		.word	1073759137
 663 02a4 CF010049 		.word	1224737231
 664 02a8 F8460040 		.word	1073759992
 665 02ac 6F580040 		.word	1073764463
 666 02b0 6E580040 		.word	1073764462
 667 02b4 585B0040 		.word	1073765208
 668 02b8 00480040 		.word	1073760256
 669 02bc 06400040 		.word	1073758214
 670 02c0 285B0040 		.word	1073765160
 671 02c4 76580040 		.word	1073764470
 672              	.LBE117:
 673              	.LBE121:
 674              		.cfi_endproc
 675              	.LFE8:
 676              		.size	cyfitter_cfg, .-cyfitter_cfg
 677              		.section	.rodata
 678              		.align	2
 679              		.set	.LANCHOR0,. + 0
 680              		.type	cfg_memset_list.5020, %object
 681              		.size	cfg_memset_list.5020, 60
 682              	cfg_memset_list.5020:
 683 0000 C8490040 		.word	1073760712
 684 0004 1900     		.short	25
 685 0006 20510040 		.4byte	1073762592
 686 000a 1000     		.short	16
 687 000c 40510040 		.word	1073762624
 688 0010 3000     		.short	48
 689 0012 C0510040 		.4byte	1073762752
 690 0016 1000     		.short	16
 691 0018 00000140 		.word	1073807360
 692 001c 8000     		.short	128
 693 001e 00010140 		.4byte	1073807616
 694 0022 000F     		.short	3840
 695 0024 00140140 		.word	1073812480
 696 0028 0008     		.short	2048
 697 002a 00400140 		.4byte	1073823744
 698 002e 000A     		.short	2560
 699 0030 004C0140 		.word	1073826816
 700 0034 0002     		.short	512
 701 0036 00500140 		.4byte	1073827840
 702 003a 2000     		.short	32
 703              		.text
 704              	.Letext0:
 705              		.file 2 "d:\\psoc\\psoc creator\\4.2\\psoc creator\\import\\gnu\\arm\\5.4.1\\lib\\gcc\\arm-none-ea
 706              		.file 3 "Generated_Source\\PSoC5\\cytypes.h"
 707              		.file 4 "Generated_Source\\PSoC5\\CyLib.h"