ARM GAS  C:\Users\JACOB-~1\AppData\Local\Temp\ccw3VjKm.s 			page 1


   1              		.syntax unified
   2              		.cpu cortex-m3
   3              		.fpu softvfp
   4              		.eabi_attribute 20, 1
   5              		.eabi_attribute 21, 1
   6              		.eabi_attribute 23, 3
   7              		.eabi_attribute 24, 1
   8              		.eabi_attribute 25, 1
   9              		.eabi_attribute 26, 1
  10              		.eabi_attribute 30, 2
  11              		.eabi_attribute 34, 1
  12              		.eabi_attribute 18, 4
  13              		.thumb
  14              		.syntax unified
  15              		.file	"emFile_1_PM.c"
  16              		.text
  17              	.Ltext0:
  18              		.cfi_sections	.debug_frame
  19              		.section	.text.emFile_1_SaveConfig,"ax",%progbits
  20              		.align	2
  21              		.global	emFile_1_SaveConfig
  22              		.thumb
  23              		.thumb_func
  24              		.type	emFile_1_SaveConfig, %function
  25              	emFile_1_SaveConfig:
  26              	.LFB68:
  27              		.cfi_startproc
  28              		@ args = 0, pretend = 0, frame = 0
  29              		@ frame_needed = 0, uses_anonymous_args = 0
  30              		@ link register save eliminated.
  31 0000 FFF7FEBF 		b	emFile_1_SPI0_SaveConfig
  32              		.cfi_endproc
  33              	.LFE68:
  34              		.size	emFile_1_SaveConfig, .-emFile_1_SaveConfig
  35              		.section	.text.emFile_1_RestoreConfig,"ax",%progbits
  36              		.align	2
  37              		.global	emFile_1_RestoreConfig
  38              		.thumb
  39              		.thumb_func
  40              		.type	emFile_1_RestoreConfig, %function
  41              	emFile_1_RestoreConfig:
  42              	.LFB64:
  43              		.file 1 "Generated_Source\\PSoC5\\emFile_1_PM.c"
   1:Generated_Source\PSoC5/emFile_1_PM.c **** /*******************************************************************************
   2:Generated_Source\PSoC5/emFile_1_PM.c **** * File Name: emFile_1_PM.c
   3:Generated_Source\PSoC5/emFile_1_PM.c **** * Version 1.20
   4:Generated_Source\PSoC5/emFile_1_PM.c **** *
   5:Generated_Source\PSoC5/emFile_1_PM.c **** * Description:
   6:Generated_Source\PSoC5/emFile_1_PM.c **** *  This file provides the API source code for Power Management of the emFile
   7:Generated_Source\PSoC5/emFile_1_PM.c **** *  component.
   8:Generated_Source\PSoC5/emFile_1_PM.c **** *
   9:Generated_Source\PSoC5/emFile_1_PM.c **** * Note:
  10:Generated_Source\PSoC5/emFile_1_PM.c **** *
  11:Generated_Source\PSoC5/emFile_1_PM.c **** *******************************************************************************
  12:Generated_Source\PSoC5/emFile_1_PM.c **** * Copyright 2011-2012, Cypress Semiconductor Corporation.  All rights reserved.
  13:Generated_Source\PSoC5/emFile_1_PM.c **** * You may use this file only in accordance with the license, terms, conditions,
  14:Generated_Source\PSoC5/emFile_1_PM.c **** * disclaimers, and limitations in the end user license agreement accompanying
ARM GAS  C:\Users\JACOB-~1\AppData\Local\Temp\ccw3VjKm.s 			page 2


  15:Generated_Source\PSoC5/emFile_1_PM.c **** * the software package with which this file was provided.
  16:Generated_Source\PSoC5/emFile_1_PM.c **** *******************************************************************************/
  17:Generated_Source\PSoC5/emFile_1_PM.c **** 
  18:Generated_Source\PSoC5/emFile_1_PM.c **** #include <project.h>
  19:Generated_Source\PSoC5/emFile_1_PM.c **** #include "emFile_1.h"
  20:Generated_Source\PSoC5/emFile_1_PM.c **** 
  21:Generated_Source\PSoC5/emFile_1_PM.c **** 
  22:Generated_Source\PSoC5/emFile_1_PM.c **** /*******************************************************************************
  23:Generated_Source\PSoC5/emFile_1_PM.c **** * Function Name: emFile_1_SaveConfig
  24:Generated_Source\PSoC5/emFile_1_PM.c **** ********************************************************************************
  25:Generated_Source\PSoC5/emFile_1_PM.c **** *
  26:Generated_Source\PSoC5/emFile_1_PM.c **** * Summary:
  27:Generated_Source\PSoC5/emFile_1_PM.c **** *  Saves SPI Masters configuration.
  28:Generated_Source\PSoC5/emFile_1_PM.c **** *
  29:Generated_Source\PSoC5/emFile_1_PM.c **** * Parameters:
  30:Generated_Source\PSoC5/emFile_1_PM.c **** *  None
  31:Generated_Source\PSoC5/emFile_1_PM.c **** *
  32:Generated_Source\PSoC5/emFile_1_PM.c **** * Return:
  33:Generated_Source\PSoC5/emFile_1_PM.c **** *  None
  34:Generated_Source\PSoC5/emFile_1_PM.c **** *
  35:Generated_Source\PSoC5/emFile_1_PM.c **** * Reentrant:
  36:Generated_Source\PSoC5/emFile_1_PM.c **** *  No
  37:Generated_Source\PSoC5/emFile_1_PM.c **** *
  38:Generated_Source\PSoC5/emFile_1_PM.c **** *******************************************************************************/
  39:Generated_Source\PSoC5/emFile_1_PM.c **** void emFile_1_SaveConfig(void) 
  40:Generated_Source\PSoC5/emFile_1_PM.c **** {
  41:Generated_Source\PSoC5/emFile_1_PM.c ****     #if(emFile_1_NUMBER_SD_CARDS == 4u)
  42:Generated_Source\PSoC5/emFile_1_PM.c ****         emFile_1_SPI0_SaveConfig();
  43:Generated_Source\PSoC5/emFile_1_PM.c ****         emFile_1_SPI1_SaveConfig();
  44:Generated_Source\PSoC5/emFile_1_PM.c ****         emFile_1_SPI2_SaveConfig();
  45:Generated_Source\PSoC5/emFile_1_PM.c ****         emFile_1_SPI3_SaveConfig();
  46:Generated_Source\PSoC5/emFile_1_PM.c ****     #elif(emFile_1_NUMBER_SD_CARDS == 3u)
  47:Generated_Source\PSoC5/emFile_1_PM.c ****         emFile_1_SPI0_SaveConfig();
  48:Generated_Source\PSoC5/emFile_1_PM.c ****         emFile_1_SPI1_SaveConfig();
  49:Generated_Source\PSoC5/emFile_1_PM.c ****         emFile_1_SPI2_SaveConfig();
  50:Generated_Source\PSoC5/emFile_1_PM.c ****     #elif(emFile_1_NUMBER_SD_CARDS == 2u)
  51:Generated_Source\PSoC5/emFile_1_PM.c ****         emFile_1_SPI0_SaveConfig();
  52:Generated_Source\PSoC5/emFile_1_PM.c ****         emFile_1_SPI1_SaveConfig();
  53:Generated_Source\PSoC5/emFile_1_PM.c ****     #else
  54:Generated_Source\PSoC5/emFile_1_PM.c ****         emFile_1_SPI0_SaveConfig();
  55:Generated_Source\PSoC5/emFile_1_PM.c ****     #endif /* (emFile_1_NUMBER_SD_CARDS == 4u) */
  56:Generated_Source\PSoC5/emFile_1_PM.c **** }
  57:Generated_Source\PSoC5/emFile_1_PM.c **** 
  58:Generated_Source\PSoC5/emFile_1_PM.c **** 
  59:Generated_Source\PSoC5/emFile_1_PM.c **** /*******************************************************************************
  60:Generated_Source\PSoC5/emFile_1_PM.c **** * Function Name: emFile_1_RestoreConfig
  61:Generated_Source\PSoC5/emFile_1_PM.c **** ********************************************************************************
  62:Generated_Source\PSoC5/emFile_1_PM.c **** *
  63:Generated_Source\PSoC5/emFile_1_PM.c **** * Summary:
  64:Generated_Source\PSoC5/emFile_1_PM.c **** *  Restores SPI Masters configuration.
  65:Generated_Source\PSoC5/emFile_1_PM.c **** *
  66:Generated_Source\PSoC5/emFile_1_PM.c **** * Parameters:
  67:Generated_Source\PSoC5/emFile_1_PM.c **** *  None
  68:Generated_Source\PSoC5/emFile_1_PM.c **** *
  69:Generated_Source\PSoC5/emFile_1_PM.c **** * Return:
  70:Generated_Source\PSoC5/emFile_1_PM.c **** *  None
  71:Generated_Source\PSoC5/emFile_1_PM.c **** *
ARM GAS  C:\Users\JACOB-~1\AppData\Local\Temp\ccw3VjKm.s 			page 3


  72:Generated_Source\PSoC5/emFile_1_PM.c **** * Side Effects:
  73:Generated_Source\PSoC5/emFile_1_PM.c **** *  If this API is called without first calling SaveConfig then in the following
  74:Generated_Source\PSoC5/emFile_1_PM.c **** *  registers will be default values from Customizer:
  75:Generated_Source\PSoC5/emFile_1_PM.c **** *
  76:Generated_Source\PSoC5/emFile_1_PM.c **** *******************************************************************************/
  77:Generated_Source\PSoC5/emFile_1_PM.c **** void emFile_1_RestoreConfig(void) 
  78:Generated_Source\PSoC5/emFile_1_PM.c **** {
  44              		.loc 1 78 0
  45              		.cfi_startproc
  46              		@ args = 0, pretend = 0, frame = 0
  47              		@ frame_needed = 0, uses_anonymous_args = 0
  48              		@ link register save eliminated.
  79:Generated_Source\PSoC5/emFile_1_PM.c ****     #if(emFile_1_NUMBER_SD_CARDS == 4u)
  80:Generated_Source\PSoC5/emFile_1_PM.c ****         emFile_1_SPI0_RestoreConfig();
  81:Generated_Source\PSoC5/emFile_1_PM.c ****         emFile_1_SPI1_RestoreConfig();
  82:Generated_Source\PSoC5/emFile_1_PM.c ****         emFile_1_SPI2_RestoreConfig();
  83:Generated_Source\PSoC5/emFile_1_PM.c ****         emFile_1_SPI3_RestoreConfig();
  84:Generated_Source\PSoC5/emFile_1_PM.c ****     #elif(emFile_1_NUMBER_SD_CARDS == 3u)
  85:Generated_Source\PSoC5/emFile_1_PM.c ****         emFile_1_SPI0_SaveConfig();
  86:Generated_Source\PSoC5/emFile_1_PM.c ****         emFile_1_SPI1_SaveConfig();
  87:Generated_Source\PSoC5/emFile_1_PM.c ****         emFile_1_SPI2_SaveConfig();
  88:Generated_Source\PSoC5/emFile_1_PM.c ****     #elif(emFile_1_NUMBER_SD_CARDS == 2u)
  89:Generated_Source\PSoC5/emFile_1_PM.c ****         emFile_1_SPI0_SaveConfig();
  90:Generated_Source\PSoC5/emFile_1_PM.c ****         emFile_1_SPI1_SaveConfig();
  91:Generated_Source\PSoC5/emFile_1_PM.c ****     #else
  92:Generated_Source\PSoC5/emFile_1_PM.c ****         emFile_1_SPI0_SaveConfig();
  49              		.loc 1 92 0
  50 0000 FFF7FEBF 		b	emFile_1_SPI0_SaveConfig
  51              	.LVL0:
  52              		.cfi_endproc
  53              	.LFE64:
  54              		.size	emFile_1_RestoreConfig, .-emFile_1_RestoreConfig
  55              		.section	.text.emFile_1_Sleep,"ax",%progbits
  56              		.align	2
  57              		.global	emFile_1_Sleep
  58              		.thumb
  59              		.thumb_func
  60              		.type	emFile_1_Sleep, %function
  61              	emFile_1_Sleep:
  62              	.LFB65:
  93:Generated_Source\PSoC5/emFile_1_PM.c ****     #endif /* (emFile_1_NUMBER_SD_CARDS == 4u) */
  94:Generated_Source\PSoC5/emFile_1_PM.c **** }
  95:Generated_Source\PSoC5/emFile_1_PM.c **** 
  96:Generated_Source\PSoC5/emFile_1_PM.c **** 
  97:Generated_Source\PSoC5/emFile_1_PM.c **** /*******************************************************************************
  98:Generated_Source\PSoC5/emFile_1_PM.c **** * Function Name: emFile_1_Sleep
  99:Generated_Source\PSoC5/emFile_1_PM.c **** ********************************************************************************
 100:Generated_Source\PSoC5/emFile_1_PM.c **** *
 101:Generated_Source\PSoC5/emFile_1_PM.c **** * Summary:
 102:Generated_Source\PSoC5/emFile_1_PM.c **** *  Prepare emFile to go to sleep.
 103:Generated_Source\PSoC5/emFile_1_PM.c **** *
 104:Generated_Source\PSoC5/emFile_1_PM.c **** * Parameters:
 105:Generated_Source\PSoC5/emFile_1_PM.c **** *  None
 106:Generated_Source\PSoC5/emFile_1_PM.c **** *
 107:Generated_Source\PSoC5/emFile_1_PM.c **** * Return:
 108:Generated_Source\PSoC5/emFile_1_PM.c **** *  None
 109:Generated_Source\PSoC5/emFile_1_PM.c **** *
ARM GAS  C:\Users\JACOB-~1\AppData\Local\Temp\ccw3VjKm.s 			page 4


 110:Generated_Source\PSoC5/emFile_1_PM.c **** * Reentrant:
 111:Generated_Source\PSoC5/emFile_1_PM.c **** *  No
 112:Generated_Source\PSoC5/emFile_1_PM.c **** *
 113:Generated_Source\PSoC5/emFile_1_PM.c **** *******************************************************************************/
 114:Generated_Source\PSoC5/emFile_1_PM.c **** void emFile_1_Sleep(void) 
 115:Generated_Source\PSoC5/emFile_1_PM.c **** {
  63              		.loc 1 115 0
  64              		.cfi_startproc
  65              		@ args = 0, pretend = 0, frame = 0
  66              		@ frame_needed = 0, uses_anonymous_args = 0
  67              		@ link register save eliminated.
 116:Generated_Source\PSoC5/emFile_1_PM.c ****     #if(emFile_1_NUMBER_SD_CARDS == 4u)
 117:Generated_Source\PSoC5/emFile_1_PM.c ****         emFile_1_SPI0_Sleep();
 118:Generated_Source\PSoC5/emFile_1_PM.c ****         emFile_1_SPI1_Sleep();
 119:Generated_Source\PSoC5/emFile_1_PM.c ****         emFile_1_SPI2_Sleep();
 120:Generated_Source\PSoC5/emFile_1_PM.c ****         emFile_1_SPI3_Sleep();
 121:Generated_Source\PSoC5/emFile_1_PM.c ****     #elif(emFile_1_NUMBER_SD_CARDS == 3u)
 122:Generated_Source\PSoC5/emFile_1_PM.c ****         emFile_1_SPI0_Sleep();
 123:Generated_Source\PSoC5/emFile_1_PM.c ****         emFile_1_SPI1_Sleep();
 124:Generated_Source\PSoC5/emFile_1_PM.c ****         emFile_1_SPI2_Sleep();
 125:Generated_Source\PSoC5/emFile_1_PM.c ****     #elif(emFile_1_NUMBER_SD_CARDS == 2u)
 126:Generated_Source\PSoC5/emFile_1_PM.c ****         emFile_1_SPI0_Sleep();
 127:Generated_Source\PSoC5/emFile_1_PM.c ****         emFile_1_SPI1_Sleep();
 128:Generated_Source\PSoC5/emFile_1_PM.c ****     #else
 129:Generated_Source\PSoC5/emFile_1_PM.c ****         emFile_1_SPI0_Sleep();
  68              		.loc 1 129 0
  69 0000 FFF7FEBF 		b	emFile_1_SPI0_Sleep
  70              	.LVL1:
  71              		.cfi_endproc
  72              	.LFE65:
  73              		.size	emFile_1_Sleep, .-emFile_1_Sleep
  74              		.section	.text.emFile_1_Wakeup,"ax",%progbits
  75              		.align	2
  76              		.global	emFile_1_Wakeup
  77              		.thumb
  78              		.thumb_func
  79              		.type	emFile_1_Wakeup, %function
  80              	emFile_1_Wakeup:
  81              	.LFB66:
 130:Generated_Source\PSoC5/emFile_1_PM.c ****     #endif /* (emFile_1_NUMBER_SD_CARDS == 4u) */
 131:Generated_Source\PSoC5/emFile_1_PM.c **** }
 132:Generated_Source\PSoC5/emFile_1_PM.c **** 
 133:Generated_Source\PSoC5/emFile_1_PM.c **** 
 134:Generated_Source\PSoC5/emFile_1_PM.c **** /*******************************************************************************
 135:Generated_Source\PSoC5/emFile_1_PM.c **** * Function Name: emFile_1_Wakeup
 136:Generated_Source\PSoC5/emFile_1_PM.c **** ********************************************************************************
 137:Generated_Source\PSoC5/emFile_1_PM.c **** *
 138:Generated_Source\PSoC5/emFile_1_PM.c **** * Summary:
 139:Generated_Source\PSoC5/emFile_1_PM.c **** *  Prepare SPIM Components to wake up.
 140:Generated_Source\PSoC5/emFile_1_PM.c **** *
 141:Generated_Source\PSoC5/emFile_1_PM.c **** * Parameters:
 142:Generated_Source\PSoC5/emFile_1_PM.c **** *  None
 143:Generated_Source\PSoC5/emFile_1_PM.c **** *
 144:Generated_Source\PSoC5/emFile_1_PM.c **** * Return:
 145:Generated_Source\PSoC5/emFile_1_PM.c **** *  None
 146:Generated_Source\PSoC5/emFile_1_PM.c **** *
 147:Generated_Source\PSoC5/emFile_1_PM.c **** * Reentrant:
ARM GAS  C:\Users\JACOB-~1\AppData\Local\Temp\ccw3VjKm.s 			page 5


 148:Generated_Source\PSoC5/emFile_1_PM.c **** *  No
 149:Generated_Source\PSoC5/emFile_1_PM.c **** *
 150:Generated_Source\PSoC5/emFile_1_PM.c **** *******************************************************************************/
 151:Generated_Source\PSoC5/emFile_1_PM.c **** void emFile_1_Wakeup(void) 
 152:Generated_Source\PSoC5/emFile_1_PM.c **** {
  82              		.loc 1 152 0
  83              		.cfi_startproc
  84              		@ args = 0, pretend = 0, frame = 0
  85              		@ frame_needed = 0, uses_anonymous_args = 0
  86              		@ link register save eliminated.
 153:Generated_Source\PSoC5/emFile_1_PM.c ****     #if(emFile_1_NUMBER_SD_CARDS == 4u)
 154:Generated_Source\PSoC5/emFile_1_PM.c ****         emFile_1_SPI0_Wakeup();
 155:Generated_Source\PSoC5/emFile_1_PM.c ****         emFile_1_SPI1_Wakeup();
 156:Generated_Source\PSoC5/emFile_1_PM.c ****         emFile_1_SPI2_Wakeup();
 157:Generated_Source\PSoC5/emFile_1_PM.c ****         emFile_1_SPI3_Wakeup();
 158:Generated_Source\PSoC5/emFile_1_PM.c ****     #elif(emFile_1_NUMBER_SD_CARDS == 3u)
 159:Generated_Source\PSoC5/emFile_1_PM.c ****         emFile_1_SPI0_Wakeup();
 160:Generated_Source\PSoC5/emFile_1_PM.c ****         emFile_1_SPI1_Wakeup();
 161:Generated_Source\PSoC5/emFile_1_PM.c ****         emFile_1_SPI2_Wakeup();
 162:Generated_Source\PSoC5/emFile_1_PM.c ****     #elif(emFile_1_NUMBER_SD_CARDS == 2u)
 163:Generated_Source\PSoC5/emFile_1_PM.c ****         emFile_1_SPI0_Wakeup();
 164:Generated_Source\PSoC5/emFile_1_PM.c ****         emFile_1_SPI1_Wakeup();
 165:Generated_Source\PSoC5/emFile_1_PM.c ****     #else
 166:Generated_Source\PSoC5/emFile_1_PM.c ****         emFile_1_SPI0_Wakeup();
  87              		.loc 1 166 0
  88 0000 FFF7FEBF 		b	emFile_1_SPI0_Wakeup
  89              	.LVL2:
  90              		.cfi_endproc
  91              	.LFE66:
  92              		.size	emFile_1_Wakeup, .-emFile_1_Wakeup
  93              		.text
  94              	.Letext0:
  95              		.file 2 "c:\\program files (x86)\\cypress\\psoc creator\\4.2\\psoc creator\\import\\gnu\\arm\\5.4.
  96              		.file 3 "c:\\program files (x86)\\cypress\\psoc creator\\4.2\\psoc creator\\import\\gnu\\arm\\5.4.
  97              		.file 4 "Generated_Source\\PSoC5/emFile_1_SPI0.h"
  98              		.file 5 "Generated_Source\\PSoC5/core_cm3.h"