ARM GAS  C:\Users\legoc\AppData\Local\Temp\ccTNsKxC.s 			page 1


   1              		.syntax unified
   2              		.cpu cortex-m3
   3              		.fpu softvfp
   4              		.eabi_attribute 20, 1
   5              		.eabi_attribute 21, 1
   6              		.eabi_attribute 23, 3
   7              		.eabi_attribute 24, 1
   8              		.eabi_attribute 25, 1
   9              		.eabi_attribute 26, 1
  10              		.eabi_attribute 30, 2
  11              		.eabi_attribute 34, 1
  12              		.eabi_attribute 18, 4
  13              		.thumb
  14              		.syntax unified
  15              		.file	"emFile_1_ConfigMMC_SPI.c"
  16              		.text
  17              	.Ltext0:
  18              		.cfi_sections	.debug_frame
  19              		.section	.text.FS_X_AddDevices,"ax",%progbits
  20              		.align	2
  21              		.global	FS_X_AddDevices
  22              		.thumb
  23              		.thumb_func
  24              		.type	FS_X_AddDevices, %function
  25              	FS_X_AddDevices:
  26              	.LFB0:
  27              		.file 1 "Generated_Source\\PSoC5\\emFile_1_ConfigMMC_SPI.c"
   1:Generated_Source\PSoC5/emFile_1_ConfigMMC_SPI.c **** /*******************************************************************************
   2:Generated_Source\PSoC5/emFile_1_ConfigMMC_SPI.c **** * File Name: emFile_1_MMC_HW_SPI.c
   3:Generated_Source\PSoC5/emFile_1_ConfigMMC_SPI.c **** * Version 1.20
   4:Generated_Source\PSoC5/emFile_1_ConfigMMC_SPI.c **** *
   5:Generated_Source\PSoC5/emFile_1_ConfigMMC_SPI.c **** * Description:
   6:Generated_Source\PSoC5/emFile_1_ConfigMMC_SPI.c **** *  Contains a set of File System APIs that implement SPI mode driver operation.
   7:Generated_Source\PSoC5/emFile_1_ConfigMMC_SPI.c **** *
   8:Generated_Source\PSoC5/emFile_1_ConfigMMC_SPI.c **** * Note:
   9:Generated_Source\PSoC5/emFile_1_ConfigMMC_SPI.c **** *
  10:Generated_Source\PSoC5/emFile_1_ConfigMMC_SPI.c **** ********************************************************************************
  11:Generated_Source\PSoC5/emFile_1_ConfigMMC_SPI.c **** * Copyright 2011-2012, Cypress Semiconductor Corporation.  All rights reserved.
  12:Generated_Source\PSoC5/emFile_1_ConfigMMC_SPI.c **** * You may use this file only in accordance with the license, terms, conditions,
  13:Generated_Source\PSoC5/emFile_1_ConfigMMC_SPI.c **** * disclaimers, and limitations in the end user license agreement accompanying
  14:Generated_Source\PSoC5/emFile_1_ConfigMMC_SPI.c **** * the software package with which this file was provided.
  15:Generated_Source\PSoC5/emFile_1_ConfigMMC_SPI.c **** *******************************************************************************/
  16:Generated_Source\PSoC5/emFile_1_ConfigMMC_SPI.c **** 
  17:Generated_Source\PSoC5/emFile_1_ConfigMMC_SPI.c **** 
  18:Generated_Source\PSoC5/emFile_1_ConfigMMC_SPI.c **** /*********************************************************************
  19:Generated_Source\PSoC5/emFile_1_ConfigMMC_SPI.c **** *                SEGGER MICROCONTROLLER GmbH & Co. KG                *
  20:Generated_Source\PSoC5/emFile_1_ConfigMMC_SPI.c **** *        Solutions for real time microcontroller applications        *
  21:Generated_Source\PSoC5/emFile_1_ConfigMMC_SPI.c **** **********************************************************************
  22:Generated_Source\PSoC5/emFile_1_ConfigMMC_SPI.c **** *                                                                    *
  23:Generated_Source\PSoC5/emFile_1_ConfigMMC_SPI.c **** *        (c) 2003-2010     SEGGER Microcontroller GmbH & Co KG       *
  24:Generated_Source\PSoC5/emFile_1_ConfigMMC_SPI.c **** *                                                                    *
  25:Generated_Source\PSoC5/emFile_1_ConfigMMC_SPI.c **** *        Internet: www.segger.com    Support:  support@segger.com    *
  26:Generated_Source\PSoC5/emFile_1_ConfigMMC_SPI.c **** *                                                                    *
  27:Generated_Source\PSoC5/emFile_1_ConfigMMC_SPI.c **** **********************************************************************
  28:Generated_Source\PSoC5/emFile_1_ConfigMMC_SPI.c **** 
  29:Generated_Source\PSoC5/emFile_1_ConfigMMC_SPI.c **** **** emFile file system for embedded applications ****
  30:Generated_Source\PSoC5/emFile_1_ConfigMMC_SPI.c **** emFile is protected by international copyright laws. Knowledge of the
ARM GAS  C:\Users\legoc\AppData\Local\Temp\ccTNsKxC.s 			page 2


  31:Generated_Source\PSoC5/emFile_1_ConfigMMC_SPI.c **** source code may not be used to write a similar product. This file may
  32:Generated_Source\PSoC5/emFile_1_ConfigMMC_SPI.c **** only be used in accordance with a license and should not be re-
  33:Generated_Source\PSoC5/emFile_1_ConfigMMC_SPI.c **** distributed in any way. We appreciate your understanding and fairness.
  34:Generated_Source\PSoC5/emFile_1_ConfigMMC_SPI.c **** ----------------------------------------------------------------------
  35:Generated_Source\PSoC5/emFile_1_ConfigMMC_SPI.c **** ----------------------------------------------------------------------
  36:Generated_Source\PSoC5/emFile_1_ConfigMMC_SPI.c **** File        : ConfigMMC_SPI.c
  37:Generated_Source\PSoC5/emFile_1_ConfigMMC_SPI.c **** Purpose     : Configuration file for FS with MMC SPI mode driver
  38:Generated_Source\PSoC5/emFile_1_ConfigMMC_SPI.c **** ---------------------------END-OF-HEADER------------------------------
  39:Generated_Source\PSoC5/emFile_1_ConfigMMC_SPI.c **** */
  40:Generated_Source\PSoC5/emFile_1_ConfigMMC_SPI.c **** 
  41:Generated_Source\PSoC5/emFile_1_ConfigMMC_SPI.c **** #include "FS.h"
  42:Generated_Source\PSoC5/emFile_1_ConfigMMC_SPI.c **** #include "emFile_1.h"
  43:Generated_Source\PSoC5/emFile_1_ConfigMMC_SPI.c **** 
  44:Generated_Source\PSoC5/emFile_1_ConfigMMC_SPI.c **** /*********************************************************************
  45:Generated_Source\PSoC5/emFile_1_ConfigMMC_SPI.c **** *
  46:Generated_Source\PSoC5/emFile_1_ConfigMMC_SPI.c **** *       Defines, configurable
  47:Generated_Source\PSoC5/emFile_1_ConfigMMC_SPI.c **** *
  48:Generated_Source\PSoC5/emFile_1_ConfigMMC_SPI.c **** *       This section is the only section which requires changes
  49:Generated_Source\PSoC5/emFile_1_ConfigMMC_SPI.c **** *       using the MMC/SD card mode disk driver as a single device.
  50:Generated_Source\PSoC5/emFile_1_ConfigMMC_SPI.c **** *
  51:Generated_Source\PSoC5/emFile_1_ConfigMMC_SPI.c **** **********************************************************************
  52:Generated_Source\PSoC5/emFile_1_ConfigMMC_SPI.c **** */
  53:Generated_Source\PSoC5/emFile_1_ConfigMMC_SPI.c **** #define ALLOC_SIZE                 (0x1000)      /* Size defined in bytes */
  54:Generated_Source\PSoC5/emFile_1_ConfigMMC_SPI.c **** 
  55:Generated_Source\PSoC5/emFile_1_ConfigMMC_SPI.c **** /*********************************************************************
  56:Generated_Source\PSoC5/emFile_1_ConfigMMC_SPI.c **** *
  57:Generated_Source\PSoC5/emFile_1_ConfigMMC_SPI.c **** *       Static data
  58:Generated_Source\PSoC5/emFile_1_ConfigMMC_SPI.c **** *
  59:Generated_Source\PSoC5/emFile_1_ConfigMMC_SPI.c **** **********************************************************************
  60:Generated_Source\PSoC5/emFile_1_ConfigMMC_SPI.c **** */
  61:Generated_Source\PSoC5/emFile_1_ConfigMMC_SPI.c **** static U32   _aMemBlock[ALLOC_SIZE / 4u];      /* Memory pool used for semi-dynamic allocation. */
  62:Generated_Source\PSoC5/emFile_1_ConfigMMC_SPI.c **** 
  63:Generated_Source\PSoC5/emFile_1_ConfigMMC_SPI.c **** /*********************************************************************
  64:Generated_Source\PSoC5/emFile_1_ConfigMMC_SPI.c **** *
  65:Generated_Source\PSoC5/emFile_1_ConfigMMC_SPI.c **** *       Public code
  66:Generated_Source\PSoC5/emFile_1_ConfigMMC_SPI.c **** *
  67:Generated_Source\PSoC5/emFile_1_ConfigMMC_SPI.c **** *       This section does not require modifications in most systems.
  68:Generated_Source\PSoC5/emFile_1_ConfigMMC_SPI.c **** *
  69:Generated_Source\PSoC5/emFile_1_ConfigMMC_SPI.c **** **********************************************************************
  70:Generated_Source\PSoC5/emFile_1_ConfigMMC_SPI.c **** */
  71:Generated_Source\PSoC5/emFile_1_ConfigMMC_SPI.c **** 
  72:Generated_Source\PSoC5/emFile_1_ConfigMMC_SPI.c **** /*********************************************************************
  73:Generated_Source\PSoC5/emFile_1_ConfigMMC_SPI.c **** *
  74:Generated_Source\PSoC5/emFile_1_ConfigMMC_SPI.c **** *       FS_X_AddDevices
  75:Generated_Source\PSoC5/emFile_1_ConfigMMC_SPI.c **** *
  76:Generated_Source\PSoC5/emFile_1_ConfigMMC_SPI.c **** *  Function description
  77:Generated_Source\PSoC5/emFile_1_ConfigMMC_SPI.c **** *    This function is called by the FS during FS_Init().
  78:Generated_Source\PSoC5/emFile_1_ConfigMMC_SPI.c **** *    It is supposed to add all devices, using primarily FS_AddDevice().
  79:Generated_Source\PSoC5/emFile_1_ConfigMMC_SPI.c **** *
  80:Generated_Source\PSoC5/emFile_1_ConfigMMC_SPI.c **** *  Note
  81:Generated_Source\PSoC5/emFile_1_ConfigMMC_SPI.c **** *    (1) Other API functions
  82:Generated_Source\PSoC5/emFile_1_ConfigMMC_SPI.c **** *        Other API functions may NOT be called, since this function is called
  83:Generated_Source\PSoC5/emFile_1_ConfigMMC_SPI.c **** *        during initialization. The devices are not yet ready at this point.
  84:Generated_Source\PSoC5/emFile_1_ConfigMMC_SPI.c **** */
  85:Generated_Source\PSoC5/emFile_1_ConfigMMC_SPI.c **** void FS_X_AddDevices(void)
  86:Generated_Source\PSoC5/emFile_1_ConfigMMC_SPI.c **** {
  28              		.loc 1 86 0
ARM GAS  C:\Users\legoc\AppData\Local\Temp\ccTNsKxC.s 			page 3


  29              		.cfi_startproc
  30              		@ args = 0, pretend = 0, frame = 0
  31              		@ frame_needed = 0, uses_anonymous_args = 0
  32 0000 08B5     		push	{r3, lr}
  33              		.cfi_def_cfa_offset 8
  34              		.cfi_offset 3, -8
  35              		.cfi_offset 14, -4
  87:Generated_Source\PSoC5/emFile_1_ConfigMMC_SPI.c ****     #if(CY_PSOC5)
  88:Generated_Source\PSoC5/emFile_1_ConfigMMC_SPI.c ****         FS_AssignMemory(&_aMemBlock[0u], sizeof(_aMemBlock));
  36              		.loc 1 88 0
  37 0002 0548     		ldr	r0, .L3
  38 0004 4FF48051 		mov	r1, #4096
  39 0008 FFF7FEFF 		bl	FS_AssignMemory
  40              	.LVL0:
  89:Generated_Source\PSoC5/emFile_1_ConfigMMC_SPI.c ****     #else
  90:Generated_Source\PSoC5/emFile_1_ConfigMMC_SPI.c ****         FS_AssignMemory(&_aMemBlock[1u], sizeof(_aMemBlock));
  91:Generated_Source\PSoC5/emFile_1_ConfigMMC_SPI.c ****     #endif/* (CY_PSOC5) */
  92:Generated_Source\PSoC5/emFile_1_ConfigMMC_SPI.c **** 
  93:Generated_Source\PSoC5/emFile_1_ConfigMMC_SPI.c ****     #if (emFile_1_NUMBER_SD_CARDS == 4u)
  94:Generated_Source\PSoC5/emFile_1_ConfigMMC_SPI.c ****         FS_AddDevice(&FS_MMC_SPI_Driver);
  95:Generated_Source\PSoC5/emFile_1_ConfigMMC_SPI.c ****         FS_AddDevice(&FS_MMC_SPI_Driver);
  96:Generated_Source\PSoC5/emFile_1_ConfigMMC_SPI.c ****         FS_AddDevice(&FS_MMC_SPI_Driver);
  97:Generated_Source\PSoC5/emFile_1_ConfigMMC_SPI.c ****         FS_AddDevice(&FS_MMC_SPI_Driver);
  98:Generated_Source\PSoC5/emFile_1_ConfigMMC_SPI.c ****     #elif (emFile_1_NUMBER_SD_CARDS == 3u)
  99:Generated_Source\PSoC5/emFile_1_ConfigMMC_SPI.c ****         FS_AddDevice(&FS_MMC_SPI_Driver);
 100:Generated_Source\PSoC5/emFile_1_ConfigMMC_SPI.c ****         FS_AddDevice(&FS_MMC_SPI_Driver);
 101:Generated_Source\PSoC5/emFile_1_ConfigMMC_SPI.c ****         FS_AddDevice(&FS_MMC_SPI_Driver);
 102:Generated_Source\PSoC5/emFile_1_ConfigMMC_SPI.c ****     #elif (emFile_1_NUMBER_SD_CARDS == 2u)
 103:Generated_Source\PSoC5/emFile_1_ConfigMMC_SPI.c ****         FS_AddDevice(&FS_MMC_SPI_Driver);
 104:Generated_Source\PSoC5/emFile_1_ConfigMMC_SPI.c ****         FS_AddDevice(&FS_MMC_SPI_Driver);
 105:Generated_Source\PSoC5/emFile_1_ConfigMMC_SPI.c ****     #else
 106:Generated_Source\PSoC5/emFile_1_ConfigMMC_SPI.c ****         FS_AddDevice(&FS_MMC_SPI_Driver);
 107:Generated_Source\PSoC5/emFile_1_ConfigMMC_SPI.c ****     #endif /* (emFile_1_NUMBER_SD_CARDS == 4u) */
 108:Generated_Source\PSoC5/emFile_1_ConfigMMC_SPI.c **** }
  41              		.loc 1 108 0
  42 000c BDE80840 		pop	{r3, lr}
  43              		.cfi_restore 14
  44              		.cfi_restore 3
  45              		.cfi_def_cfa_offset 0
 106:Generated_Source\PSoC5/emFile_1_ConfigMMC_SPI.c ****     #endif /* (emFile_1_NUMBER_SD_CARDS == 4u) */
  46              		.loc 1 106 0
  47 0010 0248     		ldr	r0, .L3+4
  48 0012 FFF7FEBF 		b	FS_AddDevice
  49              	.LVL1:
  50              	.L4:
  51 0016 00BF     		.align	2
  52              	.L3:
  53 0018 00000000 		.word	.LANCHOR0
  54 001c 00000000 		.word	FS_MMC_SPI_Driver
  55              		.cfi_endproc
  56              	.LFE0:
  57              		.size	FS_X_AddDevices, .-FS_X_AddDevices
  58              		.section	.text.FS_X_GetTimeDate,"ax",%progbits
  59              		.align	2
  60              		.global	FS_X_GetTimeDate
  61              		.thumb
  62              		.thumb_func
ARM GAS  C:\Users\legoc\AppData\Local\Temp\ccTNsKxC.s 			page 4


  63              		.type	FS_X_GetTimeDate, %function
  64              	FS_X_GetTimeDate:
  65              	.LFB1:
 109:Generated_Source\PSoC5/emFile_1_ConfigMMC_SPI.c **** 
 110:Generated_Source\PSoC5/emFile_1_ConfigMMC_SPI.c **** /*********************************************************************
 111:Generated_Source\PSoC5/emFile_1_ConfigMMC_SPI.c **** *
 112:Generated_Source\PSoC5/emFile_1_ConfigMMC_SPI.c **** *       FS_X_GetTimeDate
 113:Generated_Source\PSoC5/emFile_1_ConfigMMC_SPI.c **** *
 114:Generated_Source\PSoC5/emFile_1_ConfigMMC_SPI.c **** *  Description:
 115:Generated_Source\PSoC5/emFile_1_ConfigMMC_SPI.c **** *    Current time and date in a format suitable for the file system.
 116:Generated_Source\PSoC5/emFile_1_ConfigMMC_SPI.c **** *
 117:Generated_Source\PSoC5/emFile_1_ConfigMMC_SPI.c **** *    Bit 0-4:   2-second count (0-29)
 118:Generated_Source\PSoC5/emFile_1_ConfigMMC_SPI.c **** *    Bit 5-10:  Minutes (0-59)
 119:Generated_Source\PSoC5/emFile_1_ConfigMMC_SPI.c **** *    Bit 11-15: Hours (0-23)
 120:Generated_Source\PSoC5/emFile_1_ConfigMMC_SPI.c **** *    Bit 16-20: Day of month (1-31)
 121:Generated_Source\PSoC5/emFile_1_ConfigMMC_SPI.c **** *    Bit 21-24: Month of year (1-12)
 122:Generated_Source\PSoC5/emFile_1_ConfigMMC_SPI.c **** *    Bit 25-31: Count of years from 1980 (0-127)
 123:Generated_Source\PSoC5/emFile_1_ConfigMMC_SPI.c **** *
 124:Generated_Source\PSoC5/emFile_1_ConfigMMC_SPI.c **** */
 125:Generated_Source\PSoC5/emFile_1_ConfigMMC_SPI.c **** U32 FS_X_GetTimeDate(void)
 126:Generated_Source\PSoC5/emFile_1_ConfigMMC_SPI.c **** {
  66              		.loc 1 126 0
  67              		.cfi_startproc
  68              		@ args = 0, pretend = 0, frame = 0
  69              		@ frame_needed = 0, uses_anonymous_args = 0
  70              		@ link register save eliminated.
  71              	.LVL2:
 127:Generated_Source\PSoC5/emFile_1_ConfigMMC_SPI.c ****   U32 r;
 128:Generated_Source\PSoC5/emFile_1_ConfigMMC_SPI.c ****   U16 Sec, Min, Hour;
 129:Generated_Source\PSoC5/emFile_1_ConfigMMC_SPI.c ****   U16 Day, Month, Year;
 130:Generated_Source\PSoC5/emFile_1_ConfigMMC_SPI.c **** 
 131:Generated_Source\PSoC5/emFile_1_ConfigMMC_SPI.c ****   Sec   = 0;        /* 0 based.  Valid range: 0..59 */
 132:Generated_Source\PSoC5/emFile_1_ConfigMMC_SPI.c ****   Min   = 0;        /* 0 based.  Valid range: 0..59 */
 133:Generated_Source\PSoC5/emFile_1_ConfigMMC_SPI.c ****   Hour  = 0;        /* 0 based.  Valid range: 0..23 */
 134:Generated_Source\PSoC5/emFile_1_ConfigMMC_SPI.c ****   Day   = 1;        /* 1 based.    Means that 1 is 1. Valid range is 1..31 (depending on month) */
 135:Generated_Source\PSoC5/emFile_1_ConfigMMC_SPI.c ****   Month = 1;        /* 1 based.    Means that January is 1. Valid range is 1..12. */
 136:Generated_Source\PSoC5/emFile_1_ConfigMMC_SPI.c ****   Year  = 0;        /* 1980 based. Means that 2007 would be 27. */
 137:Generated_Source\PSoC5/emFile_1_ConfigMMC_SPI.c ****   r   = Sec / 2 + (Min << 5) + (Hour  << 11);
 138:Generated_Source\PSoC5/emFile_1_ConfigMMC_SPI.c ****   r  |= (U32)(Day + (Month << 5) + (Year  << 9)) << 16;
 139:Generated_Source\PSoC5/emFile_1_ConfigMMC_SPI.c ****   return r;
 140:Generated_Source\PSoC5/emFile_1_ConfigMMC_SPI.c **** }
  72              		.loc 1 140 0
  73 0000 4FF40410 		mov	r0, #2162688
  74 0004 7047     		bx	lr
  75              		.cfi_endproc
  76              	.LFE1:
  77              		.size	FS_X_GetTimeDate, .-FS_X_GetTimeDate
  78 0006 00BF     		.bss
  79              		.align	2
  80              		.set	.LANCHOR0,. + 0
  81              		.type	_aMemBlock, %object
  82              		.size	_aMemBlock, 4096
  83              	_aMemBlock:
  84 0000 00000000 		.space	4096
  84      00000000 
  84      00000000 
  84      00000000 
ARM GAS  C:\Users\legoc\AppData\Local\Temp\ccTNsKxC.s 			page 5


  84      00000000 
  85              		.text
  86              	.Letext0:
  87              		.file 2 ".\\emFile_V322c\\Code\\Include\\PSoC5/FS.h"
  88              		.file 3 ".\\emFile_V322c\\Code\\Include\\PSoC5/FS_Types.h"