ARM GAS  C:\Users\legoc\AppData\Local\Temp\ccXQrwNy.s 			page 1


   1              		.syntax unified
   2              		.cpu cortex-m3
   3              		.fpu softvfp
   4              		.eabi_attribute 20, 1
   5              		.eabi_attribute 21, 1
   6              		.eabi_attribute 23, 3
   7              		.eabi_attribute 24, 1
   8              		.eabi_attribute 25, 1
   9              		.eabi_attribute 26, 1
  10              		.eabi_attribute 30, 1
  11              		.eabi_attribute 34, 1
  12              		.eabi_attribute 18, 4
  13              		.thumb
  14              		.syntax unified
  15              		.file	"font.c"
  16              		.text
  17              	.Ltext0:
  18              		.cfi_sections	.debug_frame
  19              		.section	.text.draw_character,"ax",%progbits
  20              		.align	2
  21              		.global	draw_character
  22              		.thumb
  23              		.thumb_func
  24              		.type	draw_character, %function
  25              	draw_character:
  26              	.LFB63:
  27              		.file 1 "font.c"
   1:font.c        **** // Steven Andresen
   2:font.c        **** // Senior Project Spring 2019
   3:font.c        **** 
   4:font.c        **** #include "project.h"
   5:font.c        **** #include "font.h"
   6:font.c        **** #include "screen.h"
   7:font.c        **** 
   8:font.c        **** // How to read
   9:font.c        **** //  // Number
  10:font.c        **** //  # of array indecies to next number
  11:font.c        **** 
  12:font.c        **** //  # of pixels in line 0, 
  13:font.c        **** //	(index of pixels from 0-4),
  14:font.c        **** //	# of pixels in line 1...
  15:font.c        **** 
  16:font.c        **** //  //Number...
  17:font.c        **** 
  18:font.c        **** static const uint8_t font[] = 
  19:font.c        **** {
  20:font.c        ****     // Font Height
  21:font.c        ****     7,
  22:font.c        ****     
  23:font.c        ****     // 0
  24:font.c        ****     26,
  25:font.c        ****     
  26:font.c        ****     3,
  27:font.c        ****     1,2,3,
  28:font.c        ****     2,
  29:font.c        ****     0,4,
  30:font.c        ****     3,
ARM GAS  C:\Users\legoc\AppData\Local\Temp\ccXQrwNy.s 			page 2


  31:font.c        ****     0,1,4,
  32:font.c        ****     3,
  33:font.c        ****     0,2,4,
  34:font.c        ****     3,
  35:font.c        ****     0,3,4,
  36:font.c        ****     2,
  37:font.c        ****     0,4,
  38:font.c        ****     3,
  39:font.c        ****     1,2,3,
  40:font.c        ****     
  41:font.c        ****     // 1
  42:font.c        ****     19,
  43:font.c        ****     
  44:font.c        ****     5,
  45:font.c        ****     0,1,2,3,4,
  46:font.c        ****     1,
  47:font.c        ****     2,
  48:font.c        ****     1,
  49:font.c        ****     2,
  50:font.c        ****     1,
  51:font.c        ****     2,
  52:font.c        ****     1,
  53:font.c        ****     2,
  54:font.c        ****     2,
  55:font.c        ****     1,2,
  56:font.c        ****     1,
  57:font.c        ****     2,
  58:font.c        ****     
  59:font.c        ****     // 2
  60:font.c        ****     23,
  61:font.c        ****     
  62:font.c        ****     5,
  63:font.c        ****     0,1,2,3,4,
  64:font.c        ****     2,
  65:font.c        ****     0,4,
  66:font.c        ****     1,
  67:font.c        ****     1,
  68:font.c        ****     2,
  69:font.c        ****     2,3,
  70:font.c        ****     1,
  71:font.c        ****     4,
  72:font.c        ****     2,
  73:font.c        ****     0,4,
  74:font.c        ****     3,
  75:font.c        ****     1,2,3,
  76:font.c        ****     
  77:font.c        ****     // 3
  78:font.c        ****     21,
  79:font.c        ****     
  80:font.c        ****     3,
  81:font.c        ****     1,2,3,
  82:font.c        ****     2,
  83:font.c        ****     0,4,
  84:font.c        ****     1,
  85:font.c        ****     4,
  86:font.c        ****     2,
  87:font.c        ****     2,3,
ARM GAS  C:\Users\legoc\AppData\Local\Temp\ccXQrwNy.s 			page 3


  88:font.c        ****     1,
  89:font.c        ****     4,
  90:font.c        ****     2,
  91:font.c        ****     0,4,
  92:font.c        ****     3,
  93:font.c        ****     1,2,3,
  94:font.c        ****     
  95:font.c        ****     // 4
  96:font.c        ****     22,
  97:font.c        ****     
  98:font.c        ****     1,
  99:font.c        ****     4,
 100:font.c        ****     1,
 101:font.c        ****     4,
 102:font.c        ****     5,
 103:font.c        ****     0,1,2,3,4,
 104:font.c        ****     2,
 105:font.c        ****     0,4,
 106:font.c        ****     2,
 107:font.c        ****     1,4,
 108:font.c        ****     2,
 109:font.c        ****     2,4,
 110:font.c        ****     2,
 111:font.c        ****     3,4,
 112:font.c        ****     
 113:font.c        ****     // 5
 114:font.c        ****     24,
 115:font.c        ****     
 116:font.c        ****     3,
 117:font.c        ****     1,2,3,
 118:font.c        ****     2,
 119:font.c        ****     0,4,
 120:font.c        ****     1,
 121:font.c        ****     4,
 122:font.c        ****     1,
 123:font.c        ****     4,
 124:font.c        ****     4,
 125:font.c        ****     0,1,2,3,
 126:font.c        ****     1,
 127:font.c        ****     0,
 128:font.c        ****     5,
 129:font.c        ****     0,1,2,3,4,
 130:font.c        ****     
 131:font.c        ****     // 6
 132:font.c        ****     22,
 133:font.c        ****     
 134:font.c        ****     3,
 135:font.c        ****     1,2,3,
 136:font.c        ****     2,
 137:font.c        ****     0,4,
 138:font.c        ****     2,
 139:font.c        ****     0,4,
 140:font.c        ****     4,
 141:font.c        ****     0,1,2,3,
 142:font.c        ****     1,
 143:font.c        ****     0,
 144:font.c        ****     1,
ARM GAS  C:\Users\legoc\AppData\Local\Temp\ccXQrwNy.s 			page 4


 145:font.c        ****     1,
 146:font.c        ****     2,
 147:font.c        ****     2,3,
 148:font.c        ****     
 149:font.c        ****     // 7
 150:font.c        ****     19,
 151:font.c        ****     
 152:font.c        ****     1,
 153:font.c        ****     2,
 154:font.c        ****     1,
 155:font.c        ****     2,
 156:font.c        ****     1,
 157:font.c        ****     2,
 158:font.c        ****     1,
 159:font.c        ****     3,
 160:font.c        ****     1,
 161:font.c        ****     4,
 162:font.c        ****     2,
 163:font.c        ****     0,4,
 164:font.c        ****     5,
 165:font.c        ****     0,1,2,3,4,
 166:font.c        ****     
 167:font.c        ****     // 8
 168:font.c        ****     24,
 169:font.c        ****     
 170:font.c        ****     3,
 171:font.c        ****     1,2,3,
 172:font.c        ****     2,
 173:font.c        ****     0,4,
 174:font.c        ****     2,
 175:font.c        ****     0,4,
 176:font.c        ****     3,
 177:font.c        ****     1,2,3,
 178:font.c        ****     2,
 179:font.c        ****     0,4,
 180:font.c        ****     2,
 181:font.c        ****     0,4,
 182:font.c        ****     3,
 183:font.c        ****     1,2,3,
 184:font.c        ****     
 185:font.c        ****     // 9
 186:font.c        ****     22,
 187:font.c        ****     
 188:font.c        ****     2,
 189:font.c        ****     1,2,
 190:font.c        ****     1,
 191:font.c        ****     3,
 192:font.c        ****     1,
 193:font.c        ****     4,
 194:font.c        ****     4,
 195:font.c        ****     1,2,3,4,
 196:font.c        ****     2,
 197:font.c        ****     0,4,
 198:font.c        ****     2,
 199:font.c        ****     0,4,
 200:font.c        ****     3,
 201:font.c        ****     1,2,3,
ARM GAS  C:\Users\legoc\AppData\Local\Temp\ccXQrwNy.s 			page 5


 202:font.c        ****     
 203:font.c        ****     // .
 204:font.c        ****     8,
 205:font.c        ****     
 206:font.c        ****     1,
 207:font.c        ****     2,
 208:font.c        ****     0,
 209:font.c        **** 
 210:font.c        ****     0,
 211:font.c        **** 
 212:font.c        ****     0,
 213:font.c        **** 
 214:font.c        ****     0,
 215:font.c        **** 
 216:font.c        ****     0,
 217:font.c        **** 
 218:font.c        ****     0,
 219:font.c        ****     
 220:font.c        ****     // A
 221:font.c        ****     25,
 222:font.c        ****     
 223:font.c        ****     2,
 224:font.c        ****     0,4,
 225:font.c        ****     2,
 226:font.c        ****     0,4,
 227:font.c        ****     2,
 228:font.c        ****     0,4,
 229:font.c        ****     2,
 230:font.c        ****     0,4,
 231:font.c        ****     5,
 232:font.c        ****     0,1,2,3,4,
 233:font.c        ****     2,
 234:font.c        ****     0,4,
 235:font.c        ****     3,
 236:font.c        ****     1,2,3,
 237:font.c        ****     
 238:font.c        ****     // B
 239:font.c        ****     27,
 240:font.c        ****     
 241:font.c        ****     4,
 242:font.c        ****     0,1,2,3,
 243:font.c        ****     2,
 244:font.c        ****     0,4,
 245:font.c        ****     2,
 246:font.c        ****     0,4,
 247:font.c        ****     2,
 248:font.c        ****     0,4,
 249:font.c        ****     4,
 250:font.c        ****     0,1,2,3,
 251:font.c        ****     2,
 252:font.c        ****     0,4,
 253:font.c        ****     4,
 254:font.c        ****     0,1,2,3,
 255:font.c        ****     
 256:font.c        ****     // C
 257:font.c        ****     20,
 258:font.c        ****     
ARM GAS  C:\Users\legoc\AppData\Local\Temp\ccXQrwNy.s 			page 6


 259:font.c        ****     3,
 260:font.c        ****     1,2,3,
 261:font.c        ****     2,
 262:font.c        ****     0,4,
 263:font.c        ****     1,
 264:font.c        ****     0,
 265:font.c        ****     1,
 266:font.c        ****     0,
 267:font.c        ****     1,
 268:font.c        ****     0,
 269:font.c        ****     2,
 270:font.c        ****     0,4,
 271:font.c        ****     3,
 272:font.c        ****     1,2,3,
 273:font.c        ****     
 274:font.c        ****     // D
 275:font.c        ****     25,
 276:font.c        ****     
 277:font.c        ****     4,
 278:font.c        ****     0,1,2,3,
 279:font.c        ****     2,
 280:font.c        ****     0,4,
 281:font.c        ****     2,
 282:font.c        ****     0,4,
 283:font.c        ****     2,
 284:font.c        ****     0,4,
 285:font.c        ****     2,
 286:font.c        ****     0,4,
 287:font.c        ****     2,
 288:font.c        ****     0,4,
 289:font.c        ****     4,
 290:font.c        ****     0,1,2,3,
 291:font.c        ****     
 292:font.c        ****     // E
 293:font.c        ****     25,
 294:font.c        ****     
 295:font.c        ****     5,
 296:font.c        ****     0,1,2,3,4,
 297:font.c        ****     1,
 298:font.c        ****     0,
 299:font.c        ****     1,
 300:font.c        ****     0,
 301:font.c        ****     4,
 302:font.c        ****     0,1,2,3,
 303:font.c        ****     1,
 304:font.c        ****     0,
 305:font.c        ****     1,
 306:font.c        ****     0,
 307:font.c        ****     5,
 308:font.c        ****     0,1,2,3,4,
 309:font.c        ****     
 310:font.c        ****     // F
 311:font.c        ****     20,
 312:font.c        ****     
 313:font.c        ****     1,
 314:font.c        ****     0,
 315:font.c        ****     1,
ARM GAS  C:\Users\legoc\AppData\Local\Temp\ccXQrwNy.s 			page 7


 316:font.c        ****     0,
 317:font.c        ****     1,
 318:font.c        ****     0,
 319:font.c        ****     1,
 320:font.c        ****     0,
 321:font.c        ****     3,
 322:font.c        ****     0,1,2,
 323:font.c        ****     1,
 324:font.c        ****     0,
 325:font.c        ****     5,
 326:font.c        ****     0,1,2,3,4,
 327:font.c        ****     
 328:font.c        ****     // G
 329:font.c        ****     24,
 330:font.c        ****     
 331:font.c        ****     3,
 332:font.c        ****     1,2,3,
 333:font.c        ****     2,
 334:font.c        ****     0,4,
 335:font.c        ****     2,
 336:font.c        ****     0,4,
 337:font.c        ****     2,
 338:font.c        ****     0,4,
 339:font.c        ****     3,
 340:font.c        ****     0,3,4,
 341:font.c        ****     1,
 342:font.c        ****     0,
 343:font.c        ****     4,
 344:font.c        ****     1,2,3,4,
 345:font.c        ****     
 346:font.c        ****     // H
 347:font.c        ****     24,
 348:font.c        ****     
 349:font.c        ****     2,
 350:font.c        ****     0,4,
 351:font.c        ****     2,
 352:font.c        ****     0,4,
 353:font.c        ****     2,
 354:font.c        ****     0,4,
 355:font.c        ****     2,
 356:font.c        ****     0,4,
 357:font.c        ****     5,
 358:font.c        ****     0,1,2,3,4,
 359:font.c        ****     2,
 360:font.c        ****     0,4,
 361:font.c        ****     2,
 362:font.c        ****     0,4,
 363:font.c        ****     
 364:font.c        ****     // I
 365:font.c        ****     18,
 366:font.c        ****     
 367:font.c        ****     3,
 368:font.c        ****     1,2,3,
 369:font.c        ****     1,
 370:font.c        ****     2,
 371:font.c        ****     1,
 372:font.c        ****     2,
ARM GAS  C:\Users\legoc\AppData\Local\Temp\ccXQrwNy.s 			page 8


 373:font.c        ****     1,
 374:font.c        ****     2,
 375:font.c        ****     1,
 376:font.c        ****     2,
 377:font.c        ****     1,
 378:font.c        ****     2,
 379:font.c        ****     3,
 380:font.c        ****     1,2,3,
 381:font.c        ****     
 382:font.c        ****     // J
 383:font.c        ****     17,
 384:font.c        ****     
 385:font.c        ****     3,
 386:font.c        ****     1,2,3,
 387:font.c        ****     2,
 388:font.c        ****     0,4,
 389:font.c        ****     1,
 390:font.c        ****     4,
 391:font.c        ****     1,
 392:font.c        ****     4,
 393:font.c        ****     1,
 394:font.c        ****     4,
 395:font.c        ****     1,
 396:font.c        ****     4,
 397:font.c        ****     1,
 398:font.c        ****     4,
 399:font.c        ****     
 400:font.c        ****     // K
 401:font.c        ****     22,
 402:font.c        ****     
 403:font.c        ****     2,
 404:font.c        ****     0,4,
 405:font.c        ****     2,
 406:font.c        ****     0,4,
 407:font.c        ****     2,
 408:font.c        ****     0,4,
 409:font.c        ****     2,
 410:font.c        ****     0,3,
 411:font.c        ****     3,
 412:font.c        ****     0,1,2,
 413:font.c        ****     2,
 414:font.c        ****     0,3,
 415:font.c        ****     2,
 416:font.c        ****     0,4
 417:font.c        **** };
 418:font.c        **** 
 419:font.c        **** // Work in progress
 420:font.c        **** void draw_character(int16_t x, int16_t y, uint16_t color, uint16_t character)
 421:font.c        **** {
  28              		.loc 1 421 0
  29              		.cfi_startproc
  30              		@ args = 0, pretend = 0, frame = 0
  31              		@ frame_needed = 0, uses_anonymous_args = 0
  32              	.LVL0:
  33 0000 2DE9F843 		push	{r3, r4, r5, r6, r7, r8, r9, lr}
  34              		.cfi_def_cfa_offset 32
  35              		.cfi_offset 3, -32
ARM GAS  C:\Users\legoc\AppData\Local\Temp\ccXQrwNy.s 			page 9


  36              		.cfi_offset 4, -28
  37              		.cfi_offset 5, -24
  38              		.cfi_offset 6, -20
  39              		.cfi_offset 7, -16
  40              		.cfi_offset 8, -12
  41              		.cfi_offset 9, -8
  42              		.cfi_offset 14, -4
  43 0004 9046     		mov	r8, r2
  44              	.LVL1:
  45              	.LBB2:
 422:font.c        ****     uint16_t index = 1;
 423:font.c        ****     
 424:font.c        ****     for(int i=0; i<character;i++)
  46              		.loc 1 424 0
  47 0006 0025     		movs	r5, #0
  48              	.LBE2:
 422:font.c        ****     uint16_t index = 1;
  49              		.loc 1 422 0
  50 0008 0122     		movs	r2, #1
  51              	.LVL2:
  52              	.LBB3:
  53              		.loc 1 424 0
  54 000a 06E0     		b	.L2
  55              	.LVL3:
  56              	.L3:
 425:font.c        ****     {
 426:font.c        ****         index = index + font[index] + 1;
  57              		.loc 1 426 0 discriminator 3
  58 000c 174C     		ldr	r4, .L9
  59 000e A45C     		ldrb	r4, [r4, r2]	@ zero_extendqisi2
  60 0010 2244     		add	r2, r2, r4
  61              	.LVL4:
  62 0012 92B2     		uxth	r2, r2
  63 0014 0132     		adds	r2, r2, #1
  64 0016 92B2     		uxth	r2, r2
  65              	.LVL5:
 424:font.c        ****     {
  66              		.loc 1 424 0 discriminator 3
  67 0018 0135     		adds	r5, r5, #1
  68              	.LVL6:
  69              	.L2:
 424:font.c        ****     {
  70              		.loc 1 424 0 is_stmt 0 discriminator 1
  71 001a 9D42     		cmp	r5, r3
  72 001c F6DB     		blt	.L3
  73              	.LBE3:
 427:font.c        ****     }
 428:font.c        ****     
 429:font.c        ****     index = index+1;
  74              		.loc 1 429 0 is_stmt 1
  75 001e 0132     		adds	r2, r2, #1
  76              	.LVL7:
  77 0020 95B2     		uxth	r5, r2
  78              	.LVL8:
 430:font.c        ****     y = y-2;
  79              		.loc 1 430 0
  80 0022 0239     		subs	r1, r1, #2
ARM GAS  C:\Users\legoc\AppData\Local\Temp\ccXQrwNy.s 			page 10


  81              	.LVL9:
  82 0024 0EB2     		sxth	r6, r1
  83              	.LVL10:
 431:font.c        ****     x = x-2;
  84              		.loc 1 431 0
  85 0026 0238     		subs	r0, r0, #2
  86              	.LVL11:
  87 0028 07B2     		sxth	r7, r0
  88              	.LVL12:
  89              	.LBB4:
 432:font.c        ****     uint8_t height = font[0];
 433:font.c        ****     
 434:font.c        ****     for(int i=0; i<height; i++)
  90              		.loc 1 434 0
  91 002a 4FF00009 		mov	r9, #0
  92 002e 17E0     		b	.L4
  93              	.LVL13:
  94              	.L5:
  95              	.LBB5:
  96              	.LBB6:
 435:font.c        ****     {
 436:font.c        ****         for(int j=0; j<font[index] ;j++)
 437:font.c        ****         {
 438:font.c        ****             draw_pixel(x+font[index+j+1],y,color);
  97              		.loc 1 438 0 discriminator 3
  98 0030 6319     		adds	r3, r4, r5
  99 0032 0133     		adds	r3, r3, #1
 100 0034 0D4A     		ldr	r2, .L9
 101 0036 D05C     		ldrb	r0, [r2, r3]	@ zero_extendqisi2
 102 0038 4246     		mov	r2, r8
 103 003a 3146     		mov	r1, r6
 104 003c 3844     		add	r0, r0, r7
 105 003e FFF7FEFF 		bl	draw_pixel
 106              	.LVL14:
 107              	.LBE6:
 436:font.c        ****         {
 108              		.loc 1 436 0 discriminator 3
 109 0042 0134     		adds	r4, r4, #1
 110              	.LVL15:
 111 0044 00E0     		b	.L6
 112              	.LVL16:
 113              	.L7:
 114              	.LBE5:
 115 0046 0024     		movs	r4, #0
 116              	.L6:
 117              	.LVL17:
 118              	.LBB7:
 436:font.c        ****         {
 119              		.loc 1 436 0 is_stmt 0 discriminator 1
 120 0048 084B     		ldr	r3, .L9
 121 004a 5B5D     		ldrb	r3, [r3, r5]	@ zero_extendqisi2
 122 004c 9C42     		cmp	r4, r3
 123 004e EFDB     		blt	.L5
 124              	.LBE7:
 439:font.c        ****         }
 440:font.c        ****         y = y+1;
 125              		.loc 1 440 0 is_stmt 1 discriminator 2
ARM GAS  C:\Users\legoc\AppData\Local\Temp\ccXQrwNy.s 			page 11


 126 0050 0136     		adds	r6, r6, #1
 127              	.LVL18:
 128 0052 36B2     		sxth	r6, r6
 129              	.LVL19:
 441:font.c        ****         index = index+font[index]+1;
 130              		.loc 1 441 0 discriminator 2
 131 0054 1D44     		add	r5, r5, r3
 132              	.LVL20:
 133 0056 ADB2     		uxth	r5, r5
 134 0058 0135     		adds	r5, r5, #1
 135 005a ADB2     		uxth	r5, r5
 136              	.LVL21:
 434:font.c        ****     {
 137              		.loc 1 434 0 discriminator 2
 138 005c 09F10109 		add	r9, r9, #1
 139              	.LVL22:
 140              	.L4:
 434:font.c        ****     {
 141              		.loc 1 434 0 is_stmt 0 discriminator 1
 142 0060 B9F1060F 		cmp	r9, #6
 143 0064 EFDD     		ble	.L7
 144              	.LBE4:
 442:font.c        ****     }
 443:font.c        **** }
 145              		.loc 1 443 0 is_stmt 1
 146 0066 BDE8F883 		pop	{r3, r4, r5, r6, r7, r8, r9, pc}
 147              	.LVL23:
 148              	.L10:
 149 006a 00BF     		.align	2
 150              	.L9:
 151 006c 00000000 		.word	.LANCHOR0
 152              		.cfi_endproc
 153              	.LFE63:
 154              		.size	draw_character, .-draw_character
 155              		.global	__aeabi_dadd
 156              		.global	__aeabi_ddiv
 157              		.global	__aeabi_d2iz
 158              		.global	__aeabi_i2d
 159              		.global	__aeabi_dsub
 160              		.global	__aeabi_dmul
 161              		.section	.text.draw_number,"ax",%progbits
 162              		.align	2
 163              		.global	draw_number
 164              		.thumb
 165              		.thumb_func
 166              		.type	draw_number, %function
 167              	draw_number:
 168              	.LFB64:
 444:font.c        **** 
 445:font.c        **** void draw_number(int16_t x, int16_t y, uint16_t color, double number)
 446:font.c        **** {
 169              		.loc 1 446 0
 170              		.cfi_startproc
 171              		@ args = 8, pretend = 0, frame = 16
 172              		@ frame_needed = 0, uses_anonymous_args = 0
 173              	.LVL24:
 174 0000 2DE9F04F 		push	{r4, r5, r6, r7, r8, r9, r10, fp, lr}
ARM GAS  C:\Users\legoc\AppData\Local\Temp\ccXQrwNy.s 			page 12


 175              		.cfi_def_cfa_offset 36
 176              		.cfi_offset 4, -36
 177              		.cfi_offset 5, -32
 178              		.cfi_offset 6, -28
 179              		.cfi_offset 7, -24
 180              		.cfi_offset 8, -20
 181              		.cfi_offset 9, -16
 182              		.cfi_offset 10, -12
 183              		.cfi_offset 11, -8
 184              		.cfi_offset 14, -4
 185 0004 85B0     		sub	sp, sp, #20
 186              		.cfi_def_cfa_offset 56
 187 0006 0446     		mov	r4, r0
 188 0008 0D46     		mov	r5, r1
 189 000a 1646     		mov	r6, r2
 447:font.c        ****     number = number+0.0005;
 190              		.loc 1 447 0
 191 000c 52A3     		adr	r3, .L16
 192 000e D3E90023 		ldrd	r2, [r3]
 193              	.LVL25:
 194 0012 DDE90E01 		ldrd	r0, [sp, #56]
 195              	.LVL26:
 196 0016 FFF7FEFF 		bl	__aeabi_dadd
 197              	.LVL27:
 198 001a 8146     		mov	r9, r0
 199 001c 8A46     		mov	r10, r1
 200              	.LVL28:
 448:font.c        ****     
 449:font.c        ****     int tens        = (int)(number/10);
 201              		.loc 1 449 0
 202 001e 0022     		movs	r2, #0
 203 0020 534B     		ldr	r3, .L16+24
 204 0022 FFF7FEFF 		bl	__aeabi_ddiv
 205              	.LVL29:
 206 0026 FFF7FEFF 		bl	__aeabi_d2iz
 207              	.LVL30:
 208 002a 0746     		mov	r7, r0
 209              	.LVL31:
 450:font.c        ****     int ones        = (int)(number-(tens*10));
 210              		.loc 1 450 0
 211 002c 00EB8003 		add	r3, r0, r0, lsl #2
 212 0030 4FEA4308 		lsl	r8, r3, #1
 213 0034 4046     		mov	r0, r8
 214              	.LVL32:
 215 0036 FFF7FEFF 		bl	__aeabi_i2d
 216              	.LVL33:
 217 003a 0246     		mov	r2, r0
 218 003c 0B46     		mov	r3, r1
 219 003e CDE9009A 		strd	r9, [sp]
 220 0042 4846     		mov	r0, r9
 221 0044 5146     		mov	r1, r10
 222 0046 FFF7FEFF 		bl	__aeabi_dsub
 223              	.LVL34:
 224 004a FFF7FEFF 		bl	__aeabi_d2iz
 225              	.LVL35:
 226 004e 8246     		mov	r10, r0
 227              	.LVL36:
ARM GAS  C:\Users\legoc\AppData\Local\Temp\ccXQrwNy.s 			page 13


 451:font.c        ****     int tenths      = (int)((number-((tens*10)+ones))*10);
 228              		.loc 1 451 0
 229 0050 4044     		add	r0, r8, r0
 230              	.LVL37:
 231 0052 FFF7FEFF 		bl	__aeabi_i2d
 232              	.LVL38:
 233 0056 8046     		mov	r8, r0
 234 0058 8946     		mov	r9, r1
 235              	.LVL39:
 236 005a 0246     		mov	r2, r0
 237 005c 0B46     		mov	r3, r1
 238 005e DDE90001 		ldrd	r0, [sp]
 239 0062 FFF7FEFF 		bl	__aeabi_dsub
 240              	.LVL40:
 241 0066 0022     		movs	r2, #0
 242 0068 414B     		ldr	r3, .L16+24
 243 006a FFF7FEFF 		bl	__aeabi_dmul
 244              	.LVL41:
 245 006e FFF7FEFF 		bl	__aeabi_d2iz
 246              	.LVL42:
 247 0072 0390     		str	r0, [sp, #12]
 248              	.LVL43:
 452:font.c        ****     int hundredths  = (int)((number-((tens*10)+ones+(tenths*0.1)))*100);
 249              		.loc 1 452 0
 250 0074 FFF7FEFF 		bl	__aeabi_i2d
 251              	.LVL44:
 252 0078 39A3     		adr	r3, .L16+8
 253 007a D3E90023 		ldrd	r2, [r3]
 254 007e FFF7FEFF 		bl	__aeabi_dmul
 255              	.LVL45:
 256 0082 0246     		mov	r2, r0
 257 0084 0B46     		mov	r3, r1
 258 0086 4046     		mov	r0, r8
 259 0088 4946     		mov	r1, r9
 260 008a FFF7FEFF 		bl	__aeabi_dadd
 261              	.LVL46:
 262 008e 8046     		mov	r8, r0
 263 0090 8946     		mov	r9, r1
 264 0092 0246     		mov	r2, r0
 265 0094 0B46     		mov	r3, r1
 266 0096 DDE90001 		ldrd	r0, [sp]
 267 009a FFF7FEFF 		bl	__aeabi_dsub
 268              	.LVL47:
 269 009e 0022     		movs	r2, #0
 270 00a0 344B     		ldr	r3, .L16+28
 271 00a2 FFF7FEFF 		bl	__aeabi_dmul
 272              	.LVL48:
 273 00a6 FFF7FEFF 		bl	__aeabi_d2iz
 274              	.LVL49:
 275 00aa 8346     		mov	fp, r0
 276              	.LVL50:
 453:font.c        ****     int thousandths = (int)((number-((tens*10)+ones+(tenths*0.1)+(hundredths*0.01)))*1000);
 277              		.loc 1 453 0
 278 00ac FFF7FEFF 		bl	__aeabi_i2d
 279              	.LVL51:
 280 00b0 2DA3     		adr	r3, .L16+16
 281 00b2 D3E90023 		ldrd	r2, [r3]
ARM GAS  C:\Users\legoc\AppData\Local\Temp\ccXQrwNy.s 			page 14


 282 00b6 FFF7FEFF 		bl	__aeabi_dmul
 283              	.LVL52:
 284 00ba 0246     		mov	r2, r0
 285 00bc 0B46     		mov	r3, r1
 286 00be 4046     		mov	r0, r8
 287 00c0 4946     		mov	r1, r9
 288 00c2 FFF7FEFF 		bl	__aeabi_dadd
 289              	.LVL53:
 290 00c6 0246     		mov	r2, r0
 291 00c8 0B46     		mov	r3, r1
 292 00ca DDE90001 		ldrd	r0, [sp]
 293 00ce FFF7FEFF 		bl	__aeabi_dsub
 294              	.LVL54:
 295 00d2 0022     		movs	r2, #0
 296 00d4 284B     		ldr	r3, .L16+32
 297 00d6 FFF7FEFF 		bl	__aeabi_dmul
 298              	.LVL55:
 299 00da FFF7FEFF 		bl	__aeabi_d2iz
 300              	.LVL56:
 301 00de 8046     		mov	r8, r0
 302              	.LVL57:
 454:font.c        ****     
 455:font.c        ****     int x_offset;
 456:font.c        ****     
 457:font.c        ****     if(tens != 0)
 303              		.loc 1 457 0
 304 00e0 2FB1     		cbz	r7, .L12
 458:font.c        ****     {
 459:font.c        ****         draw_character(x,y,color,tens);
 305              		.loc 1 459 0
 306 00e2 BBB2     		uxth	r3, r7
 307 00e4 3246     		mov	r2, r6
 308 00e6 2946     		mov	r1, r5
 309 00e8 2046     		mov	r0, r4
 310              	.LVL58:
 311 00ea FFF7FEFF 		bl	draw_character
 312              	.LVL59:
 313              	.L12:
 460:font.c        ****         x_offset = 7;
 461:font.c        ****     }
 462:font.c        ****     
 463:font.c        ****     if(tens == 0)
 314              		.loc 1 463 0
 315 00ee 0FB1     		cbz	r7, .L14
 316 00f0 0720     		movs	r0, #7
 317 00f2 00E0     		b	.L13
 318              	.L14:
 464:font.c        ****     {
 465:font.c        ****         x_offset = 0;
 319              		.loc 1 465 0
 320 00f4 0020     		movs	r0, #0
 321              	.L13:
 322              	.LVL60:
 466:font.c        ****     }
 467:font.c        ****     
 468:font.c        ****     draw_character(x+x_offset,y,color,ones);
 323              		.loc 1 468 0
ARM GAS  C:\Users\legoc\AppData\Local\Temp\ccXQrwNy.s 			page 15


 324 00f6 0444     		add	r4, r4, r0
 325 00f8 A4B2     		uxth	r4, r4
 326 00fa 1FFA8AF3 		uxth	r3, r10
 327 00fe 3246     		mov	r2, r6
 328 0100 2946     		mov	r1, r5
 329 0102 20B2     		sxth	r0, r4
 330              	.LVL61:
 331 0104 FFF7FEFF 		bl	draw_character
 332              	.LVL62:
 469:font.c        ****     draw_character(x+x_offset+7,y,color,10);
 333              		.loc 1 469 0
 334 0108 E01D     		adds	r0, r4, #7
 335 010a 0A23     		movs	r3, #10
 336 010c 3246     		mov	r2, r6
 337 010e 2946     		mov	r1, r5
 338 0110 00B2     		sxth	r0, r0
 339 0112 FFF7FEFF 		bl	draw_character
 340              	.LVL63:
 470:font.c        ****     draw_character(x+x_offset+14,y,color,tenths);
 341              		.loc 1 470 0
 342 0116 04F10E00 		add	r0, r4, #14
 343 011a BDF80C30 		ldrh	r3, [sp, #12]
 344 011e 3246     		mov	r2, r6
 345 0120 2946     		mov	r1, r5
 346 0122 00B2     		sxth	r0, r0
 347 0124 FFF7FEFF 		bl	draw_character
 348              	.LVL64:
 471:font.c        ****     draw_character(x+x_offset+21,y,color,hundredths);
 349              		.loc 1 471 0
 350 0128 04F11500 		add	r0, r4, #21
 351 012c 1FFA8BF3 		uxth	r3, fp
 352 0130 3246     		mov	r2, r6
 353 0132 2946     		mov	r1, r5
 354 0134 00B2     		sxth	r0, r0
 355 0136 FFF7FEFF 		bl	draw_character
 356              	.LVL65:
 472:font.c        ****     draw_character(x+x_offset+28,y,color,thousandths);
 357              		.loc 1 472 0
 358 013a 04F11C00 		add	r0, r4, #28
 359 013e 1FFA88F3 		uxth	r3, r8
 360 0142 3246     		mov	r2, r6
 361 0144 2946     		mov	r1, r5
 362 0146 00B2     		sxth	r0, r0
 363 0148 FFF7FEFF 		bl	draw_character
 364              	.LVL66:
 473:font.c        **** }...
 365              		.loc 1 473 0
 366 014c 05B0     		add	sp, sp, #20
 367              		.cfi_def_cfa_offset 36
 368              	.LVL67:
 369              		@ sp needed
 370 014e BDE8F08F 		pop	{r4, r5, r6, r7, r8, r9, r10, fp, pc}
 371              	.LVL68:
 372              	.L17:
 373 0152 00BFAFF3 		.align	3
 373      0080
 374              	.L16:
ARM GAS  C:\Users\legoc\AppData\Local\Temp\ccXQrwNy.s 			page 16


 375 0158 FCA9F1D2 		.word	-755914244
 376 015c 4D62403F 		.word	1061184077
 377 0160 9A999999 		.word	-1717986918
 378 0164 9999B93F 		.word	1069128089
 379 0168 7B14AE47 		.word	1202590843
 380 016c E17A843F 		.word	1065646817
 381 0170 00002440 		.word	1076101120
 382 0174 00005940 		.word	1079574528
 383 0178 00408F40 		.word	1083129856
 384              		.cfi_endproc
 385              	.LFE64:
 386              		.size	draw_number, .-draw_number
 387              		.section	.rodata
 388              		.align	2
 389              		.set	.LANCHOR0,. + 0
 390              		.type	font, %object
 391              		.size	font, 500
 392              	font:
 393 0000 07       		.byte	7
 394 0001 1A       		.byte	26
 395 0002 03       		.byte	3
 396 0003 01       		.byte	1
 397 0004 02       		.byte	2
 398 0005 03       		.byte	3
 399 0006 02       		.byte	2
 400 0007 00       		.byte	0
 401 0008 04       		.byte	4
 402 0009 03       		.byte	3
 403 000a 00       		.byte	0
 404 000b 01       		.byte	1
 405 000c 04       		.byte	4
 406 000d 03       		.byte	3
 407 000e 00       		.byte	0
 408 000f 02       		.byte	2
 409 0010 04       		.byte	4
 410 0011 03       		.byte	3
 411 0012 00       		.byte	0
 412 0013 03       		.byte	3
 413 0014 04       		.byte	4
 414 0015 02       		.byte	2
 415 0016 00       		.byte	0
 416 0017 04       		.byte	4
 417 0018 03       		.byte	3
 418 0019 01       		.byte	1
 419 001a 02       		.byte	2
 420 001b 03       		.byte	3
 421 001c 13       		.byte	19
 422 001d 05       		.byte	5
 423 001e 00       		.byte	0
 424 001f 01       		.byte	1
 425 0020 02       		.byte	2
 426 0021 03       		.byte	3
 427 0022 04       		.byte	4
 428 0023 01       		.byte	1
 429 0024 02       		.byte	2
 430 0025 01       		.byte	1
 431 0026 02       		.byte	2
ARM GAS  C:\Users\legoc\AppData\Local\Temp\ccXQrwNy.s 			page 17


 432 0027 01       		.byte	1
 433 0028 02       		.byte	2
 434 0029 01       		.byte	1
 435 002a 02       		.byte	2
 436 002b 02       		.byte	2
 437 002c 01       		.byte	1
 438 002d 02       		.byte	2
 439 002e 01       		.byte	1
 440 002f 02       		.byte	2
 441 0030 17       		.byte	23
 442 0031 05       		.byte	5
 443 0032 00       		.byte	0
 444 0033 01       		.byte	1
 445 0034 02       		.byte	2
 446 0035 03       		.byte	3
 447 0036 04       		.byte	4
 448 0037 02       		.byte	2
 449 0038 00       		.byte	0
 450 0039 04       		.byte	4
 451 003a 01       		.byte	1
 452 003b 01       		.byte	1
 453 003c 02       		.byte	2
 454 003d 02       		.byte	2
 455 003e 03       		.byte	3
 456 003f 01       		.byte	1
 457 0040 04       		.byte	4
 458 0041 02       		.byte	2
 459 0042 00       		.byte	0
 460 0043 04       		.byte	4
 461 0044 03       		.byte	3
 462 0045 01       		.byte	1
 463 0046 02       		.byte	2
 464 0047 03       		.byte	3
 465 0048 15       		.byte	21
 466 0049 03       		.byte	3
 467 004a 01       		.byte	1
 468 004b 02       		.byte	2
 469 004c 03       		.byte	3
 470 004d 02       		.byte	2
 471 004e 00       		.byte	0
 472 004f 04       		.byte	4
 473 0050 01       		.byte	1
 474 0051 04       		.byte	4
 475 0052 02       		.byte	2
 476 0053 02       		.byte	2
 477 0054 03       		.byte	3
 478 0055 01       		.byte	1
 479 0056 04       		.byte	4
 480 0057 02       		.byte	2
 481 0058 00       		.byte	0
 482 0059 04       		.byte	4
 483 005a 03       		.byte	3
 484 005b 01       		.byte	1
 485 005c 02       		.byte	2
 486 005d 03       		.byte	3
 487 005e 16       		.byte	22
 488 005f 01       		.byte	1
ARM GAS  C:\Users\legoc\AppData\Local\Temp\ccXQrwNy.s 			page 18


 489 0060 04       		.byte	4
 490 0061 01       		.byte	1
 491 0062 04       		.byte	4
 492 0063 05       		.byte	5
 493 0064 00       		.byte	0
 494 0065 01       		.byte	1
 495 0066 02       		.byte	2
 496 0067 03       		.byte	3
 497 0068 04       		.byte	4
 498 0069 02       		.byte	2
 499 006a 00       		.byte	0
 500 006b 04       		.byte	4
 501 006c 02       		.byte	2
 502 006d 01       		.byte	1
 503 006e 04       		.byte	4
 504 006f 02       		.byte	2
 505 0070 02       		.byte	2
 506 0071 04       		.byte	4
 507 0072 02       		.byte	2
 508 0073 03       		.byte	3
 509 0074 04       		.byte	4
 510 0075 18       		.byte	24
 511 0076 03       		.byte	3
 512 0077 01       		.byte	1
 513 0078 02       		.byte	2
 514 0079 03       		.byte	3
 515 007a 02       		.byte	2
 516 007b 00       		.byte	0
 517 007c 04       		.byte	4
 518 007d 01       		.byte	1
 519 007e 04       		.byte	4
 520 007f 01       		.byte	1
 521 0080 04       		.byte	4
 522 0081 04       		.byte	4
 523 0082 00       		.byte	0
 524 0083 01       		.byte	1
 525 0084 02       		.byte	2
 526 0085 03       		.byte	3
 527 0086 01       		.byte	1
 528 0087 00       		.byte	0
 529 0088 05       		.byte	5
 530 0089 00       		.byte	0
 531 008a 01       		.byte	1
 532 008b 02       		.byte	2
 533 008c 03       		.byte	3
 534 008d 04       		.byte	4
 535 008e 16       		.byte	22
 536 008f 03       		.byte	3
 537 0090 01       		.byte	1
 538 0091 02       		.byte	2
 539 0092 03       		.byte	3
 540 0093 02       		.byte	2
 541 0094 00       		.byte	0
 542 0095 04       		.byte	4
 543 0096 02       		.byte	2
 544 0097 00       		.byte	0
 545 0098 04       		.byte	4
ARM GAS  C:\Users\legoc\AppData\Local\Temp\ccXQrwNy.s 			page 19


 546 0099 04       		.byte	4
 547 009a 00       		.byte	0
 548 009b 01       		.byte	1
 549 009c 02       		.byte	2
 550 009d 03       		.byte	3
 551 009e 01       		.byte	1
 552 009f 00       		.byte	0
 553 00a0 01       		.byte	1
 554 00a1 01       		.byte	1
 555 00a2 02       		.byte	2
 556 00a3 02       		.byte	2
 557 00a4 03       		.byte	3
 558 00a5 13       		.byte	19
 559 00a6 01       		.byte	1
 560 00a7 02       		.byte	2
 561 00a8 01       		.byte	1
 562 00a9 02       		.byte	2
 563 00aa 01       		.byte	1
 564 00ab 02       		.byte	2
 565 00ac 01       		.byte	1
 566 00ad 03       		.byte	3
 567 00ae 01       		.byte	1
 568 00af 04       		.byte	4
 569 00b0 02       		.byte	2
 570 00b1 00       		.byte	0
 571 00b2 04       		.byte	4
 572 00b3 05       		.byte	5
 573 00b4 00       		.byte	0
 574 00b5 01       		.byte	1
 575 00b6 02       		.byte	2
 576 00b7 03       		.byte	3
 577 00b8 04       		.byte	4
 578 00b9 18       		.byte	24
 579 00ba 03       		.byte	3
 580 00bb 01       		.byte	1
 581 00bc 02       		.byte	2
 582 00bd 03       		.byte	3
 583 00be 02       		.byte	2
 584 00bf 00       		.byte	0
 585 00c0 04       		.byte	4
 586 00c1 02       		.byte	2
 587 00c2 00       		.byte	0
 588 00c3 04       		.byte	4
 589 00c4 03       		.byte	3
 590 00c5 01       		.byte	1
 591 00c6 02       		.byte	2
 592 00c7 03       		.byte	3
 593 00c8 02       		.byte	2
 594 00c9 00       		.byte	0
 595 00ca 04       		.byte	4
 596 00cb 02       		.byte	2
 597 00cc 00       		.byte	0
 598 00cd 04       		.byte	4
 599 00ce 03       		.byte	3
 600 00cf 01       		.byte	1
 601 00d0 02       		.byte	2
 602 00d1 03       		.byte	3
ARM GAS  C:\Users\legoc\AppData\Local\Temp\ccXQrwNy.s 			page 20


 603 00d2 16       		.byte	22
 604 00d3 02       		.byte	2
 605 00d4 01       		.byte	1
 606 00d5 02       		.byte	2
 607 00d6 01       		.byte	1
 608 00d7 03       		.byte	3
 609 00d8 01       		.byte	1
 610 00d9 04       		.byte	4
 611 00da 04       		.byte	4
 612 00db 01       		.byte	1
 613 00dc 02       		.byte	2
 614 00dd 03       		.byte	3
 615 00de 04       		.byte	4
 616 00df 02       		.byte	2
 617 00e0 00       		.byte	0
 618 00e1 04       		.byte	4
 619 00e2 02       		.byte	2
 620 00e3 00       		.byte	0
 621 00e4 04       		.byte	4
 622 00e5 03       		.byte	3
 623 00e6 01       		.byte	1
 624 00e7 02       		.byte	2
 625 00e8 03       		.byte	3
 626 00e9 08       		.byte	8
 627 00ea 01       		.byte	1
 628 00eb 02       		.byte	2
 629 00ec 00       		.byte	0
 630 00ed 00       		.byte	0
 631 00ee 00       		.byte	0
 632 00ef 00       		.byte	0
 633 00f0 00       		.byte	0
 634 00f1 00       		.byte	0
 635 00f2 19       		.byte	25
 636 00f3 02       		.byte	2
 637 00f4 00       		.byte	0
 638 00f5 04       		.byte	4
 639 00f6 02       		.byte	2
 640 00f7 00       		.byte	0
 641 00f8 04       		.byte	4
 642 00f9 02       		.byte	2
 643 00fa 00       		.byte	0
 644 00fb 04       		.byte	4
 645 00fc 02       		.byte	2
 646 00fd 00       		.byte	0
 647 00fe 04       		.byte	4
 648 00ff 05       		.byte	5
 649 0100 00       		.byte	0
 650 0101 01       		.byte	1
 651 0102 02       		.byte	2
 652 0103 03       		.byte	3
 653 0104 04       		.byte	4
 654 0105 02       		.byte	2
 655 0106 00       		.byte	0
 656 0107 04       		.byte	4
 657 0108 03       		.byte	3
 658 0109 01       		.byte	1
 659 010a 02       		.byte	2
ARM GAS  C:\Users\legoc\AppData\Local\Temp\ccXQrwNy.s 			page 21


 660 010b 03       		.byte	3
 661 010c 1B       		.byte	27
 662 010d 04       		.byte	4
 663 010e 00       		.byte	0
 664 010f 01       		.byte	1
 665 0110 02       		.byte	2
 666 0111 03       		.byte	3
 667 0112 02       		.byte	2
 668 0113 00       		.byte	0
 669 0114 04       		.byte	4
 670 0115 02       		.byte	2
 671 0116 00       		.byte	0
 672 0117 04       		.byte	4
 673 0118 02       		.byte	2
 674 0119 00       		.byte	0
 675 011a 04       		.byte	4
 676 011b 04       		.byte	4
 677 011c 00       		.byte	0
 678 011d 01       		.byte	1
 679 011e 02       		.byte	2
 680 011f 03       		.byte	3
 681 0120 02       		.byte	2
 682 0121 00       		.byte	0
 683 0122 04       		.byte	4
 684 0123 04       		.byte	4
 685 0124 00       		.byte	0
 686 0125 01       		.byte	1
 687 0126 02       		.byte	2
 688 0127 03       		.byte	3
 689 0128 14       		.byte	20
 690 0129 03       		.byte	3
 691 012a 01       		.byte	1
 692 012b 02       		.byte	2
 693 012c 03       		.byte	3
 694 012d 02       		.byte	2
 695 012e 00       		.byte	0
 696 012f 04       		.byte	4
 697 0130 01       		.byte	1
 698 0131 00       		.byte	0
 699 0132 01       		.byte	1
 700 0133 00       		.byte	0
 701 0134 01       		.byte	1
 702 0135 00       		.byte	0
 703 0136 02       		.byte	2
 704 0137 00       		.byte	0
 705 0138 04       		.byte	4
 706 0139 03       		.byte	3
 707 013a 01       		.byte	1
 708 013b 02       		.byte	2
 709 013c 03       		.byte	3
 710 013d 19       		.byte	25
 711 013e 04       		.byte	4
 712 013f 00       		.byte	0
 713 0140 01       		.byte	1
 714 0141 02       		.byte	2
 715 0142 03       		.byte	3
 716 0143 02       		.byte	2
ARM GAS  C:\Users\legoc\AppData\Local\Temp\ccXQrwNy.s 			page 22


 717 0144 00       		.byte	0
 718 0145 04       		.byte	4
 719 0146 02       		.byte	2
 720 0147 00       		.byte	0
 721 0148 04       		.byte	4
 722 0149 02       		.byte	2
 723 014a 00       		.byte	0
 724 014b 04       		.byte	4
 725 014c 02       		.byte	2
 726 014d 00       		.byte	0
 727 014e 04       		.byte	4
 728 014f 02       		.byte	2
 729 0150 00       		.byte	0
 730 0151 04       		.byte	4
 731 0152 04       		.byte	4
 732 0153 00       		.byte	0
 733 0154 01       		.byte	1
 734 0155 02       		.byte	2
 735 0156 03       		.byte	3
 736 0157 19       		.byte	25
 737 0158 05       		.byte	5
 738 0159 00       		.byte	0
 739 015a 01       		.byte	1
 740 015b 02       		.byte	2
 741 015c 03       		.byte	3
 742 015d 04       		.byte	4
 743 015e 01       		.byte	1
 744 015f 00       		.byte	0
 745 0160 01       		.byte	1
 746 0161 00       		.byte	0
 747 0162 04       		.byte	4
 748 0163 00       		.byte	0
 749 0164 01       		.byte	1
 750 0165 02       		.byte	2
 751 0166 03       		.byte	3
 752 0167 01       		.byte	1
 753 0168 00       		.byte	0
 754 0169 01       		.byte	1
 755 016a 00       		.byte	0
 756 016b 05       		.byte	5
 757 016c 00       		.byte	0
 758 016d 01       		.byte	1
 759 016e 02       		.byte	2
 760 016f 03       		.byte	3
 761 0170 04       		.byte	4
 762 0171 14       		.byte	20
 763 0172 01       		.byte	1
 764 0173 00       		.byte	0
 765 0174 01       		.byte	1
 766 0175 00       		.byte	0
 767 0176 01       		.byte	1
 768 0177 00       		.byte	0
 769 0178 01       		.byte	1
 770 0179 00       		.byte	0
 771 017a 03       		.byte	3
 772 017b 00       		.byte	0
 773 017c 01       		.byte	1
ARM GAS  C:\Users\legoc\AppData\Local\Temp\ccXQrwNy.s 			page 23


 774 017d 02       		.byte	2
 775 017e 01       		.byte	1
 776 017f 00       		.byte	0
 777 0180 05       		.byte	5
 778 0181 00       		.byte	0
 779 0182 01       		.byte	1
 780 0183 02       		.byte	2
 781 0184 03       		.byte	3
 782 0185 04       		.byte	4
 783 0186 18       		.byte	24
 784 0187 03       		.byte	3
 785 0188 01       		.byte	1
 786 0189 02       		.byte	2
 787 018a 03       		.byte	3
 788 018b 02       		.byte	2
 789 018c 00       		.byte	0
 790 018d 04       		.byte	4
 791 018e 02       		.byte	2
 792 018f 00       		.byte	0
 793 0190 04       		.byte	4
 794 0191 02       		.byte	2
 795 0192 00       		.byte	0
 796 0193 04       		.byte	4
 797 0194 03       		.byte	3
 798 0195 00       		.byte	0
 799 0196 03       		.byte	3
 800 0197 04       		.byte	4
 801 0198 01       		.byte	1
 802 0199 00       		.byte	0
 803 019a 04       		.byte	4
 804 019b 01       		.byte	1
 805 019c 02       		.byte	2
 806 019d 03       		.byte	3
 807 019e 04       		.byte	4
 808 019f 18       		.byte	24
 809 01a0 02       		.byte	2
 810 01a1 00       		.byte	0
 811 01a2 04       		.byte	4
 812 01a3 02       		.byte	2
 813 01a4 00       		.byte	0
 814 01a5 04       		.byte	4
 815 01a6 02       		.byte	2
 816 01a7 00       		.byte	0
 817 01a8 04       		.byte	4
 818 01a9 02       		.byte	2
 819 01aa 00       		.byte	0
 820 01ab 04       		.byte	4
 821 01ac 05       		.byte	5
 822 01ad 00       		.byte	0
 823 01ae 01       		.byte	1
 824 01af 02       		.byte	2
 825 01b0 03       		.byte	3
 826 01b1 04       		.byte	4
 827 01b2 02       		.byte	2
 828 01b3 00       		.byte	0
 829 01b4 04       		.byte	4
 830 01b5 02       		.byte	2
ARM GAS  C:\Users\legoc\AppData\Local\Temp\ccXQrwNy.s 			page 24


 831 01b6 00       		.byte	0
 832 01b7 04       		.byte	4
 833 01b8 12       		.byte	18
 834 01b9 03       		.byte	3
 835 01ba 01       		.byte	1
 836 01bb 02       		.byte	2
 837 01bc 03       		.byte	3
 838 01bd 01       		.byte	1
 839 01be 02       		.byte	2
 840 01bf 01       		.byte	1
 841 01c0 02       		.byte	2
 842 01c1 01       		.byte	1
 843 01c2 02       		.byte	2
 844 01c3 01       		.byte	1
 845 01c4 02       		.byte	2
 846 01c5 01       		.byte	1
 847 01c6 02       		.byte	2
 848 01c7 03       		.byte	3
 849 01c8 01       		.byte	1
 850 01c9 02       		.byte	2
 851 01ca 03       		.byte	3
 852 01cb 11       		.byte	17
 853 01cc 03       		.byte	3
 854 01cd 01       		.byte	1
 855 01ce 02       		.byte	2
 856 01cf 03       		.byte	3
 857 01d0 02       		.byte	2
 858 01d1 00       		.byte	0
 859 01d2 04       		.byte	4
 860 01d3 01       		.byte	1
 861 01d4 04       		.byte	4
 862 01d5 01       		.byte	1
 863 01d6 04       		.byte	4
 864 01d7 01       		.byte	1
 865 01d8 04       		.byte	4
 866 01d9 01       		.byte	1
 867 01da 04       		.byte	4
 868 01db 01       		.byte	1
 869 01dc 04       		.byte	4
 870 01dd 16       		.byte	22
 871 01de 02       		.byte	2
 872 01df 00       		.byte	0
 873 01e0 04       		.byte	4
 874 01e1 02       		.byte	2
 875 01e2 00       		.byte	0
 876 01e3 04       		.byte	4
 877 01e4 02       		.byte	2
 878 01e5 00       		.byte	0
 879 01e6 04       		.byte	4
 880 01e7 02       		.byte	2
 881 01e8 00       		.byte	0
 882 01e9 03       		.byte	3
 883 01ea 03       		.byte	3
 884 01eb 00       		.byte	0
 885 01ec 01       		.byte	1
 886 01ed 02       		.byte	2
 887 01ee 02       		.byte	2
ARM GAS  C:\Users\legoc\AppData\Local\Temp\ccXQrwNy.s 			page 25


 888 01ef 00       		.byte	0
 889 01f0 03       		.byte	3
 890 01f1 02       		.byte	2
 891 01f2 00       		.byte	0
 892 01f3 04       		.byte	4
 893              		.text
 894              	.Letext0:
 895              		.file 2 "d:\\psoc\\psoc creator\\4.2\\psoc creator\\import\\gnu\\arm\\5.4.1\\arm-none-eabi\\includ
 896              		.file 3 "d:\\psoc\\psoc creator\\4.2\\psoc creator\\import\\gnu\\arm\\5.4.1\\arm-none-eabi\\includ
 897              		.file 4 "font.h"
 898              		.file 5 "Generated_Source\\PSoC5/core_cm3.h"