ARM GAS  C:\Users\JACOB-~1\AppData\Local\Temp\ccGLbPGC.s 			page 1


   1              		.syntax unified
   2              		.cpu cortex-m3
   3              		.fpu softvfp
   4              		.eabi_attribute 20, 1
   5              		.eabi_attribute 21, 1
   6              		.eabi_attribute 23, 3
   7              		.eabi_attribute 24, 1
   8              		.eabi_attribute 25, 1
   9              		.eabi_attribute 26, 1
  10              		.eabi_attribute 30, 2
  11              		.eabi_attribute 34, 1
  12              		.eabi_attribute 18, 4
  13              		.thumb
  14              		.syntax unified
  15              		.file	"font.c"
  16              		.text
  17              	.Ltext0:
  18              		.cfi_sections	.debug_frame
  19              		.section	.text.draw_character,"ax",%progbits
  20              		.align	2
  21              		.global	draw_character
  22              		.thumb
  23              		.thumb_func
  24              		.type	draw_character, %function
  25              	draw_character:
  26              	.LFB64:
  27              		.file 1 "font.c"
   1:font.c        **** // Steven Andresen
   2:font.c        **** // Senior Project Spring 2019
   3:font.c        **** 
   4:font.c        **** #include "project.h"
   5:font.c        **** #include "font.h"
   6:font.c        **** #include "screen.h"
   7:font.c        **** #include "strings.h"
   8:font.c        **** #include "string.h"
   9:font.c        **** #include "stdio.h"
  10:font.c        **** #include "stdlib.h"
  11:font.c        **** // How to read
  12:font.c        **** //  // Character, integer code
  13:font.c        **** //  # of array indecies to next number
  14:font.c        **** 
  15:font.c        **** //  # of pixels in line 0, 
  16:font.c        **** //	(index of pixels from 0-4),
  17:font.c        **** //	# of pixels in line 1...
  18:font.c        **** 
  19:font.c        **** //  //Number...
  20:font.c        **** 
  21:font.c        **** static const uint8_t font[] = 
  22:font.c        **** {
  23:font.c        ****     // Font Height
  24:font.c        ****     7,
  25:font.c        ****     
  26:font.c        ****     // 0, 0
  27:font.c        ****     26,
  28:font.c        ****     
  29:font.c        ****     3,
  30:font.c        ****     1,2,3,
ARM GAS  C:\Users\JACOB-~1\AppData\Local\Temp\ccGLbPGC.s 			page 2


  31:font.c        ****     2,
  32:font.c        ****     0,4,
  33:font.c        ****     3,
  34:font.c        ****     0,1,4,
  35:font.c        ****     3,
  36:font.c        ****     0,2,4,
  37:font.c        ****     3,
  38:font.c        ****     0,3,4,
  39:font.c        ****     2,
  40:font.c        ****     0,4,
  41:font.c        ****     3,
  42:font.c        ****     1,2,3,
  43:font.c        ****     
  44:font.c        ****     // 1, 1
  45:font.c        ****     19,
  46:font.c        ****     
  47:font.c        ****     5,
  48:font.c        ****     0,1,2,3,4,
  49:font.c        ****     1,
  50:font.c        ****     2,
  51:font.c        ****     1,
  52:font.c        ****     2,
  53:font.c        ****     1,
  54:font.c        ****     2,
  55:font.c        ****     1,
  56:font.c        ****     2,
  57:font.c        ****     2,
  58:font.c        ****     1,2,
  59:font.c        ****     1,
  60:font.c        ****     2,
  61:font.c        ****     
  62:font.c        ****     // 2, 2
  63:font.c        ****     23,
  64:font.c        ****     
  65:font.c        ****     5,
  66:font.c        ****     0,1,2,3,4,
  67:font.c        ****     2,
  68:font.c        ****     0,4,
  69:font.c        ****     1,
  70:font.c        ****     1,
  71:font.c        ****     2,
  72:font.c        ****     2,3,
  73:font.c        ****     1,
  74:font.c        ****     4,
  75:font.c        ****     2,
  76:font.c        ****     0,4,
  77:font.c        ****     3,
  78:font.c        ****     1,2,3,
  79:font.c        ****     
  80:font.c        ****     // 3, 3
  81:font.c        ****     21,
  82:font.c        ****     
  83:font.c        ****     3,
  84:font.c        ****     1,2,3,
  85:font.c        ****     2,
  86:font.c        ****     0,4,
  87:font.c        ****     1,
ARM GAS  C:\Users\JACOB-~1\AppData\Local\Temp\ccGLbPGC.s 			page 3


  88:font.c        ****     4,
  89:font.c        ****     2,
  90:font.c        ****     2,3,
  91:font.c        ****     1,
  92:font.c        ****     4,
  93:font.c        ****     2,
  94:font.c        ****     0,4,
  95:font.c        ****     3,
  96:font.c        ****     1,2,3,
  97:font.c        ****     
  98:font.c        ****     // 4, 4
  99:font.c        ****     22,
 100:font.c        ****     
 101:font.c        ****     1,
 102:font.c        ****     4,
 103:font.c        ****     1,
 104:font.c        ****     4,
 105:font.c        ****     5,
 106:font.c        ****     0,1,2,3,4,
 107:font.c        ****     2,
 108:font.c        ****     0,4,
 109:font.c        ****     2,
 110:font.c        ****     1,4,
 111:font.c        ****     2,
 112:font.c        ****     2,4,
 113:font.c        ****     2,
 114:font.c        ****     3,4,
 115:font.c        ****     
 116:font.c        ****     // 5, 5
 117:font.c        ****     24,
 118:font.c        ****     
 119:font.c        ****     3,
 120:font.c        ****     1,2,3,
 121:font.c        ****     2,
 122:font.c        ****     0,4,
 123:font.c        ****     1,
 124:font.c        ****     4,
 125:font.c        ****     1,
 126:font.c        ****     4,
 127:font.c        ****     4,
 128:font.c        ****     0,1,2,3,
 129:font.c        ****     1,
 130:font.c        ****     0,
 131:font.c        ****     5,
 132:font.c        ****     0,1,2,3,4,
 133:font.c        ****     
 134:font.c        ****     // 6, 6
 135:font.c        ****     22,
 136:font.c        ****     
 137:font.c        ****     3,
 138:font.c        ****     1,2,3,
 139:font.c        ****     2,
 140:font.c        ****     0,4,
 141:font.c        ****     2,
 142:font.c        ****     0,4,
 143:font.c        ****     4,
 144:font.c        ****     0,1,2,3,
ARM GAS  C:\Users\JACOB-~1\AppData\Local\Temp\ccGLbPGC.s 			page 4


 145:font.c        ****     1,
 146:font.c        ****     0,
 147:font.c        ****     1,
 148:font.c        ****     1,
 149:font.c        ****     2,
 150:font.c        ****     2,3,
 151:font.c        ****     
 152:font.c        ****     // 7, 7
 153:font.c        ****     19,
 154:font.c        ****     
 155:font.c        ****     1,
 156:font.c        ****     2,
 157:font.c        ****     1,
 158:font.c        ****     2,
 159:font.c        ****     1,
 160:font.c        ****     2,
 161:font.c        ****     1,
 162:font.c        ****     3,
 163:font.c        ****     1,
 164:font.c        ****     4,
 165:font.c        ****     2,
 166:font.c        ****     0,4,
 167:font.c        ****     5,
 168:font.c        ****     0,1,2,3,4,
 169:font.c        ****     
 170:font.c        ****     // 8, 8
 171:font.c        ****     24,
 172:font.c        ****     
 173:font.c        ****     3,
 174:font.c        ****     1,2,3,
 175:font.c        ****     2,
 176:font.c        ****     0,4,
 177:font.c        ****     2,
 178:font.c        ****     0,4,
 179:font.c        ****     3,
 180:font.c        ****     1,2,3,
 181:font.c        ****     2,
 182:font.c        ****     0,4,
 183:font.c        ****     2,
 184:font.c        ****     0,4,
 185:font.c        ****     3,
 186:font.c        ****     1,2,3,
 187:font.c        ****     
 188:font.c        ****     // 9, 9
 189:font.c        ****     22,
 190:font.c        ****     
 191:font.c        ****     2,
 192:font.c        ****     1,2,
 193:font.c        ****     1,
 194:font.c        ****     3,
 195:font.c        ****     1,
 196:font.c        ****     4,
 197:font.c        ****     4,
 198:font.c        ****     1,2,3,4,
 199:font.c        ****     2,
 200:font.c        ****     0,4,
 201:font.c        ****     2,
ARM GAS  C:\Users\JACOB-~1\AppData\Local\Temp\ccGLbPGC.s 			page 5


 202:font.c        ****     0,4,
 203:font.c        ****     3,
 204:font.c        ****     1,2,3,
 205:font.c        ****     
 206:font.c        ****     // A, 10
 207:font.c        ****     25,
 208:font.c        ****     
 209:font.c        ****     2,
 210:font.c        ****     0,4,
 211:font.c        ****     2,
 212:font.c        ****     0,4,
 213:font.c        ****     2,
 214:font.c        ****     0,4,
 215:font.c        ****     2,
 216:font.c        ****     0,4,
 217:font.c        ****     5,
 218:font.c        ****     0,1,2,3,4,
 219:font.c        ****     2,
 220:font.c        ****     0,4,
 221:font.c        ****     3,
 222:font.c        ****     1,2,3,
 223:font.c        ****     
 224:font.c        ****     // B, 11
 225:font.c        ****     27,
 226:font.c        ****     
 227:font.c        ****     4,
 228:font.c        ****     0,1,2,3,
 229:font.c        ****     2,
 230:font.c        ****     0,4,
 231:font.c        ****     2,
 232:font.c        ****     0,4,
 233:font.c        ****     2,
 234:font.c        ****     0,4,
 235:font.c        ****     4,
 236:font.c        ****     0,1,2,3,
 237:font.c        ****     2,
 238:font.c        ****     0,4,
 239:font.c        ****     4,
 240:font.c        ****     0,1,2,3,
 241:font.c        ****     
 242:font.c        ****     // C, 12
 243:font.c        ****     20,
 244:font.c        ****     
 245:font.c        ****     3,
 246:font.c        ****     1,2,3,
 247:font.c        ****     2,
 248:font.c        ****     0,4,
 249:font.c        ****     1,
 250:font.c        ****     0,
 251:font.c        ****     1,
 252:font.c        ****     0,
 253:font.c        ****     1,
 254:font.c        ****     0,
 255:font.c        ****     2,
 256:font.c        ****     0,4,
 257:font.c        ****     3,
 258:font.c        ****     1,2,3,
ARM GAS  C:\Users\JACOB-~1\AppData\Local\Temp\ccGLbPGC.s 			page 6


 259:font.c        ****     
 260:font.c        ****     // D, 13
 261:font.c        ****     25,
 262:font.c        ****     
 263:font.c        ****     4,
 264:font.c        ****     0,1,2,3,
 265:font.c        ****     2,
 266:font.c        ****     0,4,
 267:font.c        ****     2,
 268:font.c        ****     0,4,
 269:font.c        ****     2,
 270:font.c        ****     0,4,
 271:font.c        ****     2,
 272:font.c        ****     0,4,
 273:font.c        ****     2,
 274:font.c        ****     0,4,
 275:font.c        ****     4,
 276:font.c        ****     0,1,2,3,
 277:font.c        ****     
 278:font.c        ****     // E, 14
 279:font.c        ****     25,
 280:font.c        ****     
 281:font.c        ****     5,
 282:font.c        ****     0,1,2,3,4,
 283:font.c        ****     1,
 284:font.c        ****     0,
 285:font.c        ****     1,
 286:font.c        ****     0,
 287:font.c        ****     4,
 288:font.c        ****     0,1,2,3,
 289:font.c        ****     1,
 290:font.c        ****     0,
 291:font.c        ****     1,
 292:font.c        ****     0,
 293:font.c        ****     5,
 294:font.c        ****     0,1,2,3,4,
 295:font.c        ****     
 296:font.c        ****     // F, 15
 297:font.c        ****     20,
 298:font.c        ****     
 299:font.c        ****     1,
 300:font.c        ****     0,
 301:font.c        ****     1,
 302:font.c        ****     0,
 303:font.c        ****     1,
 304:font.c        ****     0,
 305:font.c        ****     1,
 306:font.c        ****     0,
 307:font.c        ****     3,
 308:font.c        ****     0,1,2,
 309:font.c        ****     1,
 310:font.c        ****     0,
 311:font.c        ****     5,
 312:font.c        ****     0,1,2,3,4,
 313:font.c        ****     
 314:font.c        ****     // G, 16
 315:font.c        ****     24,
ARM GAS  C:\Users\JACOB-~1\AppData\Local\Temp\ccGLbPGC.s 			page 7


 316:font.c        ****     
 317:font.c        ****     3,
 318:font.c        ****     1,2,3,
 319:font.c        ****     2,
 320:font.c        ****     0,4,
 321:font.c        ****     2,
 322:font.c        ****     0,4,
 323:font.c        ****     2,
 324:font.c        ****     0,4,
 325:font.c        ****     3,
 326:font.c        ****     0,3,4,
 327:font.c        ****     1,
 328:font.c        ****     0,
 329:font.c        ****     4,
 330:font.c        ****     1,2,3,4,
 331:font.c        ****     
 332:font.c        ****     // H, 17
 333:font.c        ****     24,
 334:font.c        ****     
 335:font.c        ****     2,
 336:font.c        ****     0,4,
 337:font.c        ****     2,
 338:font.c        ****     0,4,
 339:font.c        ****     2,
 340:font.c        ****     0,4,
 341:font.c        ****     2,
 342:font.c        ****     0,4,
 343:font.c        ****     5,
 344:font.c        ****     0,1,2,3,4,
 345:font.c        ****     2,
 346:font.c        ****     0,4,
 347:font.c        ****     2,
 348:font.c        ****     0,4,
 349:font.c        ****     
 350:font.c        ****     // I, 18
 351:font.c        ****     18,
 352:font.c        ****     
 353:font.c        ****     3,
 354:font.c        ****     1,2,3,
 355:font.c        ****     1,
 356:font.c        ****     2,
 357:font.c        ****     1,
 358:font.c        ****     2,
 359:font.c        ****     1,
 360:font.c        ****     2,
 361:font.c        ****     1,
 362:font.c        ****     2,
 363:font.c        ****     1,
 364:font.c        ****     2,
 365:font.c        ****     3,
 366:font.c        ****     1,2,3,
 367:font.c        ****     
 368:font.c        ****     // J, 19
 369:font.c        ****     17,
 370:font.c        ****     
 371:font.c        ****     3,
 372:font.c        ****     1,2,3,
ARM GAS  C:\Users\JACOB-~1\AppData\Local\Temp\ccGLbPGC.s 			page 8


 373:font.c        ****     2,
 374:font.c        ****     0,4,
 375:font.c        ****     1,
 376:font.c        ****     4,
 377:font.c        ****     1,
 378:font.c        ****     4,
 379:font.c        ****     1,
 380:font.c        ****     4,
 381:font.c        ****     1,
 382:font.c        ****     4,
 383:font.c        ****     1,
 384:font.c        ****     4,
 385:font.c        ****     
 386:font.c        ****     // K, 20
 387:font.c        ****     22,
 388:font.c        ****     
 389:font.c        ****     2,
 390:font.c        ****     0,4,
 391:font.c        ****     2,
 392:font.c        ****     0,4,
 393:font.c        ****     2,
 394:font.c        ****     0,4,
 395:font.c        ****     2,
 396:font.c        ****     0,3,
 397:font.c        ****     3,
 398:font.c        ****     0,1,2,
 399:font.c        ****     2,
 400:font.c        ****     0,3,
 401:font.c        ****     2,
 402:font.c        ****     0,4,
 403:font.c        ****     
 404:font.c        ****     // L, 21
 405:font.c        ****     18,
 406:font.c        ****     
 407:font.c        ****     5,
 408:font.c        ****     0,1,2,3,4,
 409:font.c        ****     1,
 410:font.c        ****     0,
 411:font.c        ****     1,
 412:font.c        ****     0,
 413:font.c        ****     1,
 414:font.c        ****     0,
 415:font.c        ****     1,
 416:font.c        ****     0,
 417:font.c        ****     1,
 418:font.c        ****     0,
 419:font.c        ****     1,
 420:font.c        ****     0,
 421:font.c        ****     
 422:font.c        ****     // M, 22
 423:font.c        ****     24,
 424:font.c        ****     
 425:font.c        ****     2,
 426:font.c        ****     0,4,
 427:font.c        ****     2,
 428:font.c        ****     0,4,
 429:font.c        ****     2,
ARM GAS  C:\Users\JACOB-~1\AppData\Local\Temp\ccGLbPGC.s 			page 9


 430:font.c        ****     0,4,
 431:font.c        ****     2,
 432:font.c        ****     0,4,
 433:font.c        ****     3,
 434:font.c        ****     0,2,4,
 435:font.c        ****     4,
 436:font.c        ****     0,1,3,4,
 437:font.c        ****     2,
 438:font.c        ****     0,4,
 439:font.c        ****     
 440:font.c        ****     // N, 23
 441:font.c        ****     24,
 442:font.c        ****     
 443:font.c        ****     2,
 444:font.c        ****     0,4,
 445:font.c        ****     2,
 446:font.c        ****     0,4,
 447:font.c        ****     2,
 448:font.c        ****     0,4,
 449:font.c        ****     3,
 450:font.c        ****     0,3,4,
 451:font.c        ****     3,
 452:font.c        ****     0,2,4,
 453:font.c        ****     3,
 454:font.c        ****     0,1,4,
 455:font.c        ****     2,
 456:font.c        ****     0,4,
 457:font.c        ****     
 458:font.c        ****     // O, 24
 459:font.c        ****     23,
 460:font.c        ****     
 461:font.c        ****     3,
 462:font.c        ****     1,2,3,
 463:font.c        ****     2,
 464:font.c        ****     0,4,
 465:font.c        ****     2,
 466:font.c        ****     0,4,
 467:font.c        ****     2,
 468:font.c        ****     0,4,
 469:font.c        ****     2,
 470:font.c        ****     0,4,
 471:font.c        ****     2,
 472:font.c        ****     0,4,
 473:font.c        ****     3,
 474:font.c        ****     1,2,3,
 475:font.c        ****     
 476:font.c        ****     // P, 25
 477:font.c        ****     21,
 478:font.c        ****     
 479:font.c        ****     1,
 480:font.c        ****     0,
 481:font.c        ****     1,
 482:font.c        ****     0,
 483:font.c        ****     1,
 484:font.c        ****     0,
 485:font.c        ****     1,
 486:font.c        ****     0,
ARM GAS  C:\Users\JACOB-~1\AppData\Local\Temp\ccGLbPGC.s 			page 10


 487:font.c        ****     4,
 488:font.c        ****     0,1,2,3,
 489:font.c        ****     2,
 490:font.c        ****     0,4,
 491:font.c        ****     4,
 492:font.c        ****     0,1,2,3,
 493:font.c        ****     
 494:font.c        ****     // Q, 26
 495:font.c        ****     23,
 496:font.c        ****     
 497:font.c        ****     3,
 498:font.c        ****     1,2,4,
 499:font.c        ****     2,
 500:font.c        ****     0,3,
 501:font.c        ****     2,
 502:font.c        ****     0,4,
 503:font.c        ****     2,
 504:font.c        ****     0,4,
 505:font.c        ****     2,
 506:font.c        ****     0,4,
 507:font.c        ****     2,
 508:font.c        ****     0,4,
 509:font.c        ****     3,
 510:font.c        ****     1,2,3,
 511:font.c        ****     
 512:font.c        ****     // R, 27
 513:font.c        ****     25,
 514:font.c        ****     
 515:font.c        ****     2,
 516:font.c        ****     0,4,
 517:font.c        ****     2,
 518:font.c        ****     0,4,
 519:font.c        ****     2,
 520:font.c        ****     0,4,
 521:font.c        ****     2,
 522:font.c        ****     0,4,
 523:font.c        ****     4,
 524:font.c        ****     0,1,2,3,
 525:font.c        ****     2,
 526:font.c        ****     0,4,
 527:font.c        ****     4,
 528:font.c        ****     0,1,2,3,
 529:font.c        ****     
 530:font.c        ****     // S, 28
 531:font.c        ****     22,
 532:font.c        ****     
 533:font.c        ****     3,
 534:font.c        ****     1,2,3,
 535:font.c        ****     2,
 536:font.c        ****     0,4,
 537:font.c        ****     1,
 538:font.c        ****     4,
 539:font.c        ****     1,
 540:font.c        ****     4,
 541:font.c        ****     3,
 542:font.c        ****     1,2,3,
 543:font.c        ****     1,
ARM GAS  C:\Users\JACOB-~1\AppData\Local\Temp\ccGLbPGC.s 			page 11


 544:font.c        ****     0,
 545:font.c        ****     4,
 546:font.c        ****     1,2,3,4,
 547:font.c        ****     
 548:font.c        ****     // T, 29
 549:font.c        ****     18,
 550:font.c        ****     
 551:font.c        ****     1,
 552:font.c        ****     2,
 553:font.c        ****     1,
 554:font.c        ****     2,
 555:font.c        ****     1,
 556:font.c        ****     2,
 557:font.c        ****     1,
 558:font.c        ****     2,
 559:font.c        ****     1,
 560:font.c        ****     2,
 561:font.c        ****     1,
 562:font.c        ****     2,
 563:font.c        ****     5,
 564:font.c        ****     0,1,2,3,4,
 565:font.c        ****     
 566:font.c        ****     // U, 30
 567:font.c        ****     22,
 568:font.c        ****     
 569:font.c        ****     3,
 570:font.c        ****     1,2,3,
 571:font.c        ****     2,
 572:font.c        ****     0,4,
 573:font.c        ****     2,
 574:font.c        ****     0,4,
 575:font.c        ****     2,
 576:font.c        ****     0,4,
 577:font.c        ****     2,
 578:font.c        ****     0,4,
 579:font.c        ****     2,
 580:font.c        ****     0,4,
 581:font.c        ****     2,
 582:font.c        ****     0,4,
 583:font.c        ****     
 584:font.c        ****     // V, 31
 585:font.c        ****     20,
 586:font.c        ****     
 587:font.c        ****     1,
 588:font.c        ****     2,
 589:font.c        ****     2,
 590:font.c        ****     1,3,
 591:font.c        ****     2,
 592:font.c        ****     1,3,
 593:font.c        ****     2,
 594:font.c        ****     0,4,
 595:font.c        ****     2,
 596:font.c        ****     0,4,
 597:font.c        ****     2,
 598:font.c        ****     0,4,
 599:font.c        ****     2,
 600:font.c        ****     0,4,
ARM GAS  C:\Users\JACOB-~1\AppData\Local\Temp\ccGLbPGC.s 			page 12


 601:font.c        ****     
 602:font.c        ****     // W, 32
 603:font.c        ****     24,
 604:font.c        ****     
 605:font.c        ****     2,
 606:font.c        ****     0,4,
 607:font.c        ****     4,
 608:font.c        ****     0,1,3,4,
 609:font.c        ****     3,
 610:font.c        ****     0,2,4,
 611:font.c        ****     2,
 612:font.c        ****     0,4,
 613:font.c        ****     2,
 614:font.c        ****     0,4,
 615:font.c        ****     2,
 616:font.c        ****     0,4,
 617:font.c        ****     2,
 618:font.c        ****     0,4,
 619:font.c        ****     
 620:font.c        ****     // X, 33
 621:font.c        ****     20,
 622:font.c        ****     
 623:font.c        ****     2,
 624:font.c        ****     0,4,
 625:font.c        ****     2,
 626:font.c        ****     0,4,
 627:font.c        ****     2,
 628:font.c        ****     0,4,
 629:font.c        ****     2,
 630:font.c        ****     1,3,
 631:font.c        ****     1,
 632:font.c        ****     2,
 633:font.c        ****     2,
 634:font.c        ****     1,3,
 635:font.c        ****     2,
 636:font.c        ****     0,4,
 637:font.c        ****     
 638:font.c        ****     // Y, 34
 639:font.c        ****     16,
 640:font.c        ****     
 641:font.c        ****     1,
 642:font.c        ****     2,
 643:font.c        ****     1,
 644:font.c        ****     2,
 645:font.c        ****     1,
 646:font.c        ****     2,
 647:font.c        ****     1,
 648:font.c        ****     2,
 649:font.c        ****     1,
 650:font.c        ****     2,
 651:font.c        ****     2,
 652:font.c        ****     1,3,
 653:font.c        ****     2,
 654:font.c        ****     0,4,
 655:font.c        ****     
 656:font.c        ****     // Z, 35
 657:font.c        ****     22,
ARM GAS  C:\Users\JACOB-~1\AppData\Local\Temp\ccGLbPGC.s 			page 13


 658:font.c        ****     
 659:font.c        ****     5,
 660:font.c        ****     0,1,2,3,4,
 661:font.c        ****     1,
 662:font.c        ****     0,
 663:font.c        ****     1,
 664:font.c        ****     1,
 665:font.c        ****     1,
 666:font.c        ****     2,
 667:font.c        ****     1,
 668:font.c        ****     3,
 669:font.c        ****     1,
 670:font.c        ****     4,
 671:font.c        ****     5,
 672:font.c        ****     0,1,2,3,4,
 673:font.c        ****     
 674:font.c        ****     // ., 36
 675:font.c        ****     8,
 676:font.c        ****     
 677:font.c        ****     1,
 678:font.c        ****     2,
 679:font.c        ****     0,
 680:font.c        **** 
 681:font.c        ****     0,
 682:font.c        **** 
 683:font.c        ****     0,
 684:font.c        **** 
 685:font.c        ****     0,
 686:font.c        **** 
 687:font.c        ****     0,
 688:font.c        **** 
 689:font.c        ****     0,
 690:font.c        ****     
 691:font.c        ****     // [space], 37
 692:font.c        ****     7,
 693:font.c        ****     
 694:font.c        ****     0,
 695:font.c        ****     
 696:font.c        ****     0,
 697:font.c        ****     
 698:font.c        ****     0,
 699:font.c        ****     
 700:font.c        ****     0,
 701:font.c        ****     
 702:font.c        ****     0,
 703:font.c        ****     
 704:font.c        ****     0,
 705:font.c        ****     
 706:font.c        ****     0
 707:font.c        **** };
 708:font.c        **** 
 709:font.c        **** // Work in progress
 710:font.c        **** void draw_character(int16_t x, int16_t y, uint16_t color, uint16_t character)
 711:font.c        **** {
  28              		.loc 1 711 0
  29              		.cfi_startproc
  30              		@ args = 0, pretend = 0, frame = 8
ARM GAS  C:\Users\JACOB-~1\AppData\Local\Temp\ccGLbPGC.s 			page 14


  31              		@ frame_needed = 0, uses_anonymous_args = 0
  32              	.LVL0:
  33 0000 2DE9F04F 		push	{r4, r5, r6, r7, r8, r9, r10, fp, lr}
  34              		.cfi_def_cfa_offset 36
  35              		.cfi_offset 4, -36
  36              		.cfi_offset 5, -32
  37              		.cfi_offset 6, -28
  38              		.cfi_offset 7, -24
  39              		.cfi_offset 8, -20
  40              		.cfi_offset 9, -16
  41              		.cfi_offset 10, -12
  42              		.cfi_offset 11, -8
  43              		.cfi_offset 14, -4
  44 0004 1746     		mov	r7, r2
  45 0006 83B0     		sub	sp, sp, #12
  46              		.cfi_def_cfa_offset 48
  47              	.LBB6:
 712:font.c        ****     uint16_t index = 1;
 713:font.c        ****     
 714:font.c        ****     for(int i=0; i<character;i++)
  48              		.loc 1 714 0
  49 0008 002B     		cmp	r3, #0
  50 000a 3CD0     		beq	.L9
  51 000c 204E     		ldr	r6, .L18
  52 000e 1A24     		movs	r4, #26
  53 0010 0025     		movs	r5, #0
  54 0012 0122     		movs	r2, #1
  55              	.LVL1:
  56 0014 00E0     		b	.L4
  57              	.LVL2:
  58              	.L17:
  59 0016 B45C     		ldrb	r4, [r6, r2]	@ zero_extendqisi2
  60              	.LVL3:
  61              	.L4:
 715:font.c        ****     {
 716:font.c        ****         index = index + font[index] + 1;
  62              		.loc 1 716 0 discriminator 3
  63 0018 0134     		adds	r4, r4, #1
 714:font.c        ****     {
  64              		.loc 1 714 0 discriminator 3
  65 001a 0135     		adds	r5, r5, #1
  66              	.LVL4:
  67              		.loc 1 716 0 discriminator 3
  68 001c 2244     		add	r2, r2, r4
  69              	.LVL5:
 714:font.c        ****     {
  70              		.loc 1 714 0 discriminator 3
  71 001e 9D42     		cmp	r5, r3
  72              		.loc 1 716 0 discriminator 3
  73 0020 92B2     		uxth	r2, r2
  74              	.LVL6:
 714:font.c        ****     {
  75              		.loc 1 714 0 discriminator 3
  76 0022 F8D1     		bne	.L17
  77 0024 02F10108 		add	r8, r2, #1
  78 0028 1FFA88F8 		uxth	r8, r8
  79 002c 16F80890 		ldrb	r9, [r6, r8]	@ zero_extendqisi2
ARM GAS  C:\Users\JACOB-~1\AppData\Local\Temp\ccGLbPGC.s 			page 15


  80              	.LVL7:
  81              	.L2:
  82              	.LBE6:
 717:font.c        ****     }
 718:font.c        ****     
 719:font.c        ****     index = index+1;
 720:font.c        ****     y = y-2;
  83              		.loc 1 720 0
  84 0030 89B2     		uxth	r1, r1
  85 0032 8C1E     		subs	r4, r1, #2
  86 0034 0531     		adds	r1, r1, #5
  87              	.LVL8:
 721:font.c        ****     x = x-2;
  88              		.loc 1 721 0
  89 0036 0238     		subs	r0, r0, #2
  90              	.LVL9:
  91 0038 0BB2     		sxth	r3, r1
  92              	.LVL10:
  93 003a DFF854A0 		ldr	r10, .L18
  94 003e 06B2     		sxth	r6, r0
 720:font.c        ****     x = x-2;
  95              		.loc 1 720 0
  96 0040 24B2     		sxth	r4, r4
  97              	.LVL11:
  98 0042 0193     		str	r3, [sp, #4]
  99              	.LVL12:
 100              	.L5:
 101              	.LBB7:
 102              	.LBB8:
 722:font.c        ****     uint8_t height = font[0];
 723:font.c        ****     
 724:font.c        ****     for(int i=0; i<height; i++)
 725:font.c        ****     {
 726:font.c        ****         for(int j=0; j<font[index] ;j++)
 103              		.loc 1 726 0
 104 0044 B9F1000F 		cmp	r9, #0
 105 0048 0DD0     		beq	.L8
 106 004a 09EB0805 		add	r5, r9, r8
 107 004e 5544     		add	r5, r5, r10
 108 0050 0AEB080B 		add	fp, r10, r8
 109              	.LVL13:
 110              	.L6:
 111              	.LBB9:
 727:font.c        ****         {
 728:font.c        ****             draw_pixel(x+font[index+j+1],y,color);
 112              		.loc 1 728 0 discriminator 3
 113 0054 1BF8010F 		ldrb	r0, [fp, #1]!	@ zero_extendqisi2
 114 0058 3A46     		mov	r2, r7
 115 005a 3044     		add	r0, r0, r6
 116 005c 2146     		mov	r1, r4
 117 005e FFF7FEFF 		bl	draw_pixel
 118              	.LVL14:
 119              	.LBE9:
 726:font.c        ****         {
 120              		.loc 1 726 0 discriminator 3
 121 0062 AB45     		cmp	fp, r5
 122 0064 F6D1     		bne	.L6
ARM GAS  C:\Users\JACOB-~1\AppData\Local\Temp\ccGLbPGC.s 			page 16


 123              	.L8:
 124 0066 0134     		adds	r4, r4, #1
 125              	.LVL15:
 126              	.LBE8:
 724:font.c        ****     {
 127              		.loc 1 724 0
 128 0068 019B     		ldr	r3, [sp, #4]
 729:font.c        ****         }
 730:font.c        ****         y = y+1;
 731:font.c        ****         index = index+font[index]+1;
 129              		.loc 1 731 0
 130 006a 09F10109 		add	r9, r9, #1
 131 006e 24B2     		sxth	r4, r4
 132              	.LVL16:
 133 0070 C844     		add	r8, r8, r9
 134              	.LVL17:
 724:font.c        ****     {
 135              		.loc 1 724 0
 136 0072 A342     		cmp	r3, r4
 137              		.loc 1 731 0
 138 0074 1FFA88F8 		uxth	r8, r8
 139              	.LVL18:
 724:font.c        ****     {
 140              		.loc 1 724 0
 141 0078 02D0     		beq	.L1
 142 007a 1AF80890 		ldrb	r9, [r10, r8]	@ zero_extendqisi2
 143 007e E1E7     		b	.L5
 144              	.L1:
 145              	.LBE7:
 732:font.c        ****     }
 733:font.c        **** }
 146              		.loc 1 733 0
 147 0080 03B0     		add	sp, sp, #12
 148              		.cfi_remember_state
 149              		.cfi_def_cfa_offset 36
 150              		@ sp needed
 151 0082 BDE8F08F 		pop	{r4, r5, r6, r7, r8, r9, r10, fp, pc}
 152              	.LVL19:
 153              	.L9:
 154              		.cfi_restore_state
 155              	.LBB10:
 714:font.c        ****     {
 156              		.loc 1 714 0
 157 0086 4FF00309 		mov	r9, #3
 158 008a 4FF00208 		mov	r8, #2
 159 008e CFE7     		b	.L2
 160              	.L19:
 161              		.align	2
 162              	.L18:
 163 0090 00000000 		.word	.LANCHOR0
 164              	.LBE10:
 165              		.cfi_endproc
 166              	.LFE64:
 167              		.size	draw_character, .-draw_character
 168              		.section	.text.draw_string,"ax",%progbits
 169              		.align	2
 170              		.global	draw_string
ARM GAS  C:\Users\JACOB-~1\AppData\Local\Temp\ccGLbPGC.s 			page 17


 171              		.thumb
 172              		.thumb_func
 173              		.type	draw_string, %function
 174              	draw_string:
 175              	.LFB65:
 734:font.c        **** 
 735:font.c        **** void draw_string(int16_t x, int16_t y, uint16_t color, char string[])
 736:font.c        **** {
 176              		.loc 1 736 0
 177              		.cfi_startproc
 178              		@ args = 0, pretend = 0, frame = 24
 179              		@ frame_needed = 0, uses_anonymous_args = 0
 180              	.LVL20:
 181 0000 2DE9F04F 		push	{r4, r5, r6, r7, r8, r9, r10, fp, lr}
 182              		.cfi_def_cfa_offset 36
 183              		.cfi_offset 4, -36
 184              		.cfi_offset 5, -32
 185              		.cfi_offset 6, -28
 186              		.cfi_offset 7, -24
 187              		.cfi_offset 8, -20
 188              		.cfi_offset 9, -16
 189              		.cfi_offset 10, -12
 190              		.cfi_offset 11, -8
 191              		.cfi_offset 14, -4
 192 0004 87B0     		sub	sp, sp, #28
 193              		.cfi_def_cfa_offset 64
 194              		.loc 1 736 0
 195 0006 0193     		str	r3, [sp, #4]
 737:font.c        ****     int16_t x_coor = x;
 738:font.c        ****     
 739:font.c        ****     while(*string != 0)
 196              		.loc 1 739 0
 197 0008 1B78     		ldrb	r3, [r3]	@ zero_extendqisi2
 198              	.LVL21:
 736:font.c        ****     int16_t x_coor = x;
 199              		.loc 1 736 0
 200 000a 0490     		str	r0, [sp, #16]
 201              	.LVL22:
 202 000c 0291     		str	r1, [sp, #8]
 203              	.LVL23:
 204              		.loc 1 739 0
 205 000e 002B     		cmp	r3, #0
 206 0010 56D0     		beq	.L20
 207 0012 1446     		mov	r4, r2
 208 0014 0646     		mov	r6, r0
 209 0016 DFF864BC 		ldr	fp, .L452
 210              	.LVL24:
 211              	.L218:
 212              	.LBB240:
 740:font.c        ****     {
 741:font.c        ****         char g = *string;
 742:font.c        ****         
 743:font.c        ****         switch(g)
 213              		.loc 1 743 0
 214 001a 203B     		subs	r3, r3, #32
 215              	.LVL25:
 216 001c 3A2B     		cmp	r3, #58
ARM GAS  C:\Users\JACOB-~1\AppData\Local\Temp\ccGLbPGC.s 			page 18


 217 001e 3CD8     		bhi	.L22
 218 0020 DFE813F0 		tbh	[pc, r3, lsl #1]
 219              	.L24:
 220 0024 0805     		.2byte	(.L23-.L24)/2
 221 0026 3B00     		.2byte	(.L22-.L24)/2
 222 0028 3B00     		.2byte	(.L22-.L24)/2
 223 002a 3B00     		.2byte	(.L22-.L24)/2
 224 002c 3B00     		.2byte	(.L22-.L24)/2
 225 002e 3B00     		.2byte	(.L22-.L24)/2
 226 0030 3B00     		.2byte	(.L22-.L24)/2
 227 0032 3B00     		.2byte	(.L22-.L24)/2
 228 0034 3B00     		.2byte	(.L22-.L24)/2
 229 0036 3B00     		.2byte	(.L22-.L24)/2
 230 0038 3B00     		.2byte	(.L22-.L24)/2
 231 003a 3B00     		.2byte	(.L22-.L24)/2
 232 003c 3B00     		.2byte	(.L22-.L24)/2
 233 003e 3B00     		.2byte	(.L22-.L24)/2
 234 0040 CF04     		.2byte	(.L25-.L24)/2
 235 0042 3B00     		.2byte	(.L22-.L24)/2
 236 0044 A004     		.2byte	(.L26-.L24)/2
 237 0046 9F05     		.2byte	(.L27-.L24)/2
 238 0048 4105     		.2byte	(.L28-.L24)/2
 239 004a 7005     		.2byte	(.L29-.L24)/2
 240 004c 7802     		.2byte	(.L30-.L24)/2
 241 004e 8C06     		.2byte	(.L31-.L24)/2
 242 0050 5D06     		.2byte	(.L32-.L24)/2
 243 0052 BB06     		.2byte	(.L33-.L24)/2
 244 0054 4F03     		.2byte	(.L34-.L24)/2
 245 0056 FD05     		.2byte	(.L35-.L24)/2
 246 0058 3B00     		.2byte	(.L22-.L24)/2
 247 005a 3B00     		.2byte	(.L22-.L24)/2
 248 005c 3B00     		.2byte	(.L22-.L24)/2
 249 005e 3B00     		.2byte	(.L22-.L24)/2
 250 0060 3B00     		.2byte	(.L22-.L24)/2
 251 0062 3B00     		.2byte	(.L22-.L24)/2
 252 0064 3B00     		.2byte	(.L22-.L24)/2
 253 0066 CE05     		.2byte	(.L36-.L24)/2
 254 0068 2E06     		.2byte	(.L37-.L24)/2
 255 006a 1102     		.2byte	(.L38-.L24)/2
 256 006c 0B04     		.2byte	(.L39-.L24)/2
 257 006e DC03     		.2byte	(.L40-.L24)/2
 258 0070 AD03     		.2byte	(.L41-.L24)/2
 259 0072 7E03     		.2byte	(.L42-.L24)/2
 260 0074 7304     		.2byte	(.L43-.L24)/2
 261 0076 3A04     		.2byte	(.L44-.L24)/2
 262 0078 9507     		.2byte	(.L45-.L24)/2
 263 007a 4002     		.2byte	(.L46-.L24)/2
 264 007c CE07     		.2byte	(.L47-.L24)/2
 265 007e 1703     		.2byte	(.L48-.L24)/2
 266 0080 DF02     		.2byte	(.L49-.L24)/2
 267 0082 A702     		.2byte	(.L50-.L24)/2
 268 0084 2307     		.2byte	(.L51-.L24)/2
 269 0086 EA06     		.2byte	(.L52-.L24)/2
 270 0088 5C07     		.2byte	(.L53-.L24)/2
 271 008a D901     		.2byte	(.L54-.L24)/2
 272 008c A101     		.2byte	(.L55-.L24)/2
 273 008e 3101     		.2byte	(.L56-.L24)/2
ARM GAS  C:\Users\JACOB-~1\AppData\Local\Temp\ccGLbPGC.s 			page 19


 274 0090 6901     		.2byte	(.L57-.L24)/2
 275 0092 F900     		.2byte	(.L58-.L24)/2
 276 0094 C100     		.2byte	(.L59-.L24)/2
 277 0096 8900     		.2byte	(.L60-.L24)/2
 278 0098 5100     		.2byte	(.L61-.L24)/2
 279              		.p2align 1
 280              	.L22:
 281 009a B3B2     		uxth	r3, r6
 282 009c 0393     		str	r3, [sp, #12]
 283              	.LVL26:
 284              	.L84:
 744:font.c        ****         {
 745:font.c        ****             case 48 : 
 746:font.c        ****                 draw_character(x_coor,y,color,0); // Draws 0
 747:font.c        ****                 break;
 748:font.c        ****             case 49 : 
 749:font.c        ****                 draw_character(x_coor,y,color,1); // Draws 1
 750:font.c        ****                 break;
 751:font.c        ****             case 50 : 
 752:font.c        ****                 draw_character(x_coor,y,color,2); // Draws 2
 753:font.c        ****                 break;
 754:font.c        ****             case 51 : 
 755:font.c        ****                 draw_character(x_coor,y,color,3); // Draws 3
 756:font.c        ****                 break;
 757:font.c        ****             case 52 : 
 758:font.c        ****                 draw_character(x_coor,y,color,4); // Draws 4
 759:font.c        ****                 break;
 760:font.c        ****             case 53 : 
 761:font.c        ****                 draw_character(x_coor,y,color,5); // Draws 5
 762:font.c        ****                 break;
 763:font.c        ****             case 54 : 
 764:font.c        ****                 draw_character(x_coor,y,color,6); // Draws 6
 765:font.c        ****                 break;
 766:font.c        ****             case 55 : 
 767:font.c        ****                 draw_character(x_coor,y,color,7); // Draws 7
 768:font.c        ****                 break;
 769:font.c        ****             case 56 : 
 770:font.c        ****                 draw_character(x_coor,y,color,8); // Draws 8
 771:font.c        ****                 break;
 772:font.c        ****             case 57 : 
 773:font.c        ****                 draw_character(x_coor,y,color,9); // Draws 9
 774:font.c        ****                 break;
 775:font.c        ****             case 65 : 
 776:font.c        ****                 draw_character(x_coor,y,color,10); // Draws A
 777:font.c        ****                 break;
 778:font.c        ****             case 66 : 
 779:font.c        ****                 draw_character(x_coor,y,color,11); // Draws B
 780:font.c        ****                 break;
 781:font.c        ****             case 67 : 
 782:font.c        ****                 draw_character(x_coor,y,color,12); // Draws C
 783:font.c        ****                 break;
 784:font.c        ****             case 68 : 
 785:font.c        ****                 draw_character(x_coor,y,color,13); // Draws D
 786:font.c        ****                 break;
 787:font.c        ****             case 69 : 
 788:font.c        ****                 draw_character(x_coor,y,color,14); // Draws E
 789:font.c        ****                 break;
ARM GAS  C:\Users\JACOB-~1\AppData\Local\Temp\ccGLbPGC.s 			page 20


 790:font.c        ****             case 70 : 
 791:font.c        ****                 draw_character(x_coor,y,color,15); // Draws F
 792:font.c        ****                 break;
 793:font.c        ****             case 71 : 
 794:font.c        ****                 draw_character(x_coor,y,color,16); // Draws G
 795:font.c        ****                 break;
 796:font.c        ****             case 72 :
 797:font.c        ****                 draw_character(x_coor,y,color,17); // Draws H
 798:font.c        ****                 break;
 799:font.c        ****             case 73 :
 800:font.c        ****                 draw_character(x_coor,y,color,18); // Draws I
 801:font.c        ****                 break;
 802:font.c        ****             case 74 :
 803:font.c        ****                 draw_character(x_coor,y,color,19); // Draws J
 804:font.c        ****                 break;
 805:font.c        ****             case 75 :
 806:font.c        ****                 draw_character(x_coor,y,color,20); // Draws K
 807:font.c        ****                 break;
 808:font.c        ****             case 76 : 
 809:font.c        ****                 draw_character(x_coor,y,color,21); // Draws L
 810:font.c        ****                 break;
 811:font.c        ****             case 77 :
 812:font.c        ****                 draw_character(x_coor,y,color,22); // Draws M
 813:font.c        ****                 break;
 814:font.c        ****             case 78 :
 815:font.c        ****                 draw_character(x_coor,y,color,23); // Draws N
 816:font.c        ****                 break;
 817:font.c        ****             case 79 :
 818:font.c        ****                 draw_character(x_coor,y,color,24); // Draws O
 819:font.c        ****                 break;
 820:font.c        ****             case 80 :
 821:font.c        ****                 draw_character(x_coor,y,color,25); // Draws P
 822:font.c        ****                 break;
 823:font.c        ****             case 81 :
 824:font.c        ****                 draw_character(x_coor,y,color,26); // Draws Q
 825:font.c        ****                 break;
 826:font.c        ****             case 82 :
 827:font.c        ****                 draw_character(x_coor,y,color,27); // Draws R
 828:font.c        ****                 break;
 829:font.c        ****             case 83 :
 830:font.c        ****                 draw_character(x_coor,y,color,28); // Draws S
 831:font.c        ****                 break;
 832:font.c        ****             case 84 :
 833:font.c        ****                 draw_character(x_coor,y,color,29); // Draws T
 834:font.c        ****                 break;
 835:font.c        ****             case 85 :
 836:font.c        ****                 draw_character(x_coor,y,color,30); // Draws U
 837:font.c        ****                 break;
 838:font.c        ****             case 86 :
 839:font.c        ****                 draw_character(x_coor,y,color,31); // Draws V
 840:font.c        ****                 break;
 841:font.c        ****             case 87 :
 842:font.c        ****                 draw_character(x_coor,y,color,32); // Draws W
 843:font.c        ****                 break;
 844:font.c        ****             case 88 :
 845:font.c        ****                 draw_character(x_coor,y,color,33); // Draws X
 846:font.c        ****                 break;
ARM GAS  C:\Users\JACOB-~1\AppData\Local\Temp\ccGLbPGC.s 			page 21


 847:font.c        ****             case 89 :
 848:font.c        ****                 draw_character(x_coor,y,color,34); // Draws Y
 849:font.c        ****                 break;
 850:font.c        ****             case 90 :
 851:font.c        ****                 draw_character(x_coor,y,color,35); // Draws Z
 852:font.c        ****                 break;
 853:font.c        ****             case 46 :
 854:font.c        ****                 draw_character(x_coor,y,color,36); // Draws .
 855:font.c        ****                 break;
 856:font.c        ****             case 32 :
 857:font.c        ****                 draw_character(x_coor,y,color,37); // Draws [space]
 858:font.c        ****                 break;
 859:font.c        ****         }
 860:font.c        ****         
 861:font.c        ****         x_coor = x_coor+7;
 285              		.loc 1 861 0
 286 009e 039E     		ldr	r6, [sp, #12]
 287 00a0 0736     		adds	r6, r6, #7
 288 00a2 36B2     		sxth	r6, r6
 289              	.LVL27:
 862:font.c        ****         if (x_coor>316)
 290              		.loc 1 862 0
 291 00a4 B6F59E7F 		cmp	r6, #316
 292 00a8 04DD     		ble	.L217
 293              	.LVL28:
 863:font.c        ****         {
 864:font.c        ****             x_coor = x;
 865:font.c        ****             y = y-9;
 294              		.loc 1 865 0
 295 00aa 029B     		ldr	r3, [sp, #8]
 864:font.c        ****             y = y-9;
 296              		.loc 1 864 0
 297 00ac 049E     		ldr	r6, [sp, #16]
 298              		.loc 1 865 0
 299 00ae 093B     		subs	r3, r3, #9
 300 00b0 1BB2     		sxth	r3, r3
 301 00b2 0293     		str	r3, [sp, #8]
 302              	.LVL29:
 303              	.L217:
 304              	.LBE240:
 739:font.c        ****     {
 305              		.loc 1 739 0
 306 00b4 019A     		ldr	r2, [sp, #4]
 307 00b6 12F8013F 		ldrb	r3, [r2, #1]!	@ zero_extendqisi2
 308 00ba 0192     		str	r2, [sp, #4]
 309              	.LVL30:
 310 00bc 002B     		cmp	r3, #0
 311 00be ACD1     		bne	.L218
 312              	.LVL31:
 313              	.L20:
 866:font.c        ****         }
 867:font.c        ****         
 868:font.c        ****         string = string+1;
 869:font.c        ****     }
 870:font.c        **** }
 314              		.loc 1 870 0
 315 00c0 07B0     		add	sp, sp, #28
ARM GAS  C:\Users\JACOB-~1\AppData\Local\Temp\ccGLbPGC.s 			page 22


 316              		.cfi_remember_state
 317              		.cfi_def_cfa_offset 36
 318              		@ sp needed
 319 00c2 BDE8F08F 		pop	{r4, r5, r6, r7, r8, r9, r10, fp, pc}
 320              	.LVL32:
 321              	.L61:
 322              		.cfi_restore_state
 323              	.LBB451:
 743:font.c        ****         {
 324              		.loc 1 743 0
 325 00c6 2321     		movs	r1, #35
 326 00c8 1A22     		movs	r2, #26
 327 00ca 0123     		movs	r3, #1
 328 00cc 01E0     		b	.L62
 329              	.LVL33:
 330              	.L432:
 331 00ce 1BF80320 		ldrb	r2, [fp, r3]	@ zero_extendqisi2
 332              	.LVL34:
 333              	.L62:
 334              	.LBB241:
 335              	.LBB242:
 336              	.LBB243:
 716:font.c        ****     }
 337              		.loc 1 716 0
 338 00d2 0132     		adds	r2, r2, #1
 339 00d4 1344     		add	r3, r3, r2
 340              	.LVL35:
 714:font.c        ****     {
 341              		.loc 1 714 0
 342 00d6 0139     		subs	r1, r1, #1
 716:font.c        ****     }
 343              		.loc 1 716 0
 344 00d8 9BB2     		uxth	r3, r3
 345              	.LVL36:
 714:font.c        ****     {
 346              		.loc 1 714 0
 347 00da F8D1     		bne	.L432
 348              	.LBE243:
 721:font.c        ****     uint8_t height = font[0];
 349              		.loc 1 721 0
 350 00dc B2B2     		uxth	r2, r6
 351 00de 1146     		mov	r1, r2
 352 00e0 0392     		str	r2, [sp, #12]
 720:font.c        ****     x = x-2;
 353              		.loc 1 720 0
 354 00e2 BDF80820 		ldrh	r2, [sp, #8]
 719:font.c        ****     y = y-2;
 355              		.loc 1 719 0
 356 00e6 0133     		adds	r3, r3, #1
 357              	.LVL37:
 720:font.c        ****     x = x-2;
 358              		.loc 1 720 0
 359 00e8 951E     		subs	r5, r2, #2
 360 00ea 0532     		adds	r2, r2, #5
 721:font.c        ****     uint8_t height = font[0];
 361              		.loc 1 721 0
 362 00ec 8F1E     		subs	r7, r1, #2
ARM GAS  C:\Users\JACOB-~1\AppData\Local\Temp\ccGLbPGC.s 			page 23


 719:font.c        ****     y = y-2;
 363              		.loc 1 719 0
 364 00ee 1FFA83F8 		uxth	r8, r3
 365              	.LVL38:
 366 00f2 13B2     		sxth	r3, r2
 721:font.c        ****     uint8_t height = font[0];
 367              		.loc 1 721 0
 368 00f4 3FB2     		sxth	r7, r7
 720:font.c        ****     x = x-2;
 369              		.loc 1 720 0
 370 00f6 2DB2     		sxth	r5, r5
 371              	.LVL39:
 372 00f8 0593     		str	r3, [sp, #20]
 373              	.LVL40:
 374              	.L206:
 375              	.LBB244:
 376              	.LBB245:
 726:font.c        ****         {
 377              		.loc 1 726 0
 378 00fa 1BF80890 		ldrb	r9, [fp, r8]	@ zero_extendqisi2
 379 00fe B9F1000F 		cmp	r9, #0
 380 0102 0DD0     		beq	.L208
 381 0104 09EB0806 		add	r6, r9, r8
 382 0108 5E44     		add	r6, r6, fp
 383 010a 0BEB080A 		add	r10, fp, r8
 384              	.LVL41:
 385              	.L207:
 386              	.LBB246:
 728:font.c        ****         }
 387              		.loc 1 728 0
 388 010e 1AF8010F 		ldrb	r0, [r10, #1]!	@ zero_extendqisi2
 389 0112 2246     		mov	r2, r4
 390 0114 3844     		add	r0, r0, r7
 391 0116 2946     		mov	r1, r5
 392 0118 FFF7FEFF 		bl	draw_pixel
 393              	.LVL42:
 394              	.LBE246:
 726:font.c        ****         {
 395              		.loc 1 726 0
 396 011c 5645     		cmp	r6, r10
 397 011e F6D1     		bne	.L207
 398              	.L208:
 399 0120 0135     		adds	r5, r5, #1
 400              	.LVL43:
 401              	.LBE245:
 724:font.c        ****     {
 402              		.loc 1 724 0
 403 0122 059B     		ldr	r3, [sp, #20]
 731:font.c        ****     }
 404              		.loc 1 731 0
 405 0124 09F10109 		add	r9, r9, #1
 406 0128 2DB2     		sxth	r5, r5
 407              	.LVL44:
 408 012a C844     		add	r8, r8, r9
 409              	.LVL45:
 724:font.c        ****     {
 410              		.loc 1 724 0
ARM GAS  C:\Users\JACOB-~1\AppData\Local\Temp\ccGLbPGC.s 			page 24


 411 012c AB42     		cmp	r3, r5
 731:font.c        ****     }
 412              		.loc 1 731 0
 413 012e 1FFA88F8 		uxth	r8, r8
 414              	.LVL46:
 724:font.c        ****     {
 415              		.loc 1 724 0
 416 0132 E2D1     		bne	.L206
 417 0134 B3E7     		b	.L84
 418              	.LVL47:
 419              	.L60:
 420              	.LBE244:
 421              	.LBE242:
 422              	.LBE241:
 743:font.c        ****         {
 423              		.loc 1 743 0
 424 0136 2221     		movs	r1, #34
 425 0138 1A22     		movs	r2, #26
 426 013a 0123     		movs	r3, #1
 427 013c 01E0     		b	.L63
 428              	.LVL48:
 429              	.L433:
 430 013e 1BF80320 		ldrb	r2, [fp, r3]	@ zero_extendqisi2
 431              	.LVL49:
 432              	.L63:
 433              	.LBB247:
 434              	.LBB248:
 435              	.LBB249:
 716:font.c        ****     }
 436              		.loc 1 716 0
 437 0142 0132     		adds	r2, r2, #1
 438 0144 1344     		add	r3, r3, r2
 439              	.LVL50:
 714:font.c        ****     {
 440              		.loc 1 714 0
 441 0146 0139     		subs	r1, r1, #1
 716:font.c        ****     }
 442              		.loc 1 716 0
 443 0148 9BB2     		uxth	r3, r3
 444              	.LVL51:
 714:font.c        ****     {
 445              		.loc 1 714 0
 446 014a F8D1     		bne	.L433
 447              	.LBE249:
 721:font.c        ****     uint8_t height = font[0];
 448              		.loc 1 721 0
 449 014c B2B2     		uxth	r2, r6
 450 014e 1146     		mov	r1, r2
 451 0150 0392     		str	r2, [sp, #12]
 720:font.c        ****     x = x-2;
 452              		.loc 1 720 0
 453 0152 BDF80820 		ldrh	r2, [sp, #8]
 719:font.c        ****     y = y-2;
 454              		.loc 1 719 0
 455 0156 0133     		adds	r3, r3, #1
 456              	.LVL52:
 720:font.c        ****     x = x-2;
ARM GAS  C:\Users\JACOB-~1\AppData\Local\Temp\ccGLbPGC.s 			page 25


 457              		.loc 1 720 0
 458 0158 951E     		subs	r5, r2, #2
 459 015a 0532     		adds	r2, r2, #5
 721:font.c        ****     uint8_t height = font[0];
 460              		.loc 1 721 0
 461 015c 8F1E     		subs	r7, r1, #2
 719:font.c        ****     y = y-2;
 462              		.loc 1 719 0
 463 015e 1FFA83F8 		uxth	r8, r3
 464              	.LVL53:
 465 0162 13B2     		sxth	r3, r2
 721:font.c        ****     uint8_t height = font[0];
 466              		.loc 1 721 0
 467 0164 3FB2     		sxth	r7, r7
 720:font.c        ****     x = x-2;
 468              		.loc 1 720 0
 469 0166 2DB2     		sxth	r5, r5
 470              	.LVL54:
 471 0168 0593     		str	r3, [sp, #20]
 472              	.LVL55:
 473              	.L202:
 474              	.LBB250:
 475              	.LBB251:
 726:font.c        ****         {
 476              		.loc 1 726 0
 477 016a 1BF80890 		ldrb	r9, [fp, r8]	@ zero_extendqisi2
 478 016e B9F1000F 		cmp	r9, #0
 479 0172 0DD0     		beq	.L204
 480 0174 09EB0806 		add	r6, r9, r8
 481 0178 5E44     		add	r6, r6, fp
 482 017a 0BEB080A 		add	r10, fp, r8
 483              	.LVL56:
 484              	.L203:
 485              	.LBB252:
 728:font.c        ****         }
 486              		.loc 1 728 0
 487 017e 1AF8010F 		ldrb	r0, [r10, #1]!	@ zero_extendqisi2
 488 0182 2246     		mov	r2, r4
 489 0184 3844     		add	r0, r0, r7
 490 0186 2946     		mov	r1, r5
 491 0188 FFF7FEFF 		bl	draw_pixel
 492              	.LVL57:
 493              	.LBE252:
 726:font.c        ****         {
 494              		.loc 1 726 0
 495 018c 5645     		cmp	r6, r10
 496 018e F6D1     		bne	.L203
 497              	.L204:
 498 0190 0135     		adds	r5, r5, #1
 499              	.LVL58:
 500              	.LBE251:
 724:font.c        ****     {
 501              		.loc 1 724 0
 502 0192 059B     		ldr	r3, [sp, #20]
 731:font.c        ****     }
 503              		.loc 1 731 0
 504 0194 09F10109 		add	r9, r9, #1
ARM GAS  C:\Users\JACOB-~1\AppData\Local\Temp\ccGLbPGC.s 			page 26


 505 0198 2DB2     		sxth	r5, r5
 506              	.LVL59:
 507 019a C844     		add	r8, r8, r9
 508              	.LVL60:
 724:font.c        ****     {
 509              		.loc 1 724 0
 510 019c AB42     		cmp	r3, r5
 731:font.c        ****     }
 511              		.loc 1 731 0
 512 019e 1FFA88F8 		uxth	r8, r8
 513              	.LVL61:
 724:font.c        ****     {
 514              		.loc 1 724 0
 515 01a2 E2D1     		bne	.L202
 516 01a4 7BE7     		b	.L84
 517              	.LVL62:
 518              	.L59:
 519              	.LBE250:
 520              	.LBE248:
 521              	.LBE247:
 743:font.c        ****         {
 522              		.loc 1 743 0
 523 01a6 2121     		movs	r1, #33
 524 01a8 1A22     		movs	r2, #26
 525 01aa 0123     		movs	r3, #1
 526 01ac 01E0     		b	.L64
 527              	.LVL63:
 528              	.L434:
 529 01ae 1BF80320 		ldrb	r2, [fp, r3]	@ zero_extendqisi2
 530              	.LVL64:
 531              	.L64:
 532              	.LBB253:
 533              	.LBB254:
 534              	.LBB255:
 716:font.c        ****     }
 535              		.loc 1 716 0
 536 01b2 0132     		adds	r2, r2, #1
 537 01b4 1344     		add	r3, r3, r2
 538              	.LVL65:
 714:font.c        ****     {
 539              		.loc 1 714 0
 540 01b6 0139     		subs	r1, r1, #1
 716:font.c        ****     }
 541              		.loc 1 716 0
 542 01b8 9BB2     		uxth	r3, r3
 543              	.LVL66:
 714:font.c        ****     {
 544              		.loc 1 714 0
 545 01ba F8D1     		bne	.L434
 546              	.LBE255:
 721:font.c        ****     uint8_t height = font[0];
 547              		.loc 1 721 0
 548 01bc B2B2     		uxth	r2, r6
 549 01be 1146     		mov	r1, r2
 550 01c0 0392     		str	r2, [sp, #12]
 720:font.c        ****     x = x-2;
 551              		.loc 1 720 0
ARM GAS  C:\Users\JACOB-~1\AppData\Local\Temp\ccGLbPGC.s 			page 27


 552 01c2 BDF80820 		ldrh	r2, [sp, #8]
 719:font.c        ****     y = y-2;
 553              		.loc 1 719 0
 554 01c6 0133     		adds	r3, r3, #1
 555              	.LVL67:
 720:font.c        ****     x = x-2;
 556              		.loc 1 720 0
 557 01c8 951E     		subs	r5, r2, #2
 558 01ca 0532     		adds	r2, r2, #5
 721:font.c        ****     uint8_t height = font[0];
 559              		.loc 1 721 0
 560 01cc 8F1E     		subs	r7, r1, #2
 719:font.c        ****     y = y-2;
 561              		.loc 1 719 0
 562 01ce 1FFA83F8 		uxth	r8, r3
 563              	.LVL68:
 564 01d2 13B2     		sxth	r3, r2
 721:font.c        ****     uint8_t height = font[0];
 565              		.loc 1 721 0
 566 01d4 3FB2     		sxth	r7, r7
 720:font.c        ****     x = x-2;
 567              		.loc 1 720 0
 568 01d6 2DB2     		sxth	r5, r5
 569              	.LVL69:
 570 01d8 0593     		str	r3, [sp, #20]
 571              	.LVL70:
 572              	.L198:
 573              	.LBB256:
 574              	.LBB257:
 726:font.c        ****         {
 575              		.loc 1 726 0
 576 01da 1BF80890 		ldrb	r9, [fp, r8]	@ zero_extendqisi2
 577 01de B9F1000F 		cmp	r9, #0
 578 01e2 0DD0     		beq	.L200
 579 01e4 09EB0806 		add	r6, r9, r8
 580 01e8 5E44     		add	r6, r6, fp
 581 01ea 0BEB080A 		add	r10, fp, r8
 582              	.LVL71:
 583              	.L199:
 584              	.LBB258:
 728:font.c        ****         }
 585              		.loc 1 728 0
 586 01ee 1AF8010F 		ldrb	r0, [r10, #1]!	@ zero_extendqisi2
 587 01f2 2246     		mov	r2, r4
 588 01f4 3844     		add	r0, r0, r7
 589 01f6 2946     		mov	r1, r5
 590 01f8 FFF7FEFF 		bl	draw_pixel
 591              	.LVL72:
 592              	.LBE258:
 726:font.c        ****         {
 593              		.loc 1 726 0
 594 01fc 5645     		cmp	r6, r10
 595 01fe F6D1     		bne	.L199
 596              	.L200:
 597 0200 0135     		adds	r5, r5, #1
 598              	.LVL73:
 599              	.LBE257:
ARM GAS  C:\Users\JACOB-~1\AppData\Local\Temp\ccGLbPGC.s 			page 28


 724:font.c        ****     {
 600              		.loc 1 724 0
 601 0202 059B     		ldr	r3, [sp, #20]
 731:font.c        ****     }
 602              		.loc 1 731 0
 603 0204 09F10109 		add	r9, r9, #1
 604 0208 2DB2     		sxth	r5, r5
 605              	.LVL74:
 606 020a C844     		add	r8, r8, r9
 607              	.LVL75:
 724:font.c        ****     {
 608              		.loc 1 724 0
 609 020c AB42     		cmp	r3, r5
 731:font.c        ****     }
 610              		.loc 1 731 0
 611 020e 1FFA88F8 		uxth	r8, r8
 612              	.LVL76:
 724:font.c        ****     {
 613              		.loc 1 724 0
 614 0212 E2D1     		bne	.L198
 615 0214 43E7     		b	.L84
 616              	.LVL77:
 617              	.L58:
 618              	.LBE256:
 619              	.LBE254:
 620              	.LBE253:
 743:font.c        ****         {
 621              		.loc 1 743 0
 622 0216 2021     		movs	r1, #32
 623 0218 1A22     		movs	r2, #26
 624 021a 0123     		movs	r3, #1
 625 021c 01E0     		b	.L65
 626              	.LVL78:
 627              	.L435:
 628 021e 1BF80320 		ldrb	r2, [fp, r3]	@ zero_extendqisi2
 629              	.LVL79:
 630              	.L65:
 631              	.LBB259:
 632              	.LBB260:
 633              	.LBB261:
 716:font.c        ****     }
 634              		.loc 1 716 0
 635 0222 0132     		adds	r2, r2, #1
 636 0224 1344     		add	r3, r3, r2
 637              	.LVL80:
 714:font.c        ****     {
 638              		.loc 1 714 0
 639 0226 0139     		subs	r1, r1, #1
 716:font.c        ****     }
 640              		.loc 1 716 0
 641 0228 9BB2     		uxth	r3, r3
 642              	.LVL81:
 714:font.c        ****     {
 643              		.loc 1 714 0
 644 022a F8D1     		bne	.L435
 645              	.LBE261:
 721:font.c        ****     uint8_t height = font[0];
ARM GAS  C:\Users\JACOB-~1\AppData\Local\Temp\ccGLbPGC.s 			page 29


 646              		.loc 1 721 0
 647 022c B2B2     		uxth	r2, r6
 648 022e 1146     		mov	r1, r2
 649 0230 0392     		str	r2, [sp, #12]
 720:font.c        ****     x = x-2;
 650              		.loc 1 720 0
 651 0232 BDF80820 		ldrh	r2, [sp, #8]
 719:font.c        ****     y = y-2;
 652              		.loc 1 719 0
 653 0236 0133     		adds	r3, r3, #1
 654              	.LVL82:
 720:font.c        ****     x = x-2;
 655              		.loc 1 720 0
 656 0238 951E     		subs	r5, r2, #2
 657 023a 0532     		adds	r2, r2, #5
 721:font.c        ****     uint8_t height = font[0];
 658              		.loc 1 721 0
 659 023c 8F1E     		subs	r7, r1, #2
 719:font.c        ****     y = y-2;
 660              		.loc 1 719 0
 661 023e 1FFA83F8 		uxth	r8, r3
 662              	.LVL83:
 663 0242 13B2     		sxth	r3, r2
 721:font.c        ****     uint8_t height = font[0];
 664              		.loc 1 721 0
 665 0244 3FB2     		sxth	r7, r7
 720:font.c        ****     x = x-2;
 666              		.loc 1 720 0
 667 0246 2DB2     		sxth	r5, r5
 668              	.LVL84:
 669 0248 0593     		str	r3, [sp, #20]
 670              	.LVL85:
 671              	.L194:
 672              	.LBB262:
 673              	.LBB263:
 726:font.c        ****         {
 674              		.loc 1 726 0
 675 024a 1BF80890 		ldrb	r9, [fp, r8]	@ zero_extendqisi2
 676 024e B9F1000F 		cmp	r9, #0
 677 0252 0DD0     		beq	.L196
 678 0254 09EB0806 		add	r6, r9, r8
 679 0258 5E44     		add	r6, r6, fp
 680 025a 0BEB080A 		add	r10, fp, r8
 681              	.LVL86:
 682              	.L195:
 683              	.LBB264:
 728:font.c        ****         }
 684              		.loc 1 728 0
 685 025e 1AF8010F 		ldrb	r0, [r10, #1]!	@ zero_extendqisi2
 686 0262 2246     		mov	r2, r4
 687 0264 3844     		add	r0, r0, r7
 688 0266 2946     		mov	r1, r5
 689 0268 FFF7FEFF 		bl	draw_pixel
 690              	.LVL87:
 691              	.LBE264:
 726:font.c        ****         {
 692              		.loc 1 726 0
ARM GAS  C:\Users\JACOB-~1\AppData\Local\Temp\ccGLbPGC.s 			page 30


 693 026c 5645     		cmp	r6, r10
 694 026e F6D1     		bne	.L195
 695              	.L196:
 696 0270 0135     		adds	r5, r5, #1
 697              	.LVL88:
 698              	.LBE263:
 724:font.c        ****     {
 699              		.loc 1 724 0
 700 0272 059B     		ldr	r3, [sp, #20]
 731:font.c        ****     }
 701              		.loc 1 731 0
 702 0274 09F10109 		add	r9, r9, #1
 703 0278 2DB2     		sxth	r5, r5
 704              	.LVL89:
 705 027a C844     		add	r8, r8, r9
 706              	.LVL90:
 724:font.c        ****     {
 707              		.loc 1 724 0
 708 027c AB42     		cmp	r3, r5
 731:font.c        ****     }
 709              		.loc 1 731 0
 710 027e 1FFA88F8 		uxth	r8, r8
 711              	.LVL91:
 724:font.c        ****     {
 712              		.loc 1 724 0
 713 0282 E2D1     		bne	.L194
 714 0284 0BE7     		b	.L84
 715              	.LVL92:
 716              	.L56:
 717              	.LBE262:
 718              	.LBE260:
 719              	.LBE259:
 743:font.c        ****         {
 720              		.loc 1 743 0
 721 0286 1E21     		movs	r1, #30
 722 0288 1A22     		movs	r2, #26
 723 028a 0123     		movs	r3, #1
 724 028c 01E0     		b	.L67
 725              	.LVL93:
 726              	.L436:
 727 028e 1BF80320 		ldrb	r2, [fp, r3]	@ zero_extendqisi2
 728              	.LVL94:
 729              	.L67:
 730              	.LBB265:
 731              	.LBB266:
 732              	.LBB267:
 716:font.c        ****     }
 733              		.loc 1 716 0
 734 0292 0132     		adds	r2, r2, #1
 735 0294 1344     		add	r3, r3, r2
 736              	.LVL95:
 714:font.c        ****     {
 737              		.loc 1 714 0
 738 0296 0139     		subs	r1, r1, #1
 716:font.c        ****     }
 739              		.loc 1 716 0
 740 0298 9BB2     		uxth	r3, r3
ARM GAS  C:\Users\JACOB-~1\AppData\Local\Temp\ccGLbPGC.s 			page 31


 741              	.LVL96:
 714:font.c        ****     {
 742              		.loc 1 714 0
 743 029a F8D1     		bne	.L436
 744              	.LBE267:
 721:font.c        ****     uint8_t height = font[0];
 745              		.loc 1 721 0
 746 029c B2B2     		uxth	r2, r6
 747 029e 1146     		mov	r1, r2
 748 02a0 0392     		str	r2, [sp, #12]
 720:font.c        ****     x = x-2;
 749              		.loc 1 720 0
 750 02a2 BDF80820 		ldrh	r2, [sp, #8]
 719:font.c        ****     y = y-2;
 751              		.loc 1 719 0
 752 02a6 0133     		adds	r3, r3, #1
 753              	.LVL97:
 720:font.c        ****     x = x-2;
 754              		.loc 1 720 0
 755 02a8 951E     		subs	r5, r2, #2
 756 02aa 0532     		adds	r2, r2, #5
 721:font.c        ****     uint8_t height = font[0];
 757              		.loc 1 721 0
 758 02ac 8F1E     		subs	r7, r1, #2
 719:font.c        ****     y = y-2;
 759              		.loc 1 719 0
 760 02ae 1FFA83F8 		uxth	r8, r3
 761              	.LVL98:
 762 02b2 13B2     		sxth	r3, r2
 721:font.c        ****     uint8_t height = font[0];
 763              		.loc 1 721 0
 764 02b4 3FB2     		sxth	r7, r7
 720:font.c        ****     x = x-2;
 765              		.loc 1 720 0
 766 02b6 2DB2     		sxth	r5, r5
 767              	.LVL99:
 768 02b8 0593     		str	r3, [sp, #20]
 769              	.LVL100:
 770              	.L186:
 771              	.LBB268:
 772              	.LBB269:
 726:font.c        ****         {
 773              		.loc 1 726 0
 774 02ba 1BF80890 		ldrb	r9, [fp, r8]	@ zero_extendqisi2
 775 02be B9F1000F 		cmp	r9, #0
 776 02c2 0DD0     		beq	.L188
 777 02c4 09EB0806 		add	r6, r9, r8
 778 02c8 5E44     		add	r6, r6, fp
 779 02ca 0BEB080A 		add	r10, fp, r8
 780              	.LVL101:
 781              	.L187:
 782              	.LBB270:
 728:font.c        ****         }
 783              		.loc 1 728 0
 784 02ce 1AF8010F 		ldrb	r0, [r10, #1]!	@ zero_extendqisi2
 785 02d2 2246     		mov	r2, r4
 786 02d4 3844     		add	r0, r0, r7
ARM GAS  C:\Users\JACOB-~1\AppData\Local\Temp\ccGLbPGC.s 			page 32


 787 02d6 2946     		mov	r1, r5
 788 02d8 FFF7FEFF 		bl	draw_pixel
 789              	.LVL102:
 790              	.LBE270:
 726:font.c        ****         {
 791              		.loc 1 726 0
 792 02dc 5645     		cmp	r6, r10
 793 02de F6D1     		bne	.L187
 794              	.L188:
 795 02e0 0135     		adds	r5, r5, #1
 796              	.LVL103:
 797              	.LBE269:
 724:font.c        ****     {
 798              		.loc 1 724 0
 799 02e2 059B     		ldr	r3, [sp, #20]
 731:font.c        ****     }
 800              		.loc 1 731 0
 801 02e4 09F10109 		add	r9, r9, #1
 802 02e8 2DB2     		sxth	r5, r5
 803              	.LVL104:
 804 02ea C844     		add	r8, r8, r9
 805              	.LVL105:
 724:font.c        ****     {
 806              		.loc 1 724 0
 807 02ec AB42     		cmp	r3, r5
 731:font.c        ****     }
 808              		.loc 1 731 0
 809 02ee 1FFA88F8 		uxth	r8, r8
 810              	.LVL106:
 724:font.c        ****     {
 811              		.loc 1 724 0
 812 02f2 E2D1     		bne	.L186
 813 02f4 D3E6     		b	.L84
 814              	.LVL107:
 815              	.L57:
 816              	.LBE268:
 817              	.LBE266:
 818              	.LBE265:
 743:font.c        ****         {
 819              		.loc 1 743 0
 820 02f6 1F21     		movs	r1, #31
 821 02f8 1A22     		movs	r2, #26
 822 02fa 0123     		movs	r3, #1
 823 02fc 01E0     		b	.L66
 824              	.LVL108:
 825              	.L437:
 826 02fe 1BF80320 		ldrb	r2, [fp, r3]	@ zero_extendqisi2
 827              	.LVL109:
 828              	.L66:
 829              	.LBB271:
 830              	.LBB272:
 831              	.LBB273:
 716:font.c        ****     }
 832              		.loc 1 716 0
 833 0302 0132     		adds	r2, r2, #1
 834 0304 1344     		add	r3, r3, r2
 835              	.LVL110:
ARM GAS  C:\Users\JACOB-~1\AppData\Local\Temp\ccGLbPGC.s 			page 33


 714:font.c        ****     {
 836              		.loc 1 714 0
 837 0306 0139     		subs	r1, r1, #1
 716:font.c        ****     }
 838              		.loc 1 716 0
 839 0308 9BB2     		uxth	r3, r3
 840              	.LVL111:
 714:font.c        ****     {
 841              		.loc 1 714 0
 842 030a F8D1     		bne	.L437
 843              	.LBE273:
 721:font.c        ****     uint8_t height = font[0];
 844              		.loc 1 721 0
 845 030c B2B2     		uxth	r2, r6
 846 030e 1146     		mov	r1, r2
 847 0310 0392     		str	r2, [sp, #12]
 720:font.c        ****     x = x-2;
 848              		.loc 1 720 0
 849 0312 BDF80820 		ldrh	r2, [sp, #8]
 719:font.c        ****     y = y-2;
 850              		.loc 1 719 0
 851 0316 0133     		adds	r3, r3, #1
 852              	.LVL112:
 720:font.c        ****     x = x-2;
 853              		.loc 1 720 0
 854 0318 951E     		subs	r5, r2, #2
 855 031a 0532     		adds	r2, r2, #5
 721:font.c        ****     uint8_t height = font[0];
 856              		.loc 1 721 0
 857 031c 8F1E     		subs	r7, r1, #2
 719:font.c        ****     y = y-2;
 858              		.loc 1 719 0
 859 031e 1FFA83F8 		uxth	r8, r3
 860              	.LVL113:
 861 0322 13B2     		sxth	r3, r2
 721:font.c        ****     uint8_t height = font[0];
 862              		.loc 1 721 0
 863 0324 3FB2     		sxth	r7, r7
 720:font.c        ****     x = x-2;
 864              		.loc 1 720 0
 865 0326 2DB2     		sxth	r5, r5
 866              	.LVL114:
 867 0328 0593     		str	r3, [sp, #20]
 868              	.LVL115:
 869              	.L190:
 870              	.LBB274:
 871              	.LBB275:
 726:font.c        ****         {
 872              		.loc 1 726 0
 873 032a 1BF80890 		ldrb	r9, [fp, r8]	@ zero_extendqisi2
 874 032e B9F1000F 		cmp	r9, #0
 875 0332 0DD0     		beq	.L192
 876 0334 09EB0806 		add	r6, r9, r8
 877 0338 5E44     		add	r6, r6, fp
 878 033a 0BEB080A 		add	r10, fp, r8
 879              	.LVL116:
 880              	.L191:
ARM GAS  C:\Users\JACOB-~1\AppData\Local\Temp\ccGLbPGC.s 			page 34


 881              	.LBB276:
 728:font.c        ****         }
 882              		.loc 1 728 0
 883 033e 1AF8010F 		ldrb	r0, [r10, #1]!	@ zero_extendqisi2
 884 0342 2246     		mov	r2, r4
 885 0344 3844     		add	r0, r0, r7
 886 0346 2946     		mov	r1, r5
 887 0348 FFF7FEFF 		bl	draw_pixel
 888              	.LVL117:
 889              	.LBE276:
 726:font.c        ****         {
 890              		.loc 1 726 0
 891 034c 5645     		cmp	r6, r10
 892 034e F6D1     		bne	.L191
 893              	.L192:
 894 0350 0135     		adds	r5, r5, #1
 895              	.LVL118:
 896              	.LBE275:
 724:font.c        ****     {
 897              		.loc 1 724 0
 898 0352 059B     		ldr	r3, [sp, #20]
 731:font.c        ****     }
 899              		.loc 1 731 0
 900 0354 09F10109 		add	r9, r9, #1
 901 0358 2DB2     		sxth	r5, r5
 902              	.LVL119:
 903 035a C844     		add	r8, r8, r9
 904              	.LVL120:
 724:font.c        ****     {
 905              		.loc 1 724 0
 906 035c AB42     		cmp	r3, r5
 731:font.c        ****     }
 907              		.loc 1 731 0
 908 035e 1FFA88F8 		uxth	r8, r8
 909              	.LVL121:
 724:font.c        ****     {
 910              		.loc 1 724 0
 911 0362 E2D1     		bne	.L190
 912 0364 9BE6     		b	.L84
 913              	.LVL122:
 914              	.L55:
 915              	.LBE274:
 916              	.LBE272:
 917              	.LBE271:
 743:font.c        ****         {
 918              		.loc 1 743 0
 919 0366 1D21     		movs	r1, #29
 920 0368 1A22     		movs	r2, #26
 921 036a 0123     		movs	r3, #1
 922 036c 01E0     		b	.L68
 923              	.LVL123:
 924              	.L438:
 925 036e 1BF80320 		ldrb	r2, [fp, r3]	@ zero_extendqisi2
 926              	.LVL124:
 927              	.L68:
 928              	.LBB277:
 929              	.LBB278:
ARM GAS  C:\Users\JACOB-~1\AppData\Local\Temp\ccGLbPGC.s 			page 35


 930              	.LBB279:
 716:font.c        ****     }
 931              		.loc 1 716 0
 932 0372 0132     		adds	r2, r2, #1
 933 0374 1344     		add	r3, r3, r2
 934              	.LVL125:
 714:font.c        ****     {
 935              		.loc 1 714 0
 936 0376 0139     		subs	r1, r1, #1
 716:font.c        ****     }
 937              		.loc 1 716 0
 938 0378 9BB2     		uxth	r3, r3
 939              	.LVL126:
 714:font.c        ****     {
 940              		.loc 1 714 0
 941 037a F8D1     		bne	.L438
 942              	.LBE279:
 721:font.c        ****     uint8_t height = font[0];
 943              		.loc 1 721 0
 944 037c B2B2     		uxth	r2, r6
 945 037e 1146     		mov	r1, r2
 946 0380 0392     		str	r2, [sp, #12]
 720:font.c        ****     x = x-2;
 947              		.loc 1 720 0
 948 0382 BDF80820 		ldrh	r2, [sp, #8]
 719:font.c        ****     y = y-2;
 949              		.loc 1 719 0
 950 0386 0133     		adds	r3, r3, #1
 951              	.LVL127:
 720:font.c        ****     x = x-2;
 952              		.loc 1 720 0
 953 0388 951E     		subs	r5, r2, #2
 954 038a 0532     		adds	r2, r2, #5
 721:font.c        ****     uint8_t height = font[0];
 955              		.loc 1 721 0
 956 038c 8F1E     		subs	r7, r1, #2
 719:font.c        ****     y = y-2;
 957              		.loc 1 719 0
 958 038e 1FFA83F8 		uxth	r8, r3
 959              	.LVL128:
 960 0392 13B2     		sxth	r3, r2
 721:font.c        ****     uint8_t height = font[0];
 961              		.loc 1 721 0
 962 0394 3FB2     		sxth	r7, r7
 720:font.c        ****     x = x-2;
 963              		.loc 1 720 0
 964 0396 2DB2     		sxth	r5, r5
 965              	.LVL129:
 966 0398 0593     		str	r3, [sp, #20]
 967              	.LVL130:
 968              	.L182:
 969              	.LBB280:
 970              	.LBB281:
 726:font.c        ****         {
 971              		.loc 1 726 0
 972 039a 1BF80890 		ldrb	r9, [fp, r8]	@ zero_extendqisi2
 973 039e B9F1000F 		cmp	r9, #0
ARM GAS  C:\Users\JACOB-~1\AppData\Local\Temp\ccGLbPGC.s 			page 36


 974 03a2 0DD0     		beq	.L184
 975 03a4 09EB0806 		add	r6, r9, r8
 976 03a8 5E44     		add	r6, r6, fp
 977 03aa 0BEB080A 		add	r10, fp, r8
 978              	.LVL131:
 979              	.L183:
 980              	.LBB282:
 728:font.c        ****         }
 981              		.loc 1 728 0
 982 03ae 1AF8010F 		ldrb	r0, [r10, #1]!	@ zero_extendqisi2
 983 03b2 2246     		mov	r2, r4
 984 03b4 3844     		add	r0, r0, r7
 985 03b6 2946     		mov	r1, r5
 986 03b8 FFF7FEFF 		bl	draw_pixel
 987              	.LVL132:
 988              	.LBE282:
 726:font.c        ****         {
 989              		.loc 1 726 0
 990 03bc 5645     		cmp	r6, r10
 991 03be F6D1     		bne	.L183
 992              	.L184:
 993 03c0 0135     		adds	r5, r5, #1
 994              	.LVL133:
 995              	.LBE281:
 724:font.c        ****     {
 996              		.loc 1 724 0
 997 03c2 059B     		ldr	r3, [sp, #20]
 731:font.c        ****     }
 998              		.loc 1 731 0
 999 03c4 09F10109 		add	r9, r9, #1
 1000 03c8 2DB2     		sxth	r5, r5
 1001              	.LVL134:
 1002 03ca C844     		add	r8, r8, r9
 1003              	.LVL135:
 724:font.c        ****     {
 1004              		.loc 1 724 0
 1005 03cc AB42     		cmp	r3, r5
 731:font.c        ****     }
 1006              		.loc 1 731 0
 1007 03ce 1FFA88F8 		uxth	r8, r8
 1008              	.LVL136:
 724:font.c        ****     {
 1009              		.loc 1 724 0
 1010 03d2 E2D1     		bne	.L182
 1011 03d4 63E6     		b	.L84
 1012              	.LVL137:
 1013              	.L54:
 1014              	.LBE280:
 1015              	.LBE278:
 1016              	.LBE277:
 743:font.c        ****         {
 1017              		.loc 1 743 0
 1018 03d6 1C21     		movs	r1, #28
 1019 03d8 1A22     		movs	r2, #26
 1020 03da 0123     		movs	r3, #1
 1021 03dc 01E0     		b	.L69
 1022              	.LVL138:
ARM GAS  C:\Users\JACOB-~1\AppData\Local\Temp\ccGLbPGC.s 			page 37


 1023              	.L439:
 1024 03de 1BF80320 		ldrb	r2, [fp, r3]	@ zero_extendqisi2
 1025              	.LVL139:
 1026              	.L69:
 1027              	.LBB283:
 1028              	.LBB284:
 1029              	.LBB285:
 716:font.c        ****     }
 1030              		.loc 1 716 0
 1031 03e2 0132     		adds	r2, r2, #1
 1032 03e4 1344     		add	r3, r3, r2
 1033              	.LVL140:
 714:font.c        ****     {
 1034              		.loc 1 714 0
 1035 03e6 0139     		subs	r1, r1, #1
 716:font.c        ****     }
 1036              		.loc 1 716 0
 1037 03e8 9BB2     		uxth	r3, r3
 1038              	.LVL141:
 714:font.c        ****     {
 1039              		.loc 1 714 0
 1040 03ea F8D1     		bne	.L439
 1041              	.LBE285:
 721:font.c        ****     uint8_t height = font[0];
 1042              		.loc 1 721 0
 1043 03ec B2B2     		uxth	r2, r6
 1044 03ee 1146     		mov	r1, r2
 1045 03f0 0392     		str	r2, [sp, #12]
 720:font.c        ****     x = x-2;
 1046              		.loc 1 720 0
 1047 03f2 BDF80820 		ldrh	r2, [sp, #8]
 719:font.c        ****     y = y-2;
 1048              		.loc 1 719 0
 1049 03f6 0133     		adds	r3, r3, #1
 1050              	.LVL142:
 720:font.c        ****     x = x-2;
 1051              		.loc 1 720 0
 1052 03f8 951E     		subs	r5, r2, #2
 1053 03fa 0532     		adds	r2, r2, #5
 721:font.c        ****     uint8_t height = font[0];
 1054              		.loc 1 721 0
 1055 03fc 8F1E     		subs	r7, r1, #2
 719:font.c        ****     y = y-2;
 1056              		.loc 1 719 0
 1057 03fe 1FFA83F8 		uxth	r8, r3
 1058              	.LVL143:
 1059 0402 13B2     		sxth	r3, r2
 721:font.c        ****     uint8_t height = font[0];
 1060              		.loc 1 721 0
 1061 0404 3FB2     		sxth	r7, r7
 720:font.c        ****     x = x-2;
 1062              		.loc 1 720 0
 1063 0406 2DB2     		sxth	r5, r5
 1064              	.LVL144:
 1065 0408 0593     		str	r3, [sp, #20]
 1066              	.LVL145:
 1067              	.L178:
ARM GAS  C:\Users\JACOB-~1\AppData\Local\Temp\ccGLbPGC.s 			page 38


 1068              	.LBB286:
 1069              	.LBB287:
 726:font.c        ****         {
 1070              		.loc 1 726 0
 1071 040a 1BF80890 		ldrb	r9, [fp, r8]	@ zero_extendqisi2
 1072 040e B9F1000F 		cmp	r9, #0
 1073 0412 0DD0     		beq	.L180
 1074 0414 09EB0806 		add	r6, r9, r8
 1075 0418 5E44     		add	r6, r6, fp
 1076 041a 0BEB080A 		add	r10, fp, r8
 1077              	.LVL146:
 1078              	.L179:
 1079              	.LBB288:
 728:font.c        ****         }
 1080              		.loc 1 728 0
 1081 041e 1AF8010F 		ldrb	r0, [r10, #1]!	@ zero_extendqisi2
 1082 0422 2246     		mov	r2, r4
 1083 0424 3844     		add	r0, r0, r7
 1084 0426 2946     		mov	r1, r5
 1085 0428 FFF7FEFF 		bl	draw_pixel
 1086              	.LVL147:
 1087              	.LBE288:
 726:font.c        ****         {
 1088              		.loc 1 726 0
 1089 042c 5645     		cmp	r6, r10
 1090 042e F6D1     		bne	.L179
 1091              	.L180:
 1092 0430 0135     		adds	r5, r5, #1
 1093              	.LVL148:
 1094              	.LBE287:
 724:font.c        ****     {
 1095              		.loc 1 724 0
 1096 0432 059B     		ldr	r3, [sp, #20]
 731:font.c        ****     }
 1097              		.loc 1 731 0
 1098 0434 09F10109 		add	r9, r9, #1
 1099 0438 2DB2     		sxth	r5, r5
 1100              	.LVL149:
 1101 043a C844     		add	r8, r8, r9
 1102              	.LVL150:
 724:font.c        ****     {
 1103              		.loc 1 724 0
 1104 043c AB42     		cmp	r3, r5
 731:font.c        ****     }
 1105              		.loc 1 731 0
 1106 043e 1FFA88F8 		uxth	r8, r8
 1107              	.LVL151:
 724:font.c        ****     {
 1108              		.loc 1 724 0
 1109 0442 E2D1     		bne	.L178
 1110 0444 2BE6     		b	.L84
 1111              	.LVL152:
 1112              	.L38:
 1113              	.LBE286:
 1114              	.LBE284:
 1115              	.LBE283:
 1116              	.LBB289:
ARM GAS  C:\Users\JACOB-~1\AppData\Local\Temp\ccGLbPGC.s 			page 39


 1117              	.LBB290:
 721:font.c        ****     uint8_t height = font[0];
 1118              		.loc 1 721 0
 1119 0446 B3B2     		uxth	r3, r6
 1120 0448 1A46     		mov	r2, r3
 1121 044a 0393     		str	r3, [sp, #12]
 720:font.c        ****     x = x-2;
 1122              		.loc 1 720 0
 1123 044c BDF80830 		ldrh	r3, [sp, #8]
 721:font.c        ****     uint8_t height = font[0];
 1124              		.loc 1 721 0
 1125 0450 971E     		subs	r7, r2, #2
 720:font.c        ****     x = x-2;
 1126              		.loc 1 720 0
 1127 0452 9D1E     		subs	r5, r3, #2
 1128 0454 0533     		adds	r3, r3, #5
 1129 0456 1BB2     		sxth	r3, r3
 721:font.c        ****     uint8_t height = font[0];
 1130              		.loc 1 721 0
 1131 0458 3FB2     		sxth	r7, r7
 720:font.c        ****     x = x-2;
 1132              		.loc 1 720 0
 1133 045a 2DB2     		sxth	r5, r5
 1134              	.LVL153:
 1135 045c 0593     		str	r3, [sp, #20]
 721:font.c        ****     uint8_t height = font[0];
 1136              		.loc 1 721 0
 1137 045e 4FF00309 		mov	r9, #3
 719:font.c        ****     y = y-2;
 1138              		.loc 1 719 0
 1139 0462 4FF49078 		mov	r8, #288
 1140              	.LVL154:
 1141              	.L119:
 1142              	.LBB291:
 1143              	.LBB292:
 726:font.c        ****         {
 1144              		.loc 1 726 0
 1145 0466 B9F1000F 		cmp	r9, #0
 1146 046a 0DD0     		beq	.L121
 1147 046c 09EB0806 		add	r6, r9, r8
 1148 0470 5E44     		add	r6, r6, fp
 1149 0472 0BEB080A 		add	r10, fp, r8
 1150              	.LVL155:
 1151              	.L120:
 1152              	.LBB293:
 728:font.c        ****         }
 1153              		.loc 1 728 0
 1154 0476 1AF8010F 		ldrb	r0, [r10, #1]!	@ zero_extendqisi2
 1155 047a 2246     		mov	r2, r4
 1156 047c 3844     		add	r0, r0, r7
 1157 047e 2946     		mov	r1, r5
 1158 0480 FFF7FEFF 		bl	draw_pixel
 1159              	.LVL156:
 1160              	.LBE293:
 726:font.c        ****         {
 1161              		.loc 1 726 0
 1162 0484 5645     		cmp	r6, r10
ARM GAS  C:\Users\JACOB-~1\AppData\Local\Temp\ccGLbPGC.s 			page 40


 1163 0486 F6D1     		bne	.L120
 1164              	.L121:
 1165 0488 0135     		adds	r5, r5, #1
 1166              	.LVL157:
 1167              	.LBE292:
 724:font.c        ****     {
 1168              		.loc 1 724 0
 1169 048a 059B     		ldr	r3, [sp, #20]
 731:font.c        ****     }
 1170              		.loc 1 731 0
 1171 048c 09F10109 		add	r9, r9, #1
 1172 0490 2DB2     		sxth	r5, r5
 1173              	.LVL158:
 1174 0492 C844     		add	r8, r8, r9
 1175              	.LVL159:
 724:font.c        ****     {
 1176              		.loc 1 724 0
 1177 0494 9D42     		cmp	r5, r3
 731:font.c        ****     }
 1178              		.loc 1 731 0
 1179 0496 1FFA88F8 		uxth	r8, r8
 1180              	.LVL160:
 724:font.c        ****     {
 1181              		.loc 1 724 0
 1182 049a 3FF400AE 		beq	.L84
 1183 049e 1BF80890 		ldrb	r9, [fp, r8]	@ zero_extendqisi2
 1184 04a2 E0E7     		b	.L119
 1185              	.LVL161:
 1186              	.L46:
 1187              	.LBE291:
 1188              	.LBE290:
 1189              	.LBE289:
 743:font.c        ****         {
 1190              		.loc 1 743 0
 1191 04a4 1421     		movs	r1, #20
 1192 04a6 1A22     		movs	r2, #26
 1193 04a8 0123     		movs	r3, #1
 1194 04aa 01E0     		b	.L77
 1195              	.LVL162:
 1196              	.L440:
 1197 04ac 1BF80320 		ldrb	r2, [fp, r3]	@ zero_extendqisi2
 1198              	.LVL163:
 1199              	.L77:
 1200              	.LBB294:
 1201              	.LBB295:
 1202              	.LBB296:
 716:font.c        ****     }
 1203              		.loc 1 716 0
 1204 04b0 0132     		adds	r2, r2, #1
 1205 04b2 1344     		add	r3, r3, r2
 1206              	.LVL164:
 714:font.c        ****     {
 1207              		.loc 1 714 0
 1208 04b4 0139     		subs	r1, r1, #1
 716:font.c        ****     }
 1209              		.loc 1 716 0
 1210 04b6 9BB2     		uxth	r3, r3
ARM GAS  C:\Users\JACOB-~1\AppData\Local\Temp\ccGLbPGC.s 			page 41


 1211              	.LVL165:
 714:font.c        ****     {
 1212              		.loc 1 714 0
 1213 04b8 F8D1     		bne	.L440
 1214              	.LBE296:
 721:font.c        ****     uint8_t height = font[0];
 1215              		.loc 1 721 0
 1216 04ba B2B2     		uxth	r2, r6
 1217 04bc 1146     		mov	r1, r2
 1218 04be 0392     		str	r2, [sp, #12]
 720:font.c        ****     x = x-2;
 1219              		.loc 1 720 0
 1220 04c0 BDF80820 		ldrh	r2, [sp, #8]
 719:font.c        ****     y = y-2;
 1221              		.loc 1 719 0
 1222 04c4 0133     		adds	r3, r3, #1
 1223              	.LVL166:
 720:font.c        ****     x = x-2;
 1224              		.loc 1 720 0
 1225 04c6 951E     		subs	r5, r2, #2
 1226 04c8 0532     		adds	r2, r2, #5
 721:font.c        ****     uint8_t height = font[0];
 1227              		.loc 1 721 0
 1228 04ca 8F1E     		subs	r7, r1, #2
 719:font.c        ****     y = y-2;
 1229              		.loc 1 719 0
 1230 04cc 1FFA83F8 		uxth	r8, r3
 1231              	.LVL167:
 1232 04d0 13B2     		sxth	r3, r2
 721:font.c        ****     uint8_t height = font[0];
 1233              		.loc 1 721 0
 1234 04d2 3FB2     		sxth	r7, r7
 720:font.c        ****     x = x-2;
 1235              		.loc 1 720 0
 1236 04d4 2DB2     		sxth	r5, r5
 1237              	.LVL168:
 1238 04d6 0593     		str	r3, [sp, #20]
 1239              	.LVL169:
 1240              	.L146:
 1241              	.LBB297:
 1242              	.LBB298:
 726:font.c        ****         {
 1243              		.loc 1 726 0
 1244 04d8 1BF80890 		ldrb	r9, [fp, r8]	@ zero_extendqisi2
 1245 04dc B9F1000F 		cmp	r9, #0
 1246 04e0 0DD0     		beq	.L148
 1247 04e2 09EB0806 		add	r6, r9, r8
 1248 04e6 5E44     		add	r6, r6, fp
 1249 04e8 0BEB080A 		add	r10, fp, r8
 1250              	.LVL170:
 1251              	.L147:
 1252              	.LBB299:
 728:font.c        ****         }
 1253              		.loc 1 728 0
 1254 04ec 1AF8010F 		ldrb	r0, [r10, #1]!	@ zero_extendqisi2
 1255 04f0 2246     		mov	r2, r4
 1256 04f2 3844     		add	r0, r0, r7
ARM GAS  C:\Users\JACOB-~1\AppData\Local\Temp\ccGLbPGC.s 			page 42


 1257 04f4 2946     		mov	r1, r5
 1258 04f6 FFF7FEFF 		bl	draw_pixel
 1259              	.LVL171:
 1260              	.LBE299:
 726:font.c        ****         {
 1261              		.loc 1 726 0
 1262 04fa 5645     		cmp	r6, r10
 1263 04fc F6D1     		bne	.L147
 1264              	.L148:
 1265 04fe 0135     		adds	r5, r5, #1
 1266              	.LVL172:
 1267              	.LBE298:
 724:font.c        ****     {
 1268              		.loc 1 724 0
 1269 0500 059B     		ldr	r3, [sp, #20]
 731:font.c        ****     }
 1270              		.loc 1 731 0
 1271 0502 09F10109 		add	r9, r9, #1
 1272 0506 2DB2     		sxth	r5, r5
 1273              	.LVL173:
 1274 0508 C844     		add	r8, r8, r9
 1275              	.LVL174:
 724:font.c        ****     {
 1276              		.loc 1 724 0
 1277 050a AB42     		cmp	r3, r5
 731:font.c        ****     }
 1278              		.loc 1 731 0
 1279 050c 1FFA88F8 		uxth	r8, r8
 1280              	.LVL175:
 724:font.c        ****     {
 1281              		.loc 1 724 0
 1282 0510 E2D1     		bne	.L146
 1283 0512 C4E5     		b	.L84
 1284              	.LVL176:
 1285              	.L30:
 1286              	.LBE297:
 1287              	.LBE295:
 1288              	.LBE294:
 1289              	.LBB300:
 1290              	.LBB301:
 721:font.c        ****     uint8_t height = font[0];
 1291              		.loc 1 721 0
 1292 0514 B3B2     		uxth	r3, r6
 1293 0516 1A46     		mov	r2, r3
 1294 0518 0393     		str	r3, [sp, #12]
 720:font.c        ****     x = x-2;
 1295              		.loc 1 720 0
 1296 051a BDF80830 		ldrh	r3, [sp, #8]
 721:font.c        ****     uint8_t height = font[0];
 1297              		.loc 1 721 0
 1298 051e 971E     		subs	r7, r2, #2
 720:font.c        ****     x = x-2;
 1299              		.loc 1 720 0
 1300 0520 9D1E     		subs	r5, r3, #2
 1301 0522 0533     		adds	r3, r3, #5
 1302 0524 1BB2     		sxth	r3, r3
 721:font.c        ****     uint8_t height = font[0];
ARM GAS  C:\Users\JACOB-~1\AppData\Local\Temp\ccGLbPGC.s 			page 43


 1303              		.loc 1 721 0
 1304 0526 3FB2     		sxth	r7, r7
 720:font.c        ****     x = x-2;
 1305              		.loc 1 720 0
 1306 0528 2DB2     		sxth	r5, r5
 1307              	.LVL177:
 1308 052a 0593     		str	r3, [sp, #20]
 721:font.c        ****     uint8_t height = font[0];
 1309              		.loc 1 721 0
 1310 052c 4FF00109 		mov	r9, #1
 719:font.c        ****     y = y-2;
 1311              		.loc 1 719 0
 1312 0530 4FF05F08 		mov	r8, #95
 1313              	.LVL178:
 1314              	.L95:
 1315              	.LBB302:
 1316              	.LBB303:
 726:font.c        ****         {
 1317              		.loc 1 726 0
 1318 0534 B9F1000F 		cmp	r9, #0
 1319 0538 0DD0     		beq	.L97
 1320 053a 09EB0806 		add	r6, r9, r8
 1321 053e 5E44     		add	r6, r6, fp
 1322 0540 0BEB080A 		add	r10, fp, r8
 1323              	.LVL179:
 1324              	.L96:
 1325              	.LBB304:
 728:font.c        ****         }
 1326              		.loc 1 728 0
 1327 0544 1AF8010F 		ldrb	r0, [r10, #1]!	@ zero_extendqisi2
 1328 0548 2246     		mov	r2, r4
 1329 054a 3844     		add	r0, r0, r7
 1330 054c 2946     		mov	r1, r5
 1331 054e FFF7FEFF 		bl	draw_pixel
 1332              	.LVL180:
 1333              	.LBE304:
 726:font.c        ****         {
 1334              		.loc 1 726 0
 1335 0552 B245     		cmp	r10, r6
 1336 0554 F6D1     		bne	.L96
 1337              	.L97:
 1338 0556 0135     		adds	r5, r5, #1
 1339              	.LVL181:
 1340              	.LBE303:
 724:font.c        ****     {
 1341              		.loc 1 724 0
 1342 0558 059B     		ldr	r3, [sp, #20]
 731:font.c        ****     }
 1343              		.loc 1 731 0
 1344 055a 09F10109 		add	r9, r9, #1
 1345 055e 2DB2     		sxth	r5, r5
 1346              	.LVL182:
 1347 0560 C844     		add	r8, r8, r9
 1348              	.LVL183:
 724:font.c        ****     {
 1349              		.loc 1 724 0
 1350 0562 AB42     		cmp	r3, r5
ARM GAS  C:\Users\JACOB-~1\AppData\Local\Temp\ccGLbPGC.s 			page 44


 731:font.c        ****     }
 1351              		.loc 1 731 0
 1352 0564 1FFA88F8 		uxth	r8, r8
 1353              	.LVL184:
 724:font.c        ****     {
 1354              		.loc 1 724 0
 1355 0568 3FF499AD 		beq	.L84
 1356 056c 1BF80890 		ldrb	r9, [fp, r8]	@ zero_extendqisi2
 1357 0570 E0E7     		b	.L95
 1358              	.LVL185:
 1359              	.L50:
 1360              	.LBE302:
 1361              	.LBE301:
 1362              	.LBE300:
 743:font.c        ****         {
 1363              		.loc 1 743 0
 1364 0572 1821     		movs	r1, #24
 1365 0574 1A22     		movs	r2, #26
 1366 0576 0123     		movs	r3, #1
 1367 0578 01E0     		b	.L73
 1368              	.LVL186:
 1369              	.L441:
 1370 057a 1BF80320 		ldrb	r2, [fp, r3]	@ zero_extendqisi2
 1371              	.LVL187:
 1372              	.L73:
 1373              	.LBB305:
 1374              	.LBB306:
 1375              	.LBB307:
 716:font.c        ****     }
 1376              		.loc 1 716 0
 1377 057e 0132     		adds	r2, r2, #1
 1378 0580 1344     		add	r3, r3, r2
 1379              	.LVL188:
 714:font.c        ****     {
 1380              		.loc 1 714 0
 1381 0582 0139     		subs	r1, r1, #1
 716:font.c        ****     }
 1382              		.loc 1 716 0
 1383 0584 9BB2     		uxth	r3, r3
 1384              	.LVL189:
 714:font.c        ****     {
 1385              		.loc 1 714 0
 1386 0586 F8D1     		bne	.L441
 1387              	.LBE307:
 721:font.c        ****     uint8_t height = font[0];
 1388              		.loc 1 721 0
 1389 0588 B2B2     		uxth	r2, r6
 1390 058a 1146     		mov	r1, r2
 1391 058c 0392     		str	r2, [sp, #12]
 720:font.c        ****     x = x-2;
 1392              		.loc 1 720 0
 1393 058e BDF80820 		ldrh	r2, [sp, #8]
 719:font.c        ****     y = y-2;
 1394              		.loc 1 719 0
 1395 0592 0133     		adds	r3, r3, #1
 1396              	.LVL190:
 720:font.c        ****     x = x-2;
ARM GAS  C:\Users\JACOB-~1\AppData\Local\Temp\ccGLbPGC.s 			page 45


 1397              		.loc 1 720 0
 1398 0594 951E     		subs	r5, r2, #2
 1399 0596 0532     		adds	r2, r2, #5
 721:font.c        ****     uint8_t height = font[0];
 1400              		.loc 1 721 0
 1401 0598 8F1E     		subs	r7, r1, #2
 719:font.c        ****     y = y-2;
 1402              		.loc 1 719 0
 1403 059a 1FFA83F8 		uxth	r8, r3
 1404              	.LVL191:
 1405 059e 13B2     		sxth	r3, r2
 721:font.c        ****     uint8_t height = font[0];
 1406              		.loc 1 721 0
 1407 05a0 3FB2     		sxth	r7, r7
 720:font.c        ****     x = x-2;
 1408              		.loc 1 720 0
 1409 05a2 2DB2     		sxth	r5, r5
 1410              	.LVL192:
 1411 05a4 0593     		str	r3, [sp, #20]
 1412              	.LVL193:
 1413              	.L162:
 1414              	.LBB308:
 1415              	.LBB309:
 726:font.c        ****         {
 1416              		.loc 1 726 0
 1417 05a6 1BF80890 		ldrb	r9, [fp, r8]	@ zero_extendqisi2
 1418 05aa B9F1000F 		cmp	r9, #0
 1419 05ae 0DD0     		beq	.L164
 1420 05b0 09EB0806 		add	r6, r9, r8
 1421 05b4 5E44     		add	r6, r6, fp
 1422 05b6 0BEB080A 		add	r10, fp, r8
 1423              	.LVL194:
 1424              	.L163:
 1425              	.LBB310:
 728:font.c        ****         }
 1426              		.loc 1 728 0
 1427 05ba 1AF8010F 		ldrb	r0, [r10, #1]!	@ zero_extendqisi2
 1428 05be 2246     		mov	r2, r4
 1429 05c0 3844     		add	r0, r0, r7
 1430 05c2 2946     		mov	r1, r5
 1431 05c4 FFF7FEFF 		bl	draw_pixel
 1432              	.LVL195:
 1433              	.LBE310:
 726:font.c        ****         {
 1434              		.loc 1 726 0
 1435 05c8 5645     		cmp	r6, r10
 1436 05ca F6D1     		bne	.L163
 1437              	.L164:
 1438 05cc 0135     		adds	r5, r5, #1
 1439              	.LVL196:
 1440              	.LBE309:
 724:font.c        ****     {
 1441              		.loc 1 724 0
 1442 05ce 059B     		ldr	r3, [sp, #20]
 731:font.c        ****     }
 1443              		.loc 1 731 0
 1444 05d0 09F10109 		add	r9, r9, #1
ARM GAS  C:\Users\JACOB-~1\AppData\Local\Temp\ccGLbPGC.s 			page 46


 1445 05d4 2DB2     		sxth	r5, r5
 1446              	.LVL197:
 1447 05d6 C844     		add	r8, r8, r9
 1448              	.LVL198:
 724:font.c        ****     {
 1449              		.loc 1 724 0
 1450 05d8 AB42     		cmp	r3, r5
 731:font.c        ****     }
 1451              		.loc 1 731 0
 1452 05da 1FFA88F8 		uxth	r8, r8
 1453              	.LVL199:
 724:font.c        ****     {
 1454              		.loc 1 724 0
 1455 05de E2D1     		bne	.L162
 1456 05e0 5DE5     		b	.L84
 1457              	.LVL200:
 1458              	.L49:
 1459              	.LBE308:
 1460              	.LBE306:
 1461              	.LBE305:
 743:font.c        ****         {
 1462              		.loc 1 743 0
 1463 05e2 1721     		movs	r1, #23
 1464 05e4 1A22     		movs	r2, #26
 1465 05e6 0123     		movs	r3, #1
 1466 05e8 01E0     		b	.L74
 1467              	.LVL201:
 1468              	.L442:
 1469 05ea 1BF80320 		ldrb	r2, [fp, r3]	@ zero_extendqisi2
 1470              	.LVL202:
 1471              	.L74:
 1472              	.LBB311:
 1473              	.LBB312:
 1474              	.LBB313:
 716:font.c        ****     }
 1475              		.loc 1 716 0
 1476 05ee 0132     		adds	r2, r2, #1
 1477 05f0 1344     		add	r3, r3, r2
 1478              	.LVL203:
 714:font.c        ****     {
 1479              		.loc 1 714 0
 1480 05f2 0139     		subs	r1, r1, #1
 716:font.c        ****     }
 1481              		.loc 1 716 0
 1482 05f4 9BB2     		uxth	r3, r3
 1483              	.LVL204:
 714:font.c        ****     {
 1484              		.loc 1 714 0
 1485 05f6 F8D1     		bne	.L442
 1486              	.LBE313:
 721:font.c        ****     uint8_t height = font[0];
 1487              		.loc 1 721 0
 1488 05f8 B2B2     		uxth	r2, r6
 1489 05fa 1146     		mov	r1, r2
 1490 05fc 0392     		str	r2, [sp, #12]
 720:font.c        ****     x = x-2;
 1491              		.loc 1 720 0
ARM GAS  C:\Users\JACOB-~1\AppData\Local\Temp\ccGLbPGC.s 			page 47


 1492 05fe BDF80820 		ldrh	r2, [sp, #8]
 719:font.c        ****     y = y-2;
 1493              		.loc 1 719 0
 1494 0602 0133     		adds	r3, r3, #1
 1495              	.LVL205:
 720:font.c        ****     x = x-2;
 1496              		.loc 1 720 0
 1497 0604 951E     		subs	r5, r2, #2
 1498 0606 0532     		adds	r2, r2, #5
 721:font.c        ****     uint8_t height = font[0];
 1499              		.loc 1 721 0
 1500 0608 8F1E     		subs	r7, r1, #2
 719:font.c        ****     y = y-2;
 1501              		.loc 1 719 0
 1502 060a 1FFA83F8 		uxth	r8, r3
 1503              	.LVL206:
 1504 060e 13B2     		sxth	r3, r2
 721:font.c        ****     uint8_t height = font[0];
 1505              		.loc 1 721 0
 1506 0610 3FB2     		sxth	r7, r7
 720:font.c        ****     x = x-2;
 1507              		.loc 1 720 0
 1508 0612 2DB2     		sxth	r5, r5
 1509              	.LVL207:
 1510 0614 0593     		str	r3, [sp, #20]
 1511              	.LVL208:
 1512              	.L158:
 1513              	.LBB314:
 1514              	.LBB315:
 726:font.c        ****         {
 1515              		.loc 1 726 0
 1516 0616 1BF80890 		ldrb	r9, [fp, r8]	@ zero_extendqisi2
 1517 061a B9F1000F 		cmp	r9, #0
 1518 061e 0DD0     		beq	.L160
 1519 0620 09EB0806 		add	r6, r9, r8
 1520 0624 5E44     		add	r6, r6, fp
 1521 0626 0BEB080A 		add	r10, fp, r8
 1522              	.LVL209:
 1523              	.L159:
 1524              	.LBB316:
 728:font.c        ****         }
 1525              		.loc 1 728 0
 1526 062a 1AF8010F 		ldrb	r0, [r10, #1]!	@ zero_extendqisi2
 1527 062e 2246     		mov	r2, r4
 1528 0630 3844     		add	r0, r0, r7
 1529 0632 2946     		mov	r1, r5
 1530 0634 FFF7FEFF 		bl	draw_pixel
 1531              	.LVL210:
 1532              	.LBE316:
 726:font.c        ****         {
 1533              		.loc 1 726 0
 1534 0638 5645     		cmp	r6, r10
 1535 063a F6D1     		bne	.L159
 1536              	.L160:
 1537 063c 0135     		adds	r5, r5, #1
 1538              	.LVL211:
 1539              	.LBE315:
ARM GAS  C:\Users\JACOB-~1\AppData\Local\Temp\ccGLbPGC.s 			page 48


 724:font.c        ****     {
 1540              		.loc 1 724 0
 1541 063e 059B     		ldr	r3, [sp, #20]
 731:font.c        ****     }
 1542              		.loc 1 731 0
 1543 0640 09F10109 		add	r9, r9, #1
 1544 0644 2DB2     		sxth	r5, r5
 1545              	.LVL212:
 1546 0646 C844     		add	r8, r8, r9
 1547              	.LVL213:
 724:font.c        ****     {
 1548              		.loc 1 724 0
 1549 0648 AB42     		cmp	r3, r5
 731:font.c        ****     }
 1550              		.loc 1 731 0
 1551 064a 1FFA88F8 		uxth	r8, r8
 1552              	.LVL214:
 724:font.c        ****     {
 1553              		.loc 1 724 0
 1554 064e E2D1     		bne	.L158
 1555 0650 25E5     		b	.L84
 1556              	.LVL215:
 1557              	.L48:
 1558              	.LBE314:
 1559              	.LBE312:
 1560              	.LBE311:
 743:font.c        ****         {
 1561              		.loc 1 743 0
 1562 0652 1621     		movs	r1, #22
 1563 0654 1A22     		movs	r2, #26
 1564 0656 0123     		movs	r3, #1
 1565 0658 01E0     		b	.L75
 1566              	.LVL216:
 1567              	.L443:
 1568 065a 1BF80320 		ldrb	r2, [fp, r3]	@ zero_extendqisi2
 1569              	.LVL217:
 1570              	.L75:
 1571              	.LBB317:
 1572              	.LBB318:
 1573              	.LBB319:
 716:font.c        ****     }
 1574              		.loc 1 716 0
 1575 065e 0132     		adds	r2, r2, #1
 1576 0660 1344     		add	r3, r3, r2
 1577              	.LVL218:
 714:font.c        ****     {
 1578              		.loc 1 714 0
 1579 0662 0139     		subs	r1, r1, #1
 716:font.c        ****     }
 1580              		.loc 1 716 0
 1581 0664 9BB2     		uxth	r3, r3
 1582              	.LVL219:
 714:font.c        ****     {
 1583              		.loc 1 714 0
 1584 0666 F8D1     		bne	.L443
 1585              	.LBE319:
 721:font.c        ****     uint8_t height = font[0];
ARM GAS  C:\Users\JACOB-~1\AppData\Local\Temp\ccGLbPGC.s 			page 49


 1586              		.loc 1 721 0
 1587 0668 B2B2     		uxth	r2, r6
 1588 066a 1146     		mov	r1, r2
 1589 066c 0392     		str	r2, [sp, #12]
 720:font.c        ****     x = x-2;
 1590              		.loc 1 720 0
 1591 066e BDF80820 		ldrh	r2, [sp, #8]
 719:font.c        ****     y = y-2;
 1592              		.loc 1 719 0
 1593 0672 0133     		adds	r3, r3, #1
 1594              	.LVL220:
 720:font.c        ****     x = x-2;
 1595              		.loc 1 720 0
 1596 0674 951E     		subs	r5, r2, #2
 1597 0676 0532     		adds	r2, r2, #5
 721:font.c        ****     uint8_t height = font[0];
 1598              		.loc 1 721 0
 1599 0678 8F1E     		subs	r7, r1, #2
 719:font.c        ****     y = y-2;
 1600              		.loc 1 719 0
 1601 067a 1FFA83F8 		uxth	r8, r3
 1602              	.LVL221:
 1603 067e 13B2     		sxth	r3, r2
 721:font.c        ****     uint8_t height = font[0];
 1604              		.loc 1 721 0
 1605 0680 3FB2     		sxth	r7, r7
 720:font.c        ****     x = x-2;
 1606              		.loc 1 720 0
 1607 0682 2DB2     		sxth	r5, r5
 1608              	.LVL222:
 1609 0684 0593     		str	r3, [sp, #20]
 1610              	.LVL223:
 1611              	.L154:
 1612              	.LBB320:
 1613              	.LBB321:
 726:font.c        ****         {
 1614              		.loc 1 726 0
 1615 0686 1BF80890 		ldrb	r9, [fp, r8]	@ zero_extendqisi2
 1616 068a B9F1000F 		cmp	r9, #0
 1617 068e 0DD0     		beq	.L156
 1618 0690 09EB0806 		add	r6, r9, r8
 1619 0694 5E44     		add	r6, r6, fp
 1620 0696 0BEB080A 		add	r10, fp, r8
 1621              	.LVL224:
 1622              	.L155:
 1623              	.LBB322:
 728:font.c        ****         }
 1624              		.loc 1 728 0
 1625 069a 1AF8010F 		ldrb	r0, [r10, #1]!	@ zero_extendqisi2
 1626 069e 2246     		mov	r2, r4
 1627 06a0 3844     		add	r0, r0, r7
 1628 06a2 2946     		mov	r1, r5
 1629 06a4 FFF7FEFF 		bl	draw_pixel
 1630              	.LVL225:
 1631              	.LBE322:
 726:font.c        ****         {
 1632              		.loc 1 726 0
ARM GAS  C:\Users\JACOB-~1\AppData\Local\Temp\ccGLbPGC.s 			page 50


 1633 06a8 5645     		cmp	r6, r10
 1634 06aa F6D1     		bne	.L155
 1635              	.L156:
 1636 06ac 0135     		adds	r5, r5, #1
 1637              	.LVL226:
 1638              	.LBE321:
 724:font.c        ****     {
 1639              		.loc 1 724 0
 1640 06ae 059B     		ldr	r3, [sp, #20]
 731:font.c        ****     }
 1641              		.loc 1 731 0
 1642 06b0 09F10109 		add	r9, r9, #1
 1643 06b4 2DB2     		sxth	r5, r5
 1644              	.LVL227:
 1645 06b6 C844     		add	r8, r8, r9
 1646              	.LVL228:
 724:font.c        ****     {
 1647              		.loc 1 724 0
 1648 06b8 AB42     		cmp	r3, r5
 731:font.c        ****     }
 1649              		.loc 1 731 0
 1650 06ba 1FFA88F8 		uxth	r8, r8
 1651              	.LVL229:
 724:font.c        ****     {
 1652              		.loc 1 724 0
 1653 06be E2D1     		bne	.L154
 1654 06c0 EDE4     		b	.L84
 1655              	.LVL230:
 1656              	.L34:
 1657              	.LBE320:
 1658              	.LBE318:
 1659              	.LBE317:
 1660              	.LBB323:
 1661              	.LBB324:
 721:font.c        ****     uint8_t height = font[0];
 1662              		.loc 1 721 0
 1663 06c2 B3B2     		uxth	r3, r6
 1664 06c4 1A46     		mov	r2, r3
 1665 06c6 0393     		str	r3, [sp, #12]
 720:font.c        ****     x = x-2;
 1666              		.loc 1 720 0
 1667 06c8 BDF80830 		ldrh	r3, [sp, #8]
 721:font.c        ****     uint8_t height = font[0];
 1668              		.loc 1 721 0
 1669 06cc 971E     		subs	r7, r2, #2
 720:font.c        ****     x = x-2;
 1670              		.loc 1 720 0
 1671 06ce 9D1E     		subs	r5, r3, #2
 1672 06d0 0533     		adds	r3, r3, #5
 1673 06d2 1BB2     		sxth	r3, r3
 721:font.c        ****     uint8_t height = font[0];
 1674              		.loc 1 721 0
 1675 06d4 3FB2     		sxth	r7, r7
 720:font.c        ****     x = x-2;
 1676              		.loc 1 720 0
 1677 06d6 2DB2     		sxth	r5, r5
 1678              	.LVL231:
ARM GAS  C:\Users\JACOB-~1\AppData\Local\Temp\ccGLbPGC.s 			page 51


 1679 06d8 0593     		str	r3, [sp, #20]
 721:font.c        ****     uint8_t height = font[0];
 1680              		.loc 1 721 0
 1681 06da 4FF00309 		mov	r9, #3
 719:font.c        ****     y = y-2;
 1682              		.loc 1 719 0
 1683 06de 4FF0BA08 		mov	r8, #186
 1684              	.LVL232:
 1685              	.L107:
 1686              	.LBB325:
 1687              	.LBB326:
 726:font.c        ****         {
 1688              		.loc 1 726 0
 1689 06e2 B9F1000F 		cmp	r9, #0
 1690 06e6 0DD0     		beq	.L109
 1691 06e8 09EB0806 		add	r6, r9, r8
 1692 06ec 5E44     		add	r6, r6, fp
 1693 06ee 0BEB080A 		add	r10, fp, r8
 1694              	.LVL233:
 1695              	.L108:
 1696              	.LBB327:
 728:font.c        ****         }
 1697              		.loc 1 728 0
 1698 06f2 1AF8010F 		ldrb	r0, [r10, #1]!	@ zero_extendqisi2
 1699 06f6 2246     		mov	r2, r4
 1700 06f8 3844     		add	r0, r0, r7
 1701 06fa 2946     		mov	r1, r5
 1702 06fc FFF7FEFF 		bl	draw_pixel
 1703              	.LVL234:
 1704              	.LBE327:
 726:font.c        ****         {
 1705              		.loc 1 726 0
 1706 0700 5645     		cmp	r6, r10
 1707 0702 F6D1     		bne	.L108
 1708              	.L109:
 1709 0704 0135     		adds	r5, r5, #1
 1710              	.LVL235:
 1711              	.LBE326:
 724:font.c        ****     {
 1712              		.loc 1 724 0
 1713 0706 059B     		ldr	r3, [sp, #20]
 731:font.c        ****     }
 1714              		.loc 1 731 0
 1715 0708 09F10109 		add	r9, r9, #1
 1716 070c 2DB2     		sxth	r5, r5
 1717              	.LVL236:
 1718 070e C844     		add	r8, r8, r9
 1719              	.LVL237:
 724:font.c        ****     {
 1720              		.loc 1 724 0
 1721 0710 AB42     		cmp	r3, r5
 731:font.c        ****     }
 1722              		.loc 1 731 0
 1723 0712 1FFA88F8 		uxth	r8, r8
 1724              	.LVL238:
 724:font.c        ****     {
 1725              		.loc 1 724 0
ARM GAS  C:\Users\JACOB-~1\AppData\Local\Temp\ccGLbPGC.s 			page 52


 1726 0716 3FF4C2AC 		beq	.L84
 1727 071a 1BF80890 		ldrb	r9, [fp, r8]	@ zero_extendqisi2
 1728 071e E0E7     		b	.L107
 1729              	.LVL239:
 1730              	.L42:
 1731              	.LBE325:
 1732              	.LBE324:
 1733              	.LBE323:
 1734              	.LBB328:
 1735              	.LBB329:
 721:font.c        ****     uint8_t height = font[0];
 1736              		.loc 1 721 0
 1737 0720 B3B2     		uxth	r3, r6
 1738 0722 1A46     		mov	r2, r3
 1739 0724 0393     		str	r3, [sp, #12]
 720:font.c        ****     x = x-2;
 1740              		.loc 1 720 0
 1741 0726 BDF80830 		ldrh	r3, [sp, #8]
 721:font.c        ****     uint8_t height = font[0];
 1742              		.loc 1 721 0
 1743 072a 971E     		subs	r7, r2, #2
 720:font.c        ****     x = x-2;
 1744              		.loc 1 720 0
 1745 072c 9D1E     		subs	r5, r3, #2
 1746 072e 0533     		adds	r3, r3, #5
 1747 0730 1BB2     		sxth	r3, r3
 721:font.c        ****     uint8_t height = font[0];
 1748              		.loc 1 721 0
 1749 0732 3FB2     		sxth	r7, r7
 720:font.c        ****     x = x-2;
 1750              		.loc 1 720 0
 1751 0734 2DB2     		sxth	r5, r5
 1752              	.LVL240:
 1753 0736 0593     		str	r3, [sp, #20]
 721:font.c        ****     uint8_t height = font[0];
 1754              		.loc 1 721 0
 1755 0738 4FF00309 		mov	r9, #3
 719:font.c        ****     y = y-2;
 1756              		.loc 1 719 0
 1757 073c 4FF4BF78 		mov	r8, #382
 1758              	.LVL241:
 1759              	.L131:
 1760              	.LBB330:
 1761              	.LBB331:
 726:font.c        ****         {
 1762              		.loc 1 726 0
 1763 0740 B9F1000F 		cmp	r9, #0
 1764 0744 0DD0     		beq	.L133
 1765 0746 09EB0806 		add	r6, r9, r8
 1766 074a 5E44     		add	r6, r6, fp
 1767 074c 0BEB080A 		add	r10, fp, r8
 1768              	.LVL242:
 1769              	.L132:
 1770              	.LBB332:
 728:font.c        ****         }
 1771              		.loc 1 728 0
 1772 0750 1AF8010F 		ldrb	r0, [r10, #1]!	@ zero_extendqisi2
ARM GAS  C:\Users\JACOB-~1\AppData\Local\Temp\ccGLbPGC.s 			page 53


 1773 0754 2246     		mov	r2, r4
 1774 0756 3844     		add	r0, r0, r7
 1775 0758 2946     		mov	r1, r5
 1776 075a FFF7FEFF 		bl	draw_pixel
 1777              	.LVL243:
 1778              	.LBE332:
 726:font.c        ****         {
 1779              		.loc 1 726 0
 1780 075e 5645     		cmp	r6, r10
 1781 0760 F6D1     		bne	.L132
 1782              	.L133:
 1783 0762 0135     		adds	r5, r5, #1
 1784              	.LVL244:
 1785              	.LBE331:
 724:font.c        ****     {
 1786              		.loc 1 724 0
 1787 0764 059B     		ldr	r3, [sp, #20]
 731:font.c        ****     }
 1788              		.loc 1 731 0
 1789 0766 09F10109 		add	r9, r9, #1
 1790 076a 2DB2     		sxth	r5, r5
 1791              	.LVL245:
 1792 076c C844     		add	r8, r8, r9
 1793              	.LVL246:
 724:font.c        ****     {
 1794              		.loc 1 724 0
 1795 076e AB42     		cmp	r3, r5
 731:font.c        ****     }
 1796              		.loc 1 731 0
 1797 0770 1FFA88F8 		uxth	r8, r8
 1798              	.LVL247:
 724:font.c        ****     {
 1799              		.loc 1 724 0
 1800 0774 3FF493AC 		beq	.L84
 1801 0778 1BF80890 		ldrb	r9, [fp, r8]	@ zero_extendqisi2
 1802 077c E0E7     		b	.L131
 1803              	.LVL248:
 1804              	.L41:
 1805              	.LBE330:
 1806              	.LBE329:
 1807              	.LBE328:
 1808              	.LBB333:
 1809              	.LBB334:
 721:font.c        ****     uint8_t height = font[0];
 1810              		.loc 1 721 0
 1811 077e B3B2     		uxth	r3, r6
 1812 0780 1A46     		mov	r2, r3
 719:font.c        ****     y = y-2;
 1813              		.loc 1 719 0
 1814 0782 40F26918 		movw	r8, #361
 721:font.c        ****     uint8_t height = font[0];
 1815              		.loc 1 721 0
 1816 0786 0393     		str	r3, [sp, #12]
 720:font.c        ****     x = x-2;
 1817              		.loc 1 720 0
 1818 0788 BDF80830 		ldrh	r3, [sp, #8]
 721:font.c        ****     uint8_t height = font[0];
ARM GAS  C:\Users\JACOB-~1\AppData\Local\Temp\ccGLbPGC.s 			page 54


 1819              		.loc 1 721 0
 1820 078c 971E     		subs	r7, r2, #2
 720:font.c        ****     x = x-2;
 1821              		.loc 1 720 0
 1822 078e 9D1E     		subs	r5, r3, #2
 1823 0790 0533     		adds	r3, r3, #5
 1824 0792 1BB2     		sxth	r3, r3
 721:font.c        ****     uint8_t height = font[0];
 1825              		.loc 1 721 0
 1826 0794 3FB2     		sxth	r7, r7
 720:font.c        ****     x = x-2;
 1827              		.loc 1 720 0
 1828 0796 2DB2     		sxth	r5, r5
 1829              	.LVL249:
 1830 0798 0593     		str	r3, [sp, #20]
 721:font.c        ****     uint8_t height = font[0];
 1831              		.loc 1 721 0
 1832 079a 4FF00109 		mov	r9, #1
 1833              	.LVL250:
 1834              	.L128:
 1835              	.LBB335:
 1836              	.LBB336:
 726:font.c        ****         {
 1837              		.loc 1 726 0
 1838 079e B9F1000F 		cmp	r9, #0
 1839 07a2 0DD0     		beq	.L130
 1840 07a4 09EB0806 		add	r6, r9, r8
 1841 07a8 5E44     		add	r6, r6, fp
 1842 07aa 0BEB080A 		add	r10, fp, r8
 1843              	.LVL251:
 1844              	.L129:
 1845              	.LBB337:
 728:font.c        ****         }
 1846              		.loc 1 728 0
 1847 07ae 1AF8010F 		ldrb	r0, [r10, #1]!	@ zero_extendqisi2
 1848 07b2 2246     		mov	r2, r4
 1849 07b4 3844     		add	r0, r0, r7
 1850 07b6 2946     		mov	r1, r5
 1851 07b8 FFF7FEFF 		bl	draw_pixel
 1852              	.LVL252:
 1853              	.LBE337:
 726:font.c        ****         {
 1854              		.loc 1 726 0
 1855 07bc B245     		cmp	r10, r6
 1856 07be F6D1     		bne	.L129
 1857              	.L130:
 1858 07c0 0135     		adds	r5, r5, #1
 1859              	.LVL253:
 1860              	.LBE336:
 724:font.c        ****     {
 1861              		.loc 1 724 0
 1862 07c2 059B     		ldr	r3, [sp, #20]
 731:font.c        ****     }
 1863              		.loc 1 731 0
 1864 07c4 09F10109 		add	r9, r9, #1
 1865 07c8 2DB2     		sxth	r5, r5
 1866              	.LVL254:
ARM GAS  C:\Users\JACOB-~1\AppData\Local\Temp\ccGLbPGC.s 			page 55


 1867 07ca C844     		add	r8, r8, r9
 1868              	.LVL255:
 724:font.c        ****     {
 1869              		.loc 1 724 0
 1870 07cc AB42     		cmp	r3, r5
 731:font.c        ****     }
 1871              		.loc 1 731 0
 1872 07ce 1FFA88F8 		uxth	r8, r8
 1873              	.LVL256:
 724:font.c        ****     {
 1874              		.loc 1 724 0
 1875 07d2 3FF464AC 		beq	.L84
 1876 07d6 1BF80890 		ldrb	r9, [fp, r8]	@ zero_extendqisi2
 1877 07da E0E7     		b	.L128
 1878              	.LVL257:
 1879              	.L40:
 1880              	.LBE335:
 1881              	.LBE334:
 1882              	.LBE333:
 1883              	.LBB338:
 1884              	.LBB339:
 721:font.c        ****     uint8_t height = font[0];
 1885              		.loc 1 721 0
 1886 07dc B3B2     		uxth	r3, r6
 1887 07de 1A46     		mov	r2, r3
 719:font.c        ****     y = y-2;
 1888              		.loc 1 719 0
 1889 07e0 40F24F18 		movw	r8, #335
 721:font.c        ****     uint8_t height = font[0];
 1890              		.loc 1 721 0
 1891 07e4 0393     		str	r3, [sp, #12]
 720:font.c        ****     x = x-2;
 1892              		.loc 1 720 0
 1893 07e6 BDF80830 		ldrh	r3, [sp, #8]
 721:font.c        ****     uint8_t height = font[0];
 1894              		.loc 1 721 0
 1895 07ea 971E     		subs	r7, r2, #2
 720:font.c        ****     x = x-2;
 1896              		.loc 1 720 0
 1897 07ec 9D1E     		subs	r5, r3, #2
 1898 07ee 0533     		adds	r3, r3, #5
 1899 07f0 1BB2     		sxth	r3, r3
 721:font.c        ****     uint8_t height = font[0];
 1900              		.loc 1 721 0
 1901 07f2 3FB2     		sxth	r7, r7
 720:font.c        ****     x = x-2;
 1902              		.loc 1 720 0
 1903 07f4 2DB2     		sxth	r5, r5
 1904              	.LVL258:
 1905 07f6 0593     		str	r3, [sp, #20]
 721:font.c        ****     uint8_t height = font[0];
 1906              		.loc 1 721 0
 1907 07f8 4FF00509 		mov	r9, #5
 1908              	.LVL259:
 1909              	.L125:
 1910              	.LBB340:
 1911              	.LBB341:
ARM GAS  C:\Users\JACOB-~1\AppData\Local\Temp\ccGLbPGC.s 			page 56


 726:font.c        ****         {
 1912              		.loc 1 726 0
 1913 07fc B9F1000F 		cmp	r9, #0
 1914 0800 0DD0     		beq	.L127
 1915 0802 09EB0806 		add	r6, r9, r8
 1916 0806 5E44     		add	r6, r6, fp
 1917 0808 0BEB080A 		add	r10, fp, r8
 1918              	.LVL260:
 1919              	.L126:
 1920              	.LBB342:
 728:font.c        ****         }
 1921              		.loc 1 728 0
 1922 080c 1AF8010F 		ldrb	r0, [r10, #1]!	@ zero_extendqisi2
 1923 0810 2246     		mov	r2, r4
 1924 0812 3844     		add	r0, r0, r7
 1925 0814 2946     		mov	r1, r5
 1926 0816 FFF7FEFF 		bl	draw_pixel
 1927              	.LVL261:
 1928              	.LBE342:
 726:font.c        ****         {
 1929              		.loc 1 726 0
 1930 081a 5645     		cmp	r6, r10
 1931 081c F6D1     		bne	.L126
 1932              	.L127:
 1933 081e 0135     		adds	r5, r5, #1
 1934              	.LVL262:
 1935              	.LBE341:
 724:font.c        ****     {
 1936              		.loc 1 724 0
 1937 0820 059B     		ldr	r3, [sp, #20]
 731:font.c        ****     }
 1938              		.loc 1 731 0
 1939 0822 09F10109 		add	r9, r9, #1
 1940 0826 2DB2     		sxth	r5, r5
 1941              	.LVL263:
 1942 0828 C844     		add	r8, r8, r9
 1943              	.LVL264:
 724:font.c        ****     {
 1944              		.loc 1 724 0
 1945 082a AB42     		cmp	r3, r5
 731:font.c        ****     }
 1946              		.loc 1 731 0
 1947 082c 1FFA88F8 		uxth	r8, r8
 1948              	.LVL265:
 724:font.c        ****     {
 1949              		.loc 1 724 0
 1950 0830 3FF435AC 		beq	.L84
 1951 0834 1BF80890 		ldrb	r9, [fp, r8]	@ zero_extendqisi2
 1952 0838 E0E7     		b	.L125
 1953              	.LVL266:
 1954              	.L39:
 1955              	.LBE340:
 1956              	.LBE339:
 1957              	.LBE338:
 1958              	.LBB343:
 1959              	.LBB344:
 721:font.c        ****     uint8_t height = font[0];
ARM GAS  C:\Users\JACOB-~1\AppData\Local\Temp\ccGLbPGC.s 			page 57


 1960              		.loc 1 721 0
 1961 083a B3B2     		uxth	r3, r6
 1962 083c 1A46     		mov	r2, r3
 719:font.c        ****     y = y-2;
 1963              		.loc 1 719 0
 1964 083e 40F23518 		movw	r8, #309
 721:font.c        ****     uint8_t height = font[0];
 1965              		.loc 1 721 0
 1966 0842 0393     		str	r3, [sp, #12]
 720:font.c        ****     x = x-2;
 1967              		.loc 1 720 0
 1968 0844 BDF80830 		ldrh	r3, [sp, #8]
 721:font.c        ****     uint8_t height = font[0];
 1969              		.loc 1 721 0
 1970 0848 971E     		subs	r7, r2, #2
 720:font.c        ****     x = x-2;
 1971              		.loc 1 720 0
 1972 084a 9D1E     		subs	r5, r3, #2
 1973 084c 0533     		adds	r3, r3, #5
 1974 084e 1BB2     		sxth	r3, r3
 721:font.c        ****     uint8_t height = font[0];
 1975              		.loc 1 721 0
 1976 0850 3FB2     		sxth	r7, r7
 720:font.c        ****     x = x-2;
 1977              		.loc 1 720 0
 1978 0852 2DB2     		sxth	r5, r5
 1979              	.LVL267:
 1980 0854 0593     		str	r3, [sp, #20]
 721:font.c        ****     uint8_t height = font[0];
 1981              		.loc 1 721 0
 1982 0856 4FF00409 		mov	r9, #4
 1983              	.LVL268:
 1984              	.L122:
 1985              	.LBB345:
 1986              	.LBB346:
 726:font.c        ****         {
 1987              		.loc 1 726 0
 1988 085a B9F1000F 		cmp	r9, #0
 1989 085e 0DD0     		beq	.L124
 1990 0860 09EB0806 		add	r6, r9, r8
 1991 0864 5E44     		add	r6, r6, fp
 1992 0866 0BEB080A 		add	r10, fp, r8
 1993              	.LVL269:
 1994              	.L123:
 1995              	.LBB347:
 728:font.c        ****         }
 1996              		.loc 1 728 0
 1997 086a 1AF8010F 		ldrb	r0, [r10, #1]!	@ zero_extendqisi2
 1998 086e 2246     		mov	r2, r4
 1999 0870 3844     		add	r0, r0, r7
 2000 0872 2946     		mov	r1, r5
 2001 0874 FFF7FEFF 		bl	draw_pixel
 2002              	.LVL270:
 2003              	.LBE347:
 726:font.c        ****         {
 2004              		.loc 1 726 0
 2005 0878 5645     		cmp	r6, r10
ARM GAS  C:\Users\JACOB-~1\AppData\Local\Temp\ccGLbPGC.s 			page 58


 2006 087a F6D1     		bne	.L123
 2007              	.L124:
 2008 087c 0135     		adds	r5, r5, #1
 2009              	.LVL271:
 2010              	.LBE346:
 724:font.c        ****     {
 2011              		.loc 1 724 0
 2012 087e 059B     		ldr	r3, [sp, #20]
 731:font.c        ****     }
 2013              		.loc 1 731 0
 2014 0880 09F10109 		add	r9, r9, #1
 2015 0884 2DB2     		sxth	r5, r5
 2016              	.LVL272:
 2017 0886 C844     		add	r8, r8, r9
 2018              	.LVL273:
 724:font.c        ****     {
 2019              		.loc 1 724 0
 2020 0888 9D42     		cmp	r5, r3
 731:font.c        ****     }
 2021              		.loc 1 731 0
 2022 088a 1FFA88F8 		uxth	r8, r8
 2023              	.LVL274:
 724:font.c        ****     {
 2024              		.loc 1 724 0
 2025 088e 3FF406AC 		beq	.L84
 2026 0892 1BF80890 		ldrb	r9, [fp, r8]	@ zero_extendqisi2
 2027 0896 E0E7     		b	.L122
 2028              	.LVL275:
 2029              	.L44:
 2030              	.LBE345:
 2031              	.LBE344:
 2032              	.LBE343:
 743:font.c        ****         {
 2033              		.loc 1 743 0
 2034 0898 1221     		movs	r1, #18
 2035 089a 1A22     		movs	r2, #26
 2036 089c 0123     		movs	r3, #1
 2037 089e 01E0     		b	.L79
 2038              	.LVL276:
 2039              	.L444:
 2040 08a0 1BF80320 		ldrb	r2, [fp, r3]	@ zero_extendqisi2
 2041              	.LVL277:
 2042              	.L79:
 2043              	.LBB348:
 2044              	.LBB349:
 2045              	.LBB350:
 716:font.c        ****     }
 2046              		.loc 1 716 0
 2047 08a4 0132     		adds	r2, r2, #1
 2048 08a6 1344     		add	r3, r3, r2
 2049              	.LVL278:
 714:font.c        ****     {
 2050              		.loc 1 714 0
 2051 08a8 0139     		subs	r1, r1, #1
 716:font.c        ****     }
 2052              		.loc 1 716 0
 2053 08aa 9BB2     		uxth	r3, r3
ARM GAS  C:\Users\JACOB-~1\AppData\Local\Temp\ccGLbPGC.s 			page 59


 2054              	.LVL279:
 714:font.c        ****     {
 2055              		.loc 1 714 0
 2056 08ac F8D1     		bne	.L444
 2057              	.LBE350:
 721:font.c        ****     uint8_t height = font[0];
 2058              		.loc 1 721 0
 2059 08ae B2B2     		uxth	r2, r6
 2060 08b0 1146     		mov	r1, r2
 2061 08b2 0392     		str	r2, [sp, #12]
 720:font.c        ****     x = x-2;
 2062              		.loc 1 720 0
 2063 08b4 BDF80820 		ldrh	r2, [sp, #8]
 719:font.c        ****     y = y-2;
 2064              		.loc 1 719 0
 2065 08b8 0133     		adds	r3, r3, #1
 2066              	.LVL280:
 720:font.c        ****     x = x-2;
 2067              		.loc 1 720 0
 2068 08ba 951E     		subs	r5, r2, #2
 2069 08bc 0532     		adds	r2, r2, #5
 721:font.c        ****     uint8_t height = font[0];
 2070              		.loc 1 721 0
 2071 08be 8F1E     		subs	r7, r1, #2
 719:font.c        ****     y = y-2;
 2072              		.loc 1 719 0
 2073 08c0 1FFA83F8 		uxth	r8, r3
 2074              	.LVL281:
 2075 08c4 13B2     		sxth	r3, r2
 721:font.c        ****     uint8_t height = font[0];
 2076              		.loc 1 721 0
 2077 08c6 3FB2     		sxth	r7, r7
 720:font.c        ****     x = x-2;
 2078              		.loc 1 720 0
 2079 08c8 2DB2     		sxth	r5, r5
 2080              	.LVL282:
 2081 08ca 0593     		str	r3, [sp, #20]
 2082              	.LVL283:
 2083              	.L138:
 2084              	.LBB351:
 2085              	.LBB352:
 726:font.c        ****         {
 2086              		.loc 1 726 0
 2087 08cc 1BF80890 		ldrb	r9, [fp, r8]	@ zero_extendqisi2
 2088 08d0 B9F1000F 		cmp	r9, #0
 2089 08d4 0DD0     		beq	.L140
 2090 08d6 09EB0806 		add	r6, r9, r8
 2091 08da 5E44     		add	r6, r6, fp
 2092 08dc 0BEB080A 		add	r10, fp, r8
 2093              	.LVL284:
 2094              	.L139:
 2095              	.LBB353:
 728:font.c        ****         }
 2096              		.loc 1 728 0
 2097 08e0 1AF8010F 		ldrb	r0, [r10, #1]!	@ zero_extendqisi2
 2098 08e4 2246     		mov	r2, r4
 2099 08e6 3844     		add	r0, r0, r7
ARM GAS  C:\Users\JACOB-~1\AppData\Local\Temp\ccGLbPGC.s 			page 60


 2100 08e8 2946     		mov	r1, r5
 2101 08ea FFF7FEFF 		bl	draw_pixel
 2102              	.LVL285:
 2103              	.LBE353:
 726:font.c        ****         {
 2104              		.loc 1 726 0
 2105 08ee 5645     		cmp	r6, r10
 2106 08f0 F6D1     		bne	.L139
 2107              	.L140:
 2108 08f2 0135     		adds	r5, r5, #1
 2109              	.LVL286:
 2110              	.LBE352:
 724:font.c        ****     {
 2111              		.loc 1 724 0
 2112 08f4 059B     		ldr	r3, [sp, #20]
 731:font.c        ****     }
 2113              		.loc 1 731 0
 2114 08f6 09F10109 		add	r9, r9, #1
 2115 08fa 2DB2     		sxth	r5, r5
 2116              	.LVL287:
 2117 08fc C844     		add	r8, r8, r9
 2118              	.LVL288:
 724:font.c        ****     {
 2119              		.loc 1 724 0
 2120 08fe AB42     		cmp	r3, r5
 731:font.c        ****     }
 2121              		.loc 1 731 0
 2122 0900 1FFA88F8 		uxth	r8, r8
 2123              	.LVL289:
 724:font.c        ****     {
 2124              		.loc 1 724 0
 2125 0904 E2D1     		bne	.L138
 2126 0906 FFF7CABB 		b	.L84
 2127              	.LVL290:
 2128              	.L43:
 2129              	.LBE351:
 2130              	.LBE349:
 2131              	.LBE348:
 2132              	.LBB354:
 2133              	.LBB355:
 721:font.c        ****     uint8_t height = font[0];
 2134              		.loc 1 721 0
 2135 090a B3B2     		uxth	r3, r6
 2136 090c 1A46     		mov	r2, r3
 719:font.c        ****     y = y-2;
 2137              		.loc 1 719 0
 2138 090e 40F29718 		movw	r8, #407
 721:font.c        ****     uint8_t height = font[0];
 2139              		.loc 1 721 0
 2140 0912 0393     		str	r3, [sp, #12]
 720:font.c        ****     x = x-2;
 2141              		.loc 1 720 0
 2142 0914 BDF80830 		ldrh	r3, [sp, #8]
 721:font.c        ****     uint8_t height = font[0];
 2143              		.loc 1 721 0
 2144 0918 971E     		subs	r7, r2, #2
 720:font.c        ****     x = x-2;
ARM GAS  C:\Users\JACOB-~1\AppData\Local\Temp\ccGLbPGC.s 			page 61


 2145              		.loc 1 720 0
 2146 091a 9D1E     		subs	r5, r3, #2
 2147 091c 0533     		adds	r3, r3, #5
 2148 091e 1BB2     		sxth	r3, r3
 721:font.c        ****     uint8_t height = font[0];
 2149              		.loc 1 721 0
 2150 0920 3FB2     		sxth	r7, r7
 720:font.c        ****     x = x-2;
 2151              		.loc 1 720 0
 2152 0922 2DB2     		sxth	r5, r5
 2153              	.LVL291:
 2154 0924 0593     		str	r3, [sp, #20]
 2155              	.LVL292:
 2156              	.L134:
 2157              	.LBB356:
 2158              	.LBB357:
 726:font.c        ****         {
 2159              		.loc 1 726 0
 2160 0926 1BF80890 		ldrb	r9, [fp, r8]	@ zero_extendqisi2
 2161 092a B9F1000F 		cmp	r9, #0
 2162 092e 0DD0     		beq	.L136
 2163 0930 09EB0806 		add	r6, r9, r8
 2164 0934 5E44     		add	r6, r6, fp
 2165 0936 0BEB080A 		add	r10, fp, r8
 2166              	.LVL293:
 2167              	.L135:
 2168              	.LBB358:
 728:font.c        ****         }
 2169              		.loc 1 728 0
 2170 093a 1AF8010F 		ldrb	r0, [r10, #1]!	@ zero_extendqisi2
 2171 093e 2246     		mov	r2, r4
 2172 0940 3844     		add	r0, r0, r7
 2173 0942 2946     		mov	r1, r5
 2174 0944 FFF7FEFF 		bl	draw_pixel
 2175              	.LVL294:
 2176              	.LBE358:
 726:font.c        ****         {
 2177              		.loc 1 726 0
 2178 0948 5645     		cmp	r6, r10
 2179 094a F6D1     		bne	.L135
 2180              	.L136:
 2181 094c 0135     		adds	r5, r5, #1
 2182              	.LVL295:
 2183              	.LBE357:
 724:font.c        ****     {
 2184              		.loc 1 724 0
 2185 094e 059B     		ldr	r3, [sp, #20]
 731:font.c        ****     }
 2186              		.loc 1 731 0
 2187 0950 09F10109 		add	r9, r9, #1
 2188 0954 2DB2     		sxth	r5, r5
 2189              	.LVL296:
 2190 0956 C844     		add	r8, r8, r9
 2191              	.LVL297:
 724:font.c        ****     {
 2192              		.loc 1 724 0
 2193 0958 AB42     		cmp	r3, r5
ARM GAS  C:\Users\JACOB-~1\AppData\Local\Temp\ccGLbPGC.s 			page 62


 731:font.c        ****     }
 2194              		.loc 1 731 0
 2195 095a 1FFA88F8 		uxth	r8, r8
 2196              	.LVL298:
 724:font.c        ****     {
 2197              		.loc 1 724 0
 2198 095e E2D1     		bne	.L134
 2199 0960 FFF79DBB 		b	.L84
 2200              	.LVL299:
 2201              	.L26:
 2202              	.LBE356:
 2203              	.LBE355:
 2204              	.LBE354:
 2205              	.LBB359:
 2206              	.LBB360:
 721:font.c        ****     uint8_t height = font[0];
 2207              		.loc 1 721 0
 2208 0964 B3B2     		uxth	r3, r6
 2209 0966 1A46     		mov	r2, r3
 2210 0968 0393     		str	r3, [sp, #12]
 720:font.c        ****     x = x-2;
 2211              		.loc 1 720 0
 2212 096a BDF80830 		ldrh	r3, [sp, #8]
 721:font.c        ****     uint8_t height = font[0];
 2213              		.loc 1 721 0
 2214 096e 971E     		subs	r7, r2, #2
 720:font.c        ****     x = x-2;
 2215              		.loc 1 720 0
 2216 0970 9D1E     		subs	r5, r3, #2
 2217 0972 0533     		adds	r3, r3, #5
 2218 0974 1BB2     		sxth	r3, r3
 721:font.c        ****     uint8_t height = font[0];
 2219              		.loc 1 721 0
 2220 0976 3FB2     		sxth	r7, r7
 720:font.c        ****     x = x-2;
 2221              		.loc 1 720 0
 2222 0978 2DB2     		sxth	r5, r5
 2223              	.LVL300:
 2224 097a 0593     		str	r3, [sp, #20]
 721:font.c        ****     uint8_t height = font[0];
 2225              		.loc 1 721 0
 2226 097c 4FF00309 		mov	r9, #3
 719:font.c        ****     y = y-2;
 2227              		.loc 1 719 0
 2228 0980 4FF00208 		mov	r8, #2
 2229              	.LVL301:
 2230              	.L82:
 2231              	.LBB361:
 2232              	.LBB362:
 726:font.c        ****         {
 2233              		.loc 1 726 0
 2234 0984 B9F1000F 		cmp	r9, #0
 2235 0988 0DD0     		beq	.L85
 2236 098a 09EB0806 		add	r6, r9, r8
 2237 098e 5E44     		add	r6, r6, fp
 2238 0990 0BEB080A 		add	r10, fp, r8
 2239              	.LVL302:
ARM GAS  C:\Users\JACOB-~1\AppData\Local\Temp\ccGLbPGC.s 			page 63


 2240              	.L83:
 2241              	.LBB363:
 728:font.c        ****         }
 2242              		.loc 1 728 0
 2243 0994 1AF8010F 		ldrb	r0, [r10, #1]!	@ zero_extendqisi2
 2244 0998 2246     		mov	r2, r4
 2245 099a 3844     		add	r0, r0, r7
 2246 099c 2946     		mov	r1, r5
 2247 099e FFF7FEFF 		bl	draw_pixel
 2248              	.LVL303:
 2249              	.LBE363:
 726:font.c        ****         {
 2250              		.loc 1 726 0
 2251 09a2 5645     		cmp	r6, r10
 2252 09a4 F6D1     		bne	.L83
 2253              	.L85:
 2254 09a6 0135     		adds	r5, r5, #1
 2255              	.LVL304:
 2256              	.LBE362:
 724:font.c        ****     {
 2257              		.loc 1 724 0
 2258 09a8 059B     		ldr	r3, [sp, #20]
 731:font.c        ****     }
 2259              		.loc 1 731 0
 2260 09aa 09F10109 		add	r9, r9, #1
 2261 09ae 2DB2     		sxth	r5, r5
 2262              	.LVL305:
 2263 09b0 C844     		add	r8, r8, r9
 2264              	.LVL306:
 724:font.c        ****     {
 2265              		.loc 1 724 0
 2266 09b2 AB42     		cmp	r3, r5
 731:font.c        ****     }
 2267              		.loc 1 731 0
 2268 09b4 1FFA88F8 		uxth	r8, r8
 2269              	.LVL307:
 724:font.c        ****     {
 2270              		.loc 1 724 0
 2271 09b8 3FF471AB 		beq	.L84
 2272 09bc 1BF80890 		ldrb	r9, [fp, r8]	@ zero_extendqisi2
 2273 09c0 E0E7     		b	.L82
 2274              	.LVL308:
 2275              	.L25:
 2276              	.LBE361:
 2277              	.LBE360:
 2278              	.LBE359:
 743:font.c        ****         {
 2279              		.loc 1 743 0
 2280 09c2 2421     		movs	r1, #36
 2281 09c4 1A22     		movs	r2, #26
 2282 09c6 0123     		movs	r3, #1
 2283 09c8 01E0     		b	.L80
 2284              	.LVL309:
 2285              	.L445:
 2286 09ca 1BF80320 		ldrb	r2, [fp, r3]	@ zero_extendqisi2
 2287              	.LVL310:
 2288              	.L80:
ARM GAS  C:\Users\JACOB-~1\AppData\Local\Temp\ccGLbPGC.s 			page 64


 2289              	.LBB364:
 2290              	.LBB365:
 2291              	.LBB366:
 716:font.c        ****     }
 2292              		.loc 1 716 0
 2293 09ce 0132     		adds	r2, r2, #1
 2294 09d0 1344     		add	r3, r3, r2
 2295              	.LVL311:
 714:font.c        ****     {
 2296              		.loc 1 714 0
 2297 09d2 0139     		subs	r1, r1, #1
 716:font.c        ****     }
 2298              		.loc 1 716 0
 2299 09d4 9BB2     		uxth	r3, r3
 2300              	.LVL312:
 714:font.c        ****     {
 2301              		.loc 1 714 0
 2302 09d6 F8D1     		bne	.L445
 2303              	.LBE366:
 721:font.c        ****     uint8_t height = font[0];
 2304              		.loc 1 721 0
 2305 09d8 B2B2     		uxth	r2, r6
 2306 09da 1146     		mov	r1, r2
 2307 09dc 0392     		str	r2, [sp, #12]
 720:font.c        ****     x = x-2;
 2308              		.loc 1 720 0
 2309 09de BDF80820 		ldrh	r2, [sp, #8]
 719:font.c        ****     y = y-2;
 2310              		.loc 1 719 0
 2311 09e2 0133     		adds	r3, r3, #1
 2312              	.LVL313:
 720:font.c        ****     x = x-2;
 2313              		.loc 1 720 0
 2314 09e4 951E     		subs	r5, r2, #2
 2315 09e6 0532     		adds	r2, r2, #5
 721:font.c        ****     uint8_t height = font[0];
 2316              		.loc 1 721 0
 2317 09e8 8F1E     		subs	r7, r1, #2
 719:font.c        ****     y = y-2;
 2318              		.loc 1 719 0
 2319 09ea 1FFA83F8 		uxth	r8, r3
 2320              	.LVL314:
 2321 09ee 13B2     		sxth	r3, r2
 721:font.c        ****     uint8_t height = font[0];
 2322              		.loc 1 721 0
 2323 09f0 3FB2     		sxth	r7, r7
 720:font.c        ****     x = x-2;
 2324              		.loc 1 720 0
 2325 09f2 2DB2     		sxth	r5, r5
 2326              	.LVL315:
 2327 09f4 0593     		str	r3, [sp, #20]
 2328              	.LVL316:
 2329              	.L210:
 2330              	.LBB367:
 2331              	.LBB368:
 726:font.c        ****         {
 2332              		.loc 1 726 0
ARM GAS  C:\Users\JACOB-~1\AppData\Local\Temp\ccGLbPGC.s 			page 65


 2333 09f6 1BF80890 		ldrb	r9, [fp, r8]	@ zero_extendqisi2
 2334 09fa B9F1000F 		cmp	r9, #0
 2335 09fe 0DD0     		beq	.L212
 2336 0a00 09EB0806 		add	r6, r9, r8
 2337 0a04 5E44     		add	r6, r6, fp
 2338 0a06 0BEB080A 		add	r10, fp, r8
 2339              	.LVL317:
 2340              	.L211:
 2341              	.LBB369:
 728:font.c        ****         }
 2342              		.loc 1 728 0
 2343 0a0a 1AF8010F 		ldrb	r0, [r10, #1]!	@ zero_extendqisi2
 2344 0a0e 2246     		mov	r2, r4
 2345 0a10 3844     		add	r0, r0, r7
 2346 0a12 2946     		mov	r1, r5
 2347 0a14 FFF7FEFF 		bl	draw_pixel
 2348              	.LVL318:
 2349              	.LBE369:
 726:font.c        ****         {
 2350              		.loc 1 726 0
 2351 0a18 5645     		cmp	r6, r10
 2352 0a1a F6D1     		bne	.L211
 2353              	.L212:
 2354 0a1c 0135     		adds	r5, r5, #1
 2355              	.LVL319:
 2356              	.LBE368:
 724:font.c        ****     {
 2357              		.loc 1 724 0
 2358 0a1e 059B     		ldr	r3, [sp, #20]
 731:font.c        ****     }
 2359              		.loc 1 731 0
 2360 0a20 09F10109 		add	r9, r9, #1
 2361 0a24 2DB2     		sxth	r5, r5
 2362              	.LVL320:
 2363 0a26 C844     		add	r8, r8, r9
 2364              	.LVL321:
 724:font.c        ****     {
 2365              		.loc 1 724 0
 2366 0a28 9D42     		cmp	r5, r3
 731:font.c        ****     }
 2367              		.loc 1 731 0
 2368 0a2a 1FFA88F8 		uxth	r8, r8
 2369              	.LVL322:
 724:font.c        ****     {
 2370              		.loc 1 724 0
 2371 0a2e E2D1     		bne	.L210
 2372 0a30 FFF735BB 		b	.L84
 2373              	.LVL323:
 2374              	.L23:
 2375              	.LBE367:
 2376              	.LBE365:
 2377              	.LBE364:
 743:font.c        ****         {
 2378              		.loc 1 743 0
 2379 0a34 2521     		movs	r1, #37
 2380 0a36 1A22     		movs	r2, #26
 2381 0a38 0123     		movs	r3, #1
ARM GAS  C:\Users\JACOB-~1\AppData\Local\Temp\ccGLbPGC.s 			page 66


 2382 0a3a 01E0     		b	.L81
 2383              	.LVL324:
 2384              	.L446:
 2385 0a3c 1BF80320 		ldrb	r2, [fp, r3]	@ zero_extendqisi2
 2386              	.LVL325:
 2387              	.L81:
 2388              	.LBB370:
 2389              	.LBB371:
 2390              	.LBB372:
 716:font.c        ****     }
 2391              		.loc 1 716 0
 2392 0a40 0132     		adds	r2, r2, #1
 2393 0a42 1344     		add	r3, r3, r2
 2394              	.LVL326:
 714:font.c        ****     {
 2395              		.loc 1 714 0
 2396 0a44 0139     		subs	r1, r1, #1
 716:font.c        ****     }
 2397              		.loc 1 716 0
 2398 0a46 9BB2     		uxth	r3, r3
 2399              	.LVL327:
 714:font.c        ****     {
 2400              		.loc 1 714 0
 2401 0a48 F8D1     		bne	.L446
 2402              	.LBE372:
 721:font.c        ****     uint8_t height = font[0];
 2403              		.loc 1 721 0
 2404 0a4a B2B2     		uxth	r2, r6
 2405 0a4c 1146     		mov	r1, r2
 2406 0a4e 0392     		str	r2, [sp, #12]
 720:font.c        ****     x = x-2;
 2407              		.loc 1 720 0
 2408 0a50 BDF80820 		ldrh	r2, [sp, #8]
 719:font.c        ****     y = y-2;
 2409              		.loc 1 719 0
 2410 0a54 0133     		adds	r3, r3, #1
 2411              	.LVL328:
 720:font.c        ****     x = x-2;
 2412              		.loc 1 720 0
 2413 0a56 951E     		subs	r5, r2, #2
 2414 0a58 0532     		adds	r2, r2, #5
 721:font.c        ****     uint8_t height = font[0];
 2415              		.loc 1 721 0
 2416 0a5a 8F1E     		subs	r7, r1, #2
 719:font.c        ****     y = y-2;
 2417              		.loc 1 719 0
 2418 0a5c 1FFA83F8 		uxth	r8, r3
 2419              	.LVL329:
 2420 0a60 13B2     		sxth	r3, r2
 721:font.c        ****     uint8_t height = font[0];
 2421              		.loc 1 721 0
 2422 0a62 3FB2     		sxth	r7, r7
 720:font.c        ****     x = x-2;
 2423              		.loc 1 720 0
 2424 0a64 2DB2     		sxth	r5, r5
 2425              	.LVL330:
 2426 0a66 0593     		str	r3, [sp, #20]
ARM GAS  C:\Users\JACOB-~1\AppData\Local\Temp\ccGLbPGC.s 			page 67


 2427              	.LVL331:
 2428              	.L214:
 2429              	.LBB373:
 2430              	.LBB374:
 726:font.c        ****         {
 2431              		.loc 1 726 0
 2432 0a68 1BF80890 		ldrb	r9, [fp, r8]	@ zero_extendqisi2
 2433 0a6c B9F1000F 		cmp	r9, #0
 2434 0a70 0DD0     		beq	.L216
 2435 0a72 09EB0806 		add	r6, r9, r8
 2436 0a76 5E44     		add	r6, r6, fp
 2437 0a78 0BEB080A 		add	r10, fp, r8
 2438              	.LVL332:
 2439              	.L215:
 2440              	.LBB375:
 728:font.c        ****         }
 2441              		.loc 1 728 0
 2442 0a7c 1AF8010F 		ldrb	r0, [r10, #1]!	@ zero_extendqisi2
 2443 0a80 2246     		mov	r2, r4
 2444 0a82 3844     		add	r0, r0, r7
 2445 0a84 2946     		mov	r1, r5
 2446 0a86 FFF7FEFF 		bl	draw_pixel
 2447              	.LVL333:
 2448              	.LBE375:
 726:font.c        ****         {
 2449              		.loc 1 726 0
 2450 0a8a 5645     		cmp	r6, r10
 2451 0a8c F6D1     		bne	.L215
 2452              	.L216:
 2453 0a8e 0135     		adds	r5, r5, #1
 2454              	.LVL334:
 2455              	.LBE374:
 724:font.c        ****     {
 2456              		.loc 1 724 0
 2457 0a90 059B     		ldr	r3, [sp, #20]
 731:font.c        ****     }
 2458              		.loc 1 731 0
 2459 0a92 09F10109 		add	r9, r9, #1
 2460 0a96 2DB2     		sxth	r5, r5
 2461              	.LVL335:
 2462 0a98 C844     		add	r8, r8, r9
 2463              	.LVL336:
 724:font.c        ****     {
 2464              		.loc 1 724 0
 2465 0a9a 9D42     		cmp	r5, r3
 731:font.c        ****     }
 2466              		.loc 1 731 0
 2467 0a9c 1FFA88F8 		uxth	r8, r8
 2468              	.LVL337:
 724:font.c        ****     {
 2469              		.loc 1 724 0
 2470 0aa0 E2D1     		bne	.L214
 2471 0aa2 FFF7FCBA 		b	.L84
 2472              	.LVL338:
 2473              	.L28:
 2474              	.LBE373:
 2475              	.LBE371:
ARM GAS  C:\Users\JACOB-~1\AppData\Local\Temp\ccGLbPGC.s 			page 68


 2476              	.LBE370:
 2477              	.LBB376:
 2478              	.LBB377:
 721:font.c        ****     uint8_t height = font[0];
 2479              		.loc 1 721 0
 2480 0aa6 B3B2     		uxth	r3, r6
 2481 0aa8 1A46     		mov	r2, r3
 2482 0aaa 0393     		str	r3, [sp, #12]
 720:font.c        ****     x = x-2;
 2483              		.loc 1 720 0
 2484 0aac BDF80830 		ldrh	r3, [sp, #8]
 721:font.c        ****     uint8_t height = font[0];
 2485              		.loc 1 721 0
 2486 0ab0 971E     		subs	r7, r2, #2
 720:font.c        ****     x = x-2;
 2487              		.loc 1 720 0
 2488 0ab2 9D1E     		subs	r5, r3, #2
 2489 0ab4 0533     		adds	r3, r3, #5
 2490 0ab6 1BB2     		sxth	r3, r3
 721:font.c        ****     uint8_t height = font[0];
 2491              		.loc 1 721 0
 2492 0ab8 3FB2     		sxth	r7, r7
 720:font.c        ****     x = x-2;
 2493              		.loc 1 720 0
 2494 0aba 2DB2     		sxth	r5, r5
 2495              	.LVL339:
 2496 0abc 0593     		str	r3, [sp, #20]
 721:font.c        ****     uint8_t height = font[0];
 2497              		.loc 1 721 0
 2498 0abe 4FF00509 		mov	r9, #5
 719:font.c        ****     y = y-2;
 2499              		.loc 1 719 0
 2500 0ac2 4FF03108 		mov	r8, #49
 2501              	.LVL340:
 2502              	.L89:
 2503              	.LBB378:
 2504              	.LBB379:
 726:font.c        ****         {
 2505              		.loc 1 726 0
 2506 0ac6 B9F1000F 		cmp	r9, #0
 2507 0aca 0DD0     		beq	.L91
 2508 0acc 09EB0806 		add	r6, r9, r8
 2509 0ad0 5E44     		add	r6, r6, fp
 2510 0ad2 0BEB080A 		add	r10, fp, r8
 2511              	.LVL341:
 2512              	.L90:
 2513              	.LBB380:
 728:font.c        ****         }
 2514              		.loc 1 728 0
 2515 0ad6 1AF8010F 		ldrb	r0, [r10, #1]!	@ zero_extendqisi2
 2516 0ada 2246     		mov	r2, r4
 2517 0adc 3844     		add	r0, r0, r7
 2518 0ade 2946     		mov	r1, r5
 2519 0ae0 FFF7FEFF 		bl	draw_pixel
 2520              	.LVL342:
 2521              	.LBE380:
 726:font.c        ****         {
ARM GAS  C:\Users\JACOB-~1\AppData\Local\Temp\ccGLbPGC.s 			page 69


 2522              		.loc 1 726 0
 2523 0ae4 B245     		cmp	r10, r6
 2524 0ae6 F6D1     		bne	.L90
 2525              	.L91:
 2526 0ae8 0135     		adds	r5, r5, #1
 2527              	.LVL343:
 2528              	.LBE379:
 724:font.c        ****     {
 2529              		.loc 1 724 0
 2530 0aea 059B     		ldr	r3, [sp, #20]
 731:font.c        ****     }
 2531              		.loc 1 731 0
 2532 0aec 09F10109 		add	r9, r9, #1
 2533 0af0 2DB2     		sxth	r5, r5
 2534              	.LVL344:
 2535 0af2 C844     		add	r8, r8, r9
 2536              	.LVL345:
 724:font.c        ****     {
 2537              		.loc 1 724 0
 2538 0af4 AB42     		cmp	r3, r5
 731:font.c        ****     }
 2539              		.loc 1 731 0
 2540 0af6 1FFA88F8 		uxth	r8, r8
 2541              	.LVL346:
 724:font.c        ****     {
 2542              		.loc 1 724 0
 2543 0afa 3FF4D0AA 		beq	.L84
 2544 0afe 1BF80890 		ldrb	r9, [fp, r8]	@ zero_extendqisi2
 2545 0b02 E0E7     		b	.L89
 2546              	.LVL347:
 2547              	.L29:
 2548              	.LBE378:
 2549              	.LBE377:
 2550              	.LBE376:
 2551              	.LBB381:
 2552              	.LBB382:
 721:font.c        ****     uint8_t height = font[0];
 2553              		.loc 1 721 0
 2554 0b04 B3B2     		uxth	r3, r6
 2555 0b06 1A46     		mov	r2, r3
 2556 0b08 0393     		str	r3, [sp, #12]
 720:font.c        ****     x = x-2;
 2557              		.loc 1 720 0
 2558 0b0a BDF80830 		ldrh	r3, [sp, #8]
 721:font.c        ****     uint8_t height = font[0];
 2559              		.loc 1 721 0
 2560 0b0e 971E     		subs	r7, r2, #2
 720:font.c        ****     x = x-2;
 2561              		.loc 1 720 0
 2562 0b10 9D1E     		subs	r5, r3, #2
 2563 0b12 0533     		adds	r3, r3, #5
 2564 0b14 1BB2     		sxth	r3, r3
 721:font.c        ****     uint8_t height = font[0];
 2565              		.loc 1 721 0
 2566 0b16 3FB2     		sxth	r7, r7
 720:font.c        ****     x = x-2;
 2567              		.loc 1 720 0
ARM GAS  C:\Users\JACOB-~1\AppData\Local\Temp\ccGLbPGC.s 			page 70


 2568 0b18 2DB2     		sxth	r5, r5
 2569              	.LVL348:
 2570 0b1a 0593     		str	r3, [sp, #20]
 721:font.c        ****     uint8_t height = font[0];
 2571              		.loc 1 721 0
 2572 0b1c 4FF00309 		mov	r9, #3
 719:font.c        ****     y = y-2;
 2573              		.loc 1 719 0
 2574 0b20 4FF04908 		mov	r8, #73
 2575              	.LVL349:
 2576              	.L92:
 2577              	.LBB383:
 2578              	.LBB384:
 726:font.c        ****         {
 2579              		.loc 1 726 0
 2580 0b24 B9F1000F 		cmp	r9, #0
 2581 0b28 0DD0     		beq	.L94
 2582 0b2a 09EB0806 		add	r6, r9, r8
 2583 0b2e 5E44     		add	r6, r6, fp
 2584 0b30 0BEB080A 		add	r10, fp, r8
 2585              	.LVL350:
 2586              	.L93:
 2587              	.LBB385:
 728:font.c        ****         }
 2588              		.loc 1 728 0
 2589 0b34 1AF8010F 		ldrb	r0, [r10, #1]!	@ zero_extendqisi2
 2590 0b38 2246     		mov	r2, r4
 2591 0b3a 3844     		add	r0, r0, r7
 2592 0b3c 2946     		mov	r1, r5
 2593 0b3e FFF7FEFF 		bl	draw_pixel
 2594              	.LVL351:
 2595              	.LBE385:
 726:font.c        ****         {
 2596              		.loc 1 726 0
 2597 0b42 5645     		cmp	r6, r10
 2598 0b44 F6D1     		bne	.L93
 2599              	.L94:
 2600 0b46 0135     		adds	r5, r5, #1
 2601              	.LVL352:
 2602              	.LBE384:
 724:font.c        ****     {
 2603              		.loc 1 724 0
 2604 0b48 059B     		ldr	r3, [sp, #20]
 731:font.c        ****     }
 2605              		.loc 1 731 0
 2606 0b4a 09F10109 		add	r9, r9, #1
 2607 0b4e 2DB2     		sxth	r5, r5
 2608              	.LVL353:
 2609 0b50 C844     		add	r8, r8, r9
 2610              	.LVL354:
 724:font.c        ****     {
 2611              		.loc 1 724 0
 2612 0b52 AB42     		cmp	r3, r5
 731:font.c        ****     }
 2613              		.loc 1 731 0
 2614 0b54 1FFA88F8 		uxth	r8, r8
 2615              	.LVL355:
ARM GAS  C:\Users\JACOB-~1\AppData\Local\Temp\ccGLbPGC.s 			page 71


 724:font.c        ****     {
 2616              		.loc 1 724 0
 2617 0b58 3FF4A1AA 		beq	.L84
 2618 0b5c 1BF80890 		ldrb	r9, [fp, r8]	@ zero_extendqisi2
 2619 0b60 E0E7     		b	.L92
 2620              	.LVL356:
 2621              	.L27:
 2622              	.LBE383:
 2623              	.LBE382:
 2624              	.LBE381:
 2625              	.LBB386:
 2626              	.LBB387:
 721:font.c        ****     uint8_t height = font[0];
 2627              		.loc 1 721 0
 2628 0b62 B3B2     		uxth	r3, r6
 2629 0b64 1A46     		mov	r2, r3
 2630 0b66 0393     		str	r3, [sp, #12]
 720:font.c        ****     x = x-2;
 2631              		.loc 1 720 0
 2632 0b68 BDF80830 		ldrh	r3, [sp, #8]
 721:font.c        ****     uint8_t height = font[0];
 2633              		.loc 1 721 0
 2634 0b6c 971E     		subs	r7, r2, #2
 720:font.c        ****     x = x-2;
 2635              		.loc 1 720 0
 2636 0b6e 9D1E     		subs	r5, r3, #2
 2637 0b70 0533     		adds	r3, r3, #5
 2638 0b72 1BB2     		sxth	r3, r3
 721:font.c        ****     uint8_t height = font[0];
 2639              		.loc 1 721 0
 2640 0b74 3FB2     		sxth	r7, r7
 720:font.c        ****     x = x-2;
 2641              		.loc 1 720 0
 2642 0b76 2DB2     		sxth	r5, r5
 2643              	.LVL357:
 2644 0b78 0593     		str	r3, [sp, #20]
 721:font.c        ****     uint8_t height = font[0];
 2645              		.loc 1 721 0
 2646 0b7a 4FF00509 		mov	r9, #5
 719:font.c        ****     y = y-2;
 2647              		.loc 1 719 0
 2648 0b7e 4FF01D08 		mov	r8, #29
 2649              	.LVL358:
 2650              	.L86:
 2651              	.LBB388:
 2652              	.LBB389:
 726:font.c        ****         {
 2653              		.loc 1 726 0
 2654 0b82 B9F1000F 		cmp	r9, #0
 2655 0b86 0DD0     		beq	.L88
 2656 0b88 09EB0806 		add	r6, r9, r8
 2657 0b8c 5E44     		add	r6, r6, fp
 2658 0b8e 0BEB080A 		add	r10, fp, r8
 2659              	.LVL359:
 2660              	.L87:
 2661              	.LBB390:
 728:font.c        ****         }
ARM GAS  C:\Users\JACOB-~1\AppData\Local\Temp\ccGLbPGC.s 			page 72


 2662              		.loc 1 728 0
 2663 0b92 1AF8010F 		ldrb	r0, [r10, #1]!	@ zero_extendqisi2
 2664 0b96 2246     		mov	r2, r4
 2665 0b98 3844     		add	r0, r0, r7
 2666 0b9a 2946     		mov	r1, r5
 2667 0b9c FFF7FEFF 		bl	draw_pixel
 2668              	.LVL360:
 2669              	.LBE390:
 726:font.c        ****         {
 2670              		.loc 1 726 0
 2671 0ba0 5645     		cmp	r6, r10
 2672 0ba2 F6D1     		bne	.L87
 2673              	.L88:
 2674 0ba4 0135     		adds	r5, r5, #1
 2675              	.LVL361:
 2676              	.LBE389:
 724:font.c        ****     {
 2677              		.loc 1 724 0
 2678 0ba6 059B     		ldr	r3, [sp, #20]
 731:font.c        ****     }
 2679              		.loc 1 731 0
 2680 0ba8 09F10109 		add	r9, r9, #1
 2681 0bac 2DB2     		sxth	r5, r5
 2682              	.LVL362:
 2683 0bae C844     		add	r8, r8, r9
 2684              	.LVL363:
 724:font.c        ****     {
 2685              		.loc 1 724 0
 2686 0bb0 AB42     		cmp	r3, r5
 731:font.c        ****     }
 2687              		.loc 1 731 0
 2688 0bb2 1FFA88F8 		uxth	r8, r8
 2689              	.LVL364:
 724:font.c        ****     {
 2690              		.loc 1 724 0
 2691 0bb6 3FF472AA 		beq	.L84
 2692 0bba 1BF80890 		ldrb	r9, [fp, r8]	@ zero_extendqisi2
 2693 0bbe E0E7     		b	.L86
 2694              	.LVL365:
 2695              	.L36:
 2696              	.LBE388:
 2697              	.LBE387:
 2698              	.LBE386:
 2699              	.LBB391:
 2700              	.LBB392:
 721:font.c        ****     uint8_t height = font[0];
 2701              		.loc 1 721 0
 2702 0bc0 B3B2     		uxth	r3, r6
 2703 0bc2 1A46     		mov	r2, r3
 2704 0bc4 0393     		str	r3, [sp, #12]
 720:font.c        ****     x = x-2;
 2705              		.loc 1 720 0
 2706 0bc6 BDF80830 		ldrh	r3, [sp, #8]
 721:font.c        ****     uint8_t height = font[0];
 2707              		.loc 1 721 0
 2708 0bca 971E     		subs	r7, r2, #2
 720:font.c        ****     x = x-2;
ARM GAS  C:\Users\JACOB-~1\AppData\Local\Temp\ccGLbPGC.s 			page 73


 2709              		.loc 1 720 0
 2710 0bcc 9D1E     		subs	r5, r3, #2
 2711 0bce 0533     		adds	r3, r3, #5
 2712 0bd0 1BB2     		sxth	r3, r3
 721:font.c        ****     uint8_t height = font[0];
 2713              		.loc 1 721 0
 2714 0bd2 3FB2     		sxth	r7, r7
 720:font.c        ****     x = x-2;
 2715              		.loc 1 720 0
 2716 0bd4 2DB2     		sxth	r5, r5
 2717              	.LVL366:
 2718 0bd6 0593     		str	r3, [sp, #20]
 721:font.c        ****     uint8_t height = font[0];
 2719              		.loc 1 721 0
 2720 0bd8 4FF00209 		mov	r9, #2
 719:font.c        ****     y = y-2;
 2721              		.loc 1 719 0
 2722 0bdc 4FF0EA08 		mov	r8, #234
 2723              	.LVL367:
 2724              	.L113:
 2725              	.LBB393:
 2726              	.LBB394:
 726:font.c        ****         {
 2727              		.loc 1 726 0
 2728 0be0 B9F1000F 		cmp	r9, #0
 2729 0be4 0DD0     		beq	.L115
 2730 0be6 09EB0806 		add	r6, r9, r8
 2731 0bea 5E44     		add	r6, r6, fp
 2732 0bec 0BEB080A 		add	r10, fp, r8
 2733              	.LVL368:
 2734              	.L114:
 2735              	.LBB395:
 728:font.c        ****         }
 2736              		.loc 1 728 0
 2737 0bf0 1AF8010F 		ldrb	r0, [r10, #1]!	@ zero_extendqisi2
 2738 0bf4 2246     		mov	r2, r4
 2739 0bf6 3844     		add	r0, r0, r7
 2740 0bf8 2946     		mov	r1, r5
 2741 0bfa FFF7FEFF 		bl	draw_pixel
 2742              	.LVL369:
 2743              	.LBE395:
 726:font.c        ****         {
 2744              		.loc 1 726 0
 2745 0bfe B245     		cmp	r10, r6
 2746 0c00 F6D1     		bne	.L114
 2747              	.L115:
 2748 0c02 0135     		adds	r5, r5, #1
 2749              	.LVL370:
 2750              	.LBE394:
 724:font.c        ****     {
 2751              		.loc 1 724 0
 2752 0c04 059B     		ldr	r3, [sp, #20]
 731:font.c        ****     }
 2753              		.loc 1 731 0
 2754 0c06 09F10109 		add	r9, r9, #1
 2755 0c0a 2DB2     		sxth	r5, r5
 2756              	.LVL371:
ARM GAS  C:\Users\JACOB-~1\AppData\Local\Temp\ccGLbPGC.s 			page 74


 2757 0c0c C844     		add	r8, r8, r9
 2758              	.LVL372:
 724:font.c        ****     {
 2759              		.loc 1 724 0
 2760 0c0e AB42     		cmp	r3, r5
 731:font.c        ****     }
 2761              		.loc 1 731 0
 2762 0c10 1FFA88F8 		uxth	r8, r8
 2763              	.LVL373:
 724:font.c        ****     {
 2764              		.loc 1 724 0
 2765 0c14 3FF443AA 		beq	.L84
 2766 0c18 1BF80890 		ldrb	r9, [fp, r8]	@ zero_extendqisi2
 2767 0c1c E0E7     		b	.L113
 2768              	.LVL374:
 2769              	.L35:
 2770              	.LBE393:
 2771              	.LBE392:
 2772              	.LBE391:
 2773              	.LBB396:
 2774              	.LBB397:
 721:font.c        ****     uint8_t height = font[0];
 2775              		.loc 1 721 0
 2776 0c1e B3B2     		uxth	r3, r6
 2777 0c20 1A46     		mov	r2, r3
 2778 0c22 0393     		str	r3, [sp, #12]
 720:font.c        ****     x = x-2;
 2779              		.loc 1 720 0
 2780 0c24 BDF80830 		ldrh	r3, [sp, #8]
 721:font.c        ****     uint8_t height = font[0];
 2781              		.loc 1 721 0
 2782 0c28 971E     		subs	r7, r2, #2
 720:font.c        ****     x = x-2;
 2783              		.loc 1 720 0
 2784 0c2a 9D1E     		subs	r5, r3, #2
 2785 0c2c 0533     		adds	r3, r3, #5
 2786 0c2e 1BB2     		sxth	r3, r3
 721:font.c        ****     uint8_t height = font[0];
 2787              		.loc 1 721 0
 2788 0c30 3FB2     		sxth	r7, r7
 720:font.c        ****     x = x-2;
 2789              		.loc 1 720 0
 2790 0c32 2DB2     		sxth	r5, r5
 2791              	.LVL375:
 2792 0c34 0593     		str	r3, [sp, #20]
 721:font.c        ****     uint8_t height = font[0];
 2793              		.loc 1 721 0
 2794 0c36 4FF00209 		mov	r9, #2
 719:font.c        ****     y = y-2;
 2795              		.loc 1 719 0
 2796 0c3a 4FF0D308 		mov	r8, #211
 2797              	.LVL376:
 2798              	.L110:
 2799              	.LBB398:
 2800              	.LBB399:
 726:font.c        ****         {
 2801              		.loc 1 726 0
ARM GAS  C:\Users\JACOB-~1\AppData\Local\Temp\ccGLbPGC.s 			page 75


 2802 0c3e B9F1000F 		cmp	r9, #0
 2803 0c42 0DD0     		beq	.L112
 2804 0c44 09EB0806 		add	r6, r9, r8
 2805 0c48 5E44     		add	r6, r6, fp
 2806 0c4a 0BEB080A 		add	r10, fp, r8
 2807              	.LVL377:
 2808              	.L111:
 2809              	.LBB400:
 728:font.c        ****         }
 2810              		.loc 1 728 0
 2811 0c4e 1AF8010F 		ldrb	r0, [r10, #1]!	@ zero_extendqisi2
 2812 0c52 2246     		mov	r2, r4
 2813 0c54 3844     		add	r0, r0, r7
 2814 0c56 2946     		mov	r1, r5
 2815 0c58 FFF7FEFF 		bl	draw_pixel
 2816              	.LVL378:
 2817              	.LBE400:
 726:font.c        ****         {
 2818              		.loc 1 726 0
 2819 0c5c B245     		cmp	r10, r6
 2820 0c5e F6D1     		bne	.L111
 2821              	.L112:
 2822 0c60 0135     		adds	r5, r5, #1
 2823              	.LVL379:
 2824              	.LBE399:
 724:font.c        ****     {
 2825              		.loc 1 724 0
 2826 0c62 059B     		ldr	r3, [sp, #20]
 731:font.c        ****     }
 2827              		.loc 1 731 0
 2828 0c64 09F10109 		add	r9, r9, #1
 2829 0c68 2DB2     		sxth	r5, r5
 2830              	.LVL380:
 2831 0c6a C844     		add	r8, r8, r9
 2832              	.LVL381:
 724:font.c        ****     {
 2833              		.loc 1 724 0
 2834 0c6c AB42     		cmp	r3, r5
 731:font.c        ****     }
 2835              		.loc 1 731 0
 2836 0c6e 1FFA88F8 		uxth	r8, r8
 2837              	.LVL382:
 724:font.c        ****     {
 2838              		.loc 1 724 0
 2839 0c72 3FF414AA 		beq	.L84
 2840 0c76 1BF80890 		ldrb	r9, [fp, r8]	@ zero_extendqisi2
 2841 0c7a E0E7     		b	.L110
 2842              	.L453:
 2843              		.align	2
 2844              	.L452:
 2845 0c7c 00000000 		.word	.LANCHOR0
 2846              	.LVL383:
 2847              	.L37:
 2848              	.LBE398:
 2849              	.LBE397:
 2850              	.LBE396:
 2851              	.LBB401:
ARM GAS  C:\Users\JACOB-~1\AppData\Local\Temp\ccGLbPGC.s 			page 76


 2852              	.LBB402:
 721:font.c        ****     uint8_t height = font[0];
 2853              		.loc 1 721 0
 2854 0c80 B3B2     		uxth	r3, r6
 2855 0c82 1A46     		mov	r2, r3
 2856 0c84 0393     		str	r3, [sp, #12]
 720:font.c        ****     x = x-2;
 2857              		.loc 1 720 0
 2858 0c86 BDF80830 		ldrh	r3, [sp, #8]
 721:font.c        ****     uint8_t height = font[0];
 2859              		.loc 1 721 0
 2860 0c8a 971E     		subs	r7, r2, #2
 720:font.c        ****     x = x-2;
 2861              		.loc 1 720 0
 2862 0c8c 9D1E     		subs	r5, r3, #2
 2863 0c8e 0533     		adds	r3, r3, #5
 2864 0c90 1BB2     		sxth	r3, r3
 721:font.c        ****     uint8_t height = font[0];
 2865              		.loc 1 721 0
 2866 0c92 3FB2     		sxth	r7, r7
 720:font.c        ****     x = x-2;
 2867              		.loc 1 720 0
 2868 0c94 2DB2     		sxth	r5, r5
 2869              	.LVL384:
 2870 0c96 0593     		str	r3, [sp, #20]
 721:font.c        ****     uint8_t height = font[0];
 2871              		.loc 1 721 0
 2872 0c98 4FF00409 		mov	r9, #4
 719:font.c        ****     y = y-2;
 2873              		.loc 1 719 0
 2874 0c9c 4FF48278 		mov	r8, #260
 2875              	.LVL385:
 2876              	.L116:
 2877              	.LBB403:
 2878              	.LBB404:
 726:font.c        ****         {
 2879              		.loc 1 726 0
 2880 0ca0 B9F1000F 		cmp	r9, #0
 2881 0ca4 0DD0     		beq	.L118
 2882 0ca6 09EB0806 		add	r6, r9, r8
 2883 0caa 5E44     		add	r6, r6, fp
 2884 0cac 0BEB080A 		add	r10, fp, r8
 2885              	.LVL386:
 2886              	.L117:
 2887              	.LBB405:
 728:font.c        ****         }
 2888              		.loc 1 728 0
 2889 0cb0 1AF8010F 		ldrb	r0, [r10, #1]!	@ zero_extendqisi2
 2890 0cb4 2246     		mov	r2, r4
 2891 0cb6 3844     		add	r0, r0, r7
 2892 0cb8 2946     		mov	r1, r5
 2893 0cba FFF7FEFF 		bl	draw_pixel
 2894              	.LVL387:
 2895              	.LBE405:
 726:font.c        ****         {
 2896              		.loc 1 726 0
 2897 0cbe 5645     		cmp	r6, r10
ARM GAS  C:\Users\JACOB-~1\AppData\Local\Temp\ccGLbPGC.s 			page 77


 2898 0cc0 F6D1     		bne	.L117
 2899              	.L118:
 2900 0cc2 0135     		adds	r5, r5, #1
 2901              	.LVL388:
 2902              	.LBE404:
 724:font.c        ****     {
 2903              		.loc 1 724 0
 2904 0cc4 059B     		ldr	r3, [sp, #20]
 731:font.c        ****     }
 2905              		.loc 1 731 0
 2906 0cc6 09F10109 		add	r9, r9, #1
 2907 0cca 2DB2     		sxth	r5, r5
 2908              	.LVL389:
 2909 0ccc C844     		add	r8, r8, r9
 2910              	.LVL390:
 724:font.c        ****     {
 2911              		.loc 1 724 0
 2912 0cce AB42     		cmp	r3, r5
 731:font.c        ****     }
 2913              		.loc 1 731 0
 2914 0cd0 1FFA88F8 		uxth	r8, r8
 2915              	.LVL391:
 724:font.c        ****     {
 2916              		.loc 1 724 0
 2917 0cd4 3FF4E3A9 		beq	.L84
 2918 0cd8 1BF80890 		ldrb	r9, [fp, r8]	@ zero_extendqisi2
 2919 0cdc E0E7     		b	.L116
 2920              	.LVL392:
 2921              	.L32:
 2922              	.LBE403:
 2923              	.LBE402:
 2924              	.LBE401:
 2925              	.LBB406:
 2926              	.LBB407:
 721:font.c        ****     uint8_t height = font[0];
 2927              		.loc 1 721 0
 2928 0cde B3B2     		uxth	r3, r6
 2929 0ce0 1A46     		mov	r2, r3
 2930 0ce2 0393     		str	r3, [sp, #12]
 720:font.c        ****     x = x-2;
 2931              		.loc 1 720 0
 2932 0ce4 BDF80830 		ldrh	r3, [sp, #8]
 721:font.c        ****     uint8_t height = font[0];
 2933              		.loc 1 721 0
 2934 0ce8 971E     		subs	r7, r2, #2
 720:font.c        ****     x = x-2;
 2935              		.loc 1 720 0
 2936 0cea 9D1E     		subs	r5, r3, #2
 2937 0cec 0533     		adds	r3, r3, #5
 2938 0cee 1BB2     		sxth	r3, r3
 721:font.c        ****     uint8_t height = font[0];
 2939              		.loc 1 721 0
 2940 0cf0 3FB2     		sxth	r7, r7
 720:font.c        ****     x = x-2;
 2941              		.loc 1 720 0
 2942 0cf2 2DB2     		sxth	r5, r5
 2943              	.LVL393:
ARM GAS  C:\Users\JACOB-~1\AppData\Local\Temp\ccGLbPGC.s 			page 78


 2944 0cf4 0593     		str	r3, [sp, #20]
 721:font.c        ****     uint8_t height = font[0];
 2945              		.loc 1 721 0
 2946 0cf6 4FF00309 		mov	r9, #3
 719:font.c        ****     y = y-2;
 2947              		.loc 1 719 0
 2948 0cfa 4FF08F08 		mov	r8, #143
 2949              	.LVL394:
 2950              	.L101:
 2951              	.LBB408:
 2952              	.LBB409:
 726:font.c        ****         {
 2953              		.loc 1 726 0
 2954 0cfe B9F1000F 		cmp	r9, #0
 2955 0d02 0DD0     		beq	.L103
 2956 0d04 09EB0806 		add	r6, r9, r8
 2957 0d08 5E44     		add	r6, r6, fp
 2958 0d0a 0BEB080A 		add	r10, fp, r8
 2959              	.LVL395:
 2960              	.L102:
 2961              	.LBB410:
 728:font.c        ****         }
 2962              		.loc 1 728 0
 2963 0d0e 1AF8010F 		ldrb	r0, [r10, #1]!	@ zero_extendqisi2
 2964 0d12 2246     		mov	r2, r4
 2965 0d14 3844     		add	r0, r0, r7
 2966 0d16 2946     		mov	r1, r5
 2967 0d18 FFF7FEFF 		bl	draw_pixel
 2968              	.LVL396:
 2969              	.LBE410:
 726:font.c        ****         {
 2970              		.loc 1 726 0
 2971 0d1c 5645     		cmp	r6, r10
 2972 0d1e F6D1     		bne	.L102
 2973              	.L103:
 2974 0d20 0135     		adds	r5, r5, #1
 2975              	.LVL397:
 2976              	.LBE409:
 724:font.c        ****     {
 2977              		.loc 1 724 0
 2978 0d22 059B     		ldr	r3, [sp, #20]
 731:font.c        ****     }
 2979              		.loc 1 731 0
 2980 0d24 09F10109 		add	r9, r9, #1
 2981 0d28 2DB2     		sxth	r5, r5
 2982              	.LVL398:
 2983 0d2a C844     		add	r8, r8, r9
 2984              	.LVL399:
 724:font.c        ****     {
 2985              		.loc 1 724 0
 2986 0d2c AB42     		cmp	r3, r5
 731:font.c        ****     }
 2987              		.loc 1 731 0
 2988 0d2e 1FFA88F8 		uxth	r8, r8
 2989              	.LVL400:
 724:font.c        ****     {
 2990              		.loc 1 724 0
ARM GAS  C:\Users\JACOB-~1\AppData\Local\Temp\ccGLbPGC.s 			page 79


 2991 0d32 3FF4B4A9 		beq	.L84
 2992 0d36 1BF80890 		ldrb	r9, [fp, r8]	@ zero_extendqisi2
 2993 0d3a E0E7     		b	.L101
 2994              	.LVL401:
 2995              	.L31:
 2996              	.LBE408:
 2997              	.LBE407:
 2998              	.LBE406:
 2999              	.LBB411:
 3000              	.LBB412:
 721:font.c        ****     uint8_t height = font[0];
 3001              		.loc 1 721 0
 3002 0d3c B3B2     		uxth	r3, r6
 3003 0d3e 1A46     		mov	r2, r3
 3004 0d40 0393     		str	r3, [sp, #12]
 720:font.c        ****     x = x-2;
 3005              		.loc 1 720 0
 3006 0d42 BDF80830 		ldrh	r3, [sp, #8]
 721:font.c        ****     uint8_t height = font[0];
 3007              		.loc 1 721 0
 3008 0d46 971E     		subs	r7, r2, #2
 720:font.c        ****     x = x-2;
 3009              		.loc 1 720 0
 3010 0d48 9D1E     		subs	r5, r3, #2
 3011 0d4a 0533     		adds	r3, r3, #5
 3012 0d4c 1BB2     		sxth	r3, r3
 721:font.c        ****     uint8_t height = font[0];
 3013              		.loc 1 721 0
 3014 0d4e 3FB2     		sxth	r7, r7
 720:font.c        ****     x = x-2;
 3015              		.loc 1 720 0
 3016 0d50 2DB2     		sxth	r5, r5
 3017              	.LVL402:
 3018 0d52 0593     		str	r3, [sp, #20]
 721:font.c        ****     uint8_t height = font[0];
 3019              		.loc 1 721 0
 3020 0d54 4FF00309 		mov	r9, #3
 719:font.c        ****     y = y-2;
 3021              		.loc 1 719 0
 3022 0d58 4FF07608 		mov	r8, #118
 3023              	.LVL403:
 3024              	.L98:
 3025              	.LBB413:
 3026              	.LBB414:
 726:font.c        ****         {
 3027              		.loc 1 726 0
 3028 0d5c B9F1000F 		cmp	r9, #0
 3029 0d60 0DD0     		beq	.L100
 3030 0d62 09EB0806 		add	r6, r9, r8
 3031 0d66 5E44     		add	r6, r6, fp
 3032 0d68 0BEB080A 		add	r10, fp, r8
 3033              	.LVL404:
 3034              	.L99:
 3035              	.LBB415:
 728:font.c        ****         }
 3036              		.loc 1 728 0
 3037 0d6c 1AF8010F 		ldrb	r0, [r10, #1]!	@ zero_extendqisi2
ARM GAS  C:\Users\JACOB-~1\AppData\Local\Temp\ccGLbPGC.s 			page 80


 3038 0d70 2246     		mov	r2, r4
 3039 0d72 3844     		add	r0, r0, r7
 3040 0d74 2946     		mov	r1, r5
 3041 0d76 FFF7FEFF 		bl	draw_pixel
 3042              	.LVL405:
 3043              	.LBE415:
 726:font.c        ****         {
 3044              		.loc 1 726 0
 3045 0d7a 5645     		cmp	r6, r10
 3046 0d7c F6D1     		bne	.L99
 3047              	.L100:
 3048 0d7e 0135     		adds	r5, r5, #1
 3049              	.LVL406:
 3050              	.LBE414:
 724:font.c        ****     {
 3051              		.loc 1 724 0
 3052 0d80 059B     		ldr	r3, [sp, #20]
 731:font.c        ****     }
 3053              		.loc 1 731 0
 3054 0d82 09F10109 		add	r9, r9, #1
 3055 0d86 2DB2     		sxth	r5, r5
 3056              	.LVL407:
 3057 0d88 C844     		add	r8, r8, r9
 3058              	.LVL408:
 724:font.c        ****     {
 3059              		.loc 1 724 0
 3060 0d8a AB42     		cmp	r3, r5
 731:font.c        ****     }
 3061              		.loc 1 731 0
 3062 0d8c 1FFA88F8 		uxth	r8, r8
 3063              	.LVL409:
 724:font.c        ****     {
 3064              		.loc 1 724 0
 3065 0d90 3FF485A9 		beq	.L84
 3066 0d94 1BF80890 		ldrb	r9, [fp, r8]	@ zero_extendqisi2
 3067 0d98 E0E7     		b	.L98
 3068              	.LVL410:
 3069              	.L33:
 3070              	.LBE413:
 3071              	.LBE412:
 3072              	.LBE411:
 3073              	.LBB416:
 3074              	.LBB417:
 721:font.c        ****     uint8_t height = font[0];
 3075              		.loc 1 721 0
 3076 0d9a B3B2     		uxth	r3, r6
 3077 0d9c 1A46     		mov	r2, r3
 3078 0d9e 0393     		str	r3, [sp, #12]
 720:font.c        ****     x = x-2;
 3079              		.loc 1 720 0
 3080 0da0 BDF80830 		ldrh	r3, [sp, #8]
 721:font.c        ****     uint8_t height = font[0];
 3081              		.loc 1 721 0
 3082 0da4 971E     		subs	r7, r2, #2
 720:font.c        ****     x = x-2;
 3083              		.loc 1 720 0
 3084 0da6 9D1E     		subs	r5, r3, #2
ARM GAS  C:\Users\JACOB-~1\AppData\Local\Temp\ccGLbPGC.s 			page 81


 3085 0da8 0533     		adds	r3, r3, #5
 3086 0daa 1BB2     		sxth	r3, r3
 721:font.c        ****     uint8_t height = font[0];
 3087              		.loc 1 721 0
 3088 0dac 3FB2     		sxth	r7, r7
 720:font.c        ****     x = x-2;
 3089              		.loc 1 720 0
 3090 0dae 2DB2     		sxth	r5, r5
 3091              	.LVL411:
 3092 0db0 0593     		str	r3, [sp, #20]
 721:font.c        ****     uint8_t height = font[0];
 3093              		.loc 1 721 0
 3094 0db2 4FF00109 		mov	r9, #1
 719:font.c        ****     y = y-2;
 3095              		.loc 1 719 0
 3096 0db6 4FF0A608 		mov	r8, #166
 3097              	.LVL412:
 3098              	.L104:
 3099              	.LBB418:
 3100              	.LBB419:
 726:font.c        ****         {
 3101              		.loc 1 726 0
 3102 0dba B9F1000F 		cmp	r9, #0
 3103 0dbe 0DD0     		beq	.L106
 3104 0dc0 09EB0806 		add	r6, r9, r8
 3105 0dc4 5E44     		add	r6, r6, fp
 3106 0dc6 0BEB080A 		add	r10, fp, r8
 3107              	.LVL413:
 3108              	.L105:
 3109              	.LBB420:
 728:font.c        ****         }
 3110              		.loc 1 728 0
 3111 0dca 1AF8010F 		ldrb	r0, [r10, #1]!	@ zero_extendqisi2
 3112 0dce 2246     		mov	r2, r4
 3113 0dd0 3844     		add	r0, r0, r7
 3114 0dd2 2946     		mov	r1, r5
 3115 0dd4 FFF7FEFF 		bl	draw_pixel
 3116              	.LVL414:
 3117              	.LBE420:
 726:font.c        ****         {
 3118              		.loc 1 726 0
 3119 0dd8 5645     		cmp	r6, r10
 3120 0dda F6D1     		bne	.L105
 3121              	.L106:
 3122 0ddc 0135     		adds	r5, r5, #1
 3123              	.LVL415:
 3124              	.LBE419:
 724:font.c        ****     {
 3125              		.loc 1 724 0
 3126 0dde 059B     		ldr	r3, [sp, #20]
 731:font.c        ****     }
 3127              		.loc 1 731 0
 3128 0de0 09F10109 		add	r9, r9, #1
 3129 0de4 2DB2     		sxth	r5, r5
 3130              	.LVL416:
 3131 0de6 C844     		add	r8, r8, r9
 3132              	.LVL417:
ARM GAS  C:\Users\JACOB-~1\AppData\Local\Temp\ccGLbPGC.s 			page 82


 724:font.c        ****     {
 3133              		.loc 1 724 0
 3134 0de8 AB42     		cmp	r3, r5
 731:font.c        ****     }
 3135              		.loc 1 731 0
 3136 0dea 1FFA88F8 		uxth	r8, r8
 3137              	.LVL418:
 724:font.c        ****     {
 3138              		.loc 1 724 0
 3139 0dee 3FF456A9 		beq	.L84
 3140 0df2 1BF80890 		ldrb	r9, [fp, r8]	@ zero_extendqisi2
 3141 0df6 E0E7     		b	.L104
 3142              	.LVL419:
 3143              	.L52:
 3144              	.LBE418:
 3145              	.LBE417:
 3146              	.LBE416:
 743:font.c        ****         {
 3147              		.loc 1 743 0
 3148 0df8 1A21     		movs	r1, #26
 3149 0dfa 0A46     		mov	r2, r1
 3150 0dfc 0123     		movs	r3, #1
 3151 0dfe 01E0     		b	.L71
 3152              	.LVL420:
 3153              	.L447:
 3154 0e00 1BF80320 		ldrb	r2, [fp, r3]	@ zero_extendqisi2
 3155              	.LVL421:
 3156              	.L71:
 3157              	.LBB421:
 3158              	.LBB422:
 3159              	.LBB423:
 716:font.c        ****     }
 3160              		.loc 1 716 0
 3161 0e04 0132     		adds	r2, r2, #1
 3162 0e06 1344     		add	r3, r3, r2
 3163              	.LVL422:
 714:font.c        ****     {
 3164              		.loc 1 714 0
 3165 0e08 0139     		subs	r1, r1, #1
 716:font.c        ****     }
 3166              		.loc 1 716 0
 3167 0e0a 9BB2     		uxth	r3, r3
 3168              	.LVL423:
 714:font.c        ****     {
 3169              		.loc 1 714 0
 3170 0e0c F8D1     		bne	.L447
 3171              	.LBE423:
 721:font.c        ****     uint8_t height = font[0];
 3172              		.loc 1 721 0
 3173 0e0e B2B2     		uxth	r2, r6
 3174 0e10 1146     		mov	r1, r2
 3175 0e12 0392     		str	r2, [sp, #12]
 720:font.c        ****     x = x-2;
 3176              		.loc 1 720 0
 3177 0e14 BDF80820 		ldrh	r2, [sp, #8]
 719:font.c        ****     y = y-2;
 3178              		.loc 1 719 0
ARM GAS  C:\Users\JACOB-~1\AppData\Local\Temp\ccGLbPGC.s 			page 83


 3179 0e18 0133     		adds	r3, r3, #1
 3180              	.LVL424:
 720:font.c        ****     x = x-2;
 3181              		.loc 1 720 0
 3182 0e1a 951E     		subs	r5, r2, #2
 3183 0e1c 0532     		adds	r2, r2, #5
 721:font.c        ****     uint8_t height = font[0];
 3184              		.loc 1 721 0
 3185 0e1e 8F1E     		subs	r7, r1, #2
 719:font.c        ****     y = y-2;
 3186              		.loc 1 719 0
 3187 0e20 1FFA83F8 		uxth	r8, r3
 3188              	.LVL425:
 3189 0e24 13B2     		sxth	r3, r2
 721:font.c        ****     uint8_t height = font[0];
 3190              		.loc 1 721 0
 3191 0e26 3FB2     		sxth	r7, r7
 720:font.c        ****     x = x-2;
 3192              		.loc 1 720 0
 3193 0e28 2DB2     		sxth	r5, r5
 3194              	.LVL426:
 3195 0e2a 0593     		str	r3, [sp, #20]
 3196              	.LVL427:
 3197              	.L170:
 3198              	.LBB424:
 3199              	.LBB425:
 726:font.c        ****         {
 3200              		.loc 1 726 0
 3201 0e2c 1BF80890 		ldrb	r9, [fp, r8]	@ zero_extendqisi2
 3202 0e30 B9F1000F 		cmp	r9, #0
 3203 0e34 0DD0     		beq	.L172
 3204 0e36 09EB0806 		add	r6, r9, r8
 3205 0e3a 5E44     		add	r6, r6, fp
 3206 0e3c 0BEB080A 		add	r10, fp, r8
 3207              	.LVL428:
 3208              	.L171:
 3209              	.LBB426:
 728:font.c        ****         }
 3210              		.loc 1 728 0
 3211 0e40 1AF8010F 		ldrb	r0, [r10, #1]!	@ zero_extendqisi2
 3212 0e44 2246     		mov	r2, r4
 3213 0e46 3844     		add	r0, r0, r7
 3214 0e48 2946     		mov	r1, r5
 3215 0e4a FFF7FEFF 		bl	draw_pixel
 3216              	.LVL429:
 3217              	.LBE426:
 726:font.c        ****         {
 3218              		.loc 1 726 0
 3219 0e4e 5645     		cmp	r6, r10
 3220 0e50 F6D1     		bne	.L171
 3221              	.L172:
 3222 0e52 0135     		adds	r5, r5, #1
 3223              	.LVL430:
 3224              	.LBE425:
 724:font.c        ****     {
 3225              		.loc 1 724 0
 3226 0e54 059B     		ldr	r3, [sp, #20]
ARM GAS  C:\Users\JACOB-~1\AppData\Local\Temp\ccGLbPGC.s 			page 84


 731:font.c        ****     }
 3227              		.loc 1 731 0
 3228 0e56 09F10109 		add	r9, r9, #1
 3229 0e5a 2DB2     		sxth	r5, r5
 3230              	.LVL431:
 3231 0e5c C844     		add	r8, r8, r9
 3232              	.LVL432:
 724:font.c        ****     {
 3233              		.loc 1 724 0
 3234 0e5e AB42     		cmp	r3, r5
 731:font.c        ****     }
 3235              		.loc 1 731 0
 3236 0e60 1FFA88F8 		uxth	r8, r8
 3237              	.LVL433:
 724:font.c        ****     {
 3238              		.loc 1 724 0
 3239 0e64 E2D1     		bne	.L170
 3240 0e66 FFF71AB9 		b	.L84
 3241              	.LVL434:
 3242              	.L51:
 3243              	.LBE424:
 3244              	.LBE422:
 3245              	.LBE421:
 743:font.c        ****         {
 3246              		.loc 1 743 0
 3247 0e6a 1921     		movs	r1, #25
 3248 0e6c 1A22     		movs	r2, #26
 3249 0e6e 0123     		movs	r3, #1
 3250 0e70 01E0     		b	.L72
 3251              	.LVL435:
 3252              	.L448:
 3253 0e72 1BF80320 		ldrb	r2, [fp, r3]	@ zero_extendqisi2
 3254              	.LVL436:
 3255              	.L72:
 3256              	.LBB427:
 3257              	.LBB428:
 3258              	.LBB429:
 716:font.c        ****     }
 3259              		.loc 1 716 0
 3260 0e76 0132     		adds	r2, r2, #1
 3261 0e78 1344     		add	r3, r3, r2
 3262              	.LVL437:
 714:font.c        ****     {
 3263              		.loc 1 714 0
 3264 0e7a 0139     		subs	r1, r1, #1
 716:font.c        ****     }
 3265              		.loc 1 716 0
 3266 0e7c 9BB2     		uxth	r3, r3
 3267              	.LVL438:
 714:font.c        ****     {
 3268              		.loc 1 714 0
 3269 0e7e F8D1     		bne	.L448
 3270              	.LBE429:
 721:font.c        ****     uint8_t height = font[0];
 3271              		.loc 1 721 0
 3272 0e80 B2B2     		uxth	r2, r6
 3273 0e82 1146     		mov	r1, r2
ARM GAS  C:\Users\JACOB-~1\AppData\Local\Temp\ccGLbPGC.s 			page 85


 3274 0e84 0392     		str	r2, [sp, #12]
 720:font.c        ****     x = x-2;
 3275              		.loc 1 720 0
 3276 0e86 BDF80820 		ldrh	r2, [sp, #8]
 719:font.c        ****     y = y-2;
 3277              		.loc 1 719 0
 3278 0e8a 0133     		adds	r3, r3, #1
 3279              	.LVL439:
 720:font.c        ****     x = x-2;
 3280              		.loc 1 720 0
 3281 0e8c 951E     		subs	r5, r2, #2
 3282 0e8e 0532     		adds	r2, r2, #5
 721:font.c        ****     uint8_t height = font[0];
 3283              		.loc 1 721 0
 3284 0e90 8F1E     		subs	r7, r1, #2
 719:font.c        ****     y = y-2;
 3285              		.loc 1 719 0
 3286 0e92 1FFA83F8 		uxth	r8, r3
 3287              	.LVL440:
 3288 0e96 13B2     		sxth	r3, r2
 721:font.c        ****     uint8_t height = font[0];
 3289              		.loc 1 721 0
 3290 0e98 3FB2     		sxth	r7, r7
 720:font.c        ****     x = x-2;
 3291              		.loc 1 720 0
 3292 0e9a 2DB2     		sxth	r5, r5
 3293              	.LVL441:
 3294 0e9c 0593     		str	r3, [sp, #20]
 3295              	.LVL442:
 3296              	.L166:
 3297              	.LBB430:
 3298              	.LBB431:
 726:font.c        ****         {
 3299              		.loc 1 726 0
 3300 0e9e 1BF80890 		ldrb	r9, [fp, r8]	@ zero_extendqisi2
 3301 0ea2 B9F1000F 		cmp	r9, #0
 3302 0ea6 0DD0     		beq	.L168
 3303 0ea8 09EB0806 		add	r6, r9, r8
 3304 0eac 5E44     		add	r6, r6, fp
 3305 0eae 0BEB080A 		add	r10, fp, r8
 3306              	.LVL443:
 3307              	.L167:
 3308              	.LBB432:
 728:font.c        ****         }
 3309              		.loc 1 728 0
 3310 0eb2 1AF8010F 		ldrb	r0, [r10, #1]!	@ zero_extendqisi2
 3311 0eb6 2246     		mov	r2, r4
 3312 0eb8 3844     		add	r0, r0, r7
 3313 0eba 2946     		mov	r1, r5
 3314 0ebc FFF7FEFF 		bl	draw_pixel
 3315              	.LVL444:
 3316              	.LBE432:
 726:font.c        ****         {
 3317              		.loc 1 726 0
 3318 0ec0 5645     		cmp	r6, r10
 3319 0ec2 F6D1     		bne	.L167
 3320              	.L168:
ARM GAS  C:\Users\JACOB-~1\AppData\Local\Temp\ccGLbPGC.s 			page 86


 3321 0ec4 0135     		adds	r5, r5, #1
 3322              	.LVL445:
 3323              	.LBE431:
 724:font.c        ****     {
 3324              		.loc 1 724 0
 3325 0ec6 059B     		ldr	r3, [sp, #20]
 731:font.c        ****     }
 3326              		.loc 1 731 0
 3327 0ec8 09F10109 		add	r9, r9, #1
 3328 0ecc 2DB2     		sxth	r5, r5
 3329              	.LVL446:
 3330 0ece C844     		add	r8, r8, r9
 3331              	.LVL447:
 724:font.c        ****     {
 3332              		.loc 1 724 0
 3333 0ed0 AB42     		cmp	r3, r5
 731:font.c        ****     }
 3334              		.loc 1 731 0
 3335 0ed2 1FFA88F8 		uxth	r8, r8
 3336              	.LVL448:
 724:font.c        ****     {
 3337              		.loc 1 724 0
 3338 0ed6 E2D1     		bne	.L166
 3339 0ed8 FFF7E1B8 		b	.L84
 3340              	.LVL449:
 3341              	.L53:
 3342              	.LBE430:
 3343              	.LBE428:
 3344              	.LBE427:
 743:font.c        ****         {
 3345              		.loc 1 743 0
 3346 0edc 1B21     		movs	r1, #27
 3347 0ede 1A22     		movs	r2, #26
 3348 0ee0 0123     		movs	r3, #1
 3349 0ee2 01E0     		b	.L70
 3350              	.LVL450:
 3351              	.L449:
 3352 0ee4 1BF80320 		ldrb	r2, [fp, r3]	@ zero_extendqisi2
 3353              	.LVL451:
 3354              	.L70:
 3355              	.LBB433:
 3356              	.LBB434:
 3357              	.LBB435:
 716:font.c        ****     }
 3358              		.loc 1 716 0
 3359 0ee8 0132     		adds	r2, r2, #1
 3360 0eea 1344     		add	r3, r3, r2
 3361              	.LVL452:
 714:font.c        ****     {
 3362              		.loc 1 714 0
 3363 0eec 0139     		subs	r1, r1, #1
 716:font.c        ****     }
 3364              		.loc 1 716 0
 3365 0eee 9BB2     		uxth	r3, r3
 3366              	.LVL453:
 714:font.c        ****     {
 3367              		.loc 1 714 0
ARM GAS  C:\Users\JACOB-~1\AppData\Local\Temp\ccGLbPGC.s 			page 87


 3368 0ef0 F8D1     		bne	.L449
 3369              	.LBE435:
 721:font.c        ****     uint8_t height = font[0];
 3370              		.loc 1 721 0
 3371 0ef2 B2B2     		uxth	r2, r6
 3372 0ef4 1146     		mov	r1, r2
 3373 0ef6 0392     		str	r2, [sp, #12]
 720:font.c        ****     x = x-2;
 3374              		.loc 1 720 0
 3375 0ef8 BDF80820 		ldrh	r2, [sp, #8]
 719:font.c        ****     y = y-2;
 3376              		.loc 1 719 0
 3377 0efc 0133     		adds	r3, r3, #1
 3378              	.LVL454:
 720:font.c        ****     x = x-2;
 3379              		.loc 1 720 0
 3380 0efe 951E     		subs	r5, r2, #2
 3381 0f00 0532     		adds	r2, r2, #5
 721:font.c        ****     uint8_t height = font[0];
 3382              		.loc 1 721 0
 3383 0f02 8F1E     		subs	r7, r1, #2
 719:font.c        ****     y = y-2;
 3384              		.loc 1 719 0
 3385 0f04 1FFA83F8 		uxth	r8, r3
 3386              	.LVL455:
 3387 0f08 13B2     		sxth	r3, r2
 721:font.c        ****     uint8_t height = font[0];
 3388              		.loc 1 721 0
 3389 0f0a 3FB2     		sxth	r7, r7
 720:font.c        ****     x = x-2;
 3390              		.loc 1 720 0
 3391 0f0c 2DB2     		sxth	r5, r5
 3392              	.LVL456:
 3393 0f0e 0593     		str	r3, [sp, #20]
 3394              	.LVL457:
 3395              	.L174:
 3396              	.LBB436:
 3397              	.LBB437:
 726:font.c        ****         {
 3398              		.loc 1 726 0
 3399 0f10 1BF80890 		ldrb	r9, [fp, r8]	@ zero_extendqisi2
 3400 0f14 B9F1000F 		cmp	r9, #0
 3401 0f18 0DD0     		beq	.L176
 3402 0f1a 09EB0806 		add	r6, r9, r8
 3403 0f1e 5E44     		add	r6, r6, fp
 3404 0f20 0BEB080A 		add	r10, fp, r8
 3405              	.LVL458:
 3406              	.L175:
 3407              	.LBB438:
 728:font.c        ****         }
 3408              		.loc 1 728 0
 3409 0f24 1AF8010F 		ldrb	r0, [r10, #1]!	@ zero_extendqisi2
 3410 0f28 2246     		mov	r2, r4
 3411 0f2a 3844     		add	r0, r0, r7
 3412 0f2c 2946     		mov	r1, r5
 3413 0f2e FFF7FEFF 		bl	draw_pixel
 3414              	.LVL459:
ARM GAS  C:\Users\JACOB-~1\AppData\Local\Temp\ccGLbPGC.s 			page 88


 3415              	.LBE438:
 726:font.c        ****         {
 3416              		.loc 1 726 0
 3417 0f32 5645     		cmp	r6, r10
 3418 0f34 F6D1     		bne	.L175
 3419              	.L176:
 3420 0f36 0135     		adds	r5, r5, #1
 3421              	.LVL460:
 3422              	.LBE437:
 724:font.c        ****     {
 3423              		.loc 1 724 0
 3424 0f38 059B     		ldr	r3, [sp, #20]
 731:font.c        ****     }
 3425              		.loc 1 731 0
 3426 0f3a 09F10109 		add	r9, r9, #1
 3427 0f3e 2DB2     		sxth	r5, r5
 3428              	.LVL461:
 3429 0f40 C844     		add	r8, r8, r9
 3430              	.LVL462:
 724:font.c        ****     {
 3431              		.loc 1 724 0
 3432 0f42 AB42     		cmp	r3, r5
 731:font.c        ****     }
 3433              		.loc 1 731 0
 3434 0f44 1FFA88F8 		uxth	r8, r8
 3435              	.LVL463:
 724:font.c        ****     {
 3436              		.loc 1 724 0
 3437 0f48 E2D1     		bne	.L174
 3438 0f4a FFF7A8B8 		b	.L84
 3439              	.LVL464:
 3440              	.L45:
 3441              	.LBE436:
 3442              	.LBE434:
 3443              	.LBE433:
 743:font.c        ****         {
 3444              		.loc 1 743 0
 3445 0f4e 1321     		movs	r1, #19
 3446 0f50 1A22     		movs	r2, #26
 3447 0f52 0123     		movs	r3, #1
 3448 0f54 01E0     		b	.L78
 3449              	.LVL465:
 3450              	.L450:
 3451 0f56 1BF80320 		ldrb	r2, [fp, r3]	@ zero_extendqisi2
 3452              	.LVL466:
 3453              	.L78:
 3454              	.LBB439:
 3455              	.LBB440:
 3456              	.LBB441:
 716:font.c        ****     }
 3457              		.loc 1 716 0
 3458 0f5a 0132     		adds	r2, r2, #1
 3459 0f5c 1344     		add	r3, r3, r2
 3460              	.LVL467:
 714:font.c        ****     {
 3461              		.loc 1 714 0
 3462 0f5e 0139     		subs	r1, r1, #1
ARM GAS  C:\Users\JACOB-~1\AppData\Local\Temp\ccGLbPGC.s 			page 89


 716:font.c        ****     }
 3463              		.loc 1 716 0
 3464 0f60 9BB2     		uxth	r3, r3
 3465              	.LVL468:
 714:font.c        ****     {
 3466              		.loc 1 714 0
 3467 0f62 F8D1     		bne	.L450
 3468              	.LBE441:
 721:font.c        ****     uint8_t height = font[0];
 3469              		.loc 1 721 0
 3470 0f64 B2B2     		uxth	r2, r6
 3471 0f66 1146     		mov	r1, r2
 3472 0f68 0392     		str	r2, [sp, #12]
 720:font.c        ****     x = x-2;
 3473              		.loc 1 720 0
 3474 0f6a BDF80820 		ldrh	r2, [sp, #8]
 719:font.c        ****     y = y-2;
 3475              		.loc 1 719 0
 3476 0f6e 0133     		adds	r3, r3, #1
 3477              	.LVL469:
 720:font.c        ****     x = x-2;
 3478              		.loc 1 720 0
 3479 0f70 951E     		subs	r5, r2, #2
 3480 0f72 0532     		adds	r2, r2, #5
 721:font.c        ****     uint8_t height = font[0];
 3481              		.loc 1 721 0
 3482 0f74 8F1E     		subs	r7, r1, #2
 719:font.c        ****     y = y-2;
 3483              		.loc 1 719 0
 3484 0f76 1FFA83F8 		uxth	r8, r3
 3485              	.LVL470:
 3486 0f7a 13B2     		sxth	r3, r2
 721:font.c        ****     uint8_t height = font[0];
 3487              		.loc 1 721 0
 3488 0f7c 3FB2     		sxth	r7, r7
 720:font.c        ****     x = x-2;
 3489              		.loc 1 720 0
 3490 0f7e 2DB2     		sxth	r5, r5
 3491              	.LVL471:
 3492 0f80 0593     		str	r3, [sp, #20]
 3493              	.LVL472:
 3494              	.L142:
 3495              	.LBB442:
 3496              	.LBB443:
 726:font.c        ****         {
 3497              		.loc 1 726 0
 3498 0f82 1BF80890 		ldrb	r9, [fp, r8]	@ zero_extendqisi2
 3499 0f86 B9F1000F 		cmp	r9, #0
 3500 0f8a 0DD0     		beq	.L144
 3501 0f8c 09EB0806 		add	r6, r9, r8
 3502 0f90 5E44     		add	r6, r6, fp
 3503 0f92 0BEB080A 		add	r10, fp, r8
 3504              	.LVL473:
 3505              	.L143:
 3506              	.LBB444:
 728:font.c        ****         }
 3507              		.loc 1 728 0
ARM GAS  C:\Users\JACOB-~1\AppData\Local\Temp\ccGLbPGC.s 			page 90


 3508 0f96 1AF8010F 		ldrb	r0, [r10, #1]!	@ zero_extendqisi2
 3509 0f9a 2246     		mov	r2, r4
 3510 0f9c 3844     		add	r0, r0, r7
 3511 0f9e 2946     		mov	r1, r5
 3512 0fa0 FFF7FEFF 		bl	draw_pixel
 3513              	.LVL474:
 3514              	.LBE444:
 726:font.c        ****         {
 3515              		.loc 1 726 0
 3516 0fa4 5645     		cmp	r6, r10
 3517 0fa6 F6D1     		bne	.L143
 3518              	.L144:
 3519 0fa8 0135     		adds	r5, r5, #1
 3520              	.LVL475:
 3521              	.LBE443:
 724:font.c        ****     {
 3522              		.loc 1 724 0
 3523 0faa 059B     		ldr	r3, [sp, #20]
 731:font.c        ****     }
 3524              		.loc 1 731 0
 3525 0fac 09F10109 		add	r9, r9, #1
 3526 0fb0 2DB2     		sxth	r5, r5
 3527              	.LVL476:
 3528 0fb2 C844     		add	r8, r8, r9
 3529              	.LVL477:
 724:font.c        ****     {
 3530              		.loc 1 724 0
 3531 0fb4 AB42     		cmp	r3, r5
 731:font.c        ****     }
 3532              		.loc 1 731 0
 3533 0fb6 1FFA88F8 		uxth	r8, r8
 3534              	.LVL478:
 724:font.c        ****     {
 3535              		.loc 1 724 0
 3536 0fba E2D1     		bne	.L142
 3537 0fbc FFF76FB8 		b	.L84
 3538              	.LVL479:
 3539              	.L47:
 3540              	.LBE442:
 3541              	.LBE440:
 3542              	.LBE439:
 743:font.c        ****         {
 3543              		.loc 1 743 0
 3544 0fc0 1521     		movs	r1, #21
 3545 0fc2 1A22     		movs	r2, #26
 3546 0fc4 0123     		movs	r3, #1
 3547 0fc6 01E0     		b	.L76
 3548              	.LVL480:
 3549              	.L451:
 3550 0fc8 1BF80320 		ldrb	r2, [fp, r3]	@ zero_extendqisi2
 3551              	.LVL481:
 3552              	.L76:
 3553              	.LBB445:
 3554              	.LBB446:
 3555              	.LBB447:
 716:font.c        ****     }
 3556              		.loc 1 716 0
ARM GAS  C:\Users\JACOB-~1\AppData\Local\Temp\ccGLbPGC.s 			page 91


 3557 0fcc 0132     		adds	r2, r2, #1
 3558 0fce 1344     		add	r3, r3, r2
 3559              	.LVL482:
 714:font.c        ****     {
 3560              		.loc 1 714 0
 3561 0fd0 0139     		subs	r1, r1, #1
 716:font.c        ****     }
 3562              		.loc 1 716 0
 3563 0fd2 9BB2     		uxth	r3, r3
 3564              	.LVL483:
 714:font.c        ****     {
 3565              		.loc 1 714 0
 3566 0fd4 F8D1     		bne	.L451
 3567              	.LBE447:
 721:font.c        ****     uint8_t height = font[0];
 3568              		.loc 1 721 0
 3569 0fd6 B2B2     		uxth	r2, r6
 3570 0fd8 1146     		mov	r1, r2
 3571 0fda 0392     		str	r2, [sp, #12]
 720:font.c        ****     x = x-2;
 3572              		.loc 1 720 0
 3573 0fdc BDF80820 		ldrh	r2, [sp, #8]
 719:font.c        ****     y = y-2;
 3574              		.loc 1 719 0
 3575 0fe0 0133     		adds	r3, r3, #1
 3576              	.LVL484:
 720:font.c        ****     x = x-2;
 3577              		.loc 1 720 0
 3578 0fe2 951E     		subs	r5, r2, #2
 3579 0fe4 0532     		adds	r2, r2, #5
 721:font.c        ****     uint8_t height = font[0];
 3580              		.loc 1 721 0
 3581 0fe6 8F1E     		subs	r7, r1, #2
 719:font.c        ****     y = y-2;
 3582              		.loc 1 719 0
 3583 0fe8 1FFA83F8 		uxth	r8, r3
 3584              	.LVL485:
 3585 0fec 13B2     		sxth	r3, r2
 721:font.c        ****     uint8_t height = font[0];
 3586              		.loc 1 721 0
 3587 0fee 3FB2     		sxth	r7, r7
 720:font.c        ****     x = x-2;
 3588              		.loc 1 720 0
 3589 0ff0 2DB2     		sxth	r5, r5
 3590              	.LVL486:
 3591 0ff2 0593     		str	r3, [sp, #20]
 3592              	.LVL487:
 3593              	.L150:
 3594              	.LBB448:
 3595              	.LBB449:
 726:font.c        ****         {
 3596              		.loc 1 726 0
 3597 0ff4 1BF80890 		ldrb	r9, [fp, r8]	@ zero_extendqisi2
 3598 0ff8 B9F1000F 		cmp	r9, #0
 3599 0ffc 0DD0     		beq	.L152
 3600 0ffe 09EB0806 		add	r6, r9, r8
 3601 1002 5E44     		add	r6, r6, fp
ARM GAS  C:\Users\JACOB-~1\AppData\Local\Temp\ccGLbPGC.s 			page 92


 3602 1004 0BEB080A 		add	r10, fp, r8
 3603              	.LVL488:
 3604              	.L151:
 3605              	.LBB450:
 728:font.c        ****         }
 3606              		.loc 1 728 0
 3607 1008 1AF8010F 		ldrb	r0, [r10, #1]!	@ zero_extendqisi2
 3608 100c 2246     		mov	r2, r4
 3609 100e 3844     		add	r0, r0, r7
 3610 1010 2946     		mov	r1, r5
 3611 1012 FFF7FEFF 		bl	draw_pixel
 3612              	.LVL489:
 3613              	.LBE450:
 726:font.c        ****         {
 3614              		.loc 1 726 0
 3615 1016 5645     		cmp	r6, r10
 3616 1018 F6D1     		bne	.L151
 3617              	.L152:
 3618 101a 0135     		adds	r5, r5, #1
 3619              	.LVL490:
 3620              	.LBE449:
 724:font.c        ****     {
 3621              		.loc 1 724 0
 3622 101c 059B     		ldr	r3, [sp, #20]
 731:font.c        ****     }
 3623              		.loc 1 731 0
 3624 101e 09F10109 		add	r9, r9, #1
 3625 1022 2DB2     		sxth	r5, r5
 3626              	.LVL491:
 3627 1024 C844     		add	r8, r8, r9
 3628              	.LVL492:
 724:font.c        ****     {
 3629              		.loc 1 724 0
 3630 1026 AB42     		cmp	r3, r5
 731:font.c        ****     }
 3631              		.loc 1 731 0
 3632 1028 1FFA88F8 		uxth	r8, r8
 3633              	.LVL493:
 724:font.c        ****     {
 3634              		.loc 1 724 0
 3635 102c E2D1     		bne	.L150
 3636 102e FFF736B8 		b	.L84
 3637              	.LBE448:
 3638              	.LBE446:
 3639              	.LBE445:
 3640              	.LBE451:
 3641              		.cfi_endproc
 3642              	.LFE65:
 3643              		.size	draw_string, .-draw_string
 3644              		.global	__aeabi_dadd
 3645              		.global	__aeabi_ddiv
 3646              		.global	__aeabi_d2iz
 3647              		.global	__aeabi_i2d
 3648              		.global	__aeabi_dsub
 3649              		.global	__aeabi_dmul
 3650 1032 00BF     		.section	.text.draw_number,"ax",%progbits
 3651              		.align	2
ARM GAS  C:\Users\JACOB-~1\AppData\Local\Temp\ccGLbPGC.s 			page 93


 3652              		.global	draw_number
 3653              		.thumb
 3654              		.thumb_func
 3655              		.type	draw_number, %function
 3656              	draw_number:
 3657              	.LFB66:
 871:font.c        **** 
 872:font.c        **** void draw_number(int16_t x, int16_t y, uint16_t color, double number)
 873:font.c        **** {
 3658              		.loc 1 873 0
 3659              		.cfi_startproc
 3660              		@ args = 8, pretend = 0, frame = 32
 3661              		@ frame_needed = 0, uses_anonymous_args = 0
 3662              	.LVL494:
 3663 0000 2DE9F04F 		push	{r4, r5, r6, r7, r8, r9, r10, fp, lr}
 3664              		.cfi_def_cfa_offset 36
 3665              		.cfi_offset 4, -36
 3666              		.cfi_offset 5, -32
 3667              		.cfi_offset 6, -28
 3668              		.cfi_offset 7, -24
 3669              		.cfi_offset 8, -20
 3670              		.cfi_offset 9, -16
 3671              		.cfi_offset 10, -12
 3672              		.cfi_offset 11, -8
 3673              		.cfi_offset 14, -4
 3674 0004 89B0     		sub	sp, sp, #36
 3675              		.cfi_def_cfa_offset 72
 3676              		.loc 1 873 0
 3677 0006 0746     		mov	r7, r0
 3678 0008 0D46     		mov	r5, r1
 874:font.c        ****     number = number+0.0005;
 3679              		.loc 1 874 0
 3680 000a DDE91201 		ldrd	r0, [sp, #72]
 3681              	.LVL495:
 873:font.c        ****     number = number+0.0005;
 3682              		.loc 1 873 0
 3683 000e 1446     		mov	r4, r2
 3684              		.loc 1 874 0
 3685 0010 B5A3     		adr	r3, .L545
 3686 0012 D3E90023 		ldrd	r2, [r3]
 3687              	.LVL496:
 3688 0016 FFF7FEFF 		bl	__aeabi_dadd
 3689              	.LVL497:
 875:font.c        ****     
 876:font.c        ****     int tens        = (int)(number/10);
 3690              		.loc 1 876 0
 3691 001a 0022     		movs	r2, #0
 3692 001c B84B     		ldr	r3, .L545+24
 874:font.c        ****     
 3693              		.loc 1 874 0
 3694 001e 8246     		mov	r10, r0
 3695 0020 8B46     		mov	fp, r1
 3696              	.LVL498:
 3697              		.loc 1 876 0
 3698 0022 FFF7FEFF 		bl	__aeabi_ddiv
 3699              	.LVL499:
 3700 0026 FFF7FEFF 		bl	__aeabi_d2iz
ARM GAS  C:\Users\JACOB-~1\AppData\Local\Temp\ccGLbPGC.s 			page 94


 3701              	.LVL500:
 877:font.c        ****     int ones        = (int)(number-(tens*10));
 3702              		.loc 1 877 0
 3703 002a 00EB8008 		add	r8, r0, r0, lsl #2
 3704 002e 4FEA4808 		lsl	r8, r8, #1
 876:font.c        ****     int ones        = (int)(number-(tens*10));
 3705              		.loc 1 876 0
 3706 0032 0646     		mov	r6, r0
 3707              	.LVL501:
 3708              		.loc 1 877 0
 3709 0034 4046     		mov	r0, r8
 3710              	.LVL502:
 3711 0036 FFF7FEFF 		bl	__aeabi_i2d
 3712              	.LVL503:
 3713 003a 0246     		mov	r2, r0
 3714 003c 0B46     		mov	r3, r1
 3715 003e 5046     		mov	r0, r10
 3716 0040 5946     		mov	r1, fp
 3717 0042 FFF7FEFF 		bl	__aeabi_dsub
 3718              	.LVL504:
 3719 0046 FFF7FEFF 		bl	__aeabi_d2iz
 3720              	.LVL505:
 3721 004a 0290     		str	r0, [sp, #8]
 3722              	.LVL506:
 878:font.c        ****     int tenths      = (int)((number-((tens*10)+ones))*10);
 3723              		.loc 1 878 0
 3724 004c 4044     		add	r0, r8, r0
 3725              	.LVL507:
 3726 004e FFF7FEFF 		bl	__aeabi_i2d
 3727              	.LVL508:
 3728 0052 8046     		mov	r8, r0
 3729 0054 8946     		mov	r9, r1
 3730 0056 0246     		mov	r2, r0
 3731 0058 0B46     		mov	r3, r1
 3732 005a 5046     		mov	r0, r10
 3733 005c 5946     		mov	r1, fp
 3734 005e FFF7FEFF 		bl	__aeabi_dsub
 3735              	.LVL509:
 3736 0062 0022     		movs	r2, #0
 3737 0064 A64B     		ldr	r3, .L545+24
 3738 0066 FFF7FEFF 		bl	__aeabi_dmul
 3739              	.LVL510:
 3740 006a FFF7FEFF 		bl	__aeabi_d2iz
 3741              	.LVL511:
 3742 006e 0490     		str	r0, [sp, #16]
 3743              	.LVL512:
 879:font.c        ****     int hundredths  = (int)((number-((tens*10)+ones+(tenths*0.1)))*100);
 3744              		.loc 1 879 0
 3745 0070 FFF7FEFF 		bl	__aeabi_i2d
 3746              	.LVL513:
 3747 0074 9EA3     		adr	r3, .L545+8
 3748 0076 D3E90023 		ldrd	r2, [r3]
 3749 007a FFF7FEFF 		bl	__aeabi_dmul
 3750              	.LVL514:
 3751 007e 4246     		mov	r2, r8
 3752 0080 4B46     		mov	r3, r9
 3753 0082 FFF7FEFF 		bl	__aeabi_dadd
ARM GAS  C:\Users\JACOB-~1\AppData\Local\Temp\ccGLbPGC.s 			page 95


 3754              	.LVL515:
 3755 0086 0246     		mov	r2, r0
 3756 0088 0B46     		mov	r3, r1
 3757 008a 8046     		mov	r8, r0
 3758 008c 8946     		mov	r9, r1
 3759 008e 5046     		mov	r0, r10
 3760 0090 5946     		mov	r1, fp
 3761 0092 FFF7FEFF 		bl	__aeabi_dsub
 3762              	.LVL516:
 3763 0096 0022     		movs	r2, #0
 3764 0098 9A4B     		ldr	r3, .L545+28
 3765 009a FFF7FEFF 		bl	__aeabi_dmul
 3766              	.LVL517:
 3767 009e FFF7FEFF 		bl	__aeabi_d2iz
 3768              	.LVL518:
 3769 00a2 0590     		str	r0, [sp, #20]
 3770              	.LVL519:
 880:font.c        ****     int thousandths = (int)((number-((tens*10)+ones+(tenths*0.1)+(hundredths*0.01)))*1000);
 3771              		.loc 1 880 0
 3772 00a4 FFF7FEFF 		bl	__aeabi_i2d
 3773              	.LVL520:
 3774 00a8 93A3     		adr	r3, .L545+16
 3775 00aa D3E90023 		ldrd	r2, [r3]
 3776 00ae FFF7FEFF 		bl	__aeabi_dmul
 3777              	.LVL521:
 3778 00b2 4246     		mov	r2, r8
 3779 00b4 4B46     		mov	r3, r9
 3780 00b6 FFF7FEFF 		bl	__aeabi_dadd
 3781              	.LVL522:
 3782 00ba 0246     		mov	r2, r0
 3783 00bc 0B46     		mov	r3, r1
 3784 00be 5046     		mov	r0, r10
 3785 00c0 5946     		mov	r1, fp
 3786 00c2 FFF7FEFF 		bl	__aeabi_dsub
 3787              	.LVL523:
 3788 00c6 0022     		movs	r2, #0
 3789 00c8 8F4B     		ldr	r3, .L545+32
 3790 00ca FFF7FEFF 		bl	__aeabi_dmul
 3791              	.LVL524:
 3792 00ce FFF7FEFF 		bl	__aeabi_d2iz
 3793              	.LVL525:
 3794 00d2 0690     		str	r0, [sp, #24]
 3795              	.LVL526:
 881:font.c        ****     
 882:font.c        ****     int x_offset;
 883:font.c        ****     
 884:font.c        ****     if(tens != 0)
 3796              		.loc 1 884 0
 3797 00d4 002E     		cmp	r6, #0
 3798 00d6 40F04D81 		bne	.L534
 3799 00da BBB2     		uxth	r3, r7
 885:font.c        ****     {
 886:font.c        ****         draw_character(x,y,color,tens);
 887:font.c        ****         x_offset = 7;
 888:font.c        ****     }
 889:font.c        ****     
 890:font.c        ****     if(tens == 0)
ARM GAS  C:\Users\JACOB-~1\AppData\Local\Temp\ccGLbPGC.s 			page 96


 891:font.c        ****     {
 892:font.c        ****         x_offset = 0;
 893:font.c        ****     }
 894:font.c        ****     
 895:font.c        ****     draw_character(x+x_offset,y,color,ones);
 3800              		.loc 1 895 0
 3801 00dc 1E44     		add	r6, r6, r3
 3802              	.LVL527:
 3803 00de BDF80800 		ldrh	r0, [sp, #8]
 3804              	.LVL528:
 3805 00e2 023D     		subs	r5, r5, #2
 3806 00e4 0193     		str	r3, [sp, #4]
 3807 00e6 B3B2     		uxth	r3, r6
 884:font.c        ****     {
 3808              		.loc 1 884 0
 3809 00e8 2DB2     		sxth	r5, r5
 3810 00ea DFF82092 		ldr	r9, .L545+36
 3811              		.loc 1 895 0
 3812 00ee 0393     		str	r3, [sp, #12]
 3813              	.LVL529:
 3814              	.LBB488:
 3815              	.LBB489:
 3816              	.LBB490:
 714:font.c        ****     {
 3817              		.loc 1 714 0
 3818 00f0 0028     		cmp	r0, #0
 3819 00f2 00F08A81 		beq	.L498
 3820              	.LVL530:
 3821              	.L544:
 3822 00f6 1A22     		movs	r2, #26
 3823 00f8 0021     		movs	r1, #0
 3824 00fa 0123     		movs	r3, #1
 3825 00fc 01E0     		b	.L465
 3826              	.LVL531:
 3827              	.L535:
 3828 00fe 19F80320 		ldrb	r2, [r9, r3]	@ zero_extendqisi2
 3829              	.LVL532:
 3830              	.L465:
 716:font.c        ****     }
 3831              		.loc 1 716 0
 3832 0102 0132     		adds	r2, r2, #1
 714:font.c        ****     {
 3833              		.loc 1 714 0
 3834 0104 0131     		adds	r1, r1, #1
 3835              	.LVL533:
 716:font.c        ****     }
 3836              		.loc 1 716 0
 3837 0106 1344     		add	r3, r3, r2
 3838              	.LVL534:
 714:font.c        ****     {
 3839              		.loc 1 714 0
 3840 0108 8842     		cmp	r0, r1
 716:font.c        ****     }
 3841              		.loc 1 716 0
 3842 010a 9BB2     		uxth	r3, r3
 3843              	.LVL535:
 714:font.c        ****     {
ARM GAS  C:\Users\JACOB-~1\AppData\Local\Temp\ccGLbPGC.s 			page 97


 3844              		.loc 1 714 0
 3845 010c F7D1     		bne	.L535
 3846 010e 03F1010A 		add	r10, r3, #1
 3847 0112 1FFA8AFA 		uxth	r10, r10
 3848 0116 19F80A30 		ldrb	r3, [r9, r10]	@ zero_extendqisi2
 3849              	.LVL536:
 3850 011a 1946     		mov	r1, r3
 3851              	.LVL537:
 3852              	.L463:
 3853              	.LBE490:
 720:font.c        ****     x = x-2;
 3854              		.loc 1 720 0
 3855 011c 2E46     		mov	r6, r5
 3856 011e 0F46     		mov	r7, r1
 3857 0120 ABB2     		uxth	r3, r5
 721:font.c        ****     uint8_t height = font[0];
 3858              		.loc 1 721 0
 3859 0122 039A     		ldr	r2, [sp, #12]
 3860 0124 0293     		str	r3, [sp, #8]
 3861              	.LVL538:
 3862 0126 0733     		adds	r3, r3, #7
 3863 0128 A2F10208 		sub	r8, r2, #2
 3864 012c 1BB2     		sxth	r3, r3
 3865 012e 0093     		str	r3, [sp]
 3866 0130 0FFA88F8 		sxth	r8, r8
 3867              	.LVL539:
 3868 0134 0195     		str	r5, [sp, #4]
 3869              	.LVL540:
 3870              	.L466:
 3871              	.LBB491:
 3872              	.LBB492:
 726:font.c        ****         {
 3873              		.loc 1 726 0
 3874 0136 6FB1     		cbz	r7, .L470
 3875 0138 07EB0A05 		add	r5, r7, r10
 3876 013c 4D44     		add	r5, r5, r9
 3877 013e 09EB0A0B 		add	fp, r9, r10
 3878              	.LVL541:
 3879              	.L467:
 3880              	.LBB493:
 728:font.c        ****         }
 3881              		.loc 1 728 0
 3882 0142 1BF8010F 		ldrb	r0, [fp, #1]!	@ zero_extendqisi2
 3883 0146 2246     		mov	r2, r4
 3884 0148 4044     		add	r0, r0, r8
 3885 014a 3146     		mov	r1, r6
 3886 014c FFF7FEFF 		bl	draw_pixel
 3887              	.LVL542:
 3888              	.LBE493:
 726:font.c        ****         {
 3889              		.loc 1 726 0
 3890 0150 5D45     		cmp	r5, fp
 3891 0152 F6D1     		bne	.L467
 3892              	.L470:
 3893 0154 0136     		adds	r6, r6, #1
 3894              	.LVL543:
 3895              	.LBE492:
ARM GAS  C:\Users\JACOB-~1\AppData\Local\Temp\ccGLbPGC.s 			page 98


 724:font.c        ****     {
 3896              		.loc 1 724 0
 3897 0156 009B     		ldr	r3, [sp]
 731:font.c        ****     }
 3898              		.loc 1 731 0
 3899 0158 0137     		adds	r7, r7, #1
 3900 015a 36B2     		sxth	r6, r6
 3901              	.LVL544:
 3902 015c BA44     		add	r10, r10, r7
 3903              	.LVL545:
 724:font.c        ****     {
 3904              		.loc 1 724 0
 3905 015e B342     		cmp	r3, r6
 731:font.c        ****     }
 3906              		.loc 1 731 0
 3907 0160 1FFA8AFA 		uxth	r10, r10
 3908              	.LVL546:
 724:font.c        ****     {
 3909              		.loc 1 724 0
 3910 0164 02D0     		beq	.L536
 3911 0166 19F80A70 		ldrb	r7, [r9, r10]	@ zero_extendqisi2
 3912 016a E4E7     		b	.L466
 3913              	.L536:
 3914 016c 019D     		ldr	r5, [sp, #4]
 3915 016e 4FF0240A 		mov	r10, #36
 3916              	.LVL547:
 3917 0172 1A22     		movs	r2, #26
 3918 0174 0123     		movs	r3, #1
 3919 0176 01E0     		b	.L469
 3920              	.LVL548:
 3921              	.L537:
 3922 0178 19F80320 		ldrb	r2, [r9, r3]	@ zero_extendqisi2
 3923              	.LVL549:
 3924              	.L469:
 3925              	.LBE491:
 3926              	.LBE489:
 3927              	.LBE488:
 3928              	.LBB496:
 3929              	.LBB497:
 3930              	.LBB498:
 716:font.c        ****     }
 3931              		.loc 1 716 0
 3932 017c 0132     		adds	r2, r2, #1
 3933 017e 1344     		add	r3, r3, r2
 3934              	.LVL550:
 714:font.c        ****     {
 3935              		.loc 1 714 0
 3936 0180 BAF1010A 		subs	r10, r10, #1
 716:font.c        ****     }
 3937              		.loc 1 716 0
 3938 0184 9BB2     		uxth	r3, r3
 3939              	.LVL551:
 714:font.c        ****     {
 3940              		.loc 1 714 0
 3941 0186 F7D1     		bne	.L537
 3942              	.LBE498:
 719:font.c        ****     y = y-2;
ARM GAS  C:\Users\JACOB-~1\AppData\Local\Temp\ccGLbPGC.s 			page 99


 3943              		.loc 1 719 0
 3944 0188 0133     		adds	r3, r3, #1
 3945              	.LVL552:
 3946 018a 9BB2     		uxth	r3, r3
 3947              	.LVL553:
 3948 018c 9B46     		mov	fp, r3
 721:font.c        ****     uint8_t height = font[0];
 3949              		.loc 1 721 0
 3950 018e 039A     		ldr	r2, [sp, #12]
 3951 0190 0795     		str	r5, [sp, #28]
 3952 0192 02F10508 		add	r8, r2, #5
 3953              	.LVL554:
 3954 0196 0FFA88F8 		sxth	r8, r8
 3955              	.LVL555:
 3956 019a CDF80490 		str	r9, [sp, #4]
 3957              	.LVL556:
 3958              	.L472:
 3959              	.LBB499:
 3960              	.LBB500:
 726:font.c        ****         {
 3961              		.loc 1 726 0
 3962 019e 019B     		ldr	r3, [sp, #4]
 3963 01a0 13F80B70 		ldrb	r7, [r3, fp]	@ zero_extendqisi2
 3964 01a4 029B     		ldr	r3, [sp, #8]
 3965 01a6 03EB0A05 		add	r5, r3, r10
 3966 01aa 2DB2     		sxth	r5, r5
 3967              	.LVL557:
 3968 01ac 77B1     		cbz	r7, .L476
 3969 01ae 574B     		ldr	r3, .L545+36
 3970 01b0 07EB0B06 		add	r6, r7, fp
 3971 01b4 1E44     		add	r6, r6, r3
 3972 01b6 03EB0B09 		add	r9, r3, fp
 3973              	.LVL558:
 3974              	.L473:
 3975              	.LBB501:
 728:font.c        ****         }
 3976              		.loc 1 728 0
 3977 01ba 19F8010F 		ldrb	r0, [r9, #1]!	@ zero_extendqisi2
 3978 01be 2246     		mov	r2, r4
 3979 01c0 4044     		add	r0, r0, r8
 3980 01c2 2946     		mov	r1, r5
 3981 01c4 FFF7FEFF 		bl	draw_pixel
 3982              	.LVL559:
 3983              	.LBE501:
 726:font.c        ****         {
 3984              		.loc 1 726 0
 3985 01c8 B145     		cmp	r9, r6
 3986 01ca F6D1     		bne	.L473
 3987              	.L476:
 3988              	.LVL560:
 3989              	.LBE500:
 731:font.c        ****     }
 3990              		.loc 1 731 0
 3991 01cc 0137     		adds	r7, r7, #1
 3992 01ce 0AF1010A 		add	r10, r10, #1
 3993 01d2 BB44     		add	fp, fp, r7
 3994              	.LVL561:
ARM GAS  C:\Users\JACOB-~1\AppData\Local\Temp\ccGLbPGC.s 			page 100


 724:font.c        ****     {
 3995              		.loc 1 724 0
 3996 01d4 BAF1070F 		cmp	r10, #7
 731:font.c        ****     }
 3997              		.loc 1 731 0
 3998 01d8 1FFA8BFB 		uxth	fp, fp
 3999              	.LVL562:
 724:font.c        ****     {
 4000              		.loc 1 724 0
 4001 01dc DFD1     		bne	.L472
 4002              	.LVL563:
 4003 01de BDF81000 		ldrh	r0, [sp, #16]
 4004 01e2 079D     		ldr	r5, [sp, #28]
 4005 01e4 DDF80490 		ldr	r9, [sp, #4]
 4006              	.LBE499:
 4007              	.LBE497:
 4008              	.LBE496:
 4009              	.LBB502:
 4010              	.LBB503:
 4011              	.LBB504:
 714:font.c        ****     {
 4012              		.loc 1 714 0
 4013 01e8 0028     		cmp	r0, #0
 4014 01ea 00F01781 		beq	.L499
 4015 01ee 1A22     		movs	r2, #26
 4016 01f0 0021     		movs	r1, #0
 4017 01f2 0123     		movs	r3, #1
 4018 01f4 01E0     		b	.L475
 4019              	.LVL564:
 4020              	.L538:
 4021 01f6 19F80320 		ldrb	r2, [r9, r3]	@ zero_extendqisi2
 4022              	.LVL565:
 4023              	.L475:
 716:font.c        ****     }
 4024              		.loc 1 716 0
 4025 01fa 0132     		adds	r2, r2, #1
 714:font.c        ****     {
 4026              		.loc 1 714 0
 4027 01fc 0131     		adds	r1, r1, #1
 4028              	.LVL566:
 716:font.c        ****     }
 4029              		.loc 1 716 0
 4030 01fe 1344     		add	r3, r3, r2
 4031              	.LVL567:
 714:font.c        ****     {
 4032              		.loc 1 714 0
 4033 0200 8142     		cmp	r1, r0
 716:font.c        ****     }
 4034              		.loc 1 716 0
 4035 0202 9BB2     		uxth	r3, r3
 4036              	.LVL568:
 714:font.c        ****     {
 4037              		.loc 1 714 0
 4038 0204 F7D1     		bne	.L538
 4039 0206 03F1010A 		add	r10, r3, #1
 4040 020a 1FFA8AFA 		uxth	r10, r10
 4041 020e 19F80A30 		ldrb	r3, [r9, r10]	@ zero_extendqisi2
ARM GAS  C:\Users\JACOB-~1\AppData\Local\Temp\ccGLbPGC.s 			page 101


 4042              	.LVL569:
 4043 0212 1A46     		mov	r2, r3
 4044              	.LVL570:
 4045              	.L474:
 4046              	.LBE504:
 720:font.c        ****     x = x-2;
 4047              		.loc 1 720 0
 4048 0214 2E46     		mov	r6, r5
 4049 0216 1746     		mov	r7, r2
 721:font.c        ****     uint8_t height = font[0];
 4050              		.loc 1 721 0
 4051 0218 039B     		ldr	r3, [sp, #12]
 4052 021a 0195     		str	r5, [sp, #4]
 4053 021c 03F10C08 		add	r8, r3, #12
 4054              	.LVL571:
 4055 0220 0FFA88F8 		sxth	r8, r8
 4056              	.LVL572:
 4057              	.L478:
 4058              	.LBB505:
 4059              	.LBB506:
 726:font.c        ****         {
 4060              		.loc 1 726 0
 4061 0224 6FB1     		cbz	r7, .L483
 4062 0226 07EB0A05 		add	r5, r7, r10
 4063 022a 4D44     		add	r5, r5, r9
 4064 022c 09EB0A0B 		add	fp, r9, r10
 4065              	.LVL573:
 4066              	.L479:
 4067              	.LBB507:
 728:font.c        ****         }
 4068              		.loc 1 728 0
 4069 0230 1BF8010F 		ldrb	r0, [fp, #1]!	@ zero_extendqisi2
 4070 0234 2246     		mov	r2, r4
 4071 0236 4044     		add	r0, r0, r8
 4072 0238 3146     		mov	r1, r6
 4073 023a FFF7FEFF 		bl	draw_pixel
 4074              	.LVL574:
 4075              	.LBE507:
 726:font.c        ****         {
 4076              		.loc 1 726 0
 4077 023e AB45     		cmp	fp, r5
 4078 0240 F6D1     		bne	.L479
 4079              	.L483:
 4080 0242 0136     		adds	r6, r6, #1
 4081              	.LVL575:
 4082              	.LBE506:
 724:font.c        ****     {
 4083              		.loc 1 724 0
 4084 0244 009B     		ldr	r3, [sp]
 731:font.c        ****     }
 4085              		.loc 1 731 0
 4086 0246 0137     		adds	r7, r7, #1
 4087 0248 36B2     		sxth	r6, r6
 4088              	.LVL576:
 4089 024a BA44     		add	r10, r10, r7
 4090              	.LVL577:
 724:font.c        ****     {
ARM GAS  C:\Users\JACOB-~1\AppData\Local\Temp\ccGLbPGC.s 			page 102


 4091              		.loc 1 724 0
 4092 024c B342     		cmp	r3, r6
 731:font.c        ****     }
 4093              		.loc 1 731 0
 4094 024e 1FFA8AFA 		uxth	r10, r10
 4095              	.LVL578:
 724:font.c        ****     {
 4096              		.loc 1 724 0
 4097 0252 02D0     		beq	.L539
 4098 0254 19F80A70 		ldrb	r7, [r9, r10]	@ zero_extendqisi2
 4099 0258 E4E7     		b	.L478
 4100              	.L539:
 4101              	.LVL579:
 4102 025a BDF81400 		ldrh	r0, [sp, #20]
 4103 025e 019D     		ldr	r5, [sp, #4]
 4104              	.LBE505:
 4105              	.LBE503:
 4106              	.LBE502:
 4107              	.LBB510:
 4108              	.LBB511:
 4109              	.LBB512:
 714:font.c        ****     {
 4110              		.loc 1 714 0
 4111 0260 0028     		cmp	r0, #0
 4112 0262 00F0E080 		beq	.L500
 4113 0266 1A22     		movs	r2, #26
 4114 0268 0021     		movs	r1, #0
 4115 026a 0123     		movs	r3, #1
 4116 026c 01E0     		b	.L482
 4117              	.LVL580:
 4118              	.L540:
 4119 026e 19F80320 		ldrb	r2, [r9, r3]	@ zero_extendqisi2
 4120              	.LVL581:
 4121              	.L482:
 716:font.c        ****     }
 4122              		.loc 1 716 0
 4123 0272 0132     		adds	r2, r2, #1
 714:font.c        ****     {
 4124              		.loc 1 714 0
 4125 0274 0131     		adds	r1, r1, #1
 4126              	.LVL582:
 716:font.c        ****     }
 4127              		.loc 1 716 0
 4128 0276 1344     		add	r3, r3, r2
 4129              	.LVL583:
 714:font.c        ****     {
 4130              		.loc 1 714 0
 4131 0278 8142     		cmp	r1, r0
 716:font.c        ****     }
 4132              		.loc 1 716 0
 4133 027a 9BB2     		uxth	r3, r3
 4134              	.LVL584:
 714:font.c        ****     {
 4135              		.loc 1 714 0
 4136 027c F7D1     		bne	.L540
 4137 027e 03F1010A 		add	r10, r3, #1
 4138              	.LVL585:
ARM GAS  C:\Users\JACOB-~1\AppData\Local\Temp\ccGLbPGC.s 			page 103


 4139 0282 1FFA8AFA 		uxth	r10, r10
 4140 0286 19F80A30 		ldrb	r3, [r9, r10]	@ zero_extendqisi2
 4141              	.LVL586:
 4142 028a 1A46     		mov	r2, r3
 4143              	.LVL587:
 4144              	.L481:
 4145              	.LBE512:
 720:font.c        ****     x = x-2;
 4146              		.loc 1 720 0
 4147 028c 2E46     		mov	r6, r5
 4148              	.LVL588:
 4149 028e 1746     		mov	r7, r2
 721:font.c        ****     uint8_t height = font[0];
 4150              		.loc 1 721 0
 4151 0290 039B     		ldr	r3, [sp, #12]
 4152 0292 0195     		str	r5, [sp, #4]
 4153 0294 03F11308 		add	r8, r3, #19
 4154              	.LVL589:
 4155 0298 0FFA88F8 		sxth	r8, r8
 4156              	.LVL590:
 4157              	.L485:
 4158              	.LBB513:
 4159              	.LBB514:
 726:font.c        ****         {
 4160              		.loc 1 726 0
 4161 029c 6FB1     		cbz	r7, .L490
 4162 029e 07EB0A05 		add	r5, r7, r10
 4163 02a2 4D44     		add	r5, r5, r9
 4164 02a4 09EB0A0B 		add	fp, r9, r10
 4165              	.LVL591:
 4166              	.L486:
 4167              	.LBB515:
 728:font.c        ****         }
 4168              		.loc 1 728 0
 4169 02a8 1BF8010F 		ldrb	r0, [fp, #1]!	@ zero_extendqisi2
 4170 02ac 2246     		mov	r2, r4
 4171 02ae 4044     		add	r0, r0, r8
 4172 02b0 3146     		mov	r1, r6
 4173 02b2 FFF7FEFF 		bl	draw_pixel
 4174              	.LVL592:
 4175              	.LBE515:
 726:font.c        ****         {
 4176              		.loc 1 726 0
 4177 02b6 AB45     		cmp	fp, r5
 4178 02b8 F6D1     		bne	.L486
 4179              	.L490:
 4180 02ba 0136     		adds	r6, r6, #1
 4181              	.LVL593:
 4182              	.LBE514:
 724:font.c        ****     {
 4183              		.loc 1 724 0
 4184 02bc 009B     		ldr	r3, [sp]
 731:font.c        ****     }
 4185              		.loc 1 731 0
 4186 02be 0137     		adds	r7, r7, #1
 4187 02c0 36B2     		sxth	r6, r6
 4188              	.LVL594:
ARM GAS  C:\Users\JACOB-~1\AppData\Local\Temp\ccGLbPGC.s 			page 104


 4189 02c2 BA44     		add	r10, r10, r7
 4190              	.LVL595:
 724:font.c        ****     {
 4191              		.loc 1 724 0
 4192 02c4 B342     		cmp	r3, r6
 731:font.c        ****     }
 4193              		.loc 1 731 0
 4194 02c6 1FFA8AFA 		uxth	r10, r10
 4195              	.LVL596:
 724:font.c        ****     {
 4196              		.loc 1 724 0
 4197 02ca 02D0     		beq	.L541
 4198 02cc 19F80A70 		ldrb	r7, [r9, r10]	@ zero_extendqisi2
 4199 02d0 E4E7     		b	.L485
 4200              	.L541:
 4201              	.LVL597:
 4202 02d2 BDF81800 		ldrh	r0, [sp, #24]
 4203 02d6 019D     		ldr	r5, [sp, #4]
 4204              	.LBE513:
 4205              	.LBE511:
 4206              	.LBE510:
 4207              	.LBB518:
 4208              	.LBB519:
 4209              	.LBB520:
 714:font.c        ****     {
 4210              		.loc 1 714 0
 4211 02d8 0028     		cmp	r0, #0
 4212 02da 00F09B80 		beq	.L501
 4213 02de 1A22     		movs	r2, #26
 4214 02e0 0021     		movs	r1, #0
 4215 02e2 0123     		movs	r3, #1
 4216 02e4 16E0     		b	.L489
 4217              	.L546:
 4218 02e6 00BF     		.align	3
 4219              	.L545:
 4220 02e8 FCA9F1D2 		.word	-755914244
 4221 02ec 4D62403F 		.word	1061184077
 4222 02f0 9A999999 		.word	-1717986918
 4223 02f4 9999B93F 		.word	1069128089
 4224 02f8 7B14AE47 		.word	1202590843
 4225 02fc E17A843F 		.word	1065646817
 4226 0300 00002440 		.word	1076101120
 4227 0304 00005940 		.word	1079574528
 4228 0308 00408F40 		.word	1083129856
 4229 030c 00000000 		.word	.LANCHOR0
 4230              	.LVL598:
 4231              	.L542:
 4232 0310 19F80320 		ldrb	r2, [r9, r3]	@ zero_extendqisi2
 4233              	.LVL599:
 4234              	.L489:
 716:font.c        ****     }
 4235              		.loc 1 716 0
 4236 0314 0132     		adds	r2, r2, #1
 714:font.c        ****     {
 4237              		.loc 1 714 0
 4238 0316 0131     		adds	r1, r1, #1
 4239              	.LVL600:
ARM GAS  C:\Users\JACOB-~1\AppData\Local\Temp\ccGLbPGC.s 			page 105


 716:font.c        ****     }
 4240              		.loc 1 716 0
 4241 0318 1344     		add	r3, r3, r2
 4242              	.LVL601:
 714:font.c        ****     {
 4243              		.loc 1 714 0
 4244 031a 8142     		cmp	r1, r0
 716:font.c        ****     }
 4245              		.loc 1 716 0
 4246 031c 9BB2     		uxth	r3, r3
 4247              	.LVL602:
 714:font.c        ****     {
 4248              		.loc 1 714 0
 4249 031e F7D1     		bne	.L542
 4250 0320 5F1C     		adds	r7, r3, #1
 4251 0322 BFB2     		uxth	r7, r7
 4252 0324 19F80780 		ldrb	r8, [r9, r7]	@ zero_extendqisi2
 4253              	.LVL603:
 4254              	.L488:
 4255              	.LBE520:
 721:font.c        ****     uint8_t height = font[0];
 4256              		.loc 1 721 0
 4257 0328 039B     		ldr	r3, [sp, #12]
 4258 032a 03F11A0A 		add	r10, r3, #26
 4259              	.LVL604:
 4260 032e 4346     		mov	r3, r8
 4261 0330 B846     		mov	r8, r7
 4262 0332 1F46     		mov	r7, r3
 4263 0334 0FFA8AFA 		sxth	r10, r10
 4264              	.LVL605:
 4265              	.L492:
 4266              	.LBB521:
 4267              	.LBB522:
 726:font.c        ****         {
 4268              		.loc 1 726 0
 4269 0338 6FB1     		cbz	r7, .L495
 4270 033a 07EB0806 		add	r6, r7, r8
 4271 033e 4E44     		add	r6, r6, r9
 4272 0340 09EB080B 		add	fp, r9, r8
 4273              	.LVL606:
 4274              	.L493:
 4275              	.LBB523:
 728:font.c        ****         }
 4276              		.loc 1 728 0
 4277 0344 1BF8010F 		ldrb	r0, [fp, #1]!	@ zero_extendqisi2
 4278 0348 2246     		mov	r2, r4
 4279 034a 5044     		add	r0, r0, r10
 4280 034c 2946     		mov	r1, r5
 4281 034e FFF7FEFF 		bl	draw_pixel
 4282              	.LVL607:
 4283              	.LBE523:
 726:font.c        ****         {
 4284              		.loc 1 726 0
 4285 0352 5E45     		cmp	r6, fp
 4286 0354 F6D1     		bne	.L493
 4287              	.L495:
 4288 0356 0135     		adds	r5, r5, #1
ARM GAS  C:\Users\JACOB-~1\AppData\Local\Temp\ccGLbPGC.s 			page 106


 4289              	.LVL608:
 4290              	.LBE522:
 724:font.c        ****     {
 4291              		.loc 1 724 0
 4292 0358 009B     		ldr	r3, [sp]
 731:font.c        ****     }
 4293              		.loc 1 731 0
 4294 035a 0137     		adds	r7, r7, #1
 4295 035c 2DB2     		sxth	r5, r5
 4296              	.LVL609:
 4297 035e B844     		add	r8, r8, r7
 4298              	.LVL610:
 724:font.c        ****     {
 4299              		.loc 1 724 0
 4300 0360 AB42     		cmp	r3, r5
 731:font.c        ****     }
 4301              		.loc 1 731 0
 4302 0362 1FFA88F8 		uxth	r8, r8
 4303              	.LVL611:
 724:font.c        ****     {
 4304              		.loc 1 724 0
 4305 0366 02D0     		beq	.L454
 4306 0368 19F80870 		ldrb	r7, [r9, r8]	@ zero_extendqisi2
 4307 036c E4E7     		b	.L492
 4308              	.L454:
 4309              	.LBE521:
 4310              	.LBE519:
 4311              	.LBE518:
 896:font.c        ****     draw_character(x+x_offset+7,y,color,36);
 897:font.c        ****     draw_character(x+x_offset+14,y,color,tenths);
 898:font.c        ****     draw_character(x+x_offset+21,y,color,hundredths);
 899:font.c        ****     draw_character(x+x_offset+28,y,color,thousandths);
 900:font.c        **** }
 4312              		.loc 1 900 0
 4313 036e 09B0     		add	sp, sp, #36
 4314              		.cfi_remember_state
 4315              		.cfi_def_cfa_offset 36
 4316              		@ sp needed
 4317 0370 BDE8F08F 		pop	{r4, r5, r6, r7, r8, r9, r10, fp, pc}
 4318              	.LVL612:
 4319              	.L534:
 4320              		.cfi_restore_state
 4321 0374 B6B2     		uxth	r6, r6
 4322              	.LVL613:
 4323 0376 DFF8C090 		ldr	r9, .L547
 4324              	.LBB526:
 4325              	.LBB527:
 4326              	.LBB528:
 714:font.c        ****     {
 4327              		.loc 1 714 0
 4328 037a 002E     		cmp	r6, #0
 4329 037c 58D0     		beq	.L496
 4330 037e 1A22     		movs	r2, #26
 4331 0380 0021     		movs	r1, #0
 4332 0382 0123     		movs	r3, #1
 4333 0384 01E0     		b	.L458
 4334              	.LVL614:
ARM GAS  C:\Users\JACOB-~1\AppData\Local\Temp\ccGLbPGC.s 			page 107


 4335              	.L543:
 4336 0386 19F80320 		ldrb	r2, [r9, r3]	@ zero_extendqisi2
 4337              	.LVL615:
 4338              	.L458:
 716:font.c        ****     }
 4339              		.loc 1 716 0
 4340 038a 0132     		adds	r2, r2, #1
 714:font.c        ****     {
 4341              		.loc 1 714 0
 4342 038c 0131     		adds	r1, r1, #1
 4343              	.LVL616:
 716:font.c        ****     }
 4344              		.loc 1 716 0
 4345 038e 1344     		add	r3, r3, r2
 4346              	.LVL617:
 714:font.c        ****     {
 4347              		.loc 1 714 0
 4348 0390 B142     		cmp	r1, r6
 716:font.c        ****     }
 4349              		.loc 1 716 0
 4350 0392 9BB2     		uxth	r3, r3
 4351              	.LVL618:
 714:font.c        ****     {
 4352              		.loc 1 714 0
 4353 0394 F7D1     		bne	.L543
 4354 0396 5E1C     		adds	r6, r3, #1
 4355 0398 B6B2     		uxth	r6, r6
 4356 039a 19F80680 		ldrb	r8, [r9, r6]	@ zero_extendqisi2
 4357              	.LVL619:
 4358              	.L456:
 4359              	.LBE528:
 720:font.c        ****     x = x-2;
 4360              		.loc 1 720 0
 4361 039e ABB2     		uxth	r3, r5
 4362 03a0 9D1E     		subs	r5, r3, #2
 4363 03a2 29B2     		sxth	r1, r5
 4364 03a4 0D46     		mov	r5, r1
 721:font.c        ****     uint8_t height = font[0];
 4365              		.loc 1 721 0
 4366 03a6 BAB2     		uxth	r2, r7
 4367 03a8 0533     		adds	r3, r3, #5
 4368 03aa A2F1020B 		sub	fp, r2, #2
 4369 03ae 1BB2     		sxth	r3, r3
 4370 03b0 0192     		str	r2, [sp, #4]
 720:font.c        ****     x = x-2;
 4371              		.loc 1 720 0
 4372 03b2 0391     		str	r1, [sp, #12]
 4373              	.LVL620:
 4374 03b4 0093     		str	r3, [sp]
 721:font.c        ****     uint8_t height = font[0];
 4375              		.loc 1 721 0
 4376 03b6 0FFA8BFB 		sxth	fp, fp
 4377              	.LVL621:
 4378              	.L459:
 4379              	.LBB529:
 4380              	.LBB530:
 726:font.c        ****         {
ARM GAS  C:\Users\JACOB-~1\AppData\Local\Temp\ccGLbPGC.s 			page 108


 4381              		.loc 1 726 0
 4382 03ba B8F1000F 		cmp	r8, #0
 4383 03be 0DD0     		beq	.L462
 4384 03c0 08EB0607 		add	r7, r8, r6
 4385 03c4 4F44     		add	r7, r7, r9
 4386 03c6 09EB060A 		add	r10, r9, r6
 4387              	.LVL622:
 4388              	.L460:
 4389              	.LBB531:
 728:font.c        ****         }
 4390              		.loc 1 728 0
 4391 03ca 1AF8010F 		ldrb	r0, [r10, #1]!	@ zero_extendqisi2
 4392 03ce 2246     		mov	r2, r4
 4393 03d0 5844     		add	r0, r0, fp
 4394 03d2 2946     		mov	r1, r5
 4395 03d4 FFF7FEFF 		bl	draw_pixel
 4396              	.LVL623:
 4397              	.LBE531:
 726:font.c        ****         {
 4398              		.loc 1 726 0
 4399 03d8 BA45     		cmp	r10, r7
 4400 03da F6D1     		bne	.L460
 4401              	.L462:
 4402 03dc 0135     		adds	r5, r5, #1
 4403              	.LVL624:
 4404              	.LBE530:
 724:font.c        ****     {
 4405              		.loc 1 724 0
 4406 03de 009B     		ldr	r3, [sp]
 731:font.c        ****     }
 4407              		.loc 1 731 0
 4408 03e0 08F10108 		add	r8, r8, #1
 4409 03e4 2DB2     		sxth	r5, r5
 4410              	.LVL625:
 4411 03e6 4644     		add	r6, r6, r8
 4412              	.LVL626:
 724:font.c        ****     {
 4413              		.loc 1 724 0
 4414 03e8 AB42     		cmp	r3, r5
 731:font.c        ****     }
 4415              		.loc 1 731 0
 4416 03ea B6B2     		uxth	r6, r6
 4417              	.LVL627:
 724:font.c        ****     {
 4418              		.loc 1 724 0
 4419 03ec 02D0     		beq	.L497
 4420 03ee 19F80680 		ldrb	r8, [r9, r6]	@ zero_extendqisi2
 4421 03f2 E2E7     		b	.L459
 4422              	.L497:
 4423 03f4 019B     		ldr	r3, [sp, #4]
 4424 03f6 0726     		movs	r6, #7
 4425              	.LVL628:
 4426              	.LBE529:
 4427              	.LBE527:
 4428              	.LBE526:
 895:font.c        ****     draw_character(x+x_offset+7,y,color,36);
 4429              		.loc 1 895 0
ARM GAS  C:\Users\JACOB-~1\AppData\Local\Temp\ccGLbPGC.s 			page 109


 4430 03f8 1E44     		add	r6, r6, r3
 4431 03fa BDF80800 		ldrh	r0, [sp, #8]
 4432 03fe B3B2     		uxth	r3, r6
 4433              	.LBB536:
 4434              	.LBB534:
 4435              	.LBB532:
 724:font.c        ****     {
 4436              		.loc 1 724 0
 4437 0400 039D     		ldr	r5, [sp, #12]
 4438              	.LVL629:
 4439              	.LBE532:
 4440              	.LBE534:
 4441              	.LBE536:
 895:font.c        ****     draw_character(x+x_offset+7,y,color,36);
 4442              		.loc 1 895 0
 4443 0402 0393     		str	r3, [sp, #12]
 4444              	.LVL630:
 4445              	.LBB537:
 4446              	.LBB495:
 4447              	.LBB494:
 714:font.c        ****     {
 4448              		.loc 1 714 0
 4449 0404 0028     		cmp	r0, #0
 4450 0406 7FF476AE 		bne	.L544
 4451              	.LVL631:
 4452              	.L498:
 4453 040a 0323     		movs	r3, #3
 4454 040c 1946     		mov	r1, r3
 4455 040e 4FF0020A 		mov	r10, #2
 4456 0412 83E6     		b	.L463
 4457              	.LVL632:
 4458              	.L501:
 4459              	.LBE494:
 4460              	.LBE495:
 4461              	.LBE537:
 4462              	.LBB538:
 4463              	.LBB525:
 4464              	.LBB524:
 4465 0414 4FF00308 		mov	r8, #3
 4466              	.LVL633:
 4467 0418 0227     		movs	r7, #2
 4468 041a 85E7     		b	.L488
 4469              	.LVL634:
 4470              	.L499:
 4471              	.LBE524:
 4472              	.LBE525:
 4473              	.LBE538:
 4474              	.LBB539:
 4475              	.LBB509:
 4476              	.LBB508:
 4477 041c 0323     		movs	r3, #3
 4478 041e 1A46     		mov	r2, r3
 4479 0420 4FF0020A 		mov	r10, #2
 4480 0424 F6E6     		b	.L474
 4481              	.LVL635:
 4482              	.L500:
 4483              	.LBE508:
ARM GAS  C:\Users\JACOB-~1\AppData\Local\Temp\ccGLbPGC.s 			page 110


 4484              	.LBE509:
 4485              	.LBE539:
 4486              	.LBB540:
 4487              	.LBB517:
 4488              	.LBB516:
 4489 0426 0323     		movs	r3, #3
 4490 0428 1A46     		mov	r2, r3
 4491 042a 4FF0020A 		mov	r10, #2
 4492              	.LVL636:
 4493 042e 2DE7     		b	.L481
 4494              	.LVL637:
 4495              	.L496:
 4496              	.LBE516:
 4497              	.LBE517:
 4498              	.LBE540:
 4499              	.LBB541:
 4500              	.LBB535:
 4501              	.LBB533:
 4502 0430 4FF00308 		mov	r8, #3
 4503 0434 0226     		movs	r6, #2
 4504 0436 B2E7     		b	.L456
 4505              	.L548:
 4506              		.align	2
 4507              	.L547:
 4508 0438 00000000 		.word	.LANCHOR0
 4509              	.LBE533:
 4510              	.LBE535:
 4511              	.LBE541:
 4512              		.cfi_endproc
 4513              	.LFE66:
 4514              		.size	draw_number, .-draw_number
 4515              		.section	.text.draw_coordinates,"ax",%progbits
 4516              		.align	2
 4517              		.global	draw_coordinates
 4518              		.thumb
 4519              		.thumb_func
 4520              		.type	draw_coordinates, %function
 4521              	draw_coordinates:
 4522              	.LFB67:
 901:font.c        **** 
 902:font.c        **** void draw_coordinates(double y_max)
 903:font.c        **** {
 4523              		.loc 1 903 0
 4524              		.cfi_startproc
 4525              		@ args = 0, pretend = 0, frame = 16
 4526              		@ frame_needed = 0, uses_anonymous_args = 0
 4527              	.LVL638:
 4528 0000 2DE9F043 		push	{r4, r5, r6, r7, r8, r9, lr}
 4529              		.cfi_def_cfa_offset 28
 4530              		.cfi_offset 4, -28
 4531              		.cfi_offset 5, -24
 4532              		.cfi_offset 6, -20
 4533              		.cfi_offset 7, -16
 4534              		.cfi_offset 8, -12
 4535              		.cfi_offset 9, -8
 4536              		.cfi_offset 14, -4
 904:font.c        ****     int y_max_int = (int) (y_max);
ARM GAS  C:\Users\JACOB-~1\AppData\Local\Temp\ccGLbPGC.s 			page 111


 905:font.c        ****     int y_max_pixel = (int) 240/(1.25);
 906:font.c        ****     double y_label;
 907:font.c        ****     int x_label;
 908:font.c        ****     char string_throwaway_y[10];
 909:font.c        ****     char string_throwaway_x[4]; //= NULL;
 910:font.c        ****     //string_print = malloc(sizeof(**string_print)*3);
 911:font.c        ****     int y_max_step = y_max_pixel/4;
 912:font.c        ****     int x_max_step = 169/4;
 913:font.c        ****     int i;
 914:font.c        ****     int k;
 915:font.c        ****     draw_line(0,0,190,0,WHITE);
 4537              		.loc 1 915 0
 4538 0004 4FF6FF74 		movw	r4, #65535
 903:font.c        ****     int y_max_int = (int) (y_max);
 4539              		.loc 1 903 0
 4540 0008 0646     		mov	r6, r0
 4541 000a 0F46     		mov	r7, r1
 4542              	.LVL639:
 4543 000c 87B0     		sub	sp, sp, #28
 4544              		.cfi_def_cfa_offset 56
 4545              		.loc 1 915 0
 4546 000e 0023     		movs	r3, #0
 4547 0010 1946     		mov	r1, r3
 4548 0012 0094     		str	r4, [sp]
 4549 0014 1846     		mov	r0, r3
 4550              	.LVL640:
 4551 0016 BE22     		movs	r2, #190
 4552 0018 FFF7FEFF 		bl	draw_line
 4553              	.LVL641:
 916:font.c        ****     draw_line(0,0,0,y_max_pixel,WHITE);
 4554              		.loc 1 916 0
 4555 001c 0022     		movs	r2, #0
 4556 001e 1146     		mov	r1, r2
 4557 0020 0094     		str	r4, [sp]
 4558 0022 1046     		mov	r0, r2
 4559 0024 C023     		movs	r3, #192
 4560 0026 FFF7FEFF 		bl	draw_line
 4561              	.LVL642:
 4562 002a 3046     		mov	r0, r6
 4563 002c 0022     		movs	r2, #0
 4564 002e 224B     		ldr	r3, .L553
 4565 0030 3946     		mov	r1, r7
 4566 0032 FFF7FEFF 		bl	__aeabi_ddiv
 4567              	.LVL643:
 4568 0036 0022     		movs	r2, #0
 4569 0038 204B     		ldr	r3, .L553+4
 4570 003a FFF7FEFF 		bl	__aeabi_dmul
 4571              	.LVL644:
 4572 003e 8046     		mov	r8, r0
 4573 0040 8946     		mov	r9, r1
 4574 0042 2A26     		movs	r6, #42
 4575              	.LVL645:
 4576 0044 3025     		movs	r5, #48
 917:font.c        ****     
 918:font.c        ****     for(i=1;i<5;i++)
 4577              		.loc 1 918 0
 4578 0046 0124     		movs	r4, #1
ARM GAS  C:\Users\JACOB-~1\AppData\Local\Temp\ccGLbPGC.s 			page 112


 4579              	.LVL646:
 4580              	.L550:
 919:font.c        ****     {
 920:font.c        ****         y_label =  ((y_max/1.25))/4.0 * i;
 921:font.c        ****         sprintf(string_throwaway_y,"%.1f", y_label);
 4581              		.loc 1 921 0 discriminator 3
 4582 0048 2046     		mov	r0, r4
 4583 004a FFF7FEFF 		bl	__aeabi_i2d
 4584              	.LVL647:
 4585 004e 4246     		mov	r2, r8
 4586 0050 4B46     		mov	r3, r9
 4587 0052 FFF7FEFF 		bl	__aeabi_dmul
 4588              	.LVL648:
 922:font.c        ****         sprintf(string_throwaway_x,"%i", i*2);
 923:font.c        ****         draw_line(0,i*y_max_step,5,i*y_max_step,WHITE);
 4589              		.loc 1 923 0 discriminator 3
 4590 0056 4FF6FF77 		movw	r7, #65535
 921:font.c        ****         sprintf(string_throwaway_x,"%i", i*2);
 4591              		.loc 1 921 0 discriminator 3
 4592 005a 0B46     		mov	r3, r1
 4593 005c 0246     		mov	r2, r0
 4594 005e 1849     		ldr	r1, .L553+8
 4595 0060 03A8     		add	r0, sp, #12
 4596 0062 FFF7FEFF 		bl	sprintf
 4597              	.LVL649:
 922:font.c        ****         sprintf(string_throwaway_x,"%i", i*2);
 4598              		.loc 1 922 0 discriminator 3
 4599 0066 6200     		lsls	r2, r4, #1
 4600 0068 1649     		ldr	r1, .L553+12
 4601 006a 02A8     		add	r0, sp, #8
 4602 006c FFF7FEFF 		bl	sprintf
 4603              	.LVL650:
 4604              		.loc 1 923 0 discriminator 3
 4605 0070 2B46     		mov	r3, r5
 4606 0072 2946     		mov	r1, r5
 4607 0074 0522     		movs	r2, #5
 4608 0076 0097     		str	r7, [sp]
 4609 0078 0020     		movs	r0, #0
 4610 007a FFF7FEFF 		bl	draw_line
 4611              	.LVL651:
 924:font.c        ****         draw_string(12,i*y_max_step,WHITE,string_throwaway_y);
 4612              		.loc 1 924 0 discriminator 3
 4613 007e 29B2     		sxth	r1, r5
 4614 0080 03AB     		add	r3, sp, #12
 4615 0082 3A46     		mov	r2, r7
 4616 0084 0C20     		movs	r0, #12
 4617 0086 FFF7FEFF 		bl	draw_string
 4618              	.LVL652:
 925:font.c        ****         draw_line(i*x_max_step,0,i*x_max_step,3,WHITE);
 4619              		.loc 1 925 0 discriminator 3
 4620 008a 3246     		mov	r2, r6
 4621 008c 0323     		movs	r3, #3
 4622 008e 0021     		movs	r1, #0
 4623 0090 3046     		mov	r0, r6
 4624 0092 0097     		str	r7, [sp]
 4625 0094 FFF7FEFF 		bl	draw_line
 4626              	.LVL653:
ARM GAS  C:\Users\JACOB-~1\AppData\Local\Temp\ccGLbPGC.s 			page 113


 918:font.c        ****     {
 4627              		.loc 1 918 0 discriminator 3
 4628 0098 0134     		adds	r4, r4, #1
 4629              	.LVL654:
 926:font.c        ****         draw_string(i*x_max_step,12,WHITE,string_throwaway_x);
 4630              		.loc 1 926 0 discriminator 3
 4631 009a 30B2     		sxth	r0, r6
 4632 009c 02AB     		add	r3, sp, #8
 4633 009e 3A46     		mov	r2, r7
 4634 00a0 0C21     		movs	r1, #12
 4635 00a2 FFF7FEFF 		bl	draw_string
 4636              	.LVL655:
 918:font.c        ****     {
 4637              		.loc 1 918 0 discriminator 3
 4638 00a6 052C     		cmp	r4, #5
 4639 00a8 05F13005 		add	r5, r5, #48
 4640 00ac 06F12A06 		add	r6, r6, #42
 4641 00b0 CAD1     		bne	.L550
 927:font.c        ****     }
 928:font.c        ****     
 929:font.c        **** }...
 4642              		.loc 1 929 0
 4643 00b2 07B0     		add	sp, sp, #28
 4644              		.cfi_def_cfa_offset 28
 4645              		@ sp needed
 4646 00b4 BDE8F083 		pop	{r4, r5, r6, r7, r8, r9, pc}
 4647              	.LVL656:
 4648              	.L554:
 4649              		.align	2
 4650              	.L553:
 4651 00b8 0000F43F 		.word	1072955392
 4652 00bc 0000D03F 		.word	1070596096
 4653 00c0 00000000 		.word	.LC0
 4654 00c4 08000000 		.word	.LC1
 4655              		.cfi_endproc
 4656              	.LFE67:
 4657              		.size	draw_coordinates, .-draw_coordinates
 4658              		.section	.rodata
 4659              		.align	2
 4660              		.set	.LANCHOR0,. + 0
 4661              		.type	font, %object
 4662              		.size	font, 845
 4663              	font:
 4664 0000 07       		.byte	7
 4665 0001 1A       		.byte	26
 4666 0002 03       		.byte	3
 4667 0003 01       		.byte	1
 4668 0004 02       		.byte	2
 4669 0005 03       		.byte	3
 4670 0006 02       		.byte	2
 4671 0007 00       		.byte	0
 4672 0008 04       		.byte	4
 4673 0009 03       		.byte	3
 4674 000a 00       		.byte	0
 4675 000b 01       		.byte	1
 4676 000c 04       		.byte	4
 4677 000d 03       		.byte	3
ARM GAS  C:\Users\JACOB-~1\AppData\Local\Temp\ccGLbPGC.s 			page 114


 4678 000e 00       		.byte	0
 4679 000f 02       		.byte	2
 4680 0010 04       		.byte	4
 4681 0011 03       		.byte	3
 4682 0012 00       		.byte	0
 4683 0013 03       		.byte	3
 4684 0014 04       		.byte	4
 4685 0015 02       		.byte	2
 4686 0016 00       		.byte	0
 4687 0017 04       		.byte	4
 4688 0018 03       		.byte	3
 4689 0019 01       		.byte	1
 4690 001a 02       		.byte	2
 4691 001b 03       		.byte	3
 4692 001c 13       		.byte	19
 4693 001d 05       		.byte	5
 4694 001e 00       		.byte	0
 4695 001f 01       		.byte	1
 4696 0020 02       		.byte	2
 4697 0021 03       		.byte	3
 4698 0022 04       		.byte	4
 4699 0023 01       		.byte	1
 4700 0024 02       		.byte	2
 4701 0025 01       		.byte	1
 4702 0026 02       		.byte	2
 4703 0027 01       		.byte	1
 4704 0028 02       		.byte	2
 4705 0029 01       		.byte	1
 4706 002a 02       		.byte	2
 4707 002b 02       		.byte	2
 4708 002c 01       		.byte	1
 4709 002d 02       		.byte	2
 4710 002e 01       		.byte	1
 4711 002f 02       		.byte	2
 4712 0030 17       		.byte	23
 4713 0031 05       		.byte	5
 4714 0032 00       		.byte	0
 4715 0033 01       		.byte	1
 4716 0034 02       		.byte	2
 4717 0035 03       		.byte	3
 4718 0036 04       		.byte	4
 4719 0037 02       		.byte	2
 4720 0038 00       		.byte	0
 4721 0039 04       		.byte	4
 4722 003a 01       		.byte	1
 4723 003b 01       		.byte	1
 4724 003c 02       		.byte	2
 4725 003d 02       		.byte	2
 4726 003e 03       		.byte	3
 4727 003f 01       		.byte	1
 4728 0040 04       		.byte	4
 4729 0041 02       		.byte	2
 4730 0042 00       		.byte	0
 4731 0043 04       		.byte	4
 4732 0044 03       		.byte	3
 4733 0045 01       		.byte	1
 4734 0046 02       		.byte	2
ARM GAS  C:\Users\JACOB-~1\AppData\Local\Temp\ccGLbPGC.s 			page 115


 4735 0047 03       		.byte	3
 4736 0048 15       		.byte	21
 4737 0049 03       		.byte	3
 4738 004a 01       		.byte	1
 4739 004b 02       		.byte	2
 4740 004c 03       		.byte	3
 4741 004d 02       		.byte	2
 4742 004e 00       		.byte	0
 4743 004f 04       		.byte	4
 4744 0050 01       		.byte	1
 4745 0051 04       		.byte	4
 4746 0052 02       		.byte	2
 4747 0053 02       		.byte	2
 4748 0054 03       		.byte	3
 4749 0055 01       		.byte	1
 4750 0056 04       		.byte	4
 4751 0057 02       		.byte	2
 4752 0058 00       		.byte	0
 4753 0059 04       		.byte	4
 4754 005a 03       		.byte	3
 4755 005b 01       		.byte	1
 4756 005c 02       		.byte	2
 4757 005d 03       		.byte	3
 4758 005e 16       		.byte	22
 4759 005f 01       		.byte	1
 4760 0060 04       		.byte	4
 4761 0061 01       		.byte	1
 4762 0062 04       		.byte	4
 4763 0063 05       		.byte	5
 4764 0064 00       		.byte	0
 4765 0065 01       		.byte	1
 4766 0066 02       		.byte	2
 4767 0067 03       		.byte	3
 4768 0068 04       		.byte	4
 4769 0069 02       		.byte	2
 4770 006a 00       		.byte	0
 4771 006b 04       		.byte	4
 4772 006c 02       		.byte	2
 4773 006d 01       		.byte	1
 4774 006e 04       		.byte	4
 4775 006f 02       		.byte	2
 4776 0070 02       		.byte	2
 4777 0071 04       		.byte	4
 4778 0072 02       		.byte	2
 4779 0073 03       		.byte	3
 4780 0074 04       		.byte	4
 4781 0075 18       		.byte	24
 4782 0076 03       		.byte	3
 4783 0077 01       		.byte	1
 4784 0078 02       		.byte	2
 4785 0079 03       		.byte	3
 4786 007a 02       		.byte	2
 4787 007b 00       		.byte	0
 4788 007c 04       		.byte	4
 4789 007d 01       		.byte	1
 4790 007e 04       		.byte	4
 4791 007f 01       		.byte	1
ARM GAS  C:\Users\JACOB-~1\AppData\Local\Temp\ccGLbPGC.s 			page 116


 4792 0080 04       		.byte	4
 4793 0081 04       		.byte	4
 4794 0082 00       		.byte	0
 4795 0083 01       		.byte	1
 4796 0084 02       		.byte	2
 4797 0085 03       		.byte	3
 4798 0086 01       		.byte	1
 4799 0087 00       		.byte	0
 4800 0088 05       		.byte	5
 4801 0089 00       		.byte	0
 4802 008a 01       		.byte	1
 4803 008b 02       		.byte	2
 4804 008c 03       		.byte	3
 4805 008d 04       		.byte	4
 4806 008e 16       		.byte	22
 4807 008f 03       		.byte	3
 4808 0090 01       		.byte	1
 4809 0091 02       		.byte	2
 4810 0092 03       		.byte	3
 4811 0093 02       		.byte	2
 4812 0094 00       		.byte	0
 4813 0095 04       		.byte	4
 4814 0096 02       		.byte	2
 4815 0097 00       		.byte	0
 4816 0098 04       		.byte	4
 4817 0099 04       		.byte	4
 4818 009a 00       		.byte	0
 4819 009b 01       		.byte	1
 4820 009c 02       		.byte	2
 4821 009d 03       		.byte	3
 4822 009e 01       		.byte	1
 4823 009f 00       		.byte	0
 4824 00a0 01       		.byte	1
 4825 00a1 01       		.byte	1
 4826 00a2 02       		.byte	2
 4827 00a3 02       		.byte	2
 4828 00a4 03       		.byte	3
 4829 00a5 13       		.byte	19
 4830 00a6 01       		.byte	1
 4831 00a7 02       		.byte	2
 4832 00a8 01       		.byte	1
 4833 00a9 02       		.byte	2
 4834 00aa 01       		.byte	1
 4835 00ab 02       		.byte	2
 4836 00ac 01       		.byte	1
 4837 00ad 03       		.byte	3
 4838 00ae 01       		.byte	1
 4839 00af 04       		.byte	4
 4840 00b0 02       		.byte	2
 4841 00b1 00       		.byte	0
 4842 00b2 04       		.byte	4
 4843 00b3 05       		.byte	5
 4844 00b4 00       		.byte	0
 4845 00b5 01       		.byte	1
 4846 00b6 02       		.byte	2
 4847 00b7 03       		.byte	3
 4848 00b8 04       		.byte	4
ARM GAS  C:\Users\JACOB-~1\AppData\Local\Temp\ccGLbPGC.s 			page 117


 4849 00b9 18       		.byte	24
 4850 00ba 03       		.byte	3
 4851 00bb 01       		.byte	1
 4852 00bc 02       		.byte	2
 4853 00bd 03       		.byte	3
 4854 00be 02       		.byte	2
 4855 00bf 00       		.byte	0
 4856 00c0 04       		.byte	4
 4857 00c1 02       		.byte	2
 4858 00c2 00       		.byte	0
 4859 00c3 04       		.byte	4
 4860 00c4 03       		.byte	3
 4861 00c5 01       		.byte	1
 4862 00c6 02       		.byte	2
 4863 00c7 03       		.byte	3
 4864 00c8 02       		.byte	2
 4865 00c9 00       		.byte	0
 4866 00ca 04       		.byte	4
 4867 00cb 02       		.byte	2
 4868 00cc 00       		.byte	0
 4869 00cd 04       		.byte	4
 4870 00ce 03       		.byte	3
 4871 00cf 01       		.byte	1
 4872 00d0 02       		.byte	2
 4873 00d1 03       		.byte	3
 4874 00d2 16       		.byte	22
 4875 00d3 02       		.byte	2
 4876 00d4 01       		.byte	1
 4877 00d5 02       		.byte	2
 4878 00d6 01       		.byte	1
 4879 00d7 03       		.byte	3
 4880 00d8 01       		.byte	1
 4881 00d9 04       		.byte	4
 4882 00da 04       		.byte	4
 4883 00db 01       		.byte	1
 4884 00dc 02       		.byte	2
 4885 00dd 03       		.byte	3
 4886 00de 04       		.byte	4
 4887 00df 02       		.byte	2
 4888 00e0 00       		.byte	0
 4889 00e1 04       		.byte	4
 4890 00e2 02       		.byte	2
 4891 00e3 00       		.byte	0
 4892 00e4 04       		.byte	4
 4893 00e5 03       		.byte	3
 4894 00e6 01       		.byte	1
 4895 00e7 02       		.byte	2
 4896 00e8 03       		.byte	3
 4897 00e9 19       		.byte	25
 4898 00ea 02       		.byte	2
 4899 00eb 00       		.byte	0
 4900 00ec 04       		.byte	4
 4901 00ed 02       		.byte	2
 4902 00ee 00       		.byte	0
 4903 00ef 04       		.byte	4
 4904 00f0 02       		.byte	2
 4905 00f1 00       		.byte	0
ARM GAS  C:\Users\JACOB-~1\AppData\Local\Temp\ccGLbPGC.s 			page 118


 4906 00f2 04       		.byte	4
 4907 00f3 02       		.byte	2
 4908 00f4 00       		.byte	0
 4909 00f5 04       		.byte	4
 4910 00f6 05       		.byte	5
 4911 00f7 00       		.byte	0
 4912 00f8 01       		.byte	1
 4913 00f9 02       		.byte	2
 4914 00fa 03       		.byte	3
 4915 00fb 04       		.byte	4
 4916 00fc 02       		.byte	2
 4917 00fd 00       		.byte	0
 4918 00fe 04       		.byte	4
 4919 00ff 03       		.byte	3
 4920 0100 01       		.byte	1
 4921 0101 02       		.byte	2
 4922 0102 03       		.byte	3
 4923 0103 1B       		.byte	27
 4924 0104 04       		.byte	4
 4925 0105 00       		.byte	0
 4926 0106 01       		.byte	1
 4927 0107 02       		.byte	2
 4928 0108 03       		.byte	3
 4929 0109 02       		.byte	2
 4930 010a 00       		.byte	0
 4931 010b 04       		.byte	4
 4932 010c 02       		.byte	2
 4933 010d 00       		.byte	0
 4934 010e 04       		.byte	4
 4935 010f 02       		.byte	2
 4936 0110 00       		.byte	0
 4937 0111 04       		.byte	4
 4938 0112 04       		.byte	4
 4939 0113 00       		.byte	0
 4940 0114 01       		.byte	1
 4941 0115 02       		.byte	2
 4942 0116 03       		.byte	3
 4943 0117 02       		.byte	2
 4944 0118 00       		.byte	0
 4945 0119 04       		.byte	4
 4946 011a 04       		.byte	4
 4947 011b 00       		.byte	0
 4948 011c 01       		.byte	1
 4949 011d 02       		.byte	2
 4950 011e 03       		.byte	3
 4951 011f 14       		.byte	20
 4952 0120 03       		.byte	3
 4953 0121 01       		.byte	1
 4954 0122 02       		.byte	2
 4955 0123 03       		.byte	3
 4956 0124 02       		.byte	2
 4957 0125 00       		.byte	0
 4958 0126 04       		.byte	4
 4959 0127 01       		.byte	1
 4960 0128 00       		.byte	0
 4961 0129 01       		.byte	1
 4962 012a 00       		.byte	0
ARM GAS  C:\Users\JACOB-~1\AppData\Local\Temp\ccGLbPGC.s 			page 119


 4963 012b 01       		.byte	1
 4964 012c 00       		.byte	0
 4965 012d 02       		.byte	2
 4966 012e 00       		.byte	0
 4967 012f 04       		.byte	4
 4968 0130 03       		.byte	3
 4969 0131 01       		.byte	1
 4970 0132 02       		.byte	2
 4971 0133 03       		.byte	3
 4972 0134 19       		.byte	25
 4973 0135 04       		.byte	4
 4974 0136 00       		.byte	0
 4975 0137 01       		.byte	1
 4976 0138 02       		.byte	2
 4977 0139 03       		.byte	3
 4978 013a 02       		.byte	2
 4979 013b 00       		.byte	0
 4980 013c 04       		.byte	4
 4981 013d 02       		.byte	2
 4982 013e 00       		.byte	0
 4983 013f 04       		.byte	4
 4984 0140 02       		.byte	2
 4985 0141 00       		.byte	0
 4986 0142 04       		.byte	4
 4987 0143 02       		.byte	2
 4988 0144 00       		.byte	0
 4989 0145 04       		.byte	4
 4990 0146 02       		.byte	2
 4991 0147 00       		.byte	0
 4992 0148 04       		.byte	4
 4993 0149 04       		.byte	4
 4994 014a 00       		.byte	0
 4995 014b 01       		.byte	1
 4996 014c 02       		.byte	2
 4997 014d 03       		.byte	3
 4998 014e 19       		.byte	25
 4999 014f 05       		.byte	5
 5000 0150 00       		.byte	0
 5001 0151 01       		.byte	1
 5002 0152 02       		.byte	2
 5003 0153 03       		.byte	3
 5004 0154 04       		.byte	4
 5005 0155 01       		.byte	1
 5006 0156 00       		.byte	0
 5007 0157 01       		.byte	1
 5008 0158 00       		.byte	0
 5009 0159 04       		.byte	4
 5010 015a 00       		.byte	0
 5011 015b 01       		.byte	1
 5012 015c 02       		.byte	2
 5013 015d 03       		.byte	3
 5014 015e 01       		.byte	1
 5015 015f 00       		.byte	0
 5016 0160 01       		.byte	1
 5017 0161 00       		.byte	0
 5018 0162 05       		.byte	5
 5019 0163 00       		.byte	0
ARM GAS  C:\Users\JACOB-~1\AppData\Local\Temp\ccGLbPGC.s 			page 120


 5020 0164 01       		.byte	1
 5021 0165 02       		.byte	2
 5022 0166 03       		.byte	3
 5023 0167 04       		.byte	4
 5024 0168 14       		.byte	20
 5025 0169 01       		.byte	1
 5026 016a 00       		.byte	0
 5027 016b 01       		.byte	1
 5028 016c 00       		.byte	0
 5029 016d 01       		.byte	1
 5030 016e 00       		.byte	0
 5031 016f 01       		.byte	1
 5032 0170 00       		.byte	0
 5033 0171 03       		.byte	3
 5034 0172 00       		.byte	0
 5035 0173 01       		.byte	1
 5036 0174 02       		.byte	2
 5037 0175 01       		.byte	1
 5038 0176 00       		.byte	0
 5039 0177 05       		.byte	5
 5040 0178 00       		.byte	0
 5041 0179 01       		.byte	1
 5042 017a 02       		.byte	2
 5043 017b 03       		.byte	3
 5044 017c 04       		.byte	4
 5045 017d 18       		.byte	24
 5046 017e 03       		.byte	3
 5047 017f 01       		.byte	1
 5048 0180 02       		.byte	2
 5049 0181 03       		.byte	3
 5050 0182 02       		.byte	2
 5051 0183 00       		.byte	0
 5052 0184 04       		.byte	4
 5053 0185 02       		.byte	2
 5054 0186 00       		.byte	0
 5055 0187 04       		.byte	4
 5056 0188 02       		.byte	2
 5057 0189 00       		.byte	0
 5058 018a 04       		.byte	4
 5059 018b 03       		.byte	3
 5060 018c 00       		.byte	0
 5061 018d 03       		.byte	3
 5062 018e 04       		.byte	4
 5063 018f 01       		.byte	1
 5064 0190 00       		.byte	0
 5065 0191 04       		.byte	4
 5066 0192 01       		.byte	1
 5067 0193 02       		.byte	2
 5068 0194 03       		.byte	3
 5069 0195 04       		.byte	4
 5070 0196 18       		.byte	24
 5071 0197 02       		.byte	2
 5072 0198 00       		.byte	0
 5073 0199 04       		.byte	4
 5074 019a 02       		.byte	2
 5075 019b 00       		.byte	0
 5076 019c 04       		.byte	4
ARM GAS  C:\Users\JACOB-~1\AppData\Local\Temp\ccGLbPGC.s 			page 121


 5077 019d 02       		.byte	2
 5078 019e 00       		.byte	0
 5079 019f 04       		.byte	4
 5080 01a0 02       		.byte	2
 5081 01a1 00       		.byte	0
 5082 01a2 04       		.byte	4
 5083 01a3 05       		.byte	5
 5084 01a4 00       		.byte	0
 5085 01a5 01       		.byte	1
 5086 01a6 02       		.byte	2
 5087 01a7 03       		.byte	3
 5088 01a8 04       		.byte	4
 5089 01a9 02       		.byte	2
 5090 01aa 00       		.byte	0
 5091 01ab 04       		.byte	4
 5092 01ac 02       		.byte	2
 5093 01ad 00       		.byte	0
 5094 01ae 04       		.byte	4
 5095 01af 12       		.byte	18
 5096 01b0 03       		.byte	3
 5097 01b1 01       		.byte	1
 5098 01b2 02       		.byte	2
 5099 01b3 03       		.byte	3
 5100 01b4 01       		.byte	1
 5101 01b5 02       		.byte	2
 5102 01b6 01       		.byte	1
 5103 01b7 02       		.byte	2
 5104 01b8 01       		.byte	1
 5105 01b9 02       		.byte	2
 5106 01ba 01       		.byte	1
 5107 01bb 02       		.byte	2
 5108 01bc 01       		.byte	1
 5109 01bd 02       		.byte	2
 5110 01be 03       		.byte	3
 5111 01bf 01       		.byte	1
 5112 01c0 02       		.byte	2
 5113 01c1 03       		.byte	3
 5114 01c2 11       		.byte	17
 5115 01c3 03       		.byte	3
 5116 01c4 01       		.byte	1
 5117 01c5 02       		.byte	2
 5118 01c6 03       		.byte	3
 5119 01c7 02       		.byte	2
 5120 01c8 00       		.byte	0
 5121 01c9 04       		.byte	4
 5122 01ca 01       		.byte	1
 5123 01cb 04       		.byte	4
 5124 01cc 01       		.byte	1
 5125 01cd 04       		.byte	4
 5126 01ce 01       		.byte	1
 5127 01cf 04       		.byte	4
 5128 01d0 01       		.byte	1
 5129 01d1 04       		.byte	4
 5130 01d2 01       		.byte	1
 5131 01d3 04       		.byte	4
 5132 01d4 16       		.byte	22
 5133 01d5 02       		.byte	2
ARM GAS  C:\Users\JACOB-~1\AppData\Local\Temp\ccGLbPGC.s 			page 122


 5134 01d6 00       		.byte	0
 5135 01d7 04       		.byte	4
 5136 01d8 02       		.byte	2
 5137 01d9 00       		.byte	0
 5138 01da 04       		.byte	4
 5139 01db 02       		.byte	2
 5140 01dc 00       		.byte	0
 5141 01dd 04       		.byte	4
 5142 01de 02       		.byte	2
 5143 01df 00       		.byte	0
 5144 01e0 03       		.byte	3
 5145 01e1 03       		.byte	3
 5146 01e2 00       		.byte	0
 5147 01e3 01       		.byte	1
 5148 01e4 02       		.byte	2
 5149 01e5 02       		.byte	2
 5150 01e6 00       		.byte	0
 5151 01e7 03       		.byte	3
 5152 01e8 02       		.byte	2
 5153 01e9 00       		.byte	0
 5154 01ea 04       		.byte	4
 5155 01eb 12       		.byte	18
 5156 01ec 05       		.byte	5
 5157 01ed 00       		.byte	0
 5158 01ee 01       		.byte	1
 5159 01ef 02       		.byte	2
 5160 01f0 03       		.byte	3
 5161 01f1 04       		.byte	4
 5162 01f2 01       		.byte	1
 5163 01f3 00       		.byte	0
 5164 01f4 01       		.byte	1
 5165 01f5 00       		.byte	0
 5166 01f6 01       		.byte	1
 5167 01f7 00       		.byte	0
 5168 01f8 01       		.byte	1
 5169 01f9 00       		.byte	0
 5170 01fa 01       		.byte	1
 5171 01fb 00       		.byte	0
 5172 01fc 01       		.byte	1
 5173 01fd 00       		.byte	0
 5174 01fe 18       		.byte	24
 5175 01ff 02       		.byte	2
 5176 0200 00       		.byte	0
 5177 0201 04       		.byte	4
 5178 0202 02       		.byte	2
 5179 0203 00       		.byte	0
 5180 0204 04       		.byte	4
 5181 0205 02       		.byte	2
 5182 0206 00       		.byte	0
 5183 0207 04       		.byte	4
 5184 0208 02       		.byte	2
 5185 0209 00       		.byte	0
 5186 020a 04       		.byte	4
 5187 020b 03       		.byte	3
 5188 020c 00       		.byte	0
 5189 020d 02       		.byte	2
 5190 020e 04       		.byte	4
ARM GAS  C:\Users\JACOB-~1\AppData\Local\Temp\ccGLbPGC.s 			page 123


 5191 020f 04       		.byte	4
 5192 0210 00       		.byte	0
 5193 0211 01       		.byte	1
 5194 0212 03       		.byte	3
 5195 0213 04       		.byte	4
 5196 0214 02       		.byte	2
 5197 0215 00       		.byte	0
 5198 0216 04       		.byte	4
 5199 0217 18       		.byte	24
 5200 0218 02       		.byte	2
 5201 0219 00       		.byte	0
 5202 021a 04       		.byte	4
 5203 021b 02       		.byte	2
 5204 021c 00       		.byte	0
 5205 021d 04       		.byte	4
 5206 021e 02       		.byte	2
 5207 021f 00       		.byte	0
 5208 0220 04       		.byte	4
 5209 0221 03       		.byte	3
 5210 0222 00       		.byte	0
 5211 0223 03       		.byte	3
 5212 0224 04       		.byte	4
 5213 0225 03       		.byte	3
 5214 0226 00       		.byte	0
 5215 0227 02       		.byte	2
 5216 0228 04       		.byte	4
 5217 0229 03       		.byte	3
 5218 022a 00       		.byte	0
 5219 022b 01       		.byte	1
 5220 022c 04       		.byte	4
 5221 022d 02       		.byte	2
 5222 022e 00       		.byte	0
 5223 022f 04       		.byte	4
 5224 0230 17       		.byte	23
 5225 0231 03       		.byte	3
 5226 0232 01       		.byte	1
 5227 0233 02       		.byte	2
 5228 0234 03       		.byte	3
 5229 0235 02       		.byte	2
 5230 0236 00       		.byte	0
 5231 0237 04       		.byte	4
 5232 0238 02       		.byte	2
 5233 0239 00       		.byte	0
 5234 023a 04       		.byte	4
 5235 023b 02       		.byte	2
 5236 023c 00       		.byte	0
 5237 023d 04       		.byte	4
 5238 023e 02       		.byte	2
 5239 023f 00       		.byte	0
 5240 0240 04       		.byte	4
 5241 0241 02       		.byte	2
 5242 0242 00       		.byte	0
 5243 0243 04       		.byte	4
 5244 0244 03       		.byte	3
 5245 0245 01       		.byte	1
 5246 0246 02       		.byte	2
 5247 0247 03       		.byte	3
ARM GAS  C:\Users\JACOB-~1\AppData\Local\Temp\ccGLbPGC.s 			page 124


 5248 0248 15       		.byte	21
 5249 0249 01       		.byte	1
 5250 024a 00       		.byte	0
 5251 024b 01       		.byte	1
 5252 024c 00       		.byte	0
 5253 024d 01       		.byte	1
 5254 024e 00       		.byte	0
 5255 024f 01       		.byte	1
 5256 0250 00       		.byte	0
 5257 0251 04       		.byte	4
 5258 0252 00       		.byte	0
 5259 0253 01       		.byte	1
 5260 0254 02       		.byte	2
 5261 0255 03       		.byte	3
 5262 0256 02       		.byte	2
 5263 0257 00       		.byte	0
 5264 0258 04       		.byte	4
 5265 0259 04       		.byte	4
 5266 025a 00       		.byte	0
 5267 025b 01       		.byte	1
 5268 025c 02       		.byte	2
 5269 025d 03       		.byte	3
 5270 025e 17       		.byte	23
 5271 025f 03       		.byte	3
 5272 0260 01       		.byte	1
 5273 0261 02       		.byte	2
 5274 0262 04       		.byte	4
 5275 0263 02       		.byte	2
 5276 0264 00       		.byte	0
 5277 0265 03       		.byte	3
 5278 0266 02       		.byte	2
 5279 0267 00       		.byte	0
 5280 0268 04       		.byte	4
 5281 0269 02       		.byte	2
 5282 026a 00       		.byte	0
 5283 026b 04       		.byte	4
 5284 026c 02       		.byte	2
 5285 026d 00       		.byte	0
 5286 026e 04       		.byte	4
 5287 026f 02       		.byte	2
 5288 0270 00       		.byte	0
 5289 0271 04       		.byte	4
 5290 0272 03       		.byte	3
 5291 0273 01       		.byte	1
 5292 0274 02       		.byte	2
 5293 0275 03       		.byte	3
 5294 0276 19       		.byte	25
 5295 0277 02       		.byte	2
 5296 0278 00       		.byte	0
 5297 0279 04       		.byte	4
 5298 027a 02       		.byte	2
 5299 027b 00       		.byte	0
 5300 027c 04       		.byte	4
 5301 027d 02       		.byte	2
 5302 027e 00       		.byte	0
 5303 027f 04       		.byte	4
 5304 0280 02       		.byte	2
ARM GAS  C:\Users\JACOB-~1\AppData\Local\Temp\ccGLbPGC.s 			page 125


 5305 0281 00       		.byte	0
 5306 0282 04       		.byte	4
 5307 0283 04       		.byte	4
 5308 0284 00       		.byte	0
 5309 0285 01       		.byte	1
 5310 0286 02       		.byte	2
 5311 0287 03       		.byte	3
 5312 0288 02       		.byte	2
 5313 0289 00       		.byte	0
 5314 028a 04       		.byte	4
 5315 028b 04       		.byte	4
 5316 028c 00       		.byte	0
 5317 028d 01       		.byte	1
 5318 028e 02       		.byte	2
 5319 028f 03       		.byte	3
 5320 0290 16       		.byte	22
 5321 0291 03       		.byte	3
 5322 0292 01       		.byte	1
 5323 0293 02       		.byte	2
 5324 0294 03       		.byte	3
 5325 0295 02       		.byte	2
 5326 0296 00       		.byte	0
 5327 0297 04       		.byte	4
 5328 0298 01       		.byte	1
 5329 0299 04       		.byte	4
 5330 029a 01       		.byte	1
 5331 029b 04       		.byte	4
 5332 029c 03       		.byte	3
 5333 029d 01       		.byte	1
 5334 029e 02       		.byte	2
 5335 029f 03       		.byte	3
 5336 02a0 01       		.byte	1
 5337 02a1 00       		.byte	0
 5338 02a2 04       		.byte	4
 5339 02a3 01       		.byte	1
 5340 02a4 02       		.byte	2
 5341 02a5 03       		.byte	3
 5342 02a6 04       		.byte	4
 5343 02a7 12       		.byte	18
 5344 02a8 01       		.byte	1
 5345 02a9 02       		.byte	2
 5346 02aa 01       		.byte	1
 5347 02ab 02       		.byte	2
 5348 02ac 01       		.byte	1
 5349 02ad 02       		.byte	2
 5350 02ae 01       		.byte	1
 5351 02af 02       		.byte	2
 5352 02b0 01       		.byte	1
 5353 02b1 02       		.byte	2
 5354 02b2 01       		.byte	1
 5355 02b3 02       		.byte	2
 5356 02b4 05       		.byte	5
 5357 02b5 00       		.byte	0
 5358 02b6 01       		.byte	1
 5359 02b7 02       		.byte	2
 5360 02b8 03       		.byte	3
 5361 02b9 04       		.byte	4
ARM GAS  C:\Users\JACOB-~1\AppData\Local\Temp\ccGLbPGC.s 			page 126


 5362 02ba 16       		.byte	22
 5363 02bb 03       		.byte	3
 5364 02bc 01       		.byte	1
 5365 02bd 02       		.byte	2
 5366 02be 03       		.byte	3
 5367 02bf 02       		.byte	2
 5368 02c0 00       		.byte	0
 5369 02c1 04       		.byte	4
 5370 02c2 02       		.byte	2
 5371 02c3 00       		.byte	0
 5372 02c4 04       		.byte	4
 5373 02c5 02       		.byte	2
 5374 02c6 00       		.byte	0
 5375 02c7 04       		.byte	4
 5376 02c8 02       		.byte	2
 5377 02c9 00       		.byte	0
 5378 02ca 04       		.byte	4
 5379 02cb 02       		.byte	2
 5380 02cc 00       		.byte	0
 5381 02cd 04       		.byte	4
 5382 02ce 02       		.byte	2
 5383 02cf 00       		.byte	0
 5384 02d0 04       		.byte	4
 5385 02d1 14       		.byte	20
 5386 02d2 01       		.byte	1
 5387 02d3 02       		.byte	2
 5388 02d4 02       		.byte	2
 5389 02d5 01       		.byte	1
 5390 02d6 03       		.byte	3
 5391 02d7 02       		.byte	2
 5392 02d8 01       		.byte	1
 5393 02d9 03       		.byte	3
 5394 02da 02       		.byte	2
 5395 02db 00       		.byte	0
 5396 02dc 04       		.byte	4
 5397 02dd 02       		.byte	2
 5398 02de 00       		.byte	0
 5399 02df 04       		.byte	4
 5400 02e0 02       		.byte	2
 5401 02e1 00       		.byte	0
 5402 02e2 04       		.byte	4
 5403 02e3 02       		.byte	2
 5404 02e4 00       		.byte	0
 5405 02e5 04       		.byte	4
 5406 02e6 18       		.byte	24
 5407 02e7 02       		.byte	2
 5408 02e8 00       		.byte	0
 5409 02e9 04       		.byte	4
 5410 02ea 04       		.byte	4
 5411 02eb 00       		.byte	0
 5412 02ec 01       		.byte	1
 5413 02ed 03       		.byte	3
 5414 02ee 04       		.byte	4
 5415 02ef 03       		.byte	3
 5416 02f0 00       		.byte	0
 5417 02f1 02       		.byte	2
 5418 02f2 04       		.byte	4
ARM GAS  C:\Users\JACOB-~1\AppData\Local\Temp\ccGLbPGC.s 			page 127


 5419 02f3 02       		.byte	2
 5420 02f4 00       		.byte	0
 5421 02f5 04       		.byte	4
 5422 02f6 02       		.byte	2
 5423 02f7 00       		.byte	0
 5424 02f8 04       		.byte	4
 5425 02f9 02       		.byte	2
 5426 02fa 00       		.byte	0
 5427 02fb 04       		.byte	4
 5428 02fc 02       		.byte	2
 5429 02fd 00       		.byte	0
 5430 02fe 04       		.byte	4
 5431 02ff 14       		.byte	20
 5432 0300 02       		.byte	2
 5433 0301 00       		.byte	0
 5434 0302 04       		.byte	4
 5435 0303 02       		.byte	2
 5436 0304 00       		.byte	0
 5437 0305 04       		.byte	4
 5438 0306 02       		.byte	2
 5439 0307 00       		.byte	0
 5440 0308 04       		.byte	4
 5441 0309 02       		.byte	2
 5442 030a 01       		.byte	1
 5443 030b 03       		.byte	3
 5444 030c 01       		.byte	1
 5445 030d 02       		.byte	2
 5446 030e 02       		.byte	2
 5447 030f 01       		.byte	1
 5448 0310 03       		.byte	3
 5449 0311 02       		.byte	2
 5450 0312 00       		.byte	0
 5451 0313 04       		.byte	4
 5452 0314 10       		.byte	16
 5453 0315 01       		.byte	1
 5454 0316 02       		.byte	2
 5455 0317 01       		.byte	1
 5456 0318 02       		.byte	2
 5457 0319 01       		.byte	1
 5458 031a 02       		.byte	2
 5459 031b 01       		.byte	1
 5460 031c 02       		.byte	2
 5461 031d 01       		.byte	1
 5462 031e 02       		.byte	2
 5463 031f 02       		.byte	2
 5464 0320 01       		.byte	1
 5465 0321 03       		.byte	3
 5466 0322 02       		.byte	2
 5467 0323 00       		.byte	0
 5468 0324 04       		.byte	4
 5469 0325 16       		.byte	22
 5470 0326 05       		.byte	5
 5471 0327 00       		.byte	0
 5472 0328 01       		.byte	1
 5473 0329 02       		.byte	2
 5474 032a 03       		.byte	3
 5475 032b 04       		.byte	4
ARM GAS  C:\Users\JACOB-~1\AppData\Local\Temp\ccGLbPGC.s 			page 128


 5476 032c 01       		.byte	1
 5477 032d 00       		.byte	0
 5478 032e 01       		.byte	1
 5479 032f 01       		.byte	1
 5480 0330 01       		.byte	1
 5481 0331 02       		.byte	2
 5482 0332 01       		.byte	1
 5483 0333 03       		.byte	3
 5484 0334 01       		.byte	1
 5485 0335 04       		.byte	4
 5486 0336 05       		.byte	5
 5487 0337 00       		.byte	0
 5488 0338 01       		.byte	1
 5489 0339 02       		.byte	2
 5490 033a 03       		.byte	3
 5491 033b 04       		.byte	4
 5492 033c 08       		.byte	8
 5493 033d 01       		.byte	1
 5494 033e 02       		.byte	2
 5495 033f 00       		.byte	0
 5496 0340 00       		.byte	0
 5497 0341 00       		.byte	0
 5498 0342 00       		.byte	0
 5499 0343 00       		.byte	0
 5500 0344 00       		.byte	0
 5501 0345 07       		.byte	7
 5502 0346 00       		.byte	0
 5503 0347 00       		.byte	0
 5504 0348 00       		.byte	0
 5505 0349 00       		.byte	0
 5506 034a 00       		.byte	0
 5507 034b 00       		.byte	0
 5508 034c 00       		.byte	0
 5509              		.section	.rodata.str1.4,"aMS",%progbits,1
 5510              		.align	2
 5511              	.LC0:
 5512 0000 252E3166 		.ascii	"%.1f\000"
 5512      00
 5513 0005 000000   		.space	3
 5514              	.LC1:
 5515 0008 256900   		.ascii	"%i\000"
 5516              		.text
 5517              	.Letext0:
 5518              		.file 2 "c:\\program files (x86)\\cypress\\psoc creator\\4.2\\psoc creator\\import\\gnu\\arm\\5.4.
 5519              		.file 3 "c:\\program files (x86)\\cypress\\psoc creator\\4.2\\psoc creator\\import\\gnu\\arm\\5.4.
 5520              		.file 4 "font.h"
 5521              		.file 5 "c:\\program files (x86)\\cypress\\psoc creator\\4.2\\psoc creator\\import\\gnu\\arm\\5.4.
 5522              		.file 6 "Generated_Source\\PSoC5/core_cm3.h"
 5523              		.section	.debug_info,"",%progbits
 5524              	.Ldebug_info0:
 5525 0000 D8250000 		.4byte	0x25d8
 5526 0004 0400     		.2byte	0x4
 5527 0006 00000000 		.4byte	.Ldebug_abbrev0
 5528 000a 04       		.byte	0x4
 5529 000b 01       		.uleb128 0x1
 5530 000c 3E010000 		.4byte	.LASF81
 5531 0010 0C       		.byte	0xc
ARM GAS  C:\Users\JACOB-~1\AppData\Local\Temp\ccGLbPGC.s 			page 129


 5532 0011 3F030000 		.4byte	.LASF82
 5533 0015 19000000 		.4byte	.LASF83
 5534 0019 40010000 		.4byte	.Ldebug_ranges0+0x140
 5535 001d 00000000 		.4byte	0
 5536 0021 00000000 		.4byte	.Ldebug_line0
 5537 0025 02       		.uleb128 0x2
 5538 0026 08       		.byte	0x8
 5539 0027 04       		.byte	0x4
 5540 0028 0A000000 		.4byte	.LASF0
 5541 002c 03       		.uleb128 0x3
 5542 002d 04       		.byte	0x4
 5543 002e 05       		.byte	0x5
 5544 002f 696E7400 		.ascii	"int\000"
 5545 0033 02       		.uleb128 0x2
 5546 0034 01       		.byte	0x1
 5547 0035 06       		.byte	0x6
 5548 0036 EB010000 		.4byte	.LASF1
 5549 003a 04       		.uleb128 0x4
 5550 003b 28010000 		.4byte	.LASF3
 5551 003f 02       		.byte	0x2
 5552 0040 1D       		.byte	0x1d
 5553 0041 45000000 		.4byte	0x45
 5554 0045 02       		.uleb128 0x2
 5555 0046 01       		.byte	0x1
 5556 0047 08       		.byte	0x8
 5557 0048 D5010000 		.4byte	.LASF2
 5558 004c 04       		.uleb128 0x4
 5559 004d 00000000 		.4byte	.LASF4
 5560 0051 02       		.byte	0x2
 5561 0052 29       		.byte	0x29
 5562 0053 57000000 		.4byte	0x57
 5563 0057 02       		.uleb128 0x2
 5564 0058 02       		.byte	0x2
 5565 0059 05       		.byte	0x5
 5566 005a 90000000 		.4byte	.LASF5
 5567 005e 04       		.uleb128 0x4
 5568 005f C7000000 		.4byte	.LASF6
 5569 0063 02       		.byte	0x2
 5570 0064 2B       		.byte	0x2b
 5571 0065 69000000 		.4byte	0x69
 5572 0069 02       		.uleb128 0x2
 5573 006a 02       		.byte	0x2
 5574 006b 07       		.byte	0x7
 5575 006c 58020000 		.4byte	.LASF7
 5576 0070 04       		.uleb128 0x4
 5577 0071 65030000 		.4byte	.LASF8
 5578 0075 02       		.byte	0x2
 5579 0076 3F       		.byte	0x3f
 5580 0077 7B000000 		.4byte	0x7b
 5581 007b 02       		.uleb128 0x2
 5582 007c 04       		.byte	0x4
 5583 007d 05       		.byte	0x5
 5584 007e 13010000 		.4byte	.LASF9
 5585 0082 02       		.uleb128 0x2
 5586 0083 04       		.byte	0x4
 5587 0084 07       		.byte	0x7
 5588 0085 33020000 		.4byte	.LASF10
ARM GAS  C:\Users\JACOB-~1\AppData\Local\Temp\ccGLbPGC.s 			page 130


 5589 0089 02       		.uleb128 0x2
 5590 008a 08       		.byte	0x8
 5591 008b 05       		.byte	0x5
 5592 008c F3000000 		.4byte	.LASF11
 5593 0090 02       		.uleb128 0x2
 5594 0091 08       		.byte	0x8
 5595 0092 07       		.byte	0x7
 5596 0093 FF010000 		.4byte	.LASF12
 5597 0097 02       		.uleb128 0x2
 5598 0098 04       		.byte	0x4
 5599 0099 07       		.byte	0x7
 5600 009a 1D020000 		.4byte	.LASF13
 5601 009e 04       		.uleb128 0x4
 5602 009f 6F030000 		.4byte	.LASF14
 5603 00a3 03       		.byte	0x3
 5604 00a4 18       		.byte	0x18
 5605 00a5 3A000000 		.4byte	0x3a
 5606 00a9 04       		.uleb128 0x4
 5607 00aa 82020000 		.4byte	.LASF15
 5608 00ae 03       		.byte	0x3
 5609 00af 20       		.byte	0x20
 5610 00b0 4C000000 		.4byte	0x4c
 5611 00b4 04       		.uleb128 0x4
 5612 00b5 2A020000 		.4byte	.LASF16
 5613 00b9 03       		.byte	0x3
 5614 00ba 24       		.byte	0x24
 5615 00bb 5E000000 		.4byte	0x5e
 5616 00bf 04       		.uleb128 0x4
 5617 00c0 7A020000 		.4byte	.LASF17
 5618 00c4 03       		.byte	0x3
 5619 00c5 2C       		.byte	0x2c
 5620 00c6 70000000 		.4byte	0x70
 5621 00ca 02       		.uleb128 0x2
 5622 00cb 04       		.byte	0x4
 5623 00cc 04       		.byte	0x4
 5624 00cd ED000000 		.4byte	.LASF18
 5625 00d1 02       		.uleb128 0x2
 5626 00d2 01       		.byte	0x1
 5627 00d3 08       		.byte	0x8
 5628 00d4 75020000 		.4byte	.LASF19
 5629 00d8 02       		.uleb128 0x2
 5630 00d9 08       		.byte	0x8
 5631 00da 04       		.byte	0x4
 5632 00db BB000000 		.4byte	.LASF20
 5633 00df 02       		.uleb128 0x2
 5634 00e0 04       		.byte	0x4
 5635 00e1 07       		.byte	0x7
 5636 00e2 77030000 		.4byte	.LASF21
 5637 00e6 05       		.uleb128 0x5
 5638 00e7 04       		.byte	0x4
 5639 00e8 D1000000 		.4byte	0xd1
 5640 00ec 06       		.uleb128 0x6
 5641 00ed E2020000 		.4byte	.LASF47
 5642 00f1 01       		.byte	0x1
 5643 00f2 C602     		.2byte	0x2c6
 5644 00f4 01       		.byte	0x1
 5645 00f5 76010000 		.4byte	0x176
ARM GAS  C:\Users\JACOB-~1\AppData\Local\Temp\ccGLbPGC.s 			page 131


 5646 00f9 07       		.uleb128 0x7
 5647 00fa 7800     		.ascii	"x\000"
 5648 00fc 01       		.byte	0x1
 5649 00fd C602     		.2byte	0x2c6
 5650 00ff A9000000 		.4byte	0xa9
 5651 0103 07       		.uleb128 0x7
 5652 0104 7900     		.ascii	"y\000"
 5653 0106 01       		.byte	0x1
 5654 0107 C602     		.2byte	0x2c6
 5655 0109 A9000000 		.4byte	0xa9
 5656 010d 08       		.uleb128 0x8
 5657 010e A5000000 		.4byte	.LASF22
 5658 0112 01       		.byte	0x1
 5659 0113 C602     		.2byte	0x2c6
 5660 0115 B4000000 		.4byte	0xb4
 5661 0119 08       		.uleb128 0x8
 5662 011a 29030000 		.4byte	.LASF23
 5663 011e 01       		.byte	0x1
 5664 011f C602     		.2byte	0x2c6
 5665 0121 B4000000 		.4byte	0xb4
 5666 0125 09       		.uleb128 0x9
 5667 0126 E7000000 		.4byte	.LASF24
 5668 012a 01       		.byte	0x1
 5669 012b C802     		.2byte	0x2c8
 5670 012d B4000000 		.4byte	0xb4
 5671 0131 09       		.uleb128 0x9
 5672 0132 16020000 		.4byte	.LASF25
 5673 0136 01       		.byte	0x1
 5674 0137 D202     		.2byte	0x2d2
 5675 0139 9E000000 		.4byte	0x9e
 5676 013d 0A       		.uleb128 0xa
 5677 013e 4D010000 		.4byte	0x14d
 5678 0142 0B       		.uleb128 0xb
 5679 0143 6900     		.ascii	"i\000"
 5680 0145 01       		.byte	0x1
 5681 0146 CA02     		.2byte	0x2ca
 5682 0148 2C000000 		.4byte	0x2c
 5683 014c 00       		.byte	0
 5684 014d 0C       		.uleb128 0xc
 5685 014e 0B       		.uleb128 0xb
 5686 014f 6900     		.ascii	"i\000"
 5687 0151 01       		.byte	0x1
 5688 0152 D402     		.2byte	0x2d4
 5689 0154 2C000000 		.4byte	0x2c
 5690 0158 0C       		.uleb128 0xc
 5691 0159 0B       		.uleb128 0xb
 5692 015a 6A00     		.ascii	"j\000"
 5693 015c 01       		.byte	0x1
 5694 015d D602     		.2byte	0x2d6
 5695 015f 2C000000 		.4byte	0x2c
 5696 0163 0C       		.uleb128 0xc
 5697 0164 0D       		.uleb128 0xd
 5698 0165 D7020000 		.4byte	.LASF79
 5699 0169 01       		.byte	0x1
 5700 016a D802     		.2byte	0x2d8
 5701 016c 2C000000 		.4byte	0x2c
 5702 0170 0E       		.uleb128 0xe
ARM GAS  C:\Users\JACOB-~1\AppData\Local\Temp\ccGLbPGC.s 			page 132


 5703 0171 00       		.byte	0
 5704 0172 00       		.byte	0
 5705 0173 00       		.byte	0
 5706 0174 00       		.byte	0
 5707 0175 00       		.byte	0
 5708 0176 0F       		.uleb128 0xf
 5709 0177 EC000000 		.4byte	0xec
 5710 017b 00000000 		.4byte	.LFB64
 5711 017f 94000000 		.4byte	.LFE64-.LFB64
 5712 0183 01       		.uleb128 0x1
 5713 0184 9C       		.byte	0x9c
 5714 0185 26020000 		.4byte	0x226
 5715 0189 10       		.uleb128 0x10
 5716 018a F9000000 		.4byte	0xf9
 5717 018e 00000000 		.4byte	.LLST0
 5718 0192 10       		.uleb128 0x10
 5719 0193 03010000 		.4byte	0x103
 5720 0197 37000000 		.4byte	.LLST1
 5721 019b 10       		.uleb128 0x10
 5722 019c 0D010000 		.4byte	0x10d
 5723 01a0 78000000 		.4byte	.LLST2
 5724 01a4 10       		.uleb128 0x10
 5725 01a5 19010000 		.4byte	0x119
 5726 01a9 A4000000 		.4byte	.LLST3
 5727 01ad 11       		.uleb128 0x11
 5728 01ae 25010000 		.4byte	0x125
 5729 01b2 D0000000 		.4byte	.LLST4
 5730 01b6 11       		.uleb128 0x11
 5731 01b7 31010000 		.4byte	0x131
 5732 01bb 1C010000 		.4byte	.LLST5
 5733 01bf 12       		.uleb128 0x12
 5734 01c0 00000000 		.4byte	.Ldebug_ranges0+0
 5735 01c4 D2010000 		.4byte	0x1d2
 5736 01c8 11       		.uleb128 0x11
 5737 01c9 42010000 		.4byte	0x142
 5738 01cd 30010000 		.4byte	.LLST6
 5739 01d1 00       		.byte	0
 5740 01d2 13       		.uleb128 0x13
 5741 01d3 44000000 		.4byte	.LBB7
 5742 01d7 3C000000 		.4byte	.LBE7-.LBB7
 5743 01db 11       		.uleb128 0x11
 5744 01dc 4E010000 		.4byte	0x14e
 5745 01e0 73010000 		.4byte	.LLST7
 5746 01e4 13       		.uleb128 0x13
 5747 01e5 44000000 		.4byte	.LBB8
 5748 01e9 24000000 		.4byte	.LBE8-.LBB8
 5749 01ed 11       		.uleb128 0x11
 5750 01ee 59010000 		.4byte	0x159
 5751 01f2 87010000 		.4byte	.LLST8
 5752 01f6 13       		.uleb128 0x13
 5753 01f7 54000000 		.4byte	.LBB9
 5754 01fb 0E000000 		.4byte	.LBE9-.LBB9
 5755 01ff 14       		.uleb128 0x14
 5756 0200 64010000 		.4byte	0x164
 5757 0204 00       		.byte	0
 5758 0205 0C020000 		.4byte	0x20c
 5759 0209 0E       		.uleb128 0xe
ARM GAS  C:\Users\JACOB-~1\AppData\Local\Temp\ccGLbPGC.s 			page 133


 5760 020a 0E       		.uleb128 0xe
 5761 020b 00       		.byte	0
 5762 020c 15       		.uleb128 0x15
 5763 020d 62000000 		.4byte	.LVL14
 5764 0211 B8250000 		.4byte	0x25b8
 5765 0215 16       		.uleb128 0x16
 5766 0216 01       		.uleb128 0x1
 5767 0217 51       		.byte	0x51
 5768 0218 02       		.uleb128 0x2
 5769 0219 74       		.byte	0x74
 5770 021a 00       		.sleb128 0
 5771 021b 16       		.uleb128 0x16
 5772 021c 01       		.uleb128 0x1
 5773 021d 52       		.byte	0x52
 5774 021e 02       		.uleb128 0x2
 5775 021f 77       		.byte	0x77
 5776 0220 00       		.sleb128 0
 5777 0221 00       		.byte	0
 5778 0222 00       		.byte	0
 5779 0223 00       		.byte	0
 5780 0224 00       		.byte	0
 5781 0225 00       		.byte	0
 5782 0226 17       		.uleb128 0x17
 5783 0227 32010000 		.4byte	.LASF28
 5784 022b 01       		.byte	0x1
 5785 022c DF02     		.2byte	0x2df
 5786 022e 00000000 		.4byte	.LFB65
 5787 0232 32100000 		.4byte	.LFE65-.LFB65
 5788 0236 01       		.uleb128 0x1
 5789 0237 9C       		.byte	0x9c
 5790 0238 E2190000 		.4byte	0x19e2
 5791 023c 18       		.uleb128 0x18
 5792 023d 7800     		.ascii	"x\000"
 5793 023f 01       		.byte	0x1
 5794 0240 DF02     		.2byte	0x2df
 5795 0242 A9000000 		.4byte	0xa9
 5796 0246 9B010000 		.4byte	.LLST9
 5797 024a 18       		.uleb128 0x18
 5798 024b 7900     		.ascii	"y\000"
 5799 024d 01       		.byte	0x1
 5800 024e DF02     		.2byte	0x2df
 5801 0250 A9000000 		.4byte	0xa9
 5802 0254 BC010000 		.4byte	.LLST10
 5803 0258 19       		.uleb128 0x19
 5804 0259 A5000000 		.4byte	.LASF22
 5805 025d 01       		.byte	0x1
 5806 025e DF02     		.2byte	0x2df
 5807 0260 B4000000 		.4byte	0xb4
 5808 0264 DB010000 		.4byte	.LLST11
 5809 0268 19       		.uleb128 0x19
 5810 0269 21010000 		.4byte	.LASF26
 5811 026d 01       		.byte	0x1
 5812 026e DF02     		.2byte	0x2df
 5813 0270 E6000000 		.4byte	0xe6
 5814 0274 FC010000 		.4byte	.LLST12
 5815 0278 1A       		.uleb128 0x1a
 5816 0279 D0020000 		.4byte	.LASF27
ARM GAS  C:\Users\JACOB-~1\AppData\Local\Temp\ccGLbPGC.s 			page 134


 5817 027d 01       		.byte	0x1
 5818 027e E102     		.2byte	0x2e1
 5819 0280 A9000000 		.4byte	0xa9
 5820 0284 34020000 		.4byte	.LLST13
 5821 0288 1B       		.uleb128 0x1b
 5822 0289 18000000 		.4byte	.Ldebug_ranges0+0x18
 5823 028d 1C       		.uleb128 0x1c
 5824 028e 6700     		.ascii	"g\000"
 5825 0290 01       		.byte	0x1
 5826 0291 E502     		.2byte	0x2e5
 5827 0293 D1000000 		.4byte	0xd1
 5828 0297 DE050000 		.4byte	.LLST14
 5829 029b 1D       		.uleb128 0x1d
 5830 029c EC000000 		.4byte	0xec
 5831 02a0 D2000000 		.4byte	.LBB241
 5832 02a4 64000000 		.4byte	.LBE241-.LBB241
 5833 02a8 01       		.byte	0x1
 5834 02a9 5303     		.2byte	0x353
 5835 02ab 41030000 		.4byte	0x341
 5836 02af 1E       		.uleb128 0x1e
 5837 02b0 19010000 		.4byte	0x119
 5838 02b4 1E       		.uleb128 0x1e
 5839 02b5 0D010000 		.4byte	0x10d
 5840 02b9 10       		.uleb128 0x10
 5841 02ba 03010000 		.4byte	0x103
 5842 02be F1050000 		.4byte	.LLST15
 5843 02c2 10       		.uleb128 0x10
 5844 02c3 F9000000 		.4byte	0xf9
 5845 02c7 0F060000 		.4byte	.LLST16
 5846 02cb 13       		.uleb128 0x13
 5847 02cc D2000000 		.4byte	.LBB242
 5848 02d0 64000000 		.4byte	.LBE242-.LBB242
 5849 02d4 11       		.uleb128 0x11
 5850 02d5 25010000 		.4byte	0x125
 5851 02d9 22060000 		.4byte	.LLST17
 5852 02dd 11       		.uleb128 0x11
 5853 02de 31010000 		.4byte	0x131
 5854 02e2 63060000 		.4byte	.LLST18
 5855 02e6 1F       		.uleb128 0x1f
 5856 02e7 D2000000 		.4byte	.LBB243
 5857 02eb 0A000000 		.4byte	.LBE243-.LBB243
 5858 02ef F9020000 		.4byte	0x2f9
 5859 02f3 20       		.uleb128 0x20
 5860 02f4 42010000 		.4byte	0x142
 5861 02f8 00       		.byte	0
 5862 02f9 13       		.uleb128 0x13
 5863 02fa FA000000 		.4byte	.LBB244
 5864 02fe 3C000000 		.4byte	.LBE244-.LBB244
 5865 0302 11       		.uleb128 0x11
 5866 0303 4E010000 		.4byte	0x14e
 5867 0307 77060000 		.4byte	.LLST19
 5868 030b 13       		.uleb128 0x13
 5869 030c FA000000 		.4byte	.LBB245
 5870 0310 28000000 		.4byte	.LBE245-.LBB245
 5871 0314 11       		.uleb128 0x11
 5872 0315 59010000 		.4byte	0x159
 5873 0319 8B060000 		.4byte	.LLST20
ARM GAS  C:\Users\JACOB-~1\AppData\Local\Temp\ccGLbPGC.s 			page 135


 5874 031d 13       		.uleb128 0x13
 5875 031e 0E010000 		.4byte	.LBB246
 5876 0322 0E000000 		.4byte	.LBE246-.LBB246
 5877 0326 15       		.uleb128 0x15
 5878 0327 1C010000 		.4byte	.LVL42
 5879 032b B8250000 		.4byte	0x25b8
 5880 032f 16       		.uleb128 0x16
 5881 0330 01       		.uleb128 0x1
 5882 0331 51       		.byte	0x51
 5883 0332 02       		.uleb128 0x2
 5884 0333 75       		.byte	0x75
 5885 0334 00       		.sleb128 0
 5886 0335 16       		.uleb128 0x16
 5887 0336 01       		.uleb128 0x1
 5888 0337 52       		.byte	0x52
 5889 0338 02       		.uleb128 0x2
 5890 0339 74       		.byte	0x74
 5891 033a 00       		.sleb128 0
 5892 033b 00       		.byte	0
 5893 033c 00       		.byte	0
 5894 033d 00       		.byte	0
 5895 033e 00       		.byte	0
 5896 033f 00       		.byte	0
 5897 0340 00       		.byte	0
 5898 0341 1D       		.uleb128 0x1d
 5899 0342 EC000000 		.4byte	0xec
 5900 0346 42010000 		.4byte	.LBB247
 5901 034a 64000000 		.4byte	.LBE247-.LBB247
 5902 034e 01       		.byte	0x1
 5903 034f 5003     		.2byte	0x350
 5904 0351 E7030000 		.4byte	0x3e7
 5905 0355 1E       		.uleb128 0x1e
 5906 0356 19010000 		.4byte	0x119
 5907 035a 1E       		.uleb128 0x1e
 5908 035b 0D010000 		.4byte	0x10d
 5909 035f 10       		.uleb128 0x10
 5910 0360 03010000 		.4byte	0x103
 5911 0364 9F060000 		.4byte	.LLST21
 5912 0368 10       		.uleb128 0x10
 5913 0369 F9000000 		.4byte	0xf9
 5914 036d BD060000 		.4byte	.LLST22
 5915 0371 13       		.uleb128 0x13
 5916 0372 42010000 		.4byte	.LBB248
 5917 0376 64000000 		.4byte	.LBE248-.LBB248
 5918 037a 11       		.uleb128 0x11
 5919 037b 25010000 		.4byte	0x125
 5920 037f D0060000 		.4byte	.LLST23
 5921 0383 11       		.uleb128 0x11
 5922 0384 31010000 		.4byte	0x131
 5923 0388 11070000 		.4byte	.LLST24
 5924 038c 1F       		.uleb128 0x1f
 5925 038d 42010000 		.4byte	.LBB249
 5926 0391 0A000000 		.4byte	.LBE249-.LBB249
 5927 0395 9F030000 		.4byte	0x39f
 5928 0399 20       		.uleb128 0x20
 5929 039a 42010000 		.4byte	0x142
 5930 039e 00       		.byte	0
ARM GAS  C:\Users\JACOB-~1\AppData\Local\Temp\ccGLbPGC.s 			page 136


 5931 039f 13       		.uleb128 0x13
 5932 03a0 6A010000 		.4byte	.LBB250
 5933 03a4 3C000000 		.4byte	.LBE250-.LBB250
 5934 03a8 11       		.uleb128 0x11
 5935 03a9 4E010000 		.4byte	0x14e
 5936 03ad 25070000 		.4byte	.LLST25
 5937 03b1 13       		.uleb128 0x13
 5938 03b2 6A010000 		.4byte	.LBB251
 5939 03b6 28000000 		.4byte	.LBE251-.LBB251
 5940 03ba 11       		.uleb128 0x11
 5941 03bb 59010000 		.4byte	0x159
 5942 03bf 39070000 		.4byte	.LLST26
 5943 03c3 13       		.uleb128 0x13
 5944 03c4 7E010000 		.4byte	.LBB252
 5945 03c8 0E000000 		.4byte	.LBE252-.LBB252
 5946 03cc 15       		.uleb128 0x15
 5947 03cd 8C010000 		.4byte	.LVL57
 5948 03d1 B8250000 		.4byte	0x25b8
 5949 03d5 16       		.uleb128 0x16
 5950 03d6 01       		.uleb128 0x1
 5951 03d7 51       		.byte	0x51
 5952 03d8 02       		.uleb128 0x2
 5953 03d9 75       		.byte	0x75
 5954 03da 00       		.sleb128 0
 5955 03db 16       		.uleb128 0x16
 5956 03dc 01       		.uleb128 0x1
 5957 03dd 52       		.byte	0x52
 5958 03de 02       		.uleb128 0x2
 5959 03df 74       		.byte	0x74
 5960 03e0 00       		.sleb128 0
 5961 03e1 00       		.byte	0
 5962 03e2 00       		.byte	0
 5963 03e3 00       		.byte	0
 5964 03e4 00       		.byte	0
 5965 03e5 00       		.byte	0
 5966 03e6 00       		.byte	0
 5967 03e7 1D       		.uleb128 0x1d
 5968 03e8 EC000000 		.4byte	0xec
 5969 03ec B2010000 		.4byte	.LBB253
 5970 03f0 64000000 		.4byte	.LBE253-.LBB253
 5971 03f4 01       		.byte	0x1
 5972 03f5 4D03     		.2byte	0x34d
 5973 03f7 8D040000 		.4byte	0x48d
 5974 03fb 1E       		.uleb128 0x1e
 5975 03fc 19010000 		.4byte	0x119
 5976 0400 1E       		.uleb128 0x1e
 5977 0401 0D010000 		.4byte	0x10d
 5978 0405 10       		.uleb128 0x10
 5979 0406 03010000 		.4byte	0x103
 5980 040a 4D070000 		.4byte	.LLST27
 5981 040e 10       		.uleb128 0x10
 5982 040f F9000000 		.4byte	0xf9
 5983 0413 6B070000 		.4byte	.LLST28
 5984 0417 13       		.uleb128 0x13
 5985 0418 B2010000 		.4byte	.LBB254
 5986 041c 64000000 		.4byte	.LBE254-.LBB254
 5987 0420 11       		.uleb128 0x11
ARM GAS  C:\Users\JACOB-~1\AppData\Local\Temp\ccGLbPGC.s 			page 137


 5988 0421 25010000 		.4byte	0x125
 5989 0425 7E070000 		.4byte	.LLST29
 5990 0429 11       		.uleb128 0x11
 5991 042a 31010000 		.4byte	0x131
 5992 042e BF070000 		.4byte	.LLST30
 5993 0432 1F       		.uleb128 0x1f
 5994 0433 B2010000 		.4byte	.LBB255
 5995 0437 0A000000 		.4byte	.LBE255-.LBB255
 5996 043b 45040000 		.4byte	0x445
 5997 043f 20       		.uleb128 0x20
 5998 0440 42010000 		.4byte	0x142
 5999 0444 00       		.byte	0
 6000 0445 13       		.uleb128 0x13
 6001 0446 DA010000 		.4byte	.LBB256
 6002 044a 3C000000 		.4byte	.LBE256-.LBB256
 6003 044e 11       		.uleb128 0x11
 6004 044f 4E010000 		.4byte	0x14e
 6005 0453 D3070000 		.4byte	.LLST31
 6006 0457 13       		.uleb128 0x13
 6007 0458 DA010000 		.4byte	.LBB257
 6008 045c 28000000 		.4byte	.LBE257-.LBB257
 6009 0460 11       		.uleb128 0x11
 6010 0461 59010000 		.4byte	0x159
 6011 0465 E7070000 		.4byte	.LLST32
 6012 0469 13       		.uleb128 0x13
 6013 046a EE010000 		.4byte	.LBB258
 6014 046e 0E000000 		.4byte	.LBE258-.LBB258
 6015 0472 15       		.uleb128 0x15
 6016 0473 FC010000 		.4byte	.LVL72
 6017 0477 B8250000 		.4byte	0x25b8
 6018 047b 16       		.uleb128 0x16
 6019 047c 01       		.uleb128 0x1
 6020 047d 51       		.byte	0x51
 6021 047e 02       		.uleb128 0x2
 6022 047f 75       		.byte	0x75
 6023 0480 00       		.sleb128 0
 6024 0481 16       		.uleb128 0x16
 6025 0482 01       		.uleb128 0x1
 6026 0483 52       		.byte	0x52
 6027 0484 02       		.uleb128 0x2
 6028 0485 74       		.byte	0x74
 6029 0486 00       		.sleb128 0
 6030 0487 00       		.byte	0
 6031 0488 00       		.byte	0
 6032 0489 00       		.byte	0
 6033 048a 00       		.byte	0
 6034 048b 00       		.byte	0
 6035 048c 00       		.byte	0
 6036 048d 1D       		.uleb128 0x1d
 6037 048e EC000000 		.4byte	0xec
 6038 0492 22020000 		.4byte	.LBB259
 6039 0496 64000000 		.4byte	.LBE259-.LBB259
 6040 049a 01       		.byte	0x1
 6041 049b 4A03     		.2byte	0x34a
 6042 049d 33050000 		.4byte	0x533
 6043 04a1 1E       		.uleb128 0x1e
 6044 04a2 19010000 		.4byte	0x119
ARM GAS  C:\Users\JACOB-~1\AppData\Local\Temp\ccGLbPGC.s 			page 138


 6045 04a6 1E       		.uleb128 0x1e
 6046 04a7 0D010000 		.4byte	0x10d
 6047 04ab 10       		.uleb128 0x10
 6048 04ac 03010000 		.4byte	0x103
 6049 04b0 FB070000 		.4byte	.LLST33
 6050 04b4 10       		.uleb128 0x10
 6051 04b5 F9000000 		.4byte	0xf9
 6052 04b9 19080000 		.4byte	.LLST34
 6053 04bd 13       		.uleb128 0x13
 6054 04be 22020000 		.4byte	.LBB260
 6055 04c2 64000000 		.4byte	.LBE260-.LBB260
 6056 04c6 11       		.uleb128 0x11
 6057 04c7 25010000 		.4byte	0x125
 6058 04cb 2C080000 		.4byte	.LLST35
 6059 04cf 11       		.uleb128 0x11
 6060 04d0 31010000 		.4byte	0x131
 6061 04d4 6D080000 		.4byte	.LLST36
 6062 04d8 1F       		.uleb128 0x1f
 6063 04d9 22020000 		.4byte	.LBB261
 6064 04dd 0A000000 		.4byte	.LBE261-.LBB261
 6065 04e1 EB040000 		.4byte	0x4eb
 6066 04e5 20       		.uleb128 0x20
 6067 04e6 42010000 		.4byte	0x142
 6068 04ea 00       		.byte	0
 6069 04eb 13       		.uleb128 0x13
 6070 04ec 4A020000 		.4byte	.LBB262
 6071 04f0 3C000000 		.4byte	.LBE262-.LBB262
 6072 04f4 11       		.uleb128 0x11
 6073 04f5 4E010000 		.4byte	0x14e
 6074 04f9 81080000 		.4byte	.LLST37
 6075 04fd 13       		.uleb128 0x13
 6076 04fe 4A020000 		.4byte	.LBB263
 6077 0502 28000000 		.4byte	.LBE263-.LBB263
 6078 0506 11       		.uleb128 0x11
 6079 0507 59010000 		.4byte	0x159
 6080 050b 95080000 		.4byte	.LLST38
 6081 050f 13       		.uleb128 0x13
 6082 0510 5E020000 		.4byte	.LBB264
 6083 0514 0E000000 		.4byte	.LBE264-.LBB264
 6084 0518 15       		.uleb128 0x15
 6085 0519 6C020000 		.4byte	.LVL87
 6086 051d B8250000 		.4byte	0x25b8
 6087 0521 16       		.uleb128 0x16
 6088 0522 01       		.uleb128 0x1
 6089 0523 51       		.byte	0x51
 6090 0524 02       		.uleb128 0x2
 6091 0525 75       		.byte	0x75
 6092 0526 00       		.sleb128 0
 6093 0527 16       		.uleb128 0x16
 6094 0528 01       		.uleb128 0x1
 6095 0529 52       		.byte	0x52
 6096 052a 02       		.uleb128 0x2
 6097 052b 74       		.byte	0x74
 6098 052c 00       		.sleb128 0
 6099 052d 00       		.byte	0
 6100 052e 00       		.byte	0
 6101 052f 00       		.byte	0
ARM GAS  C:\Users\JACOB-~1\AppData\Local\Temp\ccGLbPGC.s 			page 139


 6102 0530 00       		.byte	0
 6103 0531 00       		.byte	0
 6104 0532 00       		.byte	0
 6105 0533 1D       		.uleb128 0x1d
 6106 0534 EC000000 		.4byte	0xec
 6107 0538 92020000 		.4byte	.LBB265
 6108 053c 64000000 		.4byte	.LBE265-.LBB265
 6109 0540 01       		.byte	0x1
 6110 0541 4403     		.2byte	0x344
 6111 0543 D9050000 		.4byte	0x5d9
 6112 0547 1E       		.uleb128 0x1e
 6113 0548 19010000 		.4byte	0x119
 6114 054c 1E       		.uleb128 0x1e
 6115 054d 0D010000 		.4byte	0x10d
 6116 0551 10       		.uleb128 0x10
 6117 0552 03010000 		.4byte	0x103
 6118 0556 A9080000 		.4byte	.LLST39
 6119 055a 10       		.uleb128 0x10
 6120 055b F9000000 		.4byte	0xf9
 6121 055f C7080000 		.4byte	.LLST40
 6122 0563 13       		.uleb128 0x13
 6123 0564 92020000 		.4byte	.LBB266
 6124 0568 64000000 		.4byte	.LBE266-.LBB266
 6125 056c 11       		.uleb128 0x11
 6126 056d 25010000 		.4byte	0x125
 6127 0571 DA080000 		.4byte	.LLST41
 6128 0575 11       		.uleb128 0x11
 6129 0576 31010000 		.4byte	0x131
 6130 057a 1B090000 		.4byte	.LLST42
 6131 057e 1F       		.uleb128 0x1f
 6132 057f 92020000 		.4byte	.LBB267
 6133 0583 0A000000 		.4byte	.LBE267-.LBB267
 6134 0587 91050000 		.4byte	0x591
 6135 058b 20       		.uleb128 0x20
 6136 058c 42010000 		.4byte	0x142
 6137 0590 00       		.byte	0
 6138 0591 13       		.uleb128 0x13
 6139 0592 BA020000 		.4byte	.LBB268
 6140 0596 3C000000 		.4byte	.LBE268-.LBB268
 6141 059a 11       		.uleb128 0x11
 6142 059b 4E010000 		.4byte	0x14e
 6143 059f 2F090000 		.4byte	.LLST43
 6144 05a3 13       		.uleb128 0x13
 6145 05a4 BA020000 		.4byte	.LBB269
 6146 05a8 28000000 		.4byte	.LBE269-.LBB269
 6147 05ac 11       		.uleb128 0x11
 6148 05ad 59010000 		.4byte	0x159
 6149 05b1 43090000 		.4byte	.LLST44
 6150 05b5 13       		.uleb128 0x13
 6151 05b6 CE020000 		.4byte	.LBB270
 6152 05ba 0E000000 		.4byte	.LBE270-.LBB270
 6153 05be 15       		.uleb128 0x15
 6154 05bf DC020000 		.4byte	.LVL102
 6155 05c3 B8250000 		.4byte	0x25b8
 6156 05c7 16       		.uleb128 0x16
 6157 05c8 01       		.uleb128 0x1
 6158 05c9 51       		.byte	0x51
ARM GAS  C:\Users\JACOB-~1\AppData\Local\Temp\ccGLbPGC.s 			page 140


 6159 05ca 02       		.uleb128 0x2
 6160 05cb 75       		.byte	0x75
 6161 05cc 00       		.sleb128 0
 6162 05cd 16       		.uleb128 0x16
 6163 05ce 01       		.uleb128 0x1
 6164 05cf 52       		.byte	0x52
 6165 05d0 02       		.uleb128 0x2
 6166 05d1 74       		.byte	0x74
 6167 05d2 00       		.sleb128 0
 6168 05d3 00       		.byte	0
 6169 05d4 00       		.byte	0
 6170 05d5 00       		.byte	0
 6171 05d6 00       		.byte	0
 6172 05d7 00       		.byte	0
 6173 05d8 00       		.byte	0
 6174 05d9 1D       		.uleb128 0x1d
 6175 05da EC000000 		.4byte	0xec
 6176 05de 02030000 		.4byte	.LBB271
 6177 05e2 64000000 		.4byte	.LBE271-.LBB271
 6178 05e6 01       		.byte	0x1
 6179 05e7 4703     		.2byte	0x347
 6180 05e9 7F060000 		.4byte	0x67f
 6181 05ed 1E       		.uleb128 0x1e
 6182 05ee 19010000 		.4byte	0x119
 6183 05f2 1E       		.uleb128 0x1e
 6184 05f3 0D010000 		.4byte	0x10d
 6185 05f7 10       		.uleb128 0x10
 6186 05f8 03010000 		.4byte	0x103
 6187 05fc 57090000 		.4byte	.LLST45
 6188 0600 10       		.uleb128 0x10
 6189 0601 F9000000 		.4byte	0xf9
 6190 0605 75090000 		.4byte	.LLST46
 6191 0609 13       		.uleb128 0x13
 6192 060a 02030000 		.4byte	.LBB272
 6193 060e 64000000 		.4byte	.LBE272-.LBB272
 6194 0612 11       		.uleb128 0x11
 6195 0613 25010000 		.4byte	0x125
 6196 0617 88090000 		.4byte	.LLST47
 6197 061b 11       		.uleb128 0x11
 6198 061c 31010000 		.4byte	0x131
 6199 0620 C9090000 		.4byte	.LLST48
 6200 0624 1F       		.uleb128 0x1f
 6201 0625 02030000 		.4byte	.LBB273
 6202 0629 0A000000 		.4byte	.LBE273-.LBB273
 6203 062d 37060000 		.4byte	0x637
 6204 0631 20       		.uleb128 0x20
 6205 0632 42010000 		.4byte	0x142
 6206 0636 00       		.byte	0
 6207 0637 13       		.uleb128 0x13
 6208 0638 2A030000 		.4byte	.LBB274
 6209 063c 3C000000 		.4byte	.LBE274-.LBB274
 6210 0640 11       		.uleb128 0x11
 6211 0641 4E010000 		.4byte	0x14e
 6212 0645 DD090000 		.4byte	.LLST49
 6213 0649 13       		.uleb128 0x13
 6214 064a 2A030000 		.4byte	.LBB275
 6215 064e 28000000 		.4byte	.LBE275-.LBB275
ARM GAS  C:\Users\JACOB-~1\AppData\Local\Temp\ccGLbPGC.s 			page 141


 6216 0652 11       		.uleb128 0x11
 6217 0653 59010000 		.4byte	0x159
 6218 0657 F1090000 		.4byte	.LLST50
 6219 065b 13       		.uleb128 0x13
 6220 065c 3E030000 		.4byte	.LBB276
 6221 0660 0E000000 		.4byte	.LBE276-.LBB276
 6222 0664 15       		.uleb128 0x15
 6223 0665 4C030000 		.4byte	.LVL117
 6224 0669 B8250000 		.4byte	0x25b8
 6225 066d 16       		.uleb128 0x16
 6226 066e 01       		.uleb128 0x1
 6227 066f 51       		.byte	0x51
 6228 0670 02       		.uleb128 0x2
 6229 0671 75       		.byte	0x75
 6230 0672 00       		.sleb128 0
 6231 0673 16       		.uleb128 0x16
 6232 0674 01       		.uleb128 0x1
 6233 0675 52       		.byte	0x52
 6234 0676 02       		.uleb128 0x2
 6235 0677 74       		.byte	0x74
 6236 0678 00       		.sleb128 0
 6237 0679 00       		.byte	0
 6238 067a 00       		.byte	0
 6239 067b 00       		.byte	0
 6240 067c 00       		.byte	0
 6241 067d 00       		.byte	0
 6242 067e 00       		.byte	0
 6243 067f 1D       		.uleb128 0x1d
 6244 0680 EC000000 		.4byte	0xec
 6245 0684 72030000 		.4byte	.LBB277
 6246 0688 64000000 		.4byte	.LBE277-.LBB277
 6247 068c 01       		.byte	0x1
 6248 068d 4103     		.2byte	0x341
 6249 068f 25070000 		.4byte	0x725
 6250 0693 1E       		.uleb128 0x1e
 6251 0694 19010000 		.4byte	0x119
 6252 0698 1E       		.uleb128 0x1e
 6253 0699 0D010000 		.4byte	0x10d
 6254 069d 10       		.uleb128 0x10
 6255 069e 03010000 		.4byte	0x103
 6256 06a2 050A0000 		.4byte	.LLST51
 6257 06a6 10       		.uleb128 0x10
 6258 06a7 F9000000 		.4byte	0xf9
 6259 06ab 230A0000 		.4byte	.LLST52
 6260 06af 13       		.uleb128 0x13
 6261 06b0 72030000 		.4byte	.LBB278
 6262 06b4 64000000 		.4byte	.LBE278-.LBB278
 6263 06b8 11       		.uleb128 0x11
 6264 06b9 25010000 		.4byte	0x125
 6265 06bd 360A0000 		.4byte	.LLST53
 6266 06c1 11       		.uleb128 0x11
 6267 06c2 31010000 		.4byte	0x131
 6268 06c6 770A0000 		.4byte	.LLST54
 6269 06ca 1F       		.uleb128 0x1f
 6270 06cb 72030000 		.4byte	.LBB279
 6271 06cf 0A000000 		.4byte	.LBE279-.LBB279
 6272 06d3 DD060000 		.4byte	0x6dd
ARM GAS  C:\Users\JACOB-~1\AppData\Local\Temp\ccGLbPGC.s 			page 142


 6273 06d7 20       		.uleb128 0x20
 6274 06d8 42010000 		.4byte	0x142
 6275 06dc 00       		.byte	0
 6276 06dd 13       		.uleb128 0x13
 6277 06de 9A030000 		.4byte	.LBB280
 6278 06e2 3C000000 		.4byte	.LBE280-.LBB280
 6279 06e6 11       		.uleb128 0x11
 6280 06e7 4E010000 		.4byte	0x14e
 6281 06eb 8B0A0000 		.4byte	.LLST55
 6282 06ef 13       		.uleb128 0x13
 6283 06f0 9A030000 		.4byte	.LBB281
 6284 06f4 28000000 		.4byte	.LBE281-.LBB281
 6285 06f8 11       		.uleb128 0x11
 6286 06f9 59010000 		.4byte	0x159
 6287 06fd 9F0A0000 		.4byte	.LLST56
 6288 0701 13       		.uleb128 0x13
 6289 0702 AE030000 		.4byte	.LBB282
 6290 0706 0E000000 		.4byte	.LBE282-.LBB282
 6291 070a 15       		.uleb128 0x15
 6292 070b BC030000 		.4byte	.LVL132
 6293 070f B8250000 		.4byte	0x25b8
 6294 0713 16       		.uleb128 0x16
 6295 0714 01       		.uleb128 0x1
 6296 0715 51       		.byte	0x51
 6297 0716 02       		.uleb128 0x2
 6298 0717 75       		.byte	0x75
 6299 0718 00       		.sleb128 0
 6300 0719 16       		.uleb128 0x16
 6301 071a 01       		.uleb128 0x1
 6302 071b 52       		.byte	0x52
 6303 071c 02       		.uleb128 0x2
 6304 071d 74       		.byte	0x74
 6305 071e 00       		.sleb128 0
 6306 071f 00       		.byte	0
 6307 0720 00       		.byte	0
 6308 0721 00       		.byte	0
 6309 0722 00       		.byte	0
 6310 0723 00       		.byte	0
 6311 0724 00       		.byte	0
 6312 0725 1D       		.uleb128 0x1d
 6313 0726 EC000000 		.4byte	0xec
 6314 072a E2030000 		.4byte	.LBB283
 6315 072e 64000000 		.4byte	.LBE283-.LBB283
 6316 0732 01       		.byte	0x1
 6317 0733 3E03     		.2byte	0x33e
 6318 0735 CB070000 		.4byte	0x7cb
 6319 0739 1E       		.uleb128 0x1e
 6320 073a 19010000 		.4byte	0x119
 6321 073e 1E       		.uleb128 0x1e
 6322 073f 0D010000 		.4byte	0x10d
 6323 0743 10       		.uleb128 0x10
 6324 0744 03010000 		.4byte	0x103
 6325 0748 B30A0000 		.4byte	.LLST57
 6326 074c 10       		.uleb128 0x10
 6327 074d F9000000 		.4byte	0xf9
 6328 0751 D10A0000 		.4byte	.LLST58
 6329 0755 13       		.uleb128 0x13
ARM GAS  C:\Users\JACOB-~1\AppData\Local\Temp\ccGLbPGC.s 			page 143


 6330 0756 E2030000 		.4byte	.LBB284
 6331 075a 64000000 		.4byte	.LBE284-.LBB284
 6332 075e 11       		.uleb128 0x11
 6333 075f 25010000 		.4byte	0x125
 6334 0763 E40A0000 		.4byte	.LLST59
 6335 0767 11       		.uleb128 0x11
 6336 0768 31010000 		.4byte	0x131
 6337 076c 250B0000 		.4byte	.LLST60
 6338 0770 1F       		.uleb128 0x1f
 6339 0771 E2030000 		.4byte	.LBB285
 6340 0775 0A000000 		.4byte	.LBE285-.LBB285
 6341 0779 83070000 		.4byte	0x783
 6342 077d 20       		.uleb128 0x20
 6343 077e 42010000 		.4byte	0x142
 6344 0782 00       		.byte	0
 6345 0783 13       		.uleb128 0x13
 6346 0784 0A040000 		.4byte	.LBB286
 6347 0788 3C000000 		.4byte	.LBE286-.LBB286
 6348 078c 11       		.uleb128 0x11
 6349 078d 4E010000 		.4byte	0x14e
 6350 0791 390B0000 		.4byte	.LLST61
 6351 0795 13       		.uleb128 0x13
 6352 0796 0A040000 		.4byte	.LBB287
 6353 079a 28000000 		.4byte	.LBE287-.LBB287
 6354 079e 11       		.uleb128 0x11
 6355 079f 59010000 		.4byte	0x159
 6356 07a3 4D0B0000 		.4byte	.LLST62
 6357 07a7 13       		.uleb128 0x13
 6358 07a8 1E040000 		.4byte	.LBB288
 6359 07ac 0E000000 		.4byte	.LBE288-.LBB288
 6360 07b0 15       		.uleb128 0x15
 6361 07b1 2C040000 		.4byte	.LVL147
 6362 07b5 B8250000 		.4byte	0x25b8
 6363 07b9 16       		.uleb128 0x16
 6364 07ba 01       		.uleb128 0x1
 6365 07bb 51       		.byte	0x51
 6366 07bc 02       		.uleb128 0x2
 6367 07bd 75       		.byte	0x75
 6368 07be 00       		.sleb128 0
 6369 07bf 16       		.uleb128 0x16
 6370 07c0 01       		.uleb128 0x1
 6371 07c1 52       		.byte	0x52
 6372 07c2 02       		.uleb128 0x2
 6373 07c3 74       		.byte	0x74
 6374 07c4 00       		.sleb128 0
 6375 07c5 00       		.byte	0
 6376 07c6 00       		.byte	0
 6377 07c7 00       		.byte	0
 6378 07c8 00       		.byte	0
 6379 07c9 00       		.byte	0
 6380 07ca 00       		.byte	0
 6381 07cb 1D       		.uleb128 0x1d
 6382 07cc EC000000 		.4byte	0xec
 6383 07d0 46040000 		.4byte	.LBB289
 6384 07d4 5E000000 		.4byte	.LBE289-.LBB289
 6385 07d8 01       		.byte	0x1
 6386 07d9 0E03     		.2byte	0x30e
ARM GAS  C:\Users\JACOB-~1\AppData\Local\Temp\ccGLbPGC.s 			page 144


 6387 07db 5E080000 		.4byte	0x85e
 6388 07df 1E       		.uleb128 0x1e
 6389 07e0 19010000 		.4byte	0x119
 6390 07e4 1E       		.uleb128 0x1e
 6391 07e5 0D010000 		.4byte	0x10d
 6392 07e9 10       		.uleb128 0x10
 6393 07ea 03010000 		.4byte	0x103
 6394 07ee 610B0000 		.4byte	.LLST63
 6395 07f2 10       		.uleb128 0x10
 6396 07f3 F9000000 		.4byte	0xf9
 6397 07f7 7F0B0000 		.4byte	.LLST64
 6398 07fb 13       		.uleb128 0x13
 6399 07fc 46040000 		.4byte	.LBB290
 6400 0800 5E000000 		.4byte	.LBE290-.LBB290
 6401 0804 11       		.uleb128 0x11
 6402 0805 25010000 		.4byte	0x125
 6403 0809 920B0000 		.4byte	.LLST65
 6404 080d 11       		.uleb128 0x11
 6405 080e 31010000 		.4byte	0x131
 6406 0812 BE0B0000 		.4byte	.LLST66
 6407 0816 13       		.uleb128 0x13
 6408 0817 66040000 		.4byte	.LBB291
 6409 081b 3E000000 		.4byte	.LBE291-.LBB291
 6410 081f 11       		.uleb128 0x11
 6411 0820 4E010000 		.4byte	0x14e
 6412 0824 D20B0000 		.4byte	.LLST67
 6413 0828 13       		.uleb128 0x13
 6414 0829 66040000 		.4byte	.LBB292
 6415 082d 24000000 		.4byte	.LBE292-.LBB292
 6416 0831 11       		.uleb128 0x11
 6417 0832 59010000 		.4byte	0x159
 6418 0836 E60B0000 		.4byte	.LLST68
 6419 083a 13       		.uleb128 0x13
 6420 083b 76040000 		.4byte	.LBB293
 6421 083f 0E000000 		.4byte	.LBE293-.LBB293
 6422 0843 15       		.uleb128 0x15
 6423 0844 84040000 		.4byte	.LVL156
 6424 0848 B8250000 		.4byte	0x25b8
 6425 084c 16       		.uleb128 0x16
 6426 084d 01       		.uleb128 0x1
 6427 084e 51       		.byte	0x51
 6428 084f 02       		.uleb128 0x2
 6429 0850 75       		.byte	0x75
 6430 0851 00       		.sleb128 0
 6431 0852 16       		.uleb128 0x16
 6432 0853 01       		.uleb128 0x1
 6433 0854 52       		.byte	0x52
 6434 0855 02       		.uleb128 0x2
 6435 0856 74       		.byte	0x74
 6436 0857 00       		.sleb128 0
 6437 0858 00       		.byte	0
 6438 0859 00       		.byte	0
 6439 085a 00       		.byte	0
 6440 085b 00       		.byte	0
 6441 085c 00       		.byte	0
 6442 085d 00       		.byte	0
 6443 085e 1D       		.uleb128 0x1d
ARM GAS  C:\Users\JACOB-~1\AppData\Local\Temp\ccGLbPGC.s 			page 145


 6444 085f EC000000 		.4byte	0xec
 6445 0863 B0040000 		.4byte	.LBB294
 6446 0867 64000000 		.4byte	.LBE294-.LBB294
 6447 086b 01       		.byte	0x1
 6448 086c 2603     		.2byte	0x326
 6449 086e 04090000 		.4byte	0x904
 6450 0872 1E       		.uleb128 0x1e
 6451 0873 19010000 		.4byte	0x119
 6452 0877 1E       		.uleb128 0x1e
 6453 0878 0D010000 		.4byte	0x10d
 6454 087c 10       		.uleb128 0x10
 6455 087d 03010000 		.4byte	0x103
 6456 0881 FA0B0000 		.4byte	.LLST69
 6457 0885 10       		.uleb128 0x10
 6458 0886 F9000000 		.4byte	0xf9
 6459 088a 180C0000 		.4byte	.LLST70
 6460 088e 13       		.uleb128 0x13
 6461 088f B0040000 		.4byte	.LBB295
 6462 0893 64000000 		.4byte	.LBE295-.LBB295
 6463 0897 11       		.uleb128 0x11
 6464 0898 25010000 		.4byte	0x125
 6465 089c 2B0C0000 		.4byte	.LLST71
 6466 08a0 11       		.uleb128 0x11
 6467 08a1 31010000 		.4byte	0x131
 6468 08a5 6C0C0000 		.4byte	.LLST72
 6469 08a9 1F       		.uleb128 0x1f
 6470 08aa B0040000 		.4byte	.LBB296
 6471 08ae 0A000000 		.4byte	.LBE296-.LBB296
 6472 08b2 BC080000 		.4byte	0x8bc
 6473 08b6 20       		.uleb128 0x20
 6474 08b7 42010000 		.4byte	0x142
 6475 08bb 00       		.byte	0
 6476 08bc 13       		.uleb128 0x13
 6477 08bd D8040000 		.4byte	.LBB297
 6478 08c1 3C000000 		.4byte	.LBE297-.LBB297
 6479 08c5 11       		.uleb128 0x11
 6480 08c6 4E010000 		.4byte	0x14e
 6481 08ca 800C0000 		.4byte	.LLST73
 6482 08ce 13       		.uleb128 0x13
 6483 08cf D8040000 		.4byte	.LBB298
 6484 08d3 28000000 		.4byte	.LBE298-.LBB298
 6485 08d7 11       		.uleb128 0x11
 6486 08d8 59010000 		.4byte	0x159
 6487 08dc 940C0000 		.4byte	.LLST74
 6488 08e0 13       		.uleb128 0x13
 6489 08e1 EC040000 		.4byte	.LBB299
 6490 08e5 0E000000 		.4byte	.LBE299-.LBB299
 6491 08e9 15       		.uleb128 0x15
 6492 08ea FA040000 		.4byte	.LVL171
 6493 08ee B8250000 		.4byte	0x25b8
 6494 08f2 16       		.uleb128 0x16
 6495 08f3 01       		.uleb128 0x1
 6496 08f4 51       		.byte	0x51
 6497 08f5 02       		.uleb128 0x2
 6498 08f6 75       		.byte	0x75
 6499 08f7 00       		.sleb128 0
 6500 08f8 16       		.uleb128 0x16
ARM GAS  C:\Users\JACOB-~1\AppData\Local\Temp\ccGLbPGC.s 			page 146


 6501 08f9 01       		.uleb128 0x1
 6502 08fa 52       		.byte	0x52
 6503 08fb 02       		.uleb128 0x2
 6504 08fc 74       		.byte	0x74
 6505 08fd 00       		.sleb128 0
 6506 08fe 00       		.byte	0
 6507 08ff 00       		.byte	0
 6508 0900 00       		.byte	0
 6509 0901 00       		.byte	0
 6510 0902 00       		.byte	0
 6511 0903 00       		.byte	0
 6512 0904 1D       		.uleb128 0x1d
 6513 0905 EC000000 		.4byte	0xec
 6514 0909 14050000 		.4byte	.LBB300
 6515 090d 5E000000 		.4byte	.LBE300-.LBB300
 6516 0911 01       		.byte	0x1
 6517 0912 F602     		.2byte	0x2f6
 6518 0914 97090000 		.4byte	0x997
 6519 0918 1E       		.uleb128 0x1e
 6520 0919 19010000 		.4byte	0x119
 6521 091d 1E       		.uleb128 0x1e
 6522 091e 0D010000 		.4byte	0x10d
 6523 0922 10       		.uleb128 0x10
 6524 0923 03010000 		.4byte	0x103
 6525 0927 A80C0000 		.4byte	.LLST75
 6526 092b 10       		.uleb128 0x10
 6527 092c F9000000 		.4byte	0xf9
 6528 0930 C60C0000 		.4byte	.LLST76
 6529 0934 13       		.uleb128 0x13
 6530 0935 14050000 		.4byte	.LBB301
 6531 0939 5E000000 		.4byte	.LBE301-.LBB301
 6532 093d 11       		.uleb128 0x11
 6533 093e 25010000 		.4byte	0x125
 6534 0942 D90C0000 		.4byte	.LLST77
 6535 0946 11       		.uleb128 0x11
 6536 0947 31010000 		.4byte	0x131
 6537 094b 040D0000 		.4byte	.LLST78
 6538 094f 13       		.uleb128 0x13
 6539 0950 34050000 		.4byte	.LBB302
 6540 0954 3E000000 		.4byte	.LBE302-.LBB302
 6541 0958 11       		.uleb128 0x11
 6542 0959 4E010000 		.4byte	0x14e
 6543 095d 180D0000 		.4byte	.LLST79
 6544 0961 13       		.uleb128 0x13
 6545 0962 34050000 		.4byte	.LBB303
 6546 0966 24000000 		.4byte	.LBE303-.LBB303
 6547 096a 11       		.uleb128 0x11
 6548 096b 59010000 		.4byte	0x159
 6549 096f 2C0D0000 		.4byte	.LLST80
 6550 0973 13       		.uleb128 0x13
 6551 0974 44050000 		.4byte	.LBB304
 6552 0978 0E000000 		.4byte	.LBE304-.LBB304
 6553 097c 15       		.uleb128 0x15
 6554 097d 52050000 		.4byte	.LVL180
 6555 0981 B8250000 		.4byte	0x25b8
 6556 0985 16       		.uleb128 0x16
 6557 0986 01       		.uleb128 0x1
ARM GAS  C:\Users\JACOB-~1\AppData\Local\Temp\ccGLbPGC.s 			page 147


 6558 0987 51       		.byte	0x51
 6559 0988 02       		.uleb128 0x2
 6560 0989 75       		.byte	0x75
 6561 098a 00       		.sleb128 0
 6562 098b 16       		.uleb128 0x16
 6563 098c 01       		.uleb128 0x1
 6564 098d 52       		.byte	0x52
 6565 098e 02       		.uleb128 0x2
 6566 098f 74       		.byte	0x74
 6567 0990 00       		.sleb128 0
 6568 0991 00       		.byte	0
 6569 0992 00       		.byte	0
 6570 0993 00       		.byte	0
 6571 0994 00       		.byte	0
 6572 0995 00       		.byte	0
 6573 0996 00       		.byte	0
 6574 0997 1D       		.uleb128 0x1d
 6575 0998 EC000000 		.4byte	0xec
 6576 099c 7E050000 		.4byte	.LBB305
 6577 09a0 64000000 		.4byte	.LBE305-.LBB305
 6578 09a4 01       		.byte	0x1
 6579 09a5 3203     		.2byte	0x332
 6580 09a7 3D0A0000 		.4byte	0xa3d
 6581 09ab 1E       		.uleb128 0x1e
 6582 09ac 19010000 		.4byte	0x119
 6583 09b0 1E       		.uleb128 0x1e
 6584 09b1 0D010000 		.4byte	0x10d
 6585 09b5 10       		.uleb128 0x10
 6586 09b6 03010000 		.4byte	0x103
 6587 09ba 400D0000 		.4byte	.LLST81
 6588 09be 10       		.uleb128 0x10
 6589 09bf F9000000 		.4byte	0xf9
 6590 09c3 5E0D0000 		.4byte	.LLST82
 6591 09c7 13       		.uleb128 0x13
 6592 09c8 7E050000 		.4byte	.LBB306
 6593 09cc 64000000 		.4byte	.LBE306-.LBB306
 6594 09d0 11       		.uleb128 0x11
 6595 09d1 25010000 		.4byte	0x125
 6596 09d5 710D0000 		.4byte	.LLST83
 6597 09d9 11       		.uleb128 0x11
 6598 09da 31010000 		.4byte	0x131
 6599 09de B20D0000 		.4byte	.LLST84
 6600 09e2 1F       		.uleb128 0x1f
 6601 09e3 7E050000 		.4byte	.LBB307
 6602 09e7 0A000000 		.4byte	.LBE307-.LBB307
 6603 09eb F5090000 		.4byte	0x9f5
 6604 09ef 20       		.uleb128 0x20
 6605 09f0 42010000 		.4byte	0x142
 6606 09f4 00       		.byte	0
 6607 09f5 13       		.uleb128 0x13
 6608 09f6 A6050000 		.4byte	.LBB308
 6609 09fa 3C000000 		.4byte	.LBE308-.LBB308
 6610 09fe 11       		.uleb128 0x11
 6611 09ff 4E010000 		.4byte	0x14e
 6612 0a03 C60D0000 		.4byte	.LLST85
 6613 0a07 13       		.uleb128 0x13
 6614 0a08 A6050000 		.4byte	.LBB309
ARM GAS  C:\Users\JACOB-~1\AppData\Local\Temp\ccGLbPGC.s 			page 148


 6615 0a0c 28000000 		.4byte	.LBE309-.LBB309
 6616 0a10 11       		.uleb128 0x11
 6617 0a11 59010000 		.4byte	0x159
 6618 0a15 DA0D0000 		.4byte	.LLST86
 6619 0a19 13       		.uleb128 0x13
 6620 0a1a BA050000 		.4byte	.LBB310
 6621 0a1e 0E000000 		.4byte	.LBE310-.LBB310
 6622 0a22 15       		.uleb128 0x15
 6623 0a23 C8050000 		.4byte	.LVL195
 6624 0a27 B8250000 		.4byte	0x25b8
 6625 0a2b 16       		.uleb128 0x16
 6626 0a2c 01       		.uleb128 0x1
 6627 0a2d 51       		.byte	0x51
 6628 0a2e 02       		.uleb128 0x2
 6629 0a2f 75       		.byte	0x75
 6630 0a30 00       		.sleb128 0
 6631 0a31 16       		.uleb128 0x16
 6632 0a32 01       		.uleb128 0x1
 6633 0a33 52       		.byte	0x52
 6634 0a34 02       		.uleb128 0x2
 6635 0a35 74       		.byte	0x74
 6636 0a36 00       		.sleb128 0
 6637 0a37 00       		.byte	0
 6638 0a38 00       		.byte	0
 6639 0a39 00       		.byte	0
 6640 0a3a 00       		.byte	0
 6641 0a3b 00       		.byte	0
 6642 0a3c 00       		.byte	0
 6643 0a3d 1D       		.uleb128 0x1d
 6644 0a3e EC000000 		.4byte	0xec
 6645 0a42 EE050000 		.4byte	.LBB311
 6646 0a46 64000000 		.4byte	.LBE311-.LBB311
 6647 0a4a 01       		.byte	0x1
 6648 0a4b 2F03     		.2byte	0x32f
 6649 0a4d E30A0000 		.4byte	0xae3
 6650 0a51 1E       		.uleb128 0x1e
 6651 0a52 19010000 		.4byte	0x119
 6652 0a56 1E       		.uleb128 0x1e
 6653 0a57 0D010000 		.4byte	0x10d
 6654 0a5b 10       		.uleb128 0x10
 6655 0a5c 03010000 		.4byte	0x103
 6656 0a60 EE0D0000 		.4byte	.LLST87
 6657 0a64 10       		.uleb128 0x10
 6658 0a65 F9000000 		.4byte	0xf9
 6659 0a69 0C0E0000 		.4byte	.LLST88
 6660 0a6d 13       		.uleb128 0x13
 6661 0a6e EE050000 		.4byte	.LBB312
 6662 0a72 64000000 		.4byte	.LBE312-.LBB312
 6663 0a76 11       		.uleb128 0x11
 6664 0a77 25010000 		.4byte	0x125
 6665 0a7b 1F0E0000 		.4byte	.LLST89
 6666 0a7f 11       		.uleb128 0x11
 6667 0a80 31010000 		.4byte	0x131
 6668 0a84 600E0000 		.4byte	.LLST90
 6669 0a88 1F       		.uleb128 0x1f
 6670 0a89 EE050000 		.4byte	.LBB313
 6671 0a8d 0A000000 		.4byte	.LBE313-.LBB313
ARM GAS  C:\Users\JACOB-~1\AppData\Local\Temp\ccGLbPGC.s 			page 149


 6672 0a91 9B0A0000 		.4byte	0xa9b
 6673 0a95 20       		.uleb128 0x20
 6674 0a96 42010000 		.4byte	0x142
 6675 0a9a 00       		.byte	0
 6676 0a9b 13       		.uleb128 0x13
 6677 0a9c 16060000 		.4byte	.LBB314
 6678 0aa0 3C000000 		.4byte	.LBE314-.LBB314
 6679 0aa4 11       		.uleb128 0x11
 6680 0aa5 4E010000 		.4byte	0x14e
 6681 0aa9 740E0000 		.4byte	.LLST91
 6682 0aad 13       		.uleb128 0x13
 6683 0aae 16060000 		.4byte	.LBB315
 6684 0ab2 28000000 		.4byte	.LBE315-.LBB315
 6685 0ab6 11       		.uleb128 0x11
 6686 0ab7 59010000 		.4byte	0x159
 6687 0abb 880E0000 		.4byte	.LLST92
 6688 0abf 13       		.uleb128 0x13
 6689 0ac0 2A060000 		.4byte	.LBB316
 6690 0ac4 0E000000 		.4byte	.LBE316-.LBB316
 6691 0ac8 15       		.uleb128 0x15
 6692 0ac9 38060000 		.4byte	.LVL210
 6693 0acd B8250000 		.4byte	0x25b8
 6694 0ad1 16       		.uleb128 0x16
 6695 0ad2 01       		.uleb128 0x1
 6696 0ad3 51       		.byte	0x51
 6697 0ad4 02       		.uleb128 0x2
 6698 0ad5 75       		.byte	0x75
 6699 0ad6 00       		.sleb128 0
 6700 0ad7 16       		.uleb128 0x16
 6701 0ad8 01       		.uleb128 0x1
 6702 0ad9 52       		.byte	0x52
 6703 0ada 02       		.uleb128 0x2
 6704 0adb 74       		.byte	0x74
 6705 0adc 00       		.sleb128 0
 6706 0add 00       		.byte	0
 6707 0ade 00       		.byte	0
 6708 0adf 00       		.byte	0
 6709 0ae0 00       		.byte	0
 6710 0ae1 00       		.byte	0
 6711 0ae2 00       		.byte	0
 6712 0ae3 1D       		.uleb128 0x1d
 6713 0ae4 EC000000 		.4byte	0xec
 6714 0ae8 5E060000 		.4byte	.LBB317
 6715 0aec 64000000 		.4byte	.LBE317-.LBB317
 6716 0af0 01       		.byte	0x1
 6717 0af1 2C03     		.2byte	0x32c
 6718 0af3 890B0000 		.4byte	0xb89
 6719 0af7 1E       		.uleb128 0x1e
 6720 0af8 19010000 		.4byte	0x119
 6721 0afc 1E       		.uleb128 0x1e
 6722 0afd 0D010000 		.4byte	0x10d
 6723 0b01 10       		.uleb128 0x10
 6724 0b02 03010000 		.4byte	0x103
 6725 0b06 9C0E0000 		.4byte	.LLST93
 6726 0b0a 10       		.uleb128 0x10
 6727 0b0b F9000000 		.4byte	0xf9
 6728 0b0f BA0E0000 		.4byte	.LLST94
ARM GAS  C:\Users\JACOB-~1\AppData\Local\Temp\ccGLbPGC.s 			page 150


 6729 0b13 13       		.uleb128 0x13
 6730 0b14 5E060000 		.4byte	.LBB318
 6731 0b18 64000000 		.4byte	.LBE318-.LBB318
 6732 0b1c 11       		.uleb128 0x11
 6733 0b1d 25010000 		.4byte	0x125
 6734 0b21 CD0E0000 		.4byte	.LLST95
 6735 0b25 11       		.uleb128 0x11
 6736 0b26 31010000 		.4byte	0x131
 6737 0b2a 0E0F0000 		.4byte	.LLST96
 6738 0b2e 1F       		.uleb128 0x1f
 6739 0b2f 5E060000 		.4byte	.LBB319
 6740 0b33 0A000000 		.4byte	.LBE319-.LBB319
 6741 0b37 410B0000 		.4byte	0xb41
 6742 0b3b 20       		.uleb128 0x20
 6743 0b3c 42010000 		.4byte	0x142
 6744 0b40 00       		.byte	0
 6745 0b41 13       		.uleb128 0x13
 6746 0b42 86060000 		.4byte	.LBB320
 6747 0b46 3C000000 		.4byte	.LBE320-.LBB320
 6748 0b4a 11       		.uleb128 0x11
 6749 0b4b 4E010000 		.4byte	0x14e
 6750 0b4f 220F0000 		.4byte	.LLST97
 6751 0b53 13       		.uleb128 0x13
 6752 0b54 86060000 		.4byte	.LBB321
 6753 0b58 28000000 		.4byte	.LBE321-.LBB321
 6754 0b5c 11       		.uleb128 0x11
 6755 0b5d 59010000 		.4byte	0x159
 6756 0b61 360F0000 		.4byte	.LLST98
 6757 0b65 13       		.uleb128 0x13
 6758 0b66 9A060000 		.4byte	.LBB322
 6759 0b6a 0E000000 		.4byte	.LBE322-.LBB322
 6760 0b6e 15       		.uleb128 0x15
 6761 0b6f A8060000 		.4byte	.LVL225
 6762 0b73 B8250000 		.4byte	0x25b8
 6763 0b77 16       		.uleb128 0x16
 6764 0b78 01       		.uleb128 0x1
 6765 0b79 51       		.byte	0x51
 6766 0b7a 02       		.uleb128 0x2
 6767 0b7b 75       		.byte	0x75
 6768 0b7c 00       		.sleb128 0
 6769 0b7d 16       		.uleb128 0x16
 6770 0b7e 01       		.uleb128 0x1
 6771 0b7f 52       		.byte	0x52
 6772 0b80 02       		.uleb128 0x2
 6773 0b81 74       		.byte	0x74
 6774 0b82 00       		.sleb128 0
 6775 0b83 00       		.byte	0
 6776 0b84 00       		.byte	0
 6777 0b85 00       		.byte	0
 6778 0b86 00       		.byte	0
 6779 0b87 00       		.byte	0
 6780 0b88 00       		.byte	0
 6781 0b89 1D       		.uleb128 0x1d
 6782 0b8a EC000000 		.4byte	0xec
 6783 0b8e C2060000 		.4byte	.LBB323
 6784 0b92 5E000000 		.4byte	.LBE323-.LBB323
 6785 0b96 01       		.byte	0x1
ARM GAS  C:\Users\JACOB-~1\AppData\Local\Temp\ccGLbPGC.s 			page 151


 6786 0b97 0203     		.2byte	0x302
 6787 0b99 1C0C0000 		.4byte	0xc1c
 6788 0b9d 1E       		.uleb128 0x1e
 6789 0b9e 19010000 		.4byte	0x119
 6790 0ba2 1E       		.uleb128 0x1e
 6791 0ba3 0D010000 		.4byte	0x10d
 6792 0ba7 10       		.uleb128 0x10
 6793 0ba8 03010000 		.4byte	0x103
 6794 0bac 4A0F0000 		.4byte	.LLST99
 6795 0bb0 10       		.uleb128 0x10
 6796 0bb1 F9000000 		.4byte	0xf9
 6797 0bb5 680F0000 		.4byte	.LLST100
 6798 0bb9 13       		.uleb128 0x13
 6799 0bba C2060000 		.4byte	.LBB324
 6800 0bbe 5E000000 		.4byte	.LBE324-.LBB324
 6801 0bc2 11       		.uleb128 0x11
 6802 0bc3 25010000 		.4byte	0x125
 6803 0bc7 7B0F0000 		.4byte	.LLST101
 6804 0bcb 11       		.uleb128 0x11
 6805 0bcc 31010000 		.4byte	0x131
 6806 0bd0 A60F0000 		.4byte	.LLST102
 6807 0bd4 13       		.uleb128 0x13
 6808 0bd5 E2060000 		.4byte	.LBB325
 6809 0bd9 3E000000 		.4byte	.LBE325-.LBB325
 6810 0bdd 11       		.uleb128 0x11
 6811 0bde 4E010000 		.4byte	0x14e
 6812 0be2 BA0F0000 		.4byte	.LLST103
 6813 0be6 13       		.uleb128 0x13
 6814 0be7 E2060000 		.4byte	.LBB326
 6815 0beb 24000000 		.4byte	.LBE326-.LBB326
 6816 0bef 11       		.uleb128 0x11
 6817 0bf0 59010000 		.4byte	0x159
 6818 0bf4 CE0F0000 		.4byte	.LLST104
 6819 0bf8 13       		.uleb128 0x13
 6820 0bf9 F2060000 		.4byte	.LBB327
 6821 0bfd 0E000000 		.4byte	.LBE327-.LBB327
 6822 0c01 15       		.uleb128 0x15
 6823 0c02 00070000 		.4byte	.LVL234
 6824 0c06 B8250000 		.4byte	0x25b8
 6825 0c0a 16       		.uleb128 0x16
 6826 0c0b 01       		.uleb128 0x1
 6827 0c0c 51       		.byte	0x51
 6828 0c0d 02       		.uleb128 0x2
 6829 0c0e 75       		.byte	0x75
 6830 0c0f 00       		.sleb128 0
 6831 0c10 16       		.uleb128 0x16
 6832 0c11 01       		.uleb128 0x1
 6833 0c12 52       		.byte	0x52
 6834 0c13 02       		.uleb128 0x2
 6835 0c14 74       		.byte	0x74
 6836 0c15 00       		.sleb128 0
 6837 0c16 00       		.byte	0
 6838 0c17 00       		.byte	0
 6839 0c18 00       		.byte	0
 6840 0c19 00       		.byte	0
 6841 0c1a 00       		.byte	0
 6842 0c1b 00       		.byte	0
ARM GAS  C:\Users\JACOB-~1\AppData\Local\Temp\ccGLbPGC.s 			page 152


 6843 0c1c 1D       		.uleb128 0x1d
 6844 0c1d EC000000 		.4byte	0xec
 6845 0c21 20070000 		.4byte	.LBB328
 6846 0c25 5E000000 		.4byte	.LBE328-.LBB328
 6847 0c29 01       		.byte	0x1
 6848 0c2a 1A03     		.2byte	0x31a
 6849 0c2c AF0C0000 		.4byte	0xcaf
 6850 0c30 1E       		.uleb128 0x1e
 6851 0c31 19010000 		.4byte	0x119
 6852 0c35 1E       		.uleb128 0x1e
 6853 0c36 0D010000 		.4byte	0x10d
 6854 0c3a 10       		.uleb128 0x10
 6855 0c3b 03010000 		.4byte	0x103
 6856 0c3f E20F0000 		.4byte	.LLST105
 6857 0c43 10       		.uleb128 0x10
 6858 0c44 F9000000 		.4byte	0xf9
 6859 0c48 00100000 		.4byte	.LLST106
 6860 0c4c 13       		.uleb128 0x13
 6861 0c4d 20070000 		.4byte	.LBB329
 6862 0c51 5E000000 		.4byte	.LBE329-.LBB329
 6863 0c55 11       		.uleb128 0x11
 6864 0c56 25010000 		.4byte	0x125
 6865 0c5a 13100000 		.4byte	.LLST107
 6866 0c5e 11       		.uleb128 0x11
 6867 0c5f 31010000 		.4byte	0x131
 6868 0c63 3F100000 		.4byte	.LLST108
 6869 0c67 13       		.uleb128 0x13
 6870 0c68 40070000 		.4byte	.LBB330
 6871 0c6c 3E000000 		.4byte	.LBE330-.LBB330
 6872 0c70 11       		.uleb128 0x11
 6873 0c71 4E010000 		.4byte	0x14e
 6874 0c75 53100000 		.4byte	.LLST109
 6875 0c79 13       		.uleb128 0x13
 6876 0c7a 40070000 		.4byte	.LBB331
 6877 0c7e 24000000 		.4byte	.LBE331-.LBB331
 6878 0c82 11       		.uleb128 0x11
 6879 0c83 59010000 		.4byte	0x159
 6880 0c87 67100000 		.4byte	.LLST110
 6881 0c8b 13       		.uleb128 0x13
 6882 0c8c 50070000 		.4byte	.LBB332
 6883 0c90 0E000000 		.4byte	.LBE332-.LBB332
 6884 0c94 15       		.uleb128 0x15
 6885 0c95 5E070000 		.4byte	.LVL243
 6886 0c99 B8250000 		.4byte	0x25b8
 6887 0c9d 16       		.uleb128 0x16
 6888 0c9e 01       		.uleb128 0x1
 6889 0c9f 51       		.byte	0x51
 6890 0ca0 02       		.uleb128 0x2
 6891 0ca1 75       		.byte	0x75
 6892 0ca2 00       		.sleb128 0
 6893 0ca3 16       		.uleb128 0x16
 6894 0ca4 01       		.uleb128 0x1
 6895 0ca5 52       		.byte	0x52
 6896 0ca6 02       		.uleb128 0x2
 6897 0ca7 74       		.byte	0x74
 6898 0ca8 00       		.sleb128 0
 6899 0ca9 00       		.byte	0
ARM GAS  C:\Users\JACOB-~1\AppData\Local\Temp\ccGLbPGC.s 			page 153


 6900 0caa 00       		.byte	0
 6901 0cab 00       		.byte	0
 6902 0cac 00       		.byte	0
 6903 0cad 00       		.byte	0
 6904 0cae 00       		.byte	0
 6905 0caf 1D       		.uleb128 0x1d
 6906 0cb0 EC000000 		.4byte	0xec
 6907 0cb4 7E070000 		.4byte	.LBB333
 6908 0cb8 5E000000 		.4byte	.LBE333-.LBB333
 6909 0cbc 01       		.byte	0x1
 6910 0cbd 1703     		.2byte	0x317
 6911 0cbf 420D0000 		.4byte	0xd42
 6912 0cc3 1E       		.uleb128 0x1e
 6913 0cc4 19010000 		.4byte	0x119
 6914 0cc8 1E       		.uleb128 0x1e
 6915 0cc9 0D010000 		.4byte	0x10d
 6916 0ccd 10       		.uleb128 0x10
 6917 0cce 03010000 		.4byte	0x103
 6918 0cd2 7B100000 		.4byte	.LLST111
 6919 0cd6 10       		.uleb128 0x10
 6920 0cd7 F9000000 		.4byte	0xf9
 6921 0cdb 99100000 		.4byte	.LLST112
 6922 0cdf 13       		.uleb128 0x13
 6923 0ce0 7E070000 		.4byte	.LBB334
 6924 0ce4 5E000000 		.4byte	.LBE334-.LBB334
 6925 0ce8 11       		.uleb128 0x11
 6926 0ce9 25010000 		.4byte	0x125
 6927 0ced AC100000 		.4byte	.LLST113
 6928 0cf1 11       		.uleb128 0x11
 6929 0cf2 31010000 		.4byte	0x131
 6930 0cf6 D8100000 		.4byte	.LLST114
 6931 0cfa 13       		.uleb128 0x13
 6932 0cfb 9E070000 		.4byte	.LBB335
 6933 0cff 3E000000 		.4byte	.LBE335-.LBB335
 6934 0d03 11       		.uleb128 0x11
 6935 0d04 4E010000 		.4byte	0x14e
 6936 0d08 EC100000 		.4byte	.LLST115
 6937 0d0c 13       		.uleb128 0x13
 6938 0d0d 9E070000 		.4byte	.LBB336
 6939 0d11 24000000 		.4byte	.LBE336-.LBB336
 6940 0d15 11       		.uleb128 0x11
 6941 0d16 59010000 		.4byte	0x159
 6942 0d1a 00110000 		.4byte	.LLST116
 6943 0d1e 13       		.uleb128 0x13
 6944 0d1f AE070000 		.4byte	.LBB337
 6945 0d23 0E000000 		.4byte	.LBE337-.LBB337
 6946 0d27 15       		.uleb128 0x15
 6947 0d28 BC070000 		.4byte	.LVL252
 6948 0d2c B8250000 		.4byte	0x25b8
 6949 0d30 16       		.uleb128 0x16
 6950 0d31 01       		.uleb128 0x1
 6951 0d32 51       		.byte	0x51
 6952 0d33 02       		.uleb128 0x2
 6953 0d34 75       		.byte	0x75
 6954 0d35 00       		.sleb128 0
 6955 0d36 16       		.uleb128 0x16
 6956 0d37 01       		.uleb128 0x1
ARM GAS  C:\Users\JACOB-~1\AppData\Local\Temp\ccGLbPGC.s 			page 154


 6957 0d38 52       		.byte	0x52
 6958 0d39 02       		.uleb128 0x2
 6959 0d3a 74       		.byte	0x74
 6960 0d3b 00       		.sleb128 0
 6961 0d3c 00       		.byte	0
 6962 0d3d 00       		.byte	0
 6963 0d3e 00       		.byte	0
 6964 0d3f 00       		.byte	0
 6965 0d40 00       		.byte	0
 6966 0d41 00       		.byte	0
 6967 0d42 1D       		.uleb128 0x1d
 6968 0d43 EC000000 		.4byte	0xec
 6969 0d47 DC070000 		.4byte	.LBB338
 6970 0d4b 5E000000 		.4byte	.LBE338-.LBB338
 6971 0d4f 01       		.byte	0x1
 6972 0d50 1403     		.2byte	0x314
 6973 0d52 D50D0000 		.4byte	0xdd5
 6974 0d56 1E       		.uleb128 0x1e
 6975 0d57 19010000 		.4byte	0x119
 6976 0d5b 1E       		.uleb128 0x1e
 6977 0d5c 0D010000 		.4byte	0x10d
 6978 0d60 10       		.uleb128 0x10
 6979 0d61 03010000 		.4byte	0x103
 6980 0d65 14110000 		.4byte	.LLST117
 6981 0d69 10       		.uleb128 0x10
 6982 0d6a F9000000 		.4byte	0xf9
 6983 0d6e 32110000 		.4byte	.LLST118
 6984 0d72 13       		.uleb128 0x13
 6985 0d73 DC070000 		.4byte	.LBB339
 6986 0d77 5E000000 		.4byte	.LBE339-.LBB339
 6987 0d7b 11       		.uleb128 0x11
 6988 0d7c 25010000 		.4byte	0x125
 6989 0d80 45110000 		.4byte	.LLST119
 6990 0d84 11       		.uleb128 0x11
 6991 0d85 31010000 		.4byte	0x131
 6992 0d89 71110000 		.4byte	.LLST120
 6993 0d8d 13       		.uleb128 0x13
 6994 0d8e FC070000 		.4byte	.LBB340
 6995 0d92 3E000000 		.4byte	.LBE340-.LBB340
 6996 0d96 11       		.uleb128 0x11
 6997 0d97 4E010000 		.4byte	0x14e
 6998 0d9b 85110000 		.4byte	.LLST121
 6999 0d9f 13       		.uleb128 0x13
 7000 0da0 FC070000 		.4byte	.LBB341
 7001 0da4 24000000 		.4byte	.LBE341-.LBB341
 7002 0da8 11       		.uleb128 0x11
 7003 0da9 59010000 		.4byte	0x159
 7004 0dad 99110000 		.4byte	.LLST122
 7005 0db1 13       		.uleb128 0x13
 7006 0db2 0C080000 		.4byte	.LBB342
 7007 0db6 0E000000 		.4byte	.LBE342-.LBB342
 7008 0dba 15       		.uleb128 0x15
 7009 0dbb 1A080000 		.4byte	.LVL261
 7010 0dbf B8250000 		.4byte	0x25b8
 7011 0dc3 16       		.uleb128 0x16
 7012 0dc4 01       		.uleb128 0x1
 7013 0dc5 51       		.byte	0x51
ARM GAS  C:\Users\JACOB-~1\AppData\Local\Temp\ccGLbPGC.s 			page 155


 7014 0dc6 02       		.uleb128 0x2
 7015 0dc7 75       		.byte	0x75
 7016 0dc8 00       		.sleb128 0
 7017 0dc9 16       		.uleb128 0x16
 7018 0dca 01       		.uleb128 0x1
 7019 0dcb 52       		.byte	0x52
 7020 0dcc 02       		.uleb128 0x2
 7021 0dcd 74       		.byte	0x74
 7022 0dce 00       		.sleb128 0
 7023 0dcf 00       		.byte	0
 7024 0dd0 00       		.byte	0
 7025 0dd1 00       		.byte	0
 7026 0dd2 00       		.byte	0
 7027 0dd3 00       		.byte	0
 7028 0dd4 00       		.byte	0
 7029 0dd5 1D       		.uleb128 0x1d
 7030 0dd6 EC000000 		.4byte	0xec
 7031 0dda 3A080000 		.4byte	.LBB343
 7032 0dde 5E000000 		.4byte	.LBE343-.LBB343
 7033 0de2 01       		.byte	0x1
 7034 0de3 1103     		.2byte	0x311
 7035 0de5 680E0000 		.4byte	0xe68
 7036 0de9 1E       		.uleb128 0x1e
 7037 0dea 19010000 		.4byte	0x119
 7038 0dee 1E       		.uleb128 0x1e
 7039 0def 0D010000 		.4byte	0x10d
 7040 0df3 10       		.uleb128 0x10
 7041 0df4 03010000 		.4byte	0x103
 7042 0df8 AD110000 		.4byte	.LLST123
 7043 0dfc 10       		.uleb128 0x10
 7044 0dfd F9000000 		.4byte	0xf9
 7045 0e01 CB110000 		.4byte	.LLST124
 7046 0e05 13       		.uleb128 0x13
 7047 0e06 3A080000 		.4byte	.LBB344
 7048 0e0a 5E000000 		.4byte	.LBE344-.LBB344
 7049 0e0e 11       		.uleb128 0x11
 7050 0e0f 25010000 		.4byte	0x125
 7051 0e13 DE110000 		.4byte	.LLST125
 7052 0e17 11       		.uleb128 0x11
 7053 0e18 31010000 		.4byte	0x131
 7054 0e1c 0A120000 		.4byte	.LLST126
 7055 0e20 13       		.uleb128 0x13
 7056 0e21 5A080000 		.4byte	.LBB345
 7057 0e25 3E000000 		.4byte	.LBE345-.LBB345
 7058 0e29 11       		.uleb128 0x11
 7059 0e2a 4E010000 		.4byte	0x14e
 7060 0e2e 1E120000 		.4byte	.LLST127
 7061 0e32 13       		.uleb128 0x13
 7062 0e33 5A080000 		.4byte	.LBB346
 7063 0e37 24000000 		.4byte	.LBE346-.LBB346
 7064 0e3b 11       		.uleb128 0x11
 7065 0e3c 59010000 		.4byte	0x159
 7066 0e40 32120000 		.4byte	.LLST128
 7067 0e44 13       		.uleb128 0x13
 7068 0e45 6A080000 		.4byte	.LBB347
 7069 0e49 0E000000 		.4byte	.LBE347-.LBB347
 7070 0e4d 15       		.uleb128 0x15
ARM GAS  C:\Users\JACOB-~1\AppData\Local\Temp\ccGLbPGC.s 			page 156


 7071 0e4e 78080000 		.4byte	.LVL270
 7072 0e52 B8250000 		.4byte	0x25b8
 7073 0e56 16       		.uleb128 0x16
 7074 0e57 01       		.uleb128 0x1
 7075 0e58 51       		.byte	0x51
 7076 0e59 02       		.uleb128 0x2
 7077 0e5a 75       		.byte	0x75
 7078 0e5b 00       		.sleb128 0
 7079 0e5c 16       		.uleb128 0x16
 7080 0e5d 01       		.uleb128 0x1
 7081 0e5e 52       		.byte	0x52
 7082 0e5f 02       		.uleb128 0x2
 7083 0e60 74       		.byte	0x74
 7084 0e61 00       		.sleb128 0
 7085 0e62 00       		.byte	0
 7086 0e63 00       		.byte	0
 7087 0e64 00       		.byte	0
 7088 0e65 00       		.byte	0
 7089 0e66 00       		.byte	0
 7090 0e67 00       		.byte	0
 7091 0e68 1D       		.uleb128 0x1d
 7092 0e69 EC000000 		.4byte	0xec
 7093 0e6d A4080000 		.4byte	.LBB348
 7094 0e71 66000000 		.4byte	.LBE348-.LBB348
 7095 0e75 01       		.byte	0x1
 7096 0e76 2003     		.2byte	0x320
 7097 0e78 0E0F0000 		.4byte	0xf0e
 7098 0e7c 1E       		.uleb128 0x1e
 7099 0e7d 19010000 		.4byte	0x119
 7100 0e81 1E       		.uleb128 0x1e
 7101 0e82 0D010000 		.4byte	0x10d
 7102 0e86 10       		.uleb128 0x10
 7103 0e87 03010000 		.4byte	0x103
 7104 0e8b 46120000 		.4byte	.LLST129
 7105 0e8f 10       		.uleb128 0x10
 7106 0e90 F9000000 		.4byte	0xf9
 7107 0e94 64120000 		.4byte	.LLST130
 7108 0e98 13       		.uleb128 0x13
 7109 0e99 A4080000 		.4byte	.LBB349
 7110 0e9d 66000000 		.4byte	.LBE349-.LBB349
 7111 0ea1 11       		.uleb128 0x11
 7112 0ea2 25010000 		.4byte	0x125
 7113 0ea6 77120000 		.4byte	.LLST131
 7114 0eaa 11       		.uleb128 0x11
 7115 0eab 31010000 		.4byte	0x131
 7116 0eaf B8120000 		.4byte	.LLST132
 7117 0eb3 1F       		.uleb128 0x1f
 7118 0eb4 A4080000 		.4byte	.LBB350
 7119 0eb8 0A000000 		.4byte	.LBE350-.LBB350
 7120 0ebc C60E0000 		.4byte	0xec6
 7121 0ec0 20       		.uleb128 0x20
 7122 0ec1 42010000 		.4byte	0x142
 7123 0ec5 00       		.byte	0
 7124 0ec6 13       		.uleb128 0x13
 7125 0ec7 CC080000 		.4byte	.LBB351
 7126 0ecb 3E000000 		.4byte	.LBE351-.LBB351
 7127 0ecf 11       		.uleb128 0x11
ARM GAS  C:\Users\JACOB-~1\AppData\Local\Temp\ccGLbPGC.s 			page 157


 7128 0ed0 4E010000 		.4byte	0x14e
 7129 0ed4 CC120000 		.4byte	.LLST133
 7130 0ed8 13       		.uleb128 0x13
 7131 0ed9 CC080000 		.4byte	.LBB352
 7132 0edd 28000000 		.4byte	.LBE352-.LBB352
 7133 0ee1 11       		.uleb128 0x11
 7134 0ee2 59010000 		.4byte	0x159
 7135 0ee6 E0120000 		.4byte	.LLST134
 7136 0eea 13       		.uleb128 0x13
 7137 0eeb E0080000 		.4byte	.LBB353
 7138 0eef 0E000000 		.4byte	.LBE353-.LBB353
 7139 0ef3 15       		.uleb128 0x15
 7140 0ef4 EE080000 		.4byte	.LVL285
 7141 0ef8 B8250000 		.4byte	0x25b8
 7142 0efc 16       		.uleb128 0x16
 7143 0efd 01       		.uleb128 0x1
 7144 0efe 51       		.byte	0x51
 7145 0eff 02       		.uleb128 0x2
 7146 0f00 75       		.byte	0x75
 7147 0f01 00       		.sleb128 0
 7148 0f02 16       		.uleb128 0x16
 7149 0f03 01       		.uleb128 0x1
 7150 0f04 52       		.byte	0x52
 7151 0f05 02       		.uleb128 0x2
 7152 0f06 74       		.byte	0x74
 7153 0f07 00       		.sleb128 0
 7154 0f08 00       		.byte	0
 7155 0f09 00       		.byte	0
 7156 0f0a 00       		.byte	0
 7157 0f0b 00       		.byte	0
 7158 0f0c 00       		.byte	0
 7159 0f0d 00       		.byte	0
 7160 0f0e 1D       		.uleb128 0x1d
 7161 0f0f EC000000 		.4byte	0xec
 7162 0f13 0A090000 		.4byte	.LBB354
 7163 0f17 5A000000 		.4byte	.LBE354-.LBB354
 7164 0f1b 01       		.byte	0x1
 7165 0f1c 1D03     		.2byte	0x31d
 7166 0f1e A10F0000 		.4byte	0xfa1
 7167 0f22 1E       		.uleb128 0x1e
 7168 0f23 19010000 		.4byte	0x119
 7169 0f27 1E       		.uleb128 0x1e
 7170 0f28 0D010000 		.4byte	0x10d
 7171 0f2c 10       		.uleb128 0x10
 7172 0f2d 03010000 		.4byte	0x103
 7173 0f31 F4120000 		.4byte	.LLST135
 7174 0f35 10       		.uleb128 0x10
 7175 0f36 F9000000 		.4byte	0xf9
 7176 0f3a 12130000 		.4byte	.LLST136
 7177 0f3e 13       		.uleb128 0x13
 7178 0f3f 0A090000 		.4byte	.LBB355
 7179 0f43 5A000000 		.4byte	.LBE355-.LBB355
 7180 0f47 11       		.uleb128 0x11
 7181 0f48 25010000 		.4byte	0x125
 7182 0f4c 25130000 		.4byte	.LLST137
 7183 0f50 11       		.uleb128 0x11
 7184 0f51 31010000 		.4byte	0x131
ARM GAS  C:\Users\JACOB-~1\AppData\Local\Temp\ccGLbPGC.s 			page 158


 7185 0f55 51130000 		.4byte	.LLST138
 7186 0f59 13       		.uleb128 0x13
 7187 0f5a 26090000 		.4byte	.LBB356
 7188 0f5e 3E000000 		.4byte	.LBE356-.LBB356
 7189 0f62 11       		.uleb128 0x11
 7190 0f63 4E010000 		.4byte	0x14e
 7191 0f67 65130000 		.4byte	.LLST139
 7192 0f6b 13       		.uleb128 0x13
 7193 0f6c 26090000 		.4byte	.LBB357
 7194 0f70 28000000 		.4byte	.LBE357-.LBB357
 7195 0f74 11       		.uleb128 0x11
 7196 0f75 59010000 		.4byte	0x159
 7197 0f79 79130000 		.4byte	.LLST140
 7198 0f7d 13       		.uleb128 0x13
 7199 0f7e 3A090000 		.4byte	.LBB358
 7200 0f82 0E000000 		.4byte	.LBE358-.LBB358
 7201 0f86 15       		.uleb128 0x15
 7202 0f87 48090000 		.4byte	.LVL294
 7203 0f8b B8250000 		.4byte	0x25b8
 7204 0f8f 16       		.uleb128 0x16
 7205 0f90 01       		.uleb128 0x1
 7206 0f91 51       		.byte	0x51
 7207 0f92 02       		.uleb128 0x2
 7208 0f93 75       		.byte	0x75
 7209 0f94 00       		.sleb128 0
 7210 0f95 16       		.uleb128 0x16
 7211 0f96 01       		.uleb128 0x1
 7212 0f97 52       		.byte	0x52
 7213 0f98 02       		.uleb128 0x2
 7214 0f99 74       		.byte	0x74
 7215 0f9a 00       		.sleb128 0
 7216 0f9b 00       		.byte	0
 7217 0f9c 00       		.byte	0
 7218 0f9d 00       		.byte	0
 7219 0f9e 00       		.byte	0
 7220 0f9f 00       		.byte	0
 7221 0fa0 00       		.byte	0
 7222 0fa1 1D       		.uleb128 0x1d
 7223 0fa2 EC000000 		.4byte	0xec
 7224 0fa6 64090000 		.4byte	.LBB359
 7225 0faa 5E000000 		.4byte	.LBE359-.LBB359
 7226 0fae 01       		.byte	0x1
 7227 0faf EA02     		.2byte	0x2ea
 7228 0fb1 34100000 		.4byte	0x1034
 7229 0fb5 1E       		.uleb128 0x1e
 7230 0fb6 19010000 		.4byte	0x119
 7231 0fba 1E       		.uleb128 0x1e
 7232 0fbb 0D010000 		.4byte	0x10d
 7233 0fbf 10       		.uleb128 0x10
 7234 0fc0 03010000 		.4byte	0x103
 7235 0fc4 8D130000 		.4byte	.LLST141
 7236 0fc8 10       		.uleb128 0x10
 7237 0fc9 F9000000 		.4byte	0xf9
 7238 0fcd AB130000 		.4byte	.LLST142
 7239 0fd1 13       		.uleb128 0x13
 7240 0fd2 64090000 		.4byte	.LBB360
 7241 0fd6 5E000000 		.4byte	.LBE360-.LBB360
ARM GAS  C:\Users\JACOB-~1\AppData\Local\Temp\ccGLbPGC.s 			page 159


 7242 0fda 11       		.uleb128 0x11
 7243 0fdb 25010000 		.4byte	0x125
 7244 0fdf BE130000 		.4byte	.LLST143
 7245 0fe3 11       		.uleb128 0x11
 7246 0fe4 31010000 		.4byte	0x131
 7247 0fe8 E8130000 		.4byte	.LLST144
 7248 0fec 13       		.uleb128 0x13
 7249 0fed 84090000 		.4byte	.LBB361
 7250 0ff1 3E000000 		.4byte	.LBE361-.LBB361
 7251 0ff5 11       		.uleb128 0x11
 7252 0ff6 4E010000 		.4byte	0x14e
 7253 0ffa FC130000 		.4byte	.LLST145
 7254 0ffe 13       		.uleb128 0x13
 7255 0fff 84090000 		.4byte	.LBB362
 7256 1003 24000000 		.4byte	.LBE362-.LBB362
 7257 1007 11       		.uleb128 0x11
 7258 1008 59010000 		.4byte	0x159
 7259 100c 10140000 		.4byte	.LLST146
 7260 1010 13       		.uleb128 0x13
 7261 1011 94090000 		.4byte	.LBB363
 7262 1015 0E000000 		.4byte	.LBE363-.LBB363
 7263 1019 15       		.uleb128 0x15
 7264 101a A2090000 		.4byte	.LVL303
 7265 101e B8250000 		.4byte	0x25b8
 7266 1022 16       		.uleb128 0x16
 7267 1023 01       		.uleb128 0x1
 7268 1024 51       		.byte	0x51
 7269 1025 02       		.uleb128 0x2
 7270 1026 75       		.byte	0x75
 7271 1027 00       		.sleb128 0
 7272 1028 16       		.uleb128 0x16
 7273 1029 01       		.uleb128 0x1
 7274 102a 52       		.byte	0x52
 7275 102b 02       		.uleb128 0x2
 7276 102c 74       		.byte	0x74
 7277 102d 00       		.sleb128 0
 7278 102e 00       		.byte	0
 7279 102f 00       		.byte	0
 7280 1030 00       		.byte	0
 7281 1031 00       		.byte	0
 7282 1032 00       		.byte	0
 7283 1033 00       		.byte	0
 7284 1034 1D       		.uleb128 0x1d
 7285 1035 EC000000 		.4byte	0xec
 7286 1039 CE090000 		.4byte	.LBB364
 7287 103d 66000000 		.4byte	.LBE364-.LBB364
 7288 1041 01       		.byte	0x1
 7289 1042 5603     		.2byte	0x356
 7290 1044 DA100000 		.4byte	0x10da
 7291 1048 1E       		.uleb128 0x1e
 7292 1049 19010000 		.4byte	0x119
 7293 104d 1E       		.uleb128 0x1e
 7294 104e 0D010000 		.4byte	0x10d
 7295 1052 10       		.uleb128 0x10
 7296 1053 03010000 		.4byte	0x103
 7297 1057 24140000 		.4byte	.LLST147
 7298 105b 10       		.uleb128 0x10
ARM GAS  C:\Users\JACOB-~1\AppData\Local\Temp\ccGLbPGC.s 			page 160


 7299 105c F9000000 		.4byte	0xf9
 7300 1060 42140000 		.4byte	.LLST148
 7301 1064 13       		.uleb128 0x13
 7302 1065 CE090000 		.4byte	.LBB365
 7303 1069 66000000 		.4byte	.LBE365-.LBB365
 7304 106d 11       		.uleb128 0x11
 7305 106e 25010000 		.4byte	0x125
 7306 1072 55140000 		.4byte	.LLST149
 7307 1076 11       		.uleb128 0x11
 7308 1077 31010000 		.4byte	0x131
 7309 107b 96140000 		.4byte	.LLST150
 7310 107f 1F       		.uleb128 0x1f
 7311 1080 CE090000 		.4byte	.LBB366
 7312 1084 0A000000 		.4byte	.LBE366-.LBB366
 7313 1088 92100000 		.4byte	0x1092
 7314 108c 20       		.uleb128 0x20
 7315 108d 42010000 		.4byte	0x142
 7316 1091 00       		.byte	0
 7317 1092 13       		.uleb128 0x13
 7318 1093 F6090000 		.4byte	.LBB367
 7319 1097 3E000000 		.4byte	.LBE367-.LBB367
 7320 109b 11       		.uleb128 0x11
 7321 109c 4E010000 		.4byte	0x14e
 7322 10a0 AA140000 		.4byte	.LLST151
 7323 10a4 13       		.uleb128 0x13
 7324 10a5 F6090000 		.4byte	.LBB368
 7325 10a9 28000000 		.4byte	.LBE368-.LBB368
 7326 10ad 11       		.uleb128 0x11
 7327 10ae 59010000 		.4byte	0x159
 7328 10b2 BE140000 		.4byte	.LLST152
 7329 10b6 13       		.uleb128 0x13
 7330 10b7 0A0A0000 		.4byte	.LBB369
 7331 10bb 0E000000 		.4byte	.LBE369-.LBB369
 7332 10bf 15       		.uleb128 0x15
 7333 10c0 180A0000 		.4byte	.LVL318
 7334 10c4 B8250000 		.4byte	0x25b8
 7335 10c8 16       		.uleb128 0x16
 7336 10c9 01       		.uleb128 0x1
 7337 10ca 51       		.byte	0x51
 7338 10cb 02       		.uleb128 0x2
 7339 10cc 75       		.byte	0x75
 7340 10cd 00       		.sleb128 0
 7341 10ce 16       		.uleb128 0x16
 7342 10cf 01       		.uleb128 0x1
 7343 10d0 52       		.byte	0x52
 7344 10d1 02       		.uleb128 0x2
 7345 10d2 74       		.byte	0x74
 7346 10d3 00       		.sleb128 0
 7347 10d4 00       		.byte	0
 7348 10d5 00       		.byte	0
 7349 10d6 00       		.byte	0
 7350 10d7 00       		.byte	0
 7351 10d8 00       		.byte	0
 7352 10d9 00       		.byte	0
 7353 10da 1D       		.uleb128 0x1d
 7354 10db EC000000 		.4byte	0xec
 7355 10df 400A0000 		.4byte	.LBB370
ARM GAS  C:\Users\JACOB-~1\AppData\Local\Temp\ccGLbPGC.s 			page 161


 7356 10e3 66000000 		.4byte	.LBE370-.LBB370
 7357 10e7 01       		.byte	0x1
 7358 10e8 5903     		.2byte	0x359
 7359 10ea 80110000 		.4byte	0x1180
 7360 10ee 1E       		.uleb128 0x1e
 7361 10ef 19010000 		.4byte	0x119
 7362 10f3 1E       		.uleb128 0x1e
 7363 10f4 0D010000 		.4byte	0x10d
 7364 10f8 10       		.uleb128 0x10
 7365 10f9 03010000 		.4byte	0x103
 7366 10fd D2140000 		.4byte	.LLST153
 7367 1101 10       		.uleb128 0x10
 7368 1102 F9000000 		.4byte	0xf9
 7369 1106 F0140000 		.4byte	.LLST154
 7370 110a 13       		.uleb128 0x13
 7371 110b 400A0000 		.4byte	.LBB371
 7372 110f 66000000 		.4byte	.LBE371-.LBB371
 7373 1113 11       		.uleb128 0x11
 7374 1114 25010000 		.4byte	0x125
 7375 1118 03150000 		.4byte	.LLST155
 7376 111c 11       		.uleb128 0x11
 7377 111d 31010000 		.4byte	0x131
 7378 1121 44150000 		.4byte	.LLST156
 7379 1125 1F       		.uleb128 0x1f
 7380 1126 400A0000 		.4byte	.LBB372
 7381 112a 0A000000 		.4byte	.LBE372-.LBB372
 7382 112e 38110000 		.4byte	0x1138
 7383 1132 20       		.uleb128 0x20
 7384 1133 42010000 		.4byte	0x142
 7385 1137 00       		.byte	0
 7386 1138 13       		.uleb128 0x13
 7387 1139 680A0000 		.4byte	.LBB373
 7388 113d 3E000000 		.4byte	.LBE373-.LBB373
 7389 1141 11       		.uleb128 0x11
 7390 1142 4E010000 		.4byte	0x14e
 7391 1146 58150000 		.4byte	.LLST157
 7392 114a 13       		.uleb128 0x13
 7393 114b 680A0000 		.4byte	.LBB374
 7394 114f 28000000 		.4byte	.LBE374-.LBB374
 7395 1153 11       		.uleb128 0x11
 7396 1154 59010000 		.4byte	0x159
 7397 1158 6C150000 		.4byte	.LLST158
 7398 115c 13       		.uleb128 0x13
 7399 115d 7C0A0000 		.4byte	.LBB375
 7400 1161 0E000000 		.4byte	.LBE375-.LBB375
 7401 1165 15       		.uleb128 0x15
 7402 1166 8A0A0000 		.4byte	.LVL333
 7403 116a B8250000 		.4byte	0x25b8
 7404 116e 16       		.uleb128 0x16
 7405 116f 01       		.uleb128 0x1
 7406 1170 51       		.byte	0x51
 7407 1171 02       		.uleb128 0x2
 7408 1172 75       		.byte	0x75
 7409 1173 00       		.sleb128 0
 7410 1174 16       		.uleb128 0x16
 7411 1175 01       		.uleb128 0x1
 7412 1176 52       		.byte	0x52
ARM GAS  C:\Users\JACOB-~1\AppData\Local\Temp\ccGLbPGC.s 			page 162


 7413 1177 02       		.uleb128 0x2
 7414 1178 74       		.byte	0x74
 7415 1179 00       		.sleb128 0
 7416 117a 00       		.byte	0
 7417 117b 00       		.byte	0
 7418 117c 00       		.byte	0
 7419 117d 00       		.byte	0
 7420 117e 00       		.byte	0
 7421 117f 00       		.byte	0
 7422 1180 1D       		.uleb128 0x1d
 7423 1181 EC000000 		.4byte	0xec
 7424 1185 A60A0000 		.4byte	.LBB376
 7425 1189 5E000000 		.4byte	.LBE376-.LBB376
 7426 118d 01       		.byte	0x1
 7427 118e F002     		.2byte	0x2f0
 7428 1190 13120000 		.4byte	0x1213
 7429 1194 1E       		.uleb128 0x1e
 7430 1195 19010000 		.4byte	0x119
 7431 1199 1E       		.uleb128 0x1e
 7432 119a 0D010000 		.4byte	0x10d
 7433 119e 10       		.uleb128 0x10
 7434 119f 03010000 		.4byte	0x103
 7435 11a3 80150000 		.4byte	.LLST159
 7436 11a7 10       		.uleb128 0x10
 7437 11a8 F9000000 		.4byte	0xf9
 7438 11ac 9E150000 		.4byte	.LLST160
 7439 11b0 13       		.uleb128 0x13
 7440 11b1 A60A0000 		.4byte	.LBB377
 7441 11b5 5E000000 		.4byte	.LBE377-.LBB377
 7442 11b9 11       		.uleb128 0x11
 7443 11ba 25010000 		.4byte	0x125
 7444 11be B1150000 		.4byte	.LLST161
 7445 11c2 11       		.uleb128 0x11
 7446 11c3 31010000 		.4byte	0x131
 7447 11c7 DC150000 		.4byte	.LLST162
 7448 11cb 13       		.uleb128 0x13
 7449 11cc C60A0000 		.4byte	.LBB378
 7450 11d0 3E000000 		.4byte	.LBE378-.LBB378
 7451 11d4 11       		.uleb128 0x11
 7452 11d5 4E010000 		.4byte	0x14e
 7453 11d9 F0150000 		.4byte	.LLST163
 7454 11dd 13       		.uleb128 0x13
 7455 11de C60A0000 		.4byte	.LBB379
 7456 11e2 24000000 		.4byte	.LBE379-.LBB379
 7457 11e6 11       		.uleb128 0x11
 7458 11e7 59010000 		.4byte	0x159
 7459 11eb 04160000 		.4byte	.LLST164
 7460 11ef 13       		.uleb128 0x13
 7461 11f0 D60A0000 		.4byte	.LBB380
 7462 11f4 0E000000 		.4byte	.LBE380-.LBB380
 7463 11f8 15       		.uleb128 0x15
 7464 11f9 E40A0000 		.4byte	.LVL342
 7465 11fd B8250000 		.4byte	0x25b8
 7466 1201 16       		.uleb128 0x16
 7467 1202 01       		.uleb128 0x1
 7468 1203 51       		.byte	0x51
 7469 1204 02       		.uleb128 0x2
ARM GAS  C:\Users\JACOB-~1\AppData\Local\Temp\ccGLbPGC.s 			page 163


 7470 1205 75       		.byte	0x75
 7471 1206 00       		.sleb128 0
 7472 1207 16       		.uleb128 0x16
 7473 1208 01       		.uleb128 0x1
 7474 1209 52       		.byte	0x52
 7475 120a 02       		.uleb128 0x2
 7476 120b 74       		.byte	0x74
 7477 120c 00       		.sleb128 0
 7478 120d 00       		.byte	0
 7479 120e 00       		.byte	0
 7480 120f 00       		.byte	0
 7481 1210 00       		.byte	0
 7482 1211 00       		.byte	0
 7483 1212 00       		.byte	0
 7484 1213 1D       		.uleb128 0x1d
 7485 1214 EC000000 		.4byte	0xec
 7486 1218 040B0000 		.4byte	.LBB381
 7487 121c 5E000000 		.4byte	.LBE381-.LBB381
 7488 1220 01       		.byte	0x1
 7489 1221 F302     		.2byte	0x2f3
 7490 1223 A6120000 		.4byte	0x12a6
 7491 1227 1E       		.uleb128 0x1e
 7492 1228 19010000 		.4byte	0x119
 7493 122c 1E       		.uleb128 0x1e
 7494 122d 0D010000 		.4byte	0x10d
 7495 1231 10       		.uleb128 0x10
 7496 1232 03010000 		.4byte	0x103
 7497 1236 18160000 		.4byte	.LLST165
 7498 123a 10       		.uleb128 0x10
 7499 123b F9000000 		.4byte	0xf9
 7500 123f 36160000 		.4byte	.LLST166
 7501 1243 13       		.uleb128 0x13
 7502 1244 040B0000 		.4byte	.LBB382
 7503 1248 5E000000 		.4byte	.LBE382-.LBB382
 7504 124c 11       		.uleb128 0x11
 7505 124d 25010000 		.4byte	0x125
 7506 1251 49160000 		.4byte	.LLST167
 7507 1255 11       		.uleb128 0x11
 7508 1256 31010000 		.4byte	0x131
 7509 125a 74160000 		.4byte	.LLST168
 7510 125e 13       		.uleb128 0x13
 7511 125f 240B0000 		.4byte	.LBB383
 7512 1263 3E000000 		.4byte	.LBE383-.LBB383
 7513 1267 11       		.uleb128 0x11
 7514 1268 4E010000 		.4byte	0x14e
 7515 126c 88160000 		.4byte	.LLST169
 7516 1270 13       		.uleb128 0x13
 7517 1271 240B0000 		.4byte	.LBB384
 7518 1275 24000000 		.4byte	.LBE384-.LBB384
 7519 1279 11       		.uleb128 0x11
 7520 127a 59010000 		.4byte	0x159
 7521 127e 9C160000 		.4byte	.LLST170
 7522 1282 13       		.uleb128 0x13
 7523 1283 340B0000 		.4byte	.LBB385
 7524 1287 0E000000 		.4byte	.LBE385-.LBB385
 7525 128b 15       		.uleb128 0x15
 7526 128c 420B0000 		.4byte	.LVL351
ARM GAS  C:\Users\JACOB-~1\AppData\Local\Temp\ccGLbPGC.s 			page 164


 7527 1290 B8250000 		.4byte	0x25b8
 7528 1294 16       		.uleb128 0x16
 7529 1295 01       		.uleb128 0x1
 7530 1296 51       		.byte	0x51
 7531 1297 02       		.uleb128 0x2
 7532 1298 75       		.byte	0x75
 7533 1299 00       		.sleb128 0
 7534 129a 16       		.uleb128 0x16
 7535 129b 01       		.uleb128 0x1
 7536 129c 52       		.byte	0x52
 7537 129d 02       		.uleb128 0x2
 7538 129e 74       		.byte	0x74
 7539 129f 00       		.sleb128 0
 7540 12a0 00       		.byte	0
 7541 12a1 00       		.byte	0
 7542 12a2 00       		.byte	0
 7543 12a3 00       		.byte	0
 7544 12a4 00       		.byte	0
 7545 12a5 00       		.byte	0
 7546 12a6 1D       		.uleb128 0x1d
 7547 12a7 EC000000 		.4byte	0xec
 7548 12ab 620B0000 		.4byte	.LBB386
 7549 12af 5E000000 		.4byte	.LBE386-.LBB386
 7550 12b3 01       		.byte	0x1
 7551 12b4 ED02     		.2byte	0x2ed
 7552 12b6 39130000 		.4byte	0x1339
 7553 12ba 1E       		.uleb128 0x1e
 7554 12bb 19010000 		.4byte	0x119
 7555 12bf 1E       		.uleb128 0x1e
 7556 12c0 0D010000 		.4byte	0x10d
 7557 12c4 10       		.uleb128 0x10
 7558 12c5 03010000 		.4byte	0x103
 7559 12c9 B0160000 		.4byte	.LLST171
 7560 12cd 10       		.uleb128 0x10
 7561 12ce F9000000 		.4byte	0xf9
 7562 12d2 CE160000 		.4byte	.LLST172
 7563 12d6 13       		.uleb128 0x13
 7564 12d7 620B0000 		.4byte	.LBB387
 7565 12db 5E000000 		.4byte	.LBE387-.LBB387
 7566 12df 11       		.uleb128 0x11
 7567 12e0 25010000 		.4byte	0x125
 7568 12e4 E1160000 		.4byte	.LLST173
 7569 12e8 11       		.uleb128 0x11
 7570 12e9 31010000 		.4byte	0x131
 7571 12ed 0B170000 		.4byte	.LLST174
 7572 12f1 13       		.uleb128 0x13
 7573 12f2 820B0000 		.4byte	.LBB388
 7574 12f6 3E000000 		.4byte	.LBE388-.LBB388
 7575 12fa 11       		.uleb128 0x11
 7576 12fb 4E010000 		.4byte	0x14e
 7577 12ff 1F170000 		.4byte	.LLST175
 7578 1303 13       		.uleb128 0x13
 7579 1304 820B0000 		.4byte	.LBB389
 7580 1308 24000000 		.4byte	.LBE389-.LBB389
 7581 130c 11       		.uleb128 0x11
 7582 130d 59010000 		.4byte	0x159
 7583 1311 33170000 		.4byte	.LLST176
ARM GAS  C:\Users\JACOB-~1\AppData\Local\Temp\ccGLbPGC.s 			page 165


 7584 1315 13       		.uleb128 0x13
 7585 1316 920B0000 		.4byte	.LBB390
 7586 131a 0E000000 		.4byte	.LBE390-.LBB390
 7587 131e 15       		.uleb128 0x15
 7588 131f A00B0000 		.4byte	.LVL360
 7589 1323 B8250000 		.4byte	0x25b8
 7590 1327 16       		.uleb128 0x16
 7591 1328 01       		.uleb128 0x1
 7592 1329 51       		.byte	0x51
 7593 132a 02       		.uleb128 0x2
 7594 132b 75       		.byte	0x75
 7595 132c 00       		.sleb128 0
 7596 132d 16       		.uleb128 0x16
 7597 132e 01       		.uleb128 0x1
 7598 132f 52       		.byte	0x52
 7599 1330 02       		.uleb128 0x2
 7600 1331 74       		.byte	0x74
 7601 1332 00       		.sleb128 0
 7602 1333 00       		.byte	0
 7603 1334 00       		.byte	0
 7604 1335 00       		.byte	0
 7605 1336 00       		.byte	0
 7606 1337 00       		.byte	0
 7607 1338 00       		.byte	0
 7608 1339 1D       		.uleb128 0x1d
 7609 133a EC000000 		.4byte	0xec
 7610 133e C00B0000 		.4byte	.LBB391
 7611 1342 5E000000 		.4byte	.LBE391-.LBB391
 7612 1346 01       		.byte	0x1
 7613 1347 0803     		.2byte	0x308
 7614 1349 CC130000 		.4byte	0x13cc
 7615 134d 1E       		.uleb128 0x1e
 7616 134e 19010000 		.4byte	0x119
 7617 1352 1E       		.uleb128 0x1e
 7618 1353 0D010000 		.4byte	0x10d
 7619 1357 10       		.uleb128 0x10
 7620 1358 03010000 		.4byte	0x103
 7621 135c 47170000 		.4byte	.LLST177
 7622 1360 10       		.uleb128 0x10
 7623 1361 F9000000 		.4byte	0xf9
 7624 1365 65170000 		.4byte	.LLST178
 7625 1369 13       		.uleb128 0x13
 7626 136a C00B0000 		.4byte	.LBB392
 7627 136e 5E000000 		.4byte	.LBE392-.LBB392
 7628 1372 11       		.uleb128 0x11
 7629 1373 25010000 		.4byte	0x125
 7630 1377 78170000 		.4byte	.LLST179
 7631 137b 11       		.uleb128 0x11
 7632 137c 31010000 		.4byte	0x131
 7633 1380 A3170000 		.4byte	.LLST180
 7634 1384 13       		.uleb128 0x13
 7635 1385 E00B0000 		.4byte	.LBB393
 7636 1389 3E000000 		.4byte	.LBE393-.LBB393
 7637 138d 11       		.uleb128 0x11
 7638 138e 4E010000 		.4byte	0x14e
 7639 1392 B7170000 		.4byte	.LLST181
 7640 1396 13       		.uleb128 0x13
ARM GAS  C:\Users\JACOB-~1\AppData\Local\Temp\ccGLbPGC.s 			page 166


 7641 1397 E00B0000 		.4byte	.LBB394
 7642 139b 24000000 		.4byte	.LBE394-.LBB394
 7643 139f 11       		.uleb128 0x11
 7644 13a0 59010000 		.4byte	0x159
 7645 13a4 CB170000 		.4byte	.LLST182
 7646 13a8 13       		.uleb128 0x13
 7647 13a9 F00B0000 		.4byte	.LBB395
 7648 13ad 0E000000 		.4byte	.LBE395-.LBB395
 7649 13b1 15       		.uleb128 0x15
 7650 13b2 FE0B0000 		.4byte	.LVL369
 7651 13b6 B8250000 		.4byte	0x25b8
 7652 13ba 16       		.uleb128 0x16
 7653 13bb 01       		.uleb128 0x1
 7654 13bc 51       		.byte	0x51
 7655 13bd 02       		.uleb128 0x2
 7656 13be 75       		.byte	0x75
 7657 13bf 00       		.sleb128 0
 7658 13c0 16       		.uleb128 0x16
 7659 13c1 01       		.uleb128 0x1
 7660 13c2 52       		.byte	0x52
 7661 13c3 02       		.uleb128 0x2
 7662 13c4 74       		.byte	0x74
 7663 13c5 00       		.sleb128 0
 7664 13c6 00       		.byte	0
 7665 13c7 00       		.byte	0
 7666 13c8 00       		.byte	0
 7667 13c9 00       		.byte	0
 7668 13ca 00       		.byte	0
 7669 13cb 00       		.byte	0
 7670 13cc 1D       		.uleb128 0x1d
 7671 13cd EC000000 		.4byte	0xec
 7672 13d1 1E0C0000 		.4byte	.LBB396
 7673 13d5 62000000 		.4byte	.LBE396-.LBB396
 7674 13d9 01       		.byte	0x1
 7675 13da 0503     		.2byte	0x305
 7676 13dc 5F140000 		.4byte	0x145f
 7677 13e0 1E       		.uleb128 0x1e
 7678 13e1 19010000 		.4byte	0x119
 7679 13e5 1E       		.uleb128 0x1e
 7680 13e6 0D010000 		.4byte	0x10d
 7681 13ea 10       		.uleb128 0x10
 7682 13eb 03010000 		.4byte	0x103
 7683 13ef DF170000 		.4byte	.LLST183
 7684 13f3 10       		.uleb128 0x10
 7685 13f4 F9000000 		.4byte	0xf9
 7686 13f8 FD170000 		.4byte	.LLST184
 7687 13fc 13       		.uleb128 0x13
 7688 13fd 1E0C0000 		.4byte	.LBB397
 7689 1401 62000000 		.4byte	.LBE397-.LBB397
 7690 1405 11       		.uleb128 0x11
 7691 1406 25010000 		.4byte	0x125
 7692 140a 10180000 		.4byte	.LLST185
 7693 140e 11       		.uleb128 0x11
 7694 140f 31010000 		.4byte	0x131
 7695 1413 3B180000 		.4byte	.LLST186
 7696 1417 13       		.uleb128 0x13
 7697 1418 3E0C0000 		.4byte	.LBB398
ARM GAS  C:\Users\JACOB-~1\AppData\Local\Temp\ccGLbPGC.s 			page 167


 7698 141c 42000000 		.4byte	.LBE398-.LBB398
 7699 1420 11       		.uleb128 0x11
 7700 1421 4E010000 		.4byte	0x14e
 7701 1425 4F180000 		.4byte	.LLST187
 7702 1429 13       		.uleb128 0x13
 7703 142a 3E0C0000 		.4byte	.LBB399
 7704 142e 24000000 		.4byte	.LBE399-.LBB399
 7705 1432 11       		.uleb128 0x11
 7706 1433 59010000 		.4byte	0x159
 7707 1437 63180000 		.4byte	.LLST188
 7708 143b 13       		.uleb128 0x13
 7709 143c 4E0C0000 		.4byte	.LBB400
 7710 1440 0E000000 		.4byte	.LBE400-.LBB400
 7711 1444 15       		.uleb128 0x15
 7712 1445 5C0C0000 		.4byte	.LVL378
 7713 1449 B8250000 		.4byte	0x25b8
 7714 144d 16       		.uleb128 0x16
 7715 144e 01       		.uleb128 0x1
 7716 144f 51       		.byte	0x51
 7717 1450 02       		.uleb128 0x2
 7718 1451 75       		.byte	0x75
 7719 1452 00       		.sleb128 0
 7720 1453 16       		.uleb128 0x16
 7721 1454 01       		.uleb128 0x1
 7722 1455 52       		.byte	0x52
 7723 1456 02       		.uleb128 0x2
 7724 1457 74       		.byte	0x74
 7725 1458 00       		.sleb128 0
 7726 1459 00       		.byte	0
 7727 145a 00       		.byte	0
 7728 145b 00       		.byte	0
 7729 145c 00       		.byte	0
 7730 145d 00       		.byte	0
 7731 145e 00       		.byte	0
 7732 145f 1D       		.uleb128 0x1d
 7733 1460 EC000000 		.4byte	0xec
 7734 1464 800C0000 		.4byte	.LBB401
 7735 1468 5E000000 		.4byte	.LBE401-.LBB401
 7736 146c 01       		.byte	0x1
 7737 146d 0B03     		.2byte	0x30b
 7738 146f F2140000 		.4byte	0x14f2
 7739 1473 1E       		.uleb128 0x1e
 7740 1474 19010000 		.4byte	0x119
 7741 1478 1E       		.uleb128 0x1e
 7742 1479 0D010000 		.4byte	0x10d
 7743 147d 10       		.uleb128 0x10
 7744 147e 03010000 		.4byte	0x103
 7745 1482 77180000 		.4byte	.LLST189
 7746 1486 10       		.uleb128 0x10
 7747 1487 F9000000 		.4byte	0xf9
 7748 148b 95180000 		.4byte	.LLST190
 7749 148f 13       		.uleb128 0x13
 7750 1490 800C0000 		.4byte	.LBB402
 7751 1494 5E000000 		.4byte	.LBE402-.LBB402
 7752 1498 11       		.uleb128 0x11
 7753 1499 25010000 		.4byte	0x125
 7754 149d A8180000 		.4byte	.LLST191
ARM GAS  C:\Users\JACOB-~1\AppData\Local\Temp\ccGLbPGC.s 			page 168


 7755 14a1 11       		.uleb128 0x11
 7756 14a2 31010000 		.4byte	0x131
 7757 14a6 D4180000 		.4byte	.LLST192
 7758 14aa 13       		.uleb128 0x13
 7759 14ab A00C0000 		.4byte	.LBB403
 7760 14af 3E000000 		.4byte	.LBE403-.LBB403
 7761 14b3 11       		.uleb128 0x11
 7762 14b4 4E010000 		.4byte	0x14e
 7763 14b8 E8180000 		.4byte	.LLST193
 7764 14bc 13       		.uleb128 0x13
 7765 14bd A00C0000 		.4byte	.LBB404
 7766 14c1 24000000 		.4byte	.LBE404-.LBB404
 7767 14c5 11       		.uleb128 0x11
 7768 14c6 59010000 		.4byte	0x159
 7769 14ca FC180000 		.4byte	.LLST194
 7770 14ce 13       		.uleb128 0x13
 7771 14cf B00C0000 		.4byte	.LBB405
 7772 14d3 0E000000 		.4byte	.LBE405-.LBB405
 7773 14d7 15       		.uleb128 0x15
 7774 14d8 BE0C0000 		.4byte	.LVL387
 7775 14dc B8250000 		.4byte	0x25b8
 7776 14e0 16       		.uleb128 0x16
 7777 14e1 01       		.uleb128 0x1
 7778 14e2 51       		.byte	0x51
 7779 14e3 02       		.uleb128 0x2
 7780 14e4 75       		.byte	0x75
 7781 14e5 00       		.sleb128 0
 7782 14e6 16       		.uleb128 0x16
 7783 14e7 01       		.uleb128 0x1
 7784 14e8 52       		.byte	0x52
 7785 14e9 02       		.uleb128 0x2
 7786 14ea 74       		.byte	0x74
 7787 14eb 00       		.sleb128 0
 7788 14ec 00       		.byte	0
 7789 14ed 00       		.byte	0
 7790 14ee 00       		.byte	0
 7791 14ef 00       		.byte	0
 7792 14f0 00       		.byte	0
 7793 14f1 00       		.byte	0
 7794 14f2 1D       		.uleb128 0x1d
 7795 14f3 EC000000 		.4byte	0xec
 7796 14f7 DE0C0000 		.4byte	.LBB406
 7797 14fb 5E000000 		.4byte	.LBE406-.LBB406
 7798 14ff 01       		.byte	0x1
 7799 1500 FC02     		.2byte	0x2fc
 7800 1502 85150000 		.4byte	0x1585
 7801 1506 1E       		.uleb128 0x1e
 7802 1507 19010000 		.4byte	0x119
 7803 150b 1E       		.uleb128 0x1e
 7804 150c 0D010000 		.4byte	0x10d
 7805 1510 10       		.uleb128 0x10
 7806 1511 03010000 		.4byte	0x103
 7807 1515 10190000 		.4byte	.LLST195
 7808 1519 10       		.uleb128 0x10
 7809 151a F9000000 		.4byte	0xf9
 7810 151e 2E190000 		.4byte	.LLST196
 7811 1522 13       		.uleb128 0x13
ARM GAS  C:\Users\JACOB-~1\AppData\Local\Temp\ccGLbPGC.s 			page 169


 7812 1523 DE0C0000 		.4byte	.LBB407
 7813 1527 5E000000 		.4byte	.LBE407-.LBB407
 7814 152b 11       		.uleb128 0x11
 7815 152c 25010000 		.4byte	0x125
 7816 1530 41190000 		.4byte	.LLST197
 7817 1534 11       		.uleb128 0x11
 7818 1535 31010000 		.4byte	0x131
 7819 1539 6C190000 		.4byte	.LLST198
 7820 153d 13       		.uleb128 0x13
 7821 153e FE0C0000 		.4byte	.LBB408
 7822 1542 3E000000 		.4byte	.LBE408-.LBB408
 7823 1546 11       		.uleb128 0x11
 7824 1547 4E010000 		.4byte	0x14e
 7825 154b 80190000 		.4byte	.LLST199
 7826 154f 13       		.uleb128 0x13
 7827 1550 FE0C0000 		.4byte	.LBB409
 7828 1554 24000000 		.4byte	.LBE409-.LBB409
 7829 1558 11       		.uleb128 0x11
 7830 1559 59010000 		.4byte	0x159
 7831 155d 94190000 		.4byte	.LLST200
 7832 1561 13       		.uleb128 0x13
 7833 1562 0E0D0000 		.4byte	.LBB410
 7834 1566 0E000000 		.4byte	.LBE410-.LBB410
 7835 156a 15       		.uleb128 0x15
 7836 156b 1C0D0000 		.4byte	.LVL396
 7837 156f B8250000 		.4byte	0x25b8
 7838 1573 16       		.uleb128 0x16
 7839 1574 01       		.uleb128 0x1
 7840 1575 51       		.byte	0x51
 7841 1576 02       		.uleb128 0x2
 7842 1577 75       		.byte	0x75
 7843 1578 00       		.sleb128 0
 7844 1579 16       		.uleb128 0x16
 7845 157a 01       		.uleb128 0x1
 7846 157b 52       		.byte	0x52
 7847 157c 02       		.uleb128 0x2
 7848 157d 74       		.byte	0x74
 7849 157e 00       		.sleb128 0
 7850 157f 00       		.byte	0
 7851 1580 00       		.byte	0
 7852 1581 00       		.byte	0
 7853 1582 00       		.byte	0
 7854 1583 00       		.byte	0
 7855 1584 00       		.byte	0
 7856 1585 1D       		.uleb128 0x1d
 7857 1586 EC000000 		.4byte	0xec
 7858 158a 3C0D0000 		.4byte	.LBB411
 7859 158e 5E000000 		.4byte	.LBE411-.LBB411
 7860 1592 01       		.byte	0x1
 7861 1593 F902     		.2byte	0x2f9
 7862 1595 18160000 		.4byte	0x1618
 7863 1599 1E       		.uleb128 0x1e
 7864 159a 19010000 		.4byte	0x119
 7865 159e 1E       		.uleb128 0x1e
 7866 159f 0D010000 		.4byte	0x10d
 7867 15a3 10       		.uleb128 0x10
 7868 15a4 03010000 		.4byte	0x103
ARM GAS  C:\Users\JACOB-~1\AppData\Local\Temp\ccGLbPGC.s 			page 170


 7869 15a8 A8190000 		.4byte	.LLST201
 7870 15ac 10       		.uleb128 0x10
 7871 15ad F9000000 		.4byte	0xf9
 7872 15b1 C6190000 		.4byte	.LLST202
 7873 15b5 13       		.uleb128 0x13
 7874 15b6 3C0D0000 		.4byte	.LBB412
 7875 15ba 5E000000 		.4byte	.LBE412-.LBB412
 7876 15be 11       		.uleb128 0x11
 7877 15bf 25010000 		.4byte	0x125
 7878 15c3 D9190000 		.4byte	.LLST203
 7879 15c7 11       		.uleb128 0x11
 7880 15c8 31010000 		.4byte	0x131
 7881 15cc 041A0000 		.4byte	.LLST204
 7882 15d0 13       		.uleb128 0x13
 7883 15d1 5C0D0000 		.4byte	.LBB413
 7884 15d5 3E000000 		.4byte	.LBE413-.LBB413
 7885 15d9 11       		.uleb128 0x11
 7886 15da 4E010000 		.4byte	0x14e
 7887 15de 181A0000 		.4byte	.LLST205
 7888 15e2 13       		.uleb128 0x13
 7889 15e3 5C0D0000 		.4byte	.LBB414
 7890 15e7 24000000 		.4byte	.LBE414-.LBB414
 7891 15eb 11       		.uleb128 0x11
 7892 15ec 59010000 		.4byte	0x159
 7893 15f0 2C1A0000 		.4byte	.LLST206
 7894 15f4 13       		.uleb128 0x13
 7895 15f5 6C0D0000 		.4byte	.LBB415
 7896 15f9 0E000000 		.4byte	.LBE415-.LBB415
 7897 15fd 15       		.uleb128 0x15
 7898 15fe 7A0D0000 		.4byte	.LVL405
 7899 1602 B8250000 		.4byte	0x25b8
 7900 1606 16       		.uleb128 0x16
 7901 1607 01       		.uleb128 0x1
 7902 1608 51       		.byte	0x51
 7903 1609 02       		.uleb128 0x2
 7904 160a 75       		.byte	0x75
 7905 160b 00       		.sleb128 0
 7906 160c 16       		.uleb128 0x16
 7907 160d 01       		.uleb128 0x1
 7908 160e 52       		.byte	0x52
 7909 160f 02       		.uleb128 0x2
 7910 1610 74       		.byte	0x74
 7911 1611 00       		.sleb128 0
 7912 1612 00       		.byte	0
 7913 1613 00       		.byte	0
 7914 1614 00       		.byte	0
 7915 1615 00       		.byte	0
 7916 1616 00       		.byte	0
 7917 1617 00       		.byte	0
 7918 1618 1D       		.uleb128 0x1d
 7919 1619 EC000000 		.4byte	0xec
 7920 161d 9A0D0000 		.4byte	.LBB416
 7921 1621 5E000000 		.4byte	.LBE416-.LBB416
 7922 1625 01       		.byte	0x1
 7923 1626 FF02     		.2byte	0x2ff
 7924 1628 AB160000 		.4byte	0x16ab
 7925 162c 1E       		.uleb128 0x1e
ARM GAS  C:\Users\JACOB-~1\AppData\Local\Temp\ccGLbPGC.s 			page 171


 7926 162d 19010000 		.4byte	0x119
 7927 1631 1E       		.uleb128 0x1e
 7928 1632 0D010000 		.4byte	0x10d
 7929 1636 10       		.uleb128 0x10
 7930 1637 03010000 		.4byte	0x103
 7931 163b 401A0000 		.4byte	.LLST207
 7932 163f 10       		.uleb128 0x10
 7933 1640 F9000000 		.4byte	0xf9
 7934 1644 5E1A0000 		.4byte	.LLST208
 7935 1648 13       		.uleb128 0x13
 7936 1649 9A0D0000 		.4byte	.LBB417
 7937 164d 5E000000 		.4byte	.LBE417-.LBB417
 7938 1651 11       		.uleb128 0x11
 7939 1652 25010000 		.4byte	0x125
 7940 1656 711A0000 		.4byte	.LLST209
 7941 165a 11       		.uleb128 0x11
 7942 165b 31010000 		.4byte	0x131
 7943 165f 9C1A0000 		.4byte	.LLST210
 7944 1663 13       		.uleb128 0x13
 7945 1664 BA0D0000 		.4byte	.LBB418
 7946 1668 3E000000 		.4byte	.LBE418-.LBB418
 7947 166c 11       		.uleb128 0x11
 7948 166d 4E010000 		.4byte	0x14e
 7949 1671 B01A0000 		.4byte	.LLST211
 7950 1675 13       		.uleb128 0x13
 7951 1676 BA0D0000 		.4byte	.LBB419
 7952 167a 24000000 		.4byte	.LBE419-.LBB419
 7953 167e 11       		.uleb128 0x11
 7954 167f 59010000 		.4byte	0x159
 7955 1683 C41A0000 		.4byte	.LLST212
 7956 1687 13       		.uleb128 0x13
 7957 1688 CA0D0000 		.4byte	.LBB420
 7958 168c 0E000000 		.4byte	.LBE420-.LBB420
 7959 1690 15       		.uleb128 0x15
 7960 1691 D80D0000 		.4byte	.LVL414
 7961 1695 B8250000 		.4byte	0x25b8
 7962 1699 16       		.uleb128 0x16
 7963 169a 01       		.uleb128 0x1
 7964 169b 51       		.byte	0x51
 7965 169c 02       		.uleb128 0x2
 7966 169d 75       		.byte	0x75
 7967 169e 00       		.sleb128 0
 7968 169f 16       		.uleb128 0x16
 7969 16a0 01       		.uleb128 0x1
 7970 16a1 52       		.byte	0x52
 7971 16a2 02       		.uleb128 0x2
 7972 16a3 74       		.byte	0x74
 7973 16a4 00       		.sleb128 0
 7974 16a5 00       		.byte	0
 7975 16a6 00       		.byte	0
 7976 16a7 00       		.byte	0
 7977 16a8 00       		.byte	0
 7978 16a9 00       		.byte	0
 7979 16aa 00       		.byte	0
 7980 16ab 1D       		.uleb128 0x1d
 7981 16ac EC000000 		.4byte	0xec
 7982 16b0 040E0000 		.4byte	.LBB421
ARM GAS  C:\Users\JACOB-~1\AppData\Local\Temp\ccGLbPGC.s 			page 172


 7983 16b4 66000000 		.4byte	.LBE421-.LBB421
 7984 16b8 01       		.byte	0x1
 7985 16b9 3803     		.2byte	0x338
 7986 16bb 51170000 		.4byte	0x1751
 7987 16bf 1E       		.uleb128 0x1e
 7988 16c0 19010000 		.4byte	0x119
 7989 16c4 1E       		.uleb128 0x1e
 7990 16c5 0D010000 		.4byte	0x10d
 7991 16c9 10       		.uleb128 0x10
 7992 16ca 03010000 		.4byte	0x103
 7993 16ce D81A0000 		.4byte	.LLST213
 7994 16d2 10       		.uleb128 0x10
 7995 16d3 F9000000 		.4byte	0xf9
 7996 16d7 F61A0000 		.4byte	.LLST214
 7997 16db 13       		.uleb128 0x13
 7998 16dc 040E0000 		.4byte	.LBB422
 7999 16e0 66000000 		.4byte	.LBE422-.LBB422
 8000 16e4 11       		.uleb128 0x11
 8001 16e5 25010000 		.4byte	0x125
 8002 16e9 091B0000 		.4byte	.LLST215
 8003 16ed 11       		.uleb128 0x11
 8004 16ee 31010000 		.4byte	0x131
 8005 16f2 4A1B0000 		.4byte	.LLST216
 8006 16f6 1F       		.uleb128 0x1f
 8007 16f7 040E0000 		.4byte	.LBB423
 8008 16fb 0A000000 		.4byte	.LBE423-.LBB423
 8009 16ff 09170000 		.4byte	0x1709
 8010 1703 20       		.uleb128 0x20
 8011 1704 42010000 		.4byte	0x142
 8012 1708 00       		.byte	0
 8013 1709 13       		.uleb128 0x13
 8014 170a 2C0E0000 		.4byte	.LBB424
 8015 170e 3E000000 		.4byte	.LBE424-.LBB424
 8016 1712 11       		.uleb128 0x11
 8017 1713 4E010000 		.4byte	0x14e
 8018 1717 5E1B0000 		.4byte	.LLST217
 8019 171b 13       		.uleb128 0x13
 8020 171c 2C0E0000 		.4byte	.LBB425
 8021 1720 28000000 		.4byte	.LBE425-.LBB425
 8022 1724 11       		.uleb128 0x11
 8023 1725 59010000 		.4byte	0x159
 8024 1729 721B0000 		.4byte	.LLST218
 8025 172d 13       		.uleb128 0x13
 8026 172e 400E0000 		.4byte	.LBB426
 8027 1732 0E000000 		.4byte	.LBE426-.LBB426
 8028 1736 15       		.uleb128 0x15
 8029 1737 4E0E0000 		.4byte	.LVL429
 8030 173b B8250000 		.4byte	0x25b8
 8031 173f 16       		.uleb128 0x16
 8032 1740 01       		.uleb128 0x1
 8033 1741 51       		.byte	0x51
 8034 1742 02       		.uleb128 0x2
 8035 1743 75       		.byte	0x75
 8036 1744 00       		.sleb128 0
 8037 1745 16       		.uleb128 0x16
 8038 1746 01       		.uleb128 0x1
 8039 1747 52       		.byte	0x52
ARM GAS  C:\Users\JACOB-~1\AppData\Local\Temp\ccGLbPGC.s 			page 173


 8040 1748 02       		.uleb128 0x2
 8041 1749 74       		.byte	0x74
 8042 174a 00       		.sleb128 0
 8043 174b 00       		.byte	0
 8044 174c 00       		.byte	0
 8045 174d 00       		.byte	0
 8046 174e 00       		.byte	0
 8047 174f 00       		.byte	0
 8048 1750 00       		.byte	0
 8049 1751 1D       		.uleb128 0x1d
 8050 1752 EC000000 		.4byte	0xec
 8051 1756 760E0000 		.4byte	.LBB427
 8052 175a 66000000 		.4byte	.LBE427-.LBB427
 8053 175e 01       		.byte	0x1
 8054 175f 3503     		.2byte	0x335
 8055 1761 F7170000 		.4byte	0x17f7
 8056 1765 1E       		.uleb128 0x1e
 8057 1766 19010000 		.4byte	0x119
 8058 176a 1E       		.uleb128 0x1e
 8059 176b 0D010000 		.4byte	0x10d
 8060 176f 10       		.uleb128 0x10
 8061 1770 03010000 		.4byte	0x103
 8062 1774 861B0000 		.4byte	.LLST219
 8063 1778 10       		.uleb128 0x10
 8064 1779 F9000000 		.4byte	0xf9
 8065 177d A41B0000 		.4byte	.LLST220
 8066 1781 13       		.uleb128 0x13
 8067 1782 760E0000 		.4byte	.LBB428
 8068 1786 66000000 		.4byte	.LBE428-.LBB428
 8069 178a 11       		.uleb128 0x11
 8070 178b 25010000 		.4byte	0x125
 8071 178f B71B0000 		.4byte	.LLST221
 8072 1793 11       		.uleb128 0x11
 8073 1794 31010000 		.4byte	0x131
 8074 1798 F81B0000 		.4byte	.LLST222
 8075 179c 1F       		.uleb128 0x1f
 8076 179d 760E0000 		.4byte	.LBB429
 8077 17a1 0A000000 		.4byte	.LBE429-.LBB429
 8078 17a5 AF170000 		.4byte	0x17af
 8079 17a9 20       		.uleb128 0x20
 8080 17aa 42010000 		.4byte	0x142
 8081 17ae 00       		.byte	0
 8082 17af 13       		.uleb128 0x13
 8083 17b0 9E0E0000 		.4byte	.LBB430
 8084 17b4 3E000000 		.4byte	.LBE430-.LBB430
 8085 17b8 11       		.uleb128 0x11
 8086 17b9 4E010000 		.4byte	0x14e
 8087 17bd 0C1C0000 		.4byte	.LLST223
 8088 17c1 13       		.uleb128 0x13
 8089 17c2 9E0E0000 		.4byte	.LBB431
 8090 17c6 28000000 		.4byte	.LBE431-.LBB431
 8091 17ca 11       		.uleb128 0x11
 8092 17cb 59010000 		.4byte	0x159
 8093 17cf 201C0000 		.4byte	.LLST224
 8094 17d3 13       		.uleb128 0x13
 8095 17d4 B20E0000 		.4byte	.LBB432
 8096 17d8 0E000000 		.4byte	.LBE432-.LBB432
ARM GAS  C:\Users\JACOB-~1\AppData\Local\Temp\ccGLbPGC.s 			page 174


 8097 17dc 15       		.uleb128 0x15
 8098 17dd C00E0000 		.4byte	.LVL444
 8099 17e1 B8250000 		.4byte	0x25b8
 8100 17e5 16       		.uleb128 0x16
 8101 17e6 01       		.uleb128 0x1
 8102 17e7 51       		.byte	0x51
 8103 17e8 02       		.uleb128 0x2
 8104 17e9 75       		.byte	0x75
 8105 17ea 00       		.sleb128 0
 8106 17eb 16       		.uleb128 0x16
 8107 17ec 01       		.uleb128 0x1
 8108 17ed 52       		.byte	0x52
 8109 17ee 02       		.uleb128 0x2
 8110 17ef 74       		.byte	0x74
 8111 17f0 00       		.sleb128 0
 8112 17f1 00       		.byte	0
 8113 17f2 00       		.byte	0
 8114 17f3 00       		.byte	0
 8115 17f4 00       		.byte	0
 8116 17f5 00       		.byte	0
 8117 17f6 00       		.byte	0
 8118 17f7 1D       		.uleb128 0x1d
 8119 17f8 EC000000 		.4byte	0xec
 8120 17fc E80E0000 		.4byte	.LBB433
 8121 1800 66000000 		.4byte	.LBE433-.LBB433
 8122 1804 01       		.byte	0x1
 8123 1805 3B03     		.2byte	0x33b
 8124 1807 9D180000 		.4byte	0x189d
 8125 180b 1E       		.uleb128 0x1e
 8126 180c 19010000 		.4byte	0x119
 8127 1810 1E       		.uleb128 0x1e
 8128 1811 0D010000 		.4byte	0x10d
 8129 1815 10       		.uleb128 0x10
 8130 1816 03010000 		.4byte	0x103
 8131 181a 341C0000 		.4byte	.LLST225
 8132 181e 10       		.uleb128 0x10
 8133 181f F9000000 		.4byte	0xf9
 8134 1823 521C0000 		.4byte	.LLST226
 8135 1827 13       		.uleb128 0x13
 8136 1828 E80E0000 		.4byte	.LBB434
 8137 182c 66000000 		.4byte	.LBE434-.LBB434
 8138 1830 11       		.uleb128 0x11
 8139 1831 25010000 		.4byte	0x125
 8140 1835 651C0000 		.4byte	.LLST227
 8141 1839 11       		.uleb128 0x11
 8142 183a 31010000 		.4byte	0x131
 8143 183e A61C0000 		.4byte	.LLST228
 8144 1842 1F       		.uleb128 0x1f
 8145 1843 E80E0000 		.4byte	.LBB435
 8146 1847 0A000000 		.4byte	.LBE435-.LBB435
 8147 184b 55180000 		.4byte	0x1855
 8148 184f 20       		.uleb128 0x20
 8149 1850 42010000 		.4byte	0x142
 8150 1854 00       		.byte	0
 8151 1855 13       		.uleb128 0x13
 8152 1856 100F0000 		.4byte	.LBB436
 8153 185a 3E000000 		.4byte	.LBE436-.LBB436
ARM GAS  C:\Users\JACOB-~1\AppData\Local\Temp\ccGLbPGC.s 			page 175


 8154 185e 11       		.uleb128 0x11
 8155 185f 4E010000 		.4byte	0x14e
 8156 1863 BA1C0000 		.4byte	.LLST229
 8157 1867 13       		.uleb128 0x13
 8158 1868 100F0000 		.4byte	.LBB437
 8159 186c 28000000 		.4byte	.LBE437-.LBB437
 8160 1870 11       		.uleb128 0x11
 8161 1871 59010000 		.4byte	0x159
 8162 1875 CE1C0000 		.4byte	.LLST230
 8163 1879 13       		.uleb128 0x13
 8164 187a 240F0000 		.4byte	.LBB438
 8165 187e 0E000000 		.4byte	.LBE438-.LBB438
 8166 1882 15       		.uleb128 0x15
 8167 1883 320F0000 		.4byte	.LVL459
 8168 1887 B8250000 		.4byte	0x25b8
 8169 188b 16       		.uleb128 0x16
 8170 188c 01       		.uleb128 0x1
 8171 188d 51       		.byte	0x51
 8172 188e 02       		.uleb128 0x2
 8173 188f 75       		.byte	0x75
 8174 1890 00       		.sleb128 0
 8175 1891 16       		.uleb128 0x16
 8176 1892 01       		.uleb128 0x1
 8177 1893 52       		.byte	0x52
 8178 1894 02       		.uleb128 0x2
 8179 1895 74       		.byte	0x74
 8180 1896 00       		.sleb128 0
 8181 1897 00       		.byte	0
 8182 1898 00       		.byte	0
 8183 1899 00       		.byte	0
 8184 189a 00       		.byte	0
 8185 189b 00       		.byte	0
 8186 189c 00       		.byte	0
 8187 189d 1D       		.uleb128 0x1d
 8188 189e EC000000 		.4byte	0xec
 8189 18a2 5A0F0000 		.4byte	.LBB439
 8190 18a6 66000000 		.4byte	.LBE439-.LBB439
 8191 18aa 01       		.byte	0x1
 8192 18ab 2303     		.2byte	0x323
 8193 18ad 43190000 		.4byte	0x1943
 8194 18b1 1E       		.uleb128 0x1e
 8195 18b2 19010000 		.4byte	0x119
 8196 18b6 1E       		.uleb128 0x1e
 8197 18b7 0D010000 		.4byte	0x10d
 8198 18bb 10       		.uleb128 0x10
 8199 18bc 03010000 		.4byte	0x103
 8200 18c0 E21C0000 		.4byte	.LLST231
 8201 18c4 10       		.uleb128 0x10
 8202 18c5 F9000000 		.4byte	0xf9
 8203 18c9 001D0000 		.4byte	.LLST232
 8204 18cd 13       		.uleb128 0x13
 8205 18ce 5A0F0000 		.4byte	.LBB440
 8206 18d2 66000000 		.4byte	.LBE440-.LBB440
 8207 18d6 11       		.uleb128 0x11
 8208 18d7 25010000 		.4byte	0x125
 8209 18db 131D0000 		.4byte	.LLST233
 8210 18df 11       		.uleb128 0x11
ARM GAS  C:\Users\JACOB-~1\AppData\Local\Temp\ccGLbPGC.s 			page 176


 8211 18e0 31010000 		.4byte	0x131
 8212 18e4 541D0000 		.4byte	.LLST234
 8213 18e8 1F       		.uleb128 0x1f
 8214 18e9 5A0F0000 		.4byte	.LBB441
 8215 18ed 0A000000 		.4byte	.LBE441-.LBB441
 8216 18f1 FB180000 		.4byte	0x18fb
 8217 18f5 20       		.uleb128 0x20
 8218 18f6 42010000 		.4byte	0x142
 8219 18fa 00       		.byte	0
 8220 18fb 13       		.uleb128 0x13
 8221 18fc 820F0000 		.4byte	.LBB442
 8222 1900 3E000000 		.4byte	.LBE442-.LBB442
 8223 1904 11       		.uleb128 0x11
 8224 1905 4E010000 		.4byte	0x14e
 8225 1909 681D0000 		.4byte	.LLST235
 8226 190d 13       		.uleb128 0x13
 8227 190e 820F0000 		.4byte	.LBB443
 8228 1912 28000000 		.4byte	.LBE443-.LBB443
 8229 1916 11       		.uleb128 0x11
 8230 1917 59010000 		.4byte	0x159
 8231 191b 7C1D0000 		.4byte	.LLST236
 8232 191f 13       		.uleb128 0x13
 8233 1920 960F0000 		.4byte	.LBB444
 8234 1924 0E000000 		.4byte	.LBE444-.LBB444
 8235 1928 15       		.uleb128 0x15
 8236 1929 A40F0000 		.4byte	.LVL474
 8237 192d B8250000 		.4byte	0x25b8
 8238 1931 16       		.uleb128 0x16
 8239 1932 01       		.uleb128 0x1
 8240 1933 51       		.byte	0x51
 8241 1934 02       		.uleb128 0x2
 8242 1935 75       		.byte	0x75
 8243 1936 00       		.sleb128 0
 8244 1937 16       		.uleb128 0x16
 8245 1938 01       		.uleb128 0x1
 8246 1939 52       		.byte	0x52
 8247 193a 02       		.uleb128 0x2
 8248 193b 74       		.byte	0x74
 8249 193c 00       		.sleb128 0
 8250 193d 00       		.byte	0
 8251 193e 00       		.byte	0
 8252 193f 00       		.byte	0
 8253 1940 00       		.byte	0
 8254 1941 00       		.byte	0
 8255 1942 00       		.byte	0
 8256 1943 21       		.uleb128 0x21
 8257 1944 EC000000 		.4byte	0xec
 8258 1948 CC0F0000 		.4byte	.LBB445
 8259 194c 66000000 		.4byte	.LBE445-.LBB445
 8260 1950 01       		.byte	0x1
 8261 1951 2903     		.2byte	0x329
 8262 1953 1E       		.uleb128 0x1e
 8263 1954 19010000 		.4byte	0x119
 8264 1958 1E       		.uleb128 0x1e
 8265 1959 0D010000 		.4byte	0x10d
 8266 195d 10       		.uleb128 0x10
 8267 195e 03010000 		.4byte	0x103
ARM GAS  C:\Users\JACOB-~1\AppData\Local\Temp\ccGLbPGC.s 			page 177


 8268 1962 901D0000 		.4byte	.LLST237
 8269 1966 22       		.uleb128 0x22
 8270 1967 F9000000 		.4byte	0xf9
 8271 196b 01       		.uleb128 0x1
 8272 196c 57       		.byte	0x57
 8273 196d 13       		.uleb128 0x13
 8274 196e CC0F0000 		.4byte	.LBB446
 8275 1972 66000000 		.4byte	.LBE446-.LBB446
 8276 1976 11       		.uleb128 0x11
 8277 1977 25010000 		.4byte	0x125
 8278 197b AE1D0000 		.4byte	.LLST238
 8279 197f 23       		.uleb128 0x23
 8280 1980 31010000 		.4byte	0x131
 8281 1984 07       		.byte	0x7
 8282 1985 1F       		.uleb128 0x1f
 8283 1986 CC0F0000 		.4byte	.LBB447
 8284 198a 0A000000 		.4byte	.LBE447-.LBB447
 8285 198e 98190000 		.4byte	0x1998
 8286 1992 20       		.uleb128 0x20
 8287 1993 42010000 		.4byte	0x142
 8288 1997 00       		.byte	0
 8289 1998 13       		.uleb128 0x13
 8290 1999 F40F0000 		.4byte	.LBB448
 8291 199d 3E000000 		.4byte	.LBE448-.LBB448
 8292 19a1 11       		.uleb128 0x11
 8293 19a2 4E010000 		.4byte	0x14e
 8294 19a6 EF1D0000 		.4byte	.LLST239
 8295 19aa 13       		.uleb128 0x13
 8296 19ab F40F0000 		.4byte	.LBB449
 8297 19af 28000000 		.4byte	.LBE449-.LBB449
 8298 19b3 11       		.uleb128 0x11
 8299 19b4 59010000 		.4byte	0x159
 8300 19b8 031E0000 		.4byte	.LLST240
 8301 19bc 13       		.uleb128 0x13
 8302 19bd 08100000 		.4byte	.LBB450
 8303 19c1 0E000000 		.4byte	.LBE450-.LBB450
 8304 19c5 15       		.uleb128 0x15
 8305 19c6 16100000 		.4byte	.LVL489
 8306 19ca B8250000 		.4byte	0x25b8
 8307 19ce 16       		.uleb128 0x16
 8308 19cf 01       		.uleb128 0x1
 8309 19d0 51       		.byte	0x51
 8310 19d1 02       		.uleb128 0x2
 8311 19d2 75       		.byte	0x75
 8312 19d3 00       		.sleb128 0
 8313 19d4 16       		.uleb128 0x16
 8314 19d5 01       		.uleb128 0x1
 8315 19d6 52       		.byte	0x52
 8316 19d7 02       		.uleb128 0x2
 8317 19d8 74       		.byte	0x74
 8318 19d9 00       		.sleb128 0
 8319 19da 00       		.byte	0
 8320 19db 00       		.byte	0
 8321 19dc 00       		.byte	0
 8322 19dd 00       		.byte	0
 8323 19de 00       		.byte	0
 8324 19df 00       		.byte	0
ARM GAS  C:\Users\JACOB-~1\AppData\Local\Temp\ccGLbPGC.s 			page 178


 8325 19e0 00       		.byte	0
 8326 19e1 00       		.byte	0
 8327 19e2 24       		.uleb128 0x24
 8328 19e3 33030000 		.4byte	.LASF29
 8329 19e7 01       		.byte	0x1
 8330 19e8 6803     		.2byte	0x368
 8331 19ea 00000000 		.4byte	.LFB66
 8332 19ee 3C040000 		.4byte	.LFE66-.LFB66
 8333 19f2 01       		.uleb128 0x1
 8334 19f3 9C       		.byte	0x9c
 8335 19f4 511E0000 		.4byte	0x1e51
 8336 19f8 18       		.uleb128 0x18
 8337 19f9 7800     		.ascii	"x\000"
 8338 19fb 01       		.byte	0x1
 8339 19fc 6803     		.2byte	0x368
 8340 19fe A9000000 		.4byte	0xa9
 8341 1a02 171E0000 		.4byte	.LLST241
 8342 1a06 18       		.uleb128 0x18
 8343 1a07 7900     		.ascii	"y\000"
 8344 1a09 01       		.byte	0x1
 8345 1a0a 6803     		.2byte	0x368
 8346 1a0c A9000000 		.4byte	0xa9
 8347 1a10 381E0000 		.4byte	.LLST242
 8348 1a14 19       		.uleb128 0x19
 8349 1a15 A5000000 		.4byte	.LASF22
 8350 1a19 01       		.byte	0x1
 8351 1a1a 6803     		.2byte	0x368
 8352 1a1c B4000000 		.4byte	0xb4
 8353 1a20 591E0000 		.4byte	.LLST243
 8354 1a24 19       		.uleb128 0x19
 8355 1a25 C6030000 		.4byte	.LASF30
 8356 1a29 01       		.byte	0x1
 8357 1a2a 6803     		.2byte	0x368
 8358 1a2c 25000000 		.4byte	0x25
 8359 1a30 7A1E0000 		.4byte	.LLST244
 8360 1a34 1A       		.uleb128 0x1a
 8361 1a35 1C010000 		.4byte	.LASF31
 8362 1a39 01       		.byte	0x1
 8363 1a3a 6C03     		.2byte	0x36c
 8364 1a3c 2C000000 		.4byte	0x2c
 8365 1a40 BE1E0000 		.4byte	.LLST245
 8366 1a44 1A       		.uleb128 0x1a
 8367 1a45 B6000000 		.4byte	.LASF32
 8368 1a49 01       		.byte	0x1
 8369 1a4a 6D03     		.2byte	0x36d
 8370 1a4c 2C000000 		.4byte	0x2c
 8371 1a50 E71E0000 		.4byte	.LLST246
 8372 1a54 1A       		.uleb128 0x1a
 8373 1a55 F1020000 		.4byte	.LASF33
 8374 1a59 01       		.byte	0x1
 8375 1a5a 6E03     		.2byte	0x36e
 8376 1a5c 2C000000 		.4byte	0x2c
 8377 1a60 1E1F0000 		.4byte	.LLST247
 8378 1a64 1A       		.uleb128 0x1a
 8379 1a65 AB000000 		.4byte	.LASF34
 8380 1a69 01       		.byte	0x1
 8381 1a6a 6F03     		.2byte	0x36f
ARM GAS  C:\Users\JACOB-~1\AppData\Local\Temp\ccGLbPGC.s 			page 179


 8382 1a6c 2C000000 		.4byte	0x2c
 8383 1a70 3D1F0000 		.4byte	.LLST248
 8384 1a74 1A       		.uleb128 0x1a
 8385 1a75 DA030000 		.4byte	.LASF35
 8386 1a79 01       		.byte	0x1
 8387 1a7a 7003     		.2byte	0x370
 8388 1a7c 2C000000 		.4byte	0x2c
 8389 1a80 5C1F0000 		.4byte	.LLST249
 8390 1a84 09       		.uleb128 0x9
 8391 1a85 CC010000 		.4byte	.LASF36
 8392 1a89 01       		.byte	0x1
 8393 1a8a 7203     		.2byte	0x372
 8394 1a8c 2C000000 		.4byte	0x2c
 8395 1a90 25       		.uleb128 0x25
 8396 1a91 EC000000 		.4byte	0xec
 8397 1a95 F0000000 		.4byte	.LBB488
 8398 1a99 30000000 		.4byte	.Ldebug_ranges0+0x30
 8399 1a9d 01       		.byte	0x1
 8400 1a9e 7F03     		.2byte	0x37f
 8401 1aa0 3A1B0000 		.4byte	0x1b3a
 8402 1aa4 10       		.uleb128 0x10
 8403 1aa5 19010000 		.4byte	0x119
 8404 1aa9 9D1F0000 		.4byte	.LLST250
 8405 1aad 10       		.uleb128 0x10
 8406 1aae 0D010000 		.4byte	0x10d
 8407 1ab2 BD1F0000 		.4byte	.LLST251
 8408 1ab6 10       		.uleb128 0x10
 8409 1ab7 03010000 		.4byte	0x103
 8410 1abb DB1F0000 		.4byte	.LLST252
 8411 1abf 10       		.uleb128 0x10
 8412 1ac0 F9000000 		.4byte	0xf9
 8413 1ac4 F91F0000 		.4byte	.LLST253
 8414 1ac8 1B       		.uleb128 0x1b
 8415 1ac9 30000000 		.4byte	.Ldebug_ranges0+0x30
 8416 1acd 11       		.uleb128 0x11
 8417 1ace 25010000 		.4byte	0x125
 8418 1ad2 44200000 		.4byte	.LLST254
 8419 1ad6 11       		.uleb128 0x11
 8420 1ad7 31010000 		.4byte	0x131
 8421 1adb 90200000 		.4byte	.LLST255
 8422 1adf 12       		.uleb128 0x12
 8423 1ae0 48000000 		.4byte	.Ldebug_ranges0+0x48
 8424 1ae4 F21A0000 		.4byte	0x1af2
 8425 1ae8 11       		.uleb128 0x11
 8426 1ae9 42010000 		.4byte	0x142
 8427 1aed B0200000 		.4byte	.LLST256
 8428 1af1 00       		.byte	0
 8429 1af2 13       		.uleb128 0x13
 8430 1af3 36010000 		.4byte	.LBB491
 8431 1af7 46000000 		.4byte	.LBE491-.LBB491
 8432 1afb 11       		.uleb128 0x11
 8433 1afc 4E010000 		.4byte	0x14e
 8434 1b00 F3200000 		.4byte	.LLST257
 8435 1b04 13       		.uleb128 0x13
 8436 1b05 36010000 		.4byte	.LBB492
 8437 1b09 20000000 		.4byte	.LBE492-.LBB492
 8438 1b0d 11       		.uleb128 0x11
ARM GAS  C:\Users\JACOB-~1\AppData\Local\Temp\ccGLbPGC.s 			page 180


 8439 1b0e 59010000 		.4byte	0x159
 8440 1b12 07210000 		.4byte	.LLST258
 8441 1b16 13       		.uleb128 0x13
 8442 1b17 42010000 		.4byte	.LBB493
 8443 1b1b 0E000000 		.4byte	.LBE493-.LBB493
 8444 1b1f 15       		.uleb128 0x15
 8445 1b20 50010000 		.4byte	.LVL542
 8446 1b24 B8250000 		.4byte	0x25b8
 8447 1b28 16       		.uleb128 0x16
 8448 1b29 01       		.uleb128 0x1
 8449 1b2a 51       		.byte	0x51
 8450 1b2b 02       		.uleb128 0x2
 8451 1b2c 76       		.byte	0x76
 8452 1b2d 00       		.sleb128 0
 8453 1b2e 16       		.uleb128 0x16
 8454 1b2f 01       		.uleb128 0x1
 8455 1b30 52       		.byte	0x52
 8456 1b31 02       		.uleb128 0x2
 8457 1b32 74       		.byte	0x74
 8458 1b33 00       		.sleb128 0
 8459 1b34 00       		.byte	0
 8460 1b35 00       		.byte	0
 8461 1b36 00       		.byte	0
 8462 1b37 00       		.byte	0
 8463 1b38 00       		.byte	0
 8464 1b39 00       		.byte	0
 8465 1b3a 1D       		.uleb128 0x1d
 8466 1b3b EC000000 		.4byte	0xec
 8467 1b3f 7C010000 		.4byte	.LBB496
 8468 1b43 6C000000 		.4byte	.LBE496-.LBB496
 8469 1b47 01       		.byte	0x1
 8470 1b48 8003     		.2byte	0x380
 8471 1b4a E01B0000 		.4byte	0x1be0
 8472 1b4e 1E       		.uleb128 0x1e
 8473 1b4f 19010000 		.4byte	0x119
 8474 1b53 1E       		.uleb128 0x1e
 8475 1b54 0D010000 		.4byte	0x10d
 8476 1b58 10       		.uleb128 0x10
 8477 1b59 03010000 		.4byte	0x103
 8478 1b5d 1B210000 		.4byte	.LLST259
 8479 1b61 10       		.uleb128 0x10
 8480 1b62 F9000000 		.4byte	0xf9
 8481 1b66 2E210000 		.4byte	.LLST260
 8482 1b6a 13       		.uleb128 0x13
 8483 1b6b 7C010000 		.4byte	.LBB497
 8484 1b6f 6C000000 		.4byte	.LBE497-.LBB497
 8485 1b73 11       		.uleb128 0x11
 8486 1b74 25010000 		.4byte	0x125
 8487 1b78 7C210000 		.4byte	.LLST261
 8488 1b7c 11       		.uleb128 0x11
 8489 1b7d 31010000 		.4byte	0x131
 8490 1b81 D3210000 		.4byte	.LLST262
 8491 1b85 1F       		.uleb128 0x1f
 8492 1b86 7C010000 		.4byte	.LBB498
 8493 1b8a 0C000000 		.4byte	.LBE498-.LBB498
 8494 1b8e 981B0000 		.4byte	0x1b98
 8495 1b92 20       		.uleb128 0x20
ARM GAS  C:\Users\JACOB-~1\AppData\Local\Temp\ccGLbPGC.s 			page 181


 8496 1b93 42010000 		.4byte	0x142
 8497 1b97 00       		.byte	0
 8498 1b98 13       		.uleb128 0x13
 8499 1b99 9E010000 		.4byte	.LBB499
 8500 1b9d 4A000000 		.4byte	.LBE499-.LBB499
 8501 1ba1 11       		.uleb128 0x11
 8502 1ba2 4E010000 		.4byte	0x14e
 8503 1ba6 F3210000 		.4byte	.LLST263
 8504 1baa 13       		.uleb128 0x13
 8505 1bab 9E010000 		.4byte	.LBB500
 8506 1baf 2E000000 		.4byte	.LBE500-.LBB500
 8507 1bb3 11       		.uleb128 0x11
 8508 1bb4 59010000 		.4byte	0x159
 8509 1bb8 07220000 		.4byte	.LLST264
 8510 1bbc 13       		.uleb128 0x13
 8511 1bbd BA010000 		.4byte	.LBB501
 8512 1bc1 0E000000 		.4byte	.LBE501-.LBB501
 8513 1bc5 15       		.uleb128 0x15
 8514 1bc6 C8010000 		.4byte	.LVL559
 8515 1bca B8250000 		.4byte	0x25b8
 8516 1bce 16       		.uleb128 0x16
 8517 1bcf 01       		.uleb128 0x1
 8518 1bd0 51       		.byte	0x51
 8519 1bd1 02       		.uleb128 0x2
 8520 1bd2 75       		.byte	0x75
 8521 1bd3 00       		.sleb128 0
 8522 1bd4 16       		.uleb128 0x16
 8523 1bd5 01       		.uleb128 0x1
 8524 1bd6 52       		.byte	0x52
 8525 1bd7 02       		.uleb128 0x2
 8526 1bd8 74       		.byte	0x74
 8527 1bd9 00       		.sleb128 0
 8528 1bda 00       		.byte	0
 8529 1bdb 00       		.byte	0
 8530 1bdc 00       		.byte	0
 8531 1bdd 00       		.byte	0
 8532 1bde 00       		.byte	0
 8533 1bdf 00       		.byte	0
 8534 1be0 25       		.uleb128 0x25
 8535 1be1 EC000000 		.4byte	0xec
 8536 1be5 E8010000 		.4byte	.LBB502
 8537 1be9 60000000 		.4byte	.Ldebug_ranges0+0x60
 8538 1bed 01       		.byte	0x1
 8539 1bee 8103     		.2byte	0x381
 8540 1bf0 7E1C0000 		.4byte	0x1c7e
 8541 1bf4 1E       		.uleb128 0x1e
 8542 1bf5 19010000 		.4byte	0x119
 8543 1bf9 1E       		.uleb128 0x1e
 8544 1bfa 0D010000 		.4byte	0x10d
 8545 1bfe 10       		.uleb128 0x10
 8546 1bff 03010000 		.4byte	0x103
 8547 1c03 1B220000 		.4byte	.LLST265
 8548 1c07 10       		.uleb128 0x10
 8549 1c08 F9000000 		.4byte	0xf9
 8550 1c0c 44220000 		.4byte	.LLST266
 8551 1c10 1B       		.uleb128 0x1b
 8552 1c11 60000000 		.4byte	.Ldebug_ranges0+0x60
ARM GAS  C:\Users\JACOB-~1\AppData\Local\Temp\ccGLbPGC.s 			page 182


 8553 1c15 11       		.uleb128 0x11
 8554 1c16 25010000 		.4byte	0x125
 8555 1c1a 82220000 		.4byte	.LLST267
 8556 1c1e 11       		.uleb128 0x11
 8557 1c1f 31010000 		.4byte	0x131
 8558 1c23 D9220000 		.4byte	.LLST268
 8559 1c27 12       		.uleb128 0x12
 8560 1c28 78000000 		.4byte	.Ldebug_ranges0+0x78
 8561 1c2c 3A1C0000 		.4byte	0x1c3a
 8562 1c30 11       		.uleb128 0x11
 8563 1c31 42010000 		.4byte	0x142
 8564 1c35 05230000 		.4byte	.LLST269
 8565 1c39 00       		.byte	0
 8566 1c3a 13       		.uleb128 0x13
 8567 1c3b 24020000 		.4byte	.LBB505
 8568 1c3f 3C000000 		.4byte	.LBE505-.LBB505
 8569 1c43 20       		.uleb128 0x20
 8570 1c44 4E010000 		.4byte	0x14e
 8571 1c48 13       		.uleb128 0x13
 8572 1c49 24020000 		.4byte	.LBB506
 8573 1c4d 20000000 		.4byte	.LBE506-.LBB506
 8574 1c51 11       		.uleb128 0x11
 8575 1c52 59010000 		.4byte	0x159
 8576 1c56 48230000 		.4byte	.LLST270
 8577 1c5a 13       		.uleb128 0x13
 8578 1c5b 30020000 		.4byte	.LBB507
 8579 1c5f 0E000000 		.4byte	.LBE507-.LBB507
 8580 1c63 15       		.uleb128 0x15
 8581 1c64 3E020000 		.4byte	.LVL574
 8582 1c68 B8250000 		.4byte	0x25b8
 8583 1c6c 16       		.uleb128 0x16
 8584 1c6d 01       		.uleb128 0x1
 8585 1c6e 51       		.byte	0x51
 8586 1c6f 02       		.uleb128 0x2
 8587 1c70 76       		.byte	0x76
 8588 1c71 00       		.sleb128 0
 8589 1c72 16       		.uleb128 0x16
 8590 1c73 01       		.uleb128 0x1
 8591 1c74 52       		.byte	0x52
 8592 1c75 02       		.uleb128 0x2
 8593 1c76 74       		.byte	0x74
 8594 1c77 00       		.sleb128 0
 8595 1c78 00       		.byte	0
 8596 1c79 00       		.byte	0
 8597 1c7a 00       		.byte	0
 8598 1c7b 00       		.byte	0
 8599 1c7c 00       		.byte	0
 8600 1c7d 00       		.byte	0
 8601 1c7e 25       		.uleb128 0x25
 8602 1c7f EC000000 		.4byte	0xec
 8603 1c83 60020000 		.4byte	.LBB510
 8604 1c87 90000000 		.4byte	.Ldebug_ranges0+0x90
 8605 1c8b 01       		.byte	0x1
 8606 1c8c 8203     		.2byte	0x382
 8607 1c8e 1C1D0000 		.4byte	0x1d1c
 8608 1c92 1E       		.uleb128 0x1e
 8609 1c93 19010000 		.4byte	0x119
ARM GAS  C:\Users\JACOB-~1\AppData\Local\Temp\ccGLbPGC.s 			page 183


 8610 1c97 1E       		.uleb128 0x1e
 8611 1c98 0D010000 		.4byte	0x10d
 8612 1c9c 10       		.uleb128 0x10
 8613 1c9d 03010000 		.4byte	0x103
 8614 1ca1 5C230000 		.4byte	.LLST271
 8615 1ca5 10       		.uleb128 0x10
 8616 1ca6 F9000000 		.4byte	0xf9
 8617 1caa 85230000 		.4byte	.LLST272
 8618 1cae 1B       		.uleb128 0x1b
 8619 1caf 90000000 		.4byte	.Ldebug_ranges0+0x90
 8620 1cb3 11       		.uleb128 0x11
 8621 1cb4 25010000 		.4byte	0x125
 8622 1cb8 C3230000 		.4byte	.LLST273
 8623 1cbc 11       		.uleb128 0x11
 8624 1cbd 31010000 		.4byte	0x131
 8625 1cc1 1A240000 		.4byte	.LLST274
 8626 1cc5 12       		.uleb128 0x12
 8627 1cc6 A8000000 		.4byte	.Ldebug_ranges0+0xa8
 8628 1cca D81C0000 		.4byte	0x1cd8
 8629 1cce 11       		.uleb128 0x11
 8630 1ccf 42010000 		.4byte	0x142
 8631 1cd3 3A240000 		.4byte	.LLST275
 8632 1cd7 00       		.byte	0
 8633 1cd8 13       		.uleb128 0x13
 8634 1cd9 9C020000 		.4byte	.LBB513
 8635 1cdd 3C000000 		.4byte	.LBE513-.LBB513
 8636 1ce1 20       		.uleb128 0x20
 8637 1ce2 4E010000 		.4byte	0x14e
 8638 1ce6 13       		.uleb128 0x13
 8639 1ce7 9C020000 		.4byte	.LBB514
 8640 1ceb 20000000 		.4byte	.LBE514-.LBB514
 8641 1cef 11       		.uleb128 0x11
 8642 1cf0 59010000 		.4byte	0x159
 8643 1cf4 7D240000 		.4byte	.LLST276
 8644 1cf8 13       		.uleb128 0x13
 8645 1cf9 A8020000 		.4byte	.LBB515
 8646 1cfd 0E000000 		.4byte	.LBE515-.LBB515
 8647 1d01 15       		.uleb128 0x15
 8648 1d02 B6020000 		.4byte	.LVL592
 8649 1d06 B8250000 		.4byte	0x25b8
 8650 1d0a 16       		.uleb128 0x16
 8651 1d0b 01       		.uleb128 0x1
 8652 1d0c 51       		.byte	0x51
 8653 1d0d 02       		.uleb128 0x2
 8654 1d0e 76       		.byte	0x76
 8655 1d0f 00       		.sleb128 0
 8656 1d10 16       		.uleb128 0x16
 8657 1d11 01       		.uleb128 0x1
 8658 1d12 52       		.byte	0x52
 8659 1d13 02       		.uleb128 0x2
 8660 1d14 74       		.byte	0x74
 8661 1d15 00       		.sleb128 0
 8662 1d16 00       		.byte	0
 8663 1d17 00       		.byte	0
 8664 1d18 00       		.byte	0
 8665 1d19 00       		.byte	0
 8666 1d1a 00       		.byte	0
ARM GAS  C:\Users\JACOB-~1\AppData\Local\Temp\ccGLbPGC.s 			page 184


 8667 1d1b 00       		.byte	0
 8668 1d1c 25       		.uleb128 0x25
 8669 1d1d EC000000 		.4byte	0xec
 8670 1d21 D8020000 		.4byte	.LBB518
 8671 1d25 C0000000 		.4byte	.Ldebug_ranges0+0xc0
 8672 1d29 01       		.byte	0x1
 8673 1d2a 8303     		.2byte	0x383
 8674 1d2c BA1D0000 		.4byte	0x1dba
 8675 1d30 1E       		.uleb128 0x1e
 8676 1d31 19010000 		.4byte	0x119
 8677 1d35 1E       		.uleb128 0x1e
 8678 1d36 0D010000 		.4byte	0x10d
 8679 1d3a 10       		.uleb128 0x10
 8680 1d3b 03010000 		.4byte	0x103
 8681 1d3f 91240000 		.4byte	.LLST277
 8682 1d43 10       		.uleb128 0x10
 8683 1d44 F9000000 		.4byte	0xf9
 8684 1d48 AF240000 		.4byte	.LLST278
 8685 1d4c 1B       		.uleb128 0x1b
 8686 1d4d C0000000 		.4byte	.Ldebug_ranges0+0xc0
 8687 1d51 11       		.uleb128 0x11
 8688 1d52 25010000 		.4byte	0x125
 8689 1d56 C2240000 		.4byte	.LLST279
 8690 1d5a 11       		.uleb128 0x11
 8691 1d5b 31010000 		.4byte	0x131
 8692 1d5f 0E250000 		.4byte	.LLST280
 8693 1d63 12       		.uleb128 0x12
 8694 1d64 D8000000 		.4byte	.Ldebug_ranges0+0xd8
 8695 1d68 761D0000 		.4byte	0x1d76
 8696 1d6c 11       		.uleb128 0x11
 8697 1d6d 42010000 		.4byte	0x142
 8698 1d71 22250000 		.4byte	.LLST281
 8699 1d75 00       		.byte	0
 8700 1d76 13       		.uleb128 0x13
 8701 1d77 38030000 		.4byte	.LBB521
 8702 1d7b 36000000 		.4byte	.LBE521-.LBB521
 8703 1d7f 20       		.uleb128 0x20
 8704 1d80 4E010000 		.4byte	0x14e
 8705 1d84 13       		.uleb128 0x13
 8706 1d85 38030000 		.4byte	.LBB522
 8707 1d89 20000000 		.4byte	.LBE522-.LBB522
 8708 1d8d 11       		.uleb128 0x11
 8709 1d8e 59010000 		.4byte	0x159
 8710 1d92 65250000 		.4byte	.LLST282
 8711 1d96 13       		.uleb128 0x13
 8712 1d97 44030000 		.4byte	.LBB523
 8713 1d9b 0E000000 		.4byte	.LBE523-.LBB523
 8714 1d9f 15       		.uleb128 0x15
 8715 1da0 52030000 		.4byte	.LVL607
 8716 1da4 B8250000 		.4byte	0x25b8
 8717 1da8 16       		.uleb128 0x16
 8718 1da9 01       		.uleb128 0x1
 8719 1daa 51       		.byte	0x51
 8720 1dab 02       		.uleb128 0x2
 8721 1dac 75       		.byte	0x75
 8722 1dad 00       		.sleb128 0
 8723 1dae 16       		.uleb128 0x16
ARM GAS  C:\Users\JACOB-~1\AppData\Local\Temp\ccGLbPGC.s 			page 185


 8724 1daf 01       		.uleb128 0x1
 8725 1db0 52       		.byte	0x52
 8726 1db1 02       		.uleb128 0x2
 8727 1db2 74       		.byte	0x74
 8728 1db3 00       		.sleb128 0
 8729 1db4 00       		.byte	0
 8730 1db5 00       		.byte	0
 8731 1db6 00       		.byte	0
 8732 1db7 00       		.byte	0
 8733 1db8 00       		.byte	0
 8734 1db9 00       		.byte	0
 8735 1dba 26       		.uleb128 0x26
 8736 1dbb EC000000 		.4byte	0xec
 8737 1dbf 7A030000 		.4byte	.LBB526
 8738 1dc3 F0000000 		.4byte	.Ldebug_ranges0+0xf0
 8739 1dc7 01       		.byte	0x1
 8740 1dc8 7603     		.2byte	0x376
 8741 1dca 1E       		.uleb128 0x1e
 8742 1dcb 19010000 		.4byte	0x119
 8743 1dcf 1E       		.uleb128 0x1e
 8744 1dd0 0D010000 		.4byte	0x10d
 8745 1dd4 10       		.uleb128 0x10
 8746 1dd5 03010000 		.4byte	0x103
 8747 1dd9 79250000 		.4byte	.LLST283
 8748 1ddd 10       		.uleb128 0x10
 8749 1dde F9000000 		.4byte	0xf9
 8750 1de2 A2250000 		.4byte	.LLST284
 8751 1de6 1B       		.uleb128 0x1b
 8752 1de7 F0000000 		.4byte	.Ldebug_ranges0+0xf0
 8753 1deb 11       		.uleb128 0x11
 8754 1dec 25010000 		.4byte	0x125
 8755 1df0 B5250000 		.4byte	.LLST285
 8756 1df4 11       		.uleb128 0x11
 8757 1df5 31010000 		.4byte	0x131
 8758 1df9 01260000 		.4byte	.LLST286
 8759 1dfd 12       		.uleb128 0x12
 8760 1dfe 10010000 		.4byte	.Ldebug_ranges0+0x110
 8761 1e02 101E0000 		.4byte	0x1e10
 8762 1e06 11       		.uleb128 0x11
 8763 1e07 42010000 		.4byte	0x142
 8764 1e0b 15260000 		.4byte	.LLST287
 8765 1e0f 00       		.byte	0
 8766 1e10 1B       		.uleb128 0x1b
 8767 1e11 28010000 		.4byte	.Ldebug_ranges0+0x128
 8768 1e15 20       		.uleb128 0x20
 8769 1e16 4E010000 		.4byte	0x14e
 8770 1e1a 13       		.uleb128 0x13
 8771 1e1b BA030000 		.4byte	.LBB530
 8772 1e1f 24000000 		.4byte	.LBE530-.LBB530
 8773 1e23 11       		.uleb128 0x11
 8774 1e24 59010000 		.4byte	0x159
 8775 1e28 58260000 		.4byte	.LLST288
 8776 1e2c 13       		.uleb128 0x13
 8777 1e2d CA030000 		.4byte	.LBB531
 8778 1e31 0E000000 		.4byte	.LBE531-.LBB531
 8779 1e35 15       		.uleb128 0x15
 8780 1e36 D8030000 		.4byte	.LVL623
ARM GAS  C:\Users\JACOB-~1\AppData\Local\Temp\ccGLbPGC.s 			page 186


 8781 1e3a B8250000 		.4byte	0x25b8
 8782 1e3e 16       		.uleb128 0x16
 8783 1e3f 01       		.uleb128 0x1
 8784 1e40 51       		.byte	0x51
 8785 1e41 02       		.uleb128 0x2
 8786 1e42 75       		.byte	0x75
 8787 1e43 00       		.sleb128 0
 8788 1e44 16       		.uleb128 0x16
 8789 1e45 01       		.uleb128 0x1
 8790 1e46 52       		.byte	0x52
 8791 1e47 02       		.uleb128 0x2
 8792 1e48 74       		.byte	0x74
 8793 1e49 00       		.sleb128 0
 8794 1e4a 00       		.byte	0
 8795 1e4b 00       		.byte	0
 8796 1e4c 00       		.byte	0
 8797 1e4d 00       		.byte	0
 8798 1e4e 00       		.byte	0
 8799 1e4f 00       		.byte	0
 8800 1e50 00       		.byte	0
 8801 1e51 24       		.uleb128 0x24
 8802 1e52 F0030000 		.4byte	.LASF37
 8803 1e56 01       		.byte	0x1
 8804 1e57 8603     		.2byte	0x386
 8805 1e59 00000000 		.4byte	.LFB67
 8806 1e5d C8000000 		.4byte	.LFE67-.LFB67
 8807 1e61 01       		.uleb128 0x1
 8808 1e62 9C       		.byte	0x9c
 8809 1e63 45200000 		.4byte	0x2045
 8810 1e67 19       		.uleb128 0x19
 8811 1e68 0D010000 		.4byte	.LASF38
 8812 1e6c 01       		.byte	0x1
 8813 1e6d 8603     		.2byte	0x386
 8814 1e6f 25000000 		.4byte	0x25
 8815 1e73 6C260000 		.4byte	.LLST289
 8816 1e77 1A       		.uleb128 0x1a
 8817 1e78 E6030000 		.4byte	.LASF39
 8818 1e7c 01       		.byte	0x1
 8819 1e7d 8803     		.2byte	0x388
 8820 1e7f 2C000000 		.4byte	0x2c
 8821 1e83 94260000 		.4byte	.LLST290
 8822 1e87 27       		.uleb128 0x27
 8823 1e88 59030000 		.4byte	.LASF40
 8824 1e8c 01       		.byte	0x1
 8825 1e8d 8903     		.2byte	0x389
 8826 1e8f 2C000000 		.4byte	0x2c
 8827 1e93 C0       		.byte	0xc0
 8828 1e94 1A       		.uleb128 0x1a
 8829 1e95 11000000 		.4byte	.LASF41
 8830 1e99 01       		.byte	0x1
 8831 1e9a 8A03     		.2byte	0x38a
 8832 1e9c 25000000 		.4byte	0x25
 8833 1ea0 AE260000 		.4byte	.LLST291
 8834 1ea4 09       		.uleb128 0x9
 8835 1ea5 F7010000 		.4byte	.LASF42
 8836 1ea9 01       		.byte	0x1
 8837 1eaa 8B03     		.2byte	0x38b
ARM GAS  C:\Users\JACOB-~1\AppData\Local\Temp\ccGLbPGC.s 			page 187


 8838 1eac 2C000000 		.4byte	0x2c
 8839 1eb0 28       		.uleb128 0x28
 8840 1eb1 46030000 		.4byte	.LASF43
 8841 1eb5 01       		.byte	0x1
 8842 1eb6 8C03     		.2byte	0x38c
 8843 1eb8 45200000 		.4byte	0x2045
 8844 1ebc 02       		.uleb128 0x2
 8845 1ebd 91       		.byte	0x91
 8846 1ebe 54       		.sleb128 -44
 8847 1ebf 28       		.uleb128 0x28
 8848 1ec0 45020000 		.4byte	.LASF44
 8849 1ec4 01       		.byte	0x1
 8850 1ec5 8D03     		.2byte	0x38d
 8851 1ec7 55200000 		.4byte	0x2055
 8852 1ecb 02       		.uleb128 0x2
 8853 1ecc 91       		.byte	0x91
 8854 1ecd 50       		.sleb128 -48
 8855 1ece 27       		.uleb128 0x27
 8856 1ecf 9A000000 		.4byte	.LASF45
 8857 1ed3 01       		.byte	0x1
 8858 1ed4 8F03     		.2byte	0x38f
 8859 1ed6 2C000000 		.4byte	0x2c
 8860 1eda 30       		.byte	0x30
 8861 1edb 27       		.uleb128 0x27
 8862 1edc DC000000 		.4byte	.LASF46
 8863 1ee0 01       		.byte	0x1
 8864 1ee1 9003     		.2byte	0x390
 8865 1ee3 2C000000 		.4byte	0x2c
 8866 1ee7 2A       		.byte	0x2a
 8867 1ee8 1C       		.uleb128 0x1c
 8868 1ee9 6900     		.ascii	"i\000"
 8869 1eeb 01       		.byte	0x1
 8870 1eec 9103     		.2byte	0x391
 8871 1eee 2C000000 		.4byte	0x2c
 8872 1ef2 E0260000 		.4byte	.LLST292
 8873 1ef6 0B       		.uleb128 0xb
 8874 1ef7 6B00     		.ascii	"k\000"
 8875 1ef9 01       		.byte	0x1
 8876 1efa 9203     		.2byte	0x392
 8877 1efc 2C000000 		.4byte	0x2c
 8878 1f00 29       		.uleb128 0x29
 8879 1f01 6B020000 		.4byte	.LASF48
 8880 1f05 01       		.byte	0x1
 8881 1f06 9303     		.2byte	0x393
 8882 1f08 2C000000 		.4byte	0x2c
 8883 1f0c 121F0000 		.4byte	0x1f12
 8884 1f10 0E       		.uleb128 0xe
 8885 1f11 00       		.byte	0
 8886 1f12 2A       		.uleb128 0x2a
 8887 1f13 1C000000 		.4byte	.LVL641
 8888 1f17 C4250000 		.4byte	0x25c4
 8889 1f1b 3C1F0000 		.4byte	0x1f3c
 8890 1f1f 16       		.uleb128 0x16
 8891 1f20 01       		.uleb128 0x1
 8892 1f21 50       		.byte	0x50
 8893 1f22 01       		.uleb128 0x1
 8894 1f23 30       		.byte	0x30
ARM GAS  C:\Users\JACOB-~1\AppData\Local\Temp\ccGLbPGC.s 			page 188


 8895 1f24 16       		.uleb128 0x16
 8896 1f25 01       		.uleb128 0x1
 8897 1f26 51       		.byte	0x51
 8898 1f27 01       		.uleb128 0x1
 8899 1f28 30       		.byte	0x30
 8900 1f29 16       		.uleb128 0x16
 8901 1f2a 01       		.uleb128 0x1
 8902 1f2b 52       		.byte	0x52
 8903 1f2c 02       		.uleb128 0x2
 8904 1f2d 08       		.byte	0x8
 8905 1f2e BE       		.byte	0xbe
 8906 1f2f 16       		.uleb128 0x16
 8907 1f30 01       		.uleb128 0x1
 8908 1f31 53       		.byte	0x53
 8909 1f32 01       		.uleb128 0x1
 8910 1f33 30       		.byte	0x30
 8911 1f34 16       		.uleb128 0x16
 8912 1f35 02       		.uleb128 0x2
 8913 1f36 7D       		.byte	0x7d
 8914 1f37 00       		.sleb128 0
 8915 1f38 02       		.uleb128 0x2
 8916 1f39 74       		.byte	0x74
 8917 1f3a 00       		.sleb128 0
 8918 1f3b 00       		.byte	0
 8919 1f3c 2A       		.uleb128 0x2a
 8920 1f3d 2A000000 		.4byte	.LVL642
 8921 1f41 C4250000 		.4byte	0x25c4
 8922 1f45 661F0000 		.4byte	0x1f66
 8923 1f49 16       		.uleb128 0x16
 8924 1f4a 01       		.uleb128 0x1
 8925 1f4b 50       		.byte	0x50
 8926 1f4c 01       		.uleb128 0x1
 8927 1f4d 30       		.byte	0x30
 8928 1f4e 16       		.uleb128 0x16
 8929 1f4f 01       		.uleb128 0x1
 8930 1f50 51       		.byte	0x51
 8931 1f51 01       		.uleb128 0x1
 8932 1f52 30       		.byte	0x30
 8933 1f53 16       		.uleb128 0x16
 8934 1f54 01       		.uleb128 0x1
 8935 1f55 52       		.byte	0x52
 8936 1f56 01       		.uleb128 0x1
 8937 1f57 30       		.byte	0x30
 8938 1f58 16       		.uleb128 0x16
 8939 1f59 01       		.uleb128 0x1
 8940 1f5a 53       		.byte	0x53
 8941 1f5b 02       		.uleb128 0x2
 8942 1f5c 08       		.byte	0x8
 8943 1f5d C0       		.byte	0xc0
 8944 1f5e 16       		.uleb128 0x16
 8945 1f5f 02       		.uleb128 0x2
 8946 1f60 7D       		.byte	0x7d
 8947 1f61 00       		.sleb128 0
 8948 1f62 02       		.uleb128 0x2
 8949 1f63 74       		.byte	0x74
 8950 1f64 00       		.sleb128 0
 8951 1f65 00       		.byte	0
ARM GAS  C:\Users\JACOB-~1\AppData\Local\Temp\ccGLbPGC.s 			page 189


 8952 1f66 2A       		.uleb128 0x2a
 8953 1f67 66000000 		.4byte	.LVL649
 8954 1f6b D0250000 		.4byte	0x25d0
 8955 1f6f 831F0000 		.4byte	0x1f83
 8956 1f73 16       		.uleb128 0x16
 8957 1f74 01       		.uleb128 0x1
 8958 1f75 50       		.byte	0x50
 8959 1f76 02       		.uleb128 0x2
 8960 1f77 91       		.byte	0x91
 8961 1f78 54       		.sleb128 -44
 8962 1f79 16       		.uleb128 0x16
 8963 1f7a 01       		.uleb128 0x1
 8964 1f7b 51       		.byte	0x51
 8965 1f7c 05       		.uleb128 0x5
 8966 1f7d 03       		.byte	0x3
 8967 1f7e 00000000 		.4byte	.LC0
 8968 1f82 00       		.byte	0
 8969 1f83 2A       		.uleb128 0x2a
 8970 1f84 70000000 		.4byte	.LVL650
 8971 1f88 D0250000 		.4byte	0x25d0
 8972 1f8c A81F0000 		.4byte	0x1fa8
 8973 1f90 16       		.uleb128 0x16
 8974 1f91 01       		.uleb128 0x1
 8975 1f92 50       		.byte	0x50
 8976 1f93 02       		.uleb128 0x2
 8977 1f94 91       		.byte	0x91
 8978 1f95 50       		.sleb128 -48
 8979 1f96 16       		.uleb128 0x16
 8980 1f97 01       		.uleb128 0x1
 8981 1f98 51       		.byte	0x51
 8982 1f99 05       		.uleb128 0x5
 8983 1f9a 03       		.byte	0x3
 8984 1f9b 08000000 		.4byte	.LC1
 8985 1f9f 16       		.uleb128 0x16
 8986 1fa0 01       		.uleb128 0x1
 8987 1fa1 52       		.byte	0x52
 8988 1fa2 04       		.uleb128 0x4
 8989 1fa3 74       		.byte	0x74
 8990 1fa4 00       		.sleb128 0
 8991 1fa5 31       		.byte	0x31
 8992 1fa6 24       		.byte	0x24
 8993 1fa7 00       		.byte	0
 8994 1fa8 2A       		.uleb128 0x2a
 8995 1fa9 7E000000 		.4byte	.LVL651
 8996 1fad C4250000 		.4byte	0x25c4
 8997 1fb1 D31F0000 		.4byte	0x1fd3
 8998 1fb5 16       		.uleb128 0x16
 8999 1fb6 01       		.uleb128 0x1
 9000 1fb7 50       		.byte	0x50
 9001 1fb8 01       		.uleb128 0x1
 9002 1fb9 30       		.byte	0x30
 9003 1fba 16       		.uleb128 0x16
 9004 1fbb 01       		.uleb128 0x1
 9005 1fbc 51       		.byte	0x51
 9006 1fbd 02       		.uleb128 0x2
 9007 1fbe 75       		.byte	0x75
 9008 1fbf 00       		.sleb128 0
ARM GAS  C:\Users\JACOB-~1\AppData\Local\Temp\ccGLbPGC.s 			page 190


 9009 1fc0 16       		.uleb128 0x16
 9010 1fc1 01       		.uleb128 0x1
 9011 1fc2 52       		.byte	0x52
 9012 1fc3 01       		.uleb128 0x1
 9013 1fc4 35       		.byte	0x35
 9014 1fc5 16       		.uleb128 0x16
 9015 1fc6 01       		.uleb128 0x1
 9016 1fc7 53       		.byte	0x53
 9017 1fc8 02       		.uleb128 0x2
 9018 1fc9 75       		.byte	0x75
 9019 1fca 00       		.sleb128 0
 9020 1fcb 16       		.uleb128 0x16
 9021 1fcc 02       		.uleb128 0x2
 9022 1fcd 7D       		.byte	0x7d
 9023 1fce 00       		.sleb128 0
 9024 1fcf 02       		.uleb128 0x2
 9025 1fd0 77       		.byte	0x77
 9026 1fd1 00       		.sleb128 0
 9027 1fd2 00       		.byte	0
 9028 1fd3 2A       		.uleb128 0x2a
 9029 1fd4 8A000000 		.4byte	.LVL652
 9030 1fd8 26020000 		.4byte	0x226
 9031 1fdc F81F0000 		.4byte	0x1ff8
 9032 1fe0 16       		.uleb128 0x16
 9033 1fe1 01       		.uleb128 0x1
 9034 1fe2 50       		.byte	0x50
 9035 1fe3 01       		.uleb128 0x1
 9036 1fe4 3C       		.byte	0x3c
 9037 1fe5 16       		.uleb128 0x16
 9038 1fe6 01       		.uleb128 0x1
 9039 1fe7 51       		.byte	0x51
 9040 1fe8 02       		.uleb128 0x2
 9041 1fe9 75       		.byte	0x75
 9042 1fea 00       		.sleb128 0
 9043 1feb 16       		.uleb128 0x16
 9044 1fec 01       		.uleb128 0x1
 9045 1fed 52       		.byte	0x52
 9046 1fee 02       		.uleb128 0x2
 9047 1fef 77       		.byte	0x77
 9048 1ff0 00       		.sleb128 0
 9049 1ff1 16       		.uleb128 0x16
 9050 1ff2 01       		.uleb128 0x1
 9051 1ff3 53       		.byte	0x53
 9052 1ff4 02       		.uleb128 0x2
 9053 1ff5 91       		.byte	0x91
 9054 1ff6 54       		.sleb128 -44
 9055 1ff7 00       		.byte	0
 9056 1ff8 2A       		.uleb128 0x2a
 9057 1ff9 98000000 		.4byte	.LVL653
 9058 1ffd C4250000 		.4byte	0x25c4
 9059 2001 23200000 		.4byte	0x2023
 9060 2005 16       		.uleb128 0x16
 9061 2006 01       		.uleb128 0x1
 9062 2007 50       		.byte	0x50
 9063 2008 02       		.uleb128 0x2
 9064 2009 76       		.byte	0x76
 9065 200a 00       		.sleb128 0
ARM GAS  C:\Users\JACOB-~1\AppData\Local\Temp\ccGLbPGC.s 			page 191


 9066 200b 16       		.uleb128 0x16
 9067 200c 01       		.uleb128 0x1
 9068 200d 51       		.byte	0x51
 9069 200e 01       		.uleb128 0x1
 9070 200f 30       		.byte	0x30
 9071 2010 16       		.uleb128 0x16
 9072 2011 01       		.uleb128 0x1
 9073 2012 52       		.byte	0x52
 9074 2013 02       		.uleb128 0x2
 9075 2014 76       		.byte	0x76
 9076 2015 00       		.sleb128 0
 9077 2016 16       		.uleb128 0x16
 9078 2017 01       		.uleb128 0x1
 9079 2018 53       		.byte	0x53
 9080 2019 01       		.uleb128 0x1
 9081 201a 33       		.byte	0x33
 9082 201b 16       		.uleb128 0x16
 9083 201c 02       		.uleb128 0x2
 9084 201d 7D       		.byte	0x7d
 9085 201e 00       		.sleb128 0
 9086 201f 02       		.uleb128 0x2
 9087 2020 77       		.byte	0x77
 9088 2021 00       		.sleb128 0
 9089 2022 00       		.byte	0
 9090 2023 15       		.uleb128 0x15
 9091 2024 A6000000 		.4byte	.LVL655
 9092 2028 26020000 		.4byte	0x226
 9093 202c 16       		.uleb128 0x16
 9094 202d 01       		.uleb128 0x1
 9095 202e 50       		.byte	0x50
 9096 202f 02       		.uleb128 0x2
 9097 2030 76       		.byte	0x76
 9098 2031 00       		.sleb128 0
 9099 2032 16       		.uleb128 0x16
 9100 2033 01       		.uleb128 0x1
 9101 2034 51       		.byte	0x51
 9102 2035 01       		.uleb128 0x1
 9103 2036 3C       		.byte	0x3c
 9104 2037 16       		.uleb128 0x16
 9105 2038 01       		.uleb128 0x1
 9106 2039 52       		.byte	0x52
 9107 203a 02       		.uleb128 0x2
 9108 203b 77       		.byte	0x77
 9109 203c 00       		.sleb128 0
 9110 203d 16       		.uleb128 0x16
 9111 203e 01       		.uleb128 0x1
 9112 203f 53       		.byte	0x53
 9113 2040 02       		.uleb128 0x2
 9114 2041 91       		.byte	0x91
 9115 2042 50       		.sleb128 -48
 9116 2043 00       		.byte	0
 9117 2044 00       		.byte	0
 9118 2045 2B       		.uleb128 0x2b
 9119 2046 D1000000 		.4byte	0xd1
 9120 204a 55200000 		.4byte	0x2055
 9121 204e 2C       		.uleb128 0x2c
 9122 204f DF000000 		.4byte	0xdf
ARM GAS  C:\Users\JACOB-~1\AppData\Local\Temp\ccGLbPGC.s 			page 192


 9123 2053 09       		.byte	0x9
 9124 2054 00       		.byte	0
 9125 2055 2B       		.uleb128 0x2b
 9126 2056 D1000000 		.4byte	0xd1
 9127 205a 65200000 		.4byte	0x2065
 9128 205e 2C       		.uleb128 0x2c
 9129 205f DF000000 		.4byte	0xdf
 9130 2063 03       		.byte	0x3
 9131 2064 00       		.byte	0
 9132 2065 2B       		.uleb128 0x2b
 9133 2066 75200000 		.4byte	0x2075
 9134 206a 75200000 		.4byte	0x2075
 9135 206e 2C       		.uleb128 0x2c
 9136 206f DF000000 		.4byte	0xdf
 9137 2073 19       		.byte	0x19
 9138 2074 00       		.byte	0
 9139 2075 2D       		.uleb128 0x2d
 9140 2076 9E000000 		.4byte	0x9e
 9141 207a 2E       		.uleb128 0x2e
 9142 207b 8A020000 		.4byte	.LASF49
 9143 207f 04       		.byte	0x4
 9144 2080 0F       		.byte	0xf
 9145 2081 A0200000 		.4byte	0x20a0
 9146 2085 1A       		.byte	0x1a
 9147 2086 03       		.byte	0x3
 9148 2087 01       		.byte	0x1
 9149 2088 02       		.byte	0x2
 9150 2089 03       		.byte	0x3
 9151 208a 02       		.byte	0x2
 9152 208b 00       		.byte	0
 9153 208c 04       		.byte	0x4
 9154 208d 03       		.byte	0x3
 9155 208e 00       		.byte	0
 9156 208f 01       		.byte	0x1
 9157 2090 04       		.byte	0x4
 9158 2091 03       		.byte	0x3
 9159 2092 00       		.byte	0
 9160 2093 02       		.byte	0x2
 9161 2094 04       		.byte	0x4
 9162 2095 03       		.byte	0x3
 9163 2096 00       		.byte	0
 9164 2097 03       		.byte	0x3
 9165 2098 04       		.byte	0x4
 9166 2099 02       		.byte	0x2
 9167 209a 00       		.byte	0
 9168 209b 04       		.byte	0x4
 9169 209c 03       		.byte	0x3
 9170 209d 01       		.byte	0x1
 9171 209e 02       		.byte	0x2
 9172 209f 03       		.byte	0x3
 9173 20a0 2D       		.uleb128 0x2d
 9174 20a1 65200000 		.4byte	0x2065
 9175 20a5 2B       		.uleb128 0x2b
 9176 20a6 75200000 		.4byte	0x2075
 9177 20aa B5200000 		.4byte	0x20b5
 9178 20ae 2C       		.uleb128 0x2c
 9179 20af DF000000 		.4byte	0xdf
ARM GAS  C:\Users\JACOB-~1\AppData\Local\Temp\ccGLbPGC.s 			page 193


 9180 20b3 12       		.byte	0x12
 9181 20b4 00       		.byte	0
 9182 20b5 2E       		.uleb128 0x2e
 9183 20b6 91020000 		.4byte	.LASF50
 9184 20ba 04       		.byte	0x4
 9185 20bb 21       		.byte	0x21
 9186 20bc D4200000 		.4byte	0x20d4
 9187 20c0 13       		.byte	0x13
 9188 20c1 05       		.byte	0x5
 9189 20c2 00       		.byte	0
 9190 20c3 01       		.byte	0x1
 9191 20c4 02       		.byte	0x2
 9192 20c5 03       		.byte	0x3
 9193 20c6 04       		.byte	0x4
 9194 20c7 01       		.byte	0x1
 9195 20c8 02       		.byte	0x2
 9196 20c9 01       		.byte	0x1
 9197 20ca 02       		.byte	0x2
 9198 20cb 01       		.byte	0x1
 9199 20cc 02       		.byte	0x2
 9200 20cd 01       		.byte	0x1
 9201 20ce 02       		.byte	0x2
 9202 20cf 02       		.byte	0x2
 9203 20d0 01       		.byte	0x1
 9204 20d1 02       		.byte	0x2
 9205 20d2 01       		.byte	0x1
 9206 20d3 02       		.byte	0x2
 9207 20d4 2D       		.uleb128 0x2d
 9208 20d5 A5200000 		.4byte	0x20a5
 9209 20d9 2B       		.uleb128 0x2b
 9210 20da 75200000 		.4byte	0x2075
 9211 20de E9200000 		.4byte	0x20e9
 9212 20e2 2C       		.uleb128 0x2c
 9213 20e3 DF000000 		.4byte	0xdf
 9214 20e7 16       		.byte	0x16
 9215 20e8 00       		.byte	0
 9216 20e9 2E       		.uleb128 0x2e
 9217 20ea 98020000 		.4byte	.LASF51
 9218 20ee 04       		.byte	0x4
 9219 20ef 33       		.byte	0x33
 9220 20f0 0C210000 		.4byte	0x210c
 9221 20f4 17       		.byte	0x17
 9222 20f5 05       		.byte	0x5
 9223 20f6 00       		.byte	0
 9224 20f7 01       		.byte	0x1
 9225 20f8 02       		.byte	0x2
 9226 20f9 03       		.byte	0x3
 9227 20fa 04       		.byte	0x4
 9228 20fb 02       		.byte	0x2
 9229 20fc 00       		.byte	0
 9230 20fd 04       		.byte	0x4
 9231 20fe 01       		.byte	0x1
 9232 20ff 01       		.byte	0x1
 9233 2100 02       		.byte	0x2
 9234 2101 02       		.byte	0x2
 9235 2102 03       		.byte	0x3
 9236 2103 01       		.byte	0x1
ARM GAS  C:\Users\JACOB-~1\AppData\Local\Temp\ccGLbPGC.s 			page 194


 9237 2104 04       		.byte	0x4
 9238 2105 02       		.byte	0x2
 9239 2106 00       		.byte	0
 9240 2107 04       		.byte	0x4
 9241 2108 03       		.byte	0x3
 9242 2109 01       		.byte	0x1
 9243 210a 02       		.byte	0x2
 9244 210b 03       		.byte	0x3
 9245 210c 2D       		.uleb128 0x2d
 9246 210d D9200000 		.4byte	0x20d9
 9247 2111 2B       		.uleb128 0x2b
 9248 2112 75200000 		.4byte	0x2075
 9249 2116 21210000 		.4byte	0x2121
 9250 211a 2C       		.uleb128 0x2c
 9251 211b DF000000 		.4byte	0xdf
 9252 211f 14       		.byte	0x14
 9253 2120 00       		.byte	0
 9254 2121 2E       		.uleb128 0x2e
 9255 2122 9F020000 		.4byte	.LASF52
 9256 2126 04       		.byte	0x4
 9257 2127 45       		.byte	0x45
 9258 2128 42210000 		.4byte	0x2142
 9259 212c 15       		.byte	0x15
 9260 212d 03       		.byte	0x3
 9261 212e 01       		.byte	0x1
 9262 212f 02       		.byte	0x2
 9263 2130 03       		.byte	0x3
 9264 2131 02       		.byte	0x2
 9265 2132 00       		.byte	0
 9266 2133 04       		.byte	0x4
 9267 2134 01       		.byte	0x1
 9268 2135 04       		.byte	0x4
 9269 2136 02       		.byte	0x2
 9270 2137 02       		.byte	0x2
 9271 2138 03       		.byte	0x3
 9272 2139 01       		.byte	0x1
 9273 213a 04       		.byte	0x4
 9274 213b 02       		.byte	0x2
 9275 213c 00       		.byte	0
 9276 213d 04       		.byte	0x4
 9277 213e 03       		.byte	0x3
 9278 213f 01       		.byte	0x1
 9279 2140 02       		.byte	0x2
 9280 2141 03       		.byte	0x3
 9281 2142 2D       		.uleb128 0x2d
 9282 2143 11210000 		.4byte	0x2111
 9283 2147 2B       		.uleb128 0x2b
 9284 2148 75200000 		.4byte	0x2075
 9285 214c 57210000 		.4byte	0x2157
 9286 2150 2C       		.uleb128 0x2c
 9287 2151 DF000000 		.4byte	0xdf
 9288 2155 15       		.byte	0x15
 9289 2156 00       		.byte	0
 9290 2157 2E       		.uleb128 0x2e
 9291 2158 A6020000 		.4byte	.LASF53
 9292 215c 04       		.byte	0x4
 9293 215d 57       		.byte	0x57
ARM GAS  C:\Users\JACOB-~1\AppData\Local\Temp\ccGLbPGC.s 			page 195


 9294 215e 79210000 		.4byte	0x2179
 9295 2162 16       		.byte	0x16
 9296 2163 01       		.byte	0x1
 9297 2164 04       		.byte	0x4
 9298 2165 01       		.byte	0x1
 9299 2166 04       		.byte	0x4
 9300 2167 05       		.byte	0x5
 9301 2168 00       		.byte	0
 9302 2169 01       		.byte	0x1
 9303 216a 02       		.byte	0x2
 9304 216b 03       		.byte	0x3
 9305 216c 04       		.byte	0x4
 9306 216d 02       		.byte	0x2
 9307 216e 00       		.byte	0
 9308 216f 04       		.byte	0x4
 9309 2170 02       		.byte	0x2
 9310 2171 01       		.byte	0x1
 9311 2172 04       		.byte	0x4
 9312 2173 02       		.byte	0x2
 9313 2174 02       		.byte	0x2
 9314 2175 04       		.byte	0x4
 9315 2176 02       		.byte	0x2
 9316 2177 03       		.byte	0x3
 9317 2178 04       		.byte	0x4
 9318 2179 2D       		.uleb128 0x2d
 9319 217a 47210000 		.4byte	0x2147
 9320 217e 2B       		.uleb128 0x2b
 9321 217f 75200000 		.4byte	0x2075
 9322 2183 8E210000 		.4byte	0x218e
 9323 2187 2C       		.uleb128 0x2c
 9324 2188 DF000000 		.4byte	0xdf
 9325 218c 17       		.byte	0x17
 9326 218d 00       		.byte	0
 9327 218e 2E       		.uleb128 0x2e
 9328 218f AD020000 		.4byte	.LASF54
 9329 2193 04       		.byte	0x4
 9330 2194 69       		.byte	0x69
 9331 2195 B2210000 		.4byte	0x21b2
 9332 2199 18       		.byte	0x18
 9333 219a 03       		.byte	0x3
 9334 219b 01       		.byte	0x1
 9335 219c 02       		.byte	0x2
 9336 219d 03       		.byte	0x3
 9337 219e 02       		.byte	0x2
 9338 219f 00       		.byte	0
 9339 21a0 04       		.byte	0x4
 9340 21a1 01       		.byte	0x1
 9341 21a2 04       		.byte	0x4
 9342 21a3 01       		.byte	0x1
 9343 21a4 04       		.byte	0x4
 9344 21a5 04       		.byte	0x4
 9345 21a6 00       		.byte	0
 9346 21a7 01       		.byte	0x1
 9347 21a8 02       		.byte	0x2
 9348 21a9 03       		.byte	0x3
 9349 21aa 01       		.byte	0x1
 9350 21ab 00       		.byte	0
ARM GAS  C:\Users\JACOB-~1\AppData\Local\Temp\ccGLbPGC.s 			page 196


 9351 21ac 05       		.byte	0x5
 9352 21ad 00       		.byte	0
 9353 21ae 01       		.byte	0x1
 9354 21af 02       		.byte	0x2
 9355 21b0 03       		.byte	0x3
 9356 21b1 04       		.byte	0x4
 9357 21b2 2D       		.uleb128 0x2d
 9358 21b3 7E210000 		.4byte	0x217e
 9359 21b7 2E       		.uleb128 0x2e
 9360 21b8 B4020000 		.4byte	.LASF55
 9361 21bc 04       		.byte	0x4
 9362 21bd 7B       		.byte	0x7b
 9363 21be D9210000 		.4byte	0x21d9
 9364 21c2 16       		.byte	0x16
 9365 21c3 03       		.byte	0x3
 9366 21c4 01       		.byte	0x1
 9367 21c5 02       		.byte	0x2
 9368 21c6 03       		.byte	0x3
 9369 21c7 02       		.byte	0x2
 9370 21c8 00       		.byte	0
 9371 21c9 04       		.byte	0x4
 9372 21ca 02       		.byte	0x2
 9373 21cb 00       		.byte	0
 9374 21cc 04       		.byte	0x4
 9375 21cd 04       		.byte	0x4
 9376 21ce 00       		.byte	0
 9377 21cf 01       		.byte	0x1
 9378 21d0 02       		.byte	0x2
 9379 21d1 03       		.byte	0x3
 9380 21d2 01       		.byte	0x1
 9381 21d3 00       		.byte	0
 9382 21d4 01       		.byte	0x1
 9383 21d5 01       		.byte	0x1
 9384 21d6 02       		.byte	0x2
 9385 21d7 02       		.byte	0x2
 9386 21d8 03       		.byte	0x3
 9387 21d9 2D       		.uleb128 0x2d
 9388 21da 47210000 		.4byte	0x2147
 9389 21de 2E       		.uleb128 0x2e
 9390 21df BB020000 		.4byte	.LASF56
 9391 21e3 04       		.byte	0x4
 9392 21e4 8D       		.byte	0x8d
 9393 21e5 FD210000 		.4byte	0x21fd
 9394 21e9 13       		.byte	0x13
 9395 21ea 01       		.byte	0x1
 9396 21eb 02       		.byte	0x2
 9397 21ec 01       		.byte	0x1
 9398 21ed 02       		.byte	0x2
 9399 21ee 01       		.byte	0x1
 9400 21ef 02       		.byte	0x2
 9401 21f0 01       		.byte	0x1
 9402 21f1 03       		.byte	0x3
 9403 21f2 01       		.byte	0x1
 9404 21f3 04       		.byte	0x4
 9405 21f4 02       		.byte	0x2
 9406 21f5 00       		.byte	0
 9407 21f6 04       		.byte	0x4
ARM GAS  C:\Users\JACOB-~1\AppData\Local\Temp\ccGLbPGC.s 			page 197


 9408 21f7 05       		.byte	0x5
 9409 21f8 00       		.byte	0
 9410 21f9 01       		.byte	0x1
 9411 21fa 02       		.byte	0x2
 9412 21fb 03       		.byte	0x3
 9413 21fc 04       		.byte	0x4
 9414 21fd 2D       		.uleb128 0x2d
 9415 21fe A5200000 		.4byte	0x20a5
 9416 2202 2E       		.uleb128 0x2e
 9417 2203 C2020000 		.4byte	.LASF57
 9418 2207 04       		.byte	0x4
 9419 2208 9F       		.byte	0x9f
 9420 2209 26220000 		.4byte	0x2226
 9421 220d 18       		.byte	0x18
 9422 220e 03       		.byte	0x3
 9423 220f 01       		.byte	0x1
 9424 2210 02       		.byte	0x2
 9425 2211 03       		.byte	0x3
 9426 2212 02       		.byte	0x2
 9427 2213 00       		.byte	0
 9428 2214 04       		.byte	0x4
 9429 2215 02       		.byte	0x2
 9430 2216 00       		.byte	0
 9431 2217 04       		.byte	0x4
 9432 2218 03       		.byte	0x3
 9433 2219 01       		.byte	0x1
 9434 221a 02       		.byte	0x2
 9435 221b 03       		.byte	0x3
 9436 221c 02       		.byte	0x2
 9437 221d 00       		.byte	0
 9438 221e 04       		.byte	0x4
 9439 221f 02       		.byte	0x2
 9440 2220 00       		.byte	0
 9441 2221 04       		.byte	0x4
 9442 2222 03       		.byte	0x3
 9443 2223 01       		.byte	0x1
 9444 2224 02       		.byte	0x2
 9445 2225 03       		.byte	0x3
 9446 2226 2D       		.uleb128 0x2d
 9447 2227 7E210000 		.4byte	0x217e
 9448 222b 2E       		.uleb128 0x2e
 9449 222c C9020000 		.4byte	.LASF58
 9450 2230 04       		.byte	0x4
 9451 2231 B1       		.byte	0xb1
 9452 2232 4D220000 		.4byte	0x224d
 9453 2236 16       		.byte	0x16
 9454 2237 02       		.byte	0x2
 9455 2238 01       		.byte	0x1
 9456 2239 02       		.byte	0x2
 9457 223a 01       		.byte	0x1
 9458 223b 03       		.byte	0x3
 9459 223c 01       		.byte	0x1
 9460 223d 04       		.byte	0x4
 9461 223e 04       		.byte	0x4
 9462 223f 01       		.byte	0x1
 9463 2240 02       		.byte	0x2
 9464 2241 03       		.byte	0x3
ARM GAS  C:\Users\JACOB-~1\AppData\Local\Temp\ccGLbPGC.s 			page 198


 9465 2242 04       		.byte	0x4
 9466 2243 02       		.byte	0x2
 9467 2244 00       		.byte	0
 9468 2245 04       		.byte	0x4
 9469 2246 02       		.byte	0x2
 9470 2247 00       		.byte	0
 9471 2248 04       		.byte	0x4
 9472 2249 03       		.byte	0x3
 9473 224a 01       		.byte	0x1
 9474 224b 02       		.byte	0x2
 9475 224c 03       		.byte	0x3
 9476 224d 2D       		.uleb128 0x2d
 9477 224e 47210000 		.4byte	0x2147
 9478 2252 2B       		.uleb128 0x2b
 9479 2253 75200000 		.4byte	0x2075
 9480 2257 62220000 		.4byte	0x2262
 9481 225b 2C       		.uleb128 0x2c
 9482 225c DF000000 		.4byte	0xdf
 9483 2260 07       		.byte	0x7
 9484 2261 00       		.byte	0
 9485 2262 2E       		.uleb128 0x2e
 9486 2263 01010000 		.4byte	.LASF59
 9487 2267 04       		.byte	0x4
 9488 2268 C3       		.byte	0xc3
 9489 2269 76220000 		.4byte	0x2276
 9490 226d 08       		.byte	0x8
 9491 226e 01       		.byte	0x1
 9492 226f 02       		.byte	0x2
 9493 2270 00       		.byte	0
 9494 2271 00       		.byte	0
 9495 2272 00       		.byte	0
 9496 2273 00       		.byte	0
 9497 2274 00       		.byte	0
 9498 2275 00       		.byte	0
 9499 2276 2D       		.uleb128 0x2d
 9500 2277 52220000 		.4byte	0x2252
 9501 227b 2E       		.uleb128 0x2e
 9502 227c 80030000 		.4byte	.LASF60
 9503 2280 04       		.byte	0x4
 9504 2281 D4       		.byte	0xd4
 9505 2282 9C220000 		.4byte	0x229c
 9506 2286 15       		.byte	0x15
 9507 2287 04       		.byte	0x4
 9508 2288 01       		.byte	0x1
 9509 2289 02       		.byte	0x2
 9510 228a 03       		.byte	0x3
 9511 228b 04       		.byte	0x4
 9512 228c 01       		.byte	0x1
 9513 228d 00       		.byte	0
 9514 228e 04       		.byte	0x4
 9515 228f 04       		.byte	0x4
 9516 2290 01       		.byte	0x1
 9517 2291 02       		.byte	0x2
 9518 2292 03       		.byte	0x3
 9519 2293 04       		.byte	0x4
 9520 2294 01       		.byte	0x1
 9521 2295 04       		.byte	0x4
ARM GAS  C:\Users\JACOB-~1\AppData\Local\Temp\ccGLbPGC.s 			page 199


 9522 2296 03       		.byte	0x3
 9523 2297 02       		.byte	0x2
 9524 2298 03       		.byte	0x3
 9525 2299 04       		.byte	0x4
 9526 229a 00       		.byte	0
 9527 229b 00       		.byte	0
 9528 229c 2D       		.uleb128 0x2d
 9529 229d 11210000 		.4byte	0x2111
 9530 22a1 2E       		.uleb128 0x2e
 9531 22a2 87030000 		.4byte	.LASF61
 9532 22a6 04       		.byte	0x4
 9533 22a7 E5       		.byte	0xe5
 9534 22a8 C4220000 		.4byte	0x22c4
 9535 22ac 17       		.byte	0x17
 9536 22ad 04       		.byte	0x4
 9537 22ae 00       		.byte	0
 9538 22af 01       		.byte	0x1
 9539 22b0 02       		.byte	0x2
 9540 22b1 03       		.byte	0x3
 9541 22b2 02       		.byte	0x2
 9542 22b3 00       		.byte	0
 9543 22b4 04       		.byte	0x4
 9544 22b5 02       		.byte	0x2
 9545 22b6 00       		.byte	0
 9546 22b7 04       		.byte	0x4
 9547 22b8 03       		.byte	0x3
 9548 22b9 00       		.byte	0
 9549 22ba 01       		.byte	0x1
 9550 22bb 04       		.byte	0x4
 9551 22bc 03       		.byte	0x3
 9552 22bd 00       		.byte	0
 9553 22be 02       		.byte	0x2
 9554 22bf 03       		.byte	0x3
 9555 22c0 01       		.byte	0x1
 9556 22c1 00       		.byte	0
 9557 22c2 01       		.byte	0x1
 9558 22c3 00       		.byte	0
 9559 22c4 2D       		.uleb128 0x2d
 9560 22c5 D9200000 		.4byte	0x20d9
 9561 22c9 2B       		.uleb128 0x2b
 9562 22ca 75200000 		.4byte	0x2075
 9563 22ce D9220000 		.4byte	0x22d9
 9564 22d2 2C       		.uleb128 0x2c
 9565 22d3 DF000000 		.4byte	0xdf
 9566 22d7 11       		.byte	0x11
 9567 22d8 00       		.byte	0
 9568 22d9 2E       		.uleb128 0x2e
 9569 22da 8E030000 		.4byte	.LASF62
 9570 22de 04       		.byte	0x4
 9571 22df F7       		.byte	0xf7
 9572 22e0 F7220000 		.4byte	0x22f7
 9573 22e4 12       		.byte	0x12
 9574 22e5 03       		.byte	0x3
 9575 22e6 01       		.byte	0x1
 9576 22e7 02       		.byte	0x2
 9577 22e8 03       		.byte	0x3
 9578 22e9 02       		.byte	0x2
ARM GAS  C:\Users\JACOB-~1\AppData\Local\Temp\ccGLbPGC.s 			page 200


 9579 22ea 00       		.byte	0
 9580 22eb 04       		.byte	0x4
 9581 22ec 01       		.byte	0x1
 9582 22ed 00       		.byte	0
 9583 22ee 02       		.byte	0x2
 9584 22ef 00       		.byte	0
 9585 22f0 04       		.byte	0x4
 9586 22f1 03       		.byte	0x3
 9587 22f2 01       		.byte	0x1
 9588 22f3 02       		.byte	0x2
 9589 22f4 03       		.byte	0x3
 9590 22f5 00       		.byte	0
 9591 22f6 00       		.byte	0
 9592 22f7 2D       		.uleb128 0x2d
 9593 22f8 C9220000 		.4byte	0x22c9
 9594 22fc 2F       		.uleb128 0x2f
 9595 22fd 95030000 		.4byte	.LASF63
 9596 2301 04       		.byte	0x4
 9597 2302 0801     		.2byte	0x108
 9598 2304 20230000 		.4byte	0x2320
 9599 2308 17       		.byte	0x17
 9600 2309 04       		.byte	0x4
 9601 230a 01       		.byte	0x1
 9602 230b 02       		.byte	0x2
 9603 230c 03       		.byte	0x3
 9604 230d 04       		.byte	0x4
 9605 230e 02       		.byte	0x2
 9606 230f 00       		.byte	0
 9607 2310 04       		.byte	0x4
 9608 2311 02       		.byte	0x2
 9609 2312 00       		.byte	0
 9610 2313 04       		.byte	0x4
 9611 2314 03       		.byte	0x3
 9612 2315 00       		.byte	0
 9613 2316 03       		.byte	0x3
 9614 2317 04       		.byte	0x4
 9615 2318 03       		.byte	0x3
 9616 2319 01       		.byte	0x1
 9617 231a 02       		.byte	0x2
 9618 231b 04       		.byte	0x4
 9619 231c 01       		.byte	0x1
 9620 231d 04       		.byte	0x4
 9621 231e 01       		.byte	0x1
 9622 231f 04       		.byte	0x4
 9623 2320 2D       		.uleb128 0x2d
 9624 2321 D9200000 		.4byte	0x20d9
 9625 2325 2F       		.uleb128 0x2f
 9626 2326 9C030000 		.4byte	.LASF64
 9627 232a 04       		.byte	0x4
 9628 232b 1A01     		.2byte	0x11a
 9629 232d 48230000 		.4byte	0x2348
 9630 2331 16       		.byte	0x16
 9631 2332 04       		.byte	0x4
 9632 2333 01       		.byte	0x1
 9633 2334 02       		.byte	0x2
 9634 2335 03       		.byte	0x3
 9635 2336 04       		.byte	0x4
ARM GAS  C:\Users\JACOB-~1\AppData\Local\Temp\ccGLbPGC.s 			page 201


 9636 2337 01       		.byte	0x1
 9637 2338 00       		.byte	0
 9638 2339 05       		.byte	0x5
 9639 233a 00       		.byte	0
 9640 233b 01       		.byte	0x1
 9641 233c 02       		.byte	0x2
 9642 233d 03       		.byte	0x3
 9643 233e 04       		.byte	0x4
 9644 233f 02       		.byte	0x2
 9645 2340 00       		.byte	0
 9646 2341 04       		.byte	0x4
 9647 2342 03       		.byte	0x3
 9648 2343 01       		.byte	0x1
 9649 2344 02       		.byte	0x2
 9650 2345 03       		.byte	0x3
 9651 2346 00       		.byte	0
 9652 2347 00       		.byte	0
 9653 2348 2D       		.uleb128 0x2d
 9654 2349 47210000 		.4byte	0x2147
 9655 234d 2F       		.uleb128 0x2f
 9656 234e A3030000 		.4byte	.LASF65
 9657 2352 04       		.byte	0x4
 9658 2353 2B01     		.2byte	0x12b
 9659 2355 6C230000 		.4byte	0x236c
 9660 2359 12       		.byte	0x12
 9661 235a 01       		.byte	0x1
 9662 235b 02       		.byte	0x2
 9663 235c 01       		.byte	0x1
 9664 235d 02       		.byte	0x2
 9665 235e 01       		.byte	0x1
 9666 235f 02       		.byte	0x2
 9667 2360 01       		.byte	0x1
 9668 2361 02       		.byte	0x2
 9669 2362 04       		.byte	0x4
 9670 2363 01       		.byte	0x1
 9671 2364 02       		.byte	0x2
 9672 2365 03       		.byte	0x3
 9673 2366 04       		.byte	0x4
 9674 2367 01       		.byte	0x1
 9675 2368 02       		.byte	0x2
 9676 2369 02       		.byte	0x2
 9677 236a 03       		.byte	0x3
 9678 236b 04       		.byte	0x4
 9679 236c 2D       		.uleb128 0x2d
 9680 236d C9220000 		.4byte	0x22c9
 9681 2371 2F       		.uleb128 0x2f
 9682 2372 AA030000 		.4byte	.LASF66
 9683 2376 04       		.byte	0x4
 9684 2377 3F01     		.2byte	0x13f
 9685 2379 96230000 		.4byte	0x2396
 9686 237d 18       		.byte	0x18
 9687 237e 04       		.byte	0x4
 9688 237f 00       		.byte	0
 9689 2380 01       		.byte	0x1
 9690 2381 02       		.byte	0x2
 9691 2382 03       		.byte	0x3
 9692 2383 01       		.byte	0x1
ARM GAS  C:\Users\JACOB-~1\AppData\Local\Temp\ccGLbPGC.s 			page 202


 9693 2384 04       		.byte	0x4
 9694 2385 04       		.byte	0x4
 9695 2386 01       		.byte	0x1
 9696 2387 02       		.byte	0x2
 9697 2388 03       		.byte	0x3
 9698 2389 04       		.byte	0x4
 9699 238a 02       		.byte	0x2
 9700 238b 00       		.byte	0
 9701 238c 04       		.byte	0x4
 9702 238d 02       		.byte	0x2
 9703 238e 00       		.byte	0
 9704 238f 04       		.byte	0x4
 9705 2390 04       		.byte	0x4
 9706 2391 01       		.byte	0x1
 9707 2392 02       		.byte	0x2
 9708 2393 03       		.byte	0x3
 9709 2394 04       		.byte	0x4
 9710 2395 00       		.byte	0
 9711 2396 2D       		.uleb128 0x2d
 9712 2397 7E210000 		.4byte	0x217e
 9713 239b 2F       		.uleb128 0x2f
 9714 239c B1030000 		.4byte	.LASF67
 9715 23a0 04       		.byte	0x4
 9716 23a1 5001     		.2byte	0x150
 9717 23a3 BD230000 		.4byte	0x23bd
 9718 23a7 15       		.byte	0x15
 9719 23a8 02       		.byte	0x2
 9720 23a9 00       		.byte	0
 9721 23aa 04       		.byte	0x4
 9722 23ab 02       		.byte	0x2
 9723 23ac 00       		.byte	0
 9724 23ad 04       		.byte	0x4
 9725 23ae 02       		.byte	0x2
 9726 23af 00       		.byte	0
 9727 23b0 04       		.byte	0x4
 9728 23b1 03       		.byte	0x3
 9729 23b2 00       		.byte	0
 9730 23b3 01       		.byte	0x1
 9731 23b4 04       		.byte	0x4
 9732 23b5 03       		.byte	0x3
 9733 23b6 00       		.byte	0
 9734 23b7 02       		.byte	0x2
 9735 23b8 03       		.byte	0x3
 9736 23b9 01       		.byte	0x1
 9737 23ba 00       		.byte	0
 9738 23bb 01       		.byte	0x1
 9739 23bc 00       		.byte	0
 9740 23bd 2D       		.uleb128 0x2d
 9741 23be 11210000 		.4byte	0x2111
 9742 23c2 2B       		.uleb128 0x2b
 9743 23c3 75200000 		.4byte	0x2075
 9744 23c7 D2230000 		.4byte	0x23d2
 9745 23cb 2C       		.uleb128 0x2c
 9746 23cc DF000000 		.4byte	0xdf
 9747 23d0 0C       		.byte	0xc
 9748 23d1 00       		.byte	0
 9749 23d2 2F       		.uleb128 0x2f
ARM GAS  C:\Users\JACOB-~1\AppData\Local\Temp\ccGLbPGC.s 			page 203


 9750 23d3 B8030000 		.4byte	.LASF68
 9751 23d7 04       		.byte	0x4
 9752 23d8 6201     		.2byte	0x162
 9753 23da EC230000 		.4byte	0x23ec
 9754 23de 0D       		.byte	0xd
 9755 23df 01       		.byte	0x1
 9756 23e0 02       		.byte	0x2
 9757 23e1 01       		.byte	0x1
 9758 23e2 02       		.byte	0x2
 9759 23e3 01       		.byte	0x1
 9760 23e4 02       		.byte	0x2
 9761 23e5 01       		.byte	0x1
 9762 23e6 02       		.byte	0x2
 9763 23e7 01       		.byte	0x1
 9764 23e8 02       		.byte	0x2
 9765 23e9 00       		.byte	0
 9766 23ea 01       		.byte	0x1
 9767 23eb 02       		.byte	0x2
 9768 23ec 2D       		.uleb128 0x2d
 9769 23ed C2230000 		.4byte	0x23c2
 9770 23f1 2B       		.uleb128 0x2b
 9771 23f2 75200000 		.4byte	0x2075
 9772 23f6 01240000 		.4byte	0x2401
 9773 23fa 30       		.uleb128 0x30
 9774 23fb 01240000 		.4byte	0x2401
 9775 23ff 7F       		.sleb128 -1
 9776 2400 00       		.byte	0
 9777 2401 02       		.uleb128 0x2
 9778 2402 04       		.byte	0x4
 9779 2403 05       		.byte	0x5
 9780 2404 D2000000 		.4byte	.LASF69
 9781 2408 09       		.uleb128 0x9
 9782 2409 BF030000 		.4byte	.LASF70
 9783 240d 04       		.byte	0x4
 9784 240e 7501     		.2byte	0x175
 9785 2410 14240000 		.4byte	0x2414
 9786 2414 2D       		.uleb128 0x2d
 9787 2415 F1230000 		.4byte	0x23f1
 9788 2419 2B       		.uleb128 0x2b
 9789 241a 75200000 		.4byte	0x2075
 9790 241e 29240000 		.4byte	0x2429
 9791 2422 2C       		.uleb128 0x2c
 9792 2423 DF000000 		.4byte	0xdf
 9793 2427 1B       		.byte	0x1b
 9794 2428 00       		.byte	0
 9795 2429 2F       		.uleb128 0x2f
 9796 242a F8020000 		.4byte	.LASF71
 9797 242e 04       		.byte	0x4
 9798 242f 7C01     		.2byte	0x17c
 9799 2431 52240000 		.4byte	0x2452
 9800 2435 1C       		.byte	0x1c
 9801 2436 02       		.byte	0x2
 9802 2437 00       		.byte	0
 9803 2438 04       		.byte	0x4
 9804 2439 02       		.byte	0x2
 9805 243a 00       		.byte	0
 9806 243b 04       		.byte	0x4
ARM GAS  C:\Users\JACOB-~1\AppData\Local\Temp\ccGLbPGC.s 			page 204


 9807 243c 02       		.byte	0x2
 9808 243d 00       		.byte	0
 9809 243e 04       		.byte	0x4
 9810 243f 02       		.byte	0x2
 9811 2440 00       		.byte	0
 9812 2441 04       		.byte	0x4
 9813 2442 02       		.byte	0x2
 9814 2443 00       		.byte	0
 9815 2444 04       		.byte	0x4
 9816 2445 05       		.byte	0x5
 9817 2446 00       		.byte	0
 9818 2447 01       		.byte	0x1
 9819 2448 02       		.byte	0x2
 9820 2449 03       		.byte	0x3
 9821 244a 04       		.byte	0x4
 9822 244b 02       		.byte	0x2
 9823 244c 00       		.byte	0
 9824 244d 04       		.byte	0x4
 9825 244e 03       		.byte	0x3
 9826 244f 01       		.byte	0x1
 9827 2450 02       		.byte	0x2
 9828 2451 03       		.byte	0x3
 9829 2452 2D       		.uleb128 0x2d
 9830 2453 19240000 		.4byte	0x2419
 9831 2457 2B       		.uleb128 0x2b
 9832 2458 75200000 		.4byte	0x2075
 9833 245c 67240000 		.4byte	0x2467
 9834 2460 2C       		.uleb128 0x2c
 9835 2461 DF000000 		.4byte	0xdf
 9836 2465 1A       		.byte	0x1a
 9837 2466 00       		.byte	0
 9838 2467 2F       		.uleb128 0x2f
 9839 2468 FF020000 		.4byte	.LASF72
 9840 246c 04       		.byte	0x4
 9841 246d 9001     		.2byte	0x190
 9842 246f 8F240000 		.4byte	0x248f
 9843 2473 1B       		.byte	0x1b
 9844 2474 04       		.byte	0x4
 9845 2475 00       		.byte	0
 9846 2476 01       		.byte	0x1
 9847 2477 02       		.byte	0x2
 9848 2478 03       		.byte	0x3
 9849 2479 02       		.byte	0x2
 9850 247a 00       		.byte	0
 9851 247b 04       		.byte	0x4
 9852 247c 02       		.byte	0x2
 9853 247d 00       		.byte	0
 9854 247e 04       		.byte	0x4
 9855 247f 02       		.byte	0x2
 9856 2480 00       		.byte	0
 9857 2481 04       		.byte	0x4
 9858 2482 04       		.byte	0x4
 9859 2483 00       		.byte	0
 9860 2484 01       		.byte	0x1
 9861 2485 02       		.byte	0x2
 9862 2486 03       		.byte	0x3
 9863 2487 02       		.byte	0x2
ARM GAS  C:\Users\JACOB-~1\AppData\Local\Temp\ccGLbPGC.s 			page 205


 9864 2488 00       		.byte	0
 9865 2489 04       		.byte	0x4
 9866 248a 04       		.byte	0x4
 9867 248b 00       		.byte	0
 9868 248c 01       		.byte	0x1
 9869 248d 02       		.byte	0x2
 9870 248e 03       		.byte	0x3
 9871 248f 2D       		.uleb128 0x2d
 9872 2490 57240000 		.4byte	0x2457
 9873 2494 2B       		.uleb128 0x2b
 9874 2495 75200000 		.4byte	0x2075
 9875 2499 A4240000 		.4byte	0x24a4
 9876 249d 2C       		.uleb128 0x2c
 9877 249e DF000000 		.4byte	0xdf
 9878 24a2 13       		.byte	0x13
 9879 24a3 00       		.byte	0
 9880 24a4 2F       		.uleb128 0x2f
 9881 24a5 06030000 		.4byte	.LASF73
 9882 24a9 04       		.byte	0x4
 9883 24aa A201     		.2byte	0x1a2
 9884 24ac C5240000 		.4byte	0x24c5
 9885 24b0 14       		.byte	0x14
 9886 24b1 03       		.byte	0x3
 9887 24b2 01       		.byte	0x1
 9888 24b3 02       		.byte	0x2
 9889 24b4 03       		.byte	0x3
 9890 24b5 02       		.byte	0x2
 9891 24b6 00       		.byte	0
 9892 24b7 04       		.byte	0x4
 9893 24b8 01       		.byte	0x1
 9894 24b9 00       		.byte	0
 9895 24ba 01       		.byte	0x1
 9896 24bb 00       		.byte	0
 9897 24bc 01       		.byte	0x1
 9898 24bd 00       		.byte	0
 9899 24be 02       		.byte	0x2
 9900 24bf 00       		.byte	0
 9901 24c0 04       		.byte	0x4
 9902 24c1 03       		.byte	0x3
 9903 24c2 01       		.byte	0x1
 9904 24c3 02       		.byte	0x2
 9905 24c4 03       		.byte	0x3
 9906 24c5 2D       		.uleb128 0x2d
 9907 24c6 94240000 		.4byte	0x2494
 9908 24ca 2B       		.uleb128 0x2b
 9909 24cb 75200000 		.4byte	0x2075
 9910 24cf DA240000 		.4byte	0x24da
 9911 24d3 2C       		.uleb128 0x2c
 9912 24d4 DF000000 		.4byte	0xdf
 9913 24d8 18       		.byte	0x18
 9914 24d9 00       		.byte	0
 9915 24da 2F       		.uleb128 0x2f
 9916 24db 0D030000 		.4byte	.LASF74
 9917 24df 04       		.byte	0x4
 9918 24e0 B401     		.2byte	0x1b4
 9919 24e2 00250000 		.4byte	0x2500
 9920 24e6 19       		.byte	0x19
ARM GAS  C:\Users\JACOB-~1\AppData\Local\Temp\ccGLbPGC.s 			page 206


 9921 24e7 04       		.byte	0x4
 9922 24e8 00       		.byte	0
 9923 24e9 01       		.byte	0x1
 9924 24ea 02       		.byte	0x2
 9925 24eb 03       		.byte	0x3
 9926 24ec 02       		.byte	0x2
 9927 24ed 00       		.byte	0
 9928 24ee 04       		.byte	0x4
 9929 24ef 02       		.byte	0x2
 9930 24f0 00       		.byte	0
 9931 24f1 04       		.byte	0x4
 9932 24f2 02       		.byte	0x2
 9933 24f3 00       		.byte	0
 9934 24f4 04       		.byte	0x4
 9935 24f5 02       		.byte	0x2
 9936 24f6 00       		.byte	0
 9937 24f7 04       		.byte	0x4
 9938 24f8 02       		.byte	0x2
 9939 24f9 00       		.byte	0
 9940 24fa 04       		.byte	0x4
 9941 24fb 04       		.byte	0x4
 9942 24fc 00       		.byte	0
 9943 24fd 01       		.byte	0x1
 9944 24fe 02       		.byte	0x2
 9945 24ff 03       		.byte	0x3
 9946 2500 2D       		.uleb128 0x2d
 9947 2501 CA240000 		.4byte	0x24ca
 9948 2505 2F       		.uleb128 0x2f
 9949 2506 14030000 		.4byte	.LASF75
 9950 250a 04       		.byte	0x4
 9951 250b C701     		.2byte	0x1c7
 9952 250d 2B250000 		.4byte	0x252b
 9953 2511 19       		.byte	0x19
 9954 2512 05       		.byte	0x5
 9955 2513 00       		.byte	0
 9956 2514 01       		.byte	0x1
 9957 2515 02       		.byte	0x2
 9958 2516 03       		.byte	0x3
 9959 2517 04       		.byte	0x4
 9960 2518 01       		.byte	0x1
 9961 2519 00       		.byte	0
 9962 251a 01       		.byte	0x1
 9963 251b 00       		.byte	0
 9964 251c 04       		.byte	0x4
 9965 251d 00       		.byte	0
 9966 251e 01       		.byte	0x1
 9967 251f 02       		.byte	0x2
 9968 2520 03       		.byte	0x3
 9969 2521 01       		.byte	0x1
 9970 2522 00       		.byte	0
 9971 2523 01       		.byte	0x1
 9972 2524 00       		.byte	0
 9973 2525 05       		.byte	0x5
 9974 2526 00       		.byte	0
 9975 2527 01       		.byte	0x1
 9976 2528 02       		.byte	0x2
 9977 2529 03       		.byte	0x3
ARM GAS  C:\Users\JACOB-~1\AppData\Local\Temp\ccGLbPGC.s 			page 207


 9978 252a 04       		.byte	0x4
 9979 252b 2D       		.uleb128 0x2d
 9980 252c CA240000 		.4byte	0x24ca
 9981 2530 2F       		.uleb128 0x2f
 9982 2531 1B030000 		.4byte	.LASF76
 9983 2535 04       		.byte	0x4
 9984 2536 D901     		.2byte	0x1d9
 9985 2538 51250000 		.4byte	0x2551
 9986 253c 14       		.byte	0x14
 9987 253d 01       		.byte	0x1
 9988 253e 00       		.byte	0
 9989 253f 01       		.byte	0x1
 9990 2540 00       		.byte	0
 9991 2541 01       		.byte	0x1
 9992 2542 00       		.byte	0
 9993 2543 01       		.byte	0x1
 9994 2544 00       		.byte	0
 9995 2545 03       		.byte	0x3
 9996 2546 00       		.byte	0
 9997 2547 01       		.byte	0x1
 9998 2548 02       		.byte	0x2
 9999 2549 01       		.byte	0x1
 10000 254a 00       		.byte	0
 10001 254b 05       		.byte	0x5
 10002 254c 00       		.byte	0
 10003 254d 01       		.byte	0x1
 10004 254e 02       		.byte	0x2
 10005 254f 03       		.byte	0x3
 10006 2550 04       		.byte	0x4
 10007 2551 2D       		.uleb128 0x2d
 10008 2552 94240000 		.4byte	0x2494
 10009 2556 2F       		.uleb128 0x2f
 10010 2557 22030000 		.4byte	.LASF77
 10011 255b 04       		.byte	0x4
 10012 255c EB01     		.2byte	0x1eb
 10013 255e 7B250000 		.4byte	0x257b
 10014 2562 18       		.byte	0x18
 10015 2563 03       		.byte	0x3
 10016 2564 01       		.byte	0x1
 10017 2565 02       		.byte	0x2
 10018 2566 03       		.byte	0x3
 10019 2567 02       		.byte	0x2
 10020 2568 00       		.byte	0
 10021 2569 04       		.byte	0x4
 10022 256a 02       		.byte	0x2
 10023 256b 00       		.byte	0
 10024 256c 04       		.byte	0x4
 10025 256d 02       		.byte	0x2
 10026 256e 00       		.byte	0
 10027 256f 04       		.byte	0x4
 10028 2570 03       		.byte	0x3
 10029 2571 00       		.byte	0
 10030 2572 03       		.byte	0x3
 10031 2573 04       		.byte	0x4
 10032 2574 01       		.byte	0x1
 10033 2575 00       		.byte	0
 10034 2576 04       		.byte	0x4
ARM GAS  C:\Users\JACOB-~1\AppData\Local\Temp\ccGLbPGC.s 			page 208


 10035 2577 01       		.byte	0x1
 10036 2578 02       		.byte	0x2
 10037 2579 03       		.byte	0x3
 10038 257a 04       		.byte	0x4
 10039 257b 2D       		.uleb128 0x2d
 10040 257c 7E210000 		.4byte	0x217e
 10041 2580 2B       		.uleb128 0x2b
 10042 2581 75200000 		.4byte	0x2075
 10043 2585 91250000 		.4byte	0x2591
 10044 2589 31       		.uleb128 0x31
 10045 258a DF000000 		.4byte	0xdf
 10046 258e 4C03     		.2byte	0x34c
 10047 2590 00       		.byte	0
 10048 2591 32       		.uleb128 0x32
 10049 2592 8B000000 		.4byte	.LASF78
 10050 2596 01       		.byte	0x1
 10051 2597 15       		.byte	0x15
 10052 2598 A2250000 		.4byte	0x25a2
 10053 259c 05       		.uleb128 0x5
 10054 259d 03       		.byte	0x3
 10055 259e 00000000 		.4byte	font
 10056 25a2 2D       		.uleb128 0x2d
 10057 25a3 80250000 		.4byte	0x2580
 10058 25a7 33       		.uleb128 0x33
 10059 25a8 CD030000 		.4byte	.LASF84
 10060 25ac 06       		.byte	0x6
 10061 25ad 1207     		.2byte	0x712
 10062 25af B3250000 		.4byte	0x25b3
 10063 25b3 34       		.uleb128 0x34
 10064 25b4 BF000000 		.4byte	0xbf
 10065 25b8 35       		.uleb128 0x35
 10066 25b9 D7020000 		.4byte	.LASF79
 10067 25bd D7020000 		.4byte	.LASF79
 10068 25c1 01       		.byte	0x1
 10069 25c2 D802     		.2byte	0x2d8
 10070 25c4 35       		.uleb128 0x35
 10071 25c5 6B020000 		.4byte	.LASF48
 10072 25c9 6B020000 		.4byte	.LASF48
 10073 25cd 01       		.byte	0x1
 10074 25ce 9303     		.2byte	0x393
 10075 25d0 36       		.uleb128 0x36
 10076 25d1 E3010000 		.4byte	.LASF80
 10077 25d5 E3010000 		.4byte	.LASF80
 10078 25d9 05       		.byte	0x5
 10079 25da E7       		.byte	0xe7
 10080 25db 00       		.byte	0
 10081              		.section	.debug_abbrev,"",%progbits
 10082              	.Ldebug_abbrev0:
 10083 0000 01       		.uleb128 0x1
 10084 0001 11       		.uleb128 0x11
 10085 0002 01       		.byte	0x1
 10086 0003 25       		.uleb128 0x25
 10087 0004 0E       		.uleb128 0xe
 10088 0005 13       		.uleb128 0x13
 10089 0006 0B       		.uleb128 0xb
 10090 0007 03       		.uleb128 0x3
 10091 0008 0E       		.uleb128 0xe
ARM GAS  C:\Users\JACOB-~1\AppData\Local\Temp\ccGLbPGC.s 			page 209


 10092 0009 1B       		.uleb128 0x1b
 10093 000a 0E       		.uleb128 0xe
 10094 000b 55       		.uleb128 0x55
 10095 000c 17       		.uleb128 0x17
 10096 000d 11       		.uleb128 0x11
 10097 000e 01       		.uleb128 0x1
 10098 000f 10       		.uleb128 0x10
 10099 0010 17       		.uleb128 0x17
 10100 0011 00       		.byte	0
 10101 0012 00       		.byte	0
 10102 0013 02       		.uleb128 0x2
 10103 0014 24       		.uleb128 0x24
 10104 0015 00       		.byte	0
 10105 0016 0B       		.uleb128 0xb
 10106 0017 0B       		.uleb128 0xb
 10107 0018 3E       		.uleb128 0x3e
 10108 0019 0B       		.uleb128 0xb
 10109 001a 03       		.uleb128 0x3
 10110 001b 0E       		.uleb128 0xe
 10111 001c 00       		.byte	0
 10112 001d 00       		.byte	0
 10113 001e 03       		.uleb128 0x3
 10114 001f 24       		.uleb128 0x24
 10115 0020 00       		.byte	0
 10116 0021 0B       		.uleb128 0xb
 10117 0022 0B       		.uleb128 0xb
 10118 0023 3E       		.uleb128 0x3e
 10119 0024 0B       		.uleb128 0xb
 10120 0025 03       		.uleb128 0x3
 10121 0026 08       		.uleb128 0x8
 10122 0027 00       		.byte	0
 10123 0028 00       		.byte	0
 10124 0029 04       		.uleb128 0x4
 10125 002a 16       		.uleb128 0x16
 10126 002b 00       		.byte	0
 10127 002c 03       		.uleb128 0x3
 10128 002d 0E       		.uleb128 0xe
 10129 002e 3A       		.uleb128 0x3a
 10130 002f 0B       		.uleb128 0xb
 10131 0030 3B       		.uleb128 0x3b
 10132 0031 0B       		.uleb128 0xb
 10133 0032 49       		.uleb128 0x49
 10134 0033 13       		.uleb128 0x13
 10135 0034 00       		.byte	0
 10136 0035 00       		.byte	0
 10137 0036 05       		.uleb128 0x5
 10138 0037 0F       		.uleb128 0xf
 10139 0038 00       		.byte	0
 10140 0039 0B       		.uleb128 0xb
 10141 003a 0B       		.uleb128 0xb
 10142 003b 49       		.uleb128 0x49
 10143 003c 13       		.uleb128 0x13
 10144 003d 00       		.byte	0
 10145 003e 00       		.byte	0
 10146 003f 06       		.uleb128 0x6
 10147 0040 2E       		.uleb128 0x2e
 10148 0041 01       		.byte	0x1
ARM GAS  C:\Users\JACOB-~1\AppData\Local\Temp\ccGLbPGC.s 			page 210


 10149 0042 3F       		.uleb128 0x3f
 10150 0043 19       		.uleb128 0x19
 10151 0044 03       		.uleb128 0x3
 10152 0045 0E       		.uleb128 0xe
 10153 0046 3A       		.uleb128 0x3a
 10154 0047 0B       		.uleb128 0xb
 10155 0048 3B       		.uleb128 0x3b
 10156 0049 05       		.uleb128 0x5
 10157 004a 27       		.uleb128 0x27
 10158 004b 19       		.uleb128 0x19
 10159 004c 20       		.uleb128 0x20
 10160 004d 0B       		.uleb128 0xb
 10161 004e 01       		.uleb128 0x1
 10162 004f 13       		.uleb128 0x13
 10163 0050 00       		.byte	0
 10164 0051 00       		.byte	0
 10165 0052 07       		.uleb128 0x7
 10166 0053 05       		.uleb128 0x5
 10167 0054 00       		.byte	0
 10168 0055 03       		.uleb128 0x3
 10169 0056 08       		.uleb128 0x8
 10170 0057 3A       		.uleb128 0x3a
 10171 0058 0B       		.uleb128 0xb
 10172 0059 3B       		.uleb128 0x3b
 10173 005a 05       		.uleb128 0x5
 10174 005b 49       		.uleb128 0x49
 10175 005c 13       		.uleb128 0x13
 10176 005d 00       		.byte	0
 10177 005e 00       		.byte	0
 10178 005f 08       		.uleb128 0x8
 10179 0060 05       		.uleb128 0x5
 10180 0061 00       		.byte	0
 10181 0062 03       		.uleb128 0x3
 10182 0063 0E       		.uleb128 0xe
 10183 0064 3A       		.uleb128 0x3a
 10184 0065 0B       		.uleb128 0xb
 10185 0066 3B       		.uleb128 0x3b
 10186 0067 05       		.uleb128 0x5
 10187 0068 49       		.uleb128 0x49
 10188 0069 13       		.uleb128 0x13
 10189 006a 00       		.byte	0
 10190 006b 00       		.byte	0
 10191 006c 09       		.uleb128 0x9
 10192 006d 34       		.uleb128 0x34
 10193 006e 00       		.byte	0
 10194 006f 03       		.uleb128 0x3
 10195 0070 0E       		.uleb128 0xe
 10196 0071 3A       		.uleb128 0x3a
 10197 0072 0B       		.uleb128 0xb
 10198 0073 3B       		.uleb128 0x3b
 10199 0074 05       		.uleb128 0x5
 10200 0075 49       		.uleb128 0x49
 10201 0076 13       		.uleb128 0x13
 10202 0077 00       		.byte	0
 10203 0078 00       		.byte	0
 10204 0079 0A       		.uleb128 0xa
 10205 007a 0B       		.uleb128 0xb
ARM GAS  C:\Users\JACOB-~1\AppData\Local\Temp\ccGLbPGC.s 			page 211


 10206 007b 01       		.byte	0x1
 10207 007c 01       		.uleb128 0x1
 10208 007d 13       		.uleb128 0x13
 10209 007e 00       		.byte	0
 10210 007f 00       		.byte	0
 10211 0080 0B       		.uleb128 0xb
 10212 0081 34       		.uleb128 0x34
 10213 0082 00       		.byte	0
 10214 0083 03       		.uleb128 0x3
 10215 0084 08       		.uleb128 0x8
 10216 0085 3A       		.uleb128 0x3a
 10217 0086 0B       		.uleb128 0xb
 10218 0087 3B       		.uleb128 0x3b
 10219 0088 05       		.uleb128 0x5
 10220 0089 49       		.uleb128 0x49
 10221 008a 13       		.uleb128 0x13
 10222 008b 00       		.byte	0
 10223 008c 00       		.byte	0
 10224 008d 0C       		.uleb128 0xc
 10225 008e 0B       		.uleb128 0xb
 10226 008f 01       		.byte	0x1
 10227 0090 00       		.byte	0
 10228 0091 00       		.byte	0
 10229 0092 0D       		.uleb128 0xd
 10230 0093 2E       		.uleb128 0x2e
 10231 0094 01       		.byte	0x1
 10232 0095 3F       		.uleb128 0x3f
 10233 0096 19       		.uleb128 0x19
 10234 0097 03       		.uleb128 0x3
 10235 0098 0E       		.uleb128 0xe
 10236 0099 3A       		.uleb128 0x3a
 10237 009a 0B       		.uleb128 0xb
 10238 009b 3B       		.uleb128 0x3b
 10239 009c 05       		.uleb128 0x5
 10240 009d 49       		.uleb128 0x49
 10241 009e 13       		.uleb128 0x13
 10242 009f 3C       		.uleb128 0x3c
 10243 00a0 19       		.uleb128 0x19
 10244 00a1 00       		.byte	0
 10245 00a2 00       		.byte	0
 10246 00a3 0E       		.uleb128 0xe
 10247 00a4 18       		.uleb128 0x18
 10248 00a5 00       		.byte	0
 10249 00a6 00       		.byte	0
 10250 00a7 00       		.byte	0
 10251 00a8 0F       		.uleb128 0xf
 10252 00a9 2E       		.uleb128 0x2e
 10253 00aa 01       		.byte	0x1
 10254 00ab 31       		.uleb128 0x31
 10255 00ac 13       		.uleb128 0x13
 10256 00ad 11       		.uleb128 0x11
 10257 00ae 01       		.uleb128 0x1
 10258 00af 12       		.uleb128 0x12
 10259 00b0 06       		.uleb128 0x6
 10260 00b1 40       		.uleb128 0x40
 10261 00b2 18       		.uleb128 0x18
 10262 00b3 9742     		.uleb128 0x2117
ARM GAS  C:\Users\JACOB-~1\AppData\Local\Temp\ccGLbPGC.s 			page 212


 10263 00b5 19       		.uleb128 0x19
 10264 00b6 01       		.uleb128 0x1
 10265 00b7 13       		.uleb128 0x13
 10266 00b8 00       		.byte	0
 10267 00b9 00       		.byte	0
 10268 00ba 10       		.uleb128 0x10
 10269 00bb 05       		.uleb128 0x5
 10270 00bc 00       		.byte	0
 10271 00bd 31       		.uleb128 0x31
 10272 00be 13       		.uleb128 0x13
 10273 00bf 02       		.uleb128 0x2
 10274 00c0 17       		.uleb128 0x17
 10275 00c1 00       		.byte	0
 10276 00c2 00       		.byte	0
 10277 00c3 11       		.uleb128 0x11
 10278 00c4 34       		.uleb128 0x34
 10279 00c5 00       		.byte	0
 10280 00c6 31       		.uleb128 0x31
 10281 00c7 13       		.uleb128 0x13
 10282 00c8 02       		.uleb128 0x2
 10283 00c9 17       		.uleb128 0x17
 10284 00ca 00       		.byte	0
 10285 00cb 00       		.byte	0
 10286 00cc 12       		.uleb128 0x12
 10287 00cd 0B       		.uleb128 0xb
 10288 00ce 01       		.byte	0x1
 10289 00cf 55       		.uleb128 0x55
 10290 00d0 17       		.uleb128 0x17
 10291 00d1 01       		.uleb128 0x1
 10292 00d2 13       		.uleb128 0x13
 10293 00d3 00       		.byte	0
 10294 00d4 00       		.byte	0
 10295 00d5 13       		.uleb128 0x13
 10296 00d6 0B       		.uleb128 0xb
 10297 00d7 01       		.byte	0x1
 10298 00d8 11       		.uleb128 0x11
 10299 00d9 01       		.uleb128 0x1
 10300 00da 12       		.uleb128 0x12
 10301 00db 06       		.uleb128 0x6
 10302 00dc 00       		.byte	0
 10303 00dd 00       		.byte	0
 10304 00de 14       		.uleb128 0x14
 10305 00df 2E       		.uleb128 0x2e
 10306 00e0 01       		.byte	0x1
 10307 00e1 47       		.uleb128 0x47
 10308 00e2 13       		.uleb128 0x13
 10309 00e3 20       		.uleb128 0x20
 10310 00e4 0B       		.uleb128 0xb
 10311 00e5 01       		.uleb128 0x1
 10312 00e6 13       		.uleb128 0x13
 10313 00e7 00       		.byte	0
 10314 00e8 00       		.byte	0
 10315 00e9 15       		.uleb128 0x15
 10316 00ea 898201   		.uleb128 0x4109
 10317 00ed 01       		.byte	0x1
 10318 00ee 11       		.uleb128 0x11
 10319 00ef 01       		.uleb128 0x1
ARM GAS  C:\Users\JACOB-~1\AppData\Local\Temp\ccGLbPGC.s 			page 213


 10320 00f0 31       		.uleb128 0x31
 10321 00f1 13       		.uleb128 0x13
 10322 00f2 00       		.byte	0
 10323 00f3 00       		.byte	0
 10324 00f4 16       		.uleb128 0x16
 10325 00f5 8A8201   		.uleb128 0x410a
 10326 00f8 00       		.byte	0
 10327 00f9 02       		.uleb128 0x2
 10328 00fa 18       		.uleb128 0x18
 10329 00fb 9142     		.uleb128 0x2111
 10330 00fd 18       		.uleb128 0x18
 10331 00fe 00       		.byte	0
 10332 00ff 00       		.byte	0
 10333 0100 17       		.uleb128 0x17
 10334 0101 2E       		.uleb128 0x2e
 10335 0102 01       		.byte	0x1
 10336 0103 3F       		.uleb128 0x3f
 10337 0104 19       		.uleb128 0x19
 10338 0105 03       		.uleb128 0x3
 10339 0106 0E       		.uleb128 0xe
 10340 0107 3A       		.uleb128 0x3a
 10341 0108 0B       		.uleb128 0xb
 10342 0109 3B       		.uleb128 0x3b
 10343 010a 05       		.uleb128 0x5
 10344 010b 27       		.uleb128 0x27
 10345 010c 19       		.uleb128 0x19
 10346 010d 11       		.uleb128 0x11
 10347 010e 01       		.uleb128 0x1
 10348 010f 12       		.uleb128 0x12
 10349 0110 06       		.uleb128 0x6
 10350 0111 40       		.uleb128 0x40
 10351 0112 18       		.uleb128 0x18
 10352 0113 9742     		.uleb128 0x2117
 10353 0115 19       		.uleb128 0x19
 10354 0116 01       		.uleb128 0x1
 10355 0117 13       		.uleb128 0x13
 10356 0118 00       		.byte	0
 10357 0119 00       		.byte	0
 10358 011a 18       		.uleb128 0x18
 10359 011b 05       		.uleb128 0x5
 10360 011c 00       		.byte	0
 10361 011d 03       		.uleb128 0x3
 10362 011e 08       		.uleb128 0x8
 10363 011f 3A       		.uleb128 0x3a
 10364 0120 0B       		.uleb128 0xb
 10365 0121 3B       		.uleb128 0x3b
 10366 0122 05       		.uleb128 0x5
 10367 0123 49       		.uleb128 0x49
 10368 0124 13       		.uleb128 0x13
 10369 0125 02       		.uleb128 0x2
 10370 0126 17       		.uleb128 0x17
 10371 0127 00       		.byte	0
 10372 0128 00       		.byte	0
 10373 0129 19       		.uleb128 0x19
 10374 012a 05       		.uleb128 0x5
 10375 012b 00       		.byte	0
 10376 012c 03       		.uleb128 0x3
ARM GAS  C:\Users\JACOB-~1\AppData\Local\Temp\ccGLbPGC.s 			page 214


 10377 012d 0E       		.uleb128 0xe
 10378 012e 3A       		.uleb128 0x3a
 10379 012f 0B       		.uleb128 0xb
 10380 0130 3B       		.uleb128 0x3b
 10381 0131 05       		.uleb128 0x5
 10382 0132 49       		.uleb128 0x49
 10383 0133 13       		.uleb128 0x13
 10384 0134 02       		.uleb128 0x2
 10385 0135 17       		.uleb128 0x17
 10386 0136 00       		.byte	0
 10387 0137 00       		.byte	0
 10388 0138 1A       		.uleb128 0x1a
 10389 0139 34       		.uleb128 0x34
 10390 013a 00       		.byte	0
 10391 013b 03       		.uleb128 0x3
 10392 013c 0E       		.uleb128 0xe
 10393 013d 3A       		.uleb128 0x3a
 10394 013e 0B       		.uleb128 0xb
 10395 013f 3B       		.uleb128 0x3b
 10396 0140 05       		.uleb128 0x5
 10397 0141 49       		.uleb128 0x49
 10398 0142 13       		.uleb128 0x13
 10399 0143 02       		.uleb128 0x2
 10400 0144 17       		.uleb128 0x17
 10401 0145 00       		.byte	0
 10402 0146 00       		.byte	0
 10403 0147 1B       		.uleb128 0x1b
 10404 0148 0B       		.uleb128 0xb
 10405 0149 01       		.byte	0x1
 10406 014a 55       		.uleb128 0x55
 10407 014b 17       		.uleb128 0x17
 10408 014c 00       		.byte	0
 10409 014d 00       		.byte	0
 10410 014e 1C       		.uleb128 0x1c
 10411 014f 34       		.uleb128 0x34
 10412 0150 00       		.byte	0
 10413 0151 03       		.uleb128 0x3
 10414 0152 08       		.uleb128 0x8
 10415 0153 3A       		.uleb128 0x3a
 10416 0154 0B       		.uleb128 0xb
 10417 0155 3B       		.uleb128 0x3b
 10418 0156 05       		.uleb128 0x5
 10419 0157 49       		.uleb128 0x49
 10420 0158 13       		.uleb128 0x13
 10421 0159 02       		.uleb128 0x2
 10422 015a 17       		.uleb128 0x17
 10423 015b 00       		.byte	0
 10424 015c 00       		.byte	0
 10425 015d 1D       		.uleb128 0x1d
 10426 015e 1D       		.uleb128 0x1d
 10427 015f 01       		.byte	0x1
 10428 0160 31       		.uleb128 0x31
 10429 0161 13       		.uleb128 0x13
 10430 0162 11       		.uleb128 0x11
 10431 0163 01       		.uleb128 0x1
 10432 0164 12       		.uleb128 0x12
 10433 0165 06       		.uleb128 0x6
ARM GAS  C:\Users\JACOB-~1\AppData\Local\Temp\ccGLbPGC.s 			page 215


 10434 0166 58       		.uleb128 0x58
 10435 0167 0B       		.uleb128 0xb
 10436 0168 59       		.uleb128 0x59
 10437 0169 05       		.uleb128 0x5
 10438 016a 01       		.uleb128 0x1
 10439 016b 13       		.uleb128 0x13
 10440 016c 00       		.byte	0
 10441 016d 00       		.byte	0
 10442 016e 1E       		.uleb128 0x1e
 10443 016f 05       		.uleb128 0x5
 10444 0170 00       		.byte	0
 10445 0171 31       		.uleb128 0x31
 10446 0172 13       		.uleb128 0x13
 10447 0173 00       		.byte	0
 10448 0174 00       		.byte	0
 10449 0175 1F       		.uleb128 0x1f
 10450 0176 0B       		.uleb128 0xb
 10451 0177 01       		.byte	0x1
 10452 0178 11       		.uleb128 0x11
 10453 0179 01       		.uleb128 0x1
 10454 017a 12       		.uleb128 0x12
 10455 017b 06       		.uleb128 0x6
 10456 017c 01       		.uleb128 0x1
 10457 017d 13       		.uleb128 0x13
 10458 017e 00       		.byte	0
 10459 017f 00       		.byte	0
 10460 0180 20       		.uleb128 0x20
 10461 0181 34       		.uleb128 0x34
 10462 0182 00       		.byte	0
 10463 0183 31       		.uleb128 0x31
 10464 0184 13       		.uleb128 0x13
 10465 0185 00       		.byte	0
 10466 0186 00       		.byte	0
 10467 0187 21       		.uleb128 0x21
 10468 0188 1D       		.uleb128 0x1d
 10469 0189 01       		.byte	0x1
 10470 018a 31       		.uleb128 0x31
 10471 018b 13       		.uleb128 0x13
 10472 018c 11       		.uleb128 0x11
 10473 018d 01       		.uleb128 0x1
 10474 018e 12       		.uleb128 0x12
 10475 018f 06       		.uleb128 0x6
 10476 0190 58       		.uleb128 0x58
 10477 0191 0B       		.uleb128 0xb
 10478 0192 59       		.uleb128 0x59
 10479 0193 05       		.uleb128 0x5
 10480 0194 00       		.byte	0
 10481 0195 00       		.byte	0
 10482 0196 22       		.uleb128 0x22
 10483 0197 05       		.uleb128 0x5
 10484 0198 00       		.byte	0
 10485 0199 31       		.uleb128 0x31
 10486 019a 13       		.uleb128 0x13
 10487 019b 02       		.uleb128 0x2
 10488 019c 18       		.uleb128 0x18
 10489 019d 00       		.byte	0
 10490 019e 00       		.byte	0
ARM GAS  C:\Users\JACOB-~1\AppData\Local\Temp\ccGLbPGC.s 			page 216


 10491 019f 23       		.uleb128 0x23
 10492 01a0 34       		.uleb128 0x34
 10493 01a1 00       		.byte	0
 10494 01a2 31       		.uleb128 0x31
 10495 01a3 13       		.uleb128 0x13
 10496 01a4 1C       		.uleb128 0x1c
 10497 01a5 0B       		.uleb128 0xb
 10498 01a6 00       		.byte	0
 10499 01a7 00       		.byte	0
 10500 01a8 24       		.uleb128 0x24
 10501 01a9 2E       		.uleb128 0x2e
 10502 01aa 01       		.byte	0x1
 10503 01ab 3F       		.uleb128 0x3f
 10504 01ac 19       		.uleb128 0x19
 10505 01ad 03       		.uleb128 0x3
 10506 01ae 0E       		.uleb128 0xe
 10507 01af 3A       		.uleb128 0x3a
 10508 01b0 0B       		.uleb128 0xb
 10509 01b1 3B       		.uleb128 0x3b
 10510 01b2 05       		.uleb128 0x5
 10511 01b3 27       		.uleb128 0x27
 10512 01b4 19       		.uleb128 0x19
 10513 01b5 11       		.uleb128 0x11
 10514 01b6 01       		.uleb128 0x1
 10515 01b7 12       		.uleb128 0x12
 10516 01b8 06       		.uleb128 0x6
 10517 01b9 40       		.uleb128 0x40
 10518 01ba 18       		.uleb128 0x18
 10519 01bb 9642     		.uleb128 0x2116
 10520 01bd 19       		.uleb128 0x19
 10521 01be 01       		.uleb128 0x1
 10522 01bf 13       		.uleb128 0x13
 10523 01c0 00       		.byte	0
 10524 01c1 00       		.byte	0
 10525 01c2 25       		.uleb128 0x25
 10526 01c3 1D       		.uleb128 0x1d
 10527 01c4 01       		.byte	0x1
 10528 01c5 31       		.uleb128 0x31
 10529 01c6 13       		.uleb128 0x13
 10530 01c7 52       		.uleb128 0x52
 10531 01c8 01       		.uleb128 0x1
 10532 01c9 55       		.uleb128 0x55
 10533 01ca 17       		.uleb128 0x17
 10534 01cb 58       		.uleb128 0x58
 10535 01cc 0B       		.uleb128 0xb
 10536 01cd 59       		.uleb128 0x59
 10537 01ce 05       		.uleb128 0x5
 10538 01cf 01       		.uleb128 0x1
 10539 01d0 13       		.uleb128 0x13
 10540 01d1 00       		.byte	0
 10541 01d2 00       		.byte	0
 10542 01d3 26       		.uleb128 0x26
 10543 01d4 1D       		.uleb128 0x1d
 10544 01d5 01       		.byte	0x1
 10545 01d6 31       		.uleb128 0x31
 10546 01d7 13       		.uleb128 0x13
 10547 01d8 52       		.uleb128 0x52
ARM GAS  C:\Users\JACOB-~1\AppData\Local\Temp\ccGLbPGC.s 			page 217


 10548 01d9 01       		.uleb128 0x1
 10549 01da 55       		.uleb128 0x55
 10550 01db 17       		.uleb128 0x17
 10551 01dc 58       		.uleb128 0x58
 10552 01dd 0B       		.uleb128 0xb
 10553 01de 59       		.uleb128 0x59
 10554 01df 05       		.uleb128 0x5
 10555 01e0 00       		.byte	0
 10556 01e1 00       		.byte	0
 10557 01e2 27       		.uleb128 0x27
 10558 01e3 34       		.uleb128 0x34
 10559 01e4 00       		.byte	0
 10560 01e5 03       		.uleb128 0x3
 10561 01e6 0E       		.uleb128 0xe
 10562 01e7 3A       		.uleb128 0x3a
 10563 01e8 0B       		.uleb128 0xb
 10564 01e9 3B       		.uleb128 0x3b
 10565 01ea 05       		.uleb128 0x5
 10566 01eb 49       		.uleb128 0x49
 10567 01ec 13       		.uleb128 0x13
 10568 01ed 1C       		.uleb128 0x1c
 10569 01ee 0B       		.uleb128 0xb
 10570 01ef 00       		.byte	0
 10571 01f0 00       		.byte	0
 10572 01f1 28       		.uleb128 0x28
 10573 01f2 34       		.uleb128 0x34
 10574 01f3 00       		.byte	0
 10575 01f4 03       		.uleb128 0x3
 10576 01f5 0E       		.uleb128 0xe
 10577 01f6 3A       		.uleb128 0x3a
 10578 01f7 0B       		.uleb128 0xb
 10579 01f8 3B       		.uleb128 0x3b
 10580 01f9 05       		.uleb128 0x5
 10581 01fa 49       		.uleb128 0x49
 10582 01fb 13       		.uleb128 0x13
 10583 01fc 02       		.uleb128 0x2
 10584 01fd 18       		.uleb128 0x18
 10585 01fe 00       		.byte	0
 10586 01ff 00       		.byte	0
 10587 0200 29       		.uleb128 0x29
 10588 0201 2E       		.uleb128 0x2e
 10589 0202 01       		.byte	0x1
 10590 0203 3F       		.uleb128 0x3f
 10591 0204 19       		.uleb128 0x19
 10592 0205 03       		.uleb128 0x3
 10593 0206 0E       		.uleb128 0xe
 10594 0207 3A       		.uleb128 0x3a
 10595 0208 0B       		.uleb128 0xb
 10596 0209 3B       		.uleb128 0x3b
 10597 020a 05       		.uleb128 0x5
 10598 020b 49       		.uleb128 0x49
 10599 020c 13       		.uleb128 0x13
 10600 020d 3C       		.uleb128 0x3c
 10601 020e 19       		.uleb128 0x19
 10602 020f 01       		.uleb128 0x1
 10603 0210 13       		.uleb128 0x13
 10604 0211 00       		.byte	0
ARM GAS  C:\Users\JACOB-~1\AppData\Local\Temp\ccGLbPGC.s 			page 218


 10605 0212 00       		.byte	0
 10606 0213 2A       		.uleb128 0x2a
 10607 0214 898201   		.uleb128 0x4109
 10608 0217 01       		.byte	0x1
 10609 0218 11       		.uleb128 0x11
 10610 0219 01       		.uleb128 0x1
 10611 021a 31       		.uleb128 0x31
 10612 021b 13       		.uleb128 0x13
 10613 021c 01       		.uleb128 0x1
 10614 021d 13       		.uleb128 0x13
 10615 021e 00       		.byte	0
 10616 021f 00       		.byte	0
 10617 0220 2B       		.uleb128 0x2b
 10618 0221 01       		.uleb128 0x1
 10619 0222 01       		.byte	0x1
 10620 0223 49       		.uleb128 0x49
 10621 0224 13       		.uleb128 0x13
 10622 0225 01       		.uleb128 0x1
 10623 0226 13       		.uleb128 0x13
 10624 0227 00       		.byte	0
 10625 0228 00       		.byte	0
 10626 0229 2C       		.uleb128 0x2c
 10627 022a 21       		.uleb128 0x21
 10628 022b 00       		.byte	0
 10629 022c 49       		.uleb128 0x49
 10630 022d 13       		.uleb128 0x13
 10631 022e 2F       		.uleb128 0x2f
 10632 022f 0B       		.uleb128 0xb
 10633 0230 00       		.byte	0
 10634 0231 00       		.byte	0
 10635 0232 2D       		.uleb128 0x2d
 10636 0233 26       		.uleb128 0x26
 10637 0234 00       		.byte	0
 10638 0235 49       		.uleb128 0x49
 10639 0236 13       		.uleb128 0x13
 10640 0237 00       		.byte	0
 10641 0238 00       		.byte	0
 10642 0239 2E       		.uleb128 0x2e
 10643 023a 34       		.uleb128 0x34
 10644 023b 00       		.byte	0
 10645 023c 03       		.uleb128 0x3
 10646 023d 0E       		.uleb128 0xe
 10647 023e 3A       		.uleb128 0x3a
 10648 023f 0B       		.uleb128 0xb
 10649 0240 3B       		.uleb128 0x3b
 10650 0241 0B       		.uleb128 0xb
 10651 0242 49       		.uleb128 0x49
 10652 0243 13       		.uleb128 0x13
 10653 0244 1C       		.uleb128 0x1c
 10654 0245 0A       		.uleb128 0xa
 10655 0246 00       		.byte	0
 10656 0247 00       		.byte	0
 10657 0248 2F       		.uleb128 0x2f
 10658 0249 34       		.uleb128 0x34
 10659 024a 00       		.byte	0
 10660 024b 03       		.uleb128 0x3
 10661 024c 0E       		.uleb128 0xe
ARM GAS  C:\Users\JACOB-~1\AppData\Local\Temp\ccGLbPGC.s 			page 219


 10662 024d 3A       		.uleb128 0x3a
 10663 024e 0B       		.uleb128 0xb
 10664 024f 3B       		.uleb128 0x3b
 10665 0250 05       		.uleb128 0x5
 10666 0251 49       		.uleb128 0x49
 10667 0252 13       		.uleb128 0x13
 10668 0253 1C       		.uleb128 0x1c
 10669 0254 0A       		.uleb128 0xa
 10670 0255 00       		.byte	0
 10671 0256 00       		.byte	0
 10672 0257 30       		.uleb128 0x30
 10673 0258 21       		.uleb128 0x21
 10674 0259 00       		.byte	0
 10675 025a 49       		.uleb128 0x49
 10676 025b 13       		.uleb128 0x13
 10677 025c 2F       		.uleb128 0x2f
 10678 025d 0D       		.uleb128 0xd
 10679 025e 00       		.byte	0
 10680 025f 00       		.byte	0
 10681 0260 31       		.uleb128 0x31
 10682 0261 21       		.uleb128 0x21
 10683 0262 00       		.byte	0
 10684 0263 49       		.uleb128 0x49
 10685 0264 13       		.uleb128 0x13
 10686 0265 2F       		.uleb128 0x2f
 10687 0266 05       		.uleb128 0x5
 10688 0267 00       		.byte	0
 10689 0268 00       		.byte	0
 10690 0269 32       		.uleb128 0x32
 10691 026a 34       		.uleb128 0x34
 10692 026b 00       		.byte	0
 10693 026c 03       		.uleb128 0x3
 10694 026d 0E       		.uleb128 0xe
 10695 026e 3A       		.uleb128 0x3a
 10696 026f 0B       		.uleb128 0xb
 10697 0270 3B       		.uleb128 0x3b
 10698 0271 0B       		.uleb128 0xb
 10699 0272 49       		.uleb128 0x49
 10700 0273 13       		.uleb128 0x13
 10701 0274 02       		.uleb128 0x2
 10702 0275 18       		.uleb128 0x18
 10703 0276 00       		.byte	0
 10704 0277 00       		.byte	0
 10705 0278 33       		.uleb128 0x33
 10706 0279 34       		.uleb128 0x34
 10707 027a 00       		.byte	0
 10708 027b 03       		.uleb128 0x3
 10709 027c 0E       		.uleb128 0xe
 10710 027d 3A       		.uleb128 0x3a
 10711 027e 0B       		.uleb128 0xb
 10712 027f 3B       		.uleb128 0x3b
 10713 0280 05       		.uleb128 0x5
 10714 0281 49       		.uleb128 0x49
 10715 0282 13       		.uleb128 0x13
 10716 0283 3F       		.uleb128 0x3f
 10717 0284 19       		.uleb128 0x19
 10718 0285 3C       		.uleb128 0x3c
ARM GAS  C:\Users\JACOB-~1\AppData\Local\Temp\ccGLbPGC.s 			page 220


 10719 0286 19       		.uleb128 0x19
 10720 0287 00       		.byte	0
 10721 0288 00       		.byte	0
 10722 0289 34       		.uleb128 0x34
 10723 028a 35       		.uleb128 0x35
 10724 028b 00       		.byte	0
 10725 028c 49       		.uleb128 0x49
 10726 028d 13       		.uleb128 0x13
 10727 028e 00       		.byte	0
 10728 028f 00       		.byte	0
 10729 0290 35       		.uleb128 0x35
 10730 0291 2E       		.uleb128 0x2e
 10731 0292 00       		.byte	0
 10732 0293 3F       		.uleb128 0x3f
 10733 0294 19       		.uleb128 0x19
 10734 0295 3C       		.uleb128 0x3c
 10735 0296 19       		.uleb128 0x19
 10736 0297 6E       		.uleb128 0x6e
 10737 0298 0E       		.uleb128 0xe
 10738 0299 03       		.uleb128 0x3
 10739 029a 0E       		.uleb128 0xe
 10740 029b 3A       		.uleb128 0x3a
 10741 029c 0B       		.uleb128 0xb
 10742 029d 3B       		.uleb128 0x3b
 10743 029e 05       		.uleb128 0x5
 10744 029f 00       		.byte	0
 10745 02a0 00       		.byte	0
 10746 02a1 36       		.uleb128 0x36
 10747 02a2 2E       		.uleb128 0x2e
 10748 02a3 00       		.byte	0
 10749 02a4 3F       		.uleb128 0x3f
 10750 02a5 19       		.uleb128 0x19
 10751 02a6 3C       		.uleb128 0x3c
 10752 02a7 19       		.uleb128 0x19
 10753 02a8 6E       		.uleb128 0x6e
 10754 02a9 0E       		.uleb128 0xe
 10755 02aa 03       		.uleb128 0x3
 10756 02ab 0E       		.uleb128 0xe
 10757 02ac 3A       		.uleb128 0x3a
 10758 02ad 0B       		.uleb128 0xb
 10759 02ae 3B       		.uleb128 0x3b
 10760 02af 0B       		.uleb128 0xb
 10761 02b0 00       		.byte	0
 10762 02b1 00       		.byte	0
 10763 02b2 00       		.byte	0
 10764              		.section	.debug_loc,"",%progbits
 10765              	.Ldebug_loc0:
 10766              	.LLST0:
 10767 0000 00000000 		.4byte	.LVL0
 10768 0004 38000000 		.4byte	.LVL9
 10769 0008 0100     		.2byte	0x1
 10770 000a 50       		.byte	0x50
 10771 000b 38000000 		.4byte	.LVL9
 10772 000f 42000000 		.4byte	.LVL11
 10773 0013 0400     		.2byte	0x4
 10774 0015 F3       		.byte	0xf3
 10775 0016 01       		.uleb128 0x1
ARM GAS  C:\Users\JACOB-~1\AppData\Local\Temp\ccGLbPGC.s 			page 221


 10776 0017 50       		.byte	0x50
 10777 0018 9F       		.byte	0x9f
 10778 0019 42000000 		.4byte	.LVL11
 10779 001d 86000000 		.4byte	.LVL19
 10780 0021 0100     		.2byte	0x1
 10781 0023 56       		.byte	0x56
 10782 0024 86000000 		.4byte	.LVL19
 10783 0028 94000000 		.4byte	.LFE64
 10784 002c 0100     		.2byte	0x1
 10785 002e 50       		.byte	0x50
 10786 002f 00000000 		.4byte	0
 10787 0033 00000000 		.4byte	0
 10788              	.LLST1:
 10789 0037 00000000 		.4byte	.LVL0
 10790 003b 36000000 		.4byte	.LVL8
 10791 003f 0100     		.2byte	0x1
 10792 0041 51       		.byte	0x51
 10793 0042 36000000 		.4byte	.LVL8
 10794 0046 42000000 		.4byte	.LVL11
 10795 004a 0300     		.2byte	0x3
 10796 004c 71       		.byte	0x71
 10797 004d 7B       		.sleb128 -5
 10798 004e 9F       		.byte	0x9f
 10799 004f 42000000 		.4byte	.LVL11
 10800 0053 68000000 		.4byte	.LVL15
 10801 0057 0100     		.2byte	0x1
 10802 0059 54       		.byte	0x54
 10803 005a 70000000 		.4byte	.LVL16
 10804 005e 86000000 		.4byte	.LVL19
 10805 0062 0100     		.2byte	0x1
 10806 0064 54       		.byte	0x54
 10807 0065 86000000 		.4byte	.LVL19
 10808 0069 94000000 		.4byte	.LFE64
 10809 006d 0100     		.2byte	0x1
 10810 006f 51       		.byte	0x51
 10811 0070 00000000 		.4byte	0
 10812 0074 00000000 		.4byte	0
 10813              	.LLST2:
 10814 0078 00000000 		.4byte	.LVL0
 10815 007c 14000000 		.4byte	.LVL1
 10816 0080 0100     		.2byte	0x1
 10817 0082 52       		.byte	0x52
 10818 0083 14000000 		.4byte	.LVL1
 10819 0087 86000000 		.4byte	.LVL19
 10820 008b 0400     		.2byte	0x4
 10821 008d F3       		.byte	0xf3
 10822 008e 01       		.uleb128 0x1
 10823 008f 52       		.byte	0x52
 10824 0090 9F       		.byte	0x9f
 10825 0091 86000000 		.4byte	.LVL19
 10826 0095 94000000 		.4byte	.LFE64
 10827 0099 0100     		.2byte	0x1
 10828 009b 52       		.byte	0x52
 10829 009c 00000000 		.4byte	0
 10830 00a0 00000000 		.4byte	0
 10831              	.LLST3:
 10832 00a4 00000000 		.4byte	.LVL0
ARM GAS  C:\Users\JACOB-~1\AppData\Local\Temp\ccGLbPGC.s 			page 222


 10833 00a8 3A000000 		.4byte	.LVL10
 10834 00ac 0100     		.2byte	0x1
 10835 00ae 53       		.byte	0x53
 10836 00af 3A000000 		.4byte	.LVL10
 10837 00b3 86000000 		.4byte	.LVL19
 10838 00b7 0400     		.2byte	0x4
 10839 00b9 F3       		.byte	0xf3
 10840 00ba 01       		.uleb128 0x1
 10841 00bb 53       		.byte	0x53
 10842 00bc 9F       		.byte	0x9f
 10843 00bd 86000000 		.4byte	.LVL19
 10844 00c1 94000000 		.4byte	.LFE64
 10845 00c5 0100     		.2byte	0x1
 10846 00c7 53       		.byte	0x53
 10847 00c8 00000000 		.4byte	0
 10848 00cc 00000000 		.4byte	0
 10849              	.LLST4:
 10850 00d0 00000000 		.4byte	.LVL0
 10851 00d4 16000000 		.4byte	.LVL2
 10852 00d8 0200     		.2byte	0x2
 10853 00da 31       		.byte	0x31
 10854 00db 9F       		.byte	0x9f
 10855 00dc 16000000 		.4byte	.LVL2
 10856 00e0 1E000000 		.4byte	.LVL5
 10857 00e4 0100     		.2byte	0x1
 10858 00e6 52       		.byte	0x52
 10859 00e7 22000000 		.4byte	.LVL6
 10860 00eb 30000000 		.4byte	.LVL7
 10861 00ef 0100     		.2byte	0x1
 10862 00f1 52       		.byte	0x52
 10863 00f2 44000000 		.4byte	.LVL12
 10864 00f6 72000000 		.4byte	.LVL17
 10865 00fa 0100     		.2byte	0x1
 10866 00fc 58       		.byte	0x58
 10867 00fd 78000000 		.4byte	.LVL18
 10868 0101 86000000 		.4byte	.LVL19
 10869 0105 0100     		.2byte	0x1
 10870 0107 58       		.byte	0x58
 10871 0108 86000000 		.4byte	.LVL19
 10872 010c 94000000 		.4byte	.LFE64
 10873 0110 0200     		.2byte	0x2
 10874 0112 31       		.byte	0x31
 10875 0113 9F       		.byte	0x9f
 10876 0114 00000000 		.4byte	0
 10877 0118 00000000 		.4byte	0
 10878              	.LLST5:
 10879 011c 42000000 		.4byte	.LVL11
 10880 0120 86000000 		.4byte	.LVL19
 10881 0124 0200     		.2byte	0x2
 10882 0126 37       		.byte	0x37
 10883 0127 9F       		.byte	0x9f
 10884 0128 00000000 		.4byte	0
 10885 012c 00000000 		.4byte	0
 10886              	.LLST6:
 10887 0130 00000000 		.4byte	.LVL0
 10888 0134 16000000 		.4byte	.LVL2
 10889 0138 0200     		.2byte	0x2
ARM GAS  C:\Users\JACOB-~1\AppData\Local\Temp\ccGLbPGC.s 			page 223


 10890 013a 30       		.byte	0x30
 10891 013b 9F       		.byte	0x9f
 10892 013c 16000000 		.4byte	.LVL2
 10893 0140 1C000000 		.4byte	.LVL4
 10894 0144 0100     		.2byte	0x1
 10895 0146 55       		.byte	0x55
 10896 0147 1C000000 		.4byte	.LVL4
 10897 014b 22000000 		.4byte	.LVL6
 10898 014f 0300     		.2byte	0x3
 10899 0151 75       		.byte	0x75
 10900 0152 7F       		.sleb128 -1
 10901 0153 9F       		.byte	0x9f
 10902 0154 22000000 		.4byte	.LVL6
 10903 0158 30000000 		.4byte	.LVL7
 10904 015c 0100     		.2byte	0x1
 10905 015e 55       		.byte	0x55
 10906 015f 86000000 		.4byte	.LVL19
 10907 0163 94000000 		.4byte	.LFE64
 10908 0167 0200     		.2byte	0x2
 10909 0169 30       		.byte	0x30
 10910 016a 9F       		.byte	0x9f
 10911 016b 00000000 		.4byte	0
 10912 016f 00000000 		.4byte	0
 10913              	.LLST7:
 10914 0173 42000000 		.4byte	.LVL11
 10915 0177 44000000 		.4byte	.LVL12
 10916 017b 0200     		.2byte	0x2
 10917 017d 30       		.byte	0x30
 10918 017e 9F       		.byte	0x9f
 10919 017f 00000000 		.4byte	0
 10920 0183 00000000 		.4byte	0
 10921              	.LLST8:
 10922 0187 44000000 		.4byte	.LVL12
 10923 018b 54000000 		.4byte	.LVL13
 10924 018f 0200     		.2byte	0x2
 10925 0191 30       		.byte	0x30
 10926 0192 9F       		.byte	0x9f
 10927 0193 00000000 		.4byte	0
 10928 0197 00000000 		.4byte	0
 10929              	.LLST9:
 10930 019b 00000000 		.4byte	.LVL20
 10931 019f 1A000000 		.4byte	.LVL24
 10932 01a3 0100     		.2byte	0x1
 10933 01a5 50       		.byte	0x50
 10934 01a6 1A000000 		.4byte	.LVL24
 10935 01aa 32100000 		.4byte	.LFE65
 10936 01ae 0400     		.2byte	0x4
 10937 01b0 F3       		.byte	0xf3
 10938 01b1 01       		.uleb128 0x1
 10939 01b2 50       		.byte	0x50
 10940 01b3 9F       		.byte	0x9f
 10941 01b4 00000000 		.4byte	0
 10942 01b8 00000000 		.4byte	0
 10943              	.LLST10:
 10944 01bc 00000000 		.4byte	.LVL20
 10945 01c0 0E000000 		.4byte	.LVL23
 10946 01c4 0100     		.2byte	0x1
ARM GAS  C:\Users\JACOB-~1\AppData\Local\Temp\ccGLbPGC.s 			page 224


 10947 01c6 51       		.byte	0x51
 10948 01c7 0E000000 		.4byte	.LVL23
 10949 01cb 32100000 		.4byte	.LFE65
 10950 01cf 0200     		.2byte	0x2
 10951 01d1 91       		.byte	0x91
 10952 01d2 48       		.sleb128 -56
 10953 01d3 00000000 		.4byte	0
 10954 01d7 00000000 		.4byte	0
 10955              	.LLST11:
 10956 01db 00000000 		.4byte	.LVL20
 10957 01df 1A000000 		.4byte	.LVL24
 10958 01e3 0100     		.2byte	0x1
 10959 01e5 52       		.byte	0x52
 10960 01e6 1A000000 		.4byte	.LVL24
 10961 01ea 32100000 		.4byte	.LFE65
 10962 01ee 0400     		.2byte	0x4
 10963 01f0 F3       		.byte	0xf3
 10964 01f1 01       		.uleb128 0x1
 10965 01f2 52       		.byte	0x52
 10966 01f3 9F       		.byte	0x9f
 10967 01f4 00000000 		.4byte	0
 10968 01f8 00000000 		.4byte	0
 10969              	.LLST12:
 10970 01fc 00000000 		.4byte	.LVL20
 10971 0200 0A000000 		.4byte	.LVL21
 10972 0204 0100     		.2byte	0x1
 10973 0206 53       		.byte	0x53
 10974 0207 0A000000 		.4byte	.LVL21
 10975 020b BC000000 		.4byte	.LVL30
 10976 020f 0200     		.2byte	0x2
 10977 0211 91       		.byte	0x91
 10978 0212 44       		.sleb128 -60
 10979 0213 BC000000 		.4byte	.LVL30
 10980 0217 C0000000 		.4byte	.LVL31
 10981 021b 0300     		.2byte	0x3
 10982 021d 72       		.byte	0x72
 10983 021e 7F       		.sleb128 -1
 10984 021f 9F       		.byte	0x9f
 10985 0220 C6000000 		.4byte	.LVL32
 10986 0224 32100000 		.4byte	.LFE65
 10987 0228 0200     		.2byte	0x2
 10988 022a 91       		.byte	0x91
 10989 022b 44       		.sleb128 -60
 10990 022c 00000000 		.4byte	0
 10991 0230 00000000 		.4byte	0
 10992              	.LLST13:
 10993 0234 0C000000 		.4byte	.LVL22
 10994 0238 1A000000 		.4byte	.LVL24
 10995 023c 0100     		.2byte	0x1
 10996 023e 50       		.byte	0x50
 10997 023f 1A000000 		.4byte	.LVL24
 10998 0243 9E000000 		.4byte	.LVL26
 10999 0247 0100     		.2byte	0x1
 11000 0249 56       		.byte	0x56
 11001 024a A4000000 		.4byte	.LVL27
 11002 024e AA000000 		.4byte	.LVL28
 11003 0252 0100     		.2byte	0x1
ARM GAS  C:\Users\JACOB-~1\AppData\Local\Temp\ccGLbPGC.s 			page 225


 11004 0254 56       		.byte	0x56
 11005 0255 AA000000 		.4byte	.LVL28
 11006 0259 B4000000 		.4byte	.LVL29
 11007 025d 0200     		.2byte	0x2
 11008 025f 91       		.byte	0x91
 11009 0260 50       		.sleb128 -48
 11010 0261 B4000000 		.4byte	.LVL29
 11011 0265 C0000000 		.4byte	.LVL31
 11012 0269 0100     		.2byte	0x1
 11013 026b 56       		.byte	0x56
 11014 026c C6000000 		.4byte	.LVL32
 11015 0270 FA000000 		.4byte	.LVL40
 11016 0274 0100     		.2byte	0x1
 11017 0276 56       		.byte	0x56
 11018 0277 FA000000 		.4byte	.LVL40
 11019 027b 36010000 		.4byte	.LVL47
 11020 027f 0200     		.2byte	0x2
 11021 0281 91       		.byte	0x91
 11022 0282 4C       		.sleb128 -52
 11023 0283 36010000 		.4byte	.LVL47
 11024 0287 6A010000 		.4byte	.LVL55
 11025 028b 0100     		.2byte	0x1
 11026 028d 56       		.byte	0x56
 11027 028e 6A010000 		.4byte	.LVL55
 11028 0292 A6010000 		.4byte	.LVL62
 11029 0296 0200     		.2byte	0x2
 11030 0298 91       		.byte	0x91
 11031 0299 4C       		.sleb128 -52
 11032 029a A6010000 		.4byte	.LVL62
 11033 029e DA010000 		.4byte	.LVL70
 11034 02a2 0100     		.2byte	0x1
 11035 02a4 56       		.byte	0x56
 11036 02a5 DA010000 		.4byte	.LVL70
 11037 02a9 16020000 		.4byte	.LVL77
 11038 02ad 0200     		.2byte	0x2
 11039 02af 91       		.byte	0x91
 11040 02b0 4C       		.sleb128 -52
 11041 02b1 16020000 		.4byte	.LVL77
 11042 02b5 4A020000 		.4byte	.LVL85
 11043 02b9 0100     		.2byte	0x1
 11044 02bb 56       		.byte	0x56
 11045 02bc 4A020000 		.4byte	.LVL85
 11046 02c0 86020000 		.4byte	.LVL92
 11047 02c4 0200     		.2byte	0x2
 11048 02c6 91       		.byte	0x91
 11049 02c7 4C       		.sleb128 -52
 11050 02c8 86020000 		.4byte	.LVL92
 11051 02cc BA020000 		.4byte	.LVL100
 11052 02d0 0100     		.2byte	0x1
 11053 02d2 56       		.byte	0x56
 11054 02d3 BA020000 		.4byte	.LVL100
 11055 02d7 F6020000 		.4byte	.LVL107
 11056 02db 0200     		.2byte	0x2
 11057 02dd 91       		.byte	0x91
 11058 02de 4C       		.sleb128 -52
 11059 02df F6020000 		.4byte	.LVL107
 11060 02e3 2A030000 		.4byte	.LVL115
ARM GAS  C:\Users\JACOB-~1\AppData\Local\Temp\ccGLbPGC.s 			page 226


 11061 02e7 0100     		.2byte	0x1
 11062 02e9 56       		.byte	0x56
 11063 02ea 2A030000 		.4byte	.LVL115
 11064 02ee 66030000 		.4byte	.LVL122
 11065 02f2 0200     		.2byte	0x2
 11066 02f4 91       		.byte	0x91
 11067 02f5 4C       		.sleb128 -52
 11068 02f6 66030000 		.4byte	.LVL122
 11069 02fa 9A030000 		.4byte	.LVL130
 11070 02fe 0100     		.2byte	0x1
 11071 0300 56       		.byte	0x56
 11072 0301 9A030000 		.4byte	.LVL130
 11073 0305 D6030000 		.4byte	.LVL137
 11074 0309 0200     		.2byte	0x2
 11075 030b 91       		.byte	0x91
 11076 030c 4C       		.sleb128 -52
 11077 030d D6030000 		.4byte	.LVL137
 11078 0311 0A040000 		.4byte	.LVL145
 11079 0315 0100     		.2byte	0x1
 11080 0317 56       		.byte	0x56
 11081 0318 0A040000 		.4byte	.LVL145
 11082 031c 46040000 		.4byte	.LVL152
 11083 0320 0200     		.2byte	0x2
 11084 0322 91       		.byte	0x91
 11085 0323 4C       		.sleb128 -52
 11086 0324 46040000 		.4byte	.LVL152
 11087 0328 66040000 		.4byte	.LVL154
 11088 032c 0100     		.2byte	0x1
 11089 032e 56       		.byte	0x56
 11090 032f 66040000 		.4byte	.LVL154
 11091 0333 A4040000 		.4byte	.LVL161
 11092 0337 0200     		.2byte	0x2
 11093 0339 91       		.byte	0x91
 11094 033a 4C       		.sleb128 -52
 11095 033b A4040000 		.4byte	.LVL161
 11096 033f D8040000 		.4byte	.LVL169
 11097 0343 0100     		.2byte	0x1
 11098 0345 56       		.byte	0x56
 11099 0346 D8040000 		.4byte	.LVL169
 11100 034a 14050000 		.4byte	.LVL176
 11101 034e 0200     		.2byte	0x2
 11102 0350 91       		.byte	0x91
 11103 0351 4C       		.sleb128 -52
 11104 0352 14050000 		.4byte	.LVL176
 11105 0356 34050000 		.4byte	.LVL178
 11106 035a 0100     		.2byte	0x1
 11107 035c 56       		.byte	0x56
 11108 035d 34050000 		.4byte	.LVL178
 11109 0361 72050000 		.4byte	.LVL185
 11110 0365 0200     		.2byte	0x2
 11111 0367 91       		.byte	0x91
 11112 0368 4C       		.sleb128 -52
 11113 0369 72050000 		.4byte	.LVL185
 11114 036d A6050000 		.4byte	.LVL193
 11115 0371 0100     		.2byte	0x1
 11116 0373 56       		.byte	0x56
 11117 0374 A6050000 		.4byte	.LVL193
ARM GAS  C:\Users\JACOB-~1\AppData\Local\Temp\ccGLbPGC.s 			page 227


 11118 0378 E2050000 		.4byte	.LVL200
 11119 037c 0200     		.2byte	0x2
 11120 037e 91       		.byte	0x91
 11121 037f 4C       		.sleb128 -52
 11122 0380 E2050000 		.4byte	.LVL200
 11123 0384 16060000 		.4byte	.LVL208
 11124 0388 0100     		.2byte	0x1
 11125 038a 56       		.byte	0x56
 11126 038b 16060000 		.4byte	.LVL208
 11127 038f 52060000 		.4byte	.LVL215
 11128 0393 0200     		.2byte	0x2
 11129 0395 91       		.byte	0x91
 11130 0396 4C       		.sleb128 -52
 11131 0397 52060000 		.4byte	.LVL215
 11132 039b 86060000 		.4byte	.LVL223
 11133 039f 0100     		.2byte	0x1
 11134 03a1 56       		.byte	0x56
 11135 03a2 86060000 		.4byte	.LVL223
 11136 03a6 C2060000 		.4byte	.LVL230
 11137 03aa 0200     		.2byte	0x2
 11138 03ac 91       		.byte	0x91
 11139 03ad 4C       		.sleb128 -52
 11140 03ae C2060000 		.4byte	.LVL230
 11141 03b2 E2060000 		.4byte	.LVL232
 11142 03b6 0100     		.2byte	0x1
 11143 03b8 56       		.byte	0x56
 11144 03b9 E2060000 		.4byte	.LVL232
 11145 03bd 20070000 		.4byte	.LVL239
 11146 03c1 0200     		.2byte	0x2
 11147 03c3 91       		.byte	0x91
 11148 03c4 4C       		.sleb128 -52
 11149 03c5 20070000 		.4byte	.LVL239
 11150 03c9 40070000 		.4byte	.LVL241
 11151 03cd 0100     		.2byte	0x1
 11152 03cf 56       		.byte	0x56
 11153 03d0 40070000 		.4byte	.LVL241
 11154 03d4 7E070000 		.4byte	.LVL248
 11155 03d8 0200     		.2byte	0x2
 11156 03da 91       		.byte	0x91
 11157 03db 4C       		.sleb128 -52
 11158 03dc 7E070000 		.4byte	.LVL248
 11159 03e0 9E070000 		.4byte	.LVL250
 11160 03e4 0100     		.2byte	0x1
 11161 03e6 56       		.byte	0x56
 11162 03e7 9E070000 		.4byte	.LVL250
 11163 03eb DC070000 		.4byte	.LVL257
 11164 03ef 0200     		.2byte	0x2
 11165 03f1 91       		.byte	0x91
 11166 03f2 4C       		.sleb128 -52
 11167 03f3 DC070000 		.4byte	.LVL257
 11168 03f7 FC070000 		.4byte	.LVL259
 11169 03fb 0100     		.2byte	0x1
 11170 03fd 56       		.byte	0x56
 11171 03fe FC070000 		.4byte	.LVL259
 11172 0402 3A080000 		.4byte	.LVL266
 11173 0406 0200     		.2byte	0x2
 11174 0408 91       		.byte	0x91
ARM GAS  C:\Users\JACOB-~1\AppData\Local\Temp\ccGLbPGC.s 			page 228


 11175 0409 4C       		.sleb128 -52
 11176 040a 3A080000 		.4byte	.LVL266
 11177 040e 5A080000 		.4byte	.LVL268
 11178 0412 0100     		.2byte	0x1
 11179 0414 56       		.byte	0x56
 11180 0415 5A080000 		.4byte	.LVL268
 11181 0419 98080000 		.4byte	.LVL275
 11182 041d 0200     		.2byte	0x2
 11183 041f 91       		.byte	0x91
 11184 0420 4C       		.sleb128 -52
 11185 0421 98080000 		.4byte	.LVL275
 11186 0425 CC080000 		.4byte	.LVL283
 11187 0429 0100     		.2byte	0x1
 11188 042b 56       		.byte	0x56
 11189 042c CC080000 		.4byte	.LVL283
 11190 0430 0A090000 		.4byte	.LVL290
 11191 0434 0200     		.2byte	0x2
 11192 0436 91       		.byte	0x91
 11193 0437 4C       		.sleb128 -52
 11194 0438 0A090000 		.4byte	.LVL290
 11195 043c 26090000 		.4byte	.LVL292
 11196 0440 0100     		.2byte	0x1
 11197 0442 56       		.byte	0x56
 11198 0443 26090000 		.4byte	.LVL292
 11199 0447 64090000 		.4byte	.LVL299
 11200 044b 0200     		.2byte	0x2
 11201 044d 91       		.byte	0x91
 11202 044e 4C       		.sleb128 -52
 11203 044f 64090000 		.4byte	.LVL299
 11204 0453 84090000 		.4byte	.LVL301
 11205 0457 0100     		.2byte	0x1
 11206 0459 56       		.byte	0x56
 11207 045a 84090000 		.4byte	.LVL301
 11208 045e C2090000 		.4byte	.LVL308
 11209 0462 0200     		.2byte	0x2
 11210 0464 91       		.byte	0x91
 11211 0465 4C       		.sleb128 -52
 11212 0466 C2090000 		.4byte	.LVL308
 11213 046a F6090000 		.4byte	.LVL316
 11214 046e 0100     		.2byte	0x1
 11215 0470 56       		.byte	0x56
 11216 0471 F6090000 		.4byte	.LVL316
 11217 0475 340A0000 		.4byte	.LVL323
 11218 0479 0200     		.2byte	0x2
 11219 047b 91       		.byte	0x91
 11220 047c 4C       		.sleb128 -52
 11221 047d 340A0000 		.4byte	.LVL323
 11222 0481 680A0000 		.4byte	.LVL331
 11223 0485 0100     		.2byte	0x1
 11224 0487 56       		.byte	0x56
 11225 0488 680A0000 		.4byte	.LVL331
 11226 048c A60A0000 		.4byte	.LVL338
 11227 0490 0200     		.2byte	0x2
 11228 0492 91       		.byte	0x91
 11229 0493 4C       		.sleb128 -52
 11230 0494 A60A0000 		.4byte	.LVL338
 11231 0498 C60A0000 		.4byte	.LVL340
ARM GAS  C:\Users\JACOB-~1\AppData\Local\Temp\ccGLbPGC.s 			page 229


 11232 049c 0100     		.2byte	0x1
 11233 049e 56       		.byte	0x56
 11234 049f C60A0000 		.4byte	.LVL340
 11235 04a3 040B0000 		.4byte	.LVL347
 11236 04a7 0200     		.2byte	0x2
 11237 04a9 91       		.byte	0x91
 11238 04aa 4C       		.sleb128 -52
 11239 04ab 040B0000 		.4byte	.LVL347
 11240 04af 240B0000 		.4byte	.LVL349
 11241 04b3 0100     		.2byte	0x1
 11242 04b5 56       		.byte	0x56
 11243 04b6 240B0000 		.4byte	.LVL349
 11244 04ba 620B0000 		.4byte	.LVL356
 11245 04be 0200     		.2byte	0x2
 11246 04c0 91       		.byte	0x91
 11247 04c1 4C       		.sleb128 -52
 11248 04c2 620B0000 		.4byte	.LVL356
 11249 04c6 820B0000 		.4byte	.LVL358
 11250 04ca 0100     		.2byte	0x1
 11251 04cc 56       		.byte	0x56
 11252 04cd 820B0000 		.4byte	.LVL358
 11253 04d1 C00B0000 		.4byte	.LVL365
 11254 04d5 0200     		.2byte	0x2
 11255 04d7 91       		.byte	0x91
 11256 04d8 4C       		.sleb128 -52
 11257 04d9 C00B0000 		.4byte	.LVL365
 11258 04dd E00B0000 		.4byte	.LVL367
 11259 04e1 0100     		.2byte	0x1
 11260 04e3 56       		.byte	0x56
 11261 04e4 E00B0000 		.4byte	.LVL367
 11262 04e8 1E0C0000 		.4byte	.LVL374
 11263 04ec 0200     		.2byte	0x2
 11264 04ee 91       		.byte	0x91
 11265 04ef 4C       		.sleb128 -52
 11266 04f0 1E0C0000 		.4byte	.LVL374
 11267 04f4 3E0C0000 		.4byte	.LVL376
 11268 04f8 0100     		.2byte	0x1
 11269 04fa 56       		.byte	0x56
 11270 04fb 3E0C0000 		.4byte	.LVL376
 11271 04ff 800C0000 		.4byte	.LVL383
 11272 0503 0200     		.2byte	0x2
 11273 0505 91       		.byte	0x91
 11274 0506 4C       		.sleb128 -52
 11275 0507 800C0000 		.4byte	.LVL383
 11276 050b A00C0000 		.4byte	.LVL385
 11277 050f 0100     		.2byte	0x1
 11278 0511 56       		.byte	0x56
 11279 0512 A00C0000 		.4byte	.LVL385
 11280 0516 DE0C0000 		.4byte	.LVL392
 11281 051a 0200     		.2byte	0x2
 11282 051c 91       		.byte	0x91
 11283 051d 4C       		.sleb128 -52
 11284 051e DE0C0000 		.4byte	.LVL392
 11285 0522 FE0C0000 		.4byte	.LVL394
 11286 0526 0100     		.2byte	0x1
 11287 0528 56       		.byte	0x56
 11288 0529 FE0C0000 		.4byte	.LVL394
ARM GAS  C:\Users\JACOB-~1\AppData\Local\Temp\ccGLbPGC.s 			page 230


 11289 052d 3C0D0000 		.4byte	.LVL401
 11290 0531 0200     		.2byte	0x2
 11291 0533 91       		.byte	0x91
 11292 0534 4C       		.sleb128 -52
 11293 0535 3C0D0000 		.4byte	.LVL401
 11294 0539 5C0D0000 		.4byte	.LVL403
 11295 053d 0100     		.2byte	0x1
 11296 053f 56       		.byte	0x56
 11297 0540 5C0D0000 		.4byte	.LVL403
 11298 0544 9A0D0000 		.4byte	.LVL410
 11299 0548 0200     		.2byte	0x2
 11300 054a 91       		.byte	0x91
 11301 054b 4C       		.sleb128 -52
 11302 054c 9A0D0000 		.4byte	.LVL410
 11303 0550 BA0D0000 		.4byte	.LVL412
 11304 0554 0100     		.2byte	0x1
 11305 0556 56       		.byte	0x56
 11306 0557 BA0D0000 		.4byte	.LVL412
 11307 055b F80D0000 		.4byte	.LVL419
 11308 055f 0200     		.2byte	0x2
 11309 0561 91       		.byte	0x91
 11310 0562 4C       		.sleb128 -52
 11311 0563 F80D0000 		.4byte	.LVL419
 11312 0567 2C0E0000 		.4byte	.LVL427
 11313 056b 0100     		.2byte	0x1
 11314 056d 56       		.byte	0x56
 11315 056e 2C0E0000 		.4byte	.LVL427
 11316 0572 6A0E0000 		.4byte	.LVL434
 11317 0576 0200     		.2byte	0x2
 11318 0578 91       		.byte	0x91
 11319 0579 4C       		.sleb128 -52
 11320 057a 6A0E0000 		.4byte	.LVL434
 11321 057e 9E0E0000 		.4byte	.LVL442
 11322 0582 0100     		.2byte	0x1
 11323 0584 56       		.byte	0x56
 11324 0585 9E0E0000 		.4byte	.LVL442
 11325 0589 DC0E0000 		.4byte	.LVL449
 11326 058d 0200     		.2byte	0x2
 11327 058f 91       		.byte	0x91
 11328 0590 4C       		.sleb128 -52
 11329 0591 DC0E0000 		.4byte	.LVL449
 11330 0595 100F0000 		.4byte	.LVL457
 11331 0599 0100     		.2byte	0x1
 11332 059b 56       		.byte	0x56
 11333 059c 100F0000 		.4byte	.LVL457
 11334 05a0 4E0F0000 		.4byte	.LVL464
 11335 05a4 0200     		.2byte	0x2
 11336 05a6 91       		.byte	0x91
 11337 05a7 4C       		.sleb128 -52
 11338 05a8 4E0F0000 		.4byte	.LVL464
 11339 05ac 820F0000 		.4byte	.LVL472
 11340 05b0 0100     		.2byte	0x1
 11341 05b2 56       		.byte	0x56
 11342 05b3 820F0000 		.4byte	.LVL472
 11343 05b7 C00F0000 		.4byte	.LVL479
 11344 05bb 0200     		.2byte	0x2
 11345 05bd 91       		.byte	0x91
ARM GAS  C:\Users\JACOB-~1\AppData\Local\Temp\ccGLbPGC.s 			page 231


 11346 05be 4C       		.sleb128 -52
 11347 05bf C00F0000 		.4byte	.LVL479
 11348 05c3 F40F0000 		.4byte	.LVL487
 11349 05c7 0100     		.2byte	0x1
 11350 05c9 56       		.byte	0x56
 11351 05ca F40F0000 		.4byte	.LVL487
 11352 05ce 32100000 		.4byte	.LFE65
 11353 05d2 0200     		.2byte	0x2
 11354 05d4 91       		.byte	0x91
 11355 05d5 4C       		.sleb128 -52
 11356 05d6 00000000 		.4byte	0
 11357 05da 00000000 		.4byte	0
 11358              	.LLST14:
 11359 05de 1A000000 		.4byte	.LVL24
 11360 05e2 1C000000 		.4byte	.LVL25
 11361 05e6 0100     		.2byte	0x1
 11362 05e8 53       		.byte	0x53
 11363 05e9 00000000 		.4byte	0
 11364 05ed 00000000 		.4byte	0
 11365              	.LLST15:
 11366 05f1 F8000000 		.4byte	.LVL39
 11367 05f5 22010000 		.4byte	.LVL43
 11368 05f9 0100     		.2byte	0x1
 11369 05fb 55       		.byte	0x55
 11370 05fc 2A010000 		.4byte	.LVL44
 11371 0600 36010000 		.4byte	.LVL47
 11372 0604 0100     		.2byte	0x1
 11373 0606 55       		.byte	0x55
 11374 0607 00000000 		.4byte	0
 11375 060b 00000000 		.4byte	0
 11376              	.LLST16:
 11377 060f F8000000 		.4byte	.LVL39
 11378 0613 36010000 		.4byte	.LVL47
 11379 0617 0100     		.2byte	0x1
 11380 0619 57       		.byte	0x57
 11381 061a 00000000 		.4byte	0
 11382 061e 00000000 		.4byte	0
 11383              	.LLST17:
 11384 0622 CE000000 		.4byte	.LVL33
 11385 0626 D6000000 		.4byte	.LVL35
 11386 062a 0100     		.2byte	0x1
 11387 062c 53       		.byte	0x53
 11388 062d DA000000 		.4byte	.LVL36
 11389 0631 E8000000 		.4byte	.LVL37
 11390 0635 0100     		.2byte	0x1
 11391 0637 53       		.byte	0x53
 11392 0638 E8000000 		.4byte	.LVL37
 11393 063c F2000000 		.4byte	.LVL38
 11394 0640 0300     		.2byte	0x3
 11395 0642 73       		.byte	0x73
 11396 0643 7F       		.sleb128 -1
 11397 0644 9F       		.byte	0x9f
 11398 0645 F2000000 		.4byte	.LVL38
 11399 0649 2C010000 		.4byte	.LVL45
 11400 064d 0100     		.2byte	0x1
 11401 064f 58       		.byte	0x58
 11402 0650 32010000 		.4byte	.LVL46
ARM GAS  C:\Users\JACOB-~1\AppData\Local\Temp\ccGLbPGC.s 			page 232


 11403 0654 36010000 		.4byte	.LVL47
 11404 0658 0100     		.2byte	0x1
 11405 065a 58       		.byte	0x58
 11406 065b 00000000 		.4byte	0
 11407 065f 00000000 		.4byte	0
 11408              	.LLST18:
 11409 0663 F8000000 		.4byte	.LVL39
 11410 0667 36010000 		.4byte	.LVL47
 11411 066b 0200     		.2byte	0x2
 11412 066d 37       		.byte	0x37
 11413 066e 9F       		.byte	0x9f
 11414 066f 00000000 		.4byte	0
 11415 0673 00000000 		.4byte	0
 11416              	.LLST19:
 11417 0677 F8000000 		.4byte	.LVL39
 11418 067b FA000000 		.4byte	.LVL40
 11419 067f 0200     		.2byte	0x2
 11420 0681 30       		.byte	0x30
 11421 0682 9F       		.byte	0x9f
 11422 0683 00000000 		.4byte	0
 11423 0687 00000000 		.4byte	0
 11424              	.LLST20:
 11425 068b FA000000 		.4byte	.LVL40
 11426 068f 0E010000 		.4byte	.LVL41
 11427 0693 0200     		.2byte	0x2
 11428 0695 30       		.byte	0x30
 11429 0696 9F       		.byte	0x9f
 11430 0697 00000000 		.4byte	0
 11431 069b 00000000 		.4byte	0
 11432              	.LLST21:
 11433 069f 68010000 		.4byte	.LVL54
 11434 06a3 92010000 		.4byte	.LVL58
 11435 06a7 0100     		.2byte	0x1
 11436 06a9 55       		.byte	0x55
 11437 06aa 9A010000 		.4byte	.LVL59
 11438 06ae A6010000 		.4byte	.LVL62
 11439 06b2 0100     		.2byte	0x1
 11440 06b4 55       		.byte	0x55
 11441 06b5 00000000 		.4byte	0
 11442 06b9 00000000 		.4byte	0
 11443              	.LLST22:
 11444 06bd 68010000 		.4byte	.LVL54
 11445 06c1 A6010000 		.4byte	.LVL62
 11446 06c5 0100     		.2byte	0x1
 11447 06c7 57       		.byte	0x57
 11448 06c8 00000000 		.4byte	0
 11449 06cc 00000000 		.4byte	0
 11450              	.LLST23:
 11451 06d0 3E010000 		.4byte	.LVL48
 11452 06d4 46010000 		.4byte	.LVL50
 11453 06d8 0100     		.2byte	0x1
 11454 06da 53       		.byte	0x53
 11455 06db 4A010000 		.4byte	.LVL51
 11456 06df 58010000 		.4byte	.LVL52
 11457 06e3 0100     		.2byte	0x1
 11458 06e5 53       		.byte	0x53
 11459 06e6 58010000 		.4byte	.LVL52
ARM GAS  C:\Users\JACOB-~1\AppData\Local\Temp\ccGLbPGC.s 			page 233


 11460 06ea 62010000 		.4byte	.LVL53
 11461 06ee 0300     		.2byte	0x3
 11462 06f0 73       		.byte	0x73
 11463 06f1 7F       		.sleb128 -1
 11464 06f2 9F       		.byte	0x9f
 11465 06f3 62010000 		.4byte	.LVL53
 11466 06f7 9C010000 		.4byte	.LVL60
 11467 06fb 0100     		.2byte	0x1
 11468 06fd 58       		.byte	0x58
 11469 06fe A2010000 		.4byte	.LVL61
 11470 0702 A6010000 		.4byte	.LVL62
 11471 0706 0100     		.2byte	0x1
 11472 0708 58       		.byte	0x58
 11473 0709 00000000 		.4byte	0
 11474 070d 00000000 		.4byte	0
 11475              	.LLST24:
 11476 0711 68010000 		.4byte	.LVL54
 11477 0715 A6010000 		.4byte	.LVL62
 11478 0719 0200     		.2byte	0x2
 11479 071b 37       		.byte	0x37
 11480 071c 9F       		.byte	0x9f
 11481 071d 00000000 		.4byte	0
 11482 0721 00000000 		.4byte	0
 11483              	.LLST25:
 11484 0725 68010000 		.4byte	.LVL54
 11485 0729 6A010000 		.4byte	.LVL55
 11486 072d 0200     		.2byte	0x2
 11487 072f 30       		.byte	0x30
 11488 0730 9F       		.byte	0x9f
 11489 0731 00000000 		.4byte	0
 11490 0735 00000000 		.4byte	0
 11491              	.LLST26:
 11492 0739 6A010000 		.4byte	.LVL55
 11493 073d 7E010000 		.4byte	.LVL56
 11494 0741 0200     		.2byte	0x2
 11495 0743 30       		.byte	0x30
 11496 0744 9F       		.byte	0x9f
 11497 0745 00000000 		.4byte	0
 11498 0749 00000000 		.4byte	0
 11499              	.LLST27:
 11500 074d D8010000 		.4byte	.LVL69
 11501 0751 02020000 		.4byte	.LVL73
 11502 0755 0100     		.2byte	0x1
 11503 0757 55       		.byte	0x55
 11504 0758 0A020000 		.4byte	.LVL74
 11505 075c 16020000 		.4byte	.LVL77
 11506 0760 0100     		.2byte	0x1
 11507 0762 55       		.byte	0x55
 11508 0763 00000000 		.4byte	0
 11509 0767 00000000 		.4byte	0
 11510              	.LLST28:
 11511 076b D8010000 		.4byte	.LVL69
 11512 076f 16020000 		.4byte	.LVL77
 11513 0773 0100     		.2byte	0x1
 11514 0775 57       		.byte	0x57
 11515 0776 00000000 		.4byte	0
 11516 077a 00000000 		.4byte	0
ARM GAS  C:\Users\JACOB-~1\AppData\Local\Temp\ccGLbPGC.s 			page 234


 11517              	.LLST29:
 11518 077e AE010000 		.4byte	.LVL63
 11519 0782 B6010000 		.4byte	.LVL65
 11520 0786 0100     		.2byte	0x1
 11521 0788 53       		.byte	0x53
 11522 0789 BA010000 		.4byte	.LVL66
 11523 078d C8010000 		.4byte	.LVL67
 11524 0791 0100     		.2byte	0x1
 11525 0793 53       		.byte	0x53
 11526 0794 C8010000 		.4byte	.LVL67
 11527 0798 D2010000 		.4byte	.LVL68
 11528 079c 0300     		.2byte	0x3
 11529 079e 73       		.byte	0x73
 11530 079f 7F       		.sleb128 -1
 11531 07a0 9F       		.byte	0x9f
 11532 07a1 D2010000 		.4byte	.LVL68
 11533 07a5 0C020000 		.4byte	.LVL75
 11534 07a9 0100     		.2byte	0x1
 11535 07ab 58       		.byte	0x58
 11536 07ac 12020000 		.4byte	.LVL76
 11537 07b0 16020000 		.4byte	.LVL77
 11538 07b4 0100     		.2byte	0x1
 11539 07b6 58       		.byte	0x58
 11540 07b7 00000000 		.4byte	0
 11541 07bb 00000000 		.4byte	0
 11542              	.LLST30:
 11543 07bf D8010000 		.4byte	.LVL69
 11544 07c3 16020000 		.4byte	.LVL77
 11545 07c7 0200     		.2byte	0x2
 11546 07c9 37       		.byte	0x37
 11547 07ca 9F       		.byte	0x9f
 11548 07cb 00000000 		.4byte	0
 11549 07cf 00000000 		.4byte	0
 11550              	.LLST31:
 11551 07d3 D8010000 		.4byte	.LVL69
 11552 07d7 DA010000 		.4byte	.LVL70
 11553 07db 0200     		.2byte	0x2
 11554 07dd 30       		.byte	0x30
 11555 07de 9F       		.byte	0x9f
 11556 07df 00000000 		.4byte	0
 11557 07e3 00000000 		.4byte	0
 11558              	.LLST32:
 11559 07e7 DA010000 		.4byte	.LVL70
 11560 07eb EE010000 		.4byte	.LVL71
 11561 07ef 0200     		.2byte	0x2
 11562 07f1 30       		.byte	0x30
 11563 07f2 9F       		.byte	0x9f
 11564 07f3 00000000 		.4byte	0
 11565 07f7 00000000 		.4byte	0
 11566              	.LLST33:
 11567 07fb 48020000 		.4byte	.LVL84
 11568 07ff 72020000 		.4byte	.LVL88
 11569 0803 0100     		.2byte	0x1
 11570 0805 55       		.byte	0x55
 11571 0806 7A020000 		.4byte	.LVL89
 11572 080a 86020000 		.4byte	.LVL92
 11573 080e 0100     		.2byte	0x1
ARM GAS  C:\Users\JACOB-~1\AppData\Local\Temp\ccGLbPGC.s 			page 235


 11574 0810 55       		.byte	0x55
 11575 0811 00000000 		.4byte	0
 11576 0815 00000000 		.4byte	0
 11577              	.LLST34:
 11578 0819 48020000 		.4byte	.LVL84
 11579 081d 86020000 		.4byte	.LVL92
 11580 0821 0100     		.2byte	0x1
 11581 0823 57       		.byte	0x57
 11582 0824 00000000 		.4byte	0
 11583 0828 00000000 		.4byte	0
 11584              	.LLST35:
 11585 082c 1E020000 		.4byte	.LVL78
 11586 0830 26020000 		.4byte	.LVL80
 11587 0834 0100     		.2byte	0x1
 11588 0836 53       		.byte	0x53
 11589 0837 2A020000 		.4byte	.LVL81
 11590 083b 38020000 		.4byte	.LVL82
 11591 083f 0100     		.2byte	0x1
 11592 0841 53       		.byte	0x53
 11593 0842 38020000 		.4byte	.LVL82
 11594 0846 42020000 		.4byte	.LVL83
 11595 084a 0300     		.2byte	0x3
 11596 084c 73       		.byte	0x73
 11597 084d 7F       		.sleb128 -1
 11598 084e 9F       		.byte	0x9f
 11599 084f 42020000 		.4byte	.LVL83
 11600 0853 7C020000 		.4byte	.LVL90
 11601 0857 0100     		.2byte	0x1
 11602 0859 58       		.byte	0x58
 11603 085a 82020000 		.4byte	.LVL91
 11604 085e 86020000 		.4byte	.LVL92
 11605 0862 0100     		.2byte	0x1
 11606 0864 58       		.byte	0x58
 11607 0865 00000000 		.4byte	0
 11608 0869 00000000 		.4byte	0
 11609              	.LLST36:
 11610 086d 48020000 		.4byte	.LVL84
 11611 0871 86020000 		.4byte	.LVL92
 11612 0875 0200     		.2byte	0x2
 11613 0877 37       		.byte	0x37
 11614 0878 9F       		.byte	0x9f
 11615 0879 00000000 		.4byte	0
 11616 087d 00000000 		.4byte	0
 11617              	.LLST37:
 11618 0881 48020000 		.4byte	.LVL84
 11619 0885 4A020000 		.4byte	.LVL85
 11620 0889 0200     		.2byte	0x2
 11621 088b 30       		.byte	0x30
 11622 088c 9F       		.byte	0x9f
 11623 088d 00000000 		.4byte	0
 11624 0891 00000000 		.4byte	0
 11625              	.LLST38:
 11626 0895 4A020000 		.4byte	.LVL85
 11627 0899 5E020000 		.4byte	.LVL86
 11628 089d 0200     		.2byte	0x2
 11629 089f 30       		.byte	0x30
 11630 08a0 9F       		.byte	0x9f
ARM GAS  C:\Users\JACOB-~1\AppData\Local\Temp\ccGLbPGC.s 			page 236


 11631 08a1 00000000 		.4byte	0
 11632 08a5 00000000 		.4byte	0
 11633              	.LLST39:
 11634 08a9 B8020000 		.4byte	.LVL99
 11635 08ad E2020000 		.4byte	.LVL103
 11636 08b1 0100     		.2byte	0x1
 11637 08b3 55       		.byte	0x55
 11638 08b4 EA020000 		.4byte	.LVL104
 11639 08b8 F6020000 		.4byte	.LVL107
 11640 08bc 0100     		.2byte	0x1
 11641 08be 55       		.byte	0x55
 11642 08bf 00000000 		.4byte	0
 11643 08c3 00000000 		.4byte	0
 11644              	.LLST40:
 11645 08c7 B8020000 		.4byte	.LVL99
 11646 08cb F6020000 		.4byte	.LVL107
 11647 08cf 0100     		.2byte	0x1
 11648 08d1 57       		.byte	0x57
 11649 08d2 00000000 		.4byte	0
 11650 08d6 00000000 		.4byte	0
 11651              	.LLST41:
 11652 08da 8E020000 		.4byte	.LVL93
 11653 08de 96020000 		.4byte	.LVL95
 11654 08e2 0100     		.2byte	0x1
 11655 08e4 53       		.byte	0x53
 11656 08e5 9A020000 		.4byte	.LVL96
 11657 08e9 A8020000 		.4byte	.LVL97
 11658 08ed 0100     		.2byte	0x1
 11659 08ef 53       		.byte	0x53
 11660 08f0 A8020000 		.4byte	.LVL97
 11661 08f4 B2020000 		.4byte	.LVL98
 11662 08f8 0300     		.2byte	0x3
 11663 08fa 73       		.byte	0x73
 11664 08fb 7F       		.sleb128 -1
 11665 08fc 9F       		.byte	0x9f
 11666 08fd B2020000 		.4byte	.LVL98
 11667 0901 EC020000 		.4byte	.LVL105
 11668 0905 0100     		.2byte	0x1
 11669 0907 58       		.byte	0x58
 11670 0908 F2020000 		.4byte	.LVL106
 11671 090c F6020000 		.4byte	.LVL107
 11672 0910 0100     		.2byte	0x1
 11673 0912 58       		.byte	0x58
 11674 0913 00000000 		.4byte	0
 11675 0917 00000000 		.4byte	0
 11676              	.LLST42:
 11677 091b B8020000 		.4byte	.LVL99
 11678 091f F6020000 		.4byte	.LVL107
 11679 0923 0200     		.2byte	0x2
 11680 0925 37       		.byte	0x37
 11681 0926 9F       		.byte	0x9f
 11682 0927 00000000 		.4byte	0
 11683 092b 00000000 		.4byte	0
 11684              	.LLST43:
 11685 092f B8020000 		.4byte	.LVL99
 11686 0933 BA020000 		.4byte	.LVL100
 11687 0937 0200     		.2byte	0x2
ARM GAS  C:\Users\JACOB-~1\AppData\Local\Temp\ccGLbPGC.s 			page 237


 11688 0939 30       		.byte	0x30
 11689 093a 9F       		.byte	0x9f
 11690 093b 00000000 		.4byte	0
 11691 093f 00000000 		.4byte	0
 11692              	.LLST44:
 11693 0943 BA020000 		.4byte	.LVL100
 11694 0947 CE020000 		.4byte	.LVL101
 11695 094b 0200     		.2byte	0x2
 11696 094d 30       		.byte	0x30
 11697 094e 9F       		.byte	0x9f
 11698 094f 00000000 		.4byte	0
 11699 0953 00000000 		.4byte	0
 11700              	.LLST45:
 11701 0957 28030000 		.4byte	.LVL114
 11702 095b 52030000 		.4byte	.LVL118
 11703 095f 0100     		.2byte	0x1
 11704 0961 55       		.byte	0x55
 11705 0962 5A030000 		.4byte	.LVL119
 11706 0966 66030000 		.4byte	.LVL122
 11707 096a 0100     		.2byte	0x1
 11708 096c 55       		.byte	0x55
 11709 096d 00000000 		.4byte	0
 11710 0971 00000000 		.4byte	0
 11711              	.LLST46:
 11712 0975 28030000 		.4byte	.LVL114
 11713 0979 66030000 		.4byte	.LVL122
 11714 097d 0100     		.2byte	0x1
 11715 097f 57       		.byte	0x57
 11716 0980 00000000 		.4byte	0
 11717 0984 00000000 		.4byte	0
 11718              	.LLST47:
 11719 0988 FE020000 		.4byte	.LVL108
 11720 098c 06030000 		.4byte	.LVL110
 11721 0990 0100     		.2byte	0x1
 11722 0992 53       		.byte	0x53
 11723 0993 0A030000 		.4byte	.LVL111
 11724 0997 18030000 		.4byte	.LVL112
 11725 099b 0100     		.2byte	0x1
 11726 099d 53       		.byte	0x53
 11727 099e 18030000 		.4byte	.LVL112
 11728 09a2 22030000 		.4byte	.LVL113
 11729 09a6 0300     		.2byte	0x3
 11730 09a8 73       		.byte	0x73
 11731 09a9 7F       		.sleb128 -1
 11732 09aa 9F       		.byte	0x9f
 11733 09ab 22030000 		.4byte	.LVL113
 11734 09af 5C030000 		.4byte	.LVL120
 11735 09b3 0100     		.2byte	0x1
 11736 09b5 58       		.byte	0x58
 11737 09b6 62030000 		.4byte	.LVL121
 11738 09ba 66030000 		.4byte	.LVL122
 11739 09be 0100     		.2byte	0x1
 11740 09c0 58       		.byte	0x58
 11741 09c1 00000000 		.4byte	0
 11742 09c5 00000000 		.4byte	0
 11743              	.LLST48:
 11744 09c9 28030000 		.4byte	.LVL114
ARM GAS  C:\Users\JACOB-~1\AppData\Local\Temp\ccGLbPGC.s 			page 238


 11745 09cd 66030000 		.4byte	.LVL122
 11746 09d1 0200     		.2byte	0x2
 11747 09d3 37       		.byte	0x37
 11748 09d4 9F       		.byte	0x9f
 11749 09d5 00000000 		.4byte	0
 11750 09d9 00000000 		.4byte	0
 11751              	.LLST49:
 11752 09dd 28030000 		.4byte	.LVL114
 11753 09e1 2A030000 		.4byte	.LVL115
 11754 09e5 0200     		.2byte	0x2
 11755 09e7 30       		.byte	0x30
 11756 09e8 9F       		.byte	0x9f
 11757 09e9 00000000 		.4byte	0
 11758 09ed 00000000 		.4byte	0
 11759              	.LLST50:
 11760 09f1 2A030000 		.4byte	.LVL115
 11761 09f5 3E030000 		.4byte	.LVL116
 11762 09f9 0200     		.2byte	0x2
 11763 09fb 30       		.byte	0x30
 11764 09fc 9F       		.byte	0x9f
 11765 09fd 00000000 		.4byte	0
 11766 0a01 00000000 		.4byte	0
 11767              	.LLST51:
 11768 0a05 98030000 		.4byte	.LVL129
 11769 0a09 C2030000 		.4byte	.LVL133
 11770 0a0d 0100     		.2byte	0x1
 11771 0a0f 55       		.byte	0x55
 11772 0a10 CA030000 		.4byte	.LVL134
 11773 0a14 D6030000 		.4byte	.LVL137
 11774 0a18 0100     		.2byte	0x1
 11775 0a1a 55       		.byte	0x55
 11776 0a1b 00000000 		.4byte	0
 11777 0a1f 00000000 		.4byte	0
 11778              	.LLST52:
 11779 0a23 98030000 		.4byte	.LVL129
 11780 0a27 D6030000 		.4byte	.LVL137
 11781 0a2b 0100     		.2byte	0x1
 11782 0a2d 57       		.byte	0x57
 11783 0a2e 00000000 		.4byte	0
 11784 0a32 00000000 		.4byte	0
 11785              	.LLST53:
 11786 0a36 6E030000 		.4byte	.LVL123
 11787 0a3a 76030000 		.4byte	.LVL125
 11788 0a3e 0100     		.2byte	0x1
 11789 0a40 53       		.byte	0x53
 11790 0a41 7A030000 		.4byte	.LVL126
 11791 0a45 88030000 		.4byte	.LVL127
 11792 0a49 0100     		.2byte	0x1
 11793 0a4b 53       		.byte	0x53
 11794 0a4c 88030000 		.4byte	.LVL127
 11795 0a50 92030000 		.4byte	.LVL128
 11796 0a54 0300     		.2byte	0x3
 11797 0a56 73       		.byte	0x73
 11798 0a57 7F       		.sleb128 -1
 11799 0a58 9F       		.byte	0x9f
 11800 0a59 92030000 		.4byte	.LVL128
 11801 0a5d CC030000 		.4byte	.LVL135
ARM GAS  C:\Users\JACOB-~1\AppData\Local\Temp\ccGLbPGC.s 			page 239


 11802 0a61 0100     		.2byte	0x1
 11803 0a63 58       		.byte	0x58
 11804 0a64 D2030000 		.4byte	.LVL136
 11805 0a68 D6030000 		.4byte	.LVL137
 11806 0a6c 0100     		.2byte	0x1
 11807 0a6e 58       		.byte	0x58
 11808 0a6f 00000000 		.4byte	0
 11809 0a73 00000000 		.4byte	0
 11810              	.LLST54:
 11811 0a77 98030000 		.4byte	.LVL129
 11812 0a7b D6030000 		.4byte	.LVL137
 11813 0a7f 0200     		.2byte	0x2
 11814 0a81 37       		.byte	0x37
 11815 0a82 9F       		.byte	0x9f
 11816 0a83 00000000 		.4byte	0
 11817 0a87 00000000 		.4byte	0
 11818              	.LLST55:
 11819 0a8b 98030000 		.4byte	.LVL129
 11820 0a8f 9A030000 		.4byte	.LVL130
 11821 0a93 0200     		.2byte	0x2
 11822 0a95 30       		.byte	0x30
 11823 0a96 9F       		.byte	0x9f
 11824 0a97 00000000 		.4byte	0
 11825 0a9b 00000000 		.4byte	0
 11826              	.LLST56:
 11827 0a9f 9A030000 		.4byte	.LVL130
 11828 0aa3 AE030000 		.4byte	.LVL131
 11829 0aa7 0200     		.2byte	0x2
 11830 0aa9 30       		.byte	0x30
 11831 0aaa 9F       		.byte	0x9f
 11832 0aab 00000000 		.4byte	0
 11833 0aaf 00000000 		.4byte	0
 11834              	.LLST57:
 11835 0ab3 08040000 		.4byte	.LVL144
 11836 0ab7 32040000 		.4byte	.LVL148
 11837 0abb 0100     		.2byte	0x1
 11838 0abd 55       		.byte	0x55
 11839 0abe 3A040000 		.4byte	.LVL149
 11840 0ac2 46040000 		.4byte	.LVL152
 11841 0ac6 0100     		.2byte	0x1
 11842 0ac8 55       		.byte	0x55
 11843 0ac9 00000000 		.4byte	0
 11844 0acd 00000000 		.4byte	0
 11845              	.LLST58:
 11846 0ad1 08040000 		.4byte	.LVL144
 11847 0ad5 46040000 		.4byte	.LVL152
 11848 0ad9 0100     		.2byte	0x1
 11849 0adb 57       		.byte	0x57
 11850 0adc 00000000 		.4byte	0
 11851 0ae0 00000000 		.4byte	0
 11852              	.LLST59:
 11853 0ae4 DE030000 		.4byte	.LVL138
 11854 0ae8 E6030000 		.4byte	.LVL140
 11855 0aec 0100     		.2byte	0x1
 11856 0aee 53       		.byte	0x53
 11857 0aef EA030000 		.4byte	.LVL141
 11858 0af3 F8030000 		.4byte	.LVL142
ARM GAS  C:\Users\JACOB-~1\AppData\Local\Temp\ccGLbPGC.s 			page 240


 11859 0af7 0100     		.2byte	0x1
 11860 0af9 53       		.byte	0x53
 11861 0afa F8030000 		.4byte	.LVL142
 11862 0afe 02040000 		.4byte	.LVL143
 11863 0b02 0300     		.2byte	0x3
 11864 0b04 73       		.byte	0x73
 11865 0b05 7F       		.sleb128 -1
 11866 0b06 9F       		.byte	0x9f
 11867 0b07 02040000 		.4byte	.LVL143
 11868 0b0b 3C040000 		.4byte	.LVL150
 11869 0b0f 0100     		.2byte	0x1
 11870 0b11 58       		.byte	0x58
 11871 0b12 42040000 		.4byte	.LVL151
 11872 0b16 46040000 		.4byte	.LVL152
 11873 0b1a 0100     		.2byte	0x1
 11874 0b1c 58       		.byte	0x58
 11875 0b1d 00000000 		.4byte	0
 11876 0b21 00000000 		.4byte	0
 11877              	.LLST60:
 11878 0b25 08040000 		.4byte	.LVL144
 11879 0b29 46040000 		.4byte	.LVL152
 11880 0b2d 0200     		.2byte	0x2
 11881 0b2f 37       		.byte	0x37
 11882 0b30 9F       		.byte	0x9f
 11883 0b31 00000000 		.4byte	0
 11884 0b35 00000000 		.4byte	0
 11885              	.LLST61:
 11886 0b39 08040000 		.4byte	.LVL144
 11887 0b3d 0A040000 		.4byte	.LVL145
 11888 0b41 0200     		.2byte	0x2
 11889 0b43 30       		.byte	0x30
 11890 0b44 9F       		.byte	0x9f
 11891 0b45 00000000 		.4byte	0
 11892 0b49 00000000 		.4byte	0
 11893              	.LLST62:
 11894 0b4d 0A040000 		.4byte	.LVL145
 11895 0b51 1E040000 		.4byte	.LVL146
 11896 0b55 0200     		.2byte	0x2
 11897 0b57 30       		.byte	0x30
 11898 0b58 9F       		.byte	0x9f
 11899 0b59 00000000 		.4byte	0
 11900 0b5d 00000000 		.4byte	0
 11901              	.LLST63:
 11902 0b61 5C040000 		.4byte	.LVL153
 11903 0b65 8A040000 		.4byte	.LVL157
 11904 0b69 0100     		.2byte	0x1
 11905 0b6b 55       		.byte	0x55
 11906 0b6c 92040000 		.4byte	.LVL158
 11907 0b70 A4040000 		.4byte	.LVL161
 11908 0b74 0100     		.2byte	0x1
 11909 0b76 55       		.byte	0x55
 11910 0b77 00000000 		.4byte	0
 11911 0b7b 00000000 		.4byte	0
 11912              	.LLST64:
 11913 0b7f 5C040000 		.4byte	.LVL153
 11914 0b83 A4040000 		.4byte	.LVL161
 11915 0b87 0100     		.2byte	0x1
ARM GAS  C:\Users\JACOB-~1\AppData\Local\Temp\ccGLbPGC.s 			page 241


 11916 0b89 57       		.byte	0x57
 11917 0b8a 00000000 		.4byte	0
 11918 0b8e 00000000 		.4byte	0
 11919              	.LLST65:
 11920 0b92 46040000 		.4byte	.LVL152
 11921 0b96 66040000 		.4byte	.LVL154
 11922 0b9a 0400     		.2byte	0x4
 11923 0b9c 0A       		.byte	0xa
 11924 0b9d 2001     		.2byte	0x120
 11925 0b9f 9F       		.byte	0x9f
 11926 0ba0 66040000 		.4byte	.LVL154
 11927 0ba4 94040000 		.4byte	.LVL159
 11928 0ba8 0100     		.2byte	0x1
 11929 0baa 58       		.byte	0x58
 11930 0bab 9A040000 		.4byte	.LVL160
 11931 0baf A4040000 		.4byte	.LVL161
 11932 0bb3 0100     		.2byte	0x1
 11933 0bb5 58       		.byte	0x58
 11934 0bb6 00000000 		.4byte	0
 11935 0bba 00000000 		.4byte	0
 11936              	.LLST66:
 11937 0bbe 5C040000 		.4byte	.LVL153
 11938 0bc2 A4040000 		.4byte	.LVL161
 11939 0bc6 0200     		.2byte	0x2
 11940 0bc8 37       		.byte	0x37
 11941 0bc9 9F       		.byte	0x9f
 11942 0bca 00000000 		.4byte	0
 11943 0bce 00000000 		.4byte	0
 11944              	.LLST67:
 11945 0bd2 5C040000 		.4byte	.LVL153
 11946 0bd6 66040000 		.4byte	.LVL154
 11947 0bda 0200     		.2byte	0x2
 11948 0bdc 30       		.byte	0x30
 11949 0bdd 9F       		.byte	0x9f
 11950 0bde 00000000 		.4byte	0
 11951 0be2 00000000 		.4byte	0
 11952              	.LLST68:
 11953 0be6 66040000 		.4byte	.LVL154
 11954 0bea 76040000 		.4byte	.LVL155
 11955 0bee 0200     		.2byte	0x2
 11956 0bf0 30       		.byte	0x30
 11957 0bf1 9F       		.byte	0x9f
 11958 0bf2 00000000 		.4byte	0
 11959 0bf6 00000000 		.4byte	0
 11960              	.LLST69:
 11961 0bfa D6040000 		.4byte	.LVL168
 11962 0bfe 00050000 		.4byte	.LVL172
 11963 0c02 0100     		.2byte	0x1
 11964 0c04 55       		.byte	0x55
 11965 0c05 08050000 		.4byte	.LVL173
 11966 0c09 14050000 		.4byte	.LVL176
 11967 0c0d 0100     		.2byte	0x1
 11968 0c0f 55       		.byte	0x55
 11969 0c10 00000000 		.4byte	0
 11970 0c14 00000000 		.4byte	0
 11971              	.LLST70:
 11972 0c18 D6040000 		.4byte	.LVL168
ARM GAS  C:\Users\JACOB-~1\AppData\Local\Temp\ccGLbPGC.s 			page 242


 11973 0c1c 14050000 		.4byte	.LVL176
 11974 0c20 0100     		.2byte	0x1
 11975 0c22 57       		.byte	0x57
 11976 0c23 00000000 		.4byte	0
 11977 0c27 00000000 		.4byte	0
 11978              	.LLST71:
 11979 0c2b AC040000 		.4byte	.LVL162
 11980 0c2f B4040000 		.4byte	.LVL164
 11981 0c33 0100     		.2byte	0x1
 11982 0c35 53       		.byte	0x53
 11983 0c36 B8040000 		.4byte	.LVL165
 11984 0c3a C6040000 		.4byte	.LVL166
 11985 0c3e 0100     		.2byte	0x1
 11986 0c40 53       		.byte	0x53
 11987 0c41 C6040000 		.4byte	.LVL166
 11988 0c45 D0040000 		.4byte	.LVL167
 11989 0c49 0300     		.2byte	0x3
 11990 0c4b 73       		.byte	0x73
 11991 0c4c 7F       		.sleb128 -1
 11992 0c4d 9F       		.byte	0x9f
 11993 0c4e D0040000 		.4byte	.LVL167
 11994 0c52 0A050000 		.4byte	.LVL174
 11995 0c56 0100     		.2byte	0x1
 11996 0c58 58       		.byte	0x58
 11997 0c59 10050000 		.4byte	.LVL175
 11998 0c5d 14050000 		.4byte	.LVL176
 11999 0c61 0100     		.2byte	0x1
 12000 0c63 58       		.byte	0x58
 12001 0c64 00000000 		.4byte	0
 12002 0c68 00000000 		.4byte	0
 12003              	.LLST72:
 12004 0c6c D6040000 		.4byte	.LVL168
 12005 0c70 14050000 		.4byte	.LVL176
 12006 0c74 0200     		.2byte	0x2
 12007 0c76 37       		.byte	0x37
 12008 0c77 9F       		.byte	0x9f
 12009 0c78 00000000 		.4byte	0
 12010 0c7c 00000000 		.4byte	0
 12011              	.LLST73:
 12012 0c80 D6040000 		.4byte	.LVL168
 12013 0c84 D8040000 		.4byte	.LVL169
 12014 0c88 0200     		.2byte	0x2
 12015 0c8a 30       		.byte	0x30
 12016 0c8b 9F       		.byte	0x9f
 12017 0c8c 00000000 		.4byte	0
 12018 0c90 00000000 		.4byte	0
 12019              	.LLST74:
 12020 0c94 D8040000 		.4byte	.LVL169
 12021 0c98 EC040000 		.4byte	.LVL170
 12022 0c9c 0200     		.2byte	0x2
 12023 0c9e 30       		.byte	0x30
 12024 0c9f 9F       		.byte	0x9f
 12025 0ca0 00000000 		.4byte	0
 12026 0ca4 00000000 		.4byte	0
 12027              	.LLST75:
 12028 0ca8 2A050000 		.4byte	.LVL177
 12029 0cac 58050000 		.4byte	.LVL181
ARM GAS  C:\Users\JACOB-~1\AppData\Local\Temp\ccGLbPGC.s 			page 243


 12030 0cb0 0100     		.2byte	0x1
 12031 0cb2 55       		.byte	0x55
 12032 0cb3 60050000 		.4byte	.LVL182
 12033 0cb7 72050000 		.4byte	.LVL185
 12034 0cbb 0100     		.2byte	0x1
 12035 0cbd 55       		.byte	0x55
 12036 0cbe 00000000 		.4byte	0
 12037 0cc2 00000000 		.4byte	0
 12038              	.LLST76:
 12039 0cc6 2A050000 		.4byte	.LVL177
 12040 0cca 72050000 		.4byte	.LVL185
 12041 0cce 0100     		.2byte	0x1
 12042 0cd0 57       		.byte	0x57
 12043 0cd1 00000000 		.4byte	0
 12044 0cd5 00000000 		.4byte	0
 12045              	.LLST77:
 12046 0cd9 14050000 		.4byte	.LVL176
 12047 0cdd 34050000 		.4byte	.LVL178
 12048 0ce1 0300     		.2byte	0x3
 12049 0ce3 08       		.byte	0x8
 12050 0ce4 5F       		.byte	0x5f
 12051 0ce5 9F       		.byte	0x9f
 12052 0ce6 34050000 		.4byte	.LVL178
 12053 0cea 62050000 		.4byte	.LVL183
 12054 0cee 0100     		.2byte	0x1
 12055 0cf0 58       		.byte	0x58
 12056 0cf1 68050000 		.4byte	.LVL184
 12057 0cf5 72050000 		.4byte	.LVL185
 12058 0cf9 0100     		.2byte	0x1
 12059 0cfb 58       		.byte	0x58
 12060 0cfc 00000000 		.4byte	0
 12061 0d00 00000000 		.4byte	0
 12062              	.LLST78:
 12063 0d04 2A050000 		.4byte	.LVL177
 12064 0d08 72050000 		.4byte	.LVL185
 12065 0d0c 0200     		.2byte	0x2
 12066 0d0e 37       		.byte	0x37
 12067 0d0f 9F       		.byte	0x9f
 12068 0d10 00000000 		.4byte	0
 12069 0d14 00000000 		.4byte	0
 12070              	.LLST79:
 12071 0d18 2A050000 		.4byte	.LVL177
 12072 0d1c 34050000 		.4byte	.LVL178
 12073 0d20 0200     		.2byte	0x2
 12074 0d22 30       		.byte	0x30
 12075 0d23 9F       		.byte	0x9f
 12076 0d24 00000000 		.4byte	0
 12077 0d28 00000000 		.4byte	0
 12078              	.LLST80:
 12079 0d2c 34050000 		.4byte	.LVL178
 12080 0d30 44050000 		.4byte	.LVL179
 12081 0d34 0200     		.2byte	0x2
 12082 0d36 30       		.byte	0x30
 12083 0d37 9F       		.byte	0x9f
 12084 0d38 00000000 		.4byte	0
 12085 0d3c 00000000 		.4byte	0
 12086              	.LLST81:
ARM GAS  C:\Users\JACOB-~1\AppData\Local\Temp\ccGLbPGC.s 			page 244


 12087 0d40 A4050000 		.4byte	.LVL192
 12088 0d44 CE050000 		.4byte	.LVL196
 12089 0d48 0100     		.2byte	0x1
 12090 0d4a 55       		.byte	0x55
 12091 0d4b D6050000 		.4byte	.LVL197
 12092 0d4f E2050000 		.4byte	.LVL200
 12093 0d53 0100     		.2byte	0x1
 12094 0d55 55       		.byte	0x55
 12095 0d56 00000000 		.4byte	0
 12096 0d5a 00000000 		.4byte	0
 12097              	.LLST82:
 12098 0d5e A4050000 		.4byte	.LVL192
 12099 0d62 E2050000 		.4byte	.LVL200
 12100 0d66 0100     		.2byte	0x1
 12101 0d68 57       		.byte	0x57
 12102 0d69 00000000 		.4byte	0
 12103 0d6d 00000000 		.4byte	0
 12104              	.LLST83:
 12105 0d71 7A050000 		.4byte	.LVL186
 12106 0d75 82050000 		.4byte	.LVL188
 12107 0d79 0100     		.2byte	0x1
 12108 0d7b 53       		.byte	0x53
 12109 0d7c 86050000 		.4byte	.LVL189
 12110 0d80 94050000 		.4byte	.LVL190
 12111 0d84 0100     		.2byte	0x1
 12112 0d86 53       		.byte	0x53
 12113 0d87 94050000 		.4byte	.LVL190
 12114 0d8b 9E050000 		.4byte	.LVL191
 12115 0d8f 0300     		.2byte	0x3
 12116 0d91 73       		.byte	0x73
 12117 0d92 7F       		.sleb128 -1
 12118 0d93 9F       		.byte	0x9f
 12119 0d94 9E050000 		.4byte	.LVL191
 12120 0d98 D8050000 		.4byte	.LVL198
 12121 0d9c 0100     		.2byte	0x1
 12122 0d9e 58       		.byte	0x58
 12123 0d9f DE050000 		.4byte	.LVL199
 12124 0da3 E2050000 		.4byte	.LVL200
 12125 0da7 0100     		.2byte	0x1
 12126 0da9 58       		.byte	0x58
 12127 0daa 00000000 		.4byte	0
 12128 0dae 00000000 		.4byte	0
 12129              	.LLST84:
 12130 0db2 A4050000 		.4byte	.LVL192
 12131 0db6 E2050000 		.4byte	.LVL200
 12132 0dba 0200     		.2byte	0x2
 12133 0dbc 37       		.byte	0x37
 12134 0dbd 9F       		.byte	0x9f
 12135 0dbe 00000000 		.4byte	0
 12136 0dc2 00000000 		.4byte	0
 12137              	.LLST85:
 12138 0dc6 A4050000 		.4byte	.LVL192
 12139 0dca A6050000 		.4byte	.LVL193
 12140 0dce 0200     		.2byte	0x2
 12141 0dd0 30       		.byte	0x30
 12142 0dd1 9F       		.byte	0x9f
 12143 0dd2 00000000 		.4byte	0
ARM GAS  C:\Users\JACOB-~1\AppData\Local\Temp\ccGLbPGC.s 			page 245


 12144 0dd6 00000000 		.4byte	0
 12145              	.LLST86:
 12146 0dda A6050000 		.4byte	.LVL193
 12147 0dde BA050000 		.4byte	.LVL194
 12148 0de2 0200     		.2byte	0x2
 12149 0de4 30       		.byte	0x30
 12150 0de5 9F       		.byte	0x9f
 12151 0de6 00000000 		.4byte	0
 12152 0dea 00000000 		.4byte	0
 12153              	.LLST87:
 12154 0dee 14060000 		.4byte	.LVL207
 12155 0df2 3E060000 		.4byte	.LVL211
 12156 0df6 0100     		.2byte	0x1
 12157 0df8 55       		.byte	0x55
 12158 0df9 46060000 		.4byte	.LVL212
 12159 0dfd 52060000 		.4byte	.LVL215
 12160 0e01 0100     		.2byte	0x1
 12161 0e03 55       		.byte	0x55
 12162 0e04 00000000 		.4byte	0
 12163 0e08 00000000 		.4byte	0
 12164              	.LLST88:
 12165 0e0c 14060000 		.4byte	.LVL207
 12166 0e10 52060000 		.4byte	.LVL215
 12167 0e14 0100     		.2byte	0x1
 12168 0e16 57       		.byte	0x57
 12169 0e17 00000000 		.4byte	0
 12170 0e1b 00000000 		.4byte	0
 12171              	.LLST89:
 12172 0e1f EA050000 		.4byte	.LVL201
 12173 0e23 F2050000 		.4byte	.LVL203
 12174 0e27 0100     		.2byte	0x1
 12175 0e29 53       		.byte	0x53
 12176 0e2a F6050000 		.4byte	.LVL204
 12177 0e2e 04060000 		.4byte	.LVL205
 12178 0e32 0100     		.2byte	0x1
 12179 0e34 53       		.byte	0x53
 12180 0e35 04060000 		.4byte	.LVL205
 12181 0e39 0E060000 		.4byte	.LVL206
 12182 0e3d 0300     		.2byte	0x3
 12183 0e3f 73       		.byte	0x73
 12184 0e40 7F       		.sleb128 -1
 12185 0e41 9F       		.byte	0x9f
 12186 0e42 0E060000 		.4byte	.LVL206
 12187 0e46 48060000 		.4byte	.LVL213
 12188 0e4a 0100     		.2byte	0x1
 12189 0e4c 58       		.byte	0x58
 12190 0e4d 4E060000 		.4byte	.LVL214
 12191 0e51 52060000 		.4byte	.LVL215
 12192 0e55 0100     		.2byte	0x1
 12193 0e57 58       		.byte	0x58
 12194 0e58 00000000 		.4byte	0
 12195 0e5c 00000000 		.4byte	0
 12196              	.LLST90:
 12197 0e60 14060000 		.4byte	.LVL207
 12198 0e64 52060000 		.4byte	.LVL215
 12199 0e68 0200     		.2byte	0x2
 12200 0e6a 37       		.byte	0x37
ARM GAS  C:\Users\JACOB-~1\AppData\Local\Temp\ccGLbPGC.s 			page 246


 12201 0e6b 9F       		.byte	0x9f
 12202 0e6c 00000000 		.4byte	0
 12203 0e70 00000000 		.4byte	0
 12204              	.LLST91:
 12205 0e74 14060000 		.4byte	.LVL207
 12206 0e78 16060000 		.4byte	.LVL208
 12207 0e7c 0200     		.2byte	0x2
 12208 0e7e 30       		.byte	0x30
 12209 0e7f 9F       		.byte	0x9f
 12210 0e80 00000000 		.4byte	0
 12211 0e84 00000000 		.4byte	0
 12212              	.LLST92:
 12213 0e88 16060000 		.4byte	.LVL208
 12214 0e8c 2A060000 		.4byte	.LVL209
 12215 0e90 0200     		.2byte	0x2
 12216 0e92 30       		.byte	0x30
 12217 0e93 9F       		.byte	0x9f
 12218 0e94 00000000 		.4byte	0
 12219 0e98 00000000 		.4byte	0
 12220              	.LLST93:
 12221 0e9c 84060000 		.4byte	.LVL222
 12222 0ea0 AE060000 		.4byte	.LVL226
 12223 0ea4 0100     		.2byte	0x1
 12224 0ea6 55       		.byte	0x55
 12225 0ea7 B6060000 		.4byte	.LVL227
 12226 0eab C2060000 		.4byte	.LVL230
 12227 0eaf 0100     		.2byte	0x1
 12228 0eb1 55       		.byte	0x55
 12229 0eb2 00000000 		.4byte	0
 12230 0eb6 00000000 		.4byte	0
 12231              	.LLST94:
 12232 0eba 84060000 		.4byte	.LVL222
 12233 0ebe C2060000 		.4byte	.LVL230
 12234 0ec2 0100     		.2byte	0x1
 12235 0ec4 57       		.byte	0x57
 12236 0ec5 00000000 		.4byte	0
 12237 0ec9 00000000 		.4byte	0
 12238              	.LLST95:
 12239 0ecd 5A060000 		.4byte	.LVL216
 12240 0ed1 62060000 		.4byte	.LVL218
 12241 0ed5 0100     		.2byte	0x1
 12242 0ed7 53       		.byte	0x53
 12243 0ed8 66060000 		.4byte	.LVL219
 12244 0edc 74060000 		.4byte	.LVL220
 12245 0ee0 0100     		.2byte	0x1
 12246 0ee2 53       		.byte	0x53
 12247 0ee3 74060000 		.4byte	.LVL220
 12248 0ee7 7E060000 		.4byte	.LVL221
 12249 0eeb 0300     		.2byte	0x3
 12250 0eed 73       		.byte	0x73
 12251 0eee 7F       		.sleb128 -1
 12252 0eef 9F       		.byte	0x9f
 12253 0ef0 7E060000 		.4byte	.LVL221
 12254 0ef4 B8060000 		.4byte	.LVL228
 12255 0ef8 0100     		.2byte	0x1
 12256 0efa 58       		.byte	0x58
 12257 0efb BE060000 		.4byte	.LVL229
ARM GAS  C:\Users\JACOB-~1\AppData\Local\Temp\ccGLbPGC.s 			page 247


 12258 0eff C2060000 		.4byte	.LVL230
 12259 0f03 0100     		.2byte	0x1
 12260 0f05 58       		.byte	0x58
 12261 0f06 00000000 		.4byte	0
 12262 0f0a 00000000 		.4byte	0
 12263              	.LLST96:
 12264 0f0e 84060000 		.4byte	.LVL222
 12265 0f12 C2060000 		.4byte	.LVL230
 12266 0f16 0200     		.2byte	0x2
 12267 0f18 37       		.byte	0x37
 12268 0f19 9F       		.byte	0x9f
 12269 0f1a 00000000 		.4byte	0
 12270 0f1e 00000000 		.4byte	0
 12271              	.LLST97:
 12272 0f22 84060000 		.4byte	.LVL222
 12273 0f26 86060000 		.4byte	.LVL223
 12274 0f2a 0200     		.2byte	0x2
 12275 0f2c 30       		.byte	0x30
 12276 0f2d 9F       		.byte	0x9f
 12277 0f2e 00000000 		.4byte	0
 12278 0f32 00000000 		.4byte	0
 12279              	.LLST98:
 12280 0f36 86060000 		.4byte	.LVL223
 12281 0f3a 9A060000 		.4byte	.LVL224
 12282 0f3e 0200     		.2byte	0x2
 12283 0f40 30       		.byte	0x30
 12284 0f41 9F       		.byte	0x9f
 12285 0f42 00000000 		.4byte	0
 12286 0f46 00000000 		.4byte	0
 12287              	.LLST99:
 12288 0f4a D8060000 		.4byte	.LVL231
 12289 0f4e 06070000 		.4byte	.LVL235
 12290 0f52 0100     		.2byte	0x1
 12291 0f54 55       		.byte	0x55
 12292 0f55 0E070000 		.4byte	.LVL236
 12293 0f59 20070000 		.4byte	.LVL239
 12294 0f5d 0100     		.2byte	0x1
 12295 0f5f 55       		.byte	0x55
 12296 0f60 00000000 		.4byte	0
 12297 0f64 00000000 		.4byte	0
 12298              	.LLST100:
 12299 0f68 D8060000 		.4byte	.LVL231
 12300 0f6c 20070000 		.4byte	.LVL239
 12301 0f70 0100     		.2byte	0x1
 12302 0f72 57       		.byte	0x57
 12303 0f73 00000000 		.4byte	0
 12304 0f77 00000000 		.4byte	0
 12305              	.LLST101:
 12306 0f7b C2060000 		.4byte	.LVL230
 12307 0f7f E2060000 		.4byte	.LVL232
 12308 0f83 0300     		.2byte	0x3
 12309 0f85 08       		.byte	0x8
 12310 0f86 BA       		.byte	0xba
 12311 0f87 9F       		.byte	0x9f
 12312 0f88 E2060000 		.4byte	.LVL232
 12313 0f8c 10070000 		.4byte	.LVL237
 12314 0f90 0100     		.2byte	0x1
ARM GAS  C:\Users\JACOB-~1\AppData\Local\Temp\ccGLbPGC.s 			page 248


 12315 0f92 58       		.byte	0x58
 12316 0f93 16070000 		.4byte	.LVL238
 12317 0f97 20070000 		.4byte	.LVL239
 12318 0f9b 0100     		.2byte	0x1
 12319 0f9d 58       		.byte	0x58
 12320 0f9e 00000000 		.4byte	0
 12321 0fa2 00000000 		.4byte	0
 12322              	.LLST102:
 12323 0fa6 D8060000 		.4byte	.LVL231
 12324 0faa 20070000 		.4byte	.LVL239
 12325 0fae 0200     		.2byte	0x2
 12326 0fb0 37       		.byte	0x37
 12327 0fb1 9F       		.byte	0x9f
 12328 0fb2 00000000 		.4byte	0
 12329 0fb6 00000000 		.4byte	0
 12330              	.LLST103:
 12331 0fba D8060000 		.4byte	.LVL231
 12332 0fbe E2060000 		.4byte	.LVL232
 12333 0fc2 0200     		.2byte	0x2
 12334 0fc4 30       		.byte	0x30
 12335 0fc5 9F       		.byte	0x9f
 12336 0fc6 00000000 		.4byte	0
 12337 0fca 00000000 		.4byte	0
 12338              	.LLST104:
 12339 0fce E2060000 		.4byte	.LVL232
 12340 0fd2 F2060000 		.4byte	.LVL233
 12341 0fd6 0200     		.2byte	0x2
 12342 0fd8 30       		.byte	0x30
 12343 0fd9 9F       		.byte	0x9f
 12344 0fda 00000000 		.4byte	0
 12345 0fde 00000000 		.4byte	0
 12346              	.LLST105:
 12347 0fe2 36070000 		.4byte	.LVL240
 12348 0fe6 64070000 		.4byte	.LVL244
 12349 0fea 0100     		.2byte	0x1
 12350 0fec 55       		.byte	0x55
 12351 0fed 6C070000 		.4byte	.LVL245
 12352 0ff1 7E070000 		.4byte	.LVL248
 12353 0ff5 0100     		.2byte	0x1
 12354 0ff7 55       		.byte	0x55
 12355 0ff8 00000000 		.4byte	0
 12356 0ffc 00000000 		.4byte	0
 12357              	.LLST106:
 12358 1000 36070000 		.4byte	.LVL240
 12359 1004 7E070000 		.4byte	.LVL248
 12360 1008 0100     		.2byte	0x1
 12361 100a 57       		.byte	0x57
 12362 100b 00000000 		.4byte	0
 12363 100f 00000000 		.4byte	0
 12364              	.LLST107:
 12365 1013 20070000 		.4byte	.LVL239
 12366 1017 40070000 		.4byte	.LVL241
 12367 101b 0400     		.2byte	0x4
 12368 101d 0A       		.byte	0xa
 12369 101e 7E01     		.2byte	0x17e
 12370 1020 9F       		.byte	0x9f
 12371 1021 40070000 		.4byte	.LVL241
ARM GAS  C:\Users\JACOB-~1\AppData\Local\Temp\ccGLbPGC.s 			page 249


 12372 1025 6E070000 		.4byte	.LVL246
 12373 1029 0100     		.2byte	0x1
 12374 102b 58       		.byte	0x58
 12375 102c 74070000 		.4byte	.LVL247
 12376 1030 7E070000 		.4byte	.LVL248
 12377 1034 0100     		.2byte	0x1
 12378 1036 58       		.byte	0x58
 12379 1037 00000000 		.4byte	0
 12380 103b 00000000 		.4byte	0
 12381              	.LLST108:
 12382 103f 36070000 		.4byte	.LVL240
 12383 1043 7E070000 		.4byte	.LVL248
 12384 1047 0200     		.2byte	0x2
 12385 1049 37       		.byte	0x37
 12386 104a 9F       		.byte	0x9f
 12387 104b 00000000 		.4byte	0
 12388 104f 00000000 		.4byte	0
 12389              	.LLST109:
 12390 1053 36070000 		.4byte	.LVL240
 12391 1057 40070000 		.4byte	.LVL241
 12392 105b 0200     		.2byte	0x2
 12393 105d 30       		.byte	0x30
 12394 105e 9F       		.byte	0x9f
 12395 105f 00000000 		.4byte	0
 12396 1063 00000000 		.4byte	0
 12397              	.LLST110:
 12398 1067 40070000 		.4byte	.LVL241
 12399 106b 50070000 		.4byte	.LVL242
 12400 106f 0200     		.2byte	0x2
 12401 1071 30       		.byte	0x30
 12402 1072 9F       		.byte	0x9f
 12403 1073 00000000 		.4byte	0
 12404 1077 00000000 		.4byte	0
 12405              	.LLST111:
 12406 107b 98070000 		.4byte	.LVL249
 12407 107f C2070000 		.4byte	.LVL253
 12408 1083 0100     		.2byte	0x1
 12409 1085 55       		.byte	0x55
 12410 1086 CA070000 		.4byte	.LVL254
 12411 108a DC070000 		.4byte	.LVL257
 12412 108e 0100     		.2byte	0x1
 12413 1090 55       		.byte	0x55
 12414 1091 00000000 		.4byte	0
 12415 1095 00000000 		.4byte	0
 12416              	.LLST112:
 12417 1099 98070000 		.4byte	.LVL249
 12418 109d DC070000 		.4byte	.LVL257
 12419 10a1 0100     		.2byte	0x1
 12420 10a3 57       		.byte	0x57
 12421 10a4 00000000 		.4byte	0
 12422 10a8 00000000 		.4byte	0
 12423              	.LLST113:
 12424 10ac 7E070000 		.4byte	.LVL248
 12425 10b0 9E070000 		.4byte	.LVL250
 12426 10b4 0400     		.2byte	0x4
 12427 10b6 0A       		.byte	0xa
 12428 10b7 6901     		.2byte	0x169
ARM GAS  C:\Users\JACOB-~1\AppData\Local\Temp\ccGLbPGC.s 			page 250


 12429 10b9 9F       		.byte	0x9f
 12430 10ba 9E070000 		.4byte	.LVL250
 12431 10be CC070000 		.4byte	.LVL255
 12432 10c2 0100     		.2byte	0x1
 12433 10c4 58       		.byte	0x58
 12434 10c5 D2070000 		.4byte	.LVL256
 12435 10c9 DC070000 		.4byte	.LVL257
 12436 10cd 0100     		.2byte	0x1
 12437 10cf 58       		.byte	0x58
 12438 10d0 00000000 		.4byte	0
 12439 10d4 00000000 		.4byte	0
 12440              	.LLST114:
 12441 10d8 98070000 		.4byte	.LVL249
 12442 10dc DC070000 		.4byte	.LVL257
 12443 10e0 0200     		.2byte	0x2
 12444 10e2 37       		.byte	0x37
 12445 10e3 9F       		.byte	0x9f
 12446 10e4 00000000 		.4byte	0
 12447 10e8 00000000 		.4byte	0
 12448              	.LLST115:
 12449 10ec 98070000 		.4byte	.LVL249
 12450 10f0 9E070000 		.4byte	.LVL250
 12451 10f4 0200     		.2byte	0x2
 12452 10f6 30       		.byte	0x30
 12453 10f7 9F       		.byte	0x9f
 12454 10f8 00000000 		.4byte	0
 12455 10fc 00000000 		.4byte	0
 12456              	.LLST116:
 12457 1100 9E070000 		.4byte	.LVL250
 12458 1104 AE070000 		.4byte	.LVL251
 12459 1108 0200     		.2byte	0x2
 12460 110a 30       		.byte	0x30
 12461 110b 9F       		.byte	0x9f
 12462 110c 00000000 		.4byte	0
 12463 1110 00000000 		.4byte	0
 12464              	.LLST117:
 12465 1114 F6070000 		.4byte	.LVL258
 12466 1118 20080000 		.4byte	.LVL262
 12467 111c 0100     		.2byte	0x1
 12468 111e 55       		.byte	0x55
 12469 111f 28080000 		.4byte	.LVL263
 12470 1123 3A080000 		.4byte	.LVL266
 12471 1127 0100     		.2byte	0x1
 12472 1129 55       		.byte	0x55
 12473 112a 00000000 		.4byte	0
 12474 112e 00000000 		.4byte	0
 12475              	.LLST118:
 12476 1132 F6070000 		.4byte	.LVL258
 12477 1136 3A080000 		.4byte	.LVL266
 12478 113a 0100     		.2byte	0x1
 12479 113c 57       		.byte	0x57
 12480 113d 00000000 		.4byte	0
 12481 1141 00000000 		.4byte	0
 12482              	.LLST119:
 12483 1145 DC070000 		.4byte	.LVL257
 12484 1149 FC070000 		.4byte	.LVL259
 12485 114d 0400     		.2byte	0x4
ARM GAS  C:\Users\JACOB-~1\AppData\Local\Temp\ccGLbPGC.s 			page 251


 12486 114f 0A       		.byte	0xa
 12487 1150 4F01     		.2byte	0x14f
 12488 1152 9F       		.byte	0x9f
 12489 1153 FC070000 		.4byte	.LVL259
 12490 1157 2A080000 		.4byte	.LVL264
 12491 115b 0100     		.2byte	0x1
 12492 115d 58       		.byte	0x58
 12493 115e 30080000 		.4byte	.LVL265
 12494 1162 3A080000 		.4byte	.LVL266
 12495 1166 0100     		.2byte	0x1
 12496 1168 58       		.byte	0x58
 12497 1169 00000000 		.4byte	0
 12498 116d 00000000 		.4byte	0
 12499              	.LLST120:
 12500 1171 F6070000 		.4byte	.LVL258
 12501 1175 3A080000 		.4byte	.LVL266
 12502 1179 0200     		.2byte	0x2
 12503 117b 37       		.byte	0x37
 12504 117c 9F       		.byte	0x9f
 12505 117d 00000000 		.4byte	0
 12506 1181 00000000 		.4byte	0
 12507              	.LLST121:
 12508 1185 F6070000 		.4byte	.LVL258
 12509 1189 FC070000 		.4byte	.LVL259
 12510 118d 0200     		.2byte	0x2
 12511 118f 30       		.byte	0x30
 12512 1190 9F       		.byte	0x9f
 12513 1191 00000000 		.4byte	0
 12514 1195 00000000 		.4byte	0
 12515              	.LLST122:
 12516 1199 FC070000 		.4byte	.LVL259
 12517 119d 0C080000 		.4byte	.LVL260
 12518 11a1 0200     		.2byte	0x2
 12519 11a3 30       		.byte	0x30
 12520 11a4 9F       		.byte	0x9f
 12521 11a5 00000000 		.4byte	0
 12522 11a9 00000000 		.4byte	0
 12523              	.LLST123:
 12524 11ad 54080000 		.4byte	.LVL267
 12525 11b1 7E080000 		.4byte	.LVL271
 12526 11b5 0100     		.2byte	0x1
 12527 11b7 55       		.byte	0x55
 12528 11b8 86080000 		.4byte	.LVL272
 12529 11bc 98080000 		.4byte	.LVL275
 12530 11c0 0100     		.2byte	0x1
 12531 11c2 55       		.byte	0x55
 12532 11c3 00000000 		.4byte	0
 12533 11c7 00000000 		.4byte	0
 12534              	.LLST124:
 12535 11cb 54080000 		.4byte	.LVL267
 12536 11cf 98080000 		.4byte	.LVL275
 12537 11d3 0100     		.2byte	0x1
 12538 11d5 57       		.byte	0x57
 12539 11d6 00000000 		.4byte	0
 12540 11da 00000000 		.4byte	0
 12541              	.LLST125:
 12542 11de 3A080000 		.4byte	.LVL266
ARM GAS  C:\Users\JACOB-~1\AppData\Local\Temp\ccGLbPGC.s 			page 252


 12543 11e2 5A080000 		.4byte	.LVL268
 12544 11e6 0400     		.2byte	0x4
 12545 11e8 0A       		.byte	0xa
 12546 11e9 3501     		.2byte	0x135
 12547 11eb 9F       		.byte	0x9f
 12548 11ec 5A080000 		.4byte	.LVL268
 12549 11f0 88080000 		.4byte	.LVL273
 12550 11f4 0100     		.2byte	0x1
 12551 11f6 58       		.byte	0x58
 12552 11f7 8E080000 		.4byte	.LVL274
 12553 11fb 98080000 		.4byte	.LVL275
 12554 11ff 0100     		.2byte	0x1
 12555 1201 58       		.byte	0x58
 12556 1202 00000000 		.4byte	0
 12557 1206 00000000 		.4byte	0
 12558              	.LLST126:
 12559 120a 54080000 		.4byte	.LVL267
 12560 120e 98080000 		.4byte	.LVL275
 12561 1212 0200     		.2byte	0x2
 12562 1214 37       		.byte	0x37
 12563 1215 9F       		.byte	0x9f
 12564 1216 00000000 		.4byte	0
 12565 121a 00000000 		.4byte	0
 12566              	.LLST127:
 12567 121e 54080000 		.4byte	.LVL267
 12568 1222 5A080000 		.4byte	.LVL268
 12569 1226 0200     		.2byte	0x2
 12570 1228 30       		.byte	0x30
 12571 1229 9F       		.byte	0x9f
 12572 122a 00000000 		.4byte	0
 12573 122e 00000000 		.4byte	0
 12574              	.LLST128:
 12575 1232 5A080000 		.4byte	.LVL268
 12576 1236 6A080000 		.4byte	.LVL269
 12577 123a 0200     		.2byte	0x2
 12578 123c 30       		.byte	0x30
 12579 123d 9F       		.byte	0x9f
 12580 123e 00000000 		.4byte	0
 12581 1242 00000000 		.4byte	0
 12582              	.LLST129:
 12583 1246 CA080000 		.4byte	.LVL282
 12584 124a F4080000 		.4byte	.LVL286
 12585 124e 0100     		.2byte	0x1
 12586 1250 55       		.byte	0x55
 12587 1251 FC080000 		.4byte	.LVL287
 12588 1255 0A090000 		.4byte	.LVL290
 12589 1259 0100     		.2byte	0x1
 12590 125b 55       		.byte	0x55
 12591 125c 00000000 		.4byte	0
 12592 1260 00000000 		.4byte	0
 12593              	.LLST130:
 12594 1264 CA080000 		.4byte	.LVL282
 12595 1268 0A090000 		.4byte	.LVL290
 12596 126c 0100     		.2byte	0x1
 12597 126e 57       		.byte	0x57
 12598 126f 00000000 		.4byte	0
 12599 1273 00000000 		.4byte	0
ARM GAS  C:\Users\JACOB-~1\AppData\Local\Temp\ccGLbPGC.s 			page 253


 12600              	.LLST131:
 12601 1277 A0080000 		.4byte	.LVL276
 12602 127b A8080000 		.4byte	.LVL278
 12603 127f 0100     		.2byte	0x1
 12604 1281 53       		.byte	0x53
 12605 1282 AC080000 		.4byte	.LVL279
 12606 1286 BA080000 		.4byte	.LVL280
 12607 128a 0100     		.2byte	0x1
 12608 128c 53       		.byte	0x53
 12609 128d BA080000 		.4byte	.LVL280
 12610 1291 C4080000 		.4byte	.LVL281
 12611 1295 0300     		.2byte	0x3
 12612 1297 73       		.byte	0x73
 12613 1298 7F       		.sleb128 -1
 12614 1299 9F       		.byte	0x9f
 12615 129a C4080000 		.4byte	.LVL281
 12616 129e FE080000 		.4byte	.LVL288
 12617 12a2 0100     		.2byte	0x1
 12618 12a4 58       		.byte	0x58
 12619 12a5 04090000 		.4byte	.LVL289
 12620 12a9 0A090000 		.4byte	.LVL290
 12621 12ad 0100     		.2byte	0x1
 12622 12af 58       		.byte	0x58
 12623 12b0 00000000 		.4byte	0
 12624 12b4 00000000 		.4byte	0
 12625              	.LLST132:
 12626 12b8 CA080000 		.4byte	.LVL282
 12627 12bc 0A090000 		.4byte	.LVL290
 12628 12c0 0200     		.2byte	0x2
 12629 12c2 37       		.byte	0x37
 12630 12c3 9F       		.byte	0x9f
 12631 12c4 00000000 		.4byte	0
 12632 12c8 00000000 		.4byte	0
 12633              	.LLST133:
 12634 12cc CA080000 		.4byte	.LVL282
 12635 12d0 CC080000 		.4byte	.LVL283
 12636 12d4 0200     		.2byte	0x2
 12637 12d6 30       		.byte	0x30
 12638 12d7 9F       		.byte	0x9f
 12639 12d8 00000000 		.4byte	0
 12640 12dc 00000000 		.4byte	0
 12641              	.LLST134:
 12642 12e0 CC080000 		.4byte	.LVL283
 12643 12e4 E0080000 		.4byte	.LVL284
 12644 12e8 0200     		.2byte	0x2
 12645 12ea 30       		.byte	0x30
 12646 12eb 9F       		.byte	0x9f
 12647 12ec 00000000 		.4byte	0
 12648 12f0 00000000 		.4byte	0
 12649              	.LLST135:
 12650 12f4 24090000 		.4byte	.LVL291
 12651 12f8 4E090000 		.4byte	.LVL295
 12652 12fc 0100     		.2byte	0x1
 12653 12fe 55       		.byte	0x55
 12654 12ff 56090000 		.4byte	.LVL296
 12655 1303 64090000 		.4byte	.LVL299
 12656 1307 0100     		.2byte	0x1
ARM GAS  C:\Users\JACOB-~1\AppData\Local\Temp\ccGLbPGC.s 			page 254


 12657 1309 55       		.byte	0x55
 12658 130a 00000000 		.4byte	0
 12659 130e 00000000 		.4byte	0
 12660              	.LLST136:
 12661 1312 24090000 		.4byte	.LVL291
 12662 1316 64090000 		.4byte	.LVL299
 12663 131a 0100     		.2byte	0x1
 12664 131c 57       		.byte	0x57
 12665 131d 00000000 		.4byte	0
 12666 1321 00000000 		.4byte	0
 12667              	.LLST137:
 12668 1325 0A090000 		.4byte	.LVL290
 12669 1329 26090000 		.4byte	.LVL292
 12670 132d 0400     		.2byte	0x4
 12671 132f 0A       		.byte	0xa
 12672 1330 9701     		.2byte	0x197
 12673 1332 9F       		.byte	0x9f
 12674 1333 26090000 		.4byte	.LVL292
 12675 1337 58090000 		.4byte	.LVL297
 12676 133b 0100     		.2byte	0x1
 12677 133d 58       		.byte	0x58
 12678 133e 5E090000 		.4byte	.LVL298
 12679 1342 64090000 		.4byte	.LVL299
 12680 1346 0100     		.2byte	0x1
 12681 1348 58       		.byte	0x58
 12682 1349 00000000 		.4byte	0
 12683 134d 00000000 		.4byte	0
 12684              	.LLST138:
 12685 1351 24090000 		.4byte	.LVL291
 12686 1355 64090000 		.4byte	.LVL299
 12687 1359 0200     		.2byte	0x2
 12688 135b 37       		.byte	0x37
 12689 135c 9F       		.byte	0x9f
 12690 135d 00000000 		.4byte	0
 12691 1361 00000000 		.4byte	0
 12692              	.LLST139:
 12693 1365 24090000 		.4byte	.LVL291
 12694 1369 26090000 		.4byte	.LVL292
 12695 136d 0200     		.2byte	0x2
 12696 136f 30       		.byte	0x30
 12697 1370 9F       		.byte	0x9f
 12698 1371 00000000 		.4byte	0
 12699 1375 00000000 		.4byte	0
 12700              	.LLST140:
 12701 1379 26090000 		.4byte	.LVL292
 12702 137d 3A090000 		.4byte	.LVL293
 12703 1381 0200     		.2byte	0x2
 12704 1383 30       		.byte	0x30
 12705 1384 9F       		.byte	0x9f
 12706 1385 00000000 		.4byte	0
 12707 1389 00000000 		.4byte	0
 12708              	.LLST141:
 12709 138d 7A090000 		.4byte	.LVL300
 12710 1391 A8090000 		.4byte	.LVL304
 12711 1395 0100     		.2byte	0x1
 12712 1397 55       		.byte	0x55
 12713 1398 B0090000 		.4byte	.LVL305
ARM GAS  C:\Users\JACOB-~1\AppData\Local\Temp\ccGLbPGC.s 			page 255


 12714 139c C2090000 		.4byte	.LVL308
 12715 13a0 0100     		.2byte	0x1
 12716 13a2 55       		.byte	0x55
 12717 13a3 00000000 		.4byte	0
 12718 13a7 00000000 		.4byte	0
 12719              	.LLST142:
 12720 13ab 7A090000 		.4byte	.LVL300
 12721 13af C2090000 		.4byte	.LVL308
 12722 13b3 0100     		.2byte	0x1
 12723 13b5 57       		.byte	0x57
 12724 13b6 00000000 		.4byte	0
 12725 13ba 00000000 		.4byte	0
 12726              	.LLST143:
 12727 13be 64090000 		.4byte	.LVL299
 12728 13c2 84090000 		.4byte	.LVL301
 12729 13c6 0200     		.2byte	0x2
 12730 13c8 32       		.byte	0x32
 12731 13c9 9F       		.byte	0x9f
 12732 13ca 84090000 		.4byte	.LVL301
 12733 13ce B2090000 		.4byte	.LVL306
 12734 13d2 0100     		.2byte	0x1
 12735 13d4 58       		.byte	0x58
 12736 13d5 B8090000 		.4byte	.LVL307
 12737 13d9 C2090000 		.4byte	.LVL308
 12738 13dd 0100     		.2byte	0x1
 12739 13df 58       		.byte	0x58
 12740 13e0 00000000 		.4byte	0
 12741 13e4 00000000 		.4byte	0
 12742              	.LLST144:
 12743 13e8 7A090000 		.4byte	.LVL300
 12744 13ec C2090000 		.4byte	.LVL308
 12745 13f0 0200     		.2byte	0x2
 12746 13f2 37       		.byte	0x37
 12747 13f3 9F       		.byte	0x9f
 12748 13f4 00000000 		.4byte	0
 12749 13f8 00000000 		.4byte	0
 12750              	.LLST145:
 12751 13fc 7A090000 		.4byte	.LVL300
 12752 1400 84090000 		.4byte	.LVL301
 12753 1404 0200     		.2byte	0x2
 12754 1406 30       		.byte	0x30
 12755 1407 9F       		.byte	0x9f
 12756 1408 00000000 		.4byte	0
 12757 140c 00000000 		.4byte	0
 12758              	.LLST146:
 12759 1410 84090000 		.4byte	.LVL301
 12760 1414 94090000 		.4byte	.LVL302
 12761 1418 0200     		.2byte	0x2
 12762 141a 30       		.byte	0x30
 12763 141b 9F       		.byte	0x9f
 12764 141c 00000000 		.4byte	0
 12765 1420 00000000 		.4byte	0
 12766              	.LLST147:
 12767 1424 F4090000 		.4byte	.LVL315
 12768 1428 1E0A0000 		.4byte	.LVL319
 12769 142c 0100     		.2byte	0x1
 12770 142e 55       		.byte	0x55
ARM GAS  C:\Users\JACOB-~1\AppData\Local\Temp\ccGLbPGC.s 			page 256


 12771 142f 260A0000 		.4byte	.LVL320
 12772 1433 340A0000 		.4byte	.LVL323
 12773 1437 0100     		.2byte	0x1
 12774 1439 55       		.byte	0x55
 12775 143a 00000000 		.4byte	0
 12776 143e 00000000 		.4byte	0
 12777              	.LLST148:
 12778 1442 F4090000 		.4byte	.LVL315
 12779 1446 340A0000 		.4byte	.LVL323
 12780 144a 0100     		.2byte	0x1
 12781 144c 57       		.byte	0x57
 12782 144d 00000000 		.4byte	0
 12783 1451 00000000 		.4byte	0
 12784              	.LLST149:
 12785 1455 CA090000 		.4byte	.LVL309
 12786 1459 D2090000 		.4byte	.LVL311
 12787 145d 0100     		.2byte	0x1
 12788 145f 53       		.byte	0x53
 12789 1460 D6090000 		.4byte	.LVL312
 12790 1464 E4090000 		.4byte	.LVL313
 12791 1468 0100     		.2byte	0x1
 12792 146a 53       		.byte	0x53
 12793 146b E4090000 		.4byte	.LVL313
 12794 146f EE090000 		.4byte	.LVL314
 12795 1473 0300     		.2byte	0x3
 12796 1475 73       		.byte	0x73
 12797 1476 7F       		.sleb128 -1
 12798 1477 9F       		.byte	0x9f
 12799 1478 EE090000 		.4byte	.LVL314
 12800 147c 280A0000 		.4byte	.LVL321
 12801 1480 0100     		.2byte	0x1
 12802 1482 58       		.byte	0x58
 12803 1483 2E0A0000 		.4byte	.LVL322
 12804 1487 340A0000 		.4byte	.LVL323
 12805 148b 0100     		.2byte	0x1
 12806 148d 58       		.byte	0x58
 12807 148e 00000000 		.4byte	0
 12808 1492 00000000 		.4byte	0
 12809              	.LLST150:
 12810 1496 F4090000 		.4byte	.LVL315
 12811 149a 340A0000 		.4byte	.LVL323
 12812 149e 0200     		.2byte	0x2
 12813 14a0 37       		.byte	0x37
 12814 14a1 9F       		.byte	0x9f
 12815 14a2 00000000 		.4byte	0
 12816 14a6 00000000 		.4byte	0
 12817              	.LLST151:
 12818 14aa F4090000 		.4byte	.LVL315
 12819 14ae F6090000 		.4byte	.LVL316
 12820 14b2 0200     		.2byte	0x2
 12821 14b4 30       		.byte	0x30
 12822 14b5 9F       		.byte	0x9f
 12823 14b6 00000000 		.4byte	0
 12824 14ba 00000000 		.4byte	0
 12825              	.LLST152:
 12826 14be F6090000 		.4byte	.LVL316
 12827 14c2 0A0A0000 		.4byte	.LVL317
ARM GAS  C:\Users\JACOB-~1\AppData\Local\Temp\ccGLbPGC.s 			page 257


 12828 14c6 0200     		.2byte	0x2
 12829 14c8 30       		.byte	0x30
 12830 14c9 9F       		.byte	0x9f
 12831 14ca 00000000 		.4byte	0
 12832 14ce 00000000 		.4byte	0
 12833              	.LLST153:
 12834 14d2 660A0000 		.4byte	.LVL330
 12835 14d6 900A0000 		.4byte	.LVL334
 12836 14da 0100     		.2byte	0x1
 12837 14dc 55       		.byte	0x55
 12838 14dd 980A0000 		.4byte	.LVL335
 12839 14e1 A60A0000 		.4byte	.LVL338
 12840 14e5 0100     		.2byte	0x1
 12841 14e7 55       		.byte	0x55
 12842 14e8 00000000 		.4byte	0
 12843 14ec 00000000 		.4byte	0
 12844              	.LLST154:
 12845 14f0 660A0000 		.4byte	.LVL330
 12846 14f4 A60A0000 		.4byte	.LVL338
 12847 14f8 0100     		.2byte	0x1
 12848 14fa 57       		.byte	0x57
 12849 14fb 00000000 		.4byte	0
 12850 14ff 00000000 		.4byte	0
 12851              	.LLST155:
 12852 1503 3C0A0000 		.4byte	.LVL324
 12853 1507 440A0000 		.4byte	.LVL326
 12854 150b 0100     		.2byte	0x1
 12855 150d 53       		.byte	0x53
 12856 150e 480A0000 		.4byte	.LVL327
 12857 1512 560A0000 		.4byte	.LVL328
 12858 1516 0100     		.2byte	0x1
 12859 1518 53       		.byte	0x53
 12860 1519 560A0000 		.4byte	.LVL328
 12861 151d 600A0000 		.4byte	.LVL329
 12862 1521 0300     		.2byte	0x3
 12863 1523 73       		.byte	0x73
 12864 1524 7F       		.sleb128 -1
 12865 1525 9F       		.byte	0x9f
 12866 1526 600A0000 		.4byte	.LVL329
 12867 152a 9A0A0000 		.4byte	.LVL336
 12868 152e 0100     		.2byte	0x1
 12869 1530 58       		.byte	0x58
 12870 1531 A00A0000 		.4byte	.LVL337
 12871 1535 A60A0000 		.4byte	.LVL338
 12872 1539 0100     		.2byte	0x1
 12873 153b 58       		.byte	0x58
 12874 153c 00000000 		.4byte	0
 12875 1540 00000000 		.4byte	0
 12876              	.LLST156:
 12877 1544 660A0000 		.4byte	.LVL330
 12878 1548 A60A0000 		.4byte	.LVL338
 12879 154c 0200     		.2byte	0x2
 12880 154e 37       		.byte	0x37
 12881 154f 9F       		.byte	0x9f
 12882 1550 00000000 		.4byte	0
 12883 1554 00000000 		.4byte	0
 12884              	.LLST157:
ARM GAS  C:\Users\JACOB-~1\AppData\Local\Temp\ccGLbPGC.s 			page 258


 12885 1558 660A0000 		.4byte	.LVL330
 12886 155c 680A0000 		.4byte	.LVL331
 12887 1560 0200     		.2byte	0x2
 12888 1562 30       		.byte	0x30
 12889 1563 9F       		.byte	0x9f
 12890 1564 00000000 		.4byte	0
 12891 1568 00000000 		.4byte	0
 12892              	.LLST158:
 12893 156c 680A0000 		.4byte	.LVL331
 12894 1570 7C0A0000 		.4byte	.LVL332
 12895 1574 0200     		.2byte	0x2
 12896 1576 30       		.byte	0x30
 12897 1577 9F       		.byte	0x9f
 12898 1578 00000000 		.4byte	0
 12899 157c 00000000 		.4byte	0
 12900              	.LLST159:
 12901 1580 BC0A0000 		.4byte	.LVL339
 12902 1584 EA0A0000 		.4byte	.LVL343
 12903 1588 0100     		.2byte	0x1
 12904 158a 55       		.byte	0x55
 12905 158b F20A0000 		.4byte	.LVL344
 12906 158f 040B0000 		.4byte	.LVL347
 12907 1593 0100     		.2byte	0x1
 12908 1595 55       		.byte	0x55
 12909 1596 00000000 		.4byte	0
 12910 159a 00000000 		.4byte	0
 12911              	.LLST160:
 12912 159e BC0A0000 		.4byte	.LVL339
 12913 15a2 040B0000 		.4byte	.LVL347
 12914 15a6 0100     		.2byte	0x1
 12915 15a8 57       		.byte	0x57
 12916 15a9 00000000 		.4byte	0
 12917 15ad 00000000 		.4byte	0
 12918              	.LLST161:
 12919 15b1 A60A0000 		.4byte	.LVL338
 12920 15b5 C60A0000 		.4byte	.LVL340
 12921 15b9 0300     		.2byte	0x3
 12922 15bb 08       		.byte	0x8
 12923 15bc 31       		.byte	0x31
 12924 15bd 9F       		.byte	0x9f
 12925 15be C60A0000 		.4byte	.LVL340
 12926 15c2 F40A0000 		.4byte	.LVL345
 12927 15c6 0100     		.2byte	0x1
 12928 15c8 58       		.byte	0x58
 12929 15c9 FA0A0000 		.4byte	.LVL346
 12930 15cd 040B0000 		.4byte	.LVL347
 12931 15d1 0100     		.2byte	0x1
 12932 15d3 58       		.byte	0x58
 12933 15d4 00000000 		.4byte	0
 12934 15d8 00000000 		.4byte	0
 12935              	.LLST162:
 12936 15dc BC0A0000 		.4byte	.LVL339
 12937 15e0 040B0000 		.4byte	.LVL347
 12938 15e4 0200     		.2byte	0x2
 12939 15e6 37       		.byte	0x37
 12940 15e7 9F       		.byte	0x9f
 12941 15e8 00000000 		.4byte	0
ARM GAS  C:\Users\JACOB-~1\AppData\Local\Temp\ccGLbPGC.s 			page 259


 12942 15ec 00000000 		.4byte	0
 12943              	.LLST163:
 12944 15f0 BC0A0000 		.4byte	.LVL339
 12945 15f4 C60A0000 		.4byte	.LVL340
 12946 15f8 0200     		.2byte	0x2
 12947 15fa 30       		.byte	0x30
 12948 15fb 9F       		.byte	0x9f
 12949 15fc 00000000 		.4byte	0
 12950 1600 00000000 		.4byte	0
 12951              	.LLST164:
 12952 1604 C60A0000 		.4byte	.LVL340
 12953 1608 D60A0000 		.4byte	.LVL341
 12954 160c 0200     		.2byte	0x2
 12955 160e 30       		.byte	0x30
 12956 160f 9F       		.byte	0x9f
 12957 1610 00000000 		.4byte	0
 12958 1614 00000000 		.4byte	0
 12959              	.LLST165:
 12960 1618 1A0B0000 		.4byte	.LVL348
 12961 161c 480B0000 		.4byte	.LVL352
 12962 1620 0100     		.2byte	0x1
 12963 1622 55       		.byte	0x55
 12964 1623 500B0000 		.4byte	.LVL353
 12965 1627 620B0000 		.4byte	.LVL356
 12966 162b 0100     		.2byte	0x1
 12967 162d 55       		.byte	0x55
 12968 162e 00000000 		.4byte	0
 12969 1632 00000000 		.4byte	0
 12970              	.LLST166:
 12971 1636 1A0B0000 		.4byte	.LVL348
 12972 163a 620B0000 		.4byte	.LVL356
 12973 163e 0100     		.2byte	0x1
 12974 1640 57       		.byte	0x57
 12975 1641 00000000 		.4byte	0
 12976 1645 00000000 		.4byte	0
 12977              	.LLST167:
 12978 1649 040B0000 		.4byte	.LVL347
 12979 164d 240B0000 		.4byte	.LVL349
 12980 1651 0300     		.2byte	0x3
 12981 1653 08       		.byte	0x8
 12982 1654 49       		.byte	0x49
 12983 1655 9F       		.byte	0x9f
 12984 1656 240B0000 		.4byte	.LVL349
 12985 165a 520B0000 		.4byte	.LVL354
 12986 165e 0100     		.2byte	0x1
 12987 1660 58       		.byte	0x58
 12988 1661 580B0000 		.4byte	.LVL355
 12989 1665 620B0000 		.4byte	.LVL356
 12990 1669 0100     		.2byte	0x1
 12991 166b 58       		.byte	0x58
 12992 166c 00000000 		.4byte	0
 12993 1670 00000000 		.4byte	0
 12994              	.LLST168:
 12995 1674 1A0B0000 		.4byte	.LVL348
 12996 1678 620B0000 		.4byte	.LVL356
 12997 167c 0200     		.2byte	0x2
 12998 167e 37       		.byte	0x37
ARM GAS  C:\Users\JACOB-~1\AppData\Local\Temp\ccGLbPGC.s 			page 260


 12999 167f 9F       		.byte	0x9f
 13000 1680 00000000 		.4byte	0
 13001 1684 00000000 		.4byte	0
 13002              	.LLST169:
 13003 1688 1A0B0000 		.4byte	.LVL348
 13004 168c 240B0000 		.4byte	.LVL349
 13005 1690 0200     		.2byte	0x2
 13006 1692 30       		.byte	0x30
 13007 1693 9F       		.byte	0x9f
 13008 1694 00000000 		.4byte	0
 13009 1698 00000000 		.4byte	0
 13010              	.LLST170:
 13011 169c 240B0000 		.4byte	.LVL349
 13012 16a0 340B0000 		.4byte	.LVL350
 13013 16a4 0200     		.2byte	0x2
 13014 16a6 30       		.byte	0x30
 13015 16a7 9F       		.byte	0x9f
 13016 16a8 00000000 		.4byte	0
 13017 16ac 00000000 		.4byte	0
 13018              	.LLST171:
 13019 16b0 780B0000 		.4byte	.LVL357
 13020 16b4 A60B0000 		.4byte	.LVL361
 13021 16b8 0100     		.2byte	0x1
 13022 16ba 55       		.byte	0x55
 13023 16bb AE0B0000 		.4byte	.LVL362
 13024 16bf C00B0000 		.4byte	.LVL365
 13025 16c3 0100     		.2byte	0x1
 13026 16c5 55       		.byte	0x55
 13027 16c6 00000000 		.4byte	0
 13028 16ca 00000000 		.4byte	0
 13029              	.LLST172:
 13030 16ce 780B0000 		.4byte	.LVL357
 13031 16d2 C00B0000 		.4byte	.LVL365
 13032 16d6 0100     		.2byte	0x1
 13033 16d8 57       		.byte	0x57
 13034 16d9 00000000 		.4byte	0
 13035 16dd 00000000 		.4byte	0
 13036              	.LLST173:
 13037 16e1 620B0000 		.4byte	.LVL356
 13038 16e5 820B0000 		.4byte	.LVL358
 13039 16e9 0200     		.2byte	0x2
 13040 16eb 4D       		.byte	0x4d
 13041 16ec 9F       		.byte	0x9f
 13042 16ed 820B0000 		.4byte	.LVL358
 13043 16f1 B00B0000 		.4byte	.LVL363
 13044 16f5 0100     		.2byte	0x1
 13045 16f7 58       		.byte	0x58
 13046 16f8 B60B0000 		.4byte	.LVL364
 13047 16fc C00B0000 		.4byte	.LVL365
 13048 1700 0100     		.2byte	0x1
 13049 1702 58       		.byte	0x58
 13050 1703 00000000 		.4byte	0
 13051 1707 00000000 		.4byte	0
 13052              	.LLST174:
 13053 170b 780B0000 		.4byte	.LVL357
 13054 170f C00B0000 		.4byte	.LVL365
 13055 1713 0200     		.2byte	0x2
ARM GAS  C:\Users\JACOB-~1\AppData\Local\Temp\ccGLbPGC.s 			page 261


 13056 1715 37       		.byte	0x37
 13057 1716 9F       		.byte	0x9f
 13058 1717 00000000 		.4byte	0
 13059 171b 00000000 		.4byte	0
 13060              	.LLST175:
 13061 171f 780B0000 		.4byte	.LVL357
 13062 1723 820B0000 		.4byte	.LVL358
 13063 1727 0200     		.2byte	0x2
 13064 1729 30       		.byte	0x30
 13065 172a 9F       		.byte	0x9f
 13066 172b 00000000 		.4byte	0
 13067 172f 00000000 		.4byte	0
 13068              	.LLST176:
 13069 1733 820B0000 		.4byte	.LVL358
 13070 1737 920B0000 		.4byte	.LVL359
 13071 173b 0200     		.2byte	0x2
 13072 173d 30       		.byte	0x30
 13073 173e 9F       		.byte	0x9f
 13074 173f 00000000 		.4byte	0
 13075 1743 00000000 		.4byte	0
 13076              	.LLST177:
 13077 1747 D60B0000 		.4byte	.LVL366
 13078 174b 040C0000 		.4byte	.LVL370
 13079 174f 0100     		.2byte	0x1
 13080 1751 55       		.byte	0x55
 13081 1752 0C0C0000 		.4byte	.LVL371
 13082 1756 1E0C0000 		.4byte	.LVL374
 13083 175a 0100     		.2byte	0x1
 13084 175c 55       		.byte	0x55
 13085 175d 00000000 		.4byte	0
 13086 1761 00000000 		.4byte	0
 13087              	.LLST178:
 13088 1765 D60B0000 		.4byte	.LVL366
 13089 1769 1E0C0000 		.4byte	.LVL374
 13090 176d 0100     		.2byte	0x1
 13091 176f 57       		.byte	0x57
 13092 1770 00000000 		.4byte	0
 13093 1774 00000000 		.4byte	0
 13094              	.LLST179:
 13095 1778 C00B0000 		.4byte	.LVL365
 13096 177c E00B0000 		.4byte	.LVL367
 13097 1780 0300     		.2byte	0x3
 13098 1782 08       		.byte	0x8
 13099 1783 EA       		.byte	0xea
 13100 1784 9F       		.byte	0x9f
 13101 1785 E00B0000 		.4byte	.LVL367
 13102 1789 0E0C0000 		.4byte	.LVL372
 13103 178d 0100     		.2byte	0x1
 13104 178f 58       		.byte	0x58
 13105 1790 140C0000 		.4byte	.LVL373
 13106 1794 1E0C0000 		.4byte	.LVL374
 13107 1798 0100     		.2byte	0x1
 13108 179a 58       		.byte	0x58
 13109 179b 00000000 		.4byte	0
 13110 179f 00000000 		.4byte	0
 13111              	.LLST180:
 13112 17a3 D60B0000 		.4byte	.LVL366
ARM GAS  C:\Users\JACOB-~1\AppData\Local\Temp\ccGLbPGC.s 			page 262


 13113 17a7 1E0C0000 		.4byte	.LVL374
 13114 17ab 0200     		.2byte	0x2
 13115 17ad 37       		.byte	0x37
 13116 17ae 9F       		.byte	0x9f
 13117 17af 00000000 		.4byte	0
 13118 17b3 00000000 		.4byte	0
 13119              	.LLST181:
 13120 17b7 D60B0000 		.4byte	.LVL366
 13121 17bb E00B0000 		.4byte	.LVL367
 13122 17bf 0200     		.2byte	0x2
 13123 17c1 30       		.byte	0x30
 13124 17c2 9F       		.byte	0x9f
 13125 17c3 00000000 		.4byte	0
 13126 17c7 00000000 		.4byte	0
 13127              	.LLST182:
 13128 17cb E00B0000 		.4byte	.LVL367
 13129 17cf F00B0000 		.4byte	.LVL368
 13130 17d3 0200     		.2byte	0x2
 13131 17d5 30       		.byte	0x30
 13132 17d6 9F       		.byte	0x9f
 13133 17d7 00000000 		.4byte	0
 13134 17db 00000000 		.4byte	0
 13135              	.LLST183:
 13136 17df 340C0000 		.4byte	.LVL375
 13137 17e3 620C0000 		.4byte	.LVL379
 13138 17e7 0100     		.2byte	0x1
 13139 17e9 55       		.byte	0x55
 13140 17ea 6A0C0000 		.4byte	.LVL380
 13141 17ee 800C0000 		.4byte	.LVL383
 13142 17f2 0100     		.2byte	0x1
 13143 17f4 55       		.byte	0x55
 13144 17f5 00000000 		.4byte	0
 13145 17f9 00000000 		.4byte	0
 13146              	.LLST184:
 13147 17fd 340C0000 		.4byte	.LVL375
 13148 1801 800C0000 		.4byte	.LVL383
 13149 1805 0100     		.2byte	0x1
 13150 1807 57       		.byte	0x57
 13151 1808 00000000 		.4byte	0
 13152 180c 00000000 		.4byte	0
 13153              	.LLST185:
 13154 1810 1E0C0000 		.4byte	.LVL374
 13155 1814 3E0C0000 		.4byte	.LVL376
 13156 1818 0300     		.2byte	0x3
 13157 181a 08       		.byte	0x8
 13158 181b D3       		.byte	0xd3
 13159 181c 9F       		.byte	0x9f
 13160 181d 3E0C0000 		.4byte	.LVL376
 13161 1821 6C0C0000 		.4byte	.LVL381
 13162 1825 0100     		.2byte	0x1
 13163 1827 58       		.byte	0x58
 13164 1828 720C0000 		.4byte	.LVL382
 13165 182c 800C0000 		.4byte	.LVL383
 13166 1830 0100     		.2byte	0x1
 13167 1832 58       		.byte	0x58
 13168 1833 00000000 		.4byte	0
 13169 1837 00000000 		.4byte	0
ARM GAS  C:\Users\JACOB-~1\AppData\Local\Temp\ccGLbPGC.s 			page 263


 13170              	.LLST186:
 13171 183b 340C0000 		.4byte	.LVL375
 13172 183f 800C0000 		.4byte	.LVL383
 13173 1843 0200     		.2byte	0x2
 13174 1845 37       		.byte	0x37
 13175 1846 9F       		.byte	0x9f
 13176 1847 00000000 		.4byte	0
 13177 184b 00000000 		.4byte	0
 13178              	.LLST187:
 13179 184f 340C0000 		.4byte	.LVL375
 13180 1853 3E0C0000 		.4byte	.LVL376
 13181 1857 0200     		.2byte	0x2
 13182 1859 30       		.byte	0x30
 13183 185a 9F       		.byte	0x9f
 13184 185b 00000000 		.4byte	0
 13185 185f 00000000 		.4byte	0
 13186              	.LLST188:
 13187 1863 3E0C0000 		.4byte	.LVL376
 13188 1867 4E0C0000 		.4byte	.LVL377
 13189 186b 0200     		.2byte	0x2
 13190 186d 30       		.byte	0x30
 13191 186e 9F       		.byte	0x9f
 13192 186f 00000000 		.4byte	0
 13193 1873 00000000 		.4byte	0
 13194              	.LLST189:
 13195 1877 960C0000 		.4byte	.LVL384
 13196 187b C40C0000 		.4byte	.LVL388
 13197 187f 0100     		.2byte	0x1
 13198 1881 55       		.byte	0x55
 13199 1882 CC0C0000 		.4byte	.LVL389
 13200 1886 DE0C0000 		.4byte	.LVL392
 13201 188a 0100     		.2byte	0x1
 13202 188c 55       		.byte	0x55
 13203 188d 00000000 		.4byte	0
 13204 1891 00000000 		.4byte	0
 13205              	.LLST190:
 13206 1895 960C0000 		.4byte	.LVL384
 13207 1899 DE0C0000 		.4byte	.LVL392
 13208 189d 0100     		.2byte	0x1
 13209 189f 57       		.byte	0x57
 13210 18a0 00000000 		.4byte	0
 13211 18a4 00000000 		.4byte	0
 13212              	.LLST191:
 13213 18a8 800C0000 		.4byte	.LVL383
 13214 18ac A00C0000 		.4byte	.LVL385
 13215 18b0 0400     		.2byte	0x4
 13216 18b2 0A       		.byte	0xa
 13217 18b3 0401     		.2byte	0x104
 13218 18b5 9F       		.byte	0x9f
 13219 18b6 A00C0000 		.4byte	.LVL385
 13220 18ba CE0C0000 		.4byte	.LVL390
 13221 18be 0100     		.2byte	0x1
 13222 18c0 58       		.byte	0x58
 13223 18c1 D40C0000 		.4byte	.LVL391
 13224 18c5 DE0C0000 		.4byte	.LVL392
 13225 18c9 0100     		.2byte	0x1
 13226 18cb 58       		.byte	0x58
ARM GAS  C:\Users\JACOB-~1\AppData\Local\Temp\ccGLbPGC.s 			page 264


 13227 18cc 00000000 		.4byte	0
 13228 18d0 00000000 		.4byte	0
 13229              	.LLST192:
 13230 18d4 960C0000 		.4byte	.LVL384
 13231 18d8 DE0C0000 		.4byte	.LVL392
 13232 18dc 0200     		.2byte	0x2
 13233 18de 37       		.byte	0x37
 13234 18df 9F       		.byte	0x9f
 13235 18e0 00000000 		.4byte	0
 13236 18e4 00000000 		.4byte	0
 13237              	.LLST193:
 13238 18e8 960C0000 		.4byte	.LVL384
 13239 18ec A00C0000 		.4byte	.LVL385
 13240 18f0 0200     		.2byte	0x2
 13241 18f2 30       		.byte	0x30
 13242 18f3 9F       		.byte	0x9f
 13243 18f4 00000000 		.4byte	0
 13244 18f8 00000000 		.4byte	0
 13245              	.LLST194:
 13246 18fc A00C0000 		.4byte	.LVL385
 13247 1900 B00C0000 		.4byte	.LVL386
 13248 1904 0200     		.2byte	0x2
 13249 1906 30       		.byte	0x30
 13250 1907 9F       		.byte	0x9f
 13251 1908 00000000 		.4byte	0
 13252 190c 00000000 		.4byte	0
 13253              	.LLST195:
 13254 1910 F40C0000 		.4byte	.LVL393
 13255 1914 220D0000 		.4byte	.LVL397
 13256 1918 0100     		.2byte	0x1
 13257 191a 55       		.byte	0x55
 13258 191b 2A0D0000 		.4byte	.LVL398
 13259 191f 3C0D0000 		.4byte	.LVL401
 13260 1923 0100     		.2byte	0x1
 13261 1925 55       		.byte	0x55
 13262 1926 00000000 		.4byte	0
 13263 192a 00000000 		.4byte	0
 13264              	.LLST196:
 13265 192e F40C0000 		.4byte	.LVL393
 13266 1932 3C0D0000 		.4byte	.LVL401
 13267 1936 0100     		.2byte	0x1
 13268 1938 57       		.byte	0x57
 13269 1939 00000000 		.4byte	0
 13270 193d 00000000 		.4byte	0
 13271              	.LLST197:
 13272 1941 DE0C0000 		.4byte	.LVL392
 13273 1945 FE0C0000 		.4byte	.LVL394
 13274 1949 0300     		.2byte	0x3
 13275 194b 08       		.byte	0x8
 13276 194c 8F       		.byte	0x8f
 13277 194d 9F       		.byte	0x9f
 13278 194e FE0C0000 		.4byte	.LVL394
 13279 1952 2C0D0000 		.4byte	.LVL399
 13280 1956 0100     		.2byte	0x1
 13281 1958 58       		.byte	0x58
 13282 1959 320D0000 		.4byte	.LVL400
 13283 195d 3C0D0000 		.4byte	.LVL401
ARM GAS  C:\Users\JACOB-~1\AppData\Local\Temp\ccGLbPGC.s 			page 265


 13284 1961 0100     		.2byte	0x1
 13285 1963 58       		.byte	0x58
 13286 1964 00000000 		.4byte	0
 13287 1968 00000000 		.4byte	0
 13288              	.LLST198:
 13289 196c F40C0000 		.4byte	.LVL393
 13290 1970 3C0D0000 		.4byte	.LVL401
 13291 1974 0200     		.2byte	0x2
 13292 1976 37       		.byte	0x37
 13293 1977 9F       		.byte	0x9f
 13294 1978 00000000 		.4byte	0
 13295 197c 00000000 		.4byte	0
 13296              	.LLST199:
 13297 1980 F40C0000 		.4byte	.LVL393
 13298 1984 FE0C0000 		.4byte	.LVL394
 13299 1988 0200     		.2byte	0x2
 13300 198a 30       		.byte	0x30
 13301 198b 9F       		.byte	0x9f
 13302 198c 00000000 		.4byte	0
 13303 1990 00000000 		.4byte	0
 13304              	.LLST200:
 13305 1994 FE0C0000 		.4byte	.LVL394
 13306 1998 0E0D0000 		.4byte	.LVL395
 13307 199c 0200     		.2byte	0x2
 13308 199e 30       		.byte	0x30
 13309 199f 9F       		.byte	0x9f
 13310 19a0 00000000 		.4byte	0
 13311 19a4 00000000 		.4byte	0
 13312              	.LLST201:
 13313 19a8 520D0000 		.4byte	.LVL402
 13314 19ac 800D0000 		.4byte	.LVL406
 13315 19b0 0100     		.2byte	0x1
 13316 19b2 55       		.byte	0x55
 13317 19b3 880D0000 		.4byte	.LVL407
 13318 19b7 9A0D0000 		.4byte	.LVL410
 13319 19bb 0100     		.2byte	0x1
 13320 19bd 55       		.byte	0x55
 13321 19be 00000000 		.4byte	0
 13322 19c2 00000000 		.4byte	0
 13323              	.LLST202:
 13324 19c6 520D0000 		.4byte	.LVL402
 13325 19ca 9A0D0000 		.4byte	.LVL410
 13326 19ce 0100     		.2byte	0x1
 13327 19d0 57       		.byte	0x57
 13328 19d1 00000000 		.4byte	0
 13329 19d5 00000000 		.4byte	0
 13330              	.LLST203:
 13331 19d9 3C0D0000 		.4byte	.LVL401
 13332 19dd 5C0D0000 		.4byte	.LVL403
 13333 19e1 0300     		.2byte	0x3
 13334 19e3 08       		.byte	0x8
 13335 19e4 76       		.byte	0x76
 13336 19e5 9F       		.byte	0x9f
 13337 19e6 5C0D0000 		.4byte	.LVL403
 13338 19ea 8A0D0000 		.4byte	.LVL408
 13339 19ee 0100     		.2byte	0x1
 13340 19f0 58       		.byte	0x58
ARM GAS  C:\Users\JACOB-~1\AppData\Local\Temp\ccGLbPGC.s 			page 266


 13341 19f1 900D0000 		.4byte	.LVL409
 13342 19f5 9A0D0000 		.4byte	.LVL410
 13343 19f9 0100     		.2byte	0x1
 13344 19fb 58       		.byte	0x58
 13345 19fc 00000000 		.4byte	0
 13346 1a00 00000000 		.4byte	0
 13347              	.LLST204:
 13348 1a04 520D0000 		.4byte	.LVL402
 13349 1a08 9A0D0000 		.4byte	.LVL410
 13350 1a0c 0200     		.2byte	0x2
 13351 1a0e 37       		.byte	0x37
 13352 1a0f 9F       		.byte	0x9f
 13353 1a10 00000000 		.4byte	0
 13354 1a14 00000000 		.4byte	0
 13355              	.LLST205:
 13356 1a18 520D0000 		.4byte	.LVL402
 13357 1a1c 5C0D0000 		.4byte	.LVL403
 13358 1a20 0200     		.2byte	0x2
 13359 1a22 30       		.byte	0x30
 13360 1a23 9F       		.byte	0x9f
 13361 1a24 00000000 		.4byte	0
 13362 1a28 00000000 		.4byte	0
 13363              	.LLST206:
 13364 1a2c 5C0D0000 		.4byte	.LVL403
 13365 1a30 6C0D0000 		.4byte	.LVL404
 13366 1a34 0200     		.2byte	0x2
 13367 1a36 30       		.byte	0x30
 13368 1a37 9F       		.byte	0x9f
 13369 1a38 00000000 		.4byte	0
 13370 1a3c 00000000 		.4byte	0
 13371              	.LLST207:
 13372 1a40 B00D0000 		.4byte	.LVL411
 13373 1a44 DE0D0000 		.4byte	.LVL415
 13374 1a48 0100     		.2byte	0x1
 13375 1a4a 55       		.byte	0x55
 13376 1a4b E60D0000 		.4byte	.LVL416
 13377 1a4f F80D0000 		.4byte	.LVL419
 13378 1a53 0100     		.2byte	0x1
 13379 1a55 55       		.byte	0x55
 13380 1a56 00000000 		.4byte	0
 13381 1a5a 00000000 		.4byte	0
 13382              	.LLST208:
 13383 1a5e B00D0000 		.4byte	.LVL411
 13384 1a62 F80D0000 		.4byte	.LVL419
 13385 1a66 0100     		.2byte	0x1
 13386 1a68 57       		.byte	0x57
 13387 1a69 00000000 		.4byte	0
 13388 1a6d 00000000 		.4byte	0
 13389              	.LLST209:
 13390 1a71 9A0D0000 		.4byte	.LVL410
 13391 1a75 BA0D0000 		.4byte	.LVL412
 13392 1a79 0300     		.2byte	0x3
 13393 1a7b 08       		.byte	0x8
 13394 1a7c A6       		.byte	0xa6
 13395 1a7d 9F       		.byte	0x9f
 13396 1a7e BA0D0000 		.4byte	.LVL412
 13397 1a82 E80D0000 		.4byte	.LVL417
ARM GAS  C:\Users\JACOB-~1\AppData\Local\Temp\ccGLbPGC.s 			page 267


 13398 1a86 0100     		.2byte	0x1
 13399 1a88 58       		.byte	0x58
 13400 1a89 EE0D0000 		.4byte	.LVL418
 13401 1a8d F80D0000 		.4byte	.LVL419
 13402 1a91 0100     		.2byte	0x1
 13403 1a93 58       		.byte	0x58
 13404 1a94 00000000 		.4byte	0
 13405 1a98 00000000 		.4byte	0
 13406              	.LLST210:
 13407 1a9c B00D0000 		.4byte	.LVL411
 13408 1aa0 F80D0000 		.4byte	.LVL419
 13409 1aa4 0200     		.2byte	0x2
 13410 1aa6 37       		.byte	0x37
 13411 1aa7 9F       		.byte	0x9f
 13412 1aa8 00000000 		.4byte	0
 13413 1aac 00000000 		.4byte	0
 13414              	.LLST211:
 13415 1ab0 B00D0000 		.4byte	.LVL411
 13416 1ab4 BA0D0000 		.4byte	.LVL412
 13417 1ab8 0200     		.2byte	0x2
 13418 1aba 30       		.byte	0x30
 13419 1abb 9F       		.byte	0x9f
 13420 1abc 00000000 		.4byte	0
 13421 1ac0 00000000 		.4byte	0
 13422              	.LLST212:
 13423 1ac4 BA0D0000 		.4byte	.LVL412
 13424 1ac8 CA0D0000 		.4byte	.LVL413
 13425 1acc 0200     		.2byte	0x2
 13426 1ace 30       		.byte	0x30
 13427 1acf 9F       		.byte	0x9f
 13428 1ad0 00000000 		.4byte	0
 13429 1ad4 00000000 		.4byte	0
 13430              	.LLST213:
 13431 1ad8 2A0E0000 		.4byte	.LVL426
 13432 1adc 540E0000 		.4byte	.LVL430
 13433 1ae0 0100     		.2byte	0x1
 13434 1ae2 55       		.byte	0x55
 13435 1ae3 5C0E0000 		.4byte	.LVL431
 13436 1ae7 6A0E0000 		.4byte	.LVL434
 13437 1aeb 0100     		.2byte	0x1
 13438 1aed 55       		.byte	0x55
 13439 1aee 00000000 		.4byte	0
 13440 1af2 00000000 		.4byte	0
 13441              	.LLST214:
 13442 1af6 2A0E0000 		.4byte	.LVL426
 13443 1afa 6A0E0000 		.4byte	.LVL434
 13444 1afe 0100     		.2byte	0x1
 13445 1b00 57       		.byte	0x57
 13446 1b01 00000000 		.4byte	0
 13447 1b05 00000000 		.4byte	0
 13448              	.LLST215:
 13449 1b09 000E0000 		.4byte	.LVL420
 13450 1b0d 080E0000 		.4byte	.LVL422
 13451 1b11 0100     		.2byte	0x1
 13452 1b13 53       		.byte	0x53
 13453 1b14 0C0E0000 		.4byte	.LVL423
 13454 1b18 1A0E0000 		.4byte	.LVL424
ARM GAS  C:\Users\JACOB-~1\AppData\Local\Temp\ccGLbPGC.s 			page 268


 13455 1b1c 0100     		.2byte	0x1
 13456 1b1e 53       		.byte	0x53
 13457 1b1f 1A0E0000 		.4byte	.LVL424
 13458 1b23 240E0000 		.4byte	.LVL425
 13459 1b27 0300     		.2byte	0x3
 13460 1b29 73       		.byte	0x73
 13461 1b2a 7F       		.sleb128 -1
 13462 1b2b 9F       		.byte	0x9f
 13463 1b2c 240E0000 		.4byte	.LVL425
 13464 1b30 5E0E0000 		.4byte	.LVL432
 13465 1b34 0100     		.2byte	0x1
 13466 1b36 58       		.byte	0x58
 13467 1b37 640E0000 		.4byte	.LVL433
 13468 1b3b 6A0E0000 		.4byte	.LVL434
 13469 1b3f 0100     		.2byte	0x1
 13470 1b41 58       		.byte	0x58
 13471 1b42 00000000 		.4byte	0
 13472 1b46 00000000 		.4byte	0
 13473              	.LLST216:
 13474 1b4a 2A0E0000 		.4byte	.LVL426
 13475 1b4e 6A0E0000 		.4byte	.LVL434
 13476 1b52 0200     		.2byte	0x2
 13477 1b54 37       		.byte	0x37
 13478 1b55 9F       		.byte	0x9f
 13479 1b56 00000000 		.4byte	0
 13480 1b5a 00000000 		.4byte	0
 13481              	.LLST217:
 13482 1b5e 2A0E0000 		.4byte	.LVL426
 13483 1b62 2C0E0000 		.4byte	.LVL427
 13484 1b66 0200     		.2byte	0x2
 13485 1b68 30       		.byte	0x30
 13486 1b69 9F       		.byte	0x9f
 13487 1b6a 00000000 		.4byte	0
 13488 1b6e 00000000 		.4byte	0
 13489              	.LLST218:
 13490 1b72 2C0E0000 		.4byte	.LVL427
 13491 1b76 400E0000 		.4byte	.LVL428
 13492 1b7a 0200     		.2byte	0x2
 13493 1b7c 30       		.byte	0x30
 13494 1b7d 9F       		.byte	0x9f
 13495 1b7e 00000000 		.4byte	0
 13496 1b82 00000000 		.4byte	0
 13497              	.LLST219:
 13498 1b86 9C0E0000 		.4byte	.LVL441
 13499 1b8a C60E0000 		.4byte	.LVL445
 13500 1b8e 0100     		.2byte	0x1
 13501 1b90 55       		.byte	0x55
 13502 1b91 CE0E0000 		.4byte	.LVL446
 13503 1b95 DC0E0000 		.4byte	.LVL449
 13504 1b99 0100     		.2byte	0x1
 13505 1b9b 55       		.byte	0x55
 13506 1b9c 00000000 		.4byte	0
 13507 1ba0 00000000 		.4byte	0
 13508              	.LLST220:
 13509 1ba4 9C0E0000 		.4byte	.LVL441
 13510 1ba8 DC0E0000 		.4byte	.LVL449
 13511 1bac 0100     		.2byte	0x1
ARM GAS  C:\Users\JACOB-~1\AppData\Local\Temp\ccGLbPGC.s 			page 269


 13512 1bae 57       		.byte	0x57
 13513 1baf 00000000 		.4byte	0
 13514 1bb3 00000000 		.4byte	0
 13515              	.LLST221:
 13516 1bb7 720E0000 		.4byte	.LVL435
 13517 1bbb 7A0E0000 		.4byte	.LVL437
 13518 1bbf 0100     		.2byte	0x1
 13519 1bc1 53       		.byte	0x53
 13520 1bc2 7E0E0000 		.4byte	.LVL438
 13521 1bc6 8C0E0000 		.4byte	.LVL439
 13522 1bca 0100     		.2byte	0x1
 13523 1bcc 53       		.byte	0x53
 13524 1bcd 8C0E0000 		.4byte	.LVL439
 13525 1bd1 960E0000 		.4byte	.LVL440
 13526 1bd5 0300     		.2byte	0x3
 13527 1bd7 73       		.byte	0x73
 13528 1bd8 7F       		.sleb128 -1
 13529 1bd9 9F       		.byte	0x9f
 13530 1bda 960E0000 		.4byte	.LVL440
 13531 1bde D00E0000 		.4byte	.LVL447
 13532 1be2 0100     		.2byte	0x1
 13533 1be4 58       		.byte	0x58
 13534 1be5 D60E0000 		.4byte	.LVL448
 13535 1be9 DC0E0000 		.4byte	.LVL449
 13536 1bed 0100     		.2byte	0x1
 13537 1bef 58       		.byte	0x58
 13538 1bf0 00000000 		.4byte	0
 13539 1bf4 00000000 		.4byte	0
 13540              	.LLST222:
 13541 1bf8 9C0E0000 		.4byte	.LVL441
 13542 1bfc DC0E0000 		.4byte	.LVL449
 13543 1c00 0200     		.2byte	0x2
 13544 1c02 37       		.byte	0x37
 13545 1c03 9F       		.byte	0x9f
 13546 1c04 00000000 		.4byte	0
 13547 1c08 00000000 		.4byte	0
 13548              	.LLST223:
 13549 1c0c 9C0E0000 		.4byte	.LVL441
 13550 1c10 9E0E0000 		.4byte	.LVL442
 13551 1c14 0200     		.2byte	0x2
 13552 1c16 30       		.byte	0x30
 13553 1c17 9F       		.byte	0x9f
 13554 1c18 00000000 		.4byte	0
 13555 1c1c 00000000 		.4byte	0
 13556              	.LLST224:
 13557 1c20 9E0E0000 		.4byte	.LVL442
 13558 1c24 B20E0000 		.4byte	.LVL443
 13559 1c28 0200     		.2byte	0x2
 13560 1c2a 30       		.byte	0x30
 13561 1c2b 9F       		.byte	0x9f
 13562 1c2c 00000000 		.4byte	0
 13563 1c30 00000000 		.4byte	0
 13564              	.LLST225:
 13565 1c34 0E0F0000 		.4byte	.LVL456
 13566 1c38 380F0000 		.4byte	.LVL460
 13567 1c3c 0100     		.2byte	0x1
 13568 1c3e 55       		.byte	0x55
ARM GAS  C:\Users\JACOB-~1\AppData\Local\Temp\ccGLbPGC.s 			page 270


 13569 1c3f 400F0000 		.4byte	.LVL461
 13570 1c43 4E0F0000 		.4byte	.LVL464
 13571 1c47 0100     		.2byte	0x1
 13572 1c49 55       		.byte	0x55
 13573 1c4a 00000000 		.4byte	0
 13574 1c4e 00000000 		.4byte	0
 13575              	.LLST226:
 13576 1c52 0E0F0000 		.4byte	.LVL456
 13577 1c56 4E0F0000 		.4byte	.LVL464
 13578 1c5a 0100     		.2byte	0x1
 13579 1c5c 57       		.byte	0x57
 13580 1c5d 00000000 		.4byte	0
 13581 1c61 00000000 		.4byte	0
 13582              	.LLST227:
 13583 1c65 E40E0000 		.4byte	.LVL450
 13584 1c69 EC0E0000 		.4byte	.LVL452
 13585 1c6d 0100     		.2byte	0x1
 13586 1c6f 53       		.byte	0x53
 13587 1c70 F00E0000 		.4byte	.LVL453
 13588 1c74 FE0E0000 		.4byte	.LVL454
 13589 1c78 0100     		.2byte	0x1
 13590 1c7a 53       		.byte	0x53
 13591 1c7b FE0E0000 		.4byte	.LVL454
 13592 1c7f 080F0000 		.4byte	.LVL455
 13593 1c83 0300     		.2byte	0x3
 13594 1c85 73       		.byte	0x73
 13595 1c86 7F       		.sleb128 -1
 13596 1c87 9F       		.byte	0x9f
 13597 1c88 080F0000 		.4byte	.LVL455
 13598 1c8c 420F0000 		.4byte	.LVL462
 13599 1c90 0100     		.2byte	0x1
 13600 1c92 58       		.byte	0x58
 13601 1c93 480F0000 		.4byte	.LVL463
 13602 1c97 4E0F0000 		.4byte	.LVL464
 13603 1c9b 0100     		.2byte	0x1
 13604 1c9d 58       		.byte	0x58
 13605 1c9e 00000000 		.4byte	0
 13606 1ca2 00000000 		.4byte	0
 13607              	.LLST228:
 13608 1ca6 0E0F0000 		.4byte	.LVL456
 13609 1caa 4E0F0000 		.4byte	.LVL464
 13610 1cae 0200     		.2byte	0x2
 13611 1cb0 37       		.byte	0x37
 13612 1cb1 9F       		.byte	0x9f
 13613 1cb2 00000000 		.4byte	0
 13614 1cb6 00000000 		.4byte	0
 13615              	.LLST229:
 13616 1cba 0E0F0000 		.4byte	.LVL456
 13617 1cbe 100F0000 		.4byte	.LVL457
 13618 1cc2 0200     		.2byte	0x2
 13619 1cc4 30       		.byte	0x30
 13620 1cc5 9F       		.byte	0x9f
 13621 1cc6 00000000 		.4byte	0
 13622 1cca 00000000 		.4byte	0
 13623              	.LLST230:
 13624 1cce 100F0000 		.4byte	.LVL457
 13625 1cd2 240F0000 		.4byte	.LVL458
ARM GAS  C:\Users\JACOB-~1\AppData\Local\Temp\ccGLbPGC.s 			page 271


 13626 1cd6 0200     		.2byte	0x2
 13627 1cd8 30       		.byte	0x30
 13628 1cd9 9F       		.byte	0x9f
 13629 1cda 00000000 		.4byte	0
 13630 1cde 00000000 		.4byte	0
 13631              	.LLST231:
 13632 1ce2 800F0000 		.4byte	.LVL471
 13633 1ce6 AA0F0000 		.4byte	.LVL475
 13634 1cea 0100     		.2byte	0x1
 13635 1cec 55       		.byte	0x55
 13636 1ced B20F0000 		.4byte	.LVL476
 13637 1cf1 C00F0000 		.4byte	.LVL479
 13638 1cf5 0100     		.2byte	0x1
 13639 1cf7 55       		.byte	0x55
 13640 1cf8 00000000 		.4byte	0
 13641 1cfc 00000000 		.4byte	0
 13642              	.LLST232:
 13643 1d00 800F0000 		.4byte	.LVL471
 13644 1d04 C00F0000 		.4byte	.LVL479
 13645 1d08 0100     		.2byte	0x1
 13646 1d0a 57       		.byte	0x57
 13647 1d0b 00000000 		.4byte	0
 13648 1d0f 00000000 		.4byte	0
 13649              	.LLST233:
 13650 1d13 560F0000 		.4byte	.LVL465
 13651 1d17 5E0F0000 		.4byte	.LVL467
 13652 1d1b 0100     		.2byte	0x1
 13653 1d1d 53       		.byte	0x53
 13654 1d1e 620F0000 		.4byte	.LVL468
 13655 1d22 700F0000 		.4byte	.LVL469
 13656 1d26 0100     		.2byte	0x1
 13657 1d28 53       		.byte	0x53
 13658 1d29 700F0000 		.4byte	.LVL469
 13659 1d2d 7A0F0000 		.4byte	.LVL470
 13660 1d31 0300     		.2byte	0x3
 13661 1d33 73       		.byte	0x73
 13662 1d34 7F       		.sleb128 -1
 13663 1d35 9F       		.byte	0x9f
 13664 1d36 7A0F0000 		.4byte	.LVL470
 13665 1d3a B40F0000 		.4byte	.LVL477
 13666 1d3e 0100     		.2byte	0x1
 13667 1d40 58       		.byte	0x58
 13668 1d41 BA0F0000 		.4byte	.LVL478
 13669 1d45 C00F0000 		.4byte	.LVL479
 13670 1d49 0100     		.2byte	0x1
 13671 1d4b 58       		.byte	0x58
 13672 1d4c 00000000 		.4byte	0
 13673 1d50 00000000 		.4byte	0
 13674              	.LLST234:
 13675 1d54 800F0000 		.4byte	.LVL471
 13676 1d58 C00F0000 		.4byte	.LVL479
 13677 1d5c 0200     		.2byte	0x2
 13678 1d5e 37       		.byte	0x37
 13679 1d5f 9F       		.byte	0x9f
 13680 1d60 00000000 		.4byte	0
 13681 1d64 00000000 		.4byte	0
 13682              	.LLST235:
ARM GAS  C:\Users\JACOB-~1\AppData\Local\Temp\ccGLbPGC.s 			page 272


 13683 1d68 800F0000 		.4byte	.LVL471
 13684 1d6c 820F0000 		.4byte	.LVL472
 13685 1d70 0200     		.2byte	0x2
 13686 1d72 30       		.byte	0x30
 13687 1d73 9F       		.byte	0x9f
 13688 1d74 00000000 		.4byte	0
 13689 1d78 00000000 		.4byte	0
 13690              	.LLST236:
 13691 1d7c 820F0000 		.4byte	.LVL472
 13692 1d80 960F0000 		.4byte	.LVL473
 13693 1d84 0200     		.2byte	0x2
 13694 1d86 30       		.byte	0x30
 13695 1d87 9F       		.byte	0x9f
 13696 1d88 00000000 		.4byte	0
 13697 1d8c 00000000 		.4byte	0
 13698              	.LLST237:
 13699 1d90 F20F0000 		.4byte	.LVL486
 13700 1d94 1C100000 		.4byte	.LVL490
 13701 1d98 0100     		.2byte	0x1
 13702 1d9a 55       		.byte	0x55
 13703 1d9b 24100000 		.4byte	.LVL491
 13704 1d9f 32100000 		.4byte	.LFE65
 13705 1da3 0100     		.2byte	0x1
 13706 1da5 55       		.byte	0x55
 13707 1da6 00000000 		.4byte	0
 13708 1daa 00000000 		.4byte	0
 13709              	.LLST238:
 13710 1dae C80F0000 		.4byte	.LVL480
 13711 1db2 D00F0000 		.4byte	.LVL482
 13712 1db6 0100     		.2byte	0x1
 13713 1db8 53       		.byte	0x53
 13714 1db9 D40F0000 		.4byte	.LVL483
 13715 1dbd E20F0000 		.4byte	.LVL484
 13716 1dc1 0100     		.2byte	0x1
 13717 1dc3 53       		.byte	0x53
 13718 1dc4 E20F0000 		.4byte	.LVL484
 13719 1dc8 EC0F0000 		.4byte	.LVL485
 13720 1dcc 0300     		.2byte	0x3
 13721 1dce 73       		.byte	0x73
 13722 1dcf 7F       		.sleb128 -1
 13723 1dd0 9F       		.byte	0x9f
 13724 1dd1 EC0F0000 		.4byte	.LVL485
 13725 1dd5 26100000 		.4byte	.LVL492
 13726 1dd9 0100     		.2byte	0x1
 13727 1ddb 58       		.byte	0x58
 13728 1ddc 2C100000 		.4byte	.LVL493
 13729 1de0 32100000 		.4byte	.LFE65
 13730 1de4 0100     		.2byte	0x1
 13731 1de6 58       		.byte	0x58
 13732 1de7 00000000 		.4byte	0
 13733 1deb 00000000 		.4byte	0
 13734              	.LLST239:
 13735 1def F20F0000 		.4byte	.LVL486
 13736 1df3 F40F0000 		.4byte	.LVL487
 13737 1df7 0200     		.2byte	0x2
 13738 1df9 30       		.byte	0x30
 13739 1dfa 9F       		.byte	0x9f
ARM GAS  C:\Users\JACOB-~1\AppData\Local\Temp\ccGLbPGC.s 			page 273


 13740 1dfb 00000000 		.4byte	0
 13741 1dff 00000000 		.4byte	0
 13742              	.LLST240:
 13743 1e03 F40F0000 		.4byte	.LVL487
 13744 1e07 08100000 		.4byte	.LVL488
 13745 1e0b 0200     		.2byte	0x2
 13746 1e0d 30       		.byte	0x30
 13747 1e0e 9F       		.byte	0x9f
 13748 1e0f 00000000 		.4byte	0
 13749 1e13 00000000 		.4byte	0
 13750              	.LLST241:
 13751 1e17 00000000 		.4byte	.LVL494
 13752 1e1b 0E000000 		.4byte	.LVL495
 13753 1e1f 0100     		.2byte	0x1
 13754 1e21 50       		.byte	0x50
 13755 1e22 0E000000 		.4byte	.LVL495
 13756 1e26 3C040000 		.4byte	.LFE66
 13757 1e2a 0400     		.2byte	0x4
 13758 1e2c F3       		.byte	0xf3
 13759 1e2d 01       		.uleb128 0x1
 13760 1e2e 50       		.byte	0x50
 13761 1e2f 9F       		.byte	0x9f
 13762 1e30 00000000 		.4byte	0
 13763 1e34 00000000 		.4byte	0
 13764              	.LLST242:
 13765 1e38 00000000 		.4byte	.LVL494
 13766 1e3c 19000000 		.4byte	.LVL497-1
 13767 1e40 0100     		.2byte	0x1
 13768 1e42 51       		.byte	0x51
 13769 1e43 19000000 		.4byte	.LVL497-1
 13770 1e47 3C040000 		.4byte	.LFE66
 13771 1e4b 0400     		.2byte	0x4
 13772 1e4d F3       		.byte	0xf3
 13773 1e4e 01       		.uleb128 0x1
 13774 1e4f 51       		.byte	0x51
 13775 1e50 9F       		.byte	0x9f
 13776 1e51 00000000 		.4byte	0
 13777 1e55 00000000 		.4byte	0
 13778              	.LLST243:
 13779 1e59 00000000 		.4byte	.LVL494
 13780 1e5d 16000000 		.4byte	.LVL496
 13781 1e61 0100     		.2byte	0x1
 13782 1e63 52       		.byte	0x52
 13783 1e64 16000000 		.4byte	.LVL496
 13784 1e68 3C040000 		.4byte	.LFE66
 13785 1e6c 0400     		.2byte	0x4
 13786 1e6e F3       		.byte	0xf3
 13787 1e6f 01       		.uleb128 0x1
 13788 1e70 52       		.byte	0x52
 13789 1e71 9F       		.byte	0x9f
 13790 1e72 00000000 		.4byte	0
 13791 1e76 00000000 		.4byte	0
 13792              	.LLST244:
 13793 1e7a 00000000 		.4byte	.LVL494
 13794 1e7e 22000000 		.4byte	.LVL498
 13795 1e82 0200     		.2byte	0x2
 13796 1e84 91       		.byte	0x91
ARM GAS  C:\Users\JACOB-~1\AppData\Local\Temp\ccGLbPGC.s 			page 274


 13797 1e85 00       		.sleb128 0
 13798 1e86 22000000 		.4byte	.LVL498
 13799 1e8a F6000000 		.4byte	.LVL530
 13800 1e8e 0600     		.2byte	0x6
 13801 1e90 5A       		.byte	0x5a
 13802 1e91 93       		.byte	0x93
 13803 1e92 04       		.uleb128 0x4
 13804 1e93 5B       		.byte	0x5b
 13805 1e94 93       		.byte	0x93
 13806 1e95 04       		.uleb128 0x4
 13807 1e96 74030000 		.4byte	.LVL612
 13808 1e9a BA030000 		.4byte	.LVL621
 13809 1e9e 0600     		.2byte	0x6
 13810 1ea0 5A       		.byte	0x5a
 13811 1ea1 93       		.byte	0x93
 13812 1ea2 04       		.uleb128 0x4
 13813 1ea3 5B       		.byte	0x5b
 13814 1ea4 93       		.byte	0x93
 13815 1ea5 04       		.uleb128 0x4
 13816 1ea6 30040000 		.4byte	.LVL637
 13817 1eaa 3C040000 		.4byte	.LFE66
 13818 1eae 0600     		.2byte	0x6
 13819 1eb0 5A       		.byte	0x5a
 13820 1eb1 93       		.byte	0x93
 13821 1eb2 04       		.uleb128 0x4
 13822 1eb3 5B       		.byte	0x5b
 13823 1eb4 93       		.byte	0x93
 13824 1eb5 04       		.uleb128 0x4
 13825 1eb6 00000000 		.4byte	0
 13826 1eba 00000000 		.4byte	0
 13827              	.LLST245:
 13828 1ebe 34000000 		.4byte	.LVL501
 13829 1ec2 36000000 		.4byte	.LVL502
 13830 1ec6 0100     		.2byte	0x1
 13831 1ec8 50       		.byte	0x50
 13832 1ec9 36000000 		.4byte	.LVL502
 13833 1ecd DE000000 		.4byte	.LVL527
 13834 1ed1 0100     		.2byte	0x1
 13835 1ed3 56       		.byte	0x56
 13836 1ed4 74030000 		.4byte	.LVL612
 13837 1ed8 76030000 		.4byte	.LVL613
 13838 1edc 0100     		.2byte	0x1
 13839 1ede 56       		.byte	0x56
 13840 1edf 00000000 		.4byte	0
 13841 1ee3 00000000 		.4byte	0
 13842              	.LLST246:
 13843 1ee7 4C000000 		.4byte	.LVL506
 13844 1eeb 4E000000 		.4byte	.LVL507
 13845 1eef 0100     		.2byte	0x1
 13846 1ef1 50       		.byte	0x50
 13847 1ef2 4E000000 		.4byte	.LVL507
 13848 1ef6 26010000 		.4byte	.LVL538
 13849 1efa 0200     		.2byte	0x2
 13850 1efc 91       		.byte	0x91
 13851 1efd 40       		.sleb128 -64
 13852 1efe 74030000 		.4byte	.LVL612
 13853 1f02 14040000 		.4byte	.LVL632
ARM GAS  C:\Users\JACOB-~1\AppData\Local\Temp\ccGLbPGC.s 			page 275


 13854 1f06 0200     		.2byte	0x2
 13855 1f08 91       		.byte	0x91
 13856 1f09 40       		.sleb128 -64
 13857 1f0a 30040000 		.4byte	.LVL637
 13858 1f0e 3C040000 		.4byte	.LFE66
 13859 1f12 0200     		.2byte	0x2
 13860 1f14 91       		.byte	0x91
 13861 1f15 40       		.sleb128 -64
 13862 1f16 00000000 		.4byte	0
 13863 1f1a 00000000 		.4byte	0
 13864              	.LLST247:
 13865 1f1e 70000000 		.4byte	.LVL512
 13866 1f22 73000000 		.4byte	.LVL513-1
 13867 1f26 0100     		.2byte	0x1
 13868 1f28 50       		.byte	0x50
 13869 1f29 73000000 		.4byte	.LVL513-1
 13870 1f2d 3C040000 		.4byte	.LFE66
 13871 1f31 0200     		.2byte	0x2
 13872 1f33 91       		.byte	0x91
 13873 1f34 48       		.sleb128 -56
 13874 1f35 00000000 		.4byte	0
 13875 1f39 00000000 		.4byte	0
 13876              	.LLST248:
 13877 1f3d A4000000 		.4byte	.LVL519
 13878 1f41 A7000000 		.4byte	.LVL520-1
 13879 1f45 0100     		.2byte	0x1
 13880 1f47 50       		.byte	0x50
 13881 1f48 A7000000 		.4byte	.LVL520-1
 13882 1f4c 3C040000 		.4byte	.LFE66
 13883 1f50 0200     		.2byte	0x2
 13884 1f52 91       		.byte	0x91
 13885 1f53 4C       		.sleb128 -52
 13886 1f54 00000000 		.4byte	0
 13887 1f58 00000000 		.4byte	0
 13888              	.LLST249:
 13889 1f5c D4000000 		.4byte	.LVL526
 13890 1f60 E2000000 		.4byte	.LVL528
 13891 1f64 0100     		.2byte	0x1
 13892 1f66 50       		.byte	0x50
 13893 1f67 E2000000 		.4byte	.LVL528
 13894 1f6b 74030000 		.4byte	.LVL612
 13895 1f6f 0200     		.2byte	0x2
 13896 1f71 91       		.byte	0x91
 13897 1f72 50       		.sleb128 -48
 13898 1f73 74030000 		.4byte	.LVL612
 13899 1f77 BA030000 		.4byte	.LVL621
 13900 1f7b 0100     		.2byte	0x1
 13901 1f7d 50       		.byte	0x50
 13902 1f7e BA030000 		.4byte	.LVL621
 13903 1f82 30040000 		.4byte	.LVL637
 13904 1f86 0200     		.2byte	0x2
 13905 1f88 91       		.byte	0x91
 13906 1f89 50       		.sleb128 -48
 13907 1f8a 30040000 		.4byte	.LVL637
 13908 1f8e 3C040000 		.4byte	.LFE66
 13909 1f92 0100     		.2byte	0x1
 13910 1f94 50       		.byte	0x50
ARM GAS  C:\Users\JACOB-~1\AppData\Local\Temp\ccGLbPGC.s 			page 276


 13911 1f95 00000000 		.4byte	0
 13912 1f99 00000000 		.4byte	0
 13913              	.LLST250:
 13914 1f9d F0000000 		.4byte	.LVL529
 13915 1fa1 F6000000 		.4byte	.LVL530
 13916 1fa5 0200     		.2byte	0x2
 13917 1fa7 91       		.byte	0x91
 13918 1fa8 40       		.sleb128 -64
 13919 1fa9 04040000 		.4byte	.LVL630
 13920 1fad 0A040000 		.4byte	.LVL631
 13921 1fb1 0200     		.2byte	0x2
 13922 1fb3 91       		.byte	0x91
 13923 1fb4 40       		.sleb128 -64
 13924 1fb5 00000000 		.4byte	0
 13925 1fb9 00000000 		.4byte	0
 13926              	.LLST251:
 13927 1fbd F0000000 		.4byte	.LVL529
 13928 1fc1 74030000 		.4byte	.LVL612
 13929 1fc5 0100     		.2byte	0x1
 13930 1fc7 54       		.byte	0x54
 13931 1fc8 04040000 		.4byte	.LVL630
 13932 1fcc 30040000 		.4byte	.LVL637
 13933 1fd0 0100     		.2byte	0x1
 13934 1fd2 54       		.byte	0x54
 13935 1fd3 00000000 		.4byte	0
 13936 1fd7 00000000 		.4byte	0
 13937              	.LLST252:
 13938 1fdb 36010000 		.4byte	.LVL540
 13939 1fdf 56010000 		.4byte	.LVL543
 13940 1fe3 0100     		.2byte	0x1
 13941 1fe5 56       		.byte	0x56
 13942 1fe6 5C010000 		.4byte	.LVL544
 13943 1fea 9E010000 		.4byte	.LVL556
 13944 1fee 0100     		.2byte	0x1
 13945 1ff0 56       		.byte	0x56
 13946 1ff1 00000000 		.4byte	0
 13947 1ff5 00000000 		.4byte	0
 13948              	.LLST253:
 13949 1ff9 F0000000 		.4byte	.LVL529
 13950 1ffd 34010000 		.4byte	.LVL539
 13951 2001 0200     		.2byte	0x2
 13952 2003 91       		.byte	0x91
 13953 2004 44       		.sleb128 -60
 13954 2005 34010000 		.4byte	.LVL539
 13955 2009 96010000 		.4byte	.LVL554
 13956 200d 0100     		.2byte	0x1
 13957 200f 58       		.byte	0x58
 13958 2010 96010000 		.4byte	.LVL554
 13959 2014 74030000 		.4byte	.LVL612
 13960 2018 0600     		.2byte	0x6
 13961 201a 91       		.byte	0x91
 13962 201b 44       		.sleb128 -60
 13963 201c 06       		.byte	0x6
 13964 201d 32       		.byte	0x32
 13965 201e 1C       		.byte	0x1c
 13966 201f 9F       		.byte	0x9f
 13967 2020 04040000 		.4byte	.LVL630
ARM GAS  C:\Users\JACOB-~1\AppData\Local\Temp\ccGLbPGC.s 			page 277


 13968 2024 14040000 		.4byte	.LVL632
 13969 2028 0200     		.2byte	0x2
 13970 202a 91       		.byte	0x91
 13971 202b 44       		.sleb128 -60
 13972 202c 14040000 		.4byte	.LVL632
 13973 2030 30040000 		.4byte	.LVL637
 13974 2034 0600     		.2byte	0x6
 13975 2036 91       		.byte	0x91
 13976 2037 44       		.sleb128 -60
 13977 2038 06       		.byte	0x6
 13978 2039 32       		.byte	0x32
 13979 203a 1C       		.byte	0x1c
 13980 203b 9F       		.byte	0x9f
 13981 203c 00000000 		.4byte	0
 13982 2040 00000000 		.4byte	0
 13983              	.LLST254:
 13984 2044 F0000000 		.4byte	.LVL529
 13985 2048 FE000000 		.4byte	.LVL531
 13986 204c 0200     		.2byte	0x2
 13987 204e 31       		.byte	0x31
 13988 204f 9F       		.byte	0x9f
 13989 2050 FE000000 		.4byte	.LVL531
 13990 2054 08010000 		.4byte	.LVL534
 13991 2058 0100     		.2byte	0x1
 13992 205a 53       		.byte	0x53
 13993 205b 0C010000 		.4byte	.LVL535
 13994 205f 1A010000 		.4byte	.LVL536
 13995 2063 0100     		.2byte	0x1
 13996 2065 53       		.byte	0x53
 13997 2066 36010000 		.4byte	.LVL540
 13998 206a 5E010000 		.4byte	.LVL545
 13999 206e 0100     		.2byte	0x1
 14000 2070 5A       		.byte	0x5a
 14001 2071 64010000 		.4byte	.LVL546
 14002 2075 72010000 		.4byte	.LVL547
 14003 2079 0100     		.2byte	0x1
 14004 207b 5A       		.byte	0x5a
 14005 207c 04040000 		.4byte	.LVL630
 14006 2080 14040000 		.4byte	.LVL632
 14007 2084 0200     		.2byte	0x2
 14008 2086 31       		.byte	0x31
 14009 2087 9F       		.byte	0x9f
 14010 2088 00000000 		.4byte	0
 14011 208c 00000000 		.4byte	0
 14012              	.LLST255:
 14013 2090 34010000 		.4byte	.LVL539
 14014 2094 74030000 		.4byte	.LVL612
 14015 2098 0200     		.2byte	0x2
 14016 209a 37       		.byte	0x37
 14017 209b 9F       		.byte	0x9f
 14018 209c 14040000 		.4byte	.LVL632
 14019 20a0 30040000 		.4byte	.LVL637
 14020 20a4 0200     		.2byte	0x2
 14021 20a6 37       		.byte	0x37
 14022 20a7 9F       		.byte	0x9f
 14023 20a8 00000000 		.4byte	0
 14024 20ac 00000000 		.4byte	0
ARM GAS  C:\Users\JACOB-~1\AppData\Local\Temp\ccGLbPGC.s 			page 278


 14025              	.LLST256:
 14026 20b0 F0000000 		.4byte	.LVL529
 14027 20b4 FE000000 		.4byte	.LVL531
 14028 20b8 0200     		.2byte	0x2
 14029 20ba 30       		.byte	0x30
 14030 20bb 9F       		.byte	0x9f
 14031 20bc FE000000 		.4byte	.LVL531
 14032 20c0 06010000 		.4byte	.LVL533
 14033 20c4 0100     		.2byte	0x1
 14034 20c6 51       		.byte	0x51
 14035 20c7 06010000 		.4byte	.LVL533
 14036 20cb 0C010000 		.4byte	.LVL535
 14037 20cf 0300     		.2byte	0x3
 14038 20d1 71       		.byte	0x71
 14039 20d2 7F       		.sleb128 -1
 14040 20d3 9F       		.byte	0x9f
 14041 20d4 0C010000 		.4byte	.LVL535
 14042 20d8 1C010000 		.4byte	.LVL537
 14043 20dc 0100     		.2byte	0x1
 14044 20de 51       		.byte	0x51
 14045 20df 04040000 		.4byte	.LVL630
 14046 20e3 14040000 		.4byte	.LVL632
 14047 20e7 0200     		.2byte	0x2
 14048 20e9 30       		.byte	0x30
 14049 20ea 9F       		.byte	0x9f
 14050 20eb 00000000 		.4byte	0
 14051 20ef 00000000 		.4byte	0
 14052              	.LLST257:
 14053 20f3 34010000 		.4byte	.LVL539
 14054 20f7 36010000 		.4byte	.LVL540
 14055 20fb 0200     		.2byte	0x2
 14056 20fd 30       		.byte	0x30
 14057 20fe 9F       		.byte	0x9f
 14058 20ff 00000000 		.4byte	0
 14059 2103 00000000 		.4byte	0
 14060              	.LLST258:
 14061 2107 36010000 		.4byte	.LVL540
 14062 210b 42010000 		.4byte	.LVL541
 14063 210f 0200     		.2byte	0x2
 14064 2111 30       		.byte	0x30
 14065 2112 9F       		.byte	0x9f
 14066 2113 00000000 		.4byte	0
 14067 2117 00000000 		.4byte	0
 14068              	.LLST259:
 14069 211b AC010000 		.4byte	.LVL557
 14070 211f CC010000 		.4byte	.LVL560
 14071 2123 0100     		.2byte	0x1
 14072 2125 55       		.byte	0x55
 14073 2126 00000000 		.4byte	0
 14074 212a 00000000 		.4byte	0
 14075              	.LLST260:
 14076 212e 9A010000 		.4byte	.LVL555
 14077 2132 20020000 		.4byte	.LVL571
 14078 2136 0100     		.2byte	0x1
 14079 2138 58       		.byte	0x58
 14080 2139 20020000 		.4byte	.LVL571
 14081 213d 74030000 		.4byte	.LVL612
ARM GAS  C:\Users\JACOB-~1\AppData\Local\Temp\ccGLbPGC.s 			page 279


 14082 2141 0600     		.2byte	0x6
 14083 2143 91       		.byte	0x91
 14084 2144 44       		.sleb128 -60
 14085 2145 06       		.byte	0x6
 14086 2146 23       		.byte	0x23
 14087 2147 05       		.uleb128 0x5
 14088 2148 9F       		.byte	0x9f
 14089 2149 14040000 		.4byte	.LVL632
 14090 214d 1C040000 		.4byte	.LVL634
 14091 2151 0600     		.2byte	0x6
 14092 2153 91       		.byte	0x91
 14093 2154 44       		.sleb128 -60
 14094 2155 06       		.byte	0x6
 14095 2156 23       		.byte	0x23
 14096 2157 05       		.uleb128 0x5
 14097 2158 9F       		.byte	0x9f
 14098 2159 1C040000 		.4byte	.LVL634
 14099 215d 26040000 		.4byte	.LVL635
 14100 2161 0100     		.2byte	0x1
 14101 2163 58       		.byte	0x58
 14102 2164 26040000 		.4byte	.LVL635
 14103 2168 30040000 		.4byte	.LVL637
 14104 216c 0600     		.2byte	0x6
 14105 216e 91       		.byte	0x91
 14106 216f 44       		.sleb128 -60
 14107 2170 06       		.byte	0x6
 14108 2171 23       		.byte	0x23
 14109 2172 05       		.uleb128 0x5
 14110 2173 9F       		.byte	0x9f
 14111 2174 00000000 		.4byte	0
 14112 2178 00000000 		.4byte	0
 14113              	.LLST261:
 14114 217c 78010000 		.4byte	.LVL548
 14115 2180 80010000 		.4byte	.LVL550
 14116 2184 0100     		.2byte	0x1
 14117 2186 53       		.byte	0x53
 14118 2187 86010000 		.4byte	.LVL551
 14119 218b 8A010000 		.4byte	.LVL552
 14120 218f 0100     		.2byte	0x1
 14121 2191 53       		.byte	0x53
 14122 2192 8A010000 		.4byte	.LVL552
 14123 2196 8C010000 		.4byte	.LVL553
 14124 219a 0300     		.2byte	0x3
 14125 219c 73       		.byte	0x73
 14126 219d 7F       		.sleb128 -1
 14127 219e 9F       		.byte	0x9f
 14128 219f 8C010000 		.4byte	.LVL553
 14129 21a3 9E010000 		.4byte	.LVL556
 14130 21a7 0100     		.2byte	0x1
 14131 21a9 53       		.byte	0x53
 14132 21aa AC010000 		.4byte	.LVL557
 14133 21ae D4010000 		.4byte	.LVL561
 14134 21b2 0100     		.2byte	0x1
 14135 21b4 5B       		.byte	0x5b
 14136 21b5 DC010000 		.4byte	.LVL562
 14137 21b9 24020000 		.4byte	.LVL572
 14138 21bd 0100     		.2byte	0x1
ARM GAS  C:\Users\JACOB-~1\AppData\Local\Temp\ccGLbPGC.s 			page 280


 14139 21bf 5B       		.byte	0x5b
 14140 21c0 1C040000 		.4byte	.LVL634
 14141 21c4 26040000 		.4byte	.LVL635
 14142 21c8 0100     		.2byte	0x1
 14143 21ca 5B       		.byte	0x5b
 14144 21cb 00000000 		.4byte	0
 14145 21cf 00000000 		.4byte	0
 14146              	.LLST262:
 14147 21d3 9A010000 		.4byte	.LVL555
 14148 21d7 74030000 		.4byte	.LVL612
 14149 21db 0200     		.2byte	0x2
 14150 21dd 37       		.byte	0x37
 14151 21de 9F       		.byte	0x9f
 14152 21df 14040000 		.4byte	.LVL632
 14153 21e3 30040000 		.4byte	.LVL637
 14154 21e7 0200     		.2byte	0x2
 14155 21e9 37       		.byte	0x37
 14156 21ea 9F       		.byte	0x9f
 14157 21eb 00000000 		.4byte	0
 14158 21ef 00000000 		.4byte	0
 14159              	.LLST263:
 14160 21f3 9A010000 		.4byte	.LVL555
 14161 21f7 9E010000 		.4byte	.LVL556
 14162 21fb 0200     		.2byte	0x2
 14163 21fd 30       		.byte	0x30
 14164 21fe 9F       		.byte	0x9f
 14165 21ff 00000000 		.4byte	0
 14166 2203 00000000 		.4byte	0
 14167              	.LLST264:
 14168 2207 AC010000 		.4byte	.LVL557
 14169 220b BA010000 		.4byte	.LVL558
 14170 220f 0200     		.2byte	0x2
 14171 2211 30       		.byte	0x30
 14172 2212 9F       		.byte	0x9f
 14173 2213 00000000 		.4byte	0
 14174 2217 00000000 		.4byte	0
 14175              	.LLST265:
 14176 221b 24020000 		.4byte	.LVL572
 14177 221f 44020000 		.4byte	.LVL575
 14178 2223 0100     		.2byte	0x1
 14179 2225 56       		.byte	0x56
 14180 2226 4A020000 		.4byte	.LVL576
 14181 222a 8E020000 		.4byte	.LVL588
 14182 222e 0100     		.2byte	0x1
 14183 2230 56       		.byte	0x56
 14184 2231 26040000 		.4byte	.LVL635
 14185 2235 30040000 		.4byte	.LVL637
 14186 2239 0100     		.2byte	0x1
 14187 223b 56       		.byte	0x56
 14188 223c 00000000 		.4byte	0
 14189 2240 00000000 		.4byte	0
 14190              	.LLST266:
 14191 2244 24020000 		.4byte	.LVL572
 14192 2248 98020000 		.4byte	.LVL589
 14193 224c 0100     		.2byte	0x1
 14194 224e 58       		.byte	0x58
 14195 224f 98020000 		.4byte	.LVL589
ARM GAS  C:\Users\JACOB-~1\AppData\Local\Temp\ccGLbPGC.s 			page 281


 14196 2253 74030000 		.4byte	.LVL612
 14197 2257 0600     		.2byte	0x6
 14198 2259 91       		.byte	0x91
 14199 225a 44       		.sleb128 -60
 14200 225b 06       		.byte	0x6
 14201 225c 23       		.byte	0x23
 14202 225d 0C       		.uleb128 0xc
 14203 225e 9F       		.byte	0x9f
 14204 225f 14040000 		.4byte	.LVL632
 14205 2263 1C040000 		.4byte	.LVL634
 14206 2267 0600     		.2byte	0x6
 14207 2269 91       		.byte	0x91
 14208 226a 44       		.sleb128 -60
 14209 226b 06       		.byte	0x6
 14210 226c 23       		.byte	0x23
 14211 226d 0C       		.uleb128 0xc
 14212 226e 9F       		.byte	0x9f
 14213 226f 26040000 		.4byte	.LVL635
 14214 2273 30040000 		.4byte	.LVL637
 14215 2277 0100     		.2byte	0x1
 14216 2279 58       		.byte	0x58
 14217 227a 00000000 		.4byte	0
 14218 227e 00000000 		.4byte	0
 14219              	.LLST267:
 14220 2282 DE010000 		.4byte	.LVL563
 14221 2286 F6010000 		.4byte	.LVL564
 14222 228a 0200     		.2byte	0x2
 14223 228c 31       		.byte	0x31
 14224 228d 9F       		.byte	0x9f
 14225 228e F6010000 		.4byte	.LVL564
 14226 2292 00020000 		.4byte	.LVL567
 14227 2296 0100     		.2byte	0x1
 14228 2298 53       		.byte	0x53
 14229 2299 04020000 		.4byte	.LVL568
 14230 229d 12020000 		.4byte	.LVL569
 14231 22a1 0100     		.2byte	0x1
 14232 22a3 53       		.byte	0x53
 14233 22a4 24020000 		.4byte	.LVL572
 14234 22a8 4C020000 		.4byte	.LVL577
 14235 22ac 0100     		.2byte	0x1
 14236 22ae 5A       		.byte	0x5a
 14237 22af 52020000 		.4byte	.LVL578
 14238 22b3 82020000 		.4byte	.LVL585
 14239 22b7 0100     		.2byte	0x1
 14240 22b9 5A       		.byte	0x5a
 14241 22ba 1C040000 		.4byte	.LVL634
 14242 22be 26040000 		.4byte	.LVL635
 14243 22c2 0200     		.2byte	0x2
 14244 22c4 31       		.byte	0x31
 14245 22c5 9F       		.byte	0x9f
 14246 22c6 26040000 		.4byte	.LVL635
 14247 22ca 2E040000 		.4byte	.LVL636
 14248 22ce 0100     		.2byte	0x1
 14249 22d0 5A       		.byte	0x5a
 14250 22d1 00000000 		.4byte	0
 14251 22d5 00000000 		.4byte	0
 14252              	.LLST268:
ARM GAS  C:\Users\JACOB-~1\AppData\Local\Temp\ccGLbPGC.s 			page 282


 14253 22d9 24020000 		.4byte	.LVL572
 14254 22dd 74030000 		.4byte	.LVL612
 14255 22e1 0200     		.2byte	0x2
 14256 22e3 37       		.byte	0x37
 14257 22e4 9F       		.byte	0x9f
 14258 22e5 14040000 		.4byte	.LVL632
 14259 22e9 1C040000 		.4byte	.LVL634
 14260 22ed 0200     		.2byte	0x2
 14261 22ef 37       		.byte	0x37
 14262 22f0 9F       		.byte	0x9f
 14263 22f1 26040000 		.4byte	.LVL635
 14264 22f5 30040000 		.4byte	.LVL637
 14265 22f9 0200     		.2byte	0x2
 14266 22fb 37       		.byte	0x37
 14267 22fc 9F       		.byte	0x9f
 14268 22fd 00000000 		.4byte	0
 14269 2301 00000000 		.4byte	0
 14270              	.LLST269:
 14271 2305 DE010000 		.4byte	.LVL563
 14272 2309 F6010000 		.4byte	.LVL564
 14273 230d 0200     		.2byte	0x2
 14274 230f 30       		.byte	0x30
 14275 2310 9F       		.byte	0x9f
 14276 2311 F6010000 		.4byte	.LVL564
 14277 2315 FE010000 		.4byte	.LVL566
 14278 2319 0100     		.2byte	0x1
 14279 231b 51       		.byte	0x51
 14280 231c FE010000 		.4byte	.LVL566
 14281 2320 04020000 		.4byte	.LVL568
 14282 2324 0300     		.2byte	0x3
 14283 2326 71       		.byte	0x71
 14284 2327 7F       		.sleb128 -1
 14285 2328 9F       		.byte	0x9f
 14286 2329 04020000 		.4byte	.LVL568
 14287 232d 14020000 		.4byte	.LVL570
 14288 2331 0100     		.2byte	0x1
 14289 2333 51       		.byte	0x51
 14290 2334 1C040000 		.4byte	.LVL634
 14291 2338 26040000 		.4byte	.LVL635
 14292 233c 0200     		.2byte	0x2
 14293 233e 30       		.byte	0x30
 14294 233f 9F       		.byte	0x9f
 14295 2340 00000000 		.4byte	0
 14296 2344 00000000 		.4byte	0
 14297              	.LLST270:
 14298 2348 24020000 		.4byte	.LVL572
 14299 234c 30020000 		.4byte	.LVL573
 14300 2350 0200     		.2byte	0x2
 14301 2352 30       		.byte	0x30
 14302 2353 9F       		.byte	0x9f
 14303 2354 00000000 		.4byte	0
 14304 2358 00000000 		.4byte	0
 14305              	.LLST271:
 14306 235c 9C020000 		.4byte	.LVL590
 14307 2360 BC020000 		.4byte	.LVL593
 14308 2364 0100     		.2byte	0x1
 14309 2366 56       		.byte	0x56
ARM GAS  C:\Users\JACOB-~1\AppData\Local\Temp\ccGLbPGC.s 			page 283


 14310 2367 C2020000 		.4byte	.LVL594
 14311 236b 38030000 		.4byte	.LVL605
 14312 236f 0100     		.2byte	0x1
 14313 2371 56       		.byte	0x56
 14314 2372 14040000 		.4byte	.LVL632
 14315 2376 1C040000 		.4byte	.LVL634
 14316 237a 0100     		.2byte	0x1
 14317 237c 56       		.byte	0x56
 14318 237d 00000000 		.4byte	0
 14319 2381 00000000 		.4byte	0
 14320              	.LLST272:
 14321 2385 9C020000 		.4byte	.LVL590
 14322 2389 28030000 		.4byte	.LVL603
 14323 238d 0100     		.2byte	0x1
 14324 238f 58       		.byte	0x58
 14325 2390 28030000 		.4byte	.LVL603
 14326 2394 74030000 		.4byte	.LVL612
 14327 2398 0600     		.2byte	0x6
 14328 239a 91       		.byte	0x91
 14329 239b 44       		.sleb128 -60
 14330 239c 06       		.byte	0x6
 14331 239d 23       		.byte	0x23
 14332 239e 13       		.uleb128 0x13
 14333 239f 9F       		.byte	0x9f
 14334 23a0 14040000 		.4byte	.LVL632
 14335 23a4 18040000 		.4byte	.LVL633
 14336 23a8 0100     		.2byte	0x1
 14337 23aa 58       		.byte	0x58
 14338 23ab 18040000 		.4byte	.LVL633
 14339 23af 1C040000 		.4byte	.LVL634
 14340 23b3 0600     		.2byte	0x6
 14341 23b5 91       		.byte	0x91
 14342 23b6 44       		.sleb128 -60
 14343 23b7 06       		.byte	0x6
 14344 23b8 23       		.byte	0x23
 14345 23b9 13       		.uleb128 0x13
 14346 23ba 9F       		.byte	0x9f
 14347 23bb 00000000 		.4byte	0
 14348 23bf 00000000 		.4byte	0
 14349              	.LLST273:
 14350 23c3 5A020000 		.4byte	.LVL579
 14351 23c7 6E020000 		.4byte	.LVL580
 14352 23cb 0200     		.2byte	0x2
 14353 23cd 31       		.byte	0x31
 14354 23ce 9F       		.byte	0x9f
 14355 23cf 6E020000 		.4byte	.LVL580
 14356 23d3 78020000 		.4byte	.LVL583
 14357 23d7 0100     		.2byte	0x1
 14358 23d9 53       		.byte	0x53
 14359 23da 7C020000 		.4byte	.LVL584
 14360 23de 8A020000 		.4byte	.LVL586
 14361 23e2 0100     		.2byte	0x1
 14362 23e4 53       		.byte	0x53
 14363 23e5 9C020000 		.4byte	.LVL590
 14364 23e9 C4020000 		.4byte	.LVL595
 14365 23ed 0100     		.2byte	0x1
 14366 23ef 5A       		.byte	0x5a
ARM GAS  C:\Users\JACOB-~1\AppData\Local\Temp\ccGLbPGC.s 			page 284


 14367 23f0 CA020000 		.4byte	.LVL596
 14368 23f4 2E030000 		.4byte	.LVL604
 14369 23f8 0100     		.2byte	0x1
 14370 23fa 5A       		.byte	0x5a
 14371 23fb 14040000 		.4byte	.LVL632
 14372 23ff 1C040000 		.4byte	.LVL634
 14373 2403 0100     		.2byte	0x1
 14374 2405 5A       		.byte	0x5a
 14375 2406 26040000 		.4byte	.LVL635
 14376 240a 30040000 		.4byte	.LVL637
 14377 240e 0200     		.2byte	0x2
 14378 2410 31       		.byte	0x31
 14379 2411 9F       		.byte	0x9f
 14380 2412 00000000 		.4byte	0
 14381 2416 00000000 		.4byte	0
 14382              	.LLST274:
 14383 241a 9C020000 		.4byte	.LVL590
 14384 241e 74030000 		.4byte	.LVL612
 14385 2422 0200     		.2byte	0x2
 14386 2424 37       		.byte	0x37
 14387 2425 9F       		.byte	0x9f
 14388 2426 14040000 		.4byte	.LVL632
 14389 242a 1C040000 		.4byte	.LVL634
 14390 242e 0200     		.2byte	0x2
 14391 2430 37       		.byte	0x37
 14392 2431 9F       		.byte	0x9f
 14393 2432 00000000 		.4byte	0
 14394 2436 00000000 		.4byte	0
 14395              	.LLST275:
 14396 243a 5A020000 		.4byte	.LVL579
 14397 243e 6E020000 		.4byte	.LVL580
 14398 2442 0200     		.2byte	0x2
 14399 2444 30       		.byte	0x30
 14400 2445 9F       		.byte	0x9f
 14401 2446 6E020000 		.4byte	.LVL580
 14402 244a 76020000 		.4byte	.LVL582
 14403 244e 0100     		.2byte	0x1
 14404 2450 51       		.byte	0x51
 14405 2451 76020000 		.4byte	.LVL582
 14406 2455 7C020000 		.4byte	.LVL584
 14407 2459 0300     		.2byte	0x3
 14408 245b 71       		.byte	0x71
 14409 245c 7F       		.sleb128 -1
 14410 245d 9F       		.byte	0x9f
 14411 245e 7C020000 		.4byte	.LVL584
 14412 2462 8C020000 		.4byte	.LVL587
 14413 2466 0100     		.2byte	0x1
 14414 2468 51       		.byte	0x51
 14415 2469 26040000 		.4byte	.LVL635
 14416 246d 30040000 		.4byte	.LVL637
 14417 2471 0200     		.2byte	0x2
 14418 2473 30       		.byte	0x30
 14419 2474 9F       		.byte	0x9f
 14420 2475 00000000 		.4byte	0
 14421 2479 00000000 		.4byte	0
 14422              	.LLST276:
 14423 247d 9C020000 		.4byte	.LVL590
ARM GAS  C:\Users\JACOB-~1\AppData\Local\Temp\ccGLbPGC.s 			page 285


 14424 2481 A8020000 		.4byte	.LVL591
 14425 2485 0200     		.2byte	0x2
 14426 2487 30       		.byte	0x30
 14427 2488 9F       		.byte	0x9f
 14428 2489 00000000 		.4byte	0
 14429 248d 00000000 		.4byte	0
 14430              	.LLST277:
 14431 2491 38030000 		.4byte	.LVL605
 14432 2495 58030000 		.4byte	.LVL608
 14433 2499 0100     		.2byte	0x1
 14434 249b 55       		.byte	0x55
 14435 249c 5E030000 		.4byte	.LVL609
 14436 24a0 74030000 		.4byte	.LVL612
 14437 24a4 0100     		.2byte	0x1
 14438 24a6 55       		.byte	0x55
 14439 24a7 00000000 		.4byte	0
 14440 24ab 00000000 		.4byte	0
 14441              	.LLST278:
 14442 24af 38030000 		.4byte	.LVL605
 14443 24b3 74030000 		.4byte	.LVL612
 14444 24b7 0100     		.2byte	0x1
 14445 24b9 5A       		.byte	0x5a
 14446 24ba 00000000 		.4byte	0
 14447 24be 00000000 		.4byte	0
 14448              	.LLST279:
 14449 24c2 D2020000 		.4byte	.LVL597
 14450 24c6 10030000 		.4byte	.LVL598
 14451 24ca 0200     		.2byte	0x2
 14452 24cc 31       		.byte	0x31
 14453 24cd 9F       		.byte	0x9f
 14454 24ce 10030000 		.4byte	.LVL598
 14455 24d2 1A030000 		.4byte	.LVL601
 14456 24d6 0100     		.2byte	0x1
 14457 24d8 53       		.byte	0x53
 14458 24d9 1E030000 		.4byte	.LVL602
 14459 24dd 28030000 		.4byte	.LVL603
 14460 24e1 0100     		.2byte	0x1
 14461 24e3 53       		.byte	0x53
 14462 24e4 38030000 		.4byte	.LVL605
 14463 24e8 60030000 		.4byte	.LVL610
 14464 24ec 0100     		.2byte	0x1
 14465 24ee 58       		.byte	0x58
 14466 24ef 66030000 		.4byte	.LVL611
 14467 24f3 74030000 		.4byte	.LVL612
 14468 24f7 0100     		.2byte	0x1
 14469 24f9 58       		.byte	0x58
 14470 24fa 14040000 		.4byte	.LVL632
 14471 24fe 1C040000 		.4byte	.LVL634
 14472 2502 0200     		.2byte	0x2
 14473 2504 31       		.byte	0x31
 14474 2505 9F       		.byte	0x9f
 14475 2506 00000000 		.4byte	0
 14476 250a 00000000 		.4byte	0
 14477              	.LLST280:
 14478 250e 38030000 		.4byte	.LVL605
 14479 2512 74030000 		.4byte	.LVL612
 14480 2516 0200     		.2byte	0x2
ARM GAS  C:\Users\JACOB-~1\AppData\Local\Temp\ccGLbPGC.s 			page 286


 14481 2518 37       		.byte	0x37
 14482 2519 9F       		.byte	0x9f
 14483 251a 00000000 		.4byte	0
 14484 251e 00000000 		.4byte	0
 14485              	.LLST281:
 14486 2522 D2020000 		.4byte	.LVL597
 14487 2526 10030000 		.4byte	.LVL598
 14488 252a 0200     		.2byte	0x2
 14489 252c 30       		.byte	0x30
 14490 252d 9F       		.byte	0x9f
 14491 252e 10030000 		.4byte	.LVL598
 14492 2532 18030000 		.4byte	.LVL600
 14493 2536 0100     		.2byte	0x1
 14494 2538 51       		.byte	0x51
 14495 2539 18030000 		.4byte	.LVL600
 14496 253d 1E030000 		.4byte	.LVL602
 14497 2541 0300     		.2byte	0x3
 14498 2543 71       		.byte	0x71
 14499 2544 7F       		.sleb128 -1
 14500 2545 9F       		.byte	0x9f
 14501 2546 1E030000 		.4byte	.LVL602
 14502 254a 28030000 		.4byte	.LVL603
 14503 254e 0100     		.2byte	0x1
 14504 2550 51       		.byte	0x51
 14505 2551 14040000 		.4byte	.LVL632
 14506 2555 1C040000 		.4byte	.LVL634
 14507 2559 0200     		.2byte	0x2
 14508 255b 30       		.byte	0x30
 14509 255c 9F       		.byte	0x9f
 14510 255d 00000000 		.4byte	0
 14511 2561 00000000 		.4byte	0
 14512              	.LLST282:
 14513 2565 38030000 		.4byte	.LVL605
 14514 2569 44030000 		.4byte	.LVL606
 14515 256d 0200     		.2byte	0x2
 14516 256f 30       		.byte	0x30
 14517 2570 9F       		.byte	0x9f
 14518 2571 00000000 		.4byte	0
 14519 2575 00000000 		.4byte	0
 14520              	.LLST283:
 14521 2579 B4030000 		.4byte	.LVL620
 14522 257d BA030000 		.4byte	.LVL621
 14523 2581 0100     		.2byte	0x1
 14524 2583 51       		.byte	0x51
 14525 2584 BA030000 		.4byte	.LVL621
 14526 2588 DE030000 		.4byte	.LVL624
 14527 258c 0100     		.2byte	0x1
 14528 258e 55       		.byte	0x55
 14529 258f E6030000 		.4byte	.LVL625
 14530 2593 02040000 		.4byte	.LVL629
 14531 2597 0100     		.2byte	0x1
 14532 2599 55       		.byte	0x55
 14533 259a 00000000 		.4byte	0
 14534 259e 00000000 		.4byte	0
 14535              	.LLST284:
 14536 25a2 BA030000 		.4byte	.LVL621
 14537 25a6 0A040000 		.4byte	.LVL631
ARM GAS  C:\Users\JACOB-~1\AppData\Local\Temp\ccGLbPGC.s 			page 287


 14538 25aa 0100     		.2byte	0x1
 14539 25ac 5B       		.byte	0x5b
 14540 25ad 00000000 		.4byte	0
 14541 25b1 00000000 		.4byte	0
 14542              	.LLST285:
 14543 25b5 74030000 		.4byte	.LVL612
 14544 25b9 86030000 		.4byte	.LVL614
 14545 25bd 0200     		.2byte	0x2
 14546 25bf 31       		.byte	0x31
 14547 25c0 9F       		.byte	0x9f
 14548 25c1 86030000 		.4byte	.LVL614
 14549 25c5 90030000 		.4byte	.LVL617
 14550 25c9 0100     		.2byte	0x1
 14551 25cb 53       		.byte	0x53
 14552 25cc 94030000 		.4byte	.LVL618
 14553 25d0 9E030000 		.4byte	.LVL619
 14554 25d4 0100     		.2byte	0x1
 14555 25d6 53       		.byte	0x53
 14556 25d7 BA030000 		.4byte	.LVL621
 14557 25db E8030000 		.4byte	.LVL626
 14558 25df 0100     		.2byte	0x1
 14559 25e1 56       		.byte	0x56
 14560 25e2 EC030000 		.4byte	.LVL627
 14561 25e6 F8030000 		.4byte	.LVL628
 14562 25ea 0100     		.2byte	0x1
 14563 25ec 56       		.byte	0x56
 14564 25ed 30040000 		.4byte	.LVL637
 14565 25f1 3C040000 		.4byte	.LFE66
 14566 25f5 0200     		.2byte	0x2
 14567 25f7 31       		.byte	0x31
 14568 25f8 9F       		.byte	0x9f
 14569 25f9 00000000 		.4byte	0
 14570 25fd 00000000 		.4byte	0
 14571              	.LLST286:
 14572 2601 BA030000 		.4byte	.LVL621
 14573 2605 0A040000 		.4byte	.LVL631
 14574 2609 0200     		.2byte	0x2
 14575 260b 37       		.byte	0x37
 14576 260c 9F       		.byte	0x9f
 14577 260d 00000000 		.4byte	0
 14578 2611 00000000 		.4byte	0
 14579              	.LLST287:
 14580 2615 74030000 		.4byte	.LVL612
 14581 2619 86030000 		.4byte	.LVL614
 14582 261d 0200     		.2byte	0x2
 14583 261f 30       		.byte	0x30
 14584 2620 9F       		.byte	0x9f
 14585 2621 86030000 		.4byte	.LVL614
 14586 2625 8E030000 		.4byte	.LVL616
 14587 2629 0100     		.2byte	0x1
 14588 262b 51       		.byte	0x51
 14589 262c 8E030000 		.4byte	.LVL616
 14590 2630 94030000 		.4byte	.LVL618
 14591 2634 0300     		.2byte	0x3
 14592 2636 71       		.byte	0x71
 14593 2637 7F       		.sleb128 -1
 14594 2638 9F       		.byte	0x9f
ARM GAS  C:\Users\JACOB-~1\AppData\Local\Temp\ccGLbPGC.s 			page 288


 14595 2639 94030000 		.4byte	.LVL618
 14596 263d 9E030000 		.4byte	.LVL619
 14597 2641 0100     		.2byte	0x1
 14598 2643 51       		.byte	0x51
 14599 2644 30040000 		.4byte	.LVL637
 14600 2648 3C040000 		.4byte	.LFE66
 14601 264c 0200     		.2byte	0x2
 14602 264e 30       		.byte	0x30
 14603 264f 9F       		.byte	0x9f
 14604 2650 00000000 		.4byte	0
 14605 2654 00000000 		.4byte	0
 14606              	.LLST288:
 14607 2658 BA030000 		.4byte	.LVL621
 14608 265c CA030000 		.4byte	.LVL622
 14609 2660 0200     		.2byte	0x2
 14610 2662 30       		.byte	0x30
 14611 2663 9F       		.byte	0x9f
 14612 2664 00000000 		.4byte	0
 14613 2668 00000000 		.4byte	0
 14614              	.LLST289:
 14615 266c 00000000 		.4byte	.LVL638
 14616 2670 16000000 		.4byte	.LVL640
 14617 2674 0600     		.2byte	0x6
 14618 2676 50       		.byte	0x50
 14619 2677 93       		.byte	0x93
 14620 2678 04       		.uleb128 0x4
 14621 2679 51       		.byte	0x51
 14622 267a 93       		.byte	0x93
 14623 267b 04       		.uleb128 0x4
 14624 267c 16000000 		.4byte	.LVL640
 14625 2680 C8000000 		.4byte	.LFE67
 14626 2684 0600     		.2byte	0x6
 14627 2686 F3       		.byte	0xf3
 14628 2687 03       		.uleb128 0x3
 14629 2688 F5       		.byte	0xf5
 14630 2689 00       		.uleb128 0
 14631 268a 25       		.uleb128 0x25
 14632 268b 9F       		.byte	0x9f
 14633 268c 00000000 		.4byte	0
 14634 2690 00000000 		.4byte	0
 14635              	.LLST290:
 14636 2694 0C000000 		.4byte	.LVL639
 14637 2698 44000000 		.4byte	.LVL645
 14638 269c 0800     		.2byte	0x8
 14639 269e F5       		.byte	0xf5
 14640 269f 06       		.uleb128 0x6
 14641 26a0 25       		.uleb128 0x25
 14642 26a1 F7       		.byte	0xf7
 14643 26a2 2C       		.uleb128 0x2c
 14644 26a3 F7       		.byte	0xf7
 14645 26a4 00       		.uleb128 0
 14646 26a5 9F       		.byte	0x9f
 14647 26a6 00000000 		.4byte	0
 14648 26aa 00000000 		.4byte	0
 14649              	.LLST291:
 14650 26ae 48000000 		.4byte	.LVL646
 14651 26b2 9A000000 		.4byte	.LVL654
ARM GAS  C:\Users\JACOB-~1\AppData\Local\Temp\ccGLbPGC.s 			page 289


 14652 26b6 0B00     		.2byte	0xb
 14653 26b8 74       		.byte	0x74
 14654 26b9 00       		.sleb128 0
 14655 26ba F7       		.byte	0xf7
 14656 26bb 2C       		.uleb128 0x2c
 14657 26bc F7       		.byte	0xf7
 14658 26bd 25       		.uleb128 0x25
 14659 26be F5       		.byte	0xf5
 14660 26bf 08       		.uleb128 0x8
 14661 26c0 25       		.uleb128 0x25
 14662 26c1 1E       		.byte	0x1e
 14663 26c2 9F       		.byte	0x9f
 14664 26c3 9A000000 		.4byte	.LVL654
 14665 26c7 B8000000 		.4byte	.LVL656
 14666 26cb 0B00     		.2byte	0xb
 14667 26cd 74       		.byte	0x74
 14668 26ce 7F       		.sleb128 -1
 14669 26cf F7       		.byte	0xf7
 14670 26d0 2C       		.uleb128 0x2c
 14671 26d1 F7       		.byte	0xf7
 14672 26d2 25       		.uleb128 0x25
 14673 26d3 F5       		.byte	0xf5
 14674 26d4 08       		.uleb128 0x8
 14675 26d5 25       		.uleb128 0x25
 14676 26d6 1E       		.byte	0x1e
 14677 26d7 9F       		.byte	0x9f
 14678 26d8 00000000 		.4byte	0
 14679 26dc 00000000 		.4byte	0
 14680              	.LLST292:
 14681 26e0 2A000000 		.4byte	.LVL642
 14682 26e4 48000000 		.4byte	.LVL646
 14683 26e8 0200     		.2byte	0x2
 14684 26ea 31       		.byte	0x31
 14685 26eb 9F       		.byte	0x9f
 14686 26ec 48000000 		.4byte	.LVL646
 14687 26f0 9A000000 		.4byte	.LVL654
 14688 26f4 0100     		.2byte	0x1
 14689 26f6 54       		.byte	0x54
 14690 26f7 9A000000 		.4byte	.LVL654
 14691 26fb A6000000 		.4byte	.LVL655
 14692 26ff 0300     		.2byte	0x3
 14693 2701 74       		.byte	0x74
 14694 2702 7F       		.sleb128 -1
 14695 2703 9F       		.byte	0x9f
 14696 2704 A6000000 		.4byte	.LVL655
 14697 2708 B8000000 		.4byte	.LVL656
 14698 270c 0100     		.2byte	0x1
 14699 270e 54       		.byte	0x54
 14700 270f 00000000 		.4byte	0
 14701 2713 00000000 		.4byte	0
 14702              		.section	.debug_aranges,"",%progbits
 14703 0000 34000000 		.4byte	0x34
 14704 0004 0200     		.2byte	0x2
 14705 0006 00000000 		.4byte	.Ldebug_info0
 14706 000a 04       		.byte	0x4
 14707 000b 00       		.byte	0
 14708 000c 0000     		.2byte	0
ARM GAS  C:\Users\JACOB-~1\AppData\Local\Temp\ccGLbPGC.s 			page 290


 14709 000e 0000     		.2byte	0
 14710 0010 00000000 		.4byte	.LFB64
 14711 0014 94000000 		.4byte	.LFE64-.LFB64
 14712 0018 00000000 		.4byte	.LFB65
 14713 001c 32100000 		.4byte	.LFE65-.LFB65
 14714 0020 00000000 		.4byte	.LFB66
 14715 0024 3C040000 		.4byte	.LFE66-.LFB66
 14716 0028 00000000 		.4byte	.LFB67
 14717 002c C8000000 		.4byte	.LFE67-.LFB67
 14718 0030 00000000 		.4byte	0
 14719 0034 00000000 		.4byte	0
 14720              		.section	.debug_ranges,"",%progbits
 14721              	.Ldebug_ranges0:
 14722 0000 08000000 		.4byte	.LBB6
 14723 0004 30000000 		.4byte	.LBE6
 14724 0008 86000000 		.4byte	.LBB10
 14725 000c 94000000 		.4byte	.LBE10
 14726 0010 00000000 		.4byte	0
 14727 0014 00000000 		.4byte	0
 14728 0018 1A000000 		.4byte	.LBB240
 14729 001c B4000000 		.4byte	.LBE240
 14730 0020 C6000000 		.4byte	.LBB451
 14731 0024 32100000 		.4byte	.LBE451
 14732 0028 00000000 		.4byte	0
 14733 002c 00000000 		.4byte	0
 14734 0030 F0000000 		.4byte	.LBB488
 14735 0034 7C010000 		.4byte	.LBE488
 14736 0038 04040000 		.4byte	.LBB537
 14737 003c 14040000 		.4byte	.LBE537
 14738 0040 00000000 		.4byte	0
 14739 0044 00000000 		.4byte	0
 14740 0048 F0000000 		.4byte	.LBB490
 14741 004c 1C010000 		.4byte	.LBE490
 14742 0050 04040000 		.4byte	.LBB494
 14743 0054 14040000 		.4byte	.LBE494
 14744 0058 00000000 		.4byte	0
 14745 005c 00000000 		.4byte	0
 14746 0060 E8010000 		.4byte	.LBB502
 14747 0064 60020000 		.4byte	.LBE502
 14748 0068 1C040000 		.4byte	.LBB539
 14749 006c 26040000 		.4byte	.LBE539
 14750 0070 00000000 		.4byte	0
 14751 0074 00000000 		.4byte	0
 14752 0078 E8010000 		.4byte	.LBB504
 14753 007c 14020000 		.4byte	.LBE504
 14754 0080 1C040000 		.4byte	.LBB508
 14755 0084 26040000 		.4byte	.LBE508
 14756 0088 00000000 		.4byte	0
 14757 008c 00000000 		.4byte	0
 14758 0090 60020000 		.4byte	.LBB510
 14759 0094 D8020000 		.4byte	.LBE510
 14760 0098 26040000 		.4byte	.LBB540
 14761 009c 30040000 		.4byte	.LBE540
 14762 00a0 00000000 		.4byte	0
 14763 00a4 00000000 		.4byte	0
 14764 00a8 60020000 		.4byte	.LBB512
 14765 00ac 8C020000 		.4byte	.LBE512
ARM GAS  C:\Users\JACOB-~1\AppData\Local\Temp\ccGLbPGC.s 			page 291


 14766 00b0 26040000 		.4byte	.LBB516
 14767 00b4 30040000 		.4byte	.LBE516
 14768 00b8 00000000 		.4byte	0
 14769 00bc 00000000 		.4byte	0
 14770 00c0 D8020000 		.4byte	.LBB518
 14771 00c4 6E030000 		.4byte	.LBE518
 14772 00c8 14040000 		.4byte	.LBB538
 14773 00cc 1C040000 		.4byte	.LBE538
 14774 00d0 00000000 		.4byte	0
 14775 00d4 00000000 		.4byte	0
 14776 00d8 D8020000 		.4byte	.LBB520
 14777 00dc 28030000 		.4byte	.LBE520
 14778 00e0 14040000 		.4byte	.LBB524
 14779 00e4 1C040000 		.4byte	.LBE524
 14780 00e8 00000000 		.4byte	0
 14781 00ec 00000000 		.4byte	0
 14782 00f0 7A030000 		.4byte	.LBB526
 14783 00f4 F8030000 		.4byte	.LBE526
 14784 00f8 00040000 		.4byte	.LBB536
 14785 00fc 02040000 		.4byte	.LBE536
 14786 0100 30040000 		.4byte	.LBB541
 14787 0104 3C040000 		.4byte	.LBE541
 14788 0108 00000000 		.4byte	0
 14789 010c 00000000 		.4byte	0
 14790 0110 7A030000 		.4byte	.LBB528
 14791 0114 9E030000 		.4byte	.LBE528
 14792 0118 30040000 		.4byte	.LBB533
 14793 011c 3C040000 		.4byte	.LBE533
 14794 0120 00000000 		.4byte	0
 14795 0124 00000000 		.4byte	0
 14796 0128 BA030000 		.4byte	.LBB529
 14797 012c F8030000 		.4byte	.LBE529
 14798 0130 00040000 		.4byte	.LBB532
 14799 0134 02040000 		.4byte	.LBE532
 14800 0138 00000000 		.4byte	0
 14801 013c 00000000 		.4byte	0
 14802 0140 00000000 		.4byte	.LFB64
 14803 0144 94000000 		.4byte	.LFE64
 14804 0148 00000000 		.4byte	.LFB65
 14805 014c 32100000 		.4byte	.LFE65
 14806 0150 00000000 		.4byte	.LFB66
 14807 0154 3C040000 		.4byte	.LFE66
 14808 0158 00000000 		.4byte	.LFB67
 14809 015c C8000000 		.4byte	.LFE67
 14810 0160 00000000 		.4byte	0
 14811 0164 00000000 		.4byte	0
 14812              		.section	.debug_line,"",%progbits
 14813              	.Ldebug_line0:
 14814 0000 02070000 		.section	.debug_str,"MS",%progbits,1
 14814      0200BC01 
 14814      00000201 
 14814      FB0E0D00 
 14814      01010101 
 14815              	.LASF4:
 14816 0000 5F5F696E 		.ascii	"__int16_t\000"
 14816      7431365F 
 14816      7400
ARM GAS  C:\Users\JACOB-~1\AppData\Local\Temp\ccGLbPGC.s 			page 292


 14817              	.LASF0:
 14818 000a 646F7562 		.ascii	"double\000"
 14818      6C6500
 14819              	.LASF41:
 14820 0011 795F6C61 		.ascii	"y_label\000"
 14820      62656C00 
 14821              	.LASF83:
 14822 0019 433A5C55 		.ascii	"C:\\Users\\Jacob-Laptop\\Documents\\PSoC Creator\\S"
 14822      73657273 
 14822      5C4A6163 
 14822      6F622D4C 
 14822      6170746F 
 14823 0047 656E696F 		.ascii	"enior Project Stuff Backup\\Senior Project Integrat"
 14823      72205072 
 14823      6F6A6563 
 14823      74205374 
 14823      75666620 
 14824 0079 65645C44 		.ascii	"ed\\Design01.cydsn\000"
 14824      65736967 
 14824      6E30312E 
 14824      63796473 
 14824      6E00
 14825              	.LASF78:
 14826 008b 666F6E74 		.ascii	"font\000"
 14826      00
 14827              	.LASF5:
 14828 0090 73686F72 		.ascii	"short int\000"
 14828      7420696E 
 14828      7400
 14829              	.LASF45:
 14830 009a 795F6D61 		.ascii	"y_max_step\000"
 14830      785F7374 
 14830      657000
 14831              	.LASF22:
 14832 00a5 636F6C6F 		.ascii	"color\000"
 14832      7200
 14833              	.LASF34:
 14834 00ab 68756E64 		.ascii	"hundredths\000"
 14834      72656474 
 14834      687300
 14835              	.LASF32:
 14836 00b6 6F6E6573 		.ascii	"ones\000"
 14836      00
 14837              	.LASF20:
 14838 00bb 6C6F6E67 		.ascii	"long double\000"
 14838      20646F75 
 14838      626C6500 
 14839              	.LASF6:
 14840 00c7 5F5F7569 		.ascii	"__uint16_t\000"
 14840      6E743136 
 14840      5F7400
 14841              	.LASF69:
 14842 00d2 7373697A 		.ascii	"ssizetype\000"
 14842      65747970 
 14842      6500
 14843              	.LASF46:
 14844 00dc 785F6D61 		.ascii	"x_max_step\000"
ARM GAS  C:\Users\JACOB-~1\AppData\Local\Temp\ccGLbPGC.s 			page 293


 14844      785F7374 
 14844      657000
 14845              	.LASF24:
 14846 00e7 696E6465 		.ascii	"index\000"
 14846      7800
 14847              	.LASF18:
 14848 00ed 666C6F61 		.ascii	"float\000"
 14848      7400
 14849              	.LASF11:
 14850 00f3 6C6F6E67 		.ascii	"long long int\000"
 14850      206C6F6E 
 14850      6720696E 
 14850      7400
 14851              	.LASF59:
 14852 0101 666F6E74 		.ascii	"font_period\000"
 14852      5F706572 
 14852      696F6400 
 14853              	.LASF38:
 14854 010d 795F6D61 		.ascii	"y_max\000"
 14854      7800
 14855              	.LASF9:
 14856 0113 6C6F6E67 		.ascii	"long int\000"
 14856      20696E74 
 14856      00
 14857              	.LASF31:
 14858 011c 74656E73 		.ascii	"tens\000"
 14858      00
 14859              	.LASF26:
 14860 0121 73747269 		.ascii	"string\000"
 14860      6E6700
 14861              	.LASF3:
 14862 0128 5F5F7569 		.ascii	"__uint8_t\000"
 14862      6E74385F 
 14862      7400
 14863              	.LASF28:
 14864 0132 64726177 		.ascii	"draw_string\000"
 14864      5F737472 
 14864      696E6700 
 14865              	.LASF81:
 14866 013e 474E5520 		.ascii	"GNU C11 5.4.1 20160609 (release) [ARM/embedded-5-br"
 14866      43313120 
 14866      352E342E 
 14866      31203230 
 14866      31363036 
 14867 0171 616E6368 		.ascii	"anch revision 237715] -mcpu=cortex-m3 -mthumb -g -O"
 14867      20726576 
 14867      6973696F 
 14867      6E203233 
 14867      37373135 
 14868 01a4 33202D66 		.ascii	"3 -ffunction-sections -ffat-lto-objects\000"
 14868      66756E63 
 14868      74696F6E 
 14868      2D736563 
 14868      74696F6E 
 14869              	.LASF36:
 14870 01cc 785F6F66 		.ascii	"x_offset\000"
 14870      66736574 
ARM GAS  C:\Users\JACOB-~1\AppData\Local\Temp\ccGLbPGC.s 			page 294


 14870      00
 14871              	.LASF2:
 14872 01d5 756E7369 		.ascii	"unsigned char\000"
 14872      676E6564 
 14872      20636861 
 14872      7200
 14873              	.LASF80:
 14874 01e3 73707269 		.ascii	"sprintf\000"
 14874      6E746600 
 14875              	.LASF1:
 14876 01eb 7369676E 		.ascii	"signed char\000"
 14876      65642063 
 14876      68617200 
 14877              	.LASF42:
 14878 01f7 785F6C61 		.ascii	"x_label\000"
 14878      62656C00 
 14879              	.LASF12:
 14880 01ff 6C6F6E67 		.ascii	"long long unsigned int\000"
 14880      206C6F6E 
 14880      6720756E 
 14880      7369676E 
 14880      65642069 
 14881              	.LASF25:
 14882 0216 68656967 		.ascii	"height\000"
 14882      687400
 14883              	.LASF13:
 14884 021d 756E7369 		.ascii	"unsigned int\000"
 14884      676E6564 
 14884      20696E74 
 14884      00
 14885              	.LASF16:
 14886 022a 75696E74 		.ascii	"uint16_t\000"
 14886      31365F74 
 14886      00
 14887              	.LASF10:
 14888 0233 6C6F6E67 		.ascii	"long unsigned int\000"
 14888      20756E73 
 14888      69676E65 
 14888      6420696E 
 14888      7400
 14889              	.LASF44:
 14890 0245 73747269 		.ascii	"string_throwaway_x\000"
 14890      6E675F74 
 14890      68726F77 
 14890      61776179 
 14890      5F7800
 14891              	.LASF7:
 14892 0258 73686F72 		.ascii	"short unsigned int\000"
 14892      7420756E 
 14892      7369676E 
 14892      65642069 
 14892      6E7400
 14893              	.LASF48:
 14894 026b 64726177 		.ascii	"draw_line\000"
 14894      5F6C696E 
 14894      6500
 14895              	.LASF19:
ARM GAS  C:\Users\JACOB-~1\AppData\Local\Temp\ccGLbPGC.s 			page 295


 14896 0275 63686172 		.ascii	"char\000"
 14896      00
 14897              	.LASF17:
 14898 027a 696E7433 		.ascii	"int32_t\000"
 14898      325F7400 
 14899              	.LASF15:
 14900 0282 696E7431 		.ascii	"int16_t\000"
 14900      365F7400 
 14901              	.LASF49:
 14902 028a 666F6E74 		.ascii	"font_0\000"
 14902      5F3000
 14903              	.LASF50:
 14904 0291 666F6E74 		.ascii	"font_1\000"
 14904      5F3100
 14905              	.LASF51:
 14906 0298 666F6E74 		.ascii	"font_2\000"
 14906      5F3200
 14907              	.LASF52:
 14908 029f 666F6E74 		.ascii	"font_3\000"
 14908      5F3300
 14909              	.LASF53:
 14910 02a6 666F6E74 		.ascii	"font_4\000"
 14910      5F3400
 14911              	.LASF54:
 14912 02ad 666F6E74 		.ascii	"font_5\000"
 14912      5F3500
 14913              	.LASF55:
 14914 02b4 666F6E74 		.ascii	"font_6\000"
 14914      5F3600
 14915              	.LASF56:
 14916 02bb 666F6E74 		.ascii	"font_7\000"
 14916      5F3700
 14917              	.LASF57:
 14918 02c2 666F6E74 		.ascii	"font_8\000"
 14918      5F3800
 14919              	.LASF58:
 14920 02c9 666F6E74 		.ascii	"font_9\000"
 14920      5F3900
 14921              	.LASF27:
 14922 02d0 785F636F 		.ascii	"x_coor\000"
 14922      6F7200
 14923              	.LASF79:
 14924 02d7 64726177 		.ascii	"draw_pixel\000"
 14924      5F706978 
 14924      656C00
 14925              	.LASF47:
 14926 02e2 64726177 		.ascii	"draw_character\000"
 14926      5F636861 
 14926      72616374 
 14926      657200
 14927              	.LASF33:
 14928 02f1 74656E74 		.ascii	"tenths\000"
 14928      687300
 14929              	.LASF71:
 14930 02f8 666F6E74 		.ascii	"font_A\000"
 14930      5F4100
 14931              	.LASF72:
ARM GAS  C:\Users\JACOB-~1\AppData\Local\Temp\ccGLbPGC.s 			page 296


 14932 02ff 666F6E74 		.ascii	"font_B\000"
 14932      5F4200
 14933              	.LASF73:
 14934 0306 666F6E74 		.ascii	"font_C\000"
 14934      5F4300
 14935              	.LASF74:
 14936 030d 666F6E74 		.ascii	"font_D\000"
 14936      5F4400
 14937              	.LASF75:
 14938 0314 666F6E74 		.ascii	"font_E\000"
 14938      5F4500
 14939              	.LASF76:
 14940 031b 666F6E74 		.ascii	"font_F\000"
 14940      5F4600
 14941              	.LASF77:
 14942 0322 666F6E74 		.ascii	"font_G\000"
 14942      5F4700
 14943              	.LASF23:
 14944 0329 63686172 		.ascii	"character\000"
 14944      61637465 
 14944      7200
 14945              	.LASF29:
 14946 0333 64726177 		.ascii	"draw_number\000"
 14946      5F6E756D 
 14946      62657200 
 14947              	.LASF82:
 14948 033f 666F6E74 		.ascii	"font.c\000"
 14948      2E6300
 14949              	.LASF43:
 14950 0346 73747269 		.ascii	"string_throwaway_y\000"
 14950      6E675F74 
 14950      68726F77 
 14950      61776179 
 14950      5F7900
 14951              	.LASF40:
 14952 0359 795F6D61 		.ascii	"y_max_pixel\000"
 14952      785F7069 
 14952      78656C00 
 14953              	.LASF8:
 14954 0365 5F5F696E 		.ascii	"__int32_t\000"
 14954      7433325F 
 14954      7400
 14955              	.LASF14:
 14956 036f 75696E74 		.ascii	"uint8_t\000"
 14956      385F7400 
 14957              	.LASF21:
 14958 0377 73697A65 		.ascii	"sizetype\000"
 14958      74797065 
 14958      00
 14959              	.LASF60:
 14960 0380 666F6E74 		.ascii	"font_a\000"
 14960      5F6100
 14961              	.LASF61:
 14962 0387 666F6E74 		.ascii	"font_b\000"
 14962      5F6200
 14963              	.LASF62:
 14964 038e 666F6E74 		.ascii	"font_c\000"
ARM GAS  C:\Users\JACOB-~1\AppData\Local\Temp\ccGLbPGC.s 			page 297


 14964      5F6300
 14965              	.LASF63:
 14966 0395 666F6E74 		.ascii	"font_d\000"
 14966      5F6400
 14967              	.LASF64:
 14968 039c 666F6E74 		.ascii	"font_e\000"
 14968      5F6500
 14969              	.LASF65:
 14970 03a3 666F6E74 		.ascii	"font_f\000"
 14970      5F6600
 14971              	.LASF66:
 14972 03aa 666F6E74 		.ascii	"font_g\000"
 14972      5F6700
 14973              	.LASF67:
 14974 03b1 666F6E74 		.ascii	"font_h\000"
 14974      5F6800
 14975              	.LASF68:
 14976 03b8 666F6E74 		.ascii	"font_i\000"
 14976      5F6900
 14977              	.LASF70:
 14978 03bf 666F6E74 		.ascii	"font_j\000"
 14978      5F6A00
 14979              	.LASF30:
 14980 03c6 6E756D62 		.ascii	"number\000"
 14980      657200
 14981              	.LASF84:
 14982 03cd 49544D5F 		.ascii	"ITM_RxBuffer\000"
 14982      52784275 
 14982      66666572 
 14982      00
 14983              	.LASF35:
 14984 03da 74686F75 		.ascii	"thousandths\000"
 14984      73616E64 
 14984      74687300 
 14985              	.LASF39:
 14986 03e6 795F6D61 		.ascii	"y_max_int\000"
 14986      785F696E 
 14986      7400
 14987              	.LASF37:
 14988 03f0 64726177 		.ascii	"draw_coordinates\000"
 14988      5F636F6F 
 14988      7264696E 
 14988      61746573 
 14988      00
 14989              		.ident	"GCC: (GNU Tools for ARM Embedded Processors) 5.4.1 20160609 (release) [ARM/embedded-5-bran
