ARM GAS  C:\Users\legoc\AppData\Local\Temp\cc4EoOj2.s 			page 1


   1              		.syntax unified
   2              		.cpu cortex-m3
   3              		.fpu softvfp
   4              		.eabi_attribute 20, 1
   5              		.eabi_attribute 21, 1
   6              		.eabi_attribute 23, 3
   7              		.eabi_attribute 24, 1
   8              		.eabi_attribute 25, 1
   9              		.eabi_attribute 26, 1
  10              		.eabi_attribute 30, 2
  11              		.eabi_attribute 34, 1
  12              		.eabi_attribute 18, 4
  13              		.thumb
  14              		.syntax unified
  15              		.file	"font.c"
  16              		.text
  17              	.Ltext0:
  18              		.cfi_sections	.debug_frame
  19              		.section	.text.draw_character,"ax",%progbits
  20              		.align	2
  21              		.global	draw_character
  22              		.thumb
  23              		.thumb_func
  24              		.type	draw_character, %function
  25              	draw_character:
  26              	.LFB1:
  27              		.file 1 "font.c"
   1:font.c        **** // Steven Andresen
   2:font.c        **** // Senior Project Spring 2019
   3:font.c        **** 
   4:font.c        **** #include "project.h"
   5:font.c        **** #include "font.h"
   6:font.c        **** #include "screen.h"
   7:font.c        **** #include "strings.h"
   8:font.c        **** #include "string.h"
   9:font.c        **** #include "stdio.h"
  10:font.c        **** #include "stdlib.h"
  11:font.c        **** // How to read
  12:font.c        **** //  // Character, integer code
  13:font.c        **** //  # of array indecies to next number
  14:font.c        **** 
  15:font.c        **** //  # of pixels in line 0, 
  16:font.c        **** //	(index of pixels from 0-4),
  17:font.c        **** //	# of pixels in line 1...
  18:font.c        **** 
  19:font.c        **** //  //Number...
  20:font.c        **** 
  21:font.c        **** static const uint8_t font[] = 
  22:font.c        **** {
  23:font.c        ****     // Font Height
  24:font.c        ****     7,
  25:font.c        ****     
  26:font.c        ****     // 0, 0
  27:font.c        ****     26,
  28:font.c        ****     
  29:font.c        ****     3,
  30:font.c        ****     1,2,3,
ARM GAS  C:\Users\legoc\AppData\Local\Temp\cc4EoOj2.s 			page 2


  31:font.c        ****     2,
  32:font.c        ****     0,4,
  33:font.c        ****     3,
  34:font.c        ****     0,1,4,
  35:font.c        ****     3,
  36:font.c        ****     0,2,4,
  37:font.c        ****     3,
  38:font.c        ****     0,3,4,
  39:font.c        ****     2,
  40:font.c        ****     0,4,
  41:font.c        ****     3,
  42:font.c        ****     1,2,3,
  43:font.c        ****     
  44:font.c        ****     // 1, 1
  45:font.c        ****     19,
  46:font.c        ****     
  47:font.c        ****     5,
  48:font.c        ****     0,1,2,3,4,
  49:font.c        ****     1,
  50:font.c        ****     2,
  51:font.c        ****     1,
  52:font.c        ****     2,
  53:font.c        ****     1,
  54:font.c        ****     2,
  55:font.c        ****     1,
  56:font.c        ****     2,
  57:font.c        ****     2,
  58:font.c        ****     1,2,
  59:font.c        ****     1,
  60:font.c        ****     2,
  61:font.c        ****     
  62:font.c        ****     // 2, 2
  63:font.c        ****     23,
  64:font.c        ****     
  65:font.c        ****     5,
  66:font.c        ****     0,1,2,3,4,
  67:font.c        ****     2,
  68:font.c        ****     0,4,
  69:font.c        ****     1,
  70:font.c        ****     1,
  71:font.c        ****     2,
  72:font.c        ****     2,3,
  73:font.c        ****     1,
  74:font.c        ****     4,
  75:font.c        ****     2,
  76:font.c        ****     0,4,
  77:font.c        ****     3,
  78:font.c        ****     1,2,3,
  79:font.c        ****     
  80:font.c        ****     // 3, 3
  81:font.c        ****     21,
  82:font.c        ****     
  83:font.c        ****     3,
  84:font.c        ****     1,2,3,
  85:font.c        ****     2,
  86:font.c        ****     0,4,
  87:font.c        ****     1,
ARM GAS  C:\Users\legoc\AppData\Local\Temp\cc4EoOj2.s 			page 3


  88:font.c        ****     4,
  89:font.c        ****     2,
  90:font.c        ****     2,3,
  91:font.c        ****     1,
  92:font.c        ****     4,
  93:font.c        ****     2,
  94:font.c        ****     0,4,
  95:font.c        ****     3,
  96:font.c        ****     1,2,3,
  97:font.c        ****     
  98:font.c        ****     // 4, 4
  99:font.c        ****     22,
 100:font.c        ****     
 101:font.c        ****     1,
 102:font.c        ****     4,
 103:font.c        ****     1,
 104:font.c        ****     4,
 105:font.c        ****     5,
 106:font.c        ****     0,1,2,3,4,
 107:font.c        ****     2,
 108:font.c        ****     0,4,
 109:font.c        ****     2,
 110:font.c        ****     1,4,
 111:font.c        ****     2,
 112:font.c        ****     2,4,
 113:font.c        ****     2,
 114:font.c        ****     3,4,
 115:font.c        ****     
 116:font.c        ****     // 5, 5
 117:font.c        ****     24,
 118:font.c        ****     
 119:font.c        ****     3,
 120:font.c        ****     1,2,3,
 121:font.c        ****     2,
 122:font.c        ****     0,4,
 123:font.c        ****     1,
 124:font.c        ****     4,
 125:font.c        ****     1,
 126:font.c        ****     4,
 127:font.c        ****     4,
 128:font.c        ****     0,1,2,3,
 129:font.c        ****     1,
 130:font.c        ****     0,
 131:font.c        ****     5,
 132:font.c        ****     0,1,2,3,4,
 133:font.c        ****     
 134:font.c        ****     // 6, 6
 135:font.c        ****     22,
 136:font.c        ****     
 137:font.c        ****     3,
 138:font.c        ****     1,2,3,
 139:font.c        ****     2,
 140:font.c        ****     0,4,
 141:font.c        ****     2,
 142:font.c        ****     0,4,
 143:font.c        ****     4,
 144:font.c        ****     0,1,2,3,
ARM GAS  C:\Users\legoc\AppData\Local\Temp\cc4EoOj2.s 			page 4


 145:font.c        ****     1,
 146:font.c        ****     0,
 147:font.c        ****     1,
 148:font.c        ****     1,
 149:font.c        ****     2,
 150:font.c        ****     2,3,
 151:font.c        ****     
 152:font.c        ****     // 7, 7
 153:font.c        ****     19,
 154:font.c        ****     
 155:font.c        ****     1,
 156:font.c        ****     2,
 157:font.c        ****     1,
 158:font.c        ****     2,
 159:font.c        ****     1,
 160:font.c        ****     2,
 161:font.c        ****     1,
 162:font.c        ****     3,
 163:font.c        ****     1,
 164:font.c        ****     4,
 165:font.c        ****     2,
 166:font.c        ****     0,4,
 167:font.c        ****     5,
 168:font.c        ****     0,1,2,3,4,
 169:font.c        ****     
 170:font.c        ****     // 8, 8
 171:font.c        ****     24,
 172:font.c        ****     
 173:font.c        ****     3,
 174:font.c        ****     1,2,3,
 175:font.c        ****     2,
 176:font.c        ****     0,4,
 177:font.c        ****     2,
 178:font.c        ****     0,4,
 179:font.c        ****     3,
 180:font.c        ****     1,2,3,
 181:font.c        ****     2,
 182:font.c        ****     0,4,
 183:font.c        ****     2,
 184:font.c        ****     0,4,
 185:font.c        ****     3,
 186:font.c        ****     1,2,3,
 187:font.c        ****     
 188:font.c        ****     // 9, 9
 189:font.c        ****     22,
 190:font.c        ****     
 191:font.c        ****     2,
 192:font.c        ****     1,2,
 193:font.c        ****     1,
 194:font.c        ****     3,
 195:font.c        ****     1,
 196:font.c        ****     4,
 197:font.c        ****     4,
 198:font.c        ****     1,2,3,4,
 199:font.c        ****     2,
 200:font.c        ****     0,4,
 201:font.c        ****     2,
ARM GAS  C:\Users\legoc\AppData\Local\Temp\cc4EoOj2.s 			page 5


 202:font.c        ****     0,4,
 203:font.c        ****     3,
 204:font.c        ****     1,2,3,
 205:font.c        ****     
 206:font.c        ****     // A, 10
 207:font.c        ****     25,
 208:font.c        ****     
 209:font.c        ****     2,
 210:font.c        ****     0,4,
 211:font.c        ****     2,
 212:font.c        ****     0,4,
 213:font.c        ****     2,
 214:font.c        ****     0,4,
 215:font.c        ****     2,
 216:font.c        ****     0,4,
 217:font.c        ****     5,
 218:font.c        ****     0,1,2,3,4,
 219:font.c        ****     2,
 220:font.c        ****     0,4,
 221:font.c        ****     3,
 222:font.c        ****     1,2,3,
 223:font.c        ****     
 224:font.c        ****     // B, 11
 225:font.c        ****     27,
 226:font.c        ****     
 227:font.c        ****     4,
 228:font.c        ****     0,1,2,3,
 229:font.c        ****     2,
 230:font.c        ****     0,4,
 231:font.c        ****     2,
 232:font.c        ****     0,4,
 233:font.c        ****     2,
 234:font.c        ****     0,4,
 235:font.c        ****     4,
 236:font.c        ****     0,1,2,3,
 237:font.c        ****     2,
 238:font.c        ****     0,4,
 239:font.c        ****     4,
 240:font.c        ****     0,1,2,3,
 241:font.c        ****     
 242:font.c        ****     // C, 12
 243:font.c        ****     20,
 244:font.c        ****     
 245:font.c        ****     3,
 246:font.c        ****     1,2,3,
 247:font.c        ****     2,
 248:font.c        ****     0,4,
 249:font.c        ****     1,
 250:font.c        ****     0,
 251:font.c        ****     1,
 252:font.c        ****     0,
 253:font.c        ****     1,
 254:font.c        ****     0,
 255:font.c        ****     2,
 256:font.c        ****     0,4,
 257:font.c        ****     3,
 258:font.c        ****     1,2,3,
ARM GAS  C:\Users\legoc\AppData\Local\Temp\cc4EoOj2.s 			page 6


 259:font.c        ****     
 260:font.c        ****     // D, 13
 261:font.c        ****     25,
 262:font.c        ****     
 263:font.c        ****     4,
 264:font.c        ****     0,1,2,3,
 265:font.c        ****     2,
 266:font.c        ****     0,4,
 267:font.c        ****     2,
 268:font.c        ****     0,4,
 269:font.c        ****     2,
 270:font.c        ****     0,4,
 271:font.c        ****     2,
 272:font.c        ****     0,4,
 273:font.c        ****     2,
 274:font.c        ****     0,4,
 275:font.c        ****     4,
 276:font.c        ****     0,1,2,3,
 277:font.c        ****     
 278:font.c        ****     // E, 14
 279:font.c        ****     25,
 280:font.c        ****     
 281:font.c        ****     5,
 282:font.c        ****     0,1,2,3,4,
 283:font.c        ****     1,
 284:font.c        ****     0,
 285:font.c        ****     1,
 286:font.c        ****     0,
 287:font.c        ****     4,
 288:font.c        ****     0,1,2,3,
 289:font.c        ****     1,
 290:font.c        ****     0,
 291:font.c        ****     1,
 292:font.c        ****     0,
 293:font.c        ****     5,
 294:font.c        ****     0,1,2,3,4,
 295:font.c        ****     
 296:font.c        ****     // F, 15
 297:font.c        ****     20,
 298:font.c        ****     
 299:font.c        ****     1,
 300:font.c        ****     0,
 301:font.c        ****     1,
 302:font.c        ****     0,
 303:font.c        ****     1,
 304:font.c        ****     0,
 305:font.c        ****     1,
 306:font.c        ****     0,
 307:font.c        ****     3,
 308:font.c        ****     0,1,2,
 309:font.c        ****     1,
 310:font.c        ****     0,
 311:font.c        ****     5,
 312:font.c        ****     0,1,2,3,4,
 313:font.c        ****     
 314:font.c        ****     // G, 16
 315:font.c        ****     24,
ARM GAS  C:\Users\legoc\AppData\Local\Temp\cc4EoOj2.s 			page 7


 316:font.c        ****     
 317:font.c        ****     3,
 318:font.c        ****     1,2,3,
 319:font.c        ****     2,
 320:font.c        ****     0,4,
 321:font.c        ****     2,
 322:font.c        ****     0,4,
 323:font.c        ****     2,
 324:font.c        ****     0,4,
 325:font.c        ****     3,
 326:font.c        ****     0,3,4,
 327:font.c        ****     1,
 328:font.c        ****     0,
 329:font.c        ****     4,
 330:font.c        ****     1,2,3,4,
 331:font.c        ****     
 332:font.c        ****     // H, 17
 333:font.c        ****     24,
 334:font.c        ****     
 335:font.c        ****     2,
 336:font.c        ****     0,4,
 337:font.c        ****     2,
 338:font.c        ****     0,4,
 339:font.c        ****     2,
 340:font.c        ****     0,4,
 341:font.c        ****     2,
 342:font.c        ****     0,4,
 343:font.c        ****     5,
 344:font.c        ****     0,1,2,3,4,
 345:font.c        ****     2,
 346:font.c        ****     0,4,
 347:font.c        ****     2,
 348:font.c        ****     0,4,
 349:font.c        ****     
 350:font.c        ****     // I, 18
 351:font.c        ****     18,
 352:font.c        ****     
 353:font.c        ****     3,
 354:font.c        ****     1,2,3,
 355:font.c        ****     1,
 356:font.c        ****     2,
 357:font.c        ****     1,
 358:font.c        ****     2,
 359:font.c        ****     1,
 360:font.c        ****     2,
 361:font.c        ****     1,
 362:font.c        ****     2,
 363:font.c        ****     1,
 364:font.c        ****     2,
 365:font.c        ****     3,
 366:font.c        ****     1,2,3,
 367:font.c        ****     
 368:font.c        ****     // J, 19
 369:font.c        ****     17,
 370:font.c        ****     
 371:font.c        ****     3,
 372:font.c        ****     1,2,3,
ARM GAS  C:\Users\legoc\AppData\Local\Temp\cc4EoOj2.s 			page 8


 373:font.c        ****     2,
 374:font.c        ****     0,4,
 375:font.c        ****     1,
 376:font.c        ****     4,
 377:font.c        ****     1,
 378:font.c        ****     4,
 379:font.c        ****     1,
 380:font.c        ****     4,
 381:font.c        ****     1,
 382:font.c        ****     4,
 383:font.c        ****     1,
 384:font.c        ****     4,
 385:font.c        ****     
 386:font.c        ****     // K, 20
 387:font.c        ****     22,
 388:font.c        ****     
 389:font.c        ****     2,
 390:font.c        ****     0,4,
 391:font.c        ****     2,
 392:font.c        ****     0,4,
 393:font.c        ****     2,
 394:font.c        ****     0,4,
 395:font.c        ****     2,
 396:font.c        ****     0,3,
 397:font.c        ****     3,
 398:font.c        ****     0,1,2,
 399:font.c        ****     2,
 400:font.c        ****     0,3,
 401:font.c        ****     2,
 402:font.c        ****     0,4,
 403:font.c        ****     
 404:font.c        ****     // L, 21
 405:font.c        ****     18,
 406:font.c        ****     
 407:font.c        ****     5,
 408:font.c        ****     0,1,2,3,4,
 409:font.c        ****     1,
 410:font.c        ****     0,
 411:font.c        ****     1,
 412:font.c        ****     0,
 413:font.c        ****     1,
 414:font.c        ****     0,
 415:font.c        ****     1,
 416:font.c        ****     0,
 417:font.c        ****     1,
 418:font.c        ****     0,
 419:font.c        ****     1,
 420:font.c        ****     0,
 421:font.c        ****     
 422:font.c        ****     // M, 22
 423:font.c        ****     24,
 424:font.c        ****     
 425:font.c        ****     2,
 426:font.c        ****     0,4,
 427:font.c        ****     2,
 428:font.c        ****     0,4,
 429:font.c        ****     2,
ARM GAS  C:\Users\legoc\AppData\Local\Temp\cc4EoOj2.s 			page 9


 430:font.c        ****     0,4,
 431:font.c        ****     2,
 432:font.c        ****     0,4,
 433:font.c        ****     3,
 434:font.c        ****     0,2,4,
 435:font.c        ****     4,
 436:font.c        ****     0,1,3,4,
 437:font.c        ****     2,
 438:font.c        ****     0,4,
 439:font.c        ****     
 440:font.c        ****     // N, 23
 441:font.c        ****     24,
 442:font.c        ****     
 443:font.c        ****     2,
 444:font.c        ****     0,4,
 445:font.c        ****     2,
 446:font.c        ****     0,4,
 447:font.c        ****     2,
 448:font.c        ****     0,4,
 449:font.c        ****     3,
 450:font.c        ****     0,3,4,
 451:font.c        ****     3,
 452:font.c        ****     0,2,4,
 453:font.c        ****     3,
 454:font.c        ****     0,1,4,
 455:font.c        ****     2,
 456:font.c        ****     0,4,
 457:font.c        ****     
 458:font.c        ****     // O, 24
 459:font.c        ****     23,
 460:font.c        ****     
 461:font.c        ****     3,
 462:font.c        ****     1,2,3,
 463:font.c        ****     2,
 464:font.c        ****     0,4,
 465:font.c        ****     2,
 466:font.c        ****     0,4,
 467:font.c        ****     2,
 468:font.c        ****     0,4,
 469:font.c        ****     2,
 470:font.c        ****     0,4,
 471:font.c        ****     2,
 472:font.c        ****     0,4,
 473:font.c        ****     3,
 474:font.c        ****     1,2,3,
 475:font.c        ****     
 476:font.c        ****     // P, 25
 477:font.c        ****     21,
 478:font.c        ****     
 479:font.c        ****     1,
 480:font.c        ****     0,
 481:font.c        ****     1,
 482:font.c        ****     0,
 483:font.c        ****     1,
 484:font.c        ****     0,
 485:font.c        ****     1,
 486:font.c        ****     0,
ARM GAS  C:\Users\legoc\AppData\Local\Temp\cc4EoOj2.s 			page 10


 487:font.c        ****     4,
 488:font.c        ****     0,1,2,3,
 489:font.c        ****     2,
 490:font.c        ****     0,4,
 491:font.c        ****     4,
 492:font.c        ****     0,1,2,3,
 493:font.c        ****     
 494:font.c        ****     // Q, 26
 495:font.c        ****     23,
 496:font.c        ****     
 497:font.c        ****     3,
 498:font.c        ****     1,2,4,
 499:font.c        ****     2,
 500:font.c        ****     0,3,
 501:font.c        ****     2,
 502:font.c        ****     0,4,
 503:font.c        ****     2,
 504:font.c        ****     0,4,
 505:font.c        ****     2,
 506:font.c        ****     0,4,
 507:font.c        ****     2,
 508:font.c        ****     0,4,
 509:font.c        ****     3,
 510:font.c        ****     1,2,3,
 511:font.c        ****     
 512:font.c        ****     // R, 27
 513:font.c        ****     25,
 514:font.c        ****     
 515:font.c        ****     2,
 516:font.c        ****     0,4,
 517:font.c        ****     2,
 518:font.c        ****     0,4,
 519:font.c        ****     2,
 520:font.c        ****     0,4,
 521:font.c        ****     2,
 522:font.c        ****     0,4,
 523:font.c        ****     4,
 524:font.c        ****     0,1,2,3,
 525:font.c        ****     2,
 526:font.c        ****     0,4,
 527:font.c        ****     4,
 528:font.c        ****     0,1,2,3,
 529:font.c        ****     
 530:font.c        ****     // S, 28
 531:font.c        ****     22,
 532:font.c        ****     
 533:font.c        ****     3,
 534:font.c        ****     1,2,3,
 535:font.c        ****     2,
 536:font.c        ****     0,4,
 537:font.c        ****     1,
 538:font.c        ****     4,
 539:font.c        ****     1,
 540:font.c        ****     4,
 541:font.c        ****     3,
 542:font.c        ****     1,2,3,
 543:font.c        ****     1,
ARM GAS  C:\Users\legoc\AppData\Local\Temp\cc4EoOj2.s 			page 11


 544:font.c        ****     0,
 545:font.c        ****     4,
 546:font.c        ****     1,2,3,4,
 547:font.c        ****     
 548:font.c        ****     // T, 29
 549:font.c        ****     18,
 550:font.c        ****     
 551:font.c        ****     1,
 552:font.c        ****     2,
 553:font.c        ****     1,
 554:font.c        ****     2,
 555:font.c        ****     1,
 556:font.c        ****     2,
 557:font.c        ****     1,
 558:font.c        ****     2,
 559:font.c        ****     1,
 560:font.c        ****     2,
 561:font.c        ****     1,
 562:font.c        ****     2,
 563:font.c        ****     5,
 564:font.c        ****     0,1,2,3,4,
 565:font.c        ****     
 566:font.c        ****     // U, 30
 567:font.c        ****     22,
 568:font.c        ****     
 569:font.c        ****     3,
 570:font.c        ****     1,2,3,
 571:font.c        ****     2,
 572:font.c        ****     0,4,
 573:font.c        ****     2,
 574:font.c        ****     0,4,
 575:font.c        ****     2,
 576:font.c        ****     0,4,
 577:font.c        ****     2,
 578:font.c        ****     0,4,
 579:font.c        ****     2,
 580:font.c        ****     0,4,
 581:font.c        ****     2,
 582:font.c        ****     0,4,
 583:font.c        ****     
 584:font.c        ****     // V, 31
 585:font.c        ****     20,
 586:font.c        ****     
 587:font.c        ****     1,
 588:font.c        ****     2,
 589:font.c        ****     2,
 590:font.c        ****     1,3,
 591:font.c        ****     2,
 592:font.c        ****     1,3,
 593:font.c        ****     2,
 594:font.c        ****     0,4,
 595:font.c        ****     2,
 596:font.c        ****     0,4,
 597:font.c        ****     2,
 598:font.c        ****     0,4,
 599:font.c        ****     2,
 600:font.c        ****     0,4,
ARM GAS  C:\Users\legoc\AppData\Local\Temp\cc4EoOj2.s 			page 12


 601:font.c        ****     
 602:font.c        ****     // W, 32
 603:font.c        ****     24,
 604:font.c        ****     
 605:font.c        ****     2,
 606:font.c        ****     0,4,
 607:font.c        ****     4,
 608:font.c        ****     0,1,3,4,
 609:font.c        ****     3,
 610:font.c        ****     0,2,4,
 611:font.c        ****     2,
 612:font.c        ****     0,4,
 613:font.c        ****     2,
 614:font.c        ****     0,4,
 615:font.c        ****     2,
 616:font.c        ****     0,4,
 617:font.c        ****     2,
 618:font.c        ****     0,4,
 619:font.c        ****     
 620:font.c        ****     // X, 33
 621:font.c        ****     20,
 622:font.c        ****     
 623:font.c        ****     2,
 624:font.c        ****     0,4,
 625:font.c        ****     2,
 626:font.c        ****     0,4,
 627:font.c        ****     2,
 628:font.c        ****     0,4,
 629:font.c        ****     2,
 630:font.c        ****     1,3,
 631:font.c        ****     1,
 632:font.c        ****     2,
 633:font.c        ****     2,
 634:font.c        ****     1,3,
 635:font.c        ****     2,
 636:font.c        ****     0,4,
 637:font.c        ****     
 638:font.c        ****     // Y, 34
 639:font.c        ****     16,
 640:font.c        ****     
 641:font.c        ****     1,
 642:font.c        ****     2,
 643:font.c        ****     1,
 644:font.c        ****     2,
 645:font.c        ****     1,
 646:font.c        ****     2,
 647:font.c        ****     1,
 648:font.c        ****     2,
 649:font.c        ****     1,
 650:font.c        ****     2,
 651:font.c        ****     2,
 652:font.c        ****     1,3,
 653:font.c        ****     2,
 654:font.c        ****     0,4,
 655:font.c        ****     
 656:font.c        ****     // Z, 35
 657:font.c        ****     22,
ARM GAS  C:\Users\legoc\AppData\Local\Temp\cc4EoOj2.s 			page 13


 658:font.c        ****     
 659:font.c        ****     5,
 660:font.c        ****     0,1,2,3,4,
 661:font.c        ****     1,
 662:font.c        ****     0,
 663:font.c        ****     1,
 664:font.c        ****     1,
 665:font.c        ****     1,
 666:font.c        ****     2,
 667:font.c        ****     1,
 668:font.c        ****     3,
 669:font.c        ****     1,
 670:font.c        ****     4,
 671:font.c        ****     5,
 672:font.c        ****     0,1,2,3,4,
 673:font.c        ****     
 674:font.c        **** //    // a, 36
 675:font.c        **** //    21,
 676:font.c        **** //    
 677:font.c        **** //    4,
 678:font.c        **** //    1,2,3,4,
 679:font.c        **** //    2,
 680:font.c        **** //    0,4,
 681:font.c        **** //    4,
 682:font.c        **** //    1,2,3,4,
 683:font.c        **** //    1,
 684:font.c        **** //    4,
 685:font.c        **** //    3,
 686:font.c        **** //    1,2,3,
 687:font.c        **** //    0,
 688:font.c        **** //    
 689:font.c        **** //    0,
 690:font.c        **** //    
 691:font.c        **** //    // b, 37
 692:font.c        **** //    24,
 693:font.c        **** //    
 694:font.c        **** //    4,
 695:font.c        **** //    0,1,2,3,
 696:font.c        **** //    2,
 697:font.c        **** //    0,4,
 698:font.c        **** //    2,
 699:font.c        **** //    0,4,
 700:font.c        **** //    3,
 701:font.c        **** //    0,1,4,
 702:font.c        **** //    3,
 703:font.c        **** //    0,2,3,
 704:font.c        **** //    1,
 705:font.c        **** //    0,
 706:font.c        **** //    1,
 707:font.c        **** //    0,   
 708:font.c        **** //
 709:font.c        **** //    // c, 38
 710:font.c        **** //    21,
 711:font.c        **** //    
 712:font.c        **** //    3,
 713:font.c        **** //    1,2,3,
 714:font.c        **** //    2,
ARM GAS  C:\Users\legoc\AppData\Local\Temp\cc4EoOj2.s 			page 14


 715:font.c        **** //    0,4,
 716:font.c        **** //    1,
 717:font.c        **** //    0,
 718:font.c        **** //    2,
 719:font.c        **** //    0,4,
 720:font.c        **** //    3,
 721:font.c        **** //    1,2,3,
 722:font.c        **** //    0,
 723:font.c        **** //    
 724:font.c        **** //    0,
 725:font.c        **** //    
 726:font.c        **** //    // d, 39
 727:font.c        **** //    23,
 728:font.c        **** //    
 729:font.c        **** //    4,
 730:font.c        **** //    1,2,3,4,
 731:font.c        **** //    2,
 732:font.c        **** //    0,4,
 733:font.c        **** //    2,
 734:font.c        **** //    0,4,
 735:font.c        **** //    3,
 736:font.c        **** //    0,3,4,
 737:font.c        **** //    3,
 738:font.c        **** //    1,2,4,
 739:font.c        **** //    1,
 740:font.c        **** //    4,
 741:font.c        **** //    1,
 742:font.c        **** //    4,
 743:font.c        **** //    
 744:font.c        **** //    // e, 40
 745:font.c        **** //    22,
 746:font.c        **** //    
 747:font.c        **** //    4,
 748:font.c        **** //    1,2,3,4,
 749:font.c        **** //    1,
 750:font.c        **** //    0,
 751:font.c        **** //    5,
 752:font.c        **** //    0,1,2,3,4,
 753:font.c        **** //    2,
 754:font.c        **** //    0,4,
 755:font.c        **** //    3,
 756:font.c        **** //    1,2,3,
 757:font.c        **** //    0,
 758:font.c        **** //    
 759:font.c        **** //    0,
 760:font.c        **** //    
 761:font.c        **** //    // f, 41
 762:font.c        **** //    18,
 763:font.c        **** //    
 764:font.c        **** //    1,
 765:font.c        **** //    2,
 766:font.c        **** //    1,
 767:font.c        **** //    2,
 768:font.c        **** //    1,
 769:font.c        **** //    2,
 770:font.c        **** //    1,
 771:font.c        **** //    2,
ARM GAS  C:\Users\legoc\AppData\Local\Temp\cc4EoOj2.s 			page 15


 772:font.c        **** //    4,
 773:font.c        **** //    1,2,3,4,
 774:font.c        **** //    1,
 775:font.c        **** //    2,
 776:font.c        **** //    2,
 777:font.c        **** //    3,4,
 778:font.c        **** //    
 779:font.c        **** //    // g, 42 (not going under the line)
 780:font.c        **** //    24,
 781:font.c        **** //    
 782:font.c        **** //    4,
 783:font.c        **** //    0,1,2,3,
 784:font.c        **** //    1,
 785:font.c        **** //    4,
 786:font.c        **** //    4,
 787:font.c        **** //    1,2,3,4,
 788:font.c        **** //    2,
 789:font.c        **** //    0,4,
 790:font.c        **** //    2,
 791:font.c        **** //    0,4,
 792:font.c        **** //    4,
 793:font.c        **** //    1,2,3,4,
 794:font.c        **** //    0,
 795:font.c        **** //    
 796:font.c        **** //    // h, 43
 797:font.c        **** //    21,
 798:font.c        **** //    
 799:font.c        **** //    2,
 800:font.c        **** //    0,4,
 801:font.c        **** //    2,
 802:font.c        **** //    0,4,
 803:font.c        **** //    2,
 804:font.c        **** //    0,4,
 805:font.c        **** //    3,
 806:font.c        **** //    0,1,4,
 807:font.c        **** //    3,
 808:font.c        **** //    0,2,3,
 809:font.c        **** //    1,
 810:font.c        **** //    0,
 811:font.c        **** //    1,
 812:font.c        **** //    0,
 813:font.c        **** //    
 814:font.c        **** //    // i, 44
 815:font.c        **** //    13,
 816:font.c        **** //    
 817:font.c        **** //    1,
 818:font.c        **** //    2,
 819:font.c        **** //    1,
 820:font.c        **** //    2,
 821:font.c        **** //    1,
 822:font.c        **** //    2,
 823:font.c        **** //    1,
 824:font.c        **** //    2,
 825:font.c        **** //    1,
 826:font.c        **** //    2,
 827:font.c        **** //    0,
 828:font.c        **** //    
ARM GAS  C:\Users\legoc\AppData\Local\Temp\cc4EoOj2.s 			page 16


 829:font.c        **** //    1,
 830:font.c        **** //    2,
 831:font.c        **** //    
 832:font.c        **** //    // j, 45 (don't use j)
 833:font.c        **** //    0,
 834:font.c        **** //    
 835:font.c        **** //    // k, 46
 836:font.c        **** //    19,
 837:font.c        **** //    
 838:font.c        **** //    2,
 839:font.c        **** //    0,3,
 840:font.c        **** //    2,
 841:font.c        **** //    0,2,
 842:font.c        **** //    2,
 843:font.c        **** //    0,1,
 844:font.c        **** //    2,
 845:font.c        **** //    0,2,
 846:font.c        **** //    2,
 847:font.c        **** //    0,3,
 848:font.c        **** //    1,
 849:font.c        **** //    0,
 850:font.c        **** //    1,
 851:font.c        **** //    0,
 852:font.c        **** //    
 853:font.c        **** //    // l, 47
 854:font.c        **** //    14,
 855:font.c        **** //    
 856:font.c        **** //    1,
 857:font.c        **** //    3,
 858:font.c        **** //    1,
 859:font.c        **** //    2,
 860:font.c        **** //    1,
 861:font.c        **** //    2,
 862:font.c        **** //    1,
 863:font.c        **** //    2,
 864:font.c        **** //    1,
 865:font.c        **** //    2,
 866:font.c        **** //    1,
 867:font.c        **** //    2,
 868:font.c        **** //    1,
 869:font.c        **** //    2,
 870:font.c        **** //    
 871:font.c        **** //    // m, 48
 872:font.c        **** //    20,
 873:font.c        **** //    
 874:font.c        **** //    2,
 875:font.c        **** //    0,4,
 876:font.c        **** //    2,
 877:font.c        **** //    0,4,
 878:font.c        **** //    3,
 879:font.c        **** //    0,2,4,
 880:font.c        **** //    3,
 881:font.c        **** //    0,2,4,
 882:font.c        **** //    3,
 883:font.c        **** //    0,1,3,
 884:font.c        **** //    0,
 885:font.c        **** //    
ARM GAS  C:\Users\legoc\AppData\Local\Temp\cc4EoOj2.s 			page 17


 886:font.c        **** //    0,
 887:font.c        **** //    
 888:font.c        **** //    // n, 49
 889:font.c        **** //    19,
 890:font.c        **** //    
 891:font.c        **** //    2,
 892:font.c        **** //    0,4,
 893:font.c        **** //    2,
 894:font.c        **** //    0,4,
 895:font.c        **** //    2,
 896:font.c        **** //    0,4,
 897:font.c        **** //    2,
 898:font.c        **** //    0,4,
 899:font.c        **** //    4,
 900:font.c        **** //    0,1,2,3,
 901:font.c        **** //    0,
 902:font.c        **** //    
 903:font.c        **** //    0,
 904:font.c        **** //    
 905:font.c        **** //    // o, 50
 906:font.c        **** //    19,
 907:font.c        **** //    
 908:font.c        **** //    3,
 909:font.c        **** //    1,2,3,
 910:font.c        **** //    2,
 911:font.c        **** //    0,4,
 912:font.c        **** //    2,
 913:font.c        **** //    0,4,
 914:font.c        **** //    2,
 915:font.c        **** //    0,4,
 916:font.c        **** //    3,
 917:font.c        **** //    1,2,3,
 918:font.c        **** //    0,
 919:font.c        **** //    
 920:font.c        **** //    0,
 921:font.c        **** //    
 922:font.c        **** //    // p, 51 (not going under the line)
 923:font.c        **** //    21,
 924:font.c        **** //     
 925:font.c        **** //    1,
 926:font.c        **** //    0,
 927:font.c        **** //    1,
 928:font.c        **** //    0,
 929:font.c        **** //    4,
 930:font.c        **** //    0,1,2,3,
 931:font.c        **** //    2,
 932:font.c        **** //    0,4,
 933:font.c        **** //    3,
 934:font.c        **** //    0,1,4,
 935:font.c        **** //    3,
 936:font.c        **** //    0,2,3,
 937:font.c        **** //    0,
 938:font.c        **** //    
 939:font.c        **** //    // q, 52 (not going under the line)
 940:font.c        **** //    21,
 941:font.c        **** //    
 942:font.c        **** //    1,
ARM GAS  C:\Users\legoc\AppData\Local\Temp\cc4EoOj2.s 			page 18


 943:font.c        **** //    4,
 944:font.c        **** //    1,
 945:font.c        **** //    4,
 946:font.c        **** //    4,
 947:font.c        **** //    1,2,3,4,
 948:font.c        **** //    2,
 949:font.c        **** //    0,4,
 950:font.c        **** //    3,
 951:font.c        **** //    0,3,4,
 952:font.c        **** //    3,
 953:font.c        **** //    1,2,4,
 954:font.c        **** //    0,
 955:font.c        **** //    
 956:font.c        **** //    // r, 53
 957:font.c        **** //    16,
 958:font.c        **** //    
 959:font.c        **** //    1,
 960:font.c        **** //    0,
 961:font.c        **** //    1,
 962:font.c        **** //    0,
 963:font.c        **** //    1,
 964:font.c        **** //    0,
 965:font.c        **** //    3,
 966:font.c        **** //    0,1,4,
 967:font.c        **** //    3,
 968:font.c        **** //    0,2,3,
 969:font.c        **** //    0,
 970:font.c        **** //    
 971:font.c        **** //    0,
 972:font.c        **** //    
 973:font.c        **** //    // s, 54
 974:font.c        **** //    20,
 975:font.c        **** //    
 976:font.c        **** //    4,
 977:font.c        **** //    0,1,2,3,
 978:font.c        **** //    1,
 979:font.c        **** //    4,
 980:font.c        **** //    3,
 981:font.c        **** //    1,2,3,
 982:font.c        **** //    1,
 983:font.c        **** //    0,
 984:font.c        **** //    4,
 985:font.c        **** //    1,2,3,4,
 986:font.c        **** //    0,
 987:font.c        **** //    
 988:font.c        **** //    0,
 989:font.c        **** //    
 990:font.c        **** //    // t, 55
 991:font.c        **** //    16,
 992:font.c        **** //    
 993:font.c        **** //    1,
 994:font.c        **** //    3,
 995:font.c        **** //    1,
 996:font.c        **** //    2,
 997:font.c        **** //    1,
 998:font.c        **** //    2,
 999:font.c        **** //    1,
ARM GAS  C:\Users\legoc\AppData\Local\Temp\cc4EoOj2.s 			page 19


1000:font.c        **** //    2,
1001:font.c        **** //    3,
1002:font.c        **** //    1,2,3,
1003:font.c        **** //    1,
1004:font.c        **** //    2,
1005:font.c        **** //    1,
1006:font.c        **** //    2,
1007:font.c        **** //    
1008:font.c        **** //    // u, 56
1009:font.c        **** //    19,
1010:font.c        **** //
1011:font.c        **** //    4,
1012:font.c        **** //    1,2,3,4,
1013:font.c        **** //    2,
1014:font.c        **** //    0,4,
1015:font.c        **** //    2,
1016:font.c        **** //    0,4,
1017:font.c        **** //    2,
1018:font.c        **** //    0,4,
1019:font.c        **** //    2,
1020:font.c        **** //    0,4,
1021:font.c        **** //    0,
1022:font.c        **** //    
1023:font.c        **** //    0,
1024:font.c        **** //    
1025:font.c        **** //    // v, 57
1026:font.c        **** //    16,
1027:font.c        **** //    
1028:font.c        **** //    1,
1029:font.c        **** //    2,
1030:font.c        **** //    2,
1031:font.c        **** //    1,3,
1032:font.c        **** //    2,
1033:font.c        **** //    0,4,
1034:font.c        **** //    2,
1035:font.c        **** //    0,4,
1036:font.c        **** //    2,
1037:font.c        **** //    0,4,
1038:font.c        **** //    0,
1039:font.c        **** //    
1040:font.c        **** //    0,
1041:font.c        **** //    
1042:font.c        **** //    // w, 58
1043:font.c        **** //    21,
1044:font.c        **** //    
1045:font.c        **** //    4,
1046:font.c        **** //    1,2,3,4,
1047:font.c        **** //    3,
1048:font.c        **** //    0,2,4,
1049:font.c        **** //    3,
1050:font.c        **** //    0,2,4,
1051:font.c        **** //    2,
1052:font.c        **** //    0,4,
1053:font.c        **** //    2,
1054:font.c        **** //    0,4,
1055:font.c        **** //    0,
1056:font.c        **** //    
ARM GAS  C:\Users\legoc\AppData\Local\Temp\cc4EoOj2.s 			page 20


1057:font.c        **** //    0,
1058:font.c        **** //    
1059:font.c        **** //    // x, 59
1060:font.c        **** //    16,
1061:font.c        **** //    
1062:font.c        **** //    2,
1063:font.c        **** //    0,4,
1064:font.c        **** //    2,
1065:font.c        **** //    1,3,
1066:font.c        **** //    1,
1067:font.c        **** //    2,
1068:font.c        **** //    2,
1069:font.c        **** //    1,3,
1070:font.c        **** //    2,
1071:font.c        **** //    0,4,
1072:font.c        **** //    0,
1073:font.c        **** //    
1074:font.c        **** //    0,
1075:font.c        **** //    
1076:font.c        **** //    // y, 60 (not going under the line)
1077:font.c        **** //    22,
1078:font.c        **** //    
1079:font.c        **** //    4,
1080:font.c        **** //    0,1,2,3,
1081:font.c        **** //    1,
1082:font.c        **** //    4,
1083:font.c        **** //    4,
1084:font.c        **** //    1,2,3,4,
1085:font.c        **** //    2,
1086:font.c        **** //    0,4,
1087:font.c        **** //    2,
1088:font.c        **** //    0,4,
1089:font.c        **** //    2,
1090:font.c        **** //    0,4,
1091:font.c        **** //    0,
1092:font.c        **** //    
1093:font.c        **** //    // z, 61
1094:font.c        **** //    20,
1095:font.c        **** //    
1096:font.c        **** //    5,
1097:font.c        **** //    0,1,2,3,4,
1098:font.c        **** //    1,
1099:font.c        **** //    1,
1100:font.c        **** //    1,
1101:font.c        **** //    2,
1102:font.c        **** //    1,
1103:font.c        **** //    3,
1104:font.c        **** //    5,
1105:font.c        **** //    0,1,2,3,4,
1106:font.c        **** //    0,
1107:font.c        **** //    
1108:font.c        **** //    0,
1109:font.c        ****     
1110:font.c        ****     // ., 36
1111:font.c        ****     8,
1112:font.c        ****     
1113:font.c        ****     1,
ARM GAS  C:\Users\legoc\AppData\Local\Temp\cc4EoOj2.s 			page 21


1114:font.c        ****     2,
1115:font.c        ****     0,
1116:font.c        **** 
1117:font.c        ****     0,
1118:font.c        **** 
1119:font.c        ****     0,
1120:font.c        **** 
1121:font.c        ****     0,
1122:font.c        **** 
1123:font.c        ****     0,
1124:font.c        **** 
1125:font.c        ****     0,
1126:font.c        ****     
1127:font.c        ****     // [space], 37
1128:font.c        ****     7,
1129:font.c        ****     
1130:font.c        ****     0,
1131:font.c        ****     
1132:font.c        ****     0,
1133:font.c        ****     
1134:font.c        ****     0,
1135:font.c        ****     
1136:font.c        ****     0,
1137:font.c        ****     
1138:font.c        ****     0,
1139:font.c        ****     
1140:font.c        ****     0,
1141:font.c        ****     
1142:font.c        ****     0
1143:font.c        **** };
1144:font.c        **** 
1145:font.c        **** // Work in progress
1146:font.c        **** void draw_character(int16_t x, int16_t y, uint16_t color, uint16_t character)
1147:font.c        **** {
  28              		.loc 1 1147 0
  29              		.cfi_startproc
  30              		@ args = 0, pretend = 0, frame = 8
  31              		@ frame_needed = 0, uses_anonymous_args = 0
  32              	.LVL0:
  33 0000 2DE9F04F 		push	{r4, r5, r6, r7, r8, r9, r10, fp, lr}
  34              		.cfi_def_cfa_offset 36
  35              		.cfi_offset 4, -36
  36              		.cfi_offset 5, -32
  37              		.cfi_offset 6, -28
  38              		.cfi_offset 7, -24
  39              		.cfi_offset 8, -20
  40              		.cfi_offset 9, -16
  41              		.cfi_offset 10, -12
  42              		.cfi_offset 11, -8
  43              		.cfi_offset 14, -4
  44 0004 1746     		mov	r7, r2
  45 0006 83B0     		sub	sp, sp, #12
  46              		.cfi_def_cfa_offset 48
  47              	.LBB6:
1148:font.c        ****     uint16_t index = 1;
1149:font.c        ****     
1150:font.c        ****     for(int i=0; i<character;i++)
ARM GAS  C:\Users\legoc\AppData\Local\Temp\cc4EoOj2.s 			page 22


  48              		.loc 1 1150 0
  49 0008 002B     		cmp	r3, #0
  50 000a 3CD0     		beq	.L9
  51 000c 204E     		ldr	r6, .L18
  52 000e 1A24     		movs	r4, #26
  53 0010 0025     		movs	r5, #0
  54 0012 0122     		movs	r2, #1
  55              	.LVL1:
  56 0014 00E0     		b	.L4
  57              	.LVL2:
  58              	.L17:
  59 0016 B45C     		ldrb	r4, [r6, r2]	@ zero_extendqisi2
  60              	.LVL3:
  61              	.L4:
1151:font.c        ****     {
1152:font.c        ****         index = index + font[index] + 1;
  62              		.loc 1 1152 0 discriminator 3
  63 0018 0134     		adds	r4, r4, #1
1150:font.c        ****     {
  64              		.loc 1 1150 0 discriminator 3
  65 001a 0135     		adds	r5, r5, #1
  66              	.LVL4:
  67              		.loc 1 1152 0 discriminator 3
  68 001c 2244     		add	r2, r2, r4
  69              	.LVL5:
1150:font.c        ****     {
  70              		.loc 1 1150 0 discriminator 3
  71 001e 9D42     		cmp	r5, r3
  72              		.loc 1 1152 0 discriminator 3
  73 0020 92B2     		uxth	r2, r2
  74              	.LVL6:
1150:font.c        ****     {
  75              		.loc 1 1150 0 discriminator 3
  76 0022 F8D1     		bne	.L17
  77 0024 02F10108 		add	r8, r2, #1
  78 0028 1FFA88F8 		uxth	r8, r8
  79 002c 16F80890 		ldrb	r9, [r6, r8]	@ zero_extendqisi2
  80              	.LVL7:
  81              	.L2:
  82              	.LBE6:
1153:font.c        ****     }
1154:font.c        ****     
1155:font.c        ****     index = index+1;
1156:font.c        ****     y = y-2;
  83              		.loc 1 1156 0
  84 0030 89B2     		uxth	r1, r1
  85 0032 8C1E     		subs	r4, r1, #2
  86 0034 0531     		adds	r1, r1, #5
  87              	.LVL8:
1157:font.c        ****     x = x-2;
  88              		.loc 1 1157 0
  89 0036 0238     		subs	r0, r0, #2
  90              	.LVL9:
  91 0038 0BB2     		sxth	r3, r1
  92              	.LVL10:
  93 003a DFF854A0 		ldr	r10, .L18
  94 003e 06B2     		sxth	r6, r0
ARM GAS  C:\Users\legoc\AppData\Local\Temp\cc4EoOj2.s 			page 23


1156:font.c        ****     x = x-2;
  95              		.loc 1 1156 0
  96 0040 24B2     		sxth	r4, r4
  97              	.LVL11:
  98 0042 0193     		str	r3, [sp, #4]
  99              	.LVL12:
 100              	.L5:
 101              	.LBB7:
 102              	.LBB8:
1158:font.c        ****     uint8_t height = font[0];
1159:font.c        ****     
1160:font.c        ****     for(int i=0; i<height; i++)
1161:font.c        ****     {
1162:font.c        ****         for(int j=0; j<font[index] ;j++)
 103              		.loc 1 1162 0
 104 0044 B9F1000F 		cmp	r9, #0
 105 0048 0DD0     		beq	.L8
 106 004a 09EB0805 		add	r5, r9, r8
 107 004e 5544     		add	r5, r5, r10
 108 0050 0AEB080B 		add	fp, r10, r8
 109              	.LVL13:
 110              	.L6:
 111              	.LBB9:
1163:font.c        ****         {
1164:font.c        ****             draw_pixel(x+font[index+j+1],y,color);
 112              		.loc 1 1164 0 discriminator 3
 113 0054 1BF8010F 		ldrb	r0, [fp, #1]!	@ zero_extendqisi2
 114 0058 3A46     		mov	r2, r7
 115 005a 3044     		add	r0, r0, r6
 116 005c 2146     		mov	r1, r4
 117 005e FFF7FEFF 		bl	draw_pixel
 118              	.LVL14:
 119              	.LBE9:
1162:font.c        ****         {
 120              		.loc 1 1162 0 discriminator 3
 121 0062 AB45     		cmp	fp, r5
 122 0064 F6D1     		bne	.L6
 123              	.L8:
 124 0066 0134     		adds	r4, r4, #1
 125              	.LVL15:
 126              	.LBE8:
1160:font.c        ****     {
 127              		.loc 1 1160 0
 128 0068 019B     		ldr	r3, [sp, #4]
1165:font.c        ****         }
1166:font.c        ****         y = y+1;
1167:font.c        ****         index = index+font[index]+1;
 129              		.loc 1 1167 0
 130 006a 09F10109 		add	r9, r9, #1
 131 006e 24B2     		sxth	r4, r4
 132              	.LVL16:
 133 0070 C844     		add	r8, r8, r9
 134              	.LVL17:
1160:font.c        ****     {
 135              		.loc 1 1160 0
 136 0072 A342     		cmp	r3, r4
 137              		.loc 1 1167 0
ARM GAS  C:\Users\legoc\AppData\Local\Temp\cc4EoOj2.s 			page 24


 138 0074 1FFA88F8 		uxth	r8, r8
 139              	.LVL18:
1160:font.c        ****     {
 140              		.loc 1 1160 0
 141 0078 02D0     		beq	.L1
 142 007a 1AF80890 		ldrb	r9, [r10, r8]	@ zero_extendqisi2
 143 007e E1E7     		b	.L5
 144              	.L1:
 145              	.LBE7:
1168:font.c        ****     }
1169:font.c        **** }
 146              		.loc 1 1169 0
 147 0080 03B0     		add	sp, sp, #12
 148              		.cfi_remember_state
 149              		.cfi_def_cfa_offset 36
 150              		@ sp needed
 151 0082 BDE8F08F 		pop	{r4, r5, r6, r7, r8, r9, r10, fp, pc}
 152              	.LVL19:
 153              	.L9:
 154              		.cfi_restore_state
 155              	.LBB10:
1150:font.c        ****     {
 156              		.loc 1 1150 0
 157 0086 4FF00309 		mov	r9, #3
 158 008a 4FF00208 		mov	r8, #2
 159 008e CFE7     		b	.L2
 160              	.L19:
 161              		.align	2
 162              	.L18:
 163 0090 00000000 		.word	.LANCHOR0
 164              	.LBE10:
 165              		.cfi_endproc
 166              	.LFE1:
 167              		.size	draw_character, .-draw_character
 168              		.section	.text.draw_string,"ax",%progbits
 169              		.align	2
 170              		.global	draw_string
 171              		.thumb
 172              		.thumb_func
 173              		.type	draw_string, %function
 174              	draw_string:
 175              	.LFB2:
1170:font.c        **** 
1171:font.c        **** void draw_string(int16_t x, int16_t y, uint16_t color, char string[])
1172:font.c        **** {
 176              		.loc 1 1172 0
 177              		.cfi_startproc
 178              		@ args = 0, pretend = 0, frame = 24
 179              		@ frame_needed = 0, uses_anonymous_args = 0
 180              	.LVL20:
 181 0000 2DE9F04F 		push	{r4, r5, r6, r7, r8, r9, r10, fp, lr}
 182              		.cfi_def_cfa_offset 36
 183              		.cfi_offset 4, -36
 184              		.cfi_offset 5, -32
 185              		.cfi_offset 6, -28
 186              		.cfi_offset 7, -24
 187              		.cfi_offset 8, -20
ARM GAS  C:\Users\legoc\AppData\Local\Temp\cc4EoOj2.s 			page 25


 188              		.cfi_offset 9, -16
 189              		.cfi_offset 10, -12
 190              		.cfi_offset 11, -8
 191              		.cfi_offset 14, -4
 192 0004 87B0     		sub	sp, sp, #28
 193              		.cfi_def_cfa_offset 64
 194              		.loc 1 1172 0
 195 0006 0193     		str	r3, [sp, #4]
1173:font.c        ****     int16_t x_coor = x;
1174:font.c        ****     
1175:font.c        ****     while(*string != 0)
 196              		.loc 1 1175 0
 197 0008 1B78     		ldrb	r3, [r3]	@ zero_extendqisi2
 198              	.LVL21:
1172:font.c        ****     int16_t x_coor = x;
 199              		.loc 1 1172 0
 200 000a 0490     		str	r0, [sp, #16]
 201              	.LVL22:
 202 000c 0291     		str	r1, [sp, #8]
 203              	.LVL23:
 204              		.loc 1 1175 0
 205 000e 002B     		cmp	r3, #0
 206 0010 56D0     		beq	.L20
 207 0012 1446     		mov	r4, r2
 208 0014 0646     		mov	r6, r0
 209 0016 DFF864BC 		ldr	fp, .L452
 210              	.LVL24:
 211              	.L218:
 212              	.LBB240:
1176:font.c        ****     {
1177:font.c        ****         char g = *string;
1178:font.c        ****         
1179:font.c        ****         switch(g)
 213              		.loc 1 1179 0
 214 001a 203B     		subs	r3, r3, #32
 215              	.LVL25:
 216 001c 3A2B     		cmp	r3, #58
 217 001e 3CD8     		bhi	.L22
 218 0020 DFE813F0 		tbh	[pc, r3, lsl #1]
 219              	.L24:
 220 0024 0805     		.2byte	(.L23-.L24)/2
 221 0026 3B00     		.2byte	(.L22-.L24)/2
 222 0028 3B00     		.2byte	(.L22-.L24)/2
 223 002a 3B00     		.2byte	(.L22-.L24)/2
 224 002c 3B00     		.2byte	(.L22-.L24)/2
 225 002e 3B00     		.2byte	(.L22-.L24)/2
 226 0030 3B00     		.2byte	(.L22-.L24)/2
 227 0032 3B00     		.2byte	(.L22-.L24)/2
 228 0034 3B00     		.2byte	(.L22-.L24)/2
 229 0036 3B00     		.2byte	(.L22-.L24)/2
 230 0038 3B00     		.2byte	(.L22-.L24)/2
 231 003a 3B00     		.2byte	(.L22-.L24)/2
 232 003c 3B00     		.2byte	(.L22-.L24)/2
 233 003e 3B00     		.2byte	(.L22-.L24)/2
 234 0040 CF04     		.2byte	(.L25-.L24)/2
 235 0042 3B00     		.2byte	(.L22-.L24)/2
 236 0044 A004     		.2byte	(.L26-.L24)/2
ARM GAS  C:\Users\legoc\AppData\Local\Temp\cc4EoOj2.s 			page 26


 237 0046 9F05     		.2byte	(.L27-.L24)/2
 238 0048 4105     		.2byte	(.L28-.L24)/2
 239 004a 7005     		.2byte	(.L29-.L24)/2
 240 004c 7802     		.2byte	(.L30-.L24)/2
 241 004e 8C06     		.2byte	(.L31-.L24)/2
 242 0050 5D06     		.2byte	(.L32-.L24)/2
 243 0052 BB06     		.2byte	(.L33-.L24)/2
 244 0054 4F03     		.2byte	(.L34-.L24)/2
 245 0056 FD05     		.2byte	(.L35-.L24)/2
 246 0058 3B00     		.2byte	(.L22-.L24)/2
 247 005a 3B00     		.2byte	(.L22-.L24)/2
 248 005c 3B00     		.2byte	(.L22-.L24)/2
 249 005e 3B00     		.2byte	(.L22-.L24)/2
 250 0060 3B00     		.2byte	(.L22-.L24)/2
 251 0062 3B00     		.2byte	(.L22-.L24)/2
 252 0064 3B00     		.2byte	(.L22-.L24)/2
 253 0066 CE05     		.2byte	(.L36-.L24)/2
 254 0068 2E06     		.2byte	(.L37-.L24)/2
 255 006a 1102     		.2byte	(.L38-.L24)/2
 256 006c 0B04     		.2byte	(.L39-.L24)/2
 257 006e DC03     		.2byte	(.L40-.L24)/2
 258 0070 AD03     		.2byte	(.L41-.L24)/2
 259 0072 7E03     		.2byte	(.L42-.L24)/2
 260 0074 7304     		.2byte	(.L43-.L24)/2
 261 0076 3A04     		.2byte	(.L44-.L24)/2
 262 0078 9507     		.2byte	(.L45-.L24)/2
 263 007a 4002     		.2byte	(.L46-.L24)/2
 264 007c CE07     		.2byte	(.L47-.L24)/2
 265 007e 1703     		.2byte	(.L48-.L24)/2
 266 0080 DF02     		.2byte	(.L49-.L24)/2
 267 0082 A702     		.2byte	(.L50-.L24)/2
 268 0084 2307     		.2byte	(.L51-.L24)/2
 269 0086 EA06     		.2byte	(.L52-.L24)/2
 270 0088 5C07     		.2byte	(.L53-.L24)/2
 271 008a D901     		.2byte	(.L54-.L24)/2
 272 008c A101     		.2byte	(.L55-.L24)/2
 273 008e 3101     		.2byte	(.L56-.L24)/2
 274 0090 6901     		.2byte	(.L57-.L24)/2
 275 0092 F900     		.2byte	(.L58-.L24)/2
 276 0094 C100     		.2byte	(.L59-.L24)/2
 277 0096 8900     		.2byte	(.L60-.L24)/2
 278 0098 5100     		.2byte	(.L61-.L24)/2
 279              		.p2align 1
 280              	.L22:
 281 009a B3B2     		uxth	r3, r6
 282 009c 0393     		str	r3, [sp, #12]
 283              	.LVL26:
 284              	.L84:
1180:font.c        ****         {
1181:font.c        ****             case 48 : 
1182:font.c        ****                 draw_character(x_coor,y,color,0); // Draws 0
1183:font.c        ****                 break;
1184:font.c        ****             case 49 : 
1185:font.c        ****                 draw_character(x_coor,y,color,1); // Draws 1
1186:font.c        ****                 break;
1187:font.c        ****             case 50 : 
1188:font.c        ****                 draw_character(x_coor,y,color,2); // Draws 2
ARM GAS  C:\Users\legoc\AppData\Local\Temp\cc4EoOj2.s 			page 27


1189:font.c        ****                 break;
1190:font.c        ****             case 51 : 
1191:font.c        ****                 draw_character(x_coor,y,color,3); // Draws 3
1192:font.c        ****                 break;
1193:font.c        ****             case 52 : 
1194:font.c        ****                 draw_character(x_coor,y,color,4); // Draws 4
1195:font.c        ****                 break;
1196:font.c        ****             case 53 : 
1197:font.c        ****                 draw_character(x_coor,y,color,5); // Draws 5
1198:font.c        ****                 break;
1199:font.c        ****             case 54 : 
1200:font.c        ****                 draw_character(x_coor,y,color,6); // Draws 6
1201:font.c        ****                 break;
1202:font.c        ****             case 55 : 
1203:font.c        ****                 draw_character(x_coor,y,color,7); // Draws 7
1204:font.c        ****                 break;
1205:font.c        ****             case 56 : 
1206:font.c        ****                 draw_character(x_coor,y,color,8); // Draws 8
1207:font.c        ****                 break;
1208:font.c        ****             case 57 : 
1209:font.c        ****                 draw_character(x_coor,y,color,9); // Draws 9
1210:font.c        ****                 break;
1211:font.c        ****             case 65 : 
1212:font.c        ****                 draw_character(x_coor,y,color,10); // Draws A
1213:font.c        ****                 break;
1214:font.c        ****             case 66 : 
1215:font.c        ****                 draw_character(x_coor,y,color,11); // Draws B
1216:font.c        ****                 break;
1217:font.c        ****             case 67 : 
1218:font.c        ****                 draw_character(x_coor,y,color,12); // Draws C
1219:font.c        ****                 break;
1220:font.c        ****             case 68 : 
1221:font.c        ****                 draw_character(x_coor,y,color,13); // Draws D
1222:font.c        ****                 break;
1223:font.c        ****             case 69 : 
1224:font.c        ****                 draw_character(x_coor,y,color,14); // Draws E
1225:font.c        ****                 break;
1226:font.c        ****             case 70 : 
1227:font.c        ****                 draw_character(x_coor,y,color,15); // Draws F
1228:font.c        ****                 break;
1229:font.c        ****             case 71 : 
1230:font.c        ****                 draw_character(x_coor,y,color,16); // Draws G
1231:font.c        ****                 break;
1232:font.c        ****             case 72 :
1233:font.c        ****                 draw_character(x_coor,y,color,17); // Draws H
1234:font.c        ****                 break;
1235:font.c        ****             case 73 :
1236:font.c        ****                 draw_character(x_coor,y,color,18); // Draws I
1237:font.c        ****                 break;
1238:font.c        ****             case 74 :
1239:font.c        ****                 draw_character(x_coor,y,color,19); // Draws J
1240:font.c        ****                 break;
1241:font.c        ****             case 75 :
1242:font.c        ****                 draw_character(x_coor,y,color,20); // Draws K
1243:font.c        ****                 break;
1244:font.c        ****             case 76 : 
1245:font.c        ****                 draw_character(x_coor,y,color,21); // Draws L
ARM GAS  C:\Users\legoc\AppData\Local\Temp\cc4EoOj2.s 			page 28


1246:font.c        ****                 break;
1247:font.c        ****             case 77 :
1248:font.c        ****                 draw_character(x_coor,y,color,22); // Draws M
1249:font.c        ****                 break;
1250:font.c        ****             case 78 :
1251:font.c        ****                 draw_character(x_coor,y,color,23); // Draws N
1252:font.c        ****                 break;
1253:font.c        ****             case 79 :
1254:font.c        ****                 draw_character(x_coor,y,color,24); // Draws O
1255:font.c        ****                 break;
1256:font.c        ****             case 80 :
1257:font.c        ****                 draw_character(x_coor,y,color,25); // Draws P
1258:font.c        ****                 break;
1259:font.c        ****             case 81 :
1260:font.c        ****                 draw_character(x_coor,y,color,26); // Draws Q
1261:font.c        ****                 break;
1262:font.c        ****             case 82 :
1263:font.c        ****                 draw_character(x_coor,y,color,27); // Draws R
1264:font.c        ****                 break;
1265:font.c        ****             case 83 :
1266:font.c        ****                 draw_character(x_coor,y,color,28); // Draws S
1267:font.c        ****                 break;
1268:font.c        ****             case 84 :
1269:font.c        ****                 draw_character(x_coor,y,color,29); // Draws T
1270:font.c        ****                 break;
1271:font.c        ****             case 85 :
1272:font.c        ****                 draw_character(x_coor,y,color,30); // Draws U
1273:font.c        ****                 break;
1274:font.c        ****             case 86 :
1275:font.c        ****                 draw_character(x_coor,y,color,31); // Draws V
1276:font.c        ****                 break;
1277:font.c        ****             case 87 :
1278:font.c        ****                 draw_character(x_coor,y,color,32); // Draws W
1279:font.c        ****                 break;
1280:font.c        ****             case 88 :
1281:font.c        ****                 draw_character(x_coor,y,color,33); // Draws X
1282:font.c        ****                 break;
1283:font.c        ****             case 89 :
1284:font.c        ****                 draw_character(x_coor,y,color,34); // Draws Y
1285:font.c        ****                 break;
1286:font.c        ****             case 90 :
1287:font.c        ****                 draw_character(x_coor,y,color,35); // Draws Z
1288:font.c        ****                 break;
1289:font.c        **** //            case 97 :
1290:font.c        **** //                draw_character(x_coor,y,color,36); // Draws a
1291:font.c        **** //                break;
1292:font.c        **** //            case 98 :
1293:font.c        **** //                draw_character(x_coor,y,color,37); // Draws b
1294:font.c        **** //                break;
1295:font.c        **** //            case 99 :
1296:font.c        **** //                draw_character(x_coor,y,color,38); // Draws c
1297:font.c        **** //                break;
1298:font.c        **** //            case 100 :
1299:font.c        **** //                draw_character(x_coor,y,color,39); // Draws d
1300:font.c        **** //                break;
1301:font.c        **** //            case 101 :
1302:font.c        **** //                draw_character(x_coor,y,color,40); // Draws e
ARM GAS  C:\Users\legoc\AppData\Local\Temp\cc4EoOj2.s 			page 29


1303:font.c        **** //                break;
1304:font.c        **** //            case 102 :
1305:font.c        **** //                draw_character(x_coor,y,color,41); // Draws f
1306:font.c        **** //                break;
1307:font.c        **** //            case 103 :
1308:font.c        **** //                draw_character(x_coor,y,color,42); // Draws g
1309:font.c        **** //                break;
1310:font.c        **** //            case 104 :
1311:font.c        **** //                draw_character(x_coor,y,color,43); // Draws h
1312:font.c        **** //                break;
1313:font.c        **** //            case 105 :
1314:font.c        **** //                draw_character(x_coor,y,color,44); // Draws i
1315:font.c        **** //                break;
1316:font.c        **** //            case 106 :
1317:font.c        **** //                draw_character(x_coor,y,color,63); // Draws j
1318:font.c        **** //                break;
1319:font.c        **** //            case 107 :
1320:font.c        **** //                draw_character(x_coor,y,color,46); // Draws k
1321:font.c        **** //                break;
1322:font.c        **** //            case 108 :
1323:font.c        **** //                draw_character(x_coor,y,color,47); // Draws l
1324:font.c        **** //                break;
1325:font.c        **** //            case 109 :
1326:font.c        **** //                draw_character(x_coor,y,color,48); // Draws m
1327:font.c        **** //                break;
1328:font.c        **** //            case 110 :
1329:font.c        **** //                draw_character(x_coor,y,color,49); // Draws n
1330:font.c        **** //                break;
1331:font.c        **** //            case 111 :
1332:font.c        **** //                draw_character(x_coor,y,color,50); // Draws o
1333:font.c        **** //                break;
1334:font.c        **** //            case 112 :
1335:font.c        **** //                draw_character(x_coor,y,color,51); // Draws p
1336:font.c        **** //                break;
1337:font.c        **** //            case 113 :
1338:font.c        **** //                draw_character(x_coor,y,color,52); // Draws q
1339:font.c        **** //                break;
1340:font.c        **** //            case 114 :
1341:font.c        **** //                draw_character(x_coor,y,color,53); // Draws r
1342:font.c        **** //                break;
1343:font.c        **** //            case 115 :
1344:font.c        **** //                draw_character(x_coor,y,color,54); // Draws s
1345:font.c        **** //                break;
1346:font.c        **** //            case 116 :
1347:font.c        **** //                draw_character(x_coor,y,color,55); // Draws t
1348:font.c        **** //                break;
1349:font.c        **** //            case 117 :
1350:font.c        **** //                draw_character(x_coor,y,color,56); // Draws u
1351:font.c        **** //                break;
1352:font.c        **** //            case 118 :
1353:font.c        **** //                draw_character(x_coor,y,color,57); // Draws v
1354:font.c        **** //                break;
1355:font.c        **** //            case 119 :
1356:font.c        **** //                draw_character(x_coor,y,color,58); // Draws w
1357:font.c        **** //                break;
1358:font.c        **** //            case 120 :
1359:font.c        **** //                draw_character(x_coor,y,color,59); // Draws x
ARM GAS  C:\Users\legoc\AppData\Local\Temp\cc4EoOj2.s 			page 30


1360:font.c        **** //                break;
1361:font.c        **** //            case 121 :
1362:font.c        **** //                draw_character(x_coor,y,color,60); // Draws y
1363:font.c        **** //                break;
1364:font.c        **** //            case 122 :
1365:font.c        **** //                draw_character(x_coor,y,color,61); // Draws z
1366:font.c        **** //                break;
1367:font.c        ****             case 46 :
1368:font.c        ****                 draw_character(x_coor,y,color,36); // Draws .
1369:font.c        ****                 break;
1370:font.c        ****             case 32 :
1371:font.c        ****                 draw_character(x_coor,y,color,37); // Draws [space]
1372:font.c        ****                 break;
1373:font.c        ****         }
1374:font.c        ****         
1375:font.c        ****         x_coor = x_coor+7;
 285              		.loc 1 1375 0
 286 009e 039E     		ldr	r6, [sp, #12]
 287 00a0 0736     		adds	r6, r6, #7
 288 00a2 36B2     		sxth	r6, r6
 289              	.LVL27:
1376:font.c        ****         if (x_coor>316)
 290              		.loc 1 1376 0
 291 00a4 B6F59E7F 		cmp	r6, #316
 292 00a8 04DD     		ble	.L217
 293              	.LVL28:
1377:font.c        ****         {
1378:font.c        ****             x_coor = x;
1379:font.c        ****             y = y-9;
 294              		.loc 1 1379 0
 295 00aa 029B     		ldr	r3, [sp, #8]
1378:font.c        ****             y = y-9;
 296              		.loc 1 1378 0
 297 00ac 049E     		ldr	r6, [sp, #16]
 298              		.loc 1 1379 0
 299 00ae 093B     		subs	r3, r3, #9
 300 00b0 1BB2     		sxth	r3, r3
 301 00b2 0293     		str	r3, [sp, #8]
 302              	.LVL29:
 303              	.L217:
 304              	.LBE240:
1175:font.c        ****     {
 305              		.loc 1 1175 0
 306 00b4 019A     		ldr	r2, [sp, #4]
 307 00b6 12F8013F 		ldrb	r3, [r2, #1]!	@ zero_extendqisi2
 308 00ba 0192     		str	r2, [sp, #4]
 309              	.LVL30:
 310 00bc 002B     		cmp	r3, #0
 311 00be ACD1     		bne	.L218
 312              	.LVL31:
 313              	.L20:
1380:font.c        ****         }
1381:font.c        ****         
1382:font.c        ****         string = string+1;
1383:font.c        ****     }
1384:font.c        **** }...
 314              		.loc 1 1384 0
ARM GAS  C:\Users\legoc\AppData\Local\Temp\cc4EoOj2.s 			page 31


 315 00c0 07B0     		add	sp, sp, #28
 316              		.cfi_remember_state
 317              		.cfi_def_cfa_offset 36
 318              		@ sp needed
 319 00c2 BDE8F08F 		pop	{r4, r5, r6, r7, r8, r9, r10, fp, pc}
 320              	.LVL32:
 321              	.L61:
 322              		.cfi_restore_state
 323              	.LBB451:
1179:font.c        ****         switch(g)
 324              		.loc 1 1179 0
 325 00c6 2321     		movs	r1, #35
 326 00c8 1A22     		movs	r2, #26
 327 00ca 0123     		movs	r3, #1
 328 00cc 01E0     		b	.L62
 329              	.LVL33:
 330              	.L432:
 331 00ce 1BF80320 		ldrb	r2, [fp, r3]	@ zero_extendqisi2
 332              	.LVL34:
 333              	.L62:
 334              	.LBB241:
 335              	.LBB242:
 336              	.LBB243:
1152:font.c        ****         index = index + font[index] + 1;
 337              		.loc 1 1152 0
 338 00d2 0132     		adds	r2, r2, #1
 339 00d4 1344     		add	r3, r3, r2
 340              	.LVL35:
1150:font.c        ****     for(int i=0; i<character;i++)
 341              		.loc 1 1150 0
 342 00d6 0139     		subs	r1, r1, #1
1152:font.c        ****         index = index + font[index] + 1;
 343              		.loc 1 1152 0
 344 00d8 9BB2     		uxth	r3, r3
 345              	.LVL36:
1150:font.c        ****     for(int i=0; i<character;i++)
 346              		.loc 1 1150 0
 347 00da F8D1     		bne	.L432
 348              	.LBE243:
1157:font.c        ****     x = x-2;
 349              		.loc 1 1157 0
 350 00dc B2B2     		uxth	r2, r6
 351 00de 1146     		mov	r1, r2
 352 00e0 0392     		str	r2, [sp, #12]
1156:font.c        ****     y = y-2;
 353              		.loc 1 1156 0
 354 00e2 BDF80820 		ldrh	r2, [sp, #8]
1155:font.c        ****     index = index+1;
 355              		.loc 1 1155 0
 356 00e6 0133     		adds	r3, r3, #1
 357              	.LVL37:
1156:font.c        ****     y = y-2;
 358              		.loc 1 1156 0
 359 00e8 951E     		subs	r5, r2, #2
 360 00ea 0532     		adds	r2, r2, #5
1157:font.c        ****     x = x-2;
 361              		.loc 1 1157 0
ARM GAS  C:\Users\legoc\AppData\Local\Temp\cc4EoOj2.s 			page 32


 362 00ec 8F1E     		subs	r7, r1, #2
1155:font.c        ****     index = index+1;
 363              		.loc 1 1155 0
 364 00ee 1FFA83F8 		uxth	r8, r3
 365              	.LVL38:
 366 00f2 13B2     		sxth	r3, r2
1157:font.c        ****     x = x-2;
 367              		.loc 1 1157 0
 368 00f4 3FB2     		sxth	r7, r7
1156:font.c        ****     y = y-2;
 369              		.loc 1 1156 0
 370 00f6 2DB2     		sxth	r5, r5
 371              	.LVL39:
 372 00f8 0593     		str	r3, [sp, #20]
 373              	.LVL40:
 374              	.L206:
 375              	.LBB244:
 376              	.LBB245:
1162:font.c        ****         for(int j=0; j<font[index] ;j++)
 377              		.loc 1 1162 0
 378 00fa 1BF80890 		ldrb	r9, [fp, r8]	@ zero_extendqisi2
 379 00fe B9F1000F 		cmp	r9, #0
 380 0102 0DD0     		beq	.L208
 381 0104 09EB0806 		add	r6, r9, r8
 382 0108 5E44     		add	r6, r6, fp
 383 010a 0BEB080A 		add	r10, fp, r8
 384              	.LVL41:
 385              	.L207:
 386              	.LBB246:
1164:font.c        ****             draw_pixel(x+font[index+j+1],y,color);
 387              		.loc 1 1164 0
 388 010e 1AF8010F 		ldrb	r0, [r10, #1]!	@ zero_extendqisi2
 389 0112 2246     		mov	r2, r4
 390 0114 3844     		add	r0, r0, r7
 391 0116 2946     		mov	r1, r5
 392 0118 FFF7FEFF 		bl	draw_pixel
 393              	.LVL42:
 394              	.LBE246:
1162:font.c        ****         for(int j=0; j<font[index] ;j++)
 395              		.loc 1 1162 0
 396 011c 5645     		cmp	r6, r10
 397 011e F6D1     		bne	.L207
 398              	.L208:
 399 0120 0135     		adds	r5, r5, #1
 400              	.LVL43:
 401              	.LBE245:
1160:font.c        ****     for(int i=0; i<height; i++)
 402              		.loc 1 1160 0
 403 0122 059B     		ldr	r3, [sp, #20]
1167:font.c        ****         index = index+font[index]+1;
 404              		.loc 1 1167 0
 405 0124 09F10109 		add	r9, r9, #1
 406 0128 2DB2     		sxth	r5, r5
 407              	.LVL44:
 408 012a C844     		add	r8, r8, r9
 409              	.LVL45:
1160:font.c        ****     for(int i=0; i<height; i++)
ARM GAS  C:\Users\legoc\AppData\Local\Temp\cc4EoOj2.s 			page 33


 410              		.loc 1 1160 0
 411 012c AB42     		cmp	r3, r5
1167:font.c        ****         index = index+font[index]+1;
 412              		.loc 1 1167 0
 413 012e 1FFA88F8 		uxth	r8, r8
 414              	.LVL46:
1160:font.c        ****     for(int i=0; i<height; i++)
 415              		.loc 1 1160 0
 416 0132 E2D1     		bne	.L206
 417 0134 B3E7     		b	.L84
 418              	.LVL47:
 419              	.L60:
 420              	.LBE244:
 421              	.LBE242:
 422              	.LBE241:
1179:font.c        ****         switch(g)
 423              		.loc 1 1179 0
 424 0136 2221     		movs	r1, #34
 425 0138 1A22     		movs	r2, #26
 426 013a 0123     		movs	r3, #1
 427 013c 01E0     		b	.L63
 428              	.LVL48:
 429              	.L433:
 430 013e 1BF80320 		ldrb	r2, [fp, r3]	@ zero_extendqisi2
 431              	.LVL49:
 432              	.L63:
 433              	.LBB247:
 434              	.LBB248:
 435              	.LBB249:
1152:font.c        ****         index = index + font[index] + 1;
 436              		.loc 1 1152 0
 437 0142 0132     		adds	r2, r2, #1
 438 0144 1344     		add	r3, r3, r2
 439              	.LVL50:
1150:font.c        ****     for(int i=0; i<character;i++)
 440              		.loc 1 1150 0
 441 0146 0139     		subs	r1, r1, #1
1152:font.c        ****         index = index + font[index] + 1;
 442              		.loc 1 1152 0
 443 0148 9BB2     		uxth	r3, r3
 444              	.LVL51:
1150:font.c        ****     for(int i=0; i<character;i++)
 445              		.loc 1 1150 0
 446 014a F8D1     		bne	.L433
 447              	.LBE249:
1157:font.c        ****     x = x-2;
 448              		.loc 1 1157 0
 449 014c B2B2     		uxth	r2, r6
 450 014e 1146     		mov	r1, r2
 451 0150 0392     		str	r2, [sp, #12]
1156:font.c        ****     y = y-2;
 452              		.loc 1 1156 0
 453 0152 BDF80820 		ldrh	r2, [sp, #8]
1155:font.c        ****     index = index+1;
 454              		.loc 1 1155 0
 455 0156 0133     		adds	r3, r3, #1
 456              	.LVL52:
ARM GAS  C:\Users\legoc\AppData\Local\Temp\cc4EoOj2.s 			page 34


1156:font.c        ****     y = y-2;
 457              		.loc 1 1156 0
 458 0158 951E     		subs	r5, r2, #2
 459 015a 0532     		adds	r2, r2, #5
1157:font.c        ****     x = x-2;
 460              		.loc 1 1157 0
 461 015c 8F1E     		subs	r7, r1, #2
1155:font.c        ****     index = index+1;
 462              		.loc 1 1155 0
 463 015e 1FFA83F8 		uxth	r8, r3
 464              	.LVL53:
 465 0162 13B2     		sxth	r3, r2
1157:font.c        ****     x = x-2;
 466              		.loc 1 1157 0
 467 0164 3FB2     		sxth	r7, r7
1156:font.c        ****     y = y-2;
 468              		.loc 1 1156 0
 469 0166 2DB2     		sxth	r5, r5
 470              	.LVL54:
 471 0168 0593     		str	r3, [sp, #20]
 472              	.LVL55:
 473              	.L202:
 474              	.LBB250:
 475              	.LBB251:
1162:font.c        ****         for(int j=0; j<font[index] ;j++)
 476              		.loc 1 1162 0
 477 016a 1BF80890 		ldrb	r9, [fp, r8]	@ zero_extendqisi2
 478 016e B9F1000F 		cmp	r9, #0
 479 0172 0DD0     		beq	.L204
 480 0174 09EB0806 		add	r6, r9, r8
 481 0178 5E44     		add	r6, r6, fp
 482 017a 0BEB080A 		add	r10, fp, r8
 483              	.LVL56:
 484              	.L203:
 485              	.LBB252:
1164:font.c        ****             draw_pixel(x+font[index+j+1],y,color);
 486              		.loc 1 1164 0
 487 017e 1AF8010F 		ldrb	r0, [r10, #1]!	@ zero_extendqisi2
 488 0182 2246     		mov	r2, r4
 489 0184 3844     		add	r0, r0, r7
 490 0186 2946     		mov	r1, r5
 491 0188 FFF7FEFF 		bl	draw_pixel
 492              	.LVL57:
 493              	.LBE252:
1162:font.c        ****         for(int j=0; j<font[index] ;j++)
 494              		.loc 1 1162 0
 495 018c 5645     		cmp	r6, r10
 496 018e F6D1     		bne	.L203
 497              	.L204:
 498 0190 0135     		adds	r5, r5, #1
 499              	.LVL58:
 500              	.LBE251:
1160:font.c        ****     for(int i=0; i<height; i++)
 501              		.loc 1 1160 0
 502 0192 059B     		ldr	r3, [sp, #20]
1167:font.c        ****         index = index+font[index]+1;
 503              		.loc 1 1167 0
ARM GAS  C:\Users\legoc\AppData\Local\Temp\cc4EoOj2.s 			page 35


 504 0194 09F10109 		add	r9, r9, #1
 505 0198 2DB2     		sxth	r5, r5
 506              	.LVL59:
 507 019a C844     		add	r8, r8, r9
 508              	.LVL60:
1160:font.c        ****     for(int i=0; i<height; i++)
 509              		.loc 1 1160 0
 510 019c AB42     		cmp	r3, r5
1167:font.c        ****         index = index+font[index]+1;
 511              		.loc 1 1167 0
 512 019e 1FFA88F8 		uxth	r8, r8
 513              	.LVL61:
1160:font.c        ****     for(int i=0; i<height; i++)
 514              		.loc 1 1160 0
 515 01a2 E2D1     		bne	.L202
 516 01a4 7BE7     		b	.L84
 517              	.LVL62:
 518              	.L59:
 519              	.LBE250:
 520              	.LBE248:
 521              	.LBE247:
1179:font.c        ****         switch(g)
 522              		.loc 1 1179 0
 523 01a6 2121     		movs	r1, #33
 524 01a8 1A22     		movs	r2, #26
 525 01aa 0123     		movs	r3, #1
 526 01ac 01E0     		b	.L64
 527              	.LVL63:
 528              	.L434:
 529 01ae 1BF80320 		ldrb	r2, [fp, r3]	@ zero_extendqisi2
 530              	.LVL64:
 531              	.L64:
 532              	.LBB253:
 533              	.LBB254:
 534              	.LBB255:
1152:font.c        ****         index = index + font[index] + 1;
 535              		.loc 1 1152 0
 536 01b2 0132     		adds	r2, r2, #1
 537 01b4 1344     		add	r3, r3, r2
 538              	.LVL65:
1150:font.c        ****     for(int i=0; i<character;i++)
 539              		.loc 1 1150 0
 540 01b6 0139     		subs	r1, r1, #1
1152:font.c        ****         index = index + font[index] + 1;
 541              		.loc 1 1152 0
 542 01b8 9BB2     		uxth	r3, r3
 543              	.LVL66:
1150:font.c        ****     for(int i=0; i<character;i++)
 544              		.loc 1 1150 0
 545 01ba F8D1     		bne	.L434
 546              	.LBE255:
1157:font.c        ****     x = x-2;
 547              		.loc 1 1157 0
 548 01bc B2B2     		uxth	r2, r6
 549 01be 1146     		mov	r1, r2
 550 01c0 0392     		str	r2, [sp, #12]
1156:font.c        ****     y = y-2;
ARM GAS  C:\Users\legoc\AppData\Local\Temp\cc4EoOj2.s 			page 36


 551              		.loc 1 1156 0
 552 01c2 BDF80820 		ldrh	r2, [sp, #8]
1155:font.c        ****     index = index+1;
 553              		.loc 1 1155 0
 554 01c6 0133     		adds	r3, r3, #1
 555              	.LVL67:
1156:font.c        ****     y = y-2;
 556              		.loc 1 1156 0
 557 01c8 951E     		subs	r5, r2, #2
 558 01ca 0532     		adds	r2, r2, #5
1157:font.c        ****     x = x-2;
 559              		.loc 1 1157 0
 560 01cc 8F1E     		subs	r7, r1, #2
1155:font.c        ****     index = index+1;
 561              		.loc 1 1155 0
 562 01ce 1FFA83F8 		uxth	r8, r3
 563              	.LVL68:
 564 01d2 13B2     		sxth	r3, r2
1157:font.c        ****     x = x-2;
 565              		.loc 1 1157 0
 566 01d4 3FB2     		sxth	r7, r7
1156:font.c        ****     y = y-2;
 567              		.loc 1 1156 0
 568 01d6 2DB2     		sxth	r5, r5
 569              	.LVL69:
 570 01d8 0593     		str	r3, [sp, #20]
 571              	.LVL70:
 572              	.L198:
 573              	.LBB256:
 574              	.LBB257:
1162:font.c        ****         for(int j=0; j<font[index] ;j++)
 575              		.loc 1 1162 0
 576 01da 1BF80890 		ldrb	r9, [fp, r8]	@ zero_extendqisi2
 577 01de B9F1000F 		cmp	r9, #0
 578 01e2 0DD0     		beq	.L200
 579 01e4 09EB0806 		add	r6, r9, r8
 580 01e8 5E44     		add	r6, r6, fp
 581 01ea 0BEB080A 		add	r10, fp, r8
 582              	.LVL71:
 583              	.L199:
 584              	.LBB258:
1164:font.c        ****             draw_pixel(x+font[index+j+1],y,color);
 585              		.loc 1 1164 0
 586 01ee 1AF8010F 		ldrb	r0, [r10, #1]!	@ zero_extendqisi2
 587 01f2 2246     		mov	r2, r4
 588 01f4 3844     		add	r0, r0, r7
 589 01f6 2946     		mov	r1, r5
 590 01f8 FFF7FEFF 		bl	draw_pixel
 591              	.LVL72:
 592              	.LBE258:
1162:font.c        ****         for(int j=0; j<font[index] ;j++)
 593              		.loc 1 1162 0
 594 01fc 5645     		cmp	r6, r10
 595 01fe F6D1     		bne	.L199
 596              	.L200:
 597 0200 0135     		adds	r5, r5, #1
 598              	.LVL73:
ARM GAS  C:\Users\legoc\AppData\Local\Temp\cc4EoOj2.s 			page 37


 599              	.LBE257:
1160:font.c        ****     for(int i=0; i<height; i++)
 600              		.loc 1 1160 0
 601 0202 059B     		ldr	r3, [sp, #20]
1167:font.c        ****         index = index+font[index]+1;
 602              		.loc 1 1167 0
 603 0204 09F10109 		add	r9, r9, #1
 604 0208 2DB2     		sxth	r5, r5
 605              	.LVL74:
 606 020a C844     		add	r8, r8, r9
 607              	.LVL75:
1160:font.c        ****     for(int i=0; i<height; i++)
 608              		.loc 1 1160 0
 609 020c AB42     		cmp	r3, r5
1167:font.c        ****         index = index+font[index]+1;
 610              		.loc 1 1167 0
 611 020e 1FFA88F8 		uxth	r8, r8
 612              	.LVL76:
1160:font.c        ****     for(int i=0; i<height; i++)
 613              		.loc 1 1160 0
 614 0212 E2D1     		bne	.L198
 615 0214 43E7     		b	.L84
 616              	.LVL77:
 617              	.L58:
 618              	.LBE256:
 619              	.LBE254:
 620              	.LBE253:
1179:font.c        ****         switch(g)
 621              		.loc 1 1179 0
 622 0216 2021     		movs	r1, #32
 623 0218 1A22     		movs	r2, #26
 624 021a 0123     		movs	r3, #1
 625 021c 01E0     		b	.L65
 626              	.LVL78:
 627              	.L435:
 628 021e 1BF80320 		ldrb	r2, [fp, r3]	@ zero_extendqisi2
 629              	.LVL79:
 630              	.L65:
 631              	.LBB259:
 632              	.LBB260:
 633              	.LBB261:
1152:font.c        ****         index = index + font[index] + 1;
 634              		.loc 1 1152 0
 635 0222 0132     		adds	r2, r2, #1
 636 0224 1344     		add	r3, r3, r2
 637              	.LVL80:
1150:font.c        ****     for(int i=0; i<character;i++)
 638              		.loc 1 1150 0
 639 0226 0139     		subs	r1, r1, #1
1152:font.c        ****         index = index + font[index] + 1;
 640              		.loc 1 1152 0
 641 0228 9BB2     		uxth	r3, r3
 642              	.LVL81:
1150:font.c        ****     for(int i=0; i<character;i++)
 643              		.loc 1 1150 0
 644 022a F8D1     		bne	.L435
 645              	.LBE261:
ARM GAS  C:\Users\legoc\AppData\Local\Temp\cc4EoOj2.s 			page 38


1157:font.c        ****     x = x-2;
 646              		.loc 1 1157 0
 647 022c B2B2     		uxth	r2, r6
 648 022e 1146     		mov	r1, r2
 649 0230 0392     		str	r2, [sp, #12]
1156:font.c        ****     y = y-2;
 650              		.loc 1 1156 0
 651 0232 BDF80820 		ldrh	r2, [sp, #8]
1155:font.c        ****     index = index+1;
 652              		.loc 1 1155 0
 653 0236 0133     		adds	r3, r3, #1
 654              	.LVL82:
1156:font.c        ****     y = y-2;
 655              		.loc 1 1156 0
 656 0238 951E     		subs	r5, r2, #2
 657 023a 0532     		adds	r2, r2, #5
1157:font.c        ****     x = x-2;
 658              		.loc 1 1157 0
 659 023c 8F1E     		subs	r7, r1, #2
1155:font.c        ****     index = index+1;
 660              		.loc 1 1155 0
 661 023e 1FFA83F8 		uxth	r8, r3
 662              	.LVL83:
 663 0242 13B2     		sxth	r3, r2
1157:font.c        ****     x = x-2;
 664              		.loc 1 1157 0
 665 0244 3FB2     		sxth	r7, r7
1156:font.c        ****     y = y-2;
 666              		.loc 1 1156 0
 667 0246 2DB2     		sxth	r5, r5
 668              	.LVL84:
 669 0248 0593     		str	r3, [sp, #20]
 670              	.LVL85:
 671              	.L194:
 672              	.LBB262:
 673              	.LBB263:
1162:font.c        ****         for(int j=0; j<font[index] ;j++)
 674              		.loc 1 1162 0
 675 024a 1BF80890 		ldrb	r9, [fp, r8]	@ zero_extendqisi2
 676 024e B9F1000F 		cmp	r9, #0
 677 0252 0DD0     		beq	.L196
 678 0254 09EB0806 		add	r6, r9, r8
 679 0258 5E44     		add	r6, r6, fp
 680 025a 0BEB080A 		add	r10, fp, r8
 681              	.LVL86:
 682              	.L195:
 683              	.LBB264:
1164:font.c        ****             draw_pixel(x+font[index+j+1],y,color);
 684              		.loc 1 1164 0
 685 025e 1AF8010F 		ldrb	r0, [r10, #1]!	@ zero_extendqisi2
 686 0262 2246     		mov	r2, r4
 687 0264 3844     		add	r0, r0, r7
 688 0266 2946     		mov	r1, r5
 689 0268 FFF7FEFF 		bl	draw_pixel
 690              	.LVL87:
 691              	.LBE264:
1162:font.c        ****         for(int j=0; j<font[index] ;j++)
ARM GAS  C:\Users\legoc\AppData\Local\Temp\cc4EoOj2.s 			page 39


 692              		.loc 1 1162 0
 693 026c 5645     		cmp	r6, r10
 694 026e F6D1     		bne	.L195
 695              	.L196:
 696 0270 0135     		adds	r5, r5, #1
 697              	.LVL88:
 698              	.LBE263:
1160:font.c        ****     for(int i=0; i<height; i++)
 699              		.loc 1 1160 0
 700 0272 059B     		ldr	r3, [sp, #20]
1167:font.c        ****         index = index+font[index]+1;
 701              		.loc 1 1167 0
 702 0274 09F10109 		add	r9, r9, #1
 703 0278 2DB2     		sxth	r5, r5
 704              	.LVL89:
 705 027a C844     		add	r8, r8, r9
 706              	.LVL90:
1160:font.c        ****     for(int i=0; i<height; i++)
 707              		.loc 1 1160 0
 708 027c AB42     		cmp	r3, r5
1167:font.c        ****         index = index+font[index]+1;
 709              		.loc 1 1167 0
 710 027e 1FFA88F8 		uxth	r8, r8
 711              	.LVL91:
1160:font.c        ****     for(int i=0; i<height; i++)
 712              		.loc 1 1160 0
 713 0282 E2D1     		bne	.L194
 714 0284 0BE7     		b	.L84
 715              	.LVL92:
 716              	.L56:
 717              	.LBE262:
 718              	.LBE260:
 719              	.LBE259:
1179:font.c        ****         switch(g)
 720              		.loc 1 1179 0
 721 0286 1E21     		movs	r1, #30
 722 0288 1A22     		movs	r2, #26
 723 028a 0123     		movs	r3, #1
 724 028c 01E0     		b	.L67
 725              	.LVL93:
 726              	.L436:
 727 028e 1BF80320 		ldrb	r2, [fp, r3]	@ zero_extendqisi2
 728              	.LVL94:
 729              	.L67:
 730              	.LBB265:
 731              	.LBB266:
 732              	.LBB267:
1152:font.c        ****         index = index + font[index] + 1;
 733              		.loc 1 1152 0
 734 0292 0132     		adds	r2, r2, #1
 735 0294 1344     		add	r3, r3, r2
 736              	.LVL95:
1150:font.c        ****     for(int i=0; i<character;i++)
 737              		.loc 1 1150 0
 738 0296 0139     		subs	r1, r1, #1
1152:font.c        ****         index = index + font[index] + 1;
 739              		.loc 1 1152 0
ARM GAS  C:\Users\legoc\AppData\Local\Temp\cc4EoOj2.s 			page 40


 740 0298 9BB2     		uxth	r3, r3
 741              	.LVL96:
1150:font.c        ****     for(int i=0; i<character;i++)
 742              		.loc 1 1150 0
 743 029a F8D1     		bne	.L436
 744              	.LBE267:
1157:font.c        ****     x = x-2;
 745              		.loc 1 1157 0
 746 029c B2B2     		uxth	r2, r6
 747 029e 1146     		mov	r1, r2
 748 02a0 0392     		str	r2, [sp, #12]
1156:font.c        ****     y = y-2;
 749              		.loc 1 1156 0
 750 02a2 BDF80820 		ldrh	r2, [sp, #8]
1155:font.c        ****     index = index+1;
 751              		.loc 1 1155 0
 752 02a6 0133     		adds	r3, r3, #1
 753              	.LVL97:
1156:font.c        ****     y = y-2;
 754              		.loc 1 1156 0
 755 02a8 951E     		subs	r5, r2, #2
 756 02aa 0532     		adds	r2, r2, #5
1157:font.c        ****     x = x-2;
 757              		.loc 1 1157 0
 758 02ac 8F1E     		subs	r7, r1, #2
1155:font.c        ****     index = index+1;
 759              		.loc 1 1155 0
 760 02ae 1FFA83F8 		uxth	r8, r3
 761              	.LVL98:
 762 02b2 13B2     		sxth	r3, r2
1157:font.c        ****     x = x-2;
 763              		.loc 1 1157 0
 764 02b4 3FB2     		sxth	r7, r7
1156:font.c        ****     y = y-2;
 765              		.loc 1 1156 0
 766 02b6 2DB2     		sxth	r5, r5
 767              	.LVL99:
 768 02b8 0593     		str	r3, [sp, #20]
 769              	.LVL100:
 770              	.L186:
 771              	.LBB268:
 772              	.LBB269:
1162:font.c        ****         for(int j=0; j<font[index] ;j++)
 773              		.loc 1 1162 0
 774 02ba 1BF80890 		ldrb	r9, [fp, r8]	@ zero_extendqisi2
 775 02be B9F1000F 		cmp	r9, #0
 776 02c2 0DD0     		beq	.L188
 777 02c4 09EB0806 		add	r6, r9, r8
 778 02c8 5E44     		add	r6, r6, fp
 779 02ca 0BEB080A 		add	r10, fp, r8
 780              	.LVL101:
 781              	.L187:
 782              	.LBB270:
1164:font.c        ****             draw_pixel(x+font[index+j+1],y,color);
 783              		.loc 1 1164 0
 784 02ce 1AF8010F 		ldrb	r0, [r10, #1]!	@ zero_extendqisi2
 785 02d2 2246     		mov	r2, r4
ARM GAS  C:\Users\legoc\AppData\Local\Temp\cc4EoOj2.s 			page 41


 786 02d4 3844     		add	r0, r0, r7
 787 02d6 2946     		mov	r1, r5
 788 02d8 FFF7FEFF 		bl	draw_pixel
 789              	.LVL102:
 790              	.LBE270:
1162:font.c        ****         for(int j=0; j<font[index] ;j++)
 791              		.loc 1 1162 0
 792 02dc 5645     		cmp	r6, r10
 793 02de F6D1     		bne	.L187
 794              	.L188:
 795 02e0 0135     		adds	r5, r5, #1
 796              	.LVL103:
 797              	.LBE269:
1160:font.c        ****     for(int i=0; i<height; i++)
 798              		.loc 1 1160 0
 799 02e2 059B     		ldr	r3, [sp, #20]
1167:font.c        ****         index = index+font[index]+1;
 800              		.loc 1 1167 0
 801 02e4 09F10109 		add	r9, r9, #1
 802 02e8 2DB2     		sxth	r5, r5
 803              	.LVL104:
 804 02ea C844     		add	r8, r8, r9
 805              	.LVL105:
1160:font.c        ****     for(int i=0; i<height; i++)
 806              		.loc 1 1160 0
 807 02ec AB42     		cmp	r3, r5
1167:font.c        ****         index = index+font[index]+1;
 808              		.loc 1 1167 0
 809 02ee 1FFA88F8 		uxth	r8, r8
 810              	.LVL106:
1160:font.c        ****     for(int i=0; i<height; i++)
 811              		.loc 1 1160 0
 812 02f2 E2D1     		bne	.L186
 813 02f4 D3E6     		b	.L84
 814              	.LVL107:
 815              	.L57:
 816              	.LBE268:
 817              	.LBE266:
 818              	.LBE265:
1179:font.c        ****         switch(g)
 819              		.loc 1 1179 0
 820 02f6 1F21     		movs	r1, #31
 821 02f8 1A22     		movs	r2, #26
 822 02fa 0123     		movs	r3, #1
 823 02fc 01E0     		b	.L66
 824              	.LVL108:
 825              	.L437:
 826 02fe 1BF80320 		ldrb	r2, [fp, r3]	@ zero_extendqisi2
 827              	.LVL109:
 828              	.L66:
 829              	.LBB271:
 830              	.LBB272:
 831              	.LBB273:
1152:font.c        ****         index = index + font[index] + 1;
 832              		.loc 1 1152 0
 833 0302 0132     		adds	r2, r2, #1
 834 0304 1344     		add	r3, r3, r2
ARM GAS  C:\Users\legoc\AppData\Local\Temp\cc4EoOj2.s 			page 42


 835              	.LVL110:
1150:font.c        ****     for(int i=0; i<character;i++)
 836              		.loc 1 1150 0
 837 0306 0139     		subs	r1, r1, #1
1152:font.c        ****         index = index + font[index] + 1;
 838              		.loc 1 1152 0
 839 0308 9BB2     		uxth	r3, r3
 840              	.LVL111:
1150:font.c        ****     for(int i=0; i<character;i++)
 841              		.loc 1 1150 0
 842 030a F8D1     		bne	.L437
 843              	.LBE273:
1157:font.c        ****     x = x-2;
 844              		.loc 1 1157 0
 845 030c B2B2     		uxth	r2, r6
 846 030e 1146     		mov	r1, r2
 847 0310 0392     		str	r2, [sp, #12]
1156:font.c        ****     y = y-2;
 848              		.loc 1 1156 0
 849 0312 BDF80820 		ldrh	r2, [sp, #8]
1155:font.c        ****     index = index+1;
 850              		.loc 1 1155 0
 851 0316 0133     		adds	r3, r3, #1
 852              	.LVL112:
1156:font.c        ****     y = y-2;
 853              		.loc 1 1156 0
 854 0318 951E     		subs	r5, r2, #2
 855 031a 0532     		adds	r2, r2, #5
1157:font.c        ****     x = x-2;
 856              		.loc 1 1157 0
 857 031c 8F1E     		subs	r7, r1, #2
1155:font.c        ****     index = index+1;
 858              		.loc 1 1155 0
 859 031e 1FFA83F8 		uxth	r8, r3
 860              	.LVL113:
 861 0322 13B2     		sxth	r3, r2
1157:font.c        ****     x = x-2;
 862              		.loc 1 1157 0
 863 0324 3FB2     		sxth	r7, r7
1156:font.c        ****     y = y-2;
 864              		.loc 1 1156 0
 865 0326 2DB2     		sxth	r5, r5
 866              	.LVL114:
 867 0328 0593     		str	r3, [sp, #20]
 868              	.LVL115:
 869              	.L190:
 870              	.LBB274:
 871              	.LBB275:
1162:font.c        ****         for(int j=0; j<font[index] ;j++)
 872              		.loc 1 1162 0
 873 032a 1BF80890 		ldrb	r9, [fp, r8]	@ zero_extendqisi2
 874 032e B9F1000F 		cmp	r9, #0
 875 0332 0DD0     		beq	.L192
 876 0334 09EB0806 		add	r6, r9, r8
 877 0338 5E44     		add	r6, r6, fp
 878 033a 0BEB080A 		add	r10, fp, r8
 879              	.LVL116:
ARM GAS  C:\Users\legoc\AppData\Local\Temp\cc4EoOj2.s 			page 43


 880              	.L191:
 881              	.LBB276:
1164:font.c        ****             draw_pixel(x+font[index+j+1],y,color);
 882              		.loc 1 1164 0
 883 033e 1AF8010F 		ldrb	r0, [r10, #1]!	@ zero_extendqisi2
 884 0342 2246     		mov	r2, r4
 885 0344 3844     		add	r0, r0, r7
 886 0346 2946     		mov	r1, r5
 887 0348 FFF7FEFF 		bl	draw_pixel
 888              	.LVL117:
 889              	.LBE276:
1162:font.c        ****         for(int j=0; j<font[index] ;j++)
 890              		.loc 1 1162 0
 891 034c 5645     		cmp	r6, r10
 892 034e F6D1     		bne	.L191
 893              	.L192:
 894 0350 0135     		adds	r5, r5, #1
 895              	.LVL118:
 896              	.LBE275:
1160:font.c        ****     for(int i=0; i<height; i++)
 897              		.loc 1 1160 0
 898 0352 059B     		ldr	r3, [sp, #20]
1167:font.c        ****         index = index+font[index]+1;
 899              		.loc 1 1167 0
 900 0354 09F10109 		add	r9, r9, #1
 901 0358 2DB2     		sxth	r5, r5
 902              	.LVL119:
 903 035a C844     		add	r8, r8, r9
 904              	.LVL120:
1160:font.c        ****     for(int i=0; i<height; i++)
 905              		.loc 1 1160 0
 906 035c AB42     		cmp	r3, r5
1167:font.c        ****         index = index+font[index]+1;
 907              		.loc 1 1167 0
 908 035e 1FFA88F8 		uxth	r8, r8
 909              	.LVL121:
1160:font.c        ****     for(int i=0; i<height; i++)
 910              		.loc 1 1160 0
 911 0362 E2D1     		bne	.L190
 912 0364 9BE6     		b	.L84
 913              	.LVL122:
 914              	.L55:
 915              	.LBE274:
 916              	.LBE272:
 917              	.LBE271:
1179:font.c        ****         switch(g)
 918              		.loc 1 1179 0
 919 0366 1D21     		movs	r1, #29
 920 0368 1A22     		movs	r2, #26
 921 036a 0123     		movs	r3, #1
 922 036c 01E0     		b	.L68
 923              	.LVL123:
 924              	.L438:
 925 036e 1BF80320 		ldrb	r2, [fp, r3]	@ zero_extendqisi2
 926              	.LVL124:
 927              	.L68:
 928              	.LBB277:
ARM GAS  C:\Users\legoc\AppData\Local\Temp\cc4EoOj2.s 			page 44


 929              	.LBB278:
 930              	.LBB279:
1152:font.c        ****         index = index + font[index] + 1;
 931              		.loc 1 1152 0
 932 0372 0132     		adds	r2, r2, #1
 933 0374 1344     		add	r3, r3, r2
 934              	.LVL125:
1150:font.c        ****     for(int i=0; i<character;i++)
 935              		.loc 1 1150 0
 936 0376 0139     		subs	r1, r1, #1
1152:font.c        ****         index = index + font[index] + 1;
 937              		.loc 1 1152 0
 938 0378 9BB2     		uxth	r3, r3
 939              	.LVL126:
1150:font.c        ****     for(int i=0; i<character;i++)
 940              		.loc 1 1150 0
 941 037a F8D1     		bne	.L438
 942              	.LBE279:
1157:font.c        ****     x = x-2;
 943              		.loc 1 1157 0
 944 037c B2B2     		uxth	r2, r6
 945 037e 1146     		mov	r1, r2
 946 0380 0392     		str	r2, [sp, #12]
1156:font.c        ****     y = y-2;
 947              		.loc 1 1156 0
 948 0382 BDF80820 		ldrh	r2, [sp, #8]
1155:font.c        ****     index = index+1;
 949              		.loc 1 1155 0
 950 0386 0133     		adds	r3, r3, #1
 951              	.LVL127:
1156:font.c        ****     y = y-2;
 952              		.loc 1 1156 0
 953 0388 951E     		subs	r5, r2, #2
 954 038a 0532     		adds	r2, r2, #5
1157:font.c        ****     x = x-2;
 955              		.loc 1 1157 0
 956 038c 8F1E     		subs	r7, r1, #2
1155:font.c        ****     index = index+1;
 957              		.loc 1 1155 0
 958 038e 1FFA83F8 		uxth	r8, r3
 959              	.LVL128:
 960 0392 13B2     		sxth	r3, r2
1157:font.c        ****     x = x-2;
 961              		.loc 1 1157 0
 962 0394 3FB2     		sxth	r7, r7
1156:font.c        ****     y = y-2;
 963              		.loc 1 1156 0
 964 0396 2DB2     		sxth	r5, r5
 965              	.LVL129:
 966 0398 0593     		str	r3, [sp, #20]
 967              	.LVL130:
 968              	.L182:
 969              	.LBB280:
 970              	.LBB281:
1162:font.c        ****         for(int j=0; j<font[index] ;j++)
 971              		.loc 1 1162 0
 972 039a 1BF80890 		ldrb	r9, [fp, r8]	@ zero_extendqisi2
ARM GAS  C:\Users\legoc\AppData\Local\Temp\cc4EoOj2.s 			page 45


 973 039e B9F1000F 		cmp	r9, #0
 974 03a2 0DD0     		beq	.L184
 975 03a4 09EB0806 		add	r6, r9, r8
 976 03a8 5E44     		add	r6, r6, fp
 977 03aa 0BEB080A 		add	r10, fp, r8
 978              	.LVL131:
 979              	.L183:
 980              	.LBB282:
1164:font.c        ****             draw_pixel(x+font[index+j+1],y,color);
 981              		.loc 1 1164 0
 982 03ae 1AF8010F 		ldrb	r0, [r10, #1]!	@ zero_extendqisi2
 983 03b2 2246     		mov	r2, r4
 984 03b4 3844     		add	r0, r0, r7
 985 03b6 2946     		mov	r1, r5
 986 03b8 FFF7FEFF 		bl	draw_pixel
 987              	.LVL132:
 988              	.LBE282:
1162:font.c        ****         for(int j=0; j<font[index] ;j++)
 989              		.loc 1 1162 0
 990 03bc 5645     		cmp	r6, r10
 991 03be F6D1     		bne	.L183
 992              	.L184:
 993 03c0 0135     		adds	r5, r5, #1
 994              	.LVL133:
 995              	.LBE281:
1160:font.c        ****     for(int i=0; i<height; i++)
 996              		.loc 1 1160 0
 997 03c2 059B     		ldr	r3, [sp, #20]
1167:font.c        ****         index = index+font[index]+1;
 998              		.loc 1 1167 0
 999 03c4 09F10109 		add	r9, r9, #1
 1000 03c8 2DB2     		sxth	r5, r5
 1001              	.LVL134:
 1002 03ca C844     		add	r8, r8, r9
 1003              	.LVL135:
1160:font.c        ****     for(int i=0; i<height; i++)
 1004              		.loc 1 1160 0
 1005 03cc AB42     		cmp	r3, r5
1167:font.c        ****         index = index+font[index]+1;
 1006              		.loc 1 1167 0
 1007 03ce 1FFA88F8 		uxth	r8, r8
 1008              	.LVL136:
1160:font.c        ****     for(int i=0; i<height; i++)
 1009              		.loc 1 1160 0
 1010 03d2 E2D1     		bne	.L182
 1011 03d4 63E6     		b	.L84
 1012              	.LVL137:
 1013              	.L54:
 1014              	.LBE280:
 1015              	.LBE278:
 1016              	.LBE277:
1179:font.c        ****         switch(g)
 1017              		.loc 1 1179 0
 1018 03d6 1C21     		movs	r1, #28
 1019 03d8 1A22     		movs	r2, #26
 1020 03da 0123     		movs	r3, #1
 1021 03dc 01E0     		b	.L69
ARM GAS  C:\Users\legoc\AppData\Local\Temp\cc4EoOj2.s 			page 46


 1022              	.LVL138:
 1023              	.L439:
 1024 03de 1BF80320 		ldrb	r2, [fp, r3]	@ zero_extendqisi2
 1025              	.LVL139:
 1026              	.L69:
 1027              	.LBB283:
 1028              	.LBB284:
 1029              	.LBB285:
1152:font.c        ****         index = index + font[index] + 1;
 1030              		.loc 1 1152 0
 1031 03e2 0132     		adds	r2, r2, #1
 1032 03e4 1344     		add	r3, r3, r2
 1033              	.LVL140:
1150:font.c        ****     for(int i=0; i<character;i++)
 1034              		.loc 1 1150 0
 1035 03e6 0139     		subs	r1, r1, #1
1152:font.c        ****         index = index + font[index] + 1;
 1036              		.loc 1 1152 0
 1037 03e8 9BB2     		uxth	r3, r3
 1038              	.LVL141:
1150:font.c        ****     for(int i=0; i<character;i++)
 1039              		.loc 1 1150 0
 1040 03ea F8D1     		bne	.L439
 1041              	.LBE285:
1157:font.c        ****     x = x-2;
 1042              		.loc 1 1157 0
 1043 03ec B2B2     		uxth	r2, r6
 1044 03ee 1146     		mov	r1, r2
 1045 03f0 0392     		str	r2, [sp, #12]
1156:font.c        ****     y = y-2;
 1046              		.loc 1 1156 0
 1047 03f2 BDF80820 		ldrh	r2, [sp, #8]
1155:font.c        ****     index = index+1;
 1048              		.loc 1 1155 0
 1049 03f6 0133     		adds	r3, r3, #1
 1050              	.LVL142:
1156:font.c        ****     y = y-2;
 1051              		.loc 1 1156 0
 1052 03f8 951E     		subs	r5, r2, #2
 1053 03fa 0532     		adds	r2, r2, #5
1157:font.c        ****     x = x-2;
 1054              		.loc 1 1157 0
 1055 03fc 8F1E     		subs	r7, r1, #2
1155:font.c        ****     index = index+1;
 1056              		.loc 1 1155 0
 1057 03fe 1FFA83F8 		uxth	r8, r3
 1058              	.LVL143:
 1059 0402 13B2     		sxth	r3, r2
1157:font.c        ****     x = x-2;
 1060              		.loc 1 1157 0
 1061 0404 3FB2     		sxth	r7, r7
1156:font.c        ****     y = y-2;
 1062              		.loc 1 1156 0
 1063 0406 2DB2     		sxth	r5, r5
 1064              	.LVL144:
 1065 0408 0593     		str	r3, [sp, #20]
 1066              	.LVL145:
ARM GAS  C:\Users\legoc\AppData\Local\Temp\cc4EoOj2.s 			page 47


 1067              	.L178:
 1068              	.LBB286:
 1069              	.LBB287:
1162:font.c        ****         for(int j=0; j<font[index] ;j++)
 1070              		.loc 1 1162 0
 1071 040a 1BF80890 		ldrb	r9, [fp, r8]	@ zero_extendqisi2
 1072 040e B9F1000F 		cmp	r9, #0
 1073 0412 0DD0     		beq	.L180
 1074 0414 09EB0806 		add	r6, r9, r8
 1075 0418 5E44     		add	r6, r6, fp
 1076 041a 0BEB080A 		add	r10, fp, r8
 1077              	.LVL146:
 1078              	.L179:
 1079              	.LBB288:
1164:font.c        ****             draw_pixel(x+font[index+j+1],y,color);
 1080              		.loc 1 1164 0
 1081 041e 1AF8010F 		ldrb	r0, [r10, #1]!	@ zero_extendqisi2
 1082 0422 2246     		mov	r2, r4
 1083 0424 3844     		add	r0, r0, r7
 1084 0426 2946     		mov	r1, r5
 1085 0428 FFF7FEFF 		bl	draw_pixel
 1086              	.LVL147:
 1087              	.LBE288:
1162:font.c        ****         for(int j=0; j<font[index] ;j++)
 1088              		.loc 1 1162 0
 1089 042c 5645     		cmp	r6, r10
 1090 042e F6D1     		bne	.L179
 1091              	.L180:
 1092 0430 0135     		adds	r5, r5, #1
 1093              	.LVL148:
 1094              	.LBE287:
1160:font.c        ****     for(int i=0; i<height; i++)
 1095              		.loc 1 1160 0
 1096 0432 059B     		ldr	r3, [sp, #20]
1167:font.c        ****         index = index+font[index]+1;
 1097              		.loc 1 1167 0
 1098 0434 09F10109 		add	r9, r9, #1
 1099 0438 2DB2     		sxth	r5, r5
 1100              	.LVL149:
 1101 043a C844     		add	r8, r8, r9
 1102              	.LVL150:
1160:font.c        ****     for(int i=0; i<height; i++)
 1103              		.loc 1 1160 0
 1104 043c AB42     		cmp	r3, r5
1167:font.c        ****         index = index+font[index]+1;
 1105              		.loc 1 1167 0
 1106 043e 1FFA88F8 		uxth	r8, r8
 1107              	.LVL151:
1160:font.c        ****     for(int i=0; i<height; i++)
 1108              		.loc 1 1160 0
 1109 0442 E2D1     		bne	.L178
 1110 0444 2BE6     		b	.L84
 1111              	.LVL152:
 1112              	.L38:
 1113              	.LBE286:
 1114              	.LBE284:
 1115              	.LBE283:
ARM GAS  C:\Users\legoc\AppData\Local\Temp\cc4EoOj2.s 			page 48


 1116              	.LBB289:
 1117              	.LBB290:
1157:font.c        ****     x = x-2;
 1118              		.loc 1 1157 0
 1119 0446 B3B2     		uxth	r3, r6
 1120 0448 1A46     		mov	r2, r3
 1121 044a 0393     		str	r3, [sp, #12]
1156:font.c        ****     y = y-2;
 1122              		.loc 1 1156 0
 1123 044c BDF80830 		ldrh	r3, [sp, #8]
1157:font.c        ****     x = x-2;
 1124              		.loc 1 1157 0
 1125 0450 971E     		subs	r7, r2, #2
1156:font.c        ****     y = y-2;
 1126              		.loc 1 1156 0
 1127 0452 9D1E     		subs	r5, r3, #2
 1128 0454 0533     		adds	r3, r3, #5
 1129 0456 1BB2     		sxth	r3, r3
1157:font.c        ****     x = x-2;
 1130              		.loc 1 1157 0
 1131 0458 3FB2     		sxth	r7, r7
1156:font.c        ****     y = y-2;
 1132              		.loc 1 1156 0
 1133 045a 2DB2     		sxth	r5, r5
 1134              	.LVL153:
 1135 045c 0593     		str	r3, [sp, #20]
1157:font.c        ****     x = x-2;
 1136              		.loc 1 1157 0
 1137 045e 4FF00309 		mov	r9, #3
1155:font.c        ****     index = index+1;
 1138              		.loc 1 1155 0
 1139 0462 4FF49078 		mov	r8, #288
 1140              	.LVL154:
 1141              	.L119:
 1142              	.LBB291:
 1143              	.LBB292:
1162:font.c        ****         for(int j=0; j<font[index] ;j++)
 1144              		.loc 1 1162 0
 1145 0466 B9F1000F 		cmp	r9, #0
 1146 046a 0DD0     		beq	.L121
 1147 046c 09EB0806 		add	r6, r9, r8
 1148 0470 5E44     		add	r6, r6, fp
 1149 0472 0BEB080A 		add	r10, fp, r8
 1150              	.LVL155:
 1151              	.L120:
 1152              	.LBB293:
1164:font.c        ****             draw_pixel(x+font[index+j+1],y,color);
 1153              		.loc 1 1164 0
 1154 0476 1AF8010F 		ldrb	r0, [r10, #1]!	@ zero_extendqisi2
 1155 047a 2246     		mov	r2, r4
 1156 047c 3844     		add	r0, r0, r7
 1157 047e 2946     		mov	r1, r5
 1158 0480 FFF7FEFF 		bl	draw_pixel
 1159              	.LVL156:
 1160              	.LBE293:
1162:font.c        ****         for(int j=0; j<font[index] ;j++)
 1161              		.loc 1 1162 0
ARM GAS  C:\Users\legoc\AppData\Local\Temp\cc4EoOj2.s 			page 49


 1162 0484 5645     		cmp	r6, r10
 1163 0486 F6D1     		bne	.L120
 1164              	.L121:
 1165 0488 0135     		adds	r5, r5, #1
 1166              	.LVL157:
 1167              	.LBE292:
1160:font.c        ****     for(int i=0; i<height; i++)
 1168              		.loc 1 1160 0
 1169 048a 059B     		ldr	r3, [sp, #20]
1167:font.c        ****         index = index+font[index]+1;
 1170              		.loc 1 1167 0
 1171 048c 09F10109 		add	r9, r9, #1
 1172 0490 2DB2     		sxth	r5, r5
 1173              	.LVL158:
 1174 0492 C844     		add	r8, r8, r9
 1175              	.LVL159:
1160:font.c        ****     for(int i=0; i<height; i++)
 1176              		.loc 1 1160 0
 1177 0494 9D42     		cmp	r5, r3
1167:font.c        ****         index = index+font[index]+1;
 1178              		.loc 1 1167 0
 1179 0496 1FFA88F8 		uxth	r8, r8
 1180              	.LVL160:
1160:font.c        ****     for(int i=0; i<height; i++)
 1181              		.loc 1 1160 0
 1182 049a 3FF400AE 		beq	.L84
 1183 049e 1BF80890 		ldrb	r9, [fp, r8]	@ zero_extendqisi2
 1184 04a2 E0E7     		b	.L119
 1185              	.LVL161:
 1186              	.L46:
 1187              	.LBE291:
 1188              	.LBE290:
 1189              	.LBE289:
1179:font.c        ****         switch(g)
 1190              		.loc 1 1179 0
 1191 04a4 1421     		movs	r1, #20
 1192 04a6 1A22     		movs	r2, #26
 1193 04a8 0123     		movs	r3, #1
 1194 04aa 01E0     		b	.L77
 1195              	.LVL162:
 1196              	.L440:
 1197 04ac 1BF80320 		ldrb	r2, [fp, r3]	@ zero_extendqisi2
 1198              	.LVL163:
 1199              	.L77:
 1200              	.LBB294:
 1201              	.LBB295:
 1202              	.LBB296:
1152:font.c        ****         index = index + font[index] + 1;
 1203              		.loc 1 1152 0
 1204 04b0 0132     		adds	r2, r2, #1
 1205 04b2 1344     		add	r3, r3, r2
 1206              	.LVL164:
1150:font.c        ****     for(int i=0; i<character;i++)
 1207              		.loc 1 1150 0
 1208 04b4 0139     		subs	r1, r1, #1
1152:font.c        ****         index = index + font[index] + 1;
 1209              		.loc 1 1152 0
ARM GAS  C:\Users\legoc\AppData\Local\Temp\cc4EoOj2.s 			page 50


 1210 04b6 9BB2     		uxth	r3, r3
 1211              	.LVL165:
1150:font.c        ****     for(int i=0; i<character;i++)
 1212              		.loc 1 1150 0
 1213 04b8 F8D1     		bne	.L440
 1214              	.LBE296:
1157:font.c        ****     x = x-2;
 1215              		.loc 1 1157 0
 1216 04ba B2B2     		uxth	r2, r6
 1217 04bc 1146     		mov	r1, r2
 1218 04be 0392     		str	r2, [sp, #12]
1156:font.c        ****     y = y-2;
 1219              		.loc 1 1156 0
 1220 04c0 BDF80820 		ldrh	r2, [sp, #8]
1155:font.c        ****     index = index+1;
 1221              		.loc 1 1155 0
 1222 04c4 0133     		adds	r3, r3, #1
 1223              	.LVL166:
1156:font.c        ****     y = y-2;
 1224              		.loc 1 1156 0
 1225 04c6 951E     		subs	r5, r2, #2
 1226 04c8 0532     		adds	r2, r2, #5
1157:font.c        ****     x = x-2;
 1227              		.loc 1 1157 0
 1228 04ca 8F1E     		subs	r7, r1, #2
1155:font.c        ****     index = index+1;
 1229              		.loc 1 1155 0
 1230 04cc 1FFA83F8 		uxth	r8, r3
 1231              	.LVL167:
 1232 04d0 13B2     		sxth	r3, r2
1157:font.c        ****     x = x-2;
 1233              		.loc 1 1157 0
 1234 04d2 3FB2     		sxth	r7, r7
1156:font.c        ****     y = y-2;
 1235              		.loc 1 1156 0
 1236 04d4 2DB2     		sxth	r5, r5
 1237              	.LVL168:
 1238 04d6 0593     		str	r3, [sp, #20]
 1239              	.LVL169:
 1240              	.L146:
 1241              	.LBB297:
 1242              	.LBB298:
1162:font.c        ****         for(int j=0; j<font[index] ;j++)
 1243              		.loc 1 1162 0
 1244 04d8 1BF80890 		ldrb	r9, [fp, r8]	@ zero_extendqisi2
 1245 04dc B9F1000F 		cmp	r9, #0
 1246 04e0 0DD0     		beq	.L148
 1247 04e2 09EB0806 		add	r6, r9, r8
 1248 04e6 5E44     		add	r6, r6, fp
 1249 04e8 0BEB080A 		add	r10, fp, r8
 1250              	.LVL170:
 1251              	.L147:
 1252              	.LBB299:
1164:font.c        ****             draw_pixel(x+font[index+j+1],y,color);
 1253              		.loc 1 1164 0
 1254 04ec 1AF8010F 		ldrb	r0, [r10, #1]!	@ zero_extendqisi2
 1255 04f0 2246     		mov	r2, r4
ARM GAS  C:\Users\legoc\AppData\Local\Temp\cc4EoOj2.s 			page 51


 1256 04f2 3844     		add	r0, r0, r7
 1257 04f4 2946     		mov	r1, r5
 1258 04f6 FFF7FEFF 		bl	draw_pixel
 1259              	.LVL171:
 1260              	.LBE299:
1162:font.c        ****         for(int j=0; j<font[index] ;j++)
 1261              		.loc 1 1162 0
 1262 04fa 5645     		cmp	r6, r10
 1263 04fc F6D1     		bne	.L147
 1264              	.L148:
 1265 04fe 0135     		adds	r5, r5, #1
 1266              	.LVL172:
 1267              	.LBE298:
1160:font.c        ****     for(int i=0; i<height; i++)
 1268              		.loc 1 1160 0
 1269 0500 059B     		ldr	r3, [sp, #20]
1167:font.c        ****         index = index+font[index]+1;
 1270              		.loc 1 1167 0
 1271 0502 09F10109 		add	r9, r9, #1
 1272 0506 2DB2     		sxth	r5, r5
 1273              	.LVL173:
 1274 0508 C844     		add	r8, r8, r9
 1275              	.LVL174:
1160:font.c        ****     for(int i=0; i<height; i++)
 1276              		.loc 1 1160 0
 1277 050a AB42     		cmp	r3, r5
1167:font.c        ****         index = index+font[index]+1;
 1278              		.loc 1 1167 0
 1279 050c 1FFA88F8 		uxth	r8, r8
 1280              	.LVL175:
1160:font.c        ****     for(int i=0; i<height; i++)
 1281              		.loc 1 1160 0
 1282 0510 E2D1     		bne	.L146
 1283 0512 C4E5     		b	.L84
 1284              	.LVL176:
 1285              	.L30:
 1286              	.LBE297:
 1287              	.LBE295:
 1288              	.LBE294:
 1289              	.LBB300:
 1290              	.LBB301:
1157:font.c        ****     x = x-2;
 1291              		.loc 1 1157 0
 1292 0514 B3B2     		uxth	r3, r6
 1293 0516 1A46     		mov	r2, r3
 1294 0518 0393     		str	r3, [sp, #12]
1156:font.c        ****     y = y-2;
 1295              		.loc 1 1156 0
 1296 051a BDF80830 		ldrh	r3, [sp, #8]
1157:font.c        ****     x = x-2;
 1297              		.loc 1 1157 0
 1298 051e 971E     		subs	r7, r2, #2
1156:font.c        ****     y = y-2;
 1299              		.loc 1 1156 0
 1300 0520 9D1E     		subs	r5, r3, #2
 1301 0522 0533     		adds	r3, r3, #5
 1302 0524 1BB2     		sxth	r3, r3
ARM GAS  C:\Users\legoc\AppData\Local\Temp\cc4EoOj2.s 			page 52


1157:font.c        ****     x = x-2;
 1303              		.loc 1 1157 0
 1304 0526 3FB2     		sxth	r7, r7
1156:font.c        ****     y = y-2;
 1305              		.loc 1 1156 0
 1306 0528 2DB2     		sxth	r5, r5
 1307              	.LVL177:
 1308 052a 0593     		str	r3, [sp, #20]
1157:font.c        ****     x = x-2;
 1309              		.loc 1 1157 0
 1310 052c 4FF00109 		mov	r9, #1
1155:font.c        ****     index = index+1;
 1311              		.loc 1 1155 0
 1312 0530 4FF05F08 		mov	r8, #95
 1313              	.LVL178:
 1314              	.L95:
 1315              	.LBB302:
 1316              	.LBB303:
1162:font.c        ****         for(int j=0; j<font[index] ;j++)
 1317              		.loc 1 1162 0
 1318 0534 B9F1000F 		cmp	r9, #0
 1319 0538 0DD0     		beq	.L97
 1320 053a 09EB0806 		add	r6, r9, r8
 1321 053e 5E44     		add	r6, r6, fp
 1322 0540 0BEB080A 		add	r10, fp, r8
 1323              	.LVL179:
 1324              	.L96:
 1325              	.LBB304:
1164:font.c        ****             draw_pixel(x+font[index+j+1],y,color);
 1326              		.loc 1 1164 0
 1327 0544 1AF8010F 		ldrb	r0, [r10, #1]!	@ zero_extendqisi2
 1328 0548 2246     		mov	r2, r4
 1329 054a 3844     		add	r0, r0, r7
 1330 054c 2946     		mov	r1, r5
 1331 054e FFF7FEFF 		bl	draw_pixel
 1332              	.LVL180:
 1333              	.LBE304:
1162:font.c        ****         for(int j=0; j<font[index] ;j++)
 1334              		.loc 1 1162 0
 1335 0552 B245     		cmp	r10, r6
 1336 0554 F6D1     		bne	.L96
 1337              	.L97:
 1338 0556 0135     		adds	r5, r5, #1
 1339              	.LVL181:
 1340              	.LBE303:
1160:font.c        ****     for(int i=0; i<height; i++)
 1341              		.loc 1 1160 0
 1342 0558 059B     		ldr	r3, [sp, #20]
1167:font.c        ****         index = index+font[index]+1;
 1343              		.loc 1 1167 0
 1344 055a 09F10109 		add	r9, r9, #1
 1345 055e 2DB2     		sxth	r5, r5
 1346              	.LVL182:
 1347 0560 C844     		add	r8, r8, r9
 1348              	.LVL183:
1160:font.c        ****     for(int i=0; i<height; i++)
 1349              		.loc 1 1160 0
ARM GAS  C:\Users\legoc\AppData\Local\Temp\cc4EoOj2.s 			page 53


 1350 0562 AB42     		cmp	r3, r5
1167:font.c        ****         index = index+font[index]+1;
 1351              		.loc 1 1167 0
 1352 0564 1FFA88F8 		uxth	r8, r8
 1353              	.LVL184:
1160:font.c        ****     for(int i=0; i<height; i++)
 1354              		.loc 1 1160 0
 1355 0568 3FF499AD 		beq	.L84
 1356 056c 1BF80890 		ldrb	r9, [fp, r8]	@ zero_extendqisi2
 1357 0570 E0E7     		b	.L95
 1358              	.LVL185:
 1359              	.L50:
 1360              	.LBE302:
 1361              	.LBE301:
 1362              	.LBE300:
1179:font.c        ****         switch(g)
 1363              		.loc 1 1179 0
 1364 0572 1821     		movs	r1, #24
 1365 0574 1A22     		movs	r2, #26
 1366 0576 0123     		movs	r3, #1
 1367 0578 01E0     		b	.L73
 1368              	.LVL186:
 1369              	.L441:
 1370 057a 1BF80320 		ldrb	r2, [fp, r3]	@ zero_extendqisi2
 1371              	.LVL187:
 1372              	.L73:
 1373              	.LBB305:
 1374              	.LBB306:
 1375              	.LBB307:
1152:font.c        ****         index = index + font[index] + 1;
 1376              		.loc 1 1152 0
 1377 057e 0132     		adds	r2, r2, #1
 1378 0580 1344     		add	r3, r3, r2
 1379              	.LVL188:
1150:font.c        ****     for(int i=0; i<character;i++)
 1380              		.loc 1 1150 0
 1381 0582 0139     		subs	r1, r1, #1
1152:font.c        ****         index = index + font[index] + 1;
 1382              		.loc 1 1152 0
 1383 0584 9BB2     		uxth	r3, r3
 1384              	.LVL189:
1150:font.c        ****     for(int i=0; i<character;i++)
 1385              		.loc 1 1150 0
 1386 0586 F8D1     		bne	.L441
 1387              	.LBE307:
1157:font.c        ****     x = x-2;
 1388              		.loc 1 1157 0
 1389 0588 B2B2     		uxth	r2, r6
 1390 058a 1146     		mov	r1, r2
 1391 058c 0392     		str	r2, [sp, #12]
1156:font.c        ****     y = y-2;
 1392              		.loc 1 1156 0
 1393 058e BDF80820 		ldrh	r2, [sp, #8]
1155:font.c        ****     index = index+1;
 1394              		.loc 1 1155 0
 1395 0592 0133     		adds	r3, r3, #1
 1396              	.LVL190:
ARM GAS  C:\Users\legoc\AppData\Local\Temp\cc4EoOj2.s 			page 54


1156:font.c        ****     y = y-2;
 1397              		.loc 1 1156 0
 1398 0594 951E     		subs	r5, r2, #2
 1399 0596 0532     		adds	r2, r2, #5
1157:font.c        ****     x = x-2;
 1400              		.loc 1 1157 0
 1401 0598 8F1E     		subs	r7, r1, #2
1155:font.c        ****     index = index+1;
 1402              		.loc 1 1155 0
 1403 059a 1FFA83F8 		uxth	r8, r3
 1404              	.LVL191:
 1405 059e 13B2     		sxth	r3, r2
1157:font.c        ****     x = x-2;
 1406              		.loc 1 1157 0
 1407 05a0 3FB2     		sxth	r7, r7
1156:font.c        ****     y = y-2;
 1408              		.loc 1 1156 0
 1409 05a2 2DB2     		sxth	r5, r5
 1410              	.LVL192:
 1411 05a4 0593     		str	r3, [sp, #20]
 1412              	.LVL193:
 1413              	.L162:
 1414              	.LBB308:
 1415              	.LBB309:
1162:font.c        ****         for(int j=0; j<font[index] ;j++)
 1416              		.loc 1 1162 0
 1417 05a6 1BF80890 		ldrb	r9, [fp, r8]	@ zero_extendqisi2
 1418 05aa B9F1000F 		cmp	r9, #0
 1419 05ae 0DD0     		beq	.L164
 1420 05b0 09EB0806 		add	r6, r9, r8
 1421 05b4 5E44     		add	r6, r6, fp
 1422 05b6 0BEB080A 		add	r10, fp, r8
 1423              	.LVL194:
 1424              	.L163:
 1425              	.LBB310:
1164:font.c        ****             draw_pixel(x+font[index+j+1],y,color);
 1426              		.loc 1 1164 0
 1427 05ba 1AF8010F 		ldrb	r0, [r10, #1]!	@ zero_extendqisi2
 1428 05be 2246     		mov	r2, r4
 1429 05c0 3844     		add	r0, r0, r7
 1430 05c2 2946     		mov	r1, r5
 1431 05c4 FFF7FEFF 		bl	draw_pixel
 1432              	.LVL195:
 1433              	.LBE310:
1162:font.c        ****         for(int j=0; j<font[index] ;j++)
 1434              		.loc 1 1162 0
 1435 05c8 5645     		cmp	r6, r10
 1436 05ca F6D1     		bne	.L163
 1437              	.L164:
 1438 05cc 0135     		adds	r5, r5, #1
 1439              	.LVL196:
 1440              	.LBE309:
1160:font.c        ****     for(int i=0; i<height; i++)
 1441              		.loc 1 1160 0
 1442 05ce 059B     		ldr	r3, [sp, #20]
1167:font.c        ****         index = index+font[index]+1;
 1443              		.loc 1 1167 0
ARM GAS  C:\Users\legoc\AppData\Local\Temp\cc4EoOj2.s 			page 55


 1444 05d0 09F10109 		add	r9, r9, #1
 1445 05d4 2DB2     		sxth	r5, r5
 1446              	.LVL197:
 1447 05d6 C844     		add	r8, r8, r9
 1448              	.LVL198:
1160:font.c        ****     for(int i=0; i<height; i++)
 1449              		.loc 1 1160 0
 1450 05d8 AB42     		cmp	r3, r5
1167:font.c        ****         index = index+font[index]+1;
 1451              		.loc 1 1167 0
 1452 05da 1FFA88F8 		uxth	r8, r8
 1453              	.LVL199:
1160:font.c        ****     for(int i=0; i<height; i++)
 1454              		.loc 1 1160 0
 1455 05de E2D1     		bne	.L162
 1456 05e0 5DE5     		b	.L84
 1457              	.LVL200:
 1458              	.L49:
 1459              	.LBE308:
 1460              	.LBE306:
 1461              	.LBE305:
1179:font.c        ****         switch(g)
 1462              		.loc 1 1179 0
 1463 05e2 1721     		movs	r1, #23
 1464 05e4 1A22     		movs	r2, #26
 1465 05e6 0123     		movs	r3, #1
 1466 05e8 01E0     		b	.L74
 1467              	.LVL201:
 1468              	.L442:
 1469 05ea 1BF80320 		ldrb	r2, [fp, r3]	@ zero_extendqisi2
 1470              	.LVL202:
 1471              	.L74:
 1472              	.LBB311:
 1473              	.LBB312:
 1474              	.LBB313:
1152:font.c        ****         index = index + font[index] + 1;
 1475              		.loc 1 1152 0
 1476 05ee 0132     		adds	r2, r2, #1
 1477 05f0 1344     		add	r3, r3, r2
 1478              	.LVL203:
1150:font.c        ****     for(int i=0; i<character;i++)
 1479              		.loc 1 1150 0
 1480 05f2 0139     		subs	r1, r1, #1
1152:font.c        ****         index = index + font[index] + 1;
 1481              		.loc 1 1152 0
 1482 05f4 9BB2     		uxth	r3, r3
 1483              	.LVL204:
1150:font.c        ****     for(int i=0; i<character;i++)
 1484              		.loc 1 1150 0
 1485 05f6 F8D1     		bne	.L442
 1486              	.LBE313:
1157:font.c        ****     x = x-2;
 1487              		.loc 1 1157 0
 1488 05f8 B2B2     		uxth	r2, r6
 1489 05fa 1146     		mov	r1, r2
 1490 05fc 0392     		str	r2, [sp, #12]
1156:font.c        ****     y = y-2;
ARM GAS  C:\Users\legoc\AppData\Local\Temp\cc4EoOj2.s 			page 56


 1491              		.loc 1 1156 0
 1492 05fe BDF80820 		ldrh	r2, [sp, #8]
1155:font.c        ****     index = index+1;
 1493              		.loc 1 1155 0
 1494 0602 0133     		adds	r3, r3, #1
 1495              	.LVL205:
1156:font.c        ****     y = y-2;
 1496              		.loc 1 1156 0
 1497 0604 951E     		subs	r5, r2, #2
 1498 0606 0532     		adds	r2, r2, #5
1157:font.c        ****     x = x-2;
 1499              		.loc 1 1157 0
 1500 0608 8F1E     		subs	r7, r1, #2
1155:font.c        ****     index = index+1;
 1501              		.loc 1 1155 0
 1502 060a 1FFA83F8 		uxth	r8, r3
 1503              	.LVL206:
 1504 060e 13B2     		sxth	r3, r2
1157:font.c        ****     x = x-2;
 1505              		.loc 1 1157 0
 1506 0610 3FB2     		sxth	r7, r7
1156:font.c        ****     y = y-2;
 1507              		.loc 1 1156 0
 1508 0612 2DB2     		sxth	r5, r5
 1509              	.LVL207:
 1510 0614 0593     		str	r3, [sp, #20]
 1511              	.LVL208:
 1512              	.L158:
 1513              	.LBB314:
 1514              	.LBB315:
1162:font.c        ****         for(int j=0; j<font[index] ;j++)
 1515              		.loc 1 1162 0
 1516 0616 1BF80890 		ldrb	r9, [fp, r8]	@ zero_extendqisi2
 1517 061a B9F1000F 		cmp	r9, #0
 1518 061e 0DD0     		beq	.L160
 1519 0620 09EB0806 		add	r6, r9, r8
 1520 0624 5E44     		add	r6, r6, fp
 1521 0626 0BEB080A 		add	r10, fp, r8
 1522              	.LVL209:
 1523              	.L159:
 1524              	.LBB316:
1164:font.c        ****             draw_pixel(x+font[index+j+1],y,color);
 1525              		.loc 1 1164 0
 1526 062a 1AF8010F 		ldrb	r0, [r10, #1]!	@ zero_extendqisi2
 1527 062e 2246     		mov	r2, r4
 1528 0630 3844     		add	r0, r0, r7
 1529 0632 2946     		mov	r1, r5
 1530 0634 FFF7FEFF 		bl	draw_pixel
 1531              	.LVL210:
 1532              	.LBE316:
1162:font.c        ****         for(int j=0; j<font[index] ;j++)
 1533              		.loc 1 1162 0
 1534 0638 5645     		cmp	r6, r10
 1535 063a F6D1     		bne	.L159
 1536              	.L160:
 1537 063c 0135     		adds	r5, r5, #1
 1538              	.LVL211:
ARM GAS  C:\Users\legoc\AppData\Local\Temp\cc4EoOj2.s 			page 57


 1539              	.LBE315:
1160:font.c        ****     for(int i=0; i<height; i++)
 1540              		.loc 1 1160 0
 1541 063e 059B     		ldr	r3, [sp, #20]
1167:font.c        ****         index = index+font[index]+1;
 1542              		.loc 1 1167 0
 1543 0640 09F10109 		add	r9, r9, #1
 1544 0644 2DB2     		sxth	r5, r5
 1545              	.LVL212:
 1546 0646 C844     		add	r8, r8, r9
 1547              	.LVL213:
1160:font.c        ****     for(int i=0; i<height; i++)
 1548              		.loc 1 1160 0
 1549 0648 AB42     		cmp	r3, r5
1167:font.c        ****         index = index+font[index]+1;
 1550              		.loc 1 1167 0
 1551 064a 1FFA88F8 		uxth	r8, r8
 1552              	.LVL214:
1160:font.c        ****     for(int i=0; i<height; i++)
 1553              		.loc 1 1160 0
 1554 064e E2D1     		bne	.L158
 1555 0650 25E5     		b	.L84
 1556              	.LVL215:
 1557              	.L48:
 1558              	.LBE314:
 1559              	.LBE312:
 1560              	.LBE311:
1179:font.c        ****         switch(g)
 1561              		.loc 1 1179 0
 1562 0652 1621     		movs	r1, #22
 1563 0654 1A22     		movs	r2, #26
 1564 0656 0123     		movs	r3, #1
 1565 0658 01E0     		b	.L75
 1566              	.LVL216:
 1567              	.L443:
 1568 065a 1BF80320 		ldrb	r2, [fp, r3]	@ zero_extendqisi2
 1569              	.LVL217:
 1570              	.L75:
 1571              	.LBB317:
 1572              	.LBB318:
 1573              	.LBB319:
1152:font.c        ****         index = index + font[index] + 1;
 1574              		.loc 1 1152 0
 1575 065e 0132     		adds	r2, r2, #1
 1576 0660 1344     		add	r3, r3, r2
 1577              	.LVL218:
1150:font.c        ****     for(int i=0; i<character;i++)
 1578              		.loc 1 1150 0
 1579 0662 0139     		subs	r1, r1, #1
1152:font.c        ****         index = index + font[index] + 1;
 1580              		.loc 1 1152 0
 1581 0664 9BB2     		uxth	r3, r3
 1582              	.LVL219:
1150:font.c        ****     for(int i=0; i<character;i++)
 1583              		.loc 1 1150 0
 1584 0666 F8D1     		bne	.L443
 1585              	.LBE319:
ARM GAS  C:\Users\legoc\AppData\Local\Temp\cc4EoOj2.s 			page 58


1157:font.c        ****     x = x-2;
 1586              		.loc 1 1157 0
 1587 0668 B2B2     		uxth	r2, r6
 1588 066a 1146     		mov	r1, r2
 1589 066c 0392     		str	r2, [sp, #12]
1156:font.c        ****     y = y-2;
 1590              		.loc 1 1156 0
 1591 066e BDF80820 		ldrh	r2, [sp, #8]
1155:font.c        ****     index = index+1;
 1592              		.loc 1 1155 0
 1593 0672 0133     		adds	r3, r3, #1
 1594              	.LVL220:
1156:font.c        ****     y = y-2;
 1595              		.loc 1 1156 0
 1596 0674 951E     		subs	r5, r2, #2
 1597 0676 0532     		adds	r2, r2, #5
1157:font.c        ****     x = x-2;
 1598              		.loc 1 1157 0
 1599 0678 8F1E     		subs	r7, r1, #2
1155:font.c        ****     index = index+1;
 1600              		.loc 1 1155 0
 1601 067a 1FFA83F8 		uxth	r8, r3
 1602              	.LVL221:
 1603 067e 13B2     		sxth	r3, r2
1157:font.c        ****     x = x-2;
 1604              		.loc 1 1157 0
 1605 0680 3FB2     		sxth	r7, r7
1156:font.c        ****     y = y-2;
 1606              		.loc 1 1156 0
 1607 0682 2DB2     		sxth	r5, r5
 1608              	.LVL222:
 1609 0684 0593     		str	r3, [sp, #20]
 1610              	.LVL223:
 1611              	.L154:
 1612              	.LBB320:
 1613              	.LBB321:
1162:font.c        ****         for(int j=0; j<font[index] ;j++)
 1614              		.loc 1 1162 0
 1615 0686 1BF80890 		ldrb	r9, [fp, r8]	@ zero_extendqisi2
 1616 068a B9F1000F 		cmp	r9, #0
 1617 068e 0DD0     		beq	.L156
 1618 0690 09EB0806 		add	r6, r9, r8
 1619 0694 5E44     		add	r6, r6, fp
 1620 0696 0BEB080A 		add	r10, fp, r8
 1621              	.LVL224:
 1622              	.L155:
 1623              	.LBB322:
1164:font.c        ****             draw_pixel(x+font[index+j+1],y,color);
 1624              		.loc 1 1164 0
 1625 069a 1AF8010F 		ldrb	r0, [r10, #1]!	@ zero_extendqisi2
 1626 069e 2246     		mov	r2, r4
 1627 06a0 3844     		add	r0, r0, r7
 1628 06a2 2946     		mov	r1, r5
 1629 06a4 FFF7FEFF 		bl	draw_pixel
 1630              	.LVL225:
 1631              	.LBE322:
1162:font.c        ****         for(int j=0; j<font[index] ;j++)
ARM GAS  C:\Users\legoc\AppData\Local\Temp\cc4EoOj2.s 			page 59


 1632              		.loc 1 1162 0
 1633 06a8 5645     		cmp	r6, r10
 1634 06aa F6D1     		bne	.L155
 1635              	.L156:
 1636 06ac 0135     		adds	r5, r5, #1
 1637              	.LVL226:
 1638              	.LBE321:
1160:font.c        ****     for(int i=0; i<height; i++)
 1639              		.loc 1 1160 0
 1640 06ae 059B     		ldr	r3, [sp, #20]
1167:font.c        ****         index = index+font[index]+1;
 1641              		.loc 1 1167 0
 1642 06b0 09F10109 		add	r9, r9, #1
 1643 06b4 2DB2     		sxth	r5, r5
 1644              	.LVL227:
 1645 06b6 C844     		add	r8, r8, r9
 1646              	.LVL228:
1160:font.c        ****     for(int i=0; i<height; i++)
 1647              		.loc 1 1160 0
 1648 06b8 AB42     		cmp	r3, r5
1167:font.c        ****         index = index+font[index]+1;
 1649              		.loc 1 1167 0
 1650 06ba 1FFA88F8 		uxth	r8, r8
 1651              	.LVL229:
1160:font.c        ****     for(int i=0; i<height; i++)
 1652              		.loc 1 1160 0
 1653 06be E2D1     		bne	.L154
 1654 06c0 EDE4     		b	.L84
 1655              	.LVL230:
 1656              	.L34:
 1657              	.LBE320:
 1658              	.LBE318:
 1659              	.LBE317:
 1660              	.LBB323:
 1661              	.LBB324:
1157:font.c        ****     x = x-2;
 1662              		.loc 1 1157 0
 1663 06c2 B3B2     		uxth	r3, r6
 1664 06c4 1A46     		mov	r2, r3
 1665 06c6 0393     		str	r3, [sp, #12]
1156:font.c        ****     y = y-2;
 1666              		.loc 1 1156 0
 1667 06c8 BDF80830 		ldrh	r3, [sp, #8]
1157:font.c        ****     x = x-2;
 1668              		.loc 1 1157 0
 1669 06cc 971E     		subs	r7, r2, #2
1156:font.c        ****     y = y-2;
 1670              		.loc 1 1156 0
 1671 06ce 9D1E     		subs	r5, r3, #2
 1672 06d0 0533     		adds	r3, r3, #5
 1673 06d2 1BB2     		sxth	r3, r3
1157:font.c        ****     x = x-2;
 1674              		.loc 1 1157 0
 1675 06d4 3FB2     		sxth	r7, r7
1156:font.c        ****     y = y-2;
 1676              		.loc 1 1156 0
 1677 06d6 2DB2     		sxth	r5, r5
ARM GAS  C:\Users\legoc\AppData\Local\Temp\cc4EoOj2.s 			page 60


 1678              	.LVL231:
 1679 06d8 0593     		str	r3, [sp, #20]
1157:font.c        ****     x = x-2;
 1680              		.loc 1 1157 0
 1681 06da 4FF00309 		mov	r9, #3
1155:font.c        ****     index = index+1;
 1682              		.loc 1 1155 0
 1683 06de 4FF0BA08 		mov	r8, #186
 1684              	.LVL232:
 1685              	.L107:
 1686              	.LBB325:
 1687              	.LBB326:
1162:font.c        ****         for(int j=0; j<font[index] ;j++)
 1688              		.loc 1 1162 0
 1689 06e2 B9F1000F 		cmp	r9, #0
 1690 06e6 0DD0     		beq	.L109
 1691 06e8 09EB0806 		add	r6, r9, r8
 1692 06ec 5E44     		add	r6, r6, fp
 1693 06ee 0BEB080A 		add	r10, fp, r8
 1694              	.LVL233:
 1695              	.L108:
 1696              	.LBB327:
1164:font.c        ****             draw_pixel(x+font[index+j+1],y,color);
 1697              		.loc 1 1164 0
 1698 06f2 1AF8010F 		ldrb	r0, [r10, #1]!	@ zero_extendqisi2
 1699 06f6 2246     		mov	r2, r4
 1700 06f8 3844     		add	r0, r0, r7
 1701 06fa 2946     		mov	r1, r5
 1702 06fc FFF7FEFF 		bl	draw_pixel
 1703              	.LVL234:
 1704              	.LBE327:
1162:font.c        ****         for(int j=0; j<font[index] ;j++)
 1705              		.loc 1 1162 0
 1706 0700 5645     		cmp	r6, r10
 1707 0702 F6D1     		bne	.L108
 1708              	.L109:
 1709 0704 0135     		adds	r5, r5, #1
 1710              	.LVL235:
 1711              	.LBE326:
1160:font.c        ****     for(int i=0; i<height; i++)
 1712              		.loc 1 1160 0
 1713 0706 059B     		ldr	r3, [sp, #20]
1167:font.c        ****         index = index+font[index]+1;
 1714              		.loc 1 1167 0
 1715 0708 09F10109 		add	r9, r9, #1
 1716 070c 2DB2     		sxth	r5, r5
 1717              	.LVL236:
 1718 070e C844     		add	r8, r8, r9
 1719              	.LVL237:
1160:font.c        ****     for(int i=0; i<height; i++)
 1720              		.loc 1 1160 0
 1721 0710 AB42     		cmp	r3, r5
1167:font.c        ****         index = index+font[index]+1;
 1722              		.loc 1 1167 0
 1723 0712 1FFA88F8 		uxth	r8, r8
 1724              	.LVL238:
1160:font.c        ****     for(int i=0; i<height; i++)
ARM GAS  C:\Users\legoc\AppData\Local\Temp\cc4EoOj2.s 			page 61


 1725              		.loc 1 1160 0
 1726 0716 3FF4C2AC 		beq	.L84
 1727 071a 1BF80890 		ldrb	r9, [fp, r8]	@ zero_extendqisi2
 1728 071e E0E7     		b	.L107
 1729              	.LVL239:
 1730              	.L42:
 1731              	.LBE325:
 1732              	.LBE324:
 1733              	.LBE323:
 1734              	.LBB328:
 1735              	.LBB329:
1157:font.c        ****     x = x-2;
 1736              		.loc 1 1157 0
 1737 0720 B3B2     		uxth	r3, r6
 1738 0722 1A46     		mov	r2, r3
 1739 0724 0393     		str	r3, [sp, #12]
1156:font.c        ****     y = y-2;
 1740              		.loc 1 1156 0
 1741 0726 BDF80830 		ldrh	r3, [sp, #8]
1157:font.c        ****     x = x-2;
 1742              		.loc 1 1157 0
 1743 072a 971E     		subs	r7, r2, #2
1156:font.c        ****     y = y-2;
 1744              		.loc 1 1156 0
 1745 072c 9D1E     		subs	r5, r3, #2
 1746 072e 0533     		adds	r3, r3, #5
 1747 0730 1BB2     		sxth	r3, r3
1157:font.c        ****     x = x-2;
 1748              		.loc 1 1157 0
 1749 0732 3FB2     		sxth	r7, r7
1156:font.c        ****     y = y-2;
 1750              		.loc 1 1156 0
 1751 0734 2DB2     		sxth	r5, r5
 1752              	.LVL240:
 1753 0736 0593     		str	r3, [sp, #20]
1157:font.c        ****     x = x-2;
 1754              		.loc 1 1157 0
 1755 0738 4FF00309 		mov	r9, #3
1155:font.c        ****     index = index+1;
 1756              		.loc 1 1155 0
 1757 073c 4FF4BF78 		mov	r8, #382
 1758              	.LVL241:
 1759              	.L131:
 1760              	.LBB330:
 1761              	.LBB331:
1162:font.c        ****         for(int j=0; j<font[index] ;j++)
 1762              		.loc 1 1162 0
 1763 0740 B9F1000F 		cmp	r9, #0
 1764 0744 0DD0     		beq	.L133
 1765 0746 09EB0806 		add	r6, r9, r8
 1766 074a 5E44     		add	r6, r6, fp
 1767 074c 0BEB080A 		add	r10, fp, r8
 1768              	.LVL242:
 1769              	.L132:
 1770              	.LBB332:
1164:font.c        ****             draw_pixel(x+font[index+j+1],y,color);
 1771              		.loc 1 1164 0
ARM GAS  C:\Users\legoc\AppData\Local\Temp\cc4EoOj2.s 			page 62


 1772 0750 1AF8010F 		ldrb	r0, [r10, #1]!	@ zero_extendqisi2
 1773 0754 2246     		mov	r2, r4
 1774 0756 3844     		add	r0, r0, r7
 1775 0758 2946     		mov	r1, r5
 1776 075a FFF7FEFF 		bl	draw_pixel
 1777              	.LVL243:
 1778              	.LBE332:
1162:font.c        ****         for(int j=0; j<font[index] ;j++)
 1779              		.loc 1 1162 0
 1780 075e 5645     		cmp	r6, r10
 1781 0760 F6D1     		bne	.L132
 1782              	.L133:
 1783 0762 0135     		adds	r5, r5, #1
 1784              	.LVL244:
 1785              	.LBE331:
1160:font.c        ****     for(int i=0; i<height; i++)
 1786              		.loc 1 1160 0
 1787 0764 059B     		ldr	r3, [sp, #20]
1167:font.c        ****         index = index+font[index]+1;
 1788              		.loc 1 1167 0
 1789 0766 09F10109 		add	r9, r9, #1
 1790 076a 2DB2     		sxth	r5, r5
 1791              	.LVL245:
 1792 076c C844     		add	r8, r8, r9
 1793              	.LVL246:
1160:font.c        ****     for(int i=0; i<height; i++)
 1794              		.loc 1 1160 0
 1795 076e AB42     		cmp	r3, r5
1167:font.c        ****         index = index+font[index]+1;
 1796              		.loc 1 1167 0
 1797 0770 1FFA88F8 		uxth	r8, r8
 1798              	.LVL247:
1160:font.c        ****     for(int i=0; i<height; i++)
 1799              		.loc 1 1160 0
 1800 0774 3FF493AC 		beq	.L84
 1801 0778 1BF80890 		ldrb	r9, [fp, r8]	@ zero_extendqisi2
 1802 077c E0E7     		b	.L131
 1803              	.LVL248:
 1804              	.L41:
 1805              	.LBE330:
 1806              	.LBE329:
 1807              	.LBE328:
 1808              	.LBB333:
 1809              	.LBB334:
1157:font.c        ****     x = x-2;
 1810              		.loc 1 1157 0
 1811 077e B3B2     		uxth	r3, r6
 1812 0780 1A46     		mov	r2, r3
1155:font.c        ****     index = index+1;
 1813              		.loc 1 1155 0
 1814 0782 40F26918 		movw	r8, #361
1157:font.c        ****     x = x-2;
 1815              		.loc 1 1157 0
 1816 0786 0393     		str	r3, [sp, #12]
1156:font.c        ****     y = y-2;
 1817              		.loc 1 1156 0
 1818 0788 BDF80830 		ldrh	r3, [sp, #8]
ARM GAS  C:\Users\legoc\AppData\Local\Temp\cc4EoOj2.s 			page 63


1157:font.c        ****     x = x-2;
 1819              		.loc 1 1157 0
 1820 078c 971E     		subs	r7, r2, #2
1156:font.c        ****     y = y-2;
 1821              		.loc 1 1156 0
 1822 078e 9D1E     		subs	r5, r3, #2
 1823 0790 0533     		adds	r3, r3, #5
 1824 0792 1BB2     		sxth	r3, r3
1157:font.c        ****     x = x-2;
 1825              		.loc 1 1157 0
 1826 0794 3FB2     		sxth	r7, r7
1156:font.c        ****     y = y-2;
 1827              		.loc 1 1156 0
 1828 0796 2DB2     		sxth	r5, r5
 1829              	.LVL249:
 1830 0798 0593     		str	r3, [sp, #20]
1157:font.c        ****     x = x-2;
 1831              		.loc 1 1157 0
 1832 079a 4FF00109 		mov	r9, #1
 1833              	.LVL250:
 1834              	.L128:
 1835              	.LBB335:
 1836              	.LBB336:
1162:font.c        ****         for(int j=0; j<font[index] ;j++)
 1837              		.loc 1 1162 0
 1838 079e B9F1000F 		cmp	r9, #0
 1839 07a2 0DD0     		beq	.L130
 1840 07a4 09EB0806 		add	r6, r9, r8
 1841 07a8 5E44     		add	r6, r6, fp
 1842 07aa 0BEB080A 		add	r10, fp, r8
 1843              	.LVL251:
 1844              	.L129:
 1845              	.LBB337:
1164:font.c        ****             draw_pixel(x+font[index+j+1],y,color);
 1846              		.loc 1 1164 0
 1847 07ae 1AF8010F 		ldrb	r0, [r10, #1]!	@ zero_extendqisi2
 1848 07b2 2246     		mov	r2, r4
 1849 07b4 3844     		add	r0, r0, r7
 1850 07b6 2946     		mov	r1, r5
 1851 07b8 FFF7FEFF 		bl	draw_pixel
 1852              	.LVL252:
 1853              	.LBE337:
1162:font.c        ****         for(int j=0; j<font[index] ;j++)
 1854              		.loc 1 1162 0
 1855 07bc B245     		cmp	r10, r6
 1856 07be F6D1     		bne	.L129
 1857              	.L130:
 1858 07c0 0135     		adds	r5, r5, #1
 1859              	.LVL253:
 1860              	.LBE336:
1160:font.c        ****     for(int i=0; i<height; i++)
 1861              		.loc 1 1160 0
 1862 07c2 059B     		ldr	r3, [sp, #20]
1167:font.c        ****         index = index+font[index]+1;
 1863              		.loc 1 1167 0
 1864 07c4 09F10109 		add	r9, r9, #1
 1865 07c8 2DB2     		sxth	r5, r5
ARM GAS  C:\Users\legoc\AppData\Local\Temp\cc4EoOj2.s 			page 64


 1866              	.LVL254:
 1867 07ca C844     		add	r8, r8, r9
 1868              	.LVL255:
1160:font.c        ****     for(int i=0; i<height; i++)
 1869              		.loc 1 1160 0
 1870 07cc AB42     		cmp	r3, r5
1167:font.c        ****         index = index+font[index]+1;
 1871              		.loc 1 1167 0
 1872 07ce 1FFA88F8 		uxth	r8, r8
 1873              	.LVL256:
1160:font.c        ****     for(int i=0; i<height; i++)
 1874              		.loc 1 1160 0
 1875 07d2 3FF464AC 		beq	.L84
 1876 07d6 1BF80890 		ldrb	r9, [fp, r8]	@ zero_extendqisi2
 1877 07da E0E7     		b	.L128
 1878              	.LVL257:
 1879              	.L40:
 1880              	.LBE335:
 1881              	.LBE334:
 1882              	.LBE333:
 1883              	.LBB338:
 1884              	.LBB339:
1157:font.c        ****     x = x-2;
 1885              		.loc 1 1157 0
 1886 07dc B3B2     		uxth	r3, r6
 1887 07de 1A46     		mov	r2, r3
1155:font.c        ****     index = index+1;
 1888              		.loc 1 1155 0
 1889 07e0 40F24F18 		movw	r8, #335
1157:font.c        ****     x = x-2;
 1890              		.loc 1 1157 0
 1891 07e4 0393     		str	r3, [sp, #12]
1156:font.c        ****     y = y-2;
 1892              		.loc 1 1156 0
 1893 07e6 BDF80830 		ldrh	r3, [sp, #8]
1157:font.c        ****     x = x-2;
 1894              		.loc 1 1157 0
 1895 07ea 971E     		subs	r7, r2, #2
1156:font.c        ****     y = y-2;
 1896              		.loc 1 1156 0
 1897 07ec 9D1E     		subs	r5, r3, #2
 1898 07ee 0533     		adds	r3, r3, #5
 1899 07f0 1BB2     		sxth	r3, r3
1157:font.c        ****     x = x-2;
 1900              		.loc 1 1157 0
 1901 07f2 3FB2     		sxth	r7, r7
1156:font.c        ****     y = y-2;
 1902              		.loc 1 1156 0
 1903 07f4 2DB2     		sxth	r5, r5
 1904              	.LVL258:
 1905 07f6 0593     		str	r3, [sp, #20]
1157:font.c        ****     x = x-2;
 1906              		.loc 1 1157 0
 1907 07f8 4FF00509 		mov	r9, #5
 1908              	.LVL259:
 1909              	.L125:
 1910              	.LBB340:
ARM GAS  C:\Users\legoc\AppData\Local\Temp\cc4EoOj2.s 			page 65


 1911              	.LBB341:
1162:font.c        ****         for(int j=0; j<font[index] ;j++)
 1912              		.loc 1 1162 0
 1913 07fc B9F1000F 		cmp	r9, #0
 1914 0800 0DD0     		beq	.L127
 1915 0802 09EB0806 		add	r6, r9, r8
 1916 0806 5E44     		add	r6, r6, fp
 1917 0808 0BEB080A 		add	r10, fp, r8
 1918              	.LVL260:
 1919              	.L126:
 1920              	.LBB342:
1164:font.c        ****             draw_pixel(x+font[index+j+1],y,color);
 1921              		.loc 1 1164 0
 1922 080c 1AF8010F 		ldrb	r0, [r10, #1]!	@ zero_extendqisi2
 1923 0810 2246     		mov	r2, r4
 1924 0812 3844     		add	r0, r0, r7
 1925 0814 2946     		mov	r1, r5
 1926 0816 FFF7FEFF 		bl	draw_pixel
 1927              	.LVL261:
 1928              	.LBE342:
1162:font.c        ****         for(int j=0; j<font[index] ;j++)
 1929              		.loc 1 1162 0
 1930 081a 5645     		cmp	r6, r10
 1931 081c F6D1     		bne	.L126
 1932              	.L127:
 1933 081e 0135     		adds	r5, r5, #1
 1934              	.LVL262:
 1935              	.LBE341:
1160:font.c        ****     for(int i=0; i<height; i++)
 1936              		.loc 1 1160 0
 1937 0820 059B     		ldr	r3, [sp, #20]
1167:font.c        ****         index = index+font[index]+1;
 1938              		.loc 1 1167 0
 1939 0822 09F10109 		add	r9, r9, #1
 1940 0826 2DB2     		sxth	r5, r5
 1941              	.LVL263:
 1942 0828 C844     		add	r8, r8, r9
 1943              	.LVL264:
1160:font.c        ****     for(int i=0; i<height; i++)
 1944              		.loc 1 1160 0
 1945 082a AB42     		cmp	r3, r5
1167:font.c        ****         index = index+font[index]+1;
 1946              		.loc 1 1167 0
 1947 082c 1FFA88F8 		uxth	r8, r8
 1948              	.LVL265:
1160:font.c        ****     for(int i=0; i<height; i++)
 1949              		.loc 1 1160 0
 1950 0830 3FF435AC 		beq	.L84
 1951 0834 1BF80890 		ldrb	r9, [fp, r8]	@ zero_extendqisi2
 1952 0838 E0E7     		b	.L125
 1953              	.LVL266:
 1954              	.L39:
 1955              	.LBE340:
 1956              	.LBE339:
 1957              	.LBE338:
 1958              	.LBB343:
 1959              	.LBB344:
ARM GAS  C:\Users\legoc\AppData\Local\Temp\cc4EoOj2.s 			page 66


1157:font.c        ****     x = x-2;
 1960              		.loc 1 1157 0
 1961 083a B3B2     		uxth	r3, r6
 1962 083c 1A46     		mov	r2, r3
1155:font.c        ****     index = index+1;
 1963              		.loc 1 1155 0
 1964 083e 40F23518 		movw	r8, #309
1157:font.c        ****     x = x-2;
 1965              		.loc 1 1157 0
 1966 0842 0393     		str	r3, [sp, #12]
1156:font.c        ****     y = y-2;
 1967              		.loc 1 1156 0
 1968 0844 BDF80830 		ldrh	r3, [sp, #8]
1157:font.c        ****     x = x-2;
 1969              		.loc 1 1157 0
 1970 0848 971E     		subs	r7, r2, #2
1156:font.c        ****     y = y-2;
 1971              		.loc 1 1156 0
 1972 084a 9D1E     		subs	r5, r3, #2
 1973 084c 0533     		adds	r3, r3, #5
 1974 084e 1BB2     		sxth	r3, r3
1157:font.c        ****     x = x-2;
 1975              		.loc 1 1157 0
 1976 0850 3FB2     		sxth	r7, r7
1156:font.c        ****     y = y-2;
 1977              		.loc 1 1156 0
 1978 0852 2DB2     		sxth	r5, r5
 1979              	.LVL267:
 1980 0854 0593     		str	r3, [sp, #20]
1157:font.c        ****     x = x-2;
 1981              		.loc 1 1157 0
 1982 0856 4FF00409 		mov	r9, #4
 1983              	.LVL268:
 1984              	.L122:
 1985              	.LBB345:
 1986              	.LBB346:
1162:font.c        ****         for(int j=0; j<font[index] ;j++)
 1987              		.loc 1 1162 0
 1988 085a B9F1000F 		cmp	r9, #0
 1989 085e 0DD0     		beq	.L124
 1990 0860 09EB0806 		add	r6, r9, r8
 1991 0864 5E44     		add	r6, r6, fp
 1992 0866 0BEB080A 		add	r10, fp, r8
 1993              	.LVL269:
 1994              	.L123:
 1995              	.LBB347:
1164:font.c        ****             draw_pixel(x+font[index+j+1],y,color);
 1996              		.loc 1 1164 0
 1997 086a 1AF8010F 		ldrb	r0, [r10, #1]!	@ zero_extendqisi2
 1998 086e 2246     		mov	r2, r4
 1999 0870 3844     		add	r0, r0, r7
 2000 0872 2946     		mov	r1, r5
 2001 0874 FFF7FEFF 		bl	draw_pixel
 2002              	.LVL270:
 2003              	.LBE347:
1162:font.c        ****         for(int j=0; j<font[index] ;j++)
 2004              		.loc 1 1162 0
ARM GAS  C:\Users\legoc\AppData\Local\Temp\cc4EoOj2.s 			page 67


 2005 0878 5645     		cmp	r6, r10
 2006 087a F6D1     		bne	.L123
 2007              	.L124:
 2008 087c 0135     		adds	r5, r5, #1
 2009              	.LVL271:
 2010              	.LBE346:
1160:font.c        ****     for(int i=0; i<height; i++)
 2011              		.loc 1 1160 0
 2012 087e 059B     		ldr	r3, [sp, #20]
1167:font.c        ****         index = index+font[index]+1;
 2013              		.loc 1 1167 0
 2014 0880 09F10109 		add	r9, r9, #1
 2015 0884 2DB2     		sxth	r5, r5
 2016              	.LVL272:
 2017 0886 C844     		add	r8, r8, r9
 2018              	.LVL273:
1160:font.c        ****     for(int i=0; i<height; i++)
 2019              		.loc 1 1160 0
 2020 0888 9D42     		cmp	r5, r3
1167:font.c        ****         index = index+font[index]+1;
 2021              		.loc 1 1167 0
 2022 088a 1FFA88F8 		uxth	r8, r8
 2023              	.LVL274:
1160:font.c        ****     for(int i=0; i<height; i++)
 2024              		.loc 1 1160 0
 2025 088e 3FF406AC 		beq	.L84
 2026 0892 1BF80890 		ldrb	r9, [fp, r8]	@ zero_extendqisi2
 2027 0896 E0E7     		b	.L122
 2028              	.LVL275:
 2029              	.L44:
 2030              	.LBE345:
 2031              	.LBE344:
 2032              	.LBE343:
1179:font.c        ****         switch(g)
 2033              		.loc 1 1179 0
 2034 0898 1221     		movs	r1, #18
 2035 089a 1A22     		movs	r2, #26
 2036 089c 0123     		movs	r3, #1
 2037 089e 01E0     		b	.L79
 2038              	.LVL276:
 2039              	.L444:
 2040 08a0 1BF80320 		ldrb	r2, [fp, r3]	@ zero_extendqisi2
 2041              	.LVL277:
 2042              	.L79:
 2043              	.LBB348:
 2044              	.LBB349:
 2045              	.LBB350:
1152:font.c        ****         index = index + font[index] + 1;
 2046              		.loc 1 1152 0
 2047 08a4 0132     		adds	r2, r2, #1
 2048 08a6 1344     		add	r3, r3, r2
 2049              	.LVL278:
1150:font.c        ****     for(int i=0; i<character;i++)
 2050              		.loc 1 1150 0
 2051 08a8 0139     		subs	r1, r1, #1
1152:font.c        ****         index = index + font[index] + 1;
 2052              		.loc 1 1152 0
ARM GAS  C:\Users\legoc\AppData\Local\Temp\cc4EoOj2.s 			page 68


 2053 08aa 9BB2     		uxth	r3, r3
 2054              	.LVL279:
1150:font.c        ****     for(int i=0; i<character;i++)
 2055              		.loc 1 1150 0
 2056 08ac F8D1     		bne	.L444
 2057              	.LBE350:
1157:font.c        ****     x = x-2;
 2058              		.loc 1 1157 0
 2059 08ae B2B2     		uxth	r2, r6
 2060 08b0 1146     		mov	r1, r2
 2061 08b2 0392     		str	r2, [sp, #12]
1156:font.c        ****     y = y-2;
 2062              		.loc 1 1156 0
 2063 08b4 BDF80820 		ldrh	r2, [sp, #8]
1155:font.c        ****     index = index+1;
 2064              		.loc 1 1155 0
 2065 08b8 0133     		adds	r3, r3, #1
 2066              	.LVL280:
1156:font.c        ****     y = y-2;
 2067              		.loc 1 1156 0
 2068 08ba 951E     		subs	r5, r2, #2
 2069 08bc 0532     		adds	r2, r2, #5
1157:font.c        ****     x = x-2;
 2070              		.loc 1 1157 0
 2071 08be 8F1E     		subs	r7, r1, #2
1155:font.c        ****     index = index+1;
 2072              		.loc 1 1155 0
 2073 08c0 1FFA83F8 		uxth	r8, r3
 2074              	.LVL281:
 2075 08c4 13B2     		sxth	r3, r2
1157:font.c        ****     x = x-2;
 2076              		.loc 1 1157 0
 2077 08c6 3FB2     		sxth	r7, r7
1156:font.c        ****     y = y-2;
 2078              		.loc 1 1156 0
 2079 08c8 2DB2     		sxth	r5, r5
 2080              	.LVL282:
 2081 08ca 0593     		str	r3, [sp, #20]
 2082              	.LVL283:
 2083              	.L138:
 2084              	.LBB351:
 2085              	.LBB352:
1162:font.c        ****         for(int j=0; j<font[index] ;j++)
 2086              		.loc 1 1162 0
 2087 08cc 1BF80890 		ldrb	r9, [fp, r8]	@ zero_extendqisi2
 2088 08d0 B9F1000F 		cmp	r9, #0
 2089 08d4 0DD0     		beq	.L140
 2090 08d6 09EB0806 		add	r6, r9, r8
 2091 08da 5E44     		add	r6, r6, fp
 2092 08dc 0BEB080A 		add	r10, fp, r8
 2093              	.LVL284:
 2094              	.L139:
 2095              	.LBB353:
1164:font.c        ****             draw_pixel(x+font[index+j+1],y,color);
 2096              		.loc 1 1164 0
 2097 08e0 1AF8010F 		ldrb	r0, [r10, #1]!	@ zero_extendqisi2
 2098 08e4 2246     		mov	r2, r4
ARM GAS  C:\Users\legoc\AppData\Local\Temp\cc4EoOj2.s 			page 69


 2099 08e6 3844     		add	r0, r0, r7
 2100 08e8 2946     		mov	r1, r5
 2101 08ea FFF7FEFF 		bl	draw_pixel
 2102              	.LVL285:
 2103              	.LBE353:
1162:font.c        ****         for(int j=0; j<font[index] ;j++)
 2104              		.loc 1 1162 0
 2105 08ee 5645     		cmp	r6, r10
 2106 08f0 F6D1     		bne	.L139
 2107              	.L140:
 2108 08f2 0135     		adds	r5, r5, #1
 2109              	.LVL286:
 2110              	.LBE352:
1160:font.c        ****     for(int i=0; i<height; i++)
 2111              		.loc 1 1160 0
 2112 08f4 059B     		ldr	r3, [sp, #20]
1167:font.c        ****         index = index+font[index]+1;
 2113              		.loc 1 1167 0
 2114 08f6 09F10109 		add	r9, r9, #1
 2115 08fa 2DB2     		sxth	r5, r5
 2116              	.LVL287:
 2117 08fc C844     		add	r8, r8, r9
 2118              	.LVL288:
1160:font.c        ****     for(int i=0; i<height; i++)
 2119              		.loc 1 1160 0
 2120 08fe AB42     		cmp	r3, r5
1167:font.c        ****         index = index+font[index]+1;
 2121              		.loc 1 1167 0
 2122 0900 1FFA88F8 		uxth	r8, r8
 2123              	.LVL289:
1160:font.c        ****     for(int i=0; i<height; i++)
 2124              		.loc 1 1160 0
 2125 0904 E2D1     		bne	.L138
 2126 0906 FFF7CABB 		b	.L84
 2127              	.LVL290:
 2128              	.L43:
 2129              	.LBE351:
 2130              	.LBE349:
 2131              	.LBE348:
 2132              	.LBB354:
 2133              	.LBB355:
1157:font.c        ****     x = x-2;
 2134              		.loc 1 1157 0
 2135 090a B3B2     		uxth	r3, r6
 2136 090c 1A46     		mov	r2, r3
1155:font.c        ****     index = index+1;
 2137              		.loc 1 1155 0
 2138 090e 40F29718 		movw	r8, #407
1157:font.c        ****     x = x-2;
 2139              		.loc 1 1157 0
 2140 0912 0393     		str	r3, [sp, #12]
1156:font.c        ****     y = y-2;
 2141              		.loc 1 1156 0
 2142 0914 BDF80830 		ldrh	r3, [sp, #8]
1157:font.c        ****     x = x-2;
 2143              		.loc 1 1157 0
 2144 0918 971E     		subs	r7, r2, #2
ARM GAS  C:\Users\legoc\AppData\Local\Temp\cc4EoOj2.s 			page 70


1156:font.c        ****     y = y-2;
 2145              		.loc 1 1156 0
 2146 091a 9D1E     		subs	r5, r3, #2
 2147 091c 0533     		adds	r3, r3, #5
 2148 091e 1BB2     		sxth	r3, r3
1157:font.c        ****     x = x-2;
 2149              		.loc 1 1157 0
 2150 0920 3FB2     		sxth	r7, r7
1156:font.c        ****     y = y-2;
 2151              		.loc 1 1156 0
 2152 0922 2DB2     		sxth	r5, r5
 2153              	.LVL291:
 2154 0924 0593     		str	r3, [sp, #20]
 2155              	.LVL292:
 2156              	.L134:
 2157              	.LBB356:
 2158              	.LBB357:
1162:font.c        ****         for(int j=0; j<font[index] ;j++)
 2159              		.loc 1 1162 0
 2160 0926 1BF80890 		ldrb	r9, [fp, r8]	@ zero_extendqisi2
 2161 092a B9F1000F 		cmp	r9, #0
 2162 092e 0DD0     		beq	.L136
 2163 0930 09EB0806 		add	r6, r9, r8
 2164 0934 5E44     		add	r6, r6, fp
 2165 0936 0BEB080A 		add	r10, fp, r8
 2166              	.LVL293:
 2167              	.L135:
 2168              	.LBB358:
1164:font.c        ****             draw_pixel(x+font[index+j+1],y,color);
 2169              		.loc 1 1164 0
 2170 093a 1AF8010F 		ldrb	r0, [r10, #1]!	@ zero_extendqisi2
 2171 093e 2246     		mov	r2, r4
 2172 0940 3844     		add	r0, r0, r7
 2173 0942 2946     		mov	r1, r5
 2174 0944 FFF7FEFF 		bl	draw_pixel
 2175              	.LVL294:
 2176              	.LBE358:
1162:font.c        ****         for(int j=0; j<font[index] ;j++)
 2177              		.loc 1 1162 0
 2178 0948 5645     		cmp	r6, r10
 2179 094a F6D1     		bne	.L135
 2180              	.L136:
 2181 094c 0135     		adds	r5, r5, #1
 2182              	.LVL295:
 2183              	.LBE357:
1160:font.c        ****     for(int i=0; i<height; i++)
 2184              		.loc 1 1160 0
 2185 094e 059B     		ldr	r3, [sp, #20]
1167:font.c        ****         index = index+font[index]+1;
 2186              		.loc 1 1167 0
 2187 0950 09F10109 		add	r9, r9, #1
 2188 0954 2DB2     		sxth	r5, r5
 2189              	.LVL296:
 2190 0956 C844     		add	r8, r8, r9
 2191              	.LVL297:
1160:font.c        ****     for(int i=0; i<height; i++)
 2192              		.loc 1 1160 0
ARM GAS  C:\Users\legoc\AppData\Local\Temp\cc4EoOj2.s 			page 71


 2193 0958 AB42     		cmp	r3, r5
1167:font.c        ****         index = index+font[index]+1;
 2194              		.loc 1 1167 0
 2195 095a 1FFA88F8 		uxth	r8, r8
 2196              	.LVL298:
1160:font.c        ****     for(int i=0; i<height; i++)
 2197              		.loc 1 1160 0
 2198 095e E2D1     		bne	.L134
 2199 0960 FFF79DBB 		b	.L84
 2200              	.LVL299:
 2201              	.L26:
 2202              	.LBE356:
 2203              	.LBE355:
 2204              	.LBE354:
 2205              	.LBB359:
 2206              	.LBB360:
1157:font.c        ****     x = x-2;
 2207              		.loc 1 1157 0
 2208 0964 B3B2     		uxth	r3, r6
 2209 0966 1A46     		mov	r2, r3
 2210 0968 0393     		str	r3, [sp, #12]
1156:font.c        ****     y = y-2;
 2211              		.loc 1 1156 0
 2212 096a BDF80830 		ldrh	r3, [sp, #8]
1157:font.c        ****     x = x-2;
 2213              		.loc 1 1157 0
 2214 096e 971E     		subs	r7, r2, #2
1156:font.c        ****     y = y-2;
 2215              		.loc 1 1156 0
 2216 0970 9D1E     		subs	r5, r3, #2
 2217 0972 0533     		adds	r3, r3, #5
 2218 0974 1BB2     		sxth	r3, r3
1157:font.c        ****     x = x-2;
 2219              		.loc 1 1157 0
 2220 0976 3FB2     		sxth	r7, r7
1156:font.c        ****     y = y-2;
 2221              		.loc 1 1156 0
 2222 0978 2DB2     		sxth	r5, r5
 2223              	.LVL300:
 2224 097a 0593     		str	r3, [sp, #20]
1157:font.c        ****     x = x-2;
 2225              		.loc 1 1157 0
 2226 097c 4FF00309 		mov	r9, #3
1155:font.c        ****     index = index+1;
 2227              		.loc 1 1155 0
 2228 0980 4FF00208 		mov	r8, #2
 2229              	.LVL301:
 2230              	.L82:
 2231              	.LBB361:
 2232              	.LBB362:
1162:font.c        ****         for(int j=0; j<font[index] ;j++)
 2233              		.loc 1 1162 0
 2234 0984 B9F1000F 		cmp	r9, #0
 2235 0988 0DD0     		beq	.L85
 2236 098a 09EB0806 		add	r6, r9, r8
 2237 098e 5E44     		add	r6, r6, fp
 2238 0990 0BEB080A 		add	r10, fp, r8
ARM GAS  C:\Users\legoc\AppData\Local\Temp\cc4EoOj2.s 			page 72


 2239              	.LVL302:
 2240              	.L83:
 2241              	.LBB363:
1164:font.c        ****             draw_pixel(x+font[index+j+1],y,color);
 2242              		.loc 1 1164 0
 2243 0994 1AF8010F 		ldrb	r0, [r10, #1]!	@ zero_extendqisi2
 2244 0998 2246     		mov	r2, r4
 2245 099a 3844     		add	r0, r0, r7
 2246 099c 2946     		mov	r1, r5
 2247 099e FFF7FEFF 		bl	draw_pixel
 2248              	.LVL303:
 2249              	.LBE363:
1162:font.c        ****         for(int j=0; j<font[index] ;j++)
 2250              		.loc 1 1162 0
 2251 09a2 5645     		cmp	r6, r10
 2252 09a4 F6D1     		bne	.L83
 2253              	.L85:
 2254 09a6 0135     		adds	r5, r5, #1
 2255              	.LVL304:
 2256              	.LBE362:
1160:font.c        ****     for(int i=0; i<height; i++)
 2257              		.loc 1 1160 0
 2258 09a8 059B     		ldr	r3, [sp, #20]
1167:font.c        ****         index = index+font[index]+1;
 2259              		.loc 1 1167 0
 2260 09aa 09F10109 		add	r9, r9, #1
 2261 09ae 2DB2     		sxth	r5, r5
 2262              	.LVL305:
 2263 09b0 C844     		add	r8, r8, r9
 2264              	.LVL306:
1160:font.c        ****     for(int i=0; i<height; i++)
 2265              		.loc 1 1160 0
 2266 09b2 AB42     		cmp	r3, r5
1167:font.c        ****         index = index+font[index]+1;
 2267              		.loc 1 1167 0
 2268 09b4 1FFA88F8 		uxth	r8, r8
 2269              	.LVL307:
1160:font.c        ****     for(int i=0; i<height; i++)
 2270              		.loc 1 1160 0
 2271 09b8 3FF471AB 		beq	.L84
 2272 09bc 1BF80890 		ldrb	r9, [fp, r8]	@ zero_extendqisi2
 2273 09c0 E0E7     		b	.L82
 2274              	.LVL308:
 2275              	.L25:
 2276              	.LBE361:
 2277              	.LBE360:
 2278              	.LBE359:
1179:font.c        ****         switch(g)
 2279              		.loc 1 1179 0
 2280 09c2 2421     		movs	r1, #36
 2281 09c4 1A22     		movs	r2, #26
 2282 09c6 0123     		movs	r3, #1
 2283 09c8 01E0     		b	.L80
 2284              	.LVL309:
 2285              	.L445:
 2286 09ca 1BF80320 		ldrb	r2, [fp, r3]	@ zero_extendqisi2
 2287              	.LVL310:
ARM GAS  C:\Users\legoc\AppData\Local\Temp\cc4EoOj2.s 			page 73


 2288              	.L80:
 2289              	.LBB364:
 2290              	.LBB365:
 2291              	.LBB366:
1152:font.c        ****         index = index + font[index] + 1;
 2292              		.loc 1 1152 0
 2293 09ce 0132     		adds	r2, r2, #1
 2294 09d0 1344     		add	r3, r3, r2
 2295              	.LVL311:
1150:font.c        ****     for(int i=0; i<character;i++)
 2296              		.loc 1 1150 0
 2297 09d2 0139     		subs	r1, r1, #1
1152:font.c        ****         index = index + font[index] + 1;
 2298              		.loc 1 1152 0
 2299 09d4 9BB2     		uxth	r3, r3
 2300              	.LVL312:
1150:font.c        ****     for(int i=0; i<character;i++)
 2301              		.loc 1 1150 0
 2302 09d6 F8D1     		bne	.L445
 2303              	.LBE366:
1157:font.c        ****     x = x-2;
 2304              		.loc 1 1157 0
 2305 09d8 B2B2     		uxth	r2, r6
 2306 09da 1146     		mov	r1, r2
 2307 09dc 0392     		str	r2, [sp, #12]
1156:font.c        ****     y = y-2;
 2308              		.loc 1 1156 0
 2309 09de BDF80820 		ldrh	r2, [sp, #8]
1155:font.c        ****     index = index+1;
 2310              		.loc 1 1155 0
 2311 09e2 0133     		adds	r3, r3, #1
 2312              	.LVL313:
1156:font.c        ****     y = y-2;
 2313              		.loc 1 1156 0
 2314 09e4 951E     		subs	r5, r2, #2
 2315 09e6 0532     		adds	r2, r2, #5
1157:font.c        ****     x = x-2;
 2316              		.loc 1 1157 0
 2317 09e8 8F1E     		subs	r7, r1, #2
1155:font.c        ****     index = index+1;
 2318              		.loc 1 1155 0
 2319 09ea 1FFA83F8 		uxth	r8, r3
 2320              	.LVL314:
 2321 09ee 13B2     		sxth	r3, r2
1157:font.c        ****     x = x-2;
 2322              		.loc 1 1157 0
 2323 09f0 3FB2     		sxth	r7, r7
1156:font.c        ****     y = y-2;
 2324              		.loc 1 1156 0
 2325 09f2 2DB2     		sxth	r5, r5
 2326              	.LVL315:
 2327 09f4 0593     		str	r3, [sp, #20]
 2328              	.LVL316:
 2329              	.L210:
 2330              	.LBB367:
 2331              	.LBB368:
1162:font.c        ****         for(int j=0; j<font[index] ;j++)
ARM GAS  C:\Users\legoc\AppData\Local\Temp\cc4EoOj2.s 			page 74


 2332              		.loc 1 1162 0
 2333 09f6 1BF80890 		ldrb	r9, [fp, r8]	@ zero_extendqisi2
 2334 09fa B9F1000F 		cmp	r9, #0
 2335 09fe 0DD0     		beq	.L212
 2336 0a00 09EB0806 		add	r6, r9, r8
 2337 0a04 5E44     		add	r6, r6, fp
 2338 0a06 0BEB080A 		add	r10, fp, r8
 2339              	.LVL317:
 2340              	.L211:
 2341              	.LBB369:
1164:font.c        ****             draw_pixel(x+font[index+j+1],y,color);
 2342              		.loc 1 1164 0
 2343 0a0a 1AF8010F 		ldrb	r0, [r10, #1]!	@ zero_extendqisi2
 2344 0a0e 2246     		mov	r2, r4
 2345 0a10 3844     		add	r0, r0, r7
 2346 0a12 2946     		mov	r1, r5
 2347 0a14 FFF7FEFF 		bl	draw_pixel
 2348              	.LVL318:
 2349              	.LBE369:
1162:font.c        ****         for(int j=0; j<font[index] ;j++)
 2350              		.loc 1 1162 0
 2351 0a18 5645     		cmp	r6, r10
 2352 0a1a F6D1     		bne	.L211
 2353              	.L212:
 2354 0a1c 0135     		adds	r5, r5, #1
 2355              	.LVL319:
 2356              	.LBE368:
1160:font.c        ****     for(int i=0; i<height; i++)
 2357              		.loc 1 1160 0
 2358 0a1e 059B     		ldr	r3, [sp, #20]
1167:font.c        ****         index = index+font[index]+1;
 2359              		.loc 1 1167 0
 2360 0a20 09F10109 		add	r9, r9, #1
 2361 0a24 2DB2     		sxth	r5, r5
 2362              	.LVL320:
 2363 0a26 C844     		add	r8, r8, r9
 2364              	.LVL321:
1160:font.c        ****     for(int i=0; i<height; i++)
 2365              		.loc 1 1160 0
 2366 0a28 9D42     		cmp	r5, r3
1167:font.c        ****         index = index+font[index]+1;
 2367              		.loc 1 1167 0
 2368 0a2a 1FFA88F8 		uxth	r8, r8
 2369              	.LVL322:
1160:font.c        ****     for(int i=0; i<height; i++)
 2370              		.loc 1 1160 0
 2371 0a2e E2D1     		bne	.L210
 2372 0a30 FFF735BB 		b	.L84
 2373              	.LVL323:
 2374              	.L23:
 2375              	.LBE367:
 2376              	.LBE365:
 2377              	.LBE364:
1179:font.c        ****         switch(g)
 2378              		.loc 1 1179 0
 2379 0a34 2521     		movs	r1, #37
 2380 0a36 1A22     		movs	r2, #26
ARM GAS  C:\Users\legoc\AppData\Local\Temp\cc4EoOj2.s 			page 75


 2381 0a38 0123     		movs	r3, #1
 2382 0a3a 01E0     		b	.L81
 2383              	.LVL324:
 2384              	.L446:
 2385 0a3c 1BF80320 		ldrb	r2, [fp, r3]	@ zero_extendqisi2
 2386              	.LVL325:
 2387              	.L81:
 2388              	.LBB370:
 2389              	.LBB371:
 2390              	.LBB372:
1152:font.c        ****         index = index + font[index] + 1;
 2391              		.loc 1 1152 0
 2392 0a40 0132     		adds	r2, r2, #1
 2393 0a42 1344     		add	r3, r3, r2
 2394              	.LVL326:
1150:font.c        ****     for(int i=0; i<character;i++)
 2395              		.loc 1 1150 0
 2396 0a44 0139     		subs	r1, r1, #1
1152:font.c        ****         index = index + font[index] + 1;
 2397              		.loc 1 1152 0
 2398 0a46 9BB2     		uxth	r3, r3
 2399              	.LVL327:
1150:font.c        ****     for(int i=0; i<character;i++)
 2400              		.loc 1 1150 0
 2401 0a48 F8D1     		bne	.L446
 2402              	.LBE372:
1157:font.c        ****     x = x-2;
 2403              		.loc 1 1157 0
 2404 0a4a B2B2     		uxth	r2, r6
 2405 0a4c 1146     		mov	r1, r2
 2406 0a4e 0392     		str	r2, [sp, #12]
1156:font.c        ****     y = y-2;
 2407              		.loc 1 1156 0
 2408 0a50 BDF80820 		ldrh	r2, [sp, #8]
1155:font.c        ****     index = index+1;
 2409              		.loc 1 1155 0
 2410 0a54 0133     		adds	r3, r3, #1
 2411              	.LVL328:
1156:font.c        ****     y = y-2;
 2412              		.loc 1 1156 0
 2413 0a56 951E     		subs	r5, r2, #2
 2414 0a58 0532     		adds	r2, r2, #5
1157:font.c        ****     x = x-2;
 2415              		.loc 1 1157 0
 2416 0a5a 8F1E     		subs	r7, r1, #2
1155:font.c        ****     index = index+1;
 2417              		.loc 1 1155 0
 2418 0a5c 1FFA83F8 		uxth	r8, r3
 2419              	.LVL329:
 2420 0a60 13B2     		sxth	r3, r2
1157:font.c        ****     x = x-2;
 2421              		.loc 1 1157 0
 2422 0a62 3FB2     		sxth	r7, r7
1156:font.c        ****     y = y-2;
 2423              		.loc 1 1156 0
 2424 0a64 2DB2     		sxth	r5, r5
 2425              	.LVL330:
ARM GAS  C:\Users\legoc\AppData\Local\Temp\cc4EoOj2.s 			page 76


 2426 0a66 0593     		str	r3, [sp, #20]
 2427              	.LVL331:
 2428              	.L214:
 2429              	.LBB373:
 2430              	.LBB374:
1162:font.c        ****         for(int j=0; j<font[index] ;j++)
 2431              		.loc 1 1162 0
 2432 0a68 1BF80890 		ldrb	r9, [fp, r8]	@ zero_extendqisi2
 2433 0a6c B9F1000F 		cmp	r9, #0
 2434 0a70 0DD0     		beq	.L216
 2435 0a72 09EB0806 		add	r6, r9, r8
 2436 0a76 5E44     		add	r6, r6, fp
 2437 0a78 0BEB080A 		add	r10, fp, r8
 2438              	.LVL332:
 2439              	.L215:
 2440              	.LBB375:
1164:font.c        ****             draw_pixel(x+font[index+j+1],y,color);
 2441              		.loc 1 1164 0
 2442 0a7c 1AF8010F 		ldrb	r0, [r10, #1]!	@ zero_extendqisi2
 2443 0a80 2246     		mov	r2, r4
 2444 0a82 3844     		add	r0, r0, r7
 2445 0a84 2946     		mov	r1, r5
 2446 0a86 FFF7FEFF 		bl	draw_pixel
 2447              	.LVL333:
 2448              	.LBE375:
1162:font.c        ****         for(int j=0; j<font[index] ;j++)
 2449              		.loc 1 1162 0
 2450 0a8a 5645     		cmp	r6, r10
 2451 0a8c F6D1     		bne	.L215
 2452              	.L216:
 2453 0a8e 0135     		adds	r5, r5, #1
 2454              	.LVL334:
 2455              	.LBE374:
1160:font.c        ****     for(int i=0; i<height; i++)
 2456              		.loc 1 1160 0
 2457 0a90 059B     		ldr	r3, [sp, #20]
1167:font.c        ****         index = index+font[index]+1;
 2458              		.loc 1 1167 0
 2459 0a92 09F10109 		add	r9, r9, #1
 2460 0a96 2DB2     		sxth	r5, r5
 2461              	.LVL335:
 2462 0a98 C844     		add	r8, r8, r9
 2463              	.LVL336:
1160:font.c        ****     for(int i=0; i<height; i++)
 2464              		.loc 1 1160 0
 2465 0a9a 9D42     		cmp	r5, r3
1167:font.c        ****         index = index+font[index]+1;
 2466              		.loc 1 1167 0
 2467 0a9c 1FFA88F8 		uxth	r8, r8
 2468              	.LVL337:
1160:font.c        ****     for(int i=0; i<height; i++)
 2469              		.loc 1 1160 0
 2470 0aa0 E2D1     		bne	.L214
 2471 0aa2 FFF7FCBA 		b	.L84
 2472              	.LVL338:
 2473              	.L28:
 2474              	.LBE373:
ARM GAS  C:\Users\legoc\AppData\Local\Temp\cc4EoOj2.s 			page 77


 2475              	.LBE371:
 2476              	.LBE370:
 2477              	.LBB376:
 2478              	.LBB377:
1157:font.c        ****     x = x-2;
 2479              		.loc 1 1157 0
 2480 0aa6 B3B2     		uxth	r3, r6
 2481 0aa8 1A46     		mov	r2, r3
 2482 0aaa 0393     		str	r3, [sp, #12]
1156:font.c        ****     y = y-2;
 2483              		.loc 1 1156 0
 2484 0aac BDF80830 		ldrh	r3, [sp, #8]
1157:font.c        ****     x = x-2;
 2485              		.loc 1 1157 0
 2486 0ab0 971E     		subs	r7, r2, #2
1156:font.c        ****     y = y-2;
 2487              		.loc 1 1156 0
 2488 0ab2 9D1E     		subs	r5, r3, #2
 2489 0ab4 0533     		adds	r3, r3, #5
 2490 0ab6 1BB2     		sxth	r3, r3
1157:font.c        ****     x = x-2;
 2491              		.loc 1 1157 0
 2492 0ab8 3FB2     		sxth	r7, r7
1156:font.c        ****     y = y-2;
 2493              		.loc 1 1156 0
 2494 0aba 2DB2     		sxth	r5, r5
 2495              	.LVL339:
 2496 0abc 0593     		str	r3, [sp, #20]
1157:font.c        ****     x = x-2;
 2497              		.loc 1 1157 0
 2498 0abe 4FF00509 		mov	r9, #5
1155:font.c        ****     index = index+1;
 2499              		.loc 1 1155 0
 2500 0ac2 4FF03108 		mov	r8, #49
 2501              	.LVL340:
 2502              	.L89:
 2503              	.LBB378:
 2504              	.LBB379:
1162:font.c        ****         for(int j=0; j<font[index] ;j++)
 2505              		.loc 1 1162 0
 2506 0ac6 B9F1000F 		cmp	r9, #0
 2507 0aca 0DD0     		beq	.L91
 2508 0acc 09EB0806 		add	r6, r9, r8
 2509 0ad0 5E44     		add	r6, r6, fp
 2510 0ad2 0BEB080A 		add	r10, fp, r8
 2511              	.LVL341:
 2512              	.L90:
 2513              	.LBB380:
1164:font.c        ****             draw_pixel(x+font[index+j+1],y,color);
 2514              		.loc 1 1164 0
 2515 0ad6 1AF8010F 		ldrb	r0, [r10, #1]!	@ zero_extendqisi2
 2516 0ada 2246     		mov	r2, r4
 2517 0adc 3844     		add	r0, r0, r7
 2518 0ade 2946     		mov	r1, r5
 2519 0ae0 FFF7FEFF 		bl	draw_pixel
 2520              	.LVL342:
 2521              	.LBE380:
ARM GAS  C:\Users\legoc\AppData\Local\Temp\cc4EoOj2.s 			page 78


1162:font.c        ****         for(int j=0; j<font[index] ;j++)
 2522              		.loc 1 1162 0
 2523 0ae4 B245     		cmp	r10, r6
 2524 0ae6 F6D1     		bne	.L90
 2525              	.L91:
 2526 0ae8 0135     		adds	r5, r5, #1
 2527              	.LVL343:
 2528              	.LBE379:
1160:font.c        ****     for(int i=0; i<height; i++)
 2529              		.loc 1 1160 0
 2530 0aea 059B     		ldr	r3, [sp, #20]
1167:font.c        ****         index = index+font[index]+1;
 2531              		.loc 1 1167 0
 2532 0aec 09F10109 		add	r9, r9, #1
 2533 0af0 2DB2     		sxth	r5, r5
 2534              	.LVL344:
 2535 0af2 C844     		add	r8, r8, r9
 2536              	.LVL345:
1160:font.c        ****     for(int i=0; i<height; i++)
 2537              		.loc 1 1160 0
 2538 0af4 AB42     		cmp	r3, r5
1167:font.c        ****         index = index+font[index]+1;
 2539              		.loc 1 1167 0
 2540 0af6 1FFA88F8 		uxth	r8, r8
 2541              	.LVL346:
1160:font.c        ****     for(int i=0; i<height; i++)
 2542              		.loc 1 1160 0
 2543 0afa 3FF4D0AA 		beq	.L84
 2544 0afe 1BF80890 		ldrb	r9, [fp, r8]	@ zero_extendqisi2
 2545 0b02 E0E7     		b	.L89
 2546              	.LVL347:
 2547              	.L29:
 2548              	.LBE378:
 2549              	.LBE377:
 2550              	.LBE376:
 2551              	.LBB381:
 2552              	.LBB382:
1157:font.c        ****     x = x-2;
 2553              		.loc 1 1157 0
 2554 0b04 B3B2     		uxth	r3, r6
 2555 0b06 1A46     		mov	r2, r3
 2556 0b08 0393     		str	r3, [sp, #12]
1156:font.c        ****     y = y-2;
 2557              		.loc 1 1156 0
 2558 0b0a BDF80830 		ldrh	r3, [sp, #8]
1157:font.c        ****     x = x-2;
 2559              		.loc 1 1157 0
 2560 0b0e 971E     		subs	r7, r2, #2
1156:font.c        ****     y = y-2;
 2561              		.loc 1 1156 0
 2562 0b10 9D1E     		subs	r5, r3, #2
 2563 0b12 0533     		adds	r3, r3, #5
 2564 0b14 1BB2     		sxth	r3, r3
1157:font.c        ****     x = x-2;
 2565              		.loc 1 1157 0
 2566 0b16 3FB2     		sxth	r7, r7
1156:font.c        ****     y = y-2;
ARM GAS  C:\Users\legoc\AppData\Local\Temp\cc4EoOj2.s 			page 79


 2567              		.loc 1 1156 0
 2568 0b18 2DB2     		sxth	r5, r5
 2569              	.LVL348:
 2570 0b1a 0593     		str	r3, [sp, #20]
1157:font.c        ****     x = x-2;
 2571              		.loc 1 1157 0
 2572 0b1c 4FF00309 		mov	r9, #3
1155:font.c        ****     index = index+1;
 2573              		.loc 1 1155 0
 2574 0b20 4FF04908 		mov	r8, #73
 2575              	.LVL349:
 2576              	.L92:
 2577              	.LBB383:
 2578              	.LBB384:
1162:font.c        ****         for(int j=0; j<font[index] ;j++)
 2579              		.loc 1 1162 0
 2580 0b24 B9F1000F 		cmp	r9, #0
 2581 0b28 0DD0     		beq	.L94
 2582 0b2a 09EB0806 		add	r6, r9, r8
 2583 0b2e 5E44     		add	r6, r6, fp
 2584 0b30 0BEB080A 		add	r10, fp, r8
 2585              	.LVL350:
 2586              	.L93:
 2587              	.LBB385:
1164:font.c        ****             draw_pixel(x+font[index+j+1],y,color);
 2588              		.loc 1 1164 0
 2589 0b34 1AF8010F 		ldrb	r0, [r10, #1]!	@ zero_extendqisi2
 2590 0b38 2246     		mov	r2, r4
 2591 0b3a 3844     		add	r0, r0, r7
 2592 0b3c 2946     		mov	r1, r5
 2593 0b3e FFF7FEFF 		bl	draw_pixel
 2594              	.LVL351:
 2595              	.LBE385:
1162:font.c        ****         for(int j=0; j<font[index] ;j++)
 2596              		.loc 1 1162 0
 2597 0b42 5645     		cmp	r6, r10
 2598 0b44 F6D1     		bne	.L93
 2599              	.L94:
 2600 0b46 0135     		adds	r5, r5, #1
 2601              	.LVL352:
 2602              	.LBE384:
1160:font.c        ****     for(int i=0; i<height; i++)
 2603              		.loc 1 1160 0
 2604 0b48 059B     		ldr	r3, [sp, #20]
1167:font.c        ****         index = index+font[index]+1;
 2605              		.loc 1 1167 0
 2606 0b4a 09F10109 		add	r9, r9, #1
 2607 0b4e 2DB2     		sxth	r5, r5
 2608              	.LVL353:
 2609 0b50 C844     		add	r8, r8, r9
 2610              	.LVL354:
1160:font.c        ****     for(int i=0; i<height; i++)
 2611              		.loc 1 1160 0
 2612 0b52 AB42     		cmp	r3, r5
1167:font.c        ****         index = index+font[index]+1;
 2613              		.loc 1 1167 0
 2614 0b54 1FFA88F8 		uxth	r8, r8
ARM GAS  C:\Users\legoc\AppData\Local\Temp\cc4EoOj2.s 			page 80


 2615              	.LVL355:
1160:font.c        ****     for(int i=0; i<height; i++)
 2616              		.loc 1 1160 0
 2617 0b58 3FF4A1AA 		beq	.L84
 2618 0b5c 1BF80890 		ldrb	r9, [fp, r8]	@ zero_extendqisi2
 2619 0b60 E0E7     		b	.L92
 2620              	.LVL356:
 2621              	.L27:
 2622              	.LBE383:
 2623              	.LBE382:
 2624              	.LBE381:
 2625              	.LBB386:
 2626              	.LBB387:
1157:font.c        ****     x = x-2;
 2627              		.loc 1 1157 0
 2628 0b62 B3B2     		uxth	r3, r6
 2629 0b64 1A46     		mov	r2, r3
 2630 0b66 0393     		str	r3, [sp, #12]
1156:font.c        ****     y = y-2;
 2631              		.loc 1 1156 0
 2632 0b68 BDF80830 		ldrh	r3, [sp, #8]
1157:font.c        ****     x = x-2;
 2633              		.loc 1 1157 0
 2634 0b6c 971E     		subs	r7, r2, #2
1156:font.c        ****     y = y-2;
 2635              		.loc 1 1156 0
 2636 0b6e 9D1E     		subs	r5, r3, #2
 2637 0b70 0533     		adds	r3, r3, #5
 2638 0b72 1BB2     		sxth	r3, r3
1157:font.c        ****     x = x-2;
 2639              		.loc 1 1157 0
 2640 0b74 3FB2     		sxth	r7, r7
1156:font.c        ****     y = y-2;
 2641              		.loc 1 1156 0
 2642 0b76 2DB2     		sxth	r5, r5
 2643              	.LVL357:
 2644 0b78 0593     		str	r3, [sp, #20]
1157:font.c        ****     x = x-2;
 2645              		.loc 1 1157 0
 2646 0b7a 4FF00509 		mov	r9, #5
1155:font.c        ****     index = index+1;
 2647              		.loc 1 1155 0
 2648 0b7e 4FF01D08 		mov	r8, #29
 2649              	.LVL358:
 2650              	.L86:
 2651              	.LBB388:
 2652              	.LBB389:
1162:font.c        ****         for(int j=0; j<font[index] ;j++)
 2653              		.loc 1 1162 0
 2654 0b82 B9F1000F 		cmp	r9, #0
 2655 0b86 0DD0     		beq	.L88
 2656 0b88 09EB0806 		add	r6, r9, r8
 2657 0b8c 5E44     		add	r6, r6, fp
 2658 0b8e 0BEB080A 		add	r10, fp, r8
 2659              	.LVL359:
 2660              	.L87:
 2661              	.LBB390:
ARM GAS  C:\Users\legoc\AppData\Local\Temp\cc4EoOj2.s 			page 81


1164:font.c        ****             draw_pixel(x+font[index+j+1],y,color);
 2662              		.loc 1 1164 0
 2663 0b92 1AF8010F 		ldrb	r0, [r10, #1]!	@ zero_extendqisi2
 2664 0b96 2246     		mov	r2, r4
 2665 0b98 3844     		add	r0, r0, r7
 2666 0b9a 2946     		mov	r1, r5
 2667 0b9c FFF7FEFF 		bl	draw_pixel
 2668              	.LVL360:
 2669              	.LBE390:
1162:font.c        ****         for(int j=0; j<font[index] ;j++)
 2670              		.loc 1 1162 0
 2671 0ba0 5645     		cmp	r6, r10
 2672 0ba2 F6D1     		bne	.L87
 2673              	.L88:
 2674 0ba4 0135     		adds	r5, r5, #1
 2675              	.LVL361:
 2676              	.LBE389:
1160:font.c        ****     for(int i=0; i<height; i++)
 2677              		.loc 1 1160 0
 2678 0ba6 059B     		ldr	r3, [sp, #20]
1167:font.c        ****         index = index+font[index]+1;
 2679              		.loc 1 1167 0
 2680 0ba8 09F10109 		add	r9, r9, #1
 2681 0bac 2DB2     		sxth	r5, r5
 2682              	.LVL362:
 2683 0bae C844     		add	r8, r8, r9
 2684              	.LVL363:
1160:font.c        ****     for(int i=0; i<height; i++)
 2685              		.loc 1 1160 0
 2686 0bb0 AB42     		cmp	r3, r5
1167:font.c        ****         index = index+font[index]+1;
 2687              		.loc 1 1167 0
 2688 0bb2 1FFA88F8 		uxth	r8, r8
 2689              	.LVL364:
1160:font.c        ****     for(int i=0; i<height; i++)
 2690              		.loc 1 1160 0
 2691 0bb6 3FF472AA 		beq	.L84
 2692 0bba 1BF80890 		ldrb	r9, [fp, r8]	@ zero_extendqisi2
 2693 0bbe E0E7     		b	.L86
 2694              	.LVL365:
 2695              	.L36:
 2696              	.LBE388:
 2697              	.LBE387:
 2698              	.LBE386:
 2699              	.LBB391:
 2700              	.LBB392:
1157:font.c        ****     x = x-2;
 2701              		.loc 1 1157 0
 2702 0bc0 B3B2     		uxth	r3, r6
 2703 0bc2 1A46     		mov	r2, r3
 2704 0bc4 0393     		str	r3, [sp, #12]
1156:font.c        ****     y = y-2;
 2705              		.loc 1 1156 0
 2706 0bc6 BDF80830 		ldrh	r3, [sp, #8]
1157:font.c        ****     x = x-2;
 2707              		.loc 1 1157 0
 2708 0bca 971E     		subs	r7, r2, #2
ARM GAS  C:\Users\legoc\AppData\Local\Temp\cc4EoOj2.s 			page 82


1156:font.c        ****     y = y-2;
 2709              		.loc 1 1156 0
 2710 0bcc 9D1E     		subs	r5, r3, #2
 2711 0bce 0533     		adds	r3, r3, #5
 2712 0bd0 1BB2     		sxth	r3, r3
1157:font.c        ****     x = x-2;
 2713              		.loc 1 1157 0
 2714 0bd2 3FB2     		sxth	r7, r7
1156:font.c        ****     y = y-2;
 2715              		.loc 1 1156 0
 2716 0bd4 2DB2     		sxth	r5, r5
 2717              	.LVL366:
 2718 0bd6 0593     		str	r3, [sp, #20]
1157:font.c        ****     x = x-2;
 2719              		.loc 1 1157 0
 2720 0bd8 4FF00209 		mov	r9, #2
1155:font.c        ****     index = index+1;
 2721              		.loc 1 1155 0
 2722 0bdc 4FF0EA08 		mov	r8, #234
 2723              	.LVL367:
 2724              	.L113:
 2725              	.LBB393:
 2726              	.LBB394:
1162:font.c        ****         for(int j=0; j<font[index] ;j++)
 2727              		.loc 1 1162 0
 2728 0be0 B9F1000F 		cmp	r9, #0
 2729 0be4 0DD0     		beq	.L115
 2730 0be6 09EB0806 		add	r6, r9, r8
 2731 0bea 5E44     		add	r6, r6, fp
 2732 0bec 0BEB080A 		add	r10, fp, r8
 2733              	.LVL368:
 2734              	.L114:
 2735              	.LBB395:
1164:font.c        ****             draw_pixel(x+font[index+j+1],y,color);
 2736              		.loc 1 1164 0
 2737 0bf0 1AF8010F 		ldrb	r0, [r10, #1]!	@ zero_extendqisi2
 2738 0bf4 2246     		mov	r2, r4
 2739 0bf6 3844     		add	r0, r0, r7
 2740 0bf8 2946     		mov	r1, r5
 2741 0bfa FFF7FEFF 		bl	draw_pixel
 2742              	.LVL369:
 2743              	.LBE395:
1162:font.c        ****         for(int j=0; j<font[index] ;j++)
 2744              		.loc 1 1162 0
 2745 0bfe B245     		cmp	r10, r6
 2746 0c00 F6D1     		bne	.L114
 2747              	.L115:
 2748 0c02 0135     		adds	r5, r5, #1
 2749              	.LVL370:
 2750              	.LBE394:
1160:font.c        ****     for(int i=0; i<height; i++)
 2751              		.loc 1 1160 0
 2752 0c04 059B     		ldr	r3, [sp, #20]
1167:font.c        ****         index = index+font[index]+1;
 2753              		.loc 1 1167 0
 2754 0c06 09F10109 		add	r9, r9, #1
 2755 0c0a 2DB2     		sxth	r5, r5
ARM GAS  C:\Users\legoc\AppData\Local\Temp\cc4EoOj2.s 			page 83


 2756              	.LVL371:
 2757 0c0c C844     		add	r8, r8, r9
 2758              	.LVL372:
1160:font.c        ****     for(int i=0; i<height; i++)
 2759              		.loc 1 1160 0
 2760 0c0e AB42     		cmp	r3, r5
1167:font.c        ****         index = index+font[index]+1;
 2761              		.loc 1 1167 0
 2762 0c10 1FFA88F8 		uxth	r8, r8
 2763              	.LVL373:
1160:font.c        ****     for(int i=0; i<height; i++)
 2764              		.loc 1 1160 0
 2765 0c14 3FF443AA 		beq	.L84
 2766 0c18 1BF80890 		ldrb	r9, [fp, r8]	@ zero_extendqisi2
 2767 0c1c E0E7     		b	.L113
 2768              	.LVL374:
 2769              	.L35:
 2770              	.LBE393:
 2771              	.LBE392:
 2772              	.LBE391:
 2773              	.LBB396:
 2774              	.LBB397:
1157:font.c        ****     x = x-2;
 2775              		.loc 1 1157 0
 2776 0c1e B3B2     		uxth	r3, r6
 2777 0c20 1A46     		mov	r2, r3
 2778 0c22 0393     		str	r3, [sp, #12]
1156:font.c        ****     y = y-2;
 2779              		.loc 1 1156 0
 2780 0c24 BDF80830 		ldrh	r3, [sp, #8]
1157:font.c        ****     x = x-2;
 2781              		.loc 1 1157 0
 2782 0c28 971E     		subs	r7, r2, #2
1156:font.c        ****     y = y-2;
 2783              		.loc 1 1156 0
 2784 0c2a 9D1E     		subs	r5, r3, #2
 2785 0c2c 0533     		adds	r3, r3, #5
 2786 0c2e 1BB2     		sxth	r3, r3
1157:font.c        ****     x = x-2;
 2787              		.loc 1 1157 0
 2788 0c30 3FB2     		sxth	r7, r7
1156:font.c        ****     y = y-2;
 2789              		.loc 1 1156 0
 2790 0c32 2DB2     		sxth	r5, r5
 2791              	.LVL375:
 2792 0c34 0593     		str	r3, [sp, #20]
1157:font.c        ****     x = x-2;
 2793              		.loc 1 1157 0
 2794 0c36 4FF00209 		mov	r9, #2
1155:font.c        ****     index = index+1;
 2795              		.loc 1 1155 0
 2796 0c3a 4FF0D308 		mov	r8, #211
 2797              	.LVL376:
 2798              	.L110:
 2799              	.LBB398:
 2800              	.LBB399:
1162:font.c        ****         for(int j=0; j<font[index] ;j++)
ARM GAS  C:\Users\legoc\AppData\Local\Temp\cc4EoOj2.s 			page 84


 2801              		.loc 1 1162 0
 2802 0c3e B9F1000F 		cmp	r9, #0
 2803 0c42 0DD0     		beq	.L112
 2804 0c44 09EB0806 		add	r6, r9, r8
 2805 0c48 5E44     		add	r6, r6, fp
 2806 0c4a 0BEB080A 		add	r10, fp, r8
 2807              	.LVL377:
 2808              	.L111:
 2809              	.LBB400:
1164:font.c        ****             draw_pixel(x+font[index+j+1],y,color);
 2810              		.loc 1 1164 0
 2811 0c4e 1AF8010F 		ldrb	r0, [r10, #1]!	@ zero_extendqisi2
 2812 0c52 2246     		mov	r2, r4
 2813 0c54 3844     		add	r0, r0, r7
 2814 0c56 2946     		mov	r1, r5
 2815 0c58 FFF7FEFF 		bl	draw_pixel
 2816              	.LVL378:
 2817              	.LBE400:
1162:font.c        ****         for(int j=0; j<font[index] ;j++)
 2818              		.loc 1 1162 0
 2819 0c5c B245     		cmp	r10, r6
 2820 0c5e F6D1     		bne	.L111
 2821              	.L112:
 2822 0c60 0135     		adds	r5, r5, #1
 2823              	.LVL379:
 2824              	.LBE399:
1160:font.c        ****     for(int i=0; i<height; i++)
 2825              		.loc 1 1160 0
 2826 0c62 059B     		ldr	r3, [sp, #20]
1167:font.c        ****         index = index+font[index]+1;
 2827              		.loc 1 1167 0
 2828 0c64 09F10109 		add	r9, r9, #1
 2829 0c68 2DB2     		sxth	r5, r5
 2830              	.LVL380:
 2831 0c6a C844     		add	r8, r8, r9
 2832              	.LVL381:
1160:font.c        ****     for(int i=0; i<height; i++)
 2833              		.loc 1 1160 0
 2834 0c6c AB42     		cmp	r3, r5
1167:font.c        ****         index = index+font[index]+1;
 2835              		.loc 1 1167 0
 2836 0c6e 1FFA88F8 		uxth	r8, r8
 2837              	.LVL382:
1160:font.c        ****     for(int i=0; i<height; i++)
 2838              		.loc 1 1160 0
 2839 0c72 3FF414AA 		beq	.L84
 2840 0c76 1BF80890 		ldrb	r9, [fp, r8]	@ zero_extendqisi2
 2841 0c7a E0E7     		b	.L110
 2842              	.L453:
 2843              		.align	2
 2844              	.L452:
 2845 0c7c 00000000 		.word	.LANCHOR0
 2846              	.LVL383:
 2847              	.L37:
 2848              	.LBE398:
 2849              	.LBE397:
 2850              	.LBE396:
ARM GAS  C:\Users\legoc\AppData\Local\Temp\cc4EoOj2.s 			page 85


 2851              	.LBB401:
 2852              	.LBB402:
1157:font.c        ****     x = x-2;
 2853              		.loc 1 1157 0
 2854 0c80 B3B2     		uxth	r3, r6
 2855 0c82 1A46     		mov	r2, r3
 2856 0c84 0393     		str	r3, [sp, #12]
1156:font.c        ****     y = y-2;
 2857              		.loc 1 1156 0
 2858 0c86 BDF80830 		ldrh	r3, [sp, #8]
1157:font.c        ****     x = x-2;
 2859              		.loc 1 1157 0
 2860 0c8a 971E     		subs	r7, r2, #2
1156:font.c        ****     y = y-2;
 2861              		.loc 1 1156 0
 2862 0c8c 9D1E     		subs	r5, r3, #2
 2863 0c8e 0533     		adds	r3, r3, #5
 2864 0c90 1BB2     		sxth	r3, r3
1157:font.c        ****     x = x-2;
 2865              		.loc 1 1157 0
 2866 0c92 3FB2     		sxth	r7, r7
1156:font.c        ****     y = y-2;
 2867              		.loc 1 1156 0
 2868 0c94 2DB2     		sxth	r5, r5
 2869              	.LVL384:
 2870 0c96 0593     		str	r3, [sp, #20]
1157:font.c        ****     x = x-2;
 2871              		.loc 1 1157 0
 2872 0c98 4FF00409 		mov	r9, #4
1155:font.c        ****     index = index+1;
 2873              		.loc 1 1155 0
 2874 0c9c 4FF48278 		mov	r8, #260
 2875              	.LVL385:
 2876              	.L116:
 2877              	.LBB403:
 2878              	.LBB404:
1162:font.c        ****         for(int j=0; j<font[index] ;j++)
 2879              		.loc 1 1162 0
 2880 0ca0 B9F1000F 		cmp	r9, #0
 2881 0ca4 0DD0     		beq	.L118
 2882 0ca6 09EB0806 		add	r6, r9, r8
 2883 0caa 5E44     		add	r6, r6, fp
 2884 0cac 0BEB080A 		add	r10, fp, r8
 2885              	.LVL386:
 2886              	.L117:
 2887              	.LBB405:
1164:font.c        ****             draw_pixel(x+font[index+j+1],y,color);
 2888              		.loc 1 1164 0
 2889 0cb0 1AF8010F 		ldrb	r0, [r10, #1]!	@ zero_extendqisi2
 2890 0cb4 2246     		mov	r2, r4
 2891 0cb6 3844     		add	r0, r0, r7
 2892 0cb8 2946     		mov	r1, r5
 2893 0cba FFF7FEFF 		bl	draw_pixel
 2894              	.LVL387:
 2895              	.LBE405:
1162:font.c        ****         for(int j=0; j<font[index] ;j++)
 2896              		.loc 1 1162 0
ARM GAS  C:\Users\legoc\AppData\Local\Temp\cc4EoOj2.s 			page 86


 2897 0cbe 5645     		cmp	r6, r10
 2898 0cc0 F6D1     		bne	.L117
 2899              	.L118:
 2900 0cc2 0135     		adds	r5, r5, #1
 2901              	.LVL388:
 2902              	.LBE404:
1160:font.c        ****     for(int i=0; i<height; i++)
 2903              		.loc 1 1160 0
 2904 0cc4 059B     		ldr	r3, [sp, #20]
1167:font.c        ****         index = index+font[index]+1;
 2905              		.loc 1 1167 0
 2906 0cc6 09F10109 		add	r9, r9, #1
 2907 0cca 2DB2     		sxth	r5, r5
 2908              	.LVL389:
 2909 0ccc C844     		add	r8, r8, r9
 2910              	.LVL390:
1160:font.c        ****     for(int i=0; i<height; i++)
 2911              		.loc 1 1160 0
 2912 0cce AB42     		cmp	r3, r5
1167:font.c        ****         index = index+font[index]+1;
 2913              		.loc 1 1167 0
 2914 0cd0 1FFA88F8 		uxth	r8, r8
 2915              	.LVL391:
1160:font.c        ****     for(int i=0; i<height; i++)
 2916              		.loc 1 1160 0
 2917 0cd4 3FF4E3A9 		beq	.L84
 2918 0cd8 1BF80890 		ldrb	r9, [fp, r8]	@ zero_extendqisi2
 2919 0cdc E0E7     		b	.L116
 2920              	.LVL392:
 2921              	.L32:
 2922              	.LBE403:
 2923              	.LBE402:
 2924              	.LBE401:
 2925              	.LBB406:
 2926              	.LBB407:
1157:font.c        ****     x = x-2;
 2927              		.loc 1 1157 0
 2928 0cde B3B2     		uxth	r3, r6
 2929 0ce0 1A46     		mov	r2, r3
 2930 0ce2 0393     		str	r3, [sp, #12]
1156:font.c        ****     y = y-2;
 2931              		.loc 1 1156 0
 2932 0ce4 BDF80830 		ldrh	r3, [sp, #8]
1157:font.c        ****     x = x-2;
 2933              		.loc 1 1157 0
 2934 0ce8 971E     		subs	r7, r2, #2
1156:font.c        ****     y = y-2;
 2935              		.loc 1 1156 0
 2936 0cea 9D1E     		subs	r5, r3, #2
 2937 0cec 0533     		adds	r3, r3, #5
 2938 0cee 1BB2     		sxth	r3, r3
1157:font.c        ****     x = x-2;
 2939              		.loc 1 1157 0
 2940 0cf0 3FB2     		sxth	r7, r7
1156:font.c        ****     y = y-2;
 2941              		.loc 1 1156 0
 2942 0cf2 2DB2     		sxth	r5, r5
ARM GAS  C:\Users\legoc\AppData\Local\Temp\cc4EoOj2.s 			page 87


 2943              	.LVL393:
 2944 0cf4 0593     		str	r3, [sp, #20]
1157:font.c        ****     x = x-2;
 2945              		.loc 1 1157 0
 2946 0cf6 4FF00309 		mov	r9, #3
1155:font.c        ****     index = index+1;
 2947              		.loc 1 1155 0
 2948 0cfa 4FF08F08 		mov	r8, #143
 2949              	.LVL394:
 2950              	.L101:
 2951              	.LBB408:
 2952              	.LBB409:
1162:font.c        ****         for(int j=0; j<font[index] ;j++)
 2953              		.loc 1 1162 0
 2954 0cfe B9F1000F 		cmp	r9, #0
 2955 0d02 0DD0     		beq	.L103
 2956 0d04 09EB0806 		add	r6, r9, r8
 2957 0d08 5E44     		add	r6, r6, fp
 2958 0d0a 0BEB080A 		add	r10, fp, r8
 2959              	.LVL395:
 2960              	.L102:
 2961              	.LBB410:
1164:font.c        ****             draw_pixel(x+font[index+j+1],y,color);
 2962              		.loc 1 1164 0
 2963 0d0e 1AF8010F 		ldrb	r0, [r10, #1]!	@ zero_extendqisi2
 2964 0d12 2246     		mov	r2, r4
 2965 0d14 3844     		add	r0, r0, r7
 2966 0d16 2946     		mov	r1, r5
 2967 0d18 FFF7FEFF 		bl	draw_pixel
 2968              	.LVL396:
 2969              	.LBE410:
1162:font.c        ****         for(int j=0; j<font[index] ;j++)
 2970              		.loc 1 1162 0
 2971 0d1c 5645     		cmp	r6, r10
 2972 0d1e F6D1     		bne	.L102
 2973              	.L103:
 2974 0d20 0135     		adds	r5, r5, #1
 2975              	.LVL397:
 2976              	.LBE409:
1160:font.c        ****     for(int i=0; i<height; i++)
 2977              		.loc 1 1160 0
 2978 0d22 059B     		ldr	r3, [sp, #20]
1167:font.c        ****         index = index+font[index]+1;
 2979              		.loc 1 1167 0
 2980 0d24 09F10109 		add	r9, r9, #1
 2981 0d28 2DB2     		sxth	r5, r5
 2982              	.LVL398:
 2983 0d2a C844     		add	r8, r8, r9
 2984              	.LVL399:
1160:font.c        ****     for(int i=0; i<height; i++)
 2985              		.loc 1 1160 0
 2986 0d2c AB42     		cmp	r3, r5
1167:font.c        ****         index = index+font[index]+1;
 2987              		.loc 1 1167 0
 2988 0d2e 1FFA88F8 		uxth	r8, r8
 2989              	.LVL400:
1160:font.c        ****     for(int i=0; i<height; i++)
ARM GAS  C:\Users\legoc\AppData\Local\Temp\cc4EoOj2.s 			page 88


 2990              		.loc 1 1160 0
 2991 0d32 3FF4B4A9 		beq	.L84
 2992 0d36 1BF80890 		ldrb	r9, [fp, r8]	@ zero_extendqisi2
 2993 0d3a E0E7     		b	.L101
 2994              	.LVL401:
 2995              	.L31:
 2996              	.LBE408:
 2997              	.LBE407:
 2998              	.LBE406:
 2999              	.LBB411:
 3000              	.LBB412:
1157:font.c        ****     x = x-2;
 3001              		.loc 1 1157 0
 3002 0d3c B3B2     		uxth	r3, r6
 3003 0d3e 1A46     		mov	r2, r3
 3004 0d40 0393     		str	r3, [sp, #12]
1156:font.c        ****     y = y-2;
 3005              		.loc 1 1156 0
 3006 0d42 BDF80830 		ldrh	r3, [sp, #8]
1157:font.c        ****     x = x-2;
 3007              		.loc 1 1157 0
 3008 0d46 971E     		subs	r7, r2, #2
1156:font.c        ****     y = y-2;
 3009              		.loc 1 1156 0
 3010 0d48 9D1E     		subs	r5, r3, #2
 3011 0d4a 0533     		adds	r3, r3, #5
 3012 0d4c 1BB2     		sxth	r3, r3
1157:font.c        ****     x = x-2;
 3013              		.loc 1 1157 0
 3014 0d4e 3FB2     		sxth	r7, r7
1156:font.c        ****     y = y-2;
 3015              		.loc 1 1156 0
 3016 0d50 2DB2     		sxth	r5, r5
 3017              	.LVL402:
 3018 0d52 0593     		str	r3, [sp, #20]
1157:font.c        ****     x = x-2;
 3019              		.loc 1 1157 0
 3020 0d54 4FF00309 		mov	r9, #3
1155:font.c        ****     index = index+1;
 3021              		.loc 1 1155 0
 3022 0d58 4FF07608 		mov	r8, #118
 3023              	.LVL403:
 3024              	.L98:
 3025              	.LBB413:
 3026              	.LBB414:
1162:font.c        ****         for(int j=0; j<font[index] ;j++)
 3027              		.loc 1 1162 0
 3028 0d5c B9F1000F 		cmp	r9, #0
 3029 0d60 0DD0     		beq	.L100
 3030 0d62 09EB0806 		add	r6, r9, r8
 3031 0d66 5E44     		add	r6, r6, fp
 3032 0d68 0BEB080A 		add	r10, fp, r8
 3033              	.LVL404:
 3034              	.L99:
 3035              	.LBB415:
1164:font.c        ****             draw_pixel(x+font[index+j+1],y,color);
 3036              		.loc 1 1164 0
ARM GAS  C:\Users\legoc\AppData\Local\Temp\cc4EoOj2.s 			page 89


 3037 0d6c 1AF8010F 		ldrb	r0, [r10, #1]!	@ zero_extendqisi2
 3038 0d70 2246     		mov	r2, r4
 3039 0d72 3844     		add	r0, r0, r7
 3040 0d74 2946     		mov	r1, r5
 3041 0d76 FFF7FEFF 		bl	draw_pixel
 3042              	.LVL405:
 3043              	.LBE415:
1162:font.c        ****         for(int j=0; j<font[index] ;j++)
 3044              		.loc 1 1162 0
 3045 0d7a 5645     		cmp	r6, r10
 3046 0d7c F6D1     		bne	.L99
 3047              	.L100:
 3048 0d7e 0135     		adds	r5, r5, #1
 3049              	.LVL406:
 3050              	.LBE414:
1160:font.c        ****     for(int i=0; i<height; i++)
 3051              		.loc 1 1160 0
 3052 0d80 059B     		ldr	r3, [sp, #20]
1167:font.c        ****         index = index+font[index]+1;
 3053              		.loc 1 1167 0
 3054 0d82 09F10109 		add	r9, r9, #1
 3055 0d86 2DB2     		sxth	r5, r5
 3056              	.LVL407:
 3057 0d88 C844     		add	r8, r8, r9
 3058              	.LVL408:
1160:font.c        ****     for(int i=0; i<height; i++)
 3059              		.loc 1 1160 0
 3060 0d8a AB42     		cmp	r3, r5
1167:font.c        ****         index = index+font[index]+1;
 3061              		.loc 1 1167 0
 3062 0d8c 1FFA88F8 		uxth	r8, r8
 3063              	.LVL409:
1160:font.c        ****     for(int i=0; i<height; i++)
 3064              		.loc 1 1160 0
 3065 0d90 3FF485A9 		beq	.L84
 3066 0d94 1BF80890 		ldrb	r9, [fp, r8]	@ zero_extendqisi2
 3067 0d98 E0E7     		b	.L98
 3068              	.LVL410:
 3069              	.L33:
 3070              	.LBE413:
 3071              	.LBE412:
 3072              	.LBE411:
 3073              	.LBB416:
 3074              	.LBB417:
1157:font.c        ****     x = x-2;
 3075              		.loc 1 1157 0
 3076 0d9a B3B2     		uxth	r3, r6
 3077 0d9c 1A46     		mov	r2, r3
 3078 0d9e 0393     		str	r3, [sp, #12]
1156:font.c        ****     y = y-2;
 3079              		.loc 1 1156 0
 3080 0da0 BDF80830 		ldrh	r3, [sp, #8]
1157:font.c        ****     x = x-2;
 3081              		.loc 1 1157 0
 3082 0da4 971E     		subs	r7, r2, #2
1156:font.c        ****     y = y-2;
 3083              		.loc 1 1156 0
ARM GAS  C:\Users\legoc\AppData\Local\Temp\cc4EoOj2.s 			page 90


 3084 0da6 9D1E     		subs	r5, r3, #2
 3085 0da8 0533     		adds	r3, r3, #5
 3086 0daa 1BB2     		sxth	r3, r3
1157:font.c        ****     x = x-2;
 3087              		.loc 1 1157 0
 3088 0dac 3FB2     		sxth	r7, r7
1156:font.c        ****     y = y-2;
 3089              		.loc 1 1156 0
 3090 0dae 2DB2     		sxth	r5, r5
 3091              	.LVL411:
 3092 0db0 0593     		str	r3, [sp, #20]
1157:font.c        ****     x = x-2;
 3093              		.loc 1 1157 0
 3094 0db2 4FF00109 		mov	r9, #1
1155:font.c        ****     index = index+1;
 3095              		.loc 1 1155 0
 3096 0db6 4FF0A608 		mov	r8, #166
 3097              	.LVL412:
 3098              	.L104:
 3099              	.LBB418:
 3100              	.LBB419:
1162:font.c        ****         for(int j=0; j<font[index] ;j++)
 3101              		.loc 1 1162 0
 3102 0dba B9F1000F 		cmp	r9, #0
 3103 0dbe 0DD0     		beq	.L106
 3104 0dc0 09EB0806 		add	r6, r9, r8
 3105 0dc4 5E44     		add	r6, r6, fp
 3106 0dc6 0BEB080A 		add	r10, fp, r8
 3107              	.LVL413:
 3108              	.L105:
 3109              	.LBB420:
1164:font.c        ****             draw_pixel(x+font[index+j+1],y,color);
 3110              		.loc 1 1164 0
 3111 0dca 1AF8010F 		ldrb	r0, [r10, #1]!	@ zero_extendqisi2
 3112 0dce 2246     		mov	r2, r4
 3113 0dd0 3844     		add	r0, r0, r7
 3114 0dd2 2946     		mov	r1, r5
 3115 0dd4 FFF7FEFF 		bl	draw_pixel
 3116              	.LVL414:
 3117              	.LBE420:
1162:font.c        ****         for(int j=0; j<font[index] ;j++)
 3118              		.loc 1 1162 0
 3119 0dd8 5645     		cmp	r6, r10
 3120 0dda F6D1     		bne	.L105
 3121              	.L106:
 3122 0ddc 0135     		adds	r5, r5, #1
 3123              	.LVL415:
 3124              	.LBE419:
1160:font.c        ****     for(int i=0; i<height; i++)
 3125              		.loc 1 1160 0
 3126 0dde 059B     		ldr	r3, [sp, #20]
1167:font.c        ****         index = index+font[index]+1;
 3127              		.loc 1 1167 0
 3128 0de0 09F10109 		add	r9, r9, #1
 3129 0de4 2DB2     		sxth	r5, r5
 3130              	.LVL416:
 3131 0de6 C844     		add	r8, r8, r9
ARM GAS  C:\Users\legoc\AppData\Local\Temp\cc4EoOj2.s 			page 91


 3132              	.LVL417:
1160:font.c        ****     for(int i=0; i<height; i++)
 3133              		.loc 1 1160 0
 3134 0de8 AB42     		cmp	r3, r5
1167:font.c        ****         index = index+font[index]+1;
 3135              		.loc 1 1167 0
 3136 0dea 1FFA88F8 		uxth	r8, r8
 3137              	.LVL418:
1160:font.c        ****     for(int i=0; i<height; i++)
 3138              		.loc 1 1160 0
 3139 0dee 3FF456A9 		beq	.L84
 3140 0df2 1BF80890 		ldrb	r9, [fp, r8]	@ zero_extendqisi2
 3141 0df6 E0E7     		b	.L104
 3142              	.LVL419:
 3143              	.L52:
 3144              	.LBE418:
 3145              	.LBE417:
 3146              	.LBE416:
1179:font.c        ****         switch(g)
 3147              		.loc 1 1179 0
 3148 0df8 1A21     		movs	r1, #26
 3149 0dfa 0A46     		mov	r2, r1
 3150 0dfc 0123     		movs	r3, #1
 3151 0dfe 01E0     		b	.L71
 3152              	.LVL420:
 3153              	.L447:
 3154 0e00 1BF80320 		ldrb	r2, [fp, r3]	@ zero_extendqisi2
 3155              	.LVL421:
 3156              	.L71:
 3157              	.LBB421:
 3158              	.LBB422:
 3159              	.LBB423:
1152:font.c        ****         index = index + font[index] + 1;
 3160              		.loc 1 1152 0
 3161 0e04 0132     		adds	r2, r2, #1
 3162 0e06 1344     		add	r3, r3, r2
 3163              	.LVL422:
1150:font.c        ****     for(int i=0; i<character;i++)
 3164              		.loc 1 1150 0
 3165 0e08 0139     		subs	r1, r1, #1
1152:font.c        ****         index = index + font[index] + 1;
 3166              		.loc 1 1152 0
 3167 0e0a 9BB2     		uxth	r3, r3
 3168              	.LVL423:
1150:font.c        ****     for(int i=0; i<character;i++)
 3169              		.loc 1 1150 0
 3170 0e0c F8D1     		bne	.L447
 3171              	.LBE423:
1157:font.c        ****     x = x-2;
 3172              		.loc 1 1157 0
 3173 0e0e B2B2     		uxth	r2, r6
 3174 0e10 1146     		mov	r1, r2
 3175 0e12 0392     		str	r2, [sp, #12]
1156:font.c        ****     y = y-2;
 3176              		.loc 1 1156 0
 3177 0e14 BDF80820 		ldrh	r2, [sp, #8]
1155:font.c        ****     index = index+1;
ARM GAS  C:\Users\legoc\AppData\Local\Temp\cc4EoOj2.s 			page 92


 3178              		.loc 1 1155 0
 3179 0e18 0133     		adds	r3, r3, #1
 3180              	.LVL424:
1156:font.c        ****     y = y-2;
 3181              		.loc 1 1156 0
 3182 0e1a 951E     		subs	r5, r2, #2
 3183 0e1c 0532     		adds	r2, r2, #5
1157:font.c        ****     x = x-2;
 3184              		.loc 1 1157 0
 3185 0e1e 8F1E     		subs	r7, r1, #2
1155:font.c        ****     index = index+1;
 3186              		.loc 1 1155 0
 3187 0e20 1FFA83F8 		uxth	r8, r3
 3188              	.LVL425:
 3189 0e24 13B2     		sxth	r3, r2
1157:font.c        ****     x = x-2;
 3190              		.loc 1 1157 0
 3191 0e26 3FB2     		sxth	r7, r7
1156:font.c        ****     y = y-2;
 3192              		.loc 1 1156 0
 3193 0e28 2DB2     		sxth	r5, r5
 3194              	.LVL426:
 3195 0e2a 0593     		str	r3, [sp, #20]
 3196              	.LVL427:
 3197              	.L170:
 3198              	.LBB424:
 3199              	.LBB425:
1162:font.c        ****         for(int j=0; j<font[index] ;j++)
 3200              		.loc 1 1162 0
 3201 0e2c 1BF80890 		ldrb	r9, [fp, r8]	@ zero_extendqisi2
 3202 0e30 B9F1000F 		cmp	r9, #0
 3203 0e34 0DD0     		beq	.L172
 3204 0e36 09EB0806 		add	r6, r9, r8
 3205 0e3a 5E44     		add	r6, r6, fp
 3206 0e3c 0BEB080A 		add	r10, fp, r8
 3207              	.LVL428:
 3208              	.L171:
 3209              	.LBB426:
1164:font.c        ****             draw_pixel(x+font[index+j+1],y,color);
 3210              		.loc 1 1164 0
 3211 0e40 1AF8010F 		ldrb	r0, [r10, #1]!	@ zero_extendqisi2
 3212 0e44 2246     		mov	r2, r4
 3213 0e46 3844     		add	r0, r0, r7
 3214 0e48 2946     		mov	r1, r5
 3215 0e4a FFF7FEFF 		bl	draw_pixel
 3216              	.LVL429:
 3217              	.LBE426:
1162:font.c        ****         for(int j=0; j<font[index] ;j++)
 3218              		.loc 1 1162 0
 3219 0e4e 5645     		cmp	r6, r10
 3220 0e50 F6D1     		bne	.L171
 3221              	.L172:
 3222 0e52 0135     		adds	r5, r5, #1
 3223              	.LVL430:
 3224              	.LBE425:
1160:font.c        ****     for(int i=0; i<height; i++)
 3225              		.loc 1 1160 0
ARM GAS  C:\Users\legoc\AppData\Local\Temp\cc4EoOj2.s 			page 93


 3226 0e54 059B     		ldr	r3, [sp, #20]
1167:font.c        ****         index = index+font[index]+1;
 3227              		.loc 1 1167 0
 3228 0e56 09F10109 		add	r9, r9, #1
 3229 0e5a 2DB2     		sxth	r5, r5
 3230              	.LVL431:
 3231 0e5c C844     		add	r8, r8, r9
 3232              	.LVL432:
1160:font.c        ****     for(int i=0; i<height; i++)
 3233              		.loc 1 1160 0
 3234 0e5e AB42     		cmp	r3, r5
1167:font.c        ****         index = index+font[index]+1;
 3235              		.loc 1 1167 0
 3236 0e60 1FFA88F8 		uxth	r8, r8
 3237              	.LVL433:
1160:font.c        ****     for(int i=0; i<height; i++)
 3238              		.loc 1 1160 0
 3239 0e64 E2D1     		bne	.L170
 3240 0e66 FFF71AB9 		b	.L84
 3241              	.LVL434:
 3242              	.L51:
 3243              	.LBE424:
 3244              	.LBE422:
 3245              	.LBE421:
1179:font.c        ****         switch(g)
 3246              		.loc 1 1179 0
 3247 0e6a 1921     		movs	r1, #25
 3248 0e6c 1A22     		movs	r2, #26
 3249 0e6e 0123     		movs	r3, #1
 3250 0e70 01E0     		b	.L72
 3251              	.LVL435:
 3252              	.L448:
 3253 0e72 1BF80320 		ldrb	r2, [fp, r3]	@ zero_extendqisi2
 3254              	.LVL436:
 3255              	.L72:
 3256              	.LBB427:
 3257              	.LBB428:
 3258              	.LBB429:
1152:font.c        ****         index = index + font[index] + 1;
 3259              		.loc 1 1152 0
 3260 0e76 0132     		adds	r2, r2, #1
 3261 0e78 1344     		add	r3, r3, r2
 3262              	.LVL437:
1150:font.c        ****     for(int i=0; i<character;i++)
 3263              		.loc 1 1150 0
 3264 0e7a 0139     		subs	r1, r1, #1
1152:font.c        ****         index = index + font[index] + 1;
 3265              		.loc 1 1152 0
 3266 0e7c 9BB2     		uxth	r3, r3
 3267              	.LVL438:
1150:font.c        ****     for(int i=0; i<character;i++)
 3268              		.loc 1 1150 0
 3269 0e7e F8D1     		bne	.L448
 3270              	.LBE429:
1157:font.c        ****     x = x-2;
 3271              		.loc 1 1157 0
 3272 0e80 B2B2     		uxth	r2, r6
ARM GAS  C:\Users\legoc\AppData\Local\Temp\cc4EoOj2.s 			page 94


 3273 0e82 1146     		mov	r1, r2
 3274 0e84 0392     		str	r2, [sp, #12]
1156:font.c        ****     y = y-2;
 3275              		.loc 1 1156 0
 3276 0e86 BDF80820 		ldrh	r2, [sp, #8]
1155:font.c        ****     index = index+1;
 3277              		.loc 1 1155 0
 3278 0e8a 0133     		adds	r3, r3, #1
 3279              	.LVL439:
1156:font.c        ****     y = y-2;
 3280              		.loc 1 1156 0
 3281 0e8c 951E     		subs	r5, r2, #2
 3282 0e8e 0532     		adds	r2, r2, #5
1157:font.c        ****     x = x-2;
 3283              		.loc 1 1157 0
 3284 0e90 8F1E     		subs	r7, r1, #2
1155:font.c        ****     index = index+1;
 3285              		.loc 1 1155 0
 3286 0e92 1FFA83F8 		uxth	r8, r3
 3287              	.LVL440:
 3288 0e96 13B2     		sxth	r3, r2
1157:font.c        ****     x = x-2;
 3289              		.loc 1 1157 0
 3290 0e98 3FB2     		sxth	r7, r7
1156:font.c        ****     y = y-2;
 3291              		.loc 1 1156 0
 3292 0e9a 2DB2     		sxth	r5, r5
 3293              	.LVL441:
 3294 0e9c 0593     		str	r3, [sp, #20]
 3295              	.LVL442:
 3296              	.L166:
 3297              	.LBB430:
 3298              	.LBB431:
1162:font.c        ****         for(int j=0; j<font[index] ;j++)
 3299              		.loc 1 1162 0
 3300 0e9e 1BF80890 		ldrb	r9, [fp, r8]	@ zero_extendqisi2
 3301 0ea2 B9F1000F 		cmp	r9, #0
 3302 0ea6 0DD0     		beq	.L168
 3303 0ea8 09EB0806 		add	r6, r9, r8
 3304 0eac 5E44     		add	r6, r6, fp
 3305 0eae 0BEB080A 		add	r10, fp, r8
 3306              	.LVL443:
 3307              	.L167:
 3308              	.LBB432:
1164:font.c        ****             draw_pixel(x+font[index+j+1],y,color);
 3309              		.loc 1 1164 0
 3310 0eb2 1AF8010F 		ldrb	r0, [r10, #1]!	@ zero_extendqisi2
 3311 0eb6 2246     		mov	r2, r4
 3312 0eb8 3844     		add	r0, r0, r7
 3313 0eba 2946     		mov	r1, r5
 3314 0ebc FFF7FEFF 		bl	draw_pixel
 3315              	.LVL444:
 3316              	.LBE432:
1162:font.c        ****         for(int j=0; j<font[index] ;j++)
 3317              		.loc 1 1162 0
 3318 0ec0 5645     		cmp	r6, r10
 3319 0ec2 F6D1     		bne	.L167
ARM GAS  C:\Users\legoc\AppData\Local\Temp\cc4EoOj2.s 			page 95


 3320              	.L168:
 3321 0ec4 0135     		adds	r5, r5, #1
 3322              	.LVL445:
 3323              	.LBE431:
1160:font.c        ****     for(int i=0; i<height; i++)
 3324              		.loc 1 1160 0
 3325 0ec6 059B     		ldr	r3, [sp, #20]
1167:font.c        ****         index = index+font[index]+1;
 3326              		.loc 1 1167 0
 3327 0ec8 09F10109 		add	r9, r9, #1
 3328 0ecc 2DB2     		sxth	r5, r5
 3329              	.LVL446:
 3330 0ece C844     		add	r8, r8, r9
 3331              	.LVL447:
1160:font.c        ****     for(int i=0; i<height; i++)
 3332              		.loc 1 1160 0
 3333 0ed0 AB42     		cmp	r3, r5
1167:font.c        ****         index = index+font[index]+1;
 3334              		.loc 1 1167 0
 3335 0ed2 1FFA88F8 		uxth	r8, r8
 3336              	.LVL448:
1160:font.c        ****     for(int i=0; i<height; i++)
 3337              		.loc 1 1160 0
 3338 0ed6 E2D1     		bne	.L166
 3339 0ed8 FFF7E1B8 		b	.L84
 3340              	.LVL449:
 3341              	.L53:
 3342              	.LBE430:
 3343              	.LBE428:
 3344              	.LBE427:
1179:font.c        ****         switch(g)
 3345              		.loc 1 1179 0
 3346 0edc 1B21     		movs	r1, #27
 3347 0ede 1A22     		movs	r2, #26
 3348 0ee0 0123     		movs	r3, #1
 3349 0ee2 01E0     		b	.L70
 3350              	.LVL450:
 3351              	.L449:
 3352 0ee4 1BF80320 		ldrb	r2, [fp, r3]	@ zero_extendqisi2
 3353              	.LVL451:
 3354              	.L70:
 3355              	.LBB433:
 3356              	.LBB434:
 3357              	.LBB435:
1152:font.c        ****         index = index + font[index] + 1;
 3358              		.loc 1 1152 0
 3359 0ee8 0132     		adds	r2, r2, #1
 3360 0eea 1344     		add	r3, r3, r2
 3361              	.LVL452:
1150:font.c        ****     for(int i=0; i<character;i++)
 3362              		.loc 1 1150 0
 3363 0eec 0139     		subs	r1, r1, #1
1152:font.c        ****         index = index + font[index] + 1;
 3364              		.loc 1 1152 0
 3365 0eee 9BB2     		uxth	r3, r3
 3366              	.LVL453:
1150:font.c        ****     for(int i=0; i<character;i++)
ARM GAS  C:\Users\legoc\AppData\Local\Temp\cc4EoOj2.s 			page 96


 3367              		.loc 1 1150 0
 3368 0ef0 F8D1     		bne	.L449
 3369              	.LBE435:
1157:font.c        ****     x = x-2;
 3370              		.loc 1 1157 0
 3371 0ef2 B2B2     		uxth	r2, r6
 3372 0ef4 1146     		mov	r1, r2
 3373 0ef6 0392     		str	r2, [sp, #12]
1156:font.c        ****     y = y-2;
 3374              		.loc 1 1156 0
 3375 0ef8 BDF80820 		ldrh	r2, [sp, #8]
1155:font.c        ****     index = index+1;
 3376              		.loc 1 1155 0
 3377 0efc 0133     		adds	r3, r3, #1
 3378              	.LVL454:
1156:font.c        ****     y = y-2;
 3379              		.loc 1 1156 0
 3380 0efe 951E     		subs	r5, r2, #2
 3381 0f00 0532     		adds	r2, r2, #5
1157:font.c        ****     x = x-2;
 3382              		.loc 1 1157 0
 3383 0f02 8F1E     		subs	r7, r1, #2
1155:font.c        ****     index = index+1;
 3384              		.loc 1 1155 0
 3385 0f04 1FFA83F8 		uxth	r8, r3
 3386              	.LVL455:
 3387 0f08 13B2     		sxth	r3, r2
1157:font.c        ****     x = x-2;
 3388              		.loc 1 1157 0
 3389 0f0a 3FB2     		sxth	r7, r7
1156:font.c        ****     y = y-2;
 3390              		.loc 1 1156 0
 3391 0f0c 2DB2     		sxth	r5, r5
 3392              	.LVL456:
 3393 0f0e 0593     		str	r3, [sp, #20]
 3394              	.LVL457:
 3395              	.L174:
 3396              	.LBB436:
 3397              	.LBB437:
1162:font.c        ****         for(int j=0; j<font[index] ;j++)
 3398              		.loc 1 1162 0
 3399 0f10 1BF80890 		ldrb	r9, [fp, r8]	@ zero_extendqisi2
 3400 0f14 B9F1000F 		cmp	r9, #0
 3401 0f18 0DD0     		beq	.L176
 3402 0f1a 09EB0806 		add	r6, r9, r8
 3403 0f1e 5E44     		add	r6, r6, fp
 3404 0f20 0BEB080A 		add	r10, fp, r8
 3405              	.LVL458:
 3406              	.L175:
 3407              	.LBB438:
1164:font.c        ****             draw_pixel(x+font[index+j+1],y,color);
 3408              		.loc 1 1164 0
 3409 0f24 1AF8010F 		ldrb	r0, [r10, #1]!	@ zero_extendqisi2
 3410 0f28 2246     		mov	r2, r4
 3411 0f2a 3844     		add	r0, r0, r7
 3412 0f2c 2946     		mov	r1, r5
 3413 0f2e FFF7FEFF 		bl	draw_pixel
ARM GAS  C:\Users\legoc\AppData\Local\Temp\cc4EoOj2.s 			page 97


 3414              	.LVL459:
 3415              	.LBE438:
1162:font.c        ****         for(int j=0; j<font[index] ;j++)
 3416              		.loc 1 1162 0
 3417 0f32 5645     		cmp	r6, r10
 3418 0f34 F6D1     		bne	.L175
 3419              	.L176:
 3420 0f36 0135     		adds	r5, r5, #1
 3421              	.LVL460:
 3422              	.LBE437:
1160:font.c        ****     for(int i=0; i<height; i++)
 3423              		.loc 1 1160 0
 3424 0f38 059B     		ldr	r3, [sp, #20]
1167:font.c        ****         index = index+font[index]+1;
 3425              		.loc 1 1167 0
 3426 0f3a 09F10109 		add	r9, r9, #1
 3427 0f3e 2DB2     		sxth	r5, r5
 3428              	.LVL461:
 3429 0f40 C844     		add	r8, r8, r9
 3430              	.LVL462:
1160:font.c        ****     for(int i=0; i<height; i++)
 3431              		.loc 1 1160 0
 3432 0f42 AB42     		cmp	r3, r5
1167:font.c        ****         index = index+font[index]+1;
 3433              		.loc 1 1167 0
 3434 0f44 1FFA88F8 		uxth	r8, r8
 3435              	.LVL463:
1160:font.c        ****     for(int i=0; i<height; i++)
 3436              		.loc 1 1160 0
 3437 0f48 E2D1     		bne	.L174
 3438 0f4a FFF7A8B8 		b	.L84
 3439              	.LVL464:
 3440              	.L45:
 3441              	.LBE436:
 3442              	.LBE434:
 3443              	.LBE433:
1179:font.c        ****         switch(g)
 3444              		.loc 1 1179 0
 3445 0f4e 1321     		movs	r1, #19
 3446 0f50 1A22     		movs	r2, #26
 3447 0f52 0123     		movs	r3, #1
 3448 0f54 01E0     		b	.L78
 3449              	.LVL465:
 3450              	.L450:
 3451 0f56 1BF80320 		ldrb	r2, [fp, r3]	@ zero_extendqisi2
 3452              	.LVL466:
 3453              	.L78:
 3454              	.LBB439:
 3455              	.LBB440:
 3456              	.LBB441:
1152:font.c        ****         index = index + font[index] + 1;
 3457              		.loc 1 1152 0
 3458 0f5a 0132     		adds	r2, r2, #1
 3459 0f5c 1344     		add	r3, r3, r2
 3460              	.LVL467:
1150:font.c        ****     for(int i=0; i<character;i++)
 3461              		.loc 1 1150 0
ARM GAS  C:\Users\legoc\AppData\Local\Temp\cc4EoOj2.s 			page 98


 3462 0f5e 0139     		subs	r1, r1, #1
1152:font.c        ****         index = index + font[index] + 1;
 3463              		.loc 1 1152 0
 3464 0f60 9BB2     		uxth	r3, r3
 3465              	.LVL468:
1150:font.c        ****     for(int i=0; i<character;i++)
 3466              		.loc 1 1150 0
 3467 0f62 F8D1     		bne	.L450
 3468              	.LBE441:
1157:font.c        ****     x = x-2;
 3469              		.loc 1 1157 0
 3470 0f64 B2B2     		uxth	r2, r6
 3471 0f66 1146     		mov	r1, r2
 3472 0f68 0392     		str	r2, [sp, #12]
1156:font.c        ****     y = y-2;
 3473              		.loc 1 1156 0
 3474 0f6a BDF80820 		ldrh	r2, [sp, #8]
1155:font.c        ****     index = index+1;
 3475              		.loc 1 1155 0
 3476 0f6e 0133     		adds	r3, r3, #1
 3477              	.LVL469:
1156:font.c        ****     y = y-2;
 3478              		.loc 1 1156 0
 3479 0f70 951E     		subs	r5, r2, #2
 3480 0f72 0532     		adds	r2, r2, #5
1157:font.c        ****     x = x-2;
 3481              		.loc 1 1157 0
 3482 0f74 8F1E     		subs	r7, r1, #2
1155:font.c        ****     index = index+1;
 3483              		.loc 1 1155 0
 3484 0f76 1FFA83F8 		uxth	r8, r3
 3485              	.LVL470:
 3486 0f7a 13B2     		sxth	r3, r2
1157:font.c        ****     x = x-2;
 3487              		.loc 1 1157 0
 3488 0f7c 3FB2     		sxth	r7, r7
1156:font.c        ****     y = y-2;
 3489              		.loc 1 1156 0
 3490 0f7e 2DB2     		sxth	r5, r5
 3491              	.LVL471:
 3492 0f80 0593     		str	r3, [sp, #20]
 3493              	.LVL472:
 3494              	.L142:
 3495              	.LBB442:
 3496              	.LBB443:
1162:font.c        ****         for(int j=0; j<font[index] ;j++)
 3497              		.loc 1 1162 0
 3498 0f82 1BF80890 		ldrb	r9, [fp, r8]	@ zero_extendqisi2
 3499 0f86 B9F1000F 		cmp	r9, #0
 3500 0f8a 0DD0     		beq	.L144
 3501 0f8c 09EB0806 		add	r6, r9, r8
 3502 0f90 5E44     		add	r6, r6, fp
 3503 0f92 0BEB080A 		add	r10, fp, r8
 3504              	.LVL473:
 3505              	.L143:
 3506              	.LBB444:
1164:font.c        ****             draw_pixel(x+font[index+j+1],y,color);
ARM GAS  C:\Users\legoc\AppData\Local\Temp\cc4EoOj2.s 			page 99


 3507              		.loc 1 1164 0
 3508 0f96 1AF8010F 		ldrb	r0, [r10, #1]!	@ zero_extendqisi2
 3509 0f9a 2246     		mov	r2, r4
 3510 0f9c 3844     		add	r0, r0, r7
 3511 0f9e 2946     		mov	r1, r5
 3512 0fa0 FFF7FEFF 		bl	draw_pixel
 3513              	.LVL474:
 3514              	.LBE444:
1162:font.c        ****         for(int j=0; j<font[index] ;j++)
 3515              		.loc 1 1162 0
 3516 0fa4 5645     		cmp	r6, r10
 3517 0fa6 F6D1     		bne	.L143
 3518              	.L144:
 3519 0fa8 0135     		adds	r5, r5, #1
 3520              	.LVL475:
 3521              	.LBE443:
1160:font.c        ****     for(int i=0; i<height; i++)
 3522              		.loc 1 1160 0
 3523 0faa 059B     		ldr	r3, [sp, #20]
1167:font.c        ****         index = index+font[index]+1;
 3524              		.loc 1 1167 0
 3525 0fac 09F10109 		add	r9, r9, #1
 3526 0fb0 2DB2     		sxth	r5, r5
 3527              	.LVL476:
 3528 0fb2 C844     		add	r8, r8, r9
 3529              	.LVL477:
1160:font.c        ****     for(int i=0; i<height; i++)
 3530              		.loc 1 1160 0
 3531 0fb4 AB42     		cmp	r3, r5
1167:font.c        ****         index = index+font[index]+1;
 3532              		.loc 1 1167 0
 3533 0fb6 1FFA88F8 		uxth	r8, r8
 3534              	.LVL478:
1160:font.c        ****     for(int i=0; i<height; i++)
 3535              		.loc 1 1160 0
 3536 0fba E2D1     		bne	.L142
 3537 0fbc FFF76FB8 		b	.L84
 3538              	.LVL479:
 3539              	.L47:
 3540              	.LBE442:
 3541              	.LBE440:
 3542              	.LBE439:
1179:font.c        ****         switch(g)
 3543              		.loc 1 1179 0
 3544 0fc0 1521     		movs	r1, #21
 3545 0fc2 1A22     		movs	r2, #26
 3546 0fc4 0123     		movs	r3, #1
 3547 0fc6 01E0     		b	.L76
 3548              	.LVL480:
 3549              	.L451:
 3550 0fc8 1BF80320 		ldrb	r2, [fp, r3]	@ zero_extendqisi2
 3551              	.LVL481:
 3552              	.L76:
 3553              	.LBB445:
 3554              	.LBB446:
 3555              	.LBB447:
1152:font.c        ****         index = index + font[index] + 1;
ARM GAS  C:\Users\legoc\AppData\Local\Temp\cc4EoOj2.s 			page 100


 3556              		.loc 1 1152 0
 3557 0fcc 0132     		adds	r2, r2, #1
 3558 0fce 1344     		add	r3, r3, r2
 3559              	.LVL482:
1150:font.c        ****     for(int i=0; i<character;i++)
 3560              		.loc 1 1150 0
 3561 0fd0 0139     		subs	r1, r1, #1
1152:font.c        ****         index = index + font[index] + 1;
 3562              		.loc 1 1152 0
 3563 0fd2 9BB2     		uxth	r3, r3
 3564              	.LVL483:
1150:font.c        ****     for(int i=0; i<character;i++)
 3565              		.loc 1 1150 0
 3566 0fd4 F8D1     		bne	.L451
 3567              	.LBE447:
1157:font.c        ****     x = x-2;
 3568              		.loc 1 1157 0
 3569 0fd6 B2B2     		uxth	r2, r6
 3570 0fd8 1146     		mov	r1, r2
 3571 0fda 0392     		str	r2, [sp, #12]
1156:font.c        ****     y = y-2;
 3572              		.loc 1 1156 0
 3573 0fdc BDF80820 		ldrh	r2, [sp, #8]
1155:font.c        ****     index = index+1;
 3574              		.loc 1 1155 0
 3575 0fe0 0133     		adds	r3, r3, #1
 3576              	.LVL484:
1156:font.c        ****     y = y-2;
 3577              		.loc 1 1156 0
 3578 0fe2 951E     		subs	r5, r2, #2
 3579 0fe4 0532     		adds	r2, r2, #5
1157:font.c        ****     x = x-2;
 3580              		.loc 1 1157 0
 3581 0fe6 8F1E     		subs	r7, r1, #2
1155:font.c        ****     index = index+1;
 3582              		.loc 1 1155 0
 3583 0fe8 1FFA83F8 		uxth	r8, r3
 3584              	.LVL485:
 3585 0fec 13B2     		sxth	r3, r2
1157:font.c        ****     x = x-2;
 3586              		.loc 1 1157 0
 3587 0fee 3FB2     		sxth	r7, r7
1156:font.c        ****     y = y-2;
 3588              		.loc 1 1156 0
 3589 0ff0 2DB2     		sxth	r5, r5
 3590              	.LVL486:
 3591 0ff2 0593     		str	r3, [sp, #20]
 3592              	.LVL487:
 3593              	.L150:
 3594              	.LBB448:
 3595              	.LBB449:
1162:font.c        ****         for(int j=0; j<font[index] ;j++)
 3596              		.loc 1 1162 0
 3597 0ff4 1BF80890 		ldrb	r9, [fp, r8]	@ zero_extendqisi2
 3598 0ff8 B9F1000F 		cmp	r9, #0
 3599 0ffc 0DD0     		beq	.L152
 3600 0ffe 09EB0806 		add	r6, r9, r8
ARM GAS  C:\Users\legoc\AppData\Local\Temp\cc4EoOj2.s 			page 101


 3601 1002 5E44     		add	r6, r6, fp
 3602 1004 0BEB080A 		add	r10, fp, r8
 3603              	.LVL488:
 3604              	.L151:
 3605              	.LBB450:
1164:font.c        ****             draw_pixel(x+font[index+j+1],y,color);
 3606              		.loc 1 1164 0
 3607 1008 1AF8010F 		ldrb	r0, [r10, #1]!	@ zero_extendqisi2
 3608 100c 2246     		mov	r2, r4
 3609 100e 3844     		add	r0, r0, r7
 3610 1010 2946     		mov	r1, r5
 3611 1012 FFF7FEFF 		bl	draw_pixel
 3612              	.LVL489:
 3613              	.LBE450:
1162:font.c        ****         for(int j=0; j<font[index] ;j++)
 3614              		.loc 1 1162 0
 3615 1016 5645     		cmp	r6, r10
 3616 1018 F6D1     		bne	.L151
 3617              	.L152:
 3618 101a 0135     		adds	r5, r5, #1
 3619              	.LVL490:
 3620              	.LBE449:
1160:font.c        ****     for(int i=0; i<height; i++)
 3621              		.loc 1 1160 0
 3622 101c 059B     		ldr	r3, [sp, #20]
1167:font.c        ****         index = index+font[index]+1;
 3623              		.loc 1 1167 0
 3624 101e 09F10109 		add	r9, r9, #1
 3625 1022 2DB2     		sxth	r5, r5
 3626              	.LVL491:
 3627 1024 C844     		add	r8, r8, r9
 3628              	.LVL492:
1160:font.c        ****     for(int i=0; i<height; i++)
 3629              		.loc 1 1160 0
 3630 1026 AB42     		cmp	r3, r5
1167:font.c        ****         index = index+font[index]+1;
 3631              		.loc 1 1167 0
 3632 1028 1FFA88F8 		uxth	r8, r8
 3633              	.LVL493:
1160:font.c        ****     for(int i=0; i<height; i++)
 3634              		.loc 1 1160 0
 3635 102c E2D1     		bne	.L150
 3636 102e FFF736B8 		b	.L84
 3637              	.LBE448:
 3638              	.LBE446:
 3639              	.LBE445:
 3640              	.LBE451:
 3641              		.cfi_endproc
 3642              	.LFE2:
 3643              		.size	draw_string, .-draw_string
 3644 1032 00BF     		.section	.rodata
 3645              		.align	2
 3646              		.set	.LANCHOR0,. + 0
 3647              		.type	font, %object
 3648              		.size	font, 845
 3649              	font:
 3650 0000 07       		.byte	7
ARM GAS  C:\Users\legoc\AppData\Local\Temp\cc4EoOj2.s 			page 102


 3651 0001 1A       		.byte	26
 3652 0002 03       		.byte	3
 3653 0003 01       		.byte	1
 3654 0004 02       		.byte	2
 3655 0005 03       		.byte	3
 3656 0006 02       		.byte	2
 3657 0007 00       		.byte	0
 3658 0008 04       		.byte	4
 3659 0009 03       		.byte	3
 3660 000a 00       		.byte	0
 3661 000b 01       		.byte	1
 3662 000c 04       		.byte	4
 3663 000d 03       		.byte	3
 3664 000e 00       		.byte	0
 3665 000f 02       		.byte	2
 3666 0010 04       		.byte	4
 3667 0011 03       		.byte	3
 3668 0012 00       		.byte	0
 3669 0013 03       		.byte	3
 3670 0014 04       		.byte	4
 3671 0015 02       		.byte	2
 3672 0016 00       		.byte	0
 3673 0017 04       		.byte	4
 3674 0018 03       		.byte	3
 3675 0019 01       		.byte	1
 3676 001a 02       		.byte	2
 3677 001b 03       		.byte	3
 3678 001c 13       		.byte	19
 3679 001d 05       		.byte	5
 3680 001e 00       		.byte	0
 3681 001f 01       		.byte	1
 3682 0020 02       		.byte	2
 3683 0021 03       		.byte	3
 3684 0022 04       		.byte	4
 3685 0023 01       		.byte	1
 3686 0024 02       		.byte	2
 3687 0025 01       		.byte	1
 3688 0026 02       		.byte	2
 3689 0027 01       		.byte	1
 3690 0028 02       		.byte	2
 3691 0029 01       		.byte	1
 3692 002a 02       		.byte	2
 3693 002b 02       		.byte	2
 3694 002c 01       		.byte	1
 3695 002d 02       		.byte	2
 3696 002e 01       		.byte	1
 3697 002f 02       		.byte	2
 3698 0030 17       		.byte	23
 3699 0031 05       		.byte	5
 3700 0032 00       		.byte	0
 3701 0033 01       		.byte	1
 3702 0034 02       		.byte	2
 3703 0035 03       		.byte	3
 3704 0036 04       		.byte	4
 3705 0037 02       		.byte	2
 3706 0038 00       		.byte	0
 3707 0039 04       		.byte	4
ARM GAS  C:\Users\legoc\AppData\Local\Temp\cc4EoOj2.s 			page 103


 3708 003a 01       		.byte	1
 3709 003b 01       		.byte	1
 3710 003c 02       		.byte	2
 3711 003d 02       		.byte	2
 3712 003e 03       		.byte	3
 3713 003f 01       		.byte	1
 3714 0040 04       		.byte	4
 3715 0041 02       		.byte	2
 3716 0042 00       		.byte	0
 3717 0043 04       		.byte	4
 3718 0044 03       		.byte	3
 3719 0045 01       		.byte	1
 3720 0046 02       		.byte	2
 3721 0047 03       		.byte	3
 3722 0048 15       		.byte	21
 3723 0049 03       		.byte	3
 3724 004a 01       		.byte	1
 3725 004b 02       		.byte	2
 3726 004c 03       		.byte	3
 3727 004d 02       		.byte	2
 3728 004e 00       		.byte	0
 3729 004f 04       		.byte	4
 3730 0050 01       		.byte	1
 3731 0051 04       		.byte	4
 3732 0052 02       		.byte	2
 3733 0053 02       		.byte	2
 3734 0054 03       		.byte	3
 3735 0055 01       		.byte	1
 3736 0056 04       		.byte	4
 3737 0057 02       		.byte	2
 3738 0058 00       		.byte	0
 3739 0059 04       		.byte	4
 3740 005a 03       		.byte	3
 3741 005b 01       		.byte	1
 3742 005c 02       		.byte	2
 3743 005d 03       		.byte	3
 3744 005e 16       		.byte	22
 3745 005f 01       		.byte	1
 3746 0060 04       		.byte	4
 3747 0061 01       		.byte	1
 3748 0062 04       		.byte	4
 3749 0063 05       		.byte	5
 3750 0064 00       		.byte	0
 3751 0065 01       		.byte	1
 3752 0066 02       		.byte	2
 3753 0067 03       		.byte	3
 3754 0068 04       		.byte	4
 3755 0069 02       		.byte	2
 3756 006a 00       		.byte	0
 3757 006b 04       		.byte	4
 3758 006c 02       		.byte	2
 3759 006d 01       		.byte	1
 3760 006e 04       		.byte	4
 3761 006f 02       		.byte	2
 3762 0070 02       		.byte	2
 3763 0071 04       		.byte	4
 3764 0072 02       		.byte	2
ARM GAS  C:\Users\legoc\AppData\Local\Temp\cc4EoOj2.s 			page 104


 3765 0073 03       		.byte	3
 3766 0074 04       		.byte	4
 3767 0075 18       		.byte	24
 3768 0076 03       		.byte	3
 3769 0077 01       		.byte	1
 3770 0078 02       		.byte	2
 3771 0079 03       		.byte	3
 3772 007a 02       		.byte	2
 3773 007b 00       		.byte	0
 3774 007c 04       		.byte	4
 3775 007d 01       		.byte	1
 3776 007e 04       		.byte	4
 3777 007f 01       		.byte	1
 3778 0080 04       		.byte	4
 3779 0081 04       		.byte	4
 3780 0082 00       		.byte	0
 3781 0083 01       		.byte	1
 3782 0084 02       		.byte	2
 3783 0085 03       		.byte	3
 3784 0086 01       		.byte	1
 3785 0087 00       		.byte	0
 3786 0088 05       		.byte	5
 3787 0089 00       		.byte	0
 3788 008a 01       		.byte	1
 3789 008b 02       		.byte	2
 3790 008c 03       		.byte	3
 3791 008d 04       		.byte	4
 3792 008e 16       		.byte	22
 3793 008f 03       		.byte	3
 3794 0090 01       		.byte	1
 3795 0091 02       		.byte	2
 3796 0092 03       		.byte	3
 3797 0093 02       		.byte	2
 3798 0094 00       		.byte	0
 3799 0095 04       		.byte	4
 3800 0096 02       		.byte	2
 3801 0097 00       		.byte	0
 3802 0098 04       		.byte	4
 3803 0099 04       		.byte	4
 3804 009a 00       		.byte	0
 3805 009b 01       		.byte	1
 3806 009c 02       		.byte	2
 3807 009d 03       		.byte	3
 3808 009e 01       		.byte	1
 3809 009f 00       		.byte	0
 3810 00a0 01       		.byte	1
 3811 00a1 01       		.byte	1
 3812 00a2 02       		.byte	2
 3813 00a3 02       		.byte	2
 3814 00a4 03       		.byte	3
 3815 00a5 13       		.byte	19
 3816 00a6 01       		.byte	1
 3817 00a7 02       		.byte	2
 3818 00a8 01       		.byte	1
 3819 00a9 02       		.byte	2
 3820 00aa 01       		.byte	1
 3821 00ab 02       		.byte	2
ARM GAS  C:\Users\legoc\AppData\Local\Temp\cc4EoOj2.s 			page 105


 3822 00ac 01       		.byte	1
 3823 00ad 03       		.byte	3
 3824 00ae 01       		.byte	1
 3825 00af 04       		.byte	4
 3826 00b0 02       		.byte	2
 3827 00b1 00       		.byte	0
 3828 00b2 04       		.byte	4
 3829 00b3 05       		.byte	5
 3830 00b4 00       		.byte	0
 3831 00b5 01       		.byte	1
 3832 00b6 02       		.byte	2
 3833 00b7 03       		.byte	3
 3834 00b8 04       		.byte	4
 3835 00b9 18       		.byte	24
 3836 00ba 03       		.byte	3
 3837 00bb 01       		.byte	1
 3838 00bc 02       		.byte	2
 3839 00bd 03       		.byte	3
 3840 00be 02       		.byte	2
 3841 00bf 00       		.byte	0
 3842 00c0 04       		.byte	4
 3843 00c1 02       		.byte	2
 3844 00c2 00       		.byte	0
 3845 00c3 04       		.byte	4
 3846 00c4 03       		.byte	3
 3847 00c5 01       		.byte	1
 3848 00c6 02       		.byte	2
 3849 00c7 03       		.byte	3
 3850 00c8 02       		.byte	2
 3851 00c9 00       		.byte	0
 3852 00ca 04       		.byte	4
 3853 00cb 02       		.byte	2
 3854 00cc 00       		.byte	0
 3855 00cd 04       		.byte	4
 3856 00ce 03       		.byte	3
 3857 00cf 01       		.byte	1
 3858 00d0 02       		.byte	2
 3859 00d1 03       		.byte	3
 3860 00d2 16       		.byte	22
 3861 00d3 02       		.byte	2
 3862 00d4 01       		.byte	1
 3863 00d5 02       		.byte	2
 3864 00d6 01       		.byte	1
 3865 00d7 03       		.byte	3
 3866 00d8 01       		.byte	1
 3867 00d9 04       		.byte	4
 3868 00da 04       		.byte	4
 3869 00db 01       		.byte	1
 3870 00dc 02       		.byte	2
 3871 00dd 03       		.byte	3
 3872 00de 04       		.byte	4
 3873 00df 02       		.byte	2
 3874 00e0 00       		.byte	0
 3875 00e1 04       		.byte	4
 3876 00e2 02       		.byte	2
 3877 00e3 00       		.byte	0
 3878 00e4 04       		.byte	4
ARM GAS  C:\Users\legoc\AppData\Local\Temp\cc4EoOj2.s 			page 106


 3879 00e5 03       		.byte	3
 3880 00e6 01       		.byte	1
 3881 00e7 02       		.byte	2
 3882 00e8 03       		.byte	3
 3883 00e9 19       		.byte	25
 3884 00ea 02       		.byte	2
 3885 00eb 00       		.byte	0
 3886 00ec 04       		.byte	4
 3887 00ed 02       		.byte	2
 3888 00ee 00       		.byte	0
 3889 00ef 04       		.byte	4
 3890 00f0 02       		.byte	2
 3891 00f1 00       		.byte	0
 3892 00f2 04       		.byte	4
 3893 00f3 02       		.byte	2
 3894 00f4 00       		.byte	0
 3895 00f5 04       		.byte	4
 3896 00f6 05       		.byte	5
 3897 00f7 00       		.byte	0
 3898 00f8 01       		.byte	1
 3899 00f9 02       		.byte	2
 3900 00fa 03       		.byte	3
 3901 00fb 04       		.byte	4
 3902 00fc 02       		.byte	2
 3903 00fd 00       		.byte	0
 3904 00fe 04       		.byte	4
 3905 00ff 03       		.byte	3
 3906 0100 01       		.byte	1
 3907 0101 02       		.byte	2
 3908 0102 03       		.byte	3
 3909 0103 1B       		.byte	27
 3910 0104 04       		.byte	4
 3911 0105 00       		.byte	0
 3912 0106 01       		.byte	1
 3913 0107 02       		.byte	2
 3914 0108 03       		.byte	3
 3915 0109 02       		.byte	2
 3916 010a 00       		.byte	0
 3917 010b 04       		.byte	4
 3918 010c 02       		.byte	2
 3919 010d 00       		.byte	0
 3920 010e 04       		.byte	4
 3921 010f 02       		.byte	2
 3922 0110 00       		.byte	0
 3923 0111 04       		.byte	4
 3924 0112 04       		.byte	4
 3925 0113 00       		.byte	0
 3926 0114 01       		.byte	1
 3927 0115 02       		.byte	2
 3928 0116 03       		.byte	3
 3929 0117 02       		.byte	2
 3930 0118 00       		.byte	0
 3931 0119 04       		.byte	4
 3932 011a 04       		.byte	4
 3933 011b 00       		.byte	0
 3934 011c 01       		.byte	1
 3935 011d 02       		.byte	2
ARM GAS  C:\Users\legoc\AppData\Local\Temp\cc4EoOj2.s 			page 107


 3936 011e 03       		.byte	3
 3937 011f 14       		.byte	20
 3938 0120 03       		.byte	3
 3939 0121 01       		.byte	1
 3940 0122 02       		.byte	2
 3941 0123 03       		.byte	3
 3942 0124 02       		.byte	2
 3943 0125 00       		.byte	0
 3944 0126 04       		.byte	4
 3945 0127 01       		.byte	1
 3946 0128 00       		.byte	0
 3947 0129 01       		.byte	1
 3948 012a 00       		.byte	0
 3949 012b 01       		.byte	1
 3950 012c 00       		.byte	0
 3951 012d 02       		.byte	2
 3952 012e 00       		.byte	0
 3953 012f 04       		.byte	4
 3954 0130 03       		.byte	3
 3955 0131 01       		.byte	1
 3956 0132 02       		.byte	2
 3957 0133 03       		.byte	3
 3958 0134 19       		.byte	25
 3959 0135 04       		.byte	4
 3960 0136 00       		.byte	0
 3961 0137 01       		.byte	1
 3962 0138 02       		.byte	2
 3963 0139 03       		.byte	3
 3964 013a 02       		.byte	2
 3965 013b 00       		.byte	0
 3966 013c 04       		.byte	4
 3967 013d 02       		.byte	2
 3968 013e 00       		.byte	0
 3969 013f 04       		.byte	4
 3970 0140 02       		.byte	2
 3971 0141 00       		.byte	0
 3972 0142 04       		.byte	4
 3973 0143 02       		.byte	2
 3974 0144 00       		.byte	0
 3975 0145 04       		.byte	4
 3976 0146 02       		.byte	2
 3977 0147 00       		.byte	0
 3978 0148 04       		.byte	4
 3979 0149 04       		.byte	4
 3980 014a 00       		.byte	0
 3981 014b 01       		.byte	1
 3982 014c 02       		.byte	2
 3983 014d 03       		.byte	3
 3984 014e 19       		.byte	25
 3985 014f 05       		.byte	5
 3986 0150 00       		.byte	0
 3987 0151 01       		.byte	1
 3988 0152 02       		.byte	2
 3989 0153 03       		.byte	3
 3990 0154 04       		.byte	4
 3991 0155 01       		.byte	1
 3992 0156 00       		.byte	0
ARM GAS  C:\Users\legoc\AppData\Local\Temp\cc4EoOj2.s 			page 108


 3993 0157 01       		.byte	1
 3994 0158 00       		.byte	0
 3995 0159 04       		.byte	4
 3996 015a 00       		.byte	0
 3997 015b 01       		.byte	1
 3998 015c 02       		.byte	2
 3999 015d 03       		.byte	3
 4000 015e 01       		.byte	1
 4001 015f 00       		.byte	0
 4002 0160 01       		.byte	1
 4003 0161 00       		.byte	0
 4004 0162 05       		.byte	5
 4005 0163 00       		.byte	0
 4006 0164 01       		.byte	1
 4007 0165 02       		.byte	2
 4008 0166 03       		.byte	3
 4009 0167 04       		.byte	4
 4010 0168 14       		.byte	20
 4011 0169 01       		.byte	1
 4012 016a 00       		.byte	0
 4013 016b 01       		.byte	1
 4014 016c 00       		.byte	0
 4015 016d 01       		.byte	1
 4016 016e 00       		.byte	0
 4017 016f 01       		.byte	1
 4018 0170 00       		.byte	0
 4019 0171 03       		.byte	3
 4020 0172 00       		.byte	0
 4021 0173 01       		.byte	1
 4022 0174 02       		.byte	2
 4023 0175 01       		.byte	1
 4024 0176 00       		.byte	0
 4025 0177 05       		.byte	5
 4026 0178 00       		.byte	0
 4027 0179 01       		.byte	1
 4028 017a 02       		.byte	2
 4029 017b 03       		.byte	3
 4030 017c 04       		.byte	4
 4031 017d 18       		.byte	24
 4032 017e 03       		.byte	3
 4033 017f 01       		.byte	1
 4034 0180 02       		.byte	2
 4035 0181 03       		.byte	3
 4036 0182 02       		.byte	2
 4037 0183 00       		.byte	0
 4038 0184 04       		.byte	4
 4039 0185 02       		.byte	2
 4040 0186 00       		.byte	0
 4041 0187 04       		.byte	4
 4042 0188 02       		.byte	2
 4043 0189 00       		.byte	0
 4044 018a 04       		.byte	4
 4045 018b 03       		.byte	3
 4046 018c 00       		.byte	0
 4047 018d 03       		.byte	3
 4048 018e 04       		.byte	4
 4049 018f 01       		.byte	1
ARM GAS  C:\Users\legoc\AppData\Local\Temp\cc4EoOj2.s 			page 109


 4050 0190 00       		.byte	0
 4051 0191 04       		.byte	4
 4052 0192 01       		.byte	1
 4053 0193 02       		.byte	2
 4054 0194 03       		.byte	3
 4055 0195 04       		.byte	4
 4056 0196 18       		.byte	24
 4057 0197 02       		.byte	2
 4058 0198 00       		.byte	0
 4059 0199 04       		.byte	4
 4060 019a 02       		.byte	2
 4061 019b 00       		.byte	0
 4062 019c 04       		.byte	4
 4063 019d 02       		.byte	2
 4064 019e 00       		.byte	0
 4065 019f 04       		.byte	4
 4066 01a0 02       		.byte	2
 4067 01a1 00       		.byte	0
 4068 01a2 04       		.byte	4
 4069 01a3 05       		.byte	5
 4070 01a4 00       		.byte	0
 4071 01a5 01       		.byte	1
 4072 01a6 02       		.byte	2
 4073 01a7 03       		.byte	3
 4074 01a8 04       		.byte	4
 4075 01a9 02       		.byte	2
 4076 01aa 00       		.byte	0
 4077 01ab 04       		.byte	4
 4078 01ac 02       		.byte	2
 4079 01ad 00       		.byte	0
 4080 01ae 04       		.byte	4
 4081 01af 12       		.byte	18
 4082 01b0 03       		.byte	3
 4083 01b1 01       		.byte	1
 4084 01b2 02       		.byte	2
 4085 01b3 03       		.byte	3
 4086 01b4 01       		.byte	1
 4087 01b5 02       		.byte	2
 4088 01b6 01       		.byte	1
 4089 01b7 02       		.byte	2
 4090 01b8 01       		.byte	1
 4091 01b9 02       		.byte	2
 4092 01ba 01       		.byte	1
 4093 01bb 02       		.byte	2
 4094 01bc 01       		.byte	1
 4095 01bd 02       		.byte	2
 4096 01be 03       		.byte	3
 4097 01bf 01       		.byte	1
 4098 01c0 02       		.byte	2
 4099 01c1 03       		.byte	3
 4100 01c2 11       		.byte	17
 4101 01c3 03       		.byte	3
 4102 01c4 01       		.byte	1
 4103 01c5 02       		.byte	2
 4104 01c6 03       		.byte	3
 4105 01c7 02       		.byte	2
 4106 01c8 00       		.byte	0
ARM GAS  C:\Users\legoc\AppData\Local\Temp\cc4EoOj2.s 			page 110


 4107 01c9 04       		.byte	4
 4108 01ca 01       		.byte	1
 4109 01cb 04       		.byte	4
 4110 01cc 01       		.byte	1
 4111 01cd 04       		.byte	4
 4112 01ce 01       		.byte	1
 4113 01cf 04       		.byte	4
 4114 01d0 01       		.byte	1
 4115 01d1 04       		.byte	4
 4116 01d2 01       		.byte	1
 4117 01d3 04       		.byte	4
 4118 01d4 16       		.byte	22
 4119 01d5 02       		.byte	2
 4120 01d6 00       		.byte	0
 4121 01d7 04       		.byte	4
 4122 01d8 02       		.byte	2
 4123 01d9 00       		.byte	0
 4124 01da 04       		.byte	4
 4125 01db 02       		.byte	2
 4126 01dc 00       		.byte	0
 4127 01dd 04       		.byte	4
 4128 01de 02       		.byte	2
 4129 01df 00       		.byte	0
 4130 01e0 03       		.byte	3
 4131 01e1 03       		.byte	3
 4132 01e2 00       		.byte	0
 4133 01e3 01       		.byte	1
 4134 01e4 02       		.byte	2
 4135 01e5 02       		.byte	2
 4136 01e6 00       		.byte	0
 4137 01e7 03       		.byte	3
 4138 01e8 02       		.byte	2
 4139 01e9 00       		.byte	0
 4140 01ea 04       		.byte	4
 4141 01eb 12       		.byte	18
 4142 01ec 05       		.byte	5
 4143 01ed 00       		.byte	0
 4144 01ee 01       		.byte	1
 4145 01ef 02       		.byte	2
 4146 01f0 03       		.byte	3
 4147 01f1 04       		.byte	4
 4148 01f2 01       		.byte	1
 4149 01f3 00       		.byte	0
 4150 01f4 01       		.byte	1
 4151 01f5 00       		.byte	0
 4152 01f6 01       		.byte	1
 4153 01f7 00       		.byte	0
 4154 01f8 01       		.byte	1
 4155 01f9 00       		.byte	0
 4156 01fa 01       		.byte	1
 4157 01fb 00       		.byte	0
 4158 01fc 01       		.byte	1
 4159 01fd 00       		.byte	0
 4160 01fe 18       		.byte	24
 4161 01ff 02       		.byte	2
 4162 0200 00       		.byte	0
 4163 0201 04       		.byte	4
ARM GAS  C:\Users\legoc\AppData\Local\Temp\cc4EoOj2.s 			page 111


 4164 0202 02       		.byte	2
 4165 0203 00       		.byte	0
 4166 0204 04       		.byte	4
 4167 0205 02       		.byte	2
 4168 0206 00       		.byte	0
 4169 0207 04       		.byte	4
 4170 0208 02       		.byte	2
 4171 0209 00       		.byte	0
 4172 020a 04       		.byte	4
 4173 020b 03       		.byte	3
 4174 020c 00       		.byte	0
 4175 020d 02       		.byte	2
 4176 020e 04       		.byte	4
 4177 020f 04       		.byte	4
 4178 0210 00       		.byte	0
 4179 0211 01       		.byte	1
 4180 0212 03       		.byte	3
 4181 0213 04       		.byte	4
 4182 0214 02       		.byte	2
 4183 0215 00       		.byte	0
 4184 0216 04       		.byte	4
 4185 0217 18       		.byte	24
 4186 0218 02       		.byte	2
 4187 0219 00       		.byte	0
 4188 021a 04       		.byte	4
 4189 021b 02       		.byte	2
 4190 021c 00       		.byte	0
 4191 021d 04       		.byte	4
 4192 021e 02       		.byte	2
 4193 021f 00       		.byte	0
 4194 0220 04       		.byte	4
 4195 0221 03       		.byte	3
 4196 0222 00       		.byte	0
 4197 0223 03       		.byte	3
 4198 0224 04       		.byte	4
 4199 0225 03       		.byte	3
 4200 0226 00       		.byte	0
 4201 0227 02       		.byte	2
 4202 0228 04       		.byte	4
 4203 0229 03       		.byte	3
 4204 022a 00       		.byte	0
 4205 022b 01       		.byte	1
 4206 022c 04       		.byte	4
 4207 022d 02       		.byte	2
 4208 022e 00       		.byte	0
 4209 022f 04       		.byte	4
 4210 0230 17       		.byte	23
 4211 0231 03       		.byte	3
 4212 0232 01       		.byte	1
 4213 0233 02       		.byte	2
 4214 0234 03       		.byte	3
 4215 0235 02       		.byte	2
 4216 0236 00       		.byte	0
 4217 0237 04       		.byte	4
 4218 0238 02       		.byte	2
 4219 0239 00       		.byte	0
 4220 023a 04       		.byte	4
ARM GAS  C:\Users\legoc\AppData\Local\Temp\cc4EoOj2.s 			page 112


 4221 023b 02       		.byte	2
 4222 023c 00       		.byte	0
 4223 023d 04       		.byte	4
 4224 023e 02       		.byte	2
 4225 023f 00       		.byte	0
 4226 0240 04       		.byte	4
 4227 0241 02       		.byte	2
 4228 0242 00       		.byte	0
 4229 0243 04       		.byte	4
 4230 0244 03       		.byte	3
 4231 0245 01       		.byte	1
 4232 0246 02       		.byte	2
 4233 0247 03       		.byte	3
 4234 0248 15       		.byte	21
 4235 0249 01       		.byte	1
 4236 024a 00       		.byte	0
 4237 024b 01       		.byte	1
 4238 024c 00       		.byte	0
 4239 024d 01       		.byte	1
 4240 024e 00       		.byte	0
 4241 024f 01       		.byte	1
 4242 0250 00       		.byte	0
 4243 0251 04       		.byte	4
 4244 0252 00       		.byte	0
 4245 0253 01       		.byte	1
 4246 0254 02       		.byte	2
 4247 0255 03       		.byte	3
 4248 0256 02       		.byte	2
 4249 0257 00       		.byte	0
 4250 0258 04       		.byte	4
 4251 0259 04       		.byte	4
 4252 025a 00       		.byte	0
 4253 025b 01       		.byte	1
 4254 025c 02       		.byte	2
 4255 025d 03       		.byte	3
 4256 025e 17       		.byte	23
 4257 025f 03       		.byte	3
 4258 0260 01       		.byte	1
 4259 0261 02       		.byte	2
 4260 0262 04       		.byte	4
 4261 0263 02       		.byte	2
 4262 0264 00       		.byte	0
 4263 0265 03       		.byte	3
 4264 0266 02       		.byte	2
 4265 0267 00       		.byte	0
 4266 0268 04       		.byte	4
 4267 0269 02       		.byte	2
 4268 026a 00       		.byte	0
 4269 026b 04       		.byte	4
 4270 026c 02       		.byte	2
 4271 026d 00       		.byte	0
 4272 026e 04       		.byte	4
 4273 026f 02       		.byte	2
 4274 0270 00       		.byte	0
 4275 0271 04       		.byte	4
 4276 0272 03       		.byte	3
 4277 0273 01       		.byte	1
ARM GAS  C:\Users\legoc\AppData\Local\Temp\cc4EoOj2.s 			page 113


 4278 0274 02       		.byte	2
 4279 0275 03       		.byte	3
 4280 0276 19       		.byte	25
 4281 0277 02       		.byte	2
 4282 0278 00       		.byte	0
 4283 0279 04       		.byte	4
 4284 027a 02       		.byte	2
 4285 027b 00       		.byte	0
 4286 027c 04       		.byte	4
 4287 027d 02       		.byte	2
 4288 027e 00       		.byte	0
 4289 027f 04       		.byte	4
 4290 0280 02       		.byte	2
 4291 0281 00       		.byte	0
 4292 0282 04       		.byte	4
 4293 0283 04       		.byte	4
 4294 0284 00       		.byte	0
 4295 0285 01       		.byte	1
 4296 0286 02       		.byte	2
 4297 0287 03       		.byte	3
 4298 0288 02       		.byte	2
 4299 0289 00       		.byte	0
 4300 028a 04       		.byte	4
 4301 028b 04       		.byte	4
 4302 028c 00       		.byte	0
 4303 028d 01       		.byte	1
 4304 028e 02       		.byte	2
 4305 028f 03       		.byte	3
 4306 0290 16       		.byte	22
 4307 0291 03       		.byte	3
 4308 0292 01       		.byte	1
 4309 0293 02       		.byte	2
 4310 0294 03       		.byte	3
 4311 0295 02       		.byte	2
 4312 0296 00       		.byte	0
 4313 0297 04       		.byte	4
 4314 0298 01       		.byte	1
 4315 0299 04       		.byte	4
 4316 029a 01       		.byte	1
 4317 029b 04       		.byte	4
 4318 029c 03       		.byte	3
 4319 029d 01       		.byte	1
 4320 029e 02       		.byte	2
 4321 029f 03       		.byte	3
 4322 02a0 01       		.byte	1
 4323 02a1 00       		.byte	0
 4324 02a2 04       		.byte	4
 4325 02a3 01       		.byte	1
 4326 02a4 02       		.byte	2
 4327 02a5 03       		.byte	3
 4328 02a6 04       		.byte	4
 4329 02a7 12       		.byte	18
 4330 02a8 01       		.byte	1
 4331 02a9 02       		.byte	2
 4332 02aa 01       		.byte	1
 4333 02ab 02       		.byte	2
 4334 02ac 01       		.byte	1
ARM GAS  C:\Users\legoc\AppData\Local\Temp\cc4EoOj2.s 			page 114


 4335 02ad 02       		.byte	2
 4336 02ae 01       		.byte	1
 4337 02af 02       		.byte	2
 4338 02b0 01       		.byte	1
 4339 02b1 02       		.byte	2
 4340 02b2 01       		.byte	1
 4341 02b3 02       		.byte	2
 4342 02b4 05       		.byte	5
 4343 02b5 00       		.byte	0
 4344 02b6 01       		.byte	1
 4345 02b7 02       		.byte	2
 4346 02b8 03       		.byte	3
 4347 02b9 04       		.byte	4
 4348 02ba 16       		.byte	22
 4349 02bb 03       		.byte	3
 4350 02bc 01       		.byte	1
 4351 02bd 02       		.byte	2
 4352 02be 03       		.byte	3
 4353 02bf 02       		.byte	2
 4354 02c0 00       		.byte	0
 4355 02c1 04       		.byte	4
 4356 02c2 02       		.byte	2
 4357 02c3 00       		.byte	0
 4358 02c4 04       		.byte	4
 4359 02c5 02       		.byte	2
 4360 02c6 00       		.byte	0
 4361 02c7 04       		.byte	4
 4362 02c8 02       		.byte	2
 4363 02c9 00       		.byte	0
 4364 02ca 04       		.byte	4
 4365 02cb 02       		.byte	2
 4366 02cc 00       		.byte	0
 4367 02cd 04       		.byte	4
 4368 02ce 02       		.byte	2
 4369 02cf 00       		.byte	0
 4370 02d0 04       		.byte	4
 4371 02d1 14       		.byte	20
 4372 02d2 01       		.byte	1
 4373 02d3 02       		.byte	2
 4374 02d4 02       		.byte	2
 4375 02d5 01       		.byte	1
 4376 02d6 03       		.byte	3
 4377 02d7 02       		.byte	2
 4378 02d8 01       		.byte	1
 4379 02d9 03       		.byte	3
 4380 02da 02       		.byte	2
 4381 02db 00       		.byte	0
 4382 02dc 04       		.byte	4
 4383 02dd 02       		.byte	2
 4384 02de 00       		.byte	0
 4385 02df 04       		.byte	4
 4386 02e0 02       		.byte	2
 4387 02e1 00       		.byte	0
 4388 02e2 04       		.byte	4
 4389 02e3 02       		.byte	2
 4390 02e4 00       		.byte	0
 4391 02e5 04       		.byte	4
ARM GAS  C:\Users\legoc\AppData\Local\Temp\cc4EoOj2.s 			page 115


 4392 02e6 18       		.byte	24
 4393 02e7 02       		.byte	2
 4394 02e8 00       		.byte	0
 4395 02e9 04       		.byte	4
 4396 02ea 04       		.byte	4
 4397 02eb 00       		.byte	0
 4398 02ec 01       		.byte	1
 4399 02ed 03       		.byte	3
 4400 02ee 04       		.byte	4
 4401 02ef 03       		.byte	3
 4402 02f0 00       		.byte	0
 4403 02f1 02       		.byte	2
 4404 02f2 04       		.byte	4
 4405 02f3 02       		.byte	2
 4406 02f4 00       		.byte	0
 4407 02f5 04       		.byte	4
 4408 02f6 02       		.byte	2
 4409 02f7 00       		.byte	0
 4410 02f8 04       		.byte	4
 4411 02f9 02       		.byte	2
 4412 02fa 00       		.byte	0
 4413 02fb 04       		.byte	4
 4414 02fc 02       		.byte	2
 4415 02fd 00       		.byte	0
 4416 02fe 04       		.byte	4
 4417 02ff 14       		.byte	20
 4418 0300 02       		.byte	2
 4419 0301 00       		.byte	0
 4420 0302 04       		.byte	4
 4421 0303 02       		.byte	2
 4422 0304 00       		.byte	0
 4423 0305 04       		.byte	4
 4424 0306 02       		.byte	2
 4425 0307 00       		.byte	0
 4426 0308 04       		.byte	4
 4427 0309 02       		.byte	2
 4428 030a 01       		.byte	1
 4429 030b 03       		.byte	3
 4430 030c 01       		.byte	1
 4431 030d 02       		.byte	2
 4432 030e 02       		.byte	2
 4433 030f 01       		.byte	1
 4434 0310 03       		.byte	3
 4435 0311 02       		.byte	2
 4436 0312 00       		.byte	0
 4437 0313 04       		.byte	4
 4438 0314 10       		.byte	16
 4439 0315 01       		.byte	1
 4440 0316 02       		.byte	2
 4441 0317 01       		.byte	1
 4442 0318 02       		.byte	2
 4443 0319 01       		.byte	1
 4444 031a 02       		.byte	2
 4445 031b 01       		.byte	1
 4446 031c 02       		.byte	2
 4447 031d 01       		.byte	1
 4448 031e 02       		.byte	2
ARM GAS  C:\Users\legoc\AppData\Local\Temp\cc4EoOj2.s 			page 116


 4449 031f 02       		.byte	2
 4450 0320 01       		.byte	1
 4451 0321 03       		.byte	3
 4452 0322 02       		.byte	2
 4453 0323 00       		.byte	0
 4454 0324 04       		.byte	4
 4455 0325 16       		.byte	22
 4456 0326 05       		.byte	5
 4457 0327 00       		.byte	0
 4458 0328 01       		.byte	1
 4459 0329 02       		.byte	2
 4460 032a 03       		.byte	3
 4461 032b 04       		.byte	4
 4462 032c 01       		.byte	1
 4463 032d 00       		.byte	0
 4464 032e 01       		.byte	1
 4465 032f 01       		.byte	1
 4466 0330 01       		.byte	1
 4467 0331 02       		.byte	2
 4468 0332 01       		.byte	1
 4469 0333 03       		.byte	3
 4470 0334 01       		.byte	1
 4471 0335 04       		.byte	4
 4472 0336 05       		.byte	5
 4473 0337 00       		.byte	0
 4474 0338 01       		.byte	1
 4475 0339 02       		.byte	2
 4476 033a 03       		.byte	3
 4477 033b 04       		.byte	4
 4478 033c 08       		.byte	8
 4479 033d 01       		.byte	1
 4480 033e 02       		.byte	2
 4481 033f 00       		.byte	0
 4482 0340 00       		.byte	0
 4483 0341 00       		.byte	0
 4484 0342 00       		.byte	0
 4485 0343 00       		.byte	0
 4486 0344 00       		.byte	0
 4487 0345 07       		.byte	7
 4488 0346 00       		.byte	0
 4489 0347 00       		.byte	0
 4490 0348 00       		.byte	0
 4491 0349 00       		.byte	0
 4492 034a 00       		.byte	0
 4493 034b 00       		.byte	0
 4494 034c 00       		.byte	0
 4495              		.text
 4496              	.Letext0:
 4497              		.file 2 "d:\\psoc\\psoc creator\\4.2\\psoc creator\\import\\gnu\\arm\\5.4.1\\arm-none-eabi\\includ
 4498              		.file 3 "d:\\psoc\\psoc creator\\4.2\\psoc creator\\import\\gnu\\arm\\5.4.1\\arm-none-eabi\\includ
 4499              		.file 4 "font.h"
 4500              		.section	.debug_info,"",%progbits
 4501              	.Ldebug_info0:
 4502 0000 171F0000 		.4byte	0x1f17
 4503 0004 0400     		.2byte	0x4
 4504 0006 00000000 		.4byte	.Ldebug_abbrev0
 4505 000a 04       		.byte	0x4
ARM GAS  C:\Users\legoc\AppData\Local\Temp\cc4EoOj2.s 			page 117


 4506 000b 01       		.uleb128 0x1
 4507 000c 82000000 		.4byte	.LASF56
 4508 0010 0C       		.byte	0xc
 4509 0011 B5020000 		.4byte	.LASF57
 4510 0015 61010000 		.4byte	.LASF58
 4511 0019 30000000 		.4byte	.Ldebug_ranges0+0x30
 4512 001d 00000000 		.4byte	0
 4513 0021 00000000 		.4byte	.Ldebug_line0
 4514 0025 02       		.uleb128 0x2
 4515 0026 01       		.byte	0x1
 4516 0027 06       		.byte	0x6
 4517 0028 2A010000 		.4byte	.LASF0
 4518 002c 03       		.uleb128 0x3
 4519 002d 6C000000 		.4byte	.LASF2
 4520 0031 02       		.byte	0x2
 4521 0032 1D       		.byte	0x1d
 4522 0033 37000000 		.4byte	0x37
 4523 0037 02       		.uleb128 0x2
 4524 0038 01       		.byte	0x1
 4525 0039 08       		.byte	0x8
 4526 003a 1C010000 		.4byte	.LASF1
 4527 003e 03       		.uleb128 0x3
 4528 003f 00000000 		.4byte	.LASF3
 4529 0043 02       		.byte	0x2
 4530 0044 29       		.byte	0x29
 4531 0045 49000000 		.4byte	0x49
 4532 0049 02       		.uleb128 0x2
 4533 004a 02       		.byte	0x2
 4534 004b 05       		.byte	0x5
 4535 004c 16000000 		.4byte	.LASF4
 4536 0050 03       		.uleb128 0x3
 4537 0051 26000000 		.4byte	.LASF5
 4538 0055 02       		.byte	0x2
 4539 0056 2B       		.byte	0x2b
 4540 0057 5B000000 		.4byte	0x5b
 4541 005b 02       		.uleb128 0x2
 4542 005c 02       		.byte	0x2
 4543 005d 07       		.byte	0x7
 4544 005e F1010000 		.4byte	.LASF6
 4545 0062 02       		.uleb128 0x2
 4546 0063 04       		.byte	0x4
 4547 0064 05       		.byte	0x5
 4548 0065 5C000000 		.4byte	.LASF7
 4549 0069 02       		.uleb128 0x2
 4550 006a 04       		.byte	0x4
 4551 006b 07       		.byte	0x7
 4552 006c DF010000 		.4byte	.LASF8
 4553 0070 02       		.uleb128 0x2
 4554 0071 08       		.byte	0x8
 4555 0072 05       		.byte	0x5
 4556 0073 4E000000 		.4byte	.LASF9
 4557 0077 02       		.uleb128 0x2
 4558 0078 08       		.byte	0x8
 4559 0079 07       		.byte	0x7
 4560 007a 36010000 		.4byte	.LASF10
 4561 007e 04       		.uleb128 0x4
 4562 007f 04       		.byte	0x4
ARM GAS  C:\Users\legoc\AppData\Local\Temp\cc4EoOj2.s 			page 118


 4563 0080 05       		.byte	0x5
 4564 0081 696E7400 		.ascii	"int\000"
 4565 0085 02       		.uleb128 0x2
 4566 0086 04       		.byte	0x4
 4567 0087 07       		.byte	0x7
 4568 0088 54010000 		.4byte	.LASF11
 4569 008c 03       		.uleb128 0x3
 4570 008d C8020000 		.4byte	.LASF12
 4571 0091 03       		.byte	0x3
 4572 0092 18       		.byte	0x18
 4573 0093 2C000000 		.4byte	0x2c
 4574 0097 03       		.uleb128 0x3
 4575 0098 12020000 		.4byte	.LASF13
 4576 009c 03       		.byte	0x3
 4577 009d 20       		.byte	0x20
 4578 009e 3E000000 		.4byte	0x3e
 4579 00a2 03       		.uleb128 0x3
 4580 00a3 09020000 		.4byte	.LASF14
 4581 00a7 03       		.byte	0x3
 4582 00a8 24       		.byte	0x24
 4583 00a9 50000000 		.4byte	0x50
 4584 00ad 02       		.uleb128 0x2
 4585 00ae 04       		.byte	0x4
 4586 00af 04       		.byte	0x4
 4587 00b0 48000000 		.4byte	.LASF15
 4588 00b4 02       		.uleb128 0x2
 4589 00b5 08       		.byte	0x8
 4590 00b6 04       		.byte	0x4
 4591 00b7 0A000000 		.4byte	.LASF16
 4592 00bb 02       		.uleb128 0x2
 4593 00bc 01       		.byte	0x1
 4594 00bd 08       		.byte	0x8
 4595 00be 04020000 		.4byte	.LASF17
 4596 00c2 02       		.uleb128 0x2
 4597 00c3 08       		.byte	0x8
 4598 00c4 04       		.byte	0x4
 4599 00c5 10010000 		.4byte	.LASF18
 4600 00c9 02       		.uleb128 0x2
 4601 00ca 04       		.byte	0x4
 4602 00cb 07       		.byte	0x7
 4603 00cc D0020000 		.4byte	.LASF19
 4604 00d0 05       		.uleb128 0x5
 4605 00d1 04       		.byte	0x4
 4606 00d2 BB000000 		.4byte	0xbb
 4607 00d6 06       		.uleb128 0x6
 4608 00d7 6B020000 		.4byte	.LASF59
 4609 00db 01       		.byte	0x1
 4610 00dc 7A04     		.2byte	0x47a
 4611 00de 01       		.byte	0x1
 4612 00df 60010000 		.4byte	0x160
 4613 00e3 07       		.uleb128 0x7
 4614 00e4 7800     		.ascii	"x\000"
 4615 00e6 01       		.byte	0x1
 4616 00e7 7A04     		.2byte	0x47a
 4617 00e9 97000000 		.4byte	0x97
 4618 00ed 07       		.uleb128 0x7
 4619 00ee 7900     		.ascii	"y\000"
ARM GAS  C:\Users\legoc\AppData\Local\Temp\cc4EoOj2.s 			page 119


 4620 00f0 01       		.byte	0x1
 4621 00f1 7A04     		.2byte	0x47a
 4622 00f3 97000000 		.4byte	0x97
 4623 00f7 08       		.uleb128 0x8
 4624 00f8 20000000 		.4byte	.LASF20
 4625 00fc 01       		.byte	0x1
 4626 00fd 7A04     		.2byte	0x47a
 4627 00ff A2000000 		.4byte	0xa2
 4628 0103 08       		.uleb128 0x8
 4629 0104 AB020000 		.4byte	.LASF21
 4630 0108 01       		.byte	0x1
 4631 0109 7A04     		.2byte	0x47a
 4632 010b A2000000 		.4byte	0xa2
 4633 010f 09       		.uleb128 0x9
 4634 0110 42000000 		.4byte	.LASF22
 4635 0114 01       		.byte	0x1
 4636 0115 7C04     		.2byte	0x47c
 4637 0117 A2000000 		.4byte	0xa2
 4638 011b 09       		.uleb128 0x9
 4639 011c 4D010000 		.4byte	.LASF23
 4640 0120 01       		.byte	0x1
 4641 0121 8604     		.2byte	0x486
 4642 0123 8C000000 		.4byte	0x8c
 4643 0127 0A       		.uleb128 0xa
 4644 0128 37010000 		.4byte	0x137
 4645 012c 0B       		.uleb128 0xb
 4646 012d 6900     		.ascii	"i\000"
 4647 012f 01       		.byte	0x1
 4648 0130 7E04     		.2byte	0x47e
 4649 0132 7E000000 		.4byte	0x7e
 4650 0136 00       		.byte	0
 4651 0137 0C       		.uleb128 0xc
 4652 0138 0B       		.uleb128 0xb
 4653 0139 6900     		.ascii	"i\000"
 4654 013b 01       		.byte	0x1
 4655 013c 8804     		.2byte	0x488
 4656 013e 7E000000 		.4byte	0x7e
 4657 0142 0C       		.uleb128 0xc
 4658 0143 0B       		.uleb128 0xb
 4659 0144 6A00     		.ascii	"j\000"
 4660 0146 01       		.byte	0x1
 4661 0147 8A04     		.2byte	0x48a
 4662 0149 7E000000 		.4byte	0x7e
 4663 014d 0C       		.uleb128 0xc
 4664 014e 0D       		.uleb128 0xd
 4665 014f 60020000 		.4byte	.LASF60
 4666 0153 01       		.byte	0x1
 4667 0154 8C04     		.2byte	0x48c
 4668 0156 7E000000 		.4byte	0x7e
 4669 015a 0E       		.uleb128 0xe
 4670 015b 00       		.byte	0
 4671 015c 00       		.byte	0
 4672 015d 00       		.byte	0
 4673 015e 00       		.byte	0
 4674 015f 00       		.byte	0
 4675 0160 0F       		.uleb128 0xf
 4676 0161 D6000000 		.4byte	0xd6
ARM GAS  C:\Users\legoc\AppData\Local\Temp\cc4EoOj2.s 			page 120


 4677 0165 00000000 		.4byte	.LFB1
 4678 0169 94000000 		.4byte	.LFE1-.LFB1
 4679 016d 01       		.uleb128 0x1
 4680 016e 9C       		.byte	0x9c
 4681 016f 10020000 		.4byte	0x210
 4682 0173 10       		.uleb128 0x10
 4683 0174 E3000000 		.4byte	0xe3
 4684 0178 00000000 		.4byte	.LLST0
 4685 017c 10       		.uleb128 0x10
 4686 017d ED000000 		.4byte	0xed
 4687 0181 37000000 		.4byte	.LLST1
 4688 0185 10       		.uleb128 0x10
 4689 0186 F7000000 		.4byte	0xf7
 4690 018a 78000000 		.4byte	.LLST2
 4691 018e 10       		.uleb128 0x10
 4692 018f 03010000 		.4byte	0x103
 4693 0193 A4000000 		.4byte	.LLST3
 4694 0197 11       		.uleb128 0x11
 4695 0198 0F010000 		.4byte	0x10f
 4696 019c D0000000 		.4byte	.LLST4
 4697 01a0 11       		.uleb128 0x11
 4698 01a1 1B010000 		.4byte	0x11b
 4699 01a5 1C010000 		.4byte	.LLST5
 4700 01a9 12       		.uleb128 0x12
 4701 01aa 00000000 		.4byte	.Ldebug_ranges0+0
 4702 01ae BC010000 		.4byte	0x1bc
 4703 01b2 11       		.uleb128 0x11
 4704 01b3 2C010000 		.4byte	0x12c
 4705 01b7 30010000 		.4byte	.LLST6
 4706 01bb 00       		.byte	0
 4707 01bc 13       		.uleb128 0x13
 4708 01bd 44000000 		.4byte	.LBB7
 4709 01c1 3C000000 		.4byte	.LBE7-.LBB7
 4710 01c5 11       		.uleb128 0x11
 4711 01c6 38010000 		.4byte	0x138
 4712 01ca 73010000 		.4byte	.LLST7
 4713 01ce 13       		.uleb128 0x13
 4714 01cf 44000000 		.4byte	.LBB8
 4715 01d3 24000000 		.4byte	.LBE8-.LBB8
 4716 01d7 11       		.uleb128 0x11
 4717 01d8 43010000 		.4byte	0x143
 4718 01dc 87010000 		.4byte	.LLST8
 4719 01e0 13       		.uleb128 0x13
 4720 01e1 54000000 		.4byte	.LBB9
 4721 01e5 0E000000 		.4byte	.LBE9-.LBB9
 4722 01e9 14       		.uleb128 0x14
 4723 01ea 4E010000 		.4byte	0x14e
 4724 01ee 00       		.byte	0
 4725 01ef F6010000 		.4byte	0x1f6
 4726 01f3 0E       		.uleb128 0xe
 4727 01f4 0E       		.uleb128 0xe
 4728 01f5 00       		.byte	0
 4729 01f6 15       		.uleb128 0x15
 4730 01f7 62000000 		.4byte	.LVL14
 4731 01fb 0E1F0000 		.4byte	0x1f0e
 4732 01ff 16       		.uleb128 0x16
 4733 0200 01       		.uleb128 0x1
ARM GAS  C:\Users\legoc\AppData\Local\Temp\cc4EoOj2.s 			page 121


 4734 0201 51       		.byte	0x51
 4735 0202 02       		.uleb128 0x2
 4736 0203 74       		.byte	0x74
 4737 0204 00       		.sleb128 0
 4738 0205 16       		.uleb128 0x16
 4739 0206 01       		.uleb128 0x1
 4740 0207 52       		.byte	0x52
 4741 0208 02       		.uleb128 0x2
 4742 0209 77       		.byte	0x77
 4743 020a 00       		.sleb128 0
 4744 020b 00       		.byte	0
 4745 020c 00       		.byte	0
 4746 020d 00       		.byte	0
 4747 020e 00       		.byte	0
 4748 020f 00       		.byte	0
 4749 0210 17       		.uleb128 0x17
 4750 0211 76000000 		.4byte	.LASF61
 4751 0215 01       		.byte	0x1
 4752 0216 9304     		.2byte	0x493
 4753 0218 00000000 		.4byte	.LFB2
 4754 021c 32100000 		.4byte	.LFE2-.LFB2
 4755 0220 01       		.uleb128 0x1
 4756 0221 9C       		.byte	0x9c
 4757 0222 CC190000 		.4byte	0x19cc
 4758 0226 18       		.uleb128 0x18
 4759 0227 7800     		.ascii	"x\000"
 4760 0229 01       		.byte	0x1
 4761 022a 9304     		.2byte	0x493
 4762 022c 97000000 		.4byte	0x97
 4763 0230 9B010000 		.4byte	.LLST9
 4764 0234 18       		.uleb128 0x18
 4765 0235 7900     		.ascii	"y\000"
 4766 0237 01       		.byte	0x1
 4767 0238 9304     		.2byte	0x493
 4768 023a 97000000 		.4byte	0x97
 4769 023e BC010000 		.4byte	.LLST10
 4770 0242 19       		.uleb128 0x19
 4771 0243 20000000 		.4byte	.LASF20
 4772 0247 01       		.byte	0x1
 4773 0248 9304     		.2byte	0x493
 4774 024a A2000000 		.4byte	0xa2
 4775 024e DB010000 		.4byte	.LLST11
 4776 0252 19       		.uleb128 0x19
 4777 0253 65000000 		.4byte	.LASF24
 4778 0257 01       		.byte	0x1
 4779 0258 9304     		.2byte	0x493
 4780 025a D0000000 		.4byte	0xd0
 4781 025e FC010000 		.4byte	.LLST12
 4782 0262 1A       		.uleb128 0x1a
 4783 0263 3B000000 		.4byte	.LASF25
 4784 0267 01       		.byte	0x1
 4785 0268 9504     		.2byte	0x495
 4786 026a 97000000 		.4byte	0x97
 4787 026e 34020000 		.4byte	.LLST13
 4788 0272 1B       		.uleb128 0x1b
 4789 0273 18000000 		.4byte	.Ldebug_ranges0+0x18
 4790 0277 1C       		.uleb128 0x1c
ARM GAS  C:\Users\legoc\AppData\Local\Temp\cc4EoOj2.s 			page 122


 4791 0278 6700     		.ascii	"g\000"
 4792 027a 01       		.byte	0x1
 4793 027b 9904     		.2byte	0x499
 4794 027d BB000000 		.4byte	0xbb
 4795 0281 DE050000 		.4byte	.LLST14
 4796 0285 1D       		.uleb128 0x1d
 4797 0286 D6000000 		.4byte	0xd6
 4798 028a D2000000 		.4byte	.LBB241
 4799 028e 64000000 		.4byte	.LBE241-.LBB241
 4800 0292 01       		.byte	0x1
 4801 0293 0705     		.2byte	0x507
 4802 0295 2B030000 		.4byte	0x32b
 4803 0299 1E       		.uleb128 0x1e
 4804 029a 03010000 		.4byte	0x103
 4805 029e 1E       		.uleb128 0x1e
 4806 029f F7000000 		.4byte	0xf7
 4807 02a3 10       		.uleb128 0x10
 4808 02a4 ED000000 		.4byte	0xed
 4809 02a8 F1050000 		.4byte	.LLST15
 4810 02ac 10       		.uleb128 0x10
 4811 02ad E3000000 		.4byte	0xe3
 4812 02b1 0F060000 		.4byte	.LLST16
 4813 02b5 13       		.uleb128 0x13
 4814 02b6 D2000000 		.4byte	.LBB242
 4815 02ba 64000000 		.4byte	.LBE242-.LBB242
 4816 02be 11       		.uleb128 0x11
 4817 02bf 0F010000 		.4byte	0x10f
 4818 02c3 22060000 		.4byte	.LLST17
 4819 02c7 11       		.uleb128 0x11
 4820 02c8 1B010000 		.4byte	0x11b
 4821 02cc 63060000 		.4byte	.LLST18
 4822 02d0 1F       		.uleb128 0x1f
 4823 02d1 D2000000 		.4byte	.LBB243
 4824 02d5 0A000000 		.4byte	.LBE243-.LBB243
 4825 02d9 E3020000 		.4byte	0x2e3
 4826 02dd 20       		.uleb128 0x20
 4827 02de 2C010000 		.4byte	0x12c
 4828 02e2 00       		.byte	0
 4829 02e3 13       		.uleb128 0x13
 4830 02e4 FA000000 		.4byte	.LBB244
 4831 02e8 3C000000 		.4byte	.LBE244-.LBB244
 4832 02ec 11       		.uleb128 0x11
 4833 02ed 38010000 		.4byte	0x138
 4834 02f1 77060000 		.4byte	.LLST19
 4835 02f5 13       		.uleb128 0x13
 4836 02f6 FA000000 		.4byte	.LBB245
 4837 02fa 28000000 		.4byte	.LBE245-.LBB245
 4838 02fe 11       		.uleb128 0x11
 4839 02ff 43010000 		.4byte	0x143
 4840 0303 8B060000 		.4byte	.LLST20
 4841 0307 13       		.uleb128 0x13
 4842 0308 0E010000 		.4byte	.LBB246
 4843 030c 0E000000 		.4byte	.LBE246-.LBB246
 4844 0310 15       		.uleb128 0x15
 4845 0311 1C010000 		.4byte	.LVL42
 4846 0315 0E1F0000 		.4byte	0x1f0e
 4847 0319 16       		.uleb128 0x16
ARM GAS  C:\Users\legoc\AppData\Local\Temp\cc4EoOj2.s 			page 123


 4848 031a 01       		.uleb128 0x1
 4849 031b 51       		.byte	0x51
 4850 031c 02       		.uleb128 0x2
 4851 031d 75       		.byte	0x75
 4852 031e 00       		.sleb128 0
 4853 031f 16       		.uleb128 0x16
 4854 0320 01       		.uleb128 0x1
 4855 0321 52       		.byte	0x52
 4856 0322 02       		.uleb128 0x2
 4857 0323 74       		.byte	0x74
 4858 0324 00       		.sleb128 0
 4859 0325 00       		.byte	0
 4860 0326 00       		.byte	0
 4861 0327 00       		.byte	0
 4862 0328 00       		.byte	0
 4863 0329 00       		.byte	0
 4864 032a 00       		.byte	0
 4865 032b 1D       		.uleb128 0x1d
 4866 032c D6000000 		.4byte	0xd6
 4867 0330 42010000 		.4byte	.LBB247
 4868 0334 64000000 		.4byte	.LBE247-.LBB247
 4869 0338 01       		.byte	0x1
 4870 0339 0405     		.2byte	0x504
 4871 033b D1030000 		.4byte	0x3d1
 4872 033f 1E       		.uleb128 0x1e
 4873 0340 03010000 		.4byte	0x103
 4874 0344 1E       		.uleb128 0x1e
 4875 0345 F7000000 		.4byte	0xf7
 4876 0349 10       		.uleb128 0x10
 4877 034a ED000000 		.4byte	0xed
 4878 034e 9F060000 		.4byte	.LLST21
 4879 0352 10       		.uleb128 0x10
 4880 0353 E3000000 		.4byte	0xe3
 4881 0357 BD060000 		.4byte	.LLST22
 4882 035b 13       		.uleb128 0x13
 4883 035c 42010000 		.4byte	.LBB248
 4884 0360 64000000 		.4byte	.LBE248-.LBB248
 4885 0364 11       		.uleb128 0x11
 4886 0365 0F010000 		.4byte	0x10f
 4887 0369 D0060000 		.4byte	.LLST23
 4888 036d 11       		.uleb128 0x11
 4889 036e 1B010000 		.4byte	0x11b
 4890 0372 11070000 		.4byte	.LLST24
 4891 0376 1F       		.uleb128 0x1f
 4892 0377 42010000 		.4byte	.LBB249
 4893 037b 0A000000 		.4byte	.LBE249-.LBB249
 4894 037f 89030000 		.4byte	0x389
 4895 0383 20       		.uleb128 0x20
 4896 0384 2C010000 		.4byte	0x12c
 4897 0388 00       		.byte	0
 4898 0389 13       		.uleb128 0x13
 4899 038a 6A010000 		.4byte	.LBB250
 4900 038e 3C000000 		.4byte	.LBE250-.LBB250
 4901 0392 11       		.uleb128 0x11
 4902 0393 38010000 		.4byte	0x138
 4903 0397 25070000 		.4byte	.LLST25
 4904 039b 13       		.uleb128 0x13
ARM GAS  C:\Users\legoc\AppData\Local\Temp\cc4EoOj2.s 			page 124


 4905 039c 6A010000 		.4byte	.LBB251
 4906 03a0 28000000 		.4byte	.LBE251-.LBB251
 4907 03a4 11       		.uleb128 0x11
 4908 03a5 43010000 		.4byte	0x143
 4909 03a9 39070000 		.4byte	.LLST26
 4910 03ad 13       		.uleb128 0x13
 4911 03ae 7E010000 		.4byte	.LBB252
 4912 03b2 0E000000 		.4byte	.LBE252-.LBB252
 4913 03b6 15       		.uleb128 0x15
 4914 03b7 8C010000 		.4byte	.LVL57
 4915 03bb 0E1F0000 		.4byte	0x1f0e
 4916 03bf 16       		.uleb128 0x16
 4917 03c0 01       		.uleb128 0x1
 4918 03c1 51       		.byte	0x51
 4919 03c2 02       		.uleb128 0x2
 4920 03c3 75       		.byte	0x75
 4921 03c4 00       		.sleb128 0
 4922 03c5 16       		.uleb128 0x16
 4923 03c6 01       		.uleb128 0x1
 4924 03c7 52       		.byte	0x52
 4925 03c8 02       		.uleb128 0x2
 4926 03c9 74       		.byte	0x74
 4927 03ca 00       		.sleb128 0
 4928 03cb 00       		.byte	0
 4929 03cc 00       		.byte	0
 4930 03cd 00       		.byte	0
 4931 03ce 00       		.byte	0
 4932 03cf 00       		.byte	0
 4933 03d0 00       		.byte	0
 4934 03d1 1D       		.uleb128 0x1d
 4935 03d2 D6000000 		.4byte	0xd6
 4936 03d6 B2010000 		.4byte	.LBB253
 4937 03da 64000000 		.4byte	.LBE253-.LBB253
 4938 03de 01       		.byte	0x1
 4939 03df 0105     		.2byte	0x501
 4940 03e1 77040000 		.4byte	0x477
 4941 03e5 1E       		.uleb128 0x1e
 4942 03e6 03010000 		.4byte	0x103
 4943 03ea 1E       		.uleb128 0x1e
 4944 03eb F7000000 		.4byte	0xf7
 4945 03ef 10       		.uleb128 0x10
 4946 03f0 ED000000 		.4byte	0xed
 4947 03f4 4D070000 		.4byte	.LLST27
 4948 03f8 10       		.uleb128 0x10
 4949 03f9 E3000000 		.4byte	0xe3
 4950 03fd 6B070000 		.4byte	.LLST28
 4951 0401 13       		.uleb128 0x13
 4952 0402 B2010000 		.4byte	.LBB254
 4953 0406 64000000 		.4byte	.LBE254-.LBB254
 4954 040a 11       		.uleb128 0x11
 4955 040b 0F010000 		.4byte	0x10f
 4956 040f 7E070000 		.4byte	.LLST29
 4957 0413 11       		.uleb128 0x11
 4958 0414 1B010000 		.4byte	0x11b
 4959 0418 BF070000 		.4byte	.LLST30
 4960 041c 1F       		.uleb128 0x1f
 4961 041d B2010000 		.4byte	.LBB255
ARM GAS  C:\Users\legoc\AppData\Local\Temp\cc4EoOj2.s 			page 125


 4962 0421 0A000000 		.4byte	.LBE255-.LBB255
 4963 0425 2F040000 		.4byte	0x42f
 4964 0429 20       		.uleb128 0x20
 4965 042a 2C010000 		.4byte	0x12c
 4966 042e 00       		.byte	0
 4967 042f 13       		.uleb128 0x13
 4968 0430 DA010000 		.4byte	.LBB256
 4969 0434 3C000000 		.4byte	.LBE256-.LBB256
 4970 0438 11       		.uleb128 0x11
 4971 0439 38010000 		.4byte	0x138
 4972 043d D3070000 		.4byte	.LLST31
 4973 0441 13       		.uleb128 0x13
 4974 0442 DA010000 		.4byte	.LBB257
 4975 0446 28000000 		.4byte	.LBE257-.LBB257
 4976 044a 11       		.uleb128 0x11
 4977 044b 43010000 		.4byte	0x143
 4978 044f E7070000 		.4byte	.LLST32
 4979 0453 13       		.uleb128 0x13
 4980 0454 EE010000 		.4byte	.LBB258
 4981 0458 0E000000 		.4byte	.LBE258-.LBB258
 4982 045c 15       		.uleb128 0x15
 4983 045d FC010000 		.4byte	.LVL72
 4984 0461 0E1F0000 		.4byte	0x1f0e
 4985 0465 16       		.uleb128 0x16
 4986 0466 01       		.uleb128 0x1
 4987 0467 51       		.byte	0x51
 4988 0468 02       		.uleb128 0x2
 4989 0469 75       		.byte	0x75
 4990 046a 00       		.sleb128 0
 4991 046b 16       		.uleb128 0x16
 4992 046c 01       		.uleb128 0x1
 4993 046d 52       		.byte	0x52
 4994 046e 02       		.uleb128 0x2
 4995 046f 74       		.byte	0x74
 4996 0470 00       		.sleb128 0
 4997 0471 00       		.byte	0
 4998 0472 00       		.byte	0
 4999 0473 00       		.byte	0
 5000 0474 00       		.byte	0
 5001 0475 00       		.byte	0
 5002 0476 00       		.byte	0
 5003 0477 1D       		.uleb128 0x1d
 5004 0478 D6000000 		.4byte	0xd6
 5005 047c 22020000 		.4byte	.LBB259
 5006 0480 64000000 		.4byte	.LBE259-.LBB259
 5007 0484 01       		.byte	0x1
 5008 0485 FE04     		.2byte	0x4fe
 5009 0487 1D050000 		.4byte	0x51d
 5010 048b 1E       		.uleb128 0x1e
 5011 048c 03010000 		.4byte	0x103
 5012 0490 1E       		.uleb128 0x1e
 5013 0491 F7000000 		.4byte	0xf7
 5014 0495 10       		.uleb128 0x10
 5015 0496 ED000000 		.4byte	0xed
 5016 049a FB070000 		.4byte	.LLST33
 5017 049e 10       		.uleb128 0x10
 5018 049f E3000000 		.4byte	0xe3
ARM GAS  C:\Users\legoc\AppData\Local\Temp\cc4EoOj2.s 			page 126


 5019 04a3 19080000 		.4byte	.LLST34
 5020 04a7 13       		.uleb128 0x13
 5021 04a8 22020000 		.4byte	.LBB260
 5022 04ac 64000000 		.4byte	.LBE260-.LBB260
 5023 04b0 11       		.uleb128 0x11
 5024 04b1 0F010000 		.4byte	0x10f
 5025 04b5 2C080000 		.4byte	.LLST35
 5026 04b9 11       		.uleb128 0x11
 5027 04ba 1B010000 		.4byte	0x11b
 5028 04be 6D080000 		.4byte	.LLST36
 5029 04c2 1F       		.uleb128 0x1f
 5030 04c3 22020000 		.4byte	.LBB261
 5031 04c7 0A000000 		.4byte	.LBE261-.LBB261
 5032 04cb D5040000 		.4byte	0x4d5
 5033 04cf 20       		.uleb128 0x20
 5034 04d0 2C010000 		.4byte	0x12c
 5035 04d4 00       		.byte	0
 5036 04d5 13       		.uleb128 0x13
 5037 04d6 4A020000 		.4byte	.LBB262
 5038 04da 3C000000 		.4byte	.LBE262-.LBB262
 5039 04de 11       		.uleb128 0x11
 5040 04df 38010000 		.4byte	0x138
 5041 04e3 81080000 		.4byte	.LLST37
 5042 04e7 13       		.uleb128 0x13
 5043 04e8 4A020000 		.4byte	.LBB263
 5044 04ec 28000000 		.4byte	.LBE263-.LBB263
 5045 04f0 11       		.uleb128 0x11
 5046 04f1 43010000 		.4byte	0x143
 5047 04f5 95080000 		.4byte	.LLST38
 5048 04f9 13       		.uleb128 0x13
 5049 04fa 5E020000 		.4byte	.LBB264
 5050 04fe 0E000000 		.4byte	.LBE264-.LBB264
 5051 0502 15       		.uleb128 0x15
 5052 0503 6C020000 		.4byte	.LVL87
 5053 0507 0E1F0000 		.4byte	0x1f0e
 5054 050b 16       		.uleb128 0x16
 5055 050c 01       		.uleb128 0x1
 5056 050d 51       		.byte	0x51
 5057 050e 02       		.uleb128 0x2
 5058 050f 75       		.byte	0x75
 5059 0510 00       		.sleb128 0
 5060 0511 16       		.uleb128 0x16
 5061 0512 01       		.uleb128 0x1
 5062 0513 52       		.byte	0x52
 5063 0514 02       		.uleb128 0x2
 5064 0515 74       		.byte	0x74
 5065 0516 00       		.sleb128 0
 5066 0517 00       		.byte	0
 5067 0518 00       		.byte	0
 5068 0519 00       		.byte	0
 5069 051a 00       		.byte	0
 5070 051b 00       		.byte	0
 5071 051c 00       		.byte	0
 5072 051d 1D       		.uleb128 0x1d
 5073 051e D6000000 		.4byte	0xd6
 5074 0522 92020000 		.4byte	.LBB265
 5075 0526 64000000 		.4byte	.LBE265-.LBB265
ARM GAS  C:\Users\legoc\AppData\Local\Temp\cc4EoOj2.s 			page 127


 5076 052a 01       		.byte	0x1
 5077 052b F804     		.2byte	0x4f8
 5078 052d C3050000 		.4byte	0x5c3
 5079 0531 1E       		.uleb128 0x1e
 5080 0532 03010000 		.4byte	0x103
 5081 0536 1E       		.uleb128 0x1e
 5082 0537 F7000000 		.4byte	0xf7
 5083 053b 10       		.uleb128 0x10
 5084 053c ED000000 		.4byte	0xed
 5085 0540 A9080000 		.4byte	.LLST39
 5086 0544 10       		.uleb128 0x10
 5087 0545 E3000000 		.4byte	0xe3
 5088 0549 C7080000 		.4byte	.LLST40
 5089 054d 13       		.uleb128 0x13
 5090 054e 92020000 		.4byte	.LBB266
 5091 0552 64000000 		.4byte	.LBE266-.LBB266
 5092 0556 11       		.uleb128 0x11
 5093 0557 0F010000 		.4byte	0x10f
 5094 055b DA080000 		.4byte	.LLST41
 5095 055f 11       		.uleb128 0x11
 5096 0560 1B010000 		.4byte	0x11b
 5097 0564 1B090000 		.4byte	.LLST42
 5098 0568 1F       		.uleb128 0x1f
 5099 0569 92020000 		.4byte	.LBB267
 5100 056d 0A000000 		.4byte	.LBE267-.LBB267
 5101 0571 7B050000 		.4byte	0x57b
 5102 0575 20       		.uleb128 0x20
 5103 0576 2C010000 		.4byte	0x12c
 5104 057a 00       		.byte	0
 5105 057b 13       		.uleb128 0x13
 5106 057c BA020000 		.4byte	.LBB268
 5107 0580 3C000000 		.4byte	.LBE268-.LBB268
 5108 0584 11       		.uleb128 0x11
 5109 0585 38010000 		.4byte	0x138
 5110 0589 2F090000 		.4byte	.LLST43
 5111 058d 13       		.uleb128 0x13
 5112 058e BA020000 		.4byte	.LBB269
 5113 0592 28000000 		.4byte	.LBE269-.LBB269
 5114 0596 11       		.uleb128 0x11
 5115 0597 43010000 		.4byte	0x143
 5116 059b 43090000 		.4byte	.LLST44
 5117 059f 13       		.uleb128 0x13
 5118 05a0 CE020000 		.4byte	.LBB270
 5119 05a4 0E000000 		.4byte	.LBE270-.LBB270
 5120 05a8 15       		.uleb128 0x15
 5121 05a9 DC020000 		.4byte	.LVL102
 5122 05ad 0E1F0000 		.4byte	0x1f0e
 5123 05b1 16       		.uleb128 0x16
 5124 05b2 01       		.uleb128 0x1
 5125 05b3 51       		.byte	0x51
 5126 05b4 02       		.uleb128 0x2
 5127 05b5 75       		.byte	0x75
 5128 05b6 00       		.sleb128 0
 5129 05b7 16       		.uleb128 0x16
 5130 05b8 01       		.uleb128 0x1
 5131 05b9 52       		.byte	0x52
 5132 05ba 02       		.uleb128 0x2
ARM GAS  C:\Users\legoc\AppData\Local\Temp\cc4EoOj2.s 			page 128


 5133 05bb 74       		.byte	0x74
 5134 05bc 00       		.sleb128 0
 5135 05bd 00       		.byte	0
 5136 05be 00       		.byte	0
 5137 05bf 00       		.byte	0
 5138 05c0 00       		.byte	0
 5139 05c1 00       		.byte	0
 5140 05c2 00       		.byte	0
 5141 05c3 1D       		.uleb128 0x1d
 5142 05c4 D6000000 		.4byte	0xd6
 5143 05c8 02030000 		.4byte	.LBB271
 5144 05cc 64000000 		.4byte	.LBE271-.LBB271
 5145 05d0 01       		.byte	0x1
 5146 05d1 FB04     		.2byte	0x4fb
 5147 05d3 69060000 		.4byte	0x669
 5148 05d7 1E       		.uleb128 0x1e
 5149 05d8 03010000 		.4byte	0x103
 5150 05dc 1E       		.uleb128 0x1e
 5151 05dd F7000000 		.4byte	0xf7
 5152 05e1 10       		.uleb128 0x10
 5153 05e2 ED000000 		.4byte	0xed
 5154 05e6 57090000 		.4byte	.LLST45
 5155 05ea 10       		.uleb128 0x10
 5156 05eb E3000000 		.4byte	0xe3
 5157 05ef 75090000 		.4byte	.LLST46
 5158 05f3 13       		.uleb128 0x13
 5159 05f4 02030000 		.4byte	.LBB272
 5160 05f8 64000000 		.4byte	.LBE272-.LBB272
 5161 05fc 11       		.uleb128 0x11
 5162 05fd 0F010000 		.4byte	0x10f
 5163 0601 88090000 		.4byte	.LLST47
 5164 0605 11       		.uleb128 0x11
 5165 0606 1B010000 		.4byte	0x11b
 5166 060a C9090000 		.4byte	.LLST48
 5167 060e 1F       		.uleb128 0x1f
 5168 060f 02030000 		.4byte	.LBB273
 5169 0613 0A000000 		.4byte	.LBE273-.LBB273
 5170 0617 21060000 		.4byte	0x621
 5171 061b 20       		.uleb128 0x20
 5172 061c 2C010000 		.4byte	0x12c
 5173 0620 00       		.byte	0
 5174 0621 13       		.uleb128 0x13
 5175 0622 2A030000 		.4byte	.LBB274
 5176 0626 3C000000 		.4byte	.LBE274-.LBB274
 5177 062a 11       		.uleb128 0x11
 5178 062b 38010000 		.4byte	0x138
 5179 062f DD090000 		.4byte	.LLST49
 5180 0633 13       		.uleb128 0x13
 5181 0634 2A030000 		.4byte	.LBB275
 5182 0638 28000000 		.4byte	.LBE275-.LBB275
 5183 063c 11       		.uleb128 0x11
 5184 063d 43010000 		.4byte	0x143
 5185 0641 F1090000 		.4byte	.LLST50
 5186 0645 13       		.uleb128 0x13
 5187 0646 3E030000 		.4byte	.LBB276
 5188 064a 0E000000 		.4byte	.LBE276-.LBB276
 5189 064e 15       		.uleb128 0x15
ARM GAS  C:\Users\legoc\AppData\Local\Temp\cc4EoOj2.s 			page 129


 5190 064f 4C030000 		.4byte	.LVL117
 5191 0653 0E1F0000 		.4byte	0x1f0e
 5192 0657 16       		.uleb128 0x16
 5193 0658 01       		.uleb128 0x1
 5194 0659 51       		.byte	0x51
 5195 065a 02       		.uleb128 0x2
 5196 065b 75       		.byte	0x75
 5197 065c 00       		.sleb128 0
 5198 065d 16       		.uleb128 0x16
 5199 065e 01       		.uleb128 0x1
 5200 065f 52       		.byte	0x52
 5201 0660 02       		.uleb128 0x2
 5202 0661 74       		.byte	0x74
 5203 0662 00       		.sleb128 0
 5204 0663 00       		.byte	0
 5205 0664 00       		.byte	0
 5206 0665 00       		.byte	0
 5207 0666 00       		.byte	0
 5208 0667 00       		.byte	0
 5209 0668 00       		.byte	0
 5210 0669 1D       		.uleb128 0x1d
 5211 066a D6000000 		.4byte	0xd6
 5212 066e 72030000 		.4byte	.LBB277
 5213 0672 64000000 		.4byte	.LBE277-.LBB277
 5214 0676 01       		.byte	0x1
 5215 0677 F504     		.2byte	0x4f5
 5216 0679 0F070000 		.4byte	0x70f
 5217 067d 1E       		.uleb128 0x1e
 5218 067e 03010000 		.4byte	0x103
 5219 0682 1E       		.uleb128 0x1e
 5220 0683 F7000000 		.4byte	0xf7
 5221 0687 10       		.uleb128 0x10
 5222 0688 ED000000 		.4byte	0xed
 5223 068c 050A0000 		.4byte	.LLST51
 5224 0690 10       		.uleb128 0x10
 5225 0691 E3000000 		.4byte	0xe3
 5226 0695 230A0000 		.4byte	.LLST52
 5227 0699 13       		.uleb128 0x13
 5228 069a 72030000 		.4byte	.LBB278
 5229 069e 64000000 		.4byte	.LBE278-.LBB278
 5230 06a2 11       		.uleb128 0x11
 5231 06a3 0F010000 		.4byte	0x10f
 5232 06a7 360A0000 		.4byte	.LLST53
 5233 06ab 11       		.uleb128 0x11
 5234 06ac 1B010000 		.4byte	0x11b
 5235 06b0 770A0000 		.4byte	.LLST54
 5236 06b4 1F       		.uleb128 0x1f
 5237 06b5 72030000 		.4byte	.LBB279
 5238 06b9 0A000000 		.4byte	.LBE279-.LBB279
 5239 06bd C7060000 		.4byte	0x6c7
 5240 06c1 20       		.uleb128 0x20
 5241 06c2 2C010000 		.4byte	0x12c
 5242 06c6 00       		.byte	0
 5243 06c7 13       		.uleb128 0x13
 5244 06c8 9A030000 		.4byte	.LBB280
 5245 06cc 3C000000 		.4byte	.LBE280-.LBB280
 5246 06d0 11       		.uleb128 0x11
ARM GAS  C:\Users\legoc\AppData\Local\Temp\cc4EoOj2.s 			page 130


 5247 06d1 38010000 		.4byte	0x138
 5248 06d5 8B0A0000 		.4byte	.LLST55
 5249 06d9 13       		.uleb128 0x13
 5250 06da 9A030000 		.4byte	.LBB281
 5251 06de 28000000 		.4byte	.LBE281-.LBB281
 5252 06e2 11       		.uleb128 0x11
 5253 06e3 43010000 		.4byte	0x143
 5254 06e7 9F0A0000 		.4byte	.LLST56
 5255 06eb 13       		.uleb128 0x13
 5256 06ec AE030000 		.4byte	.LBB282
 5257 06f0 0E000000 		.4byte	.LBE282-.LBB282
 5258 06f4 15       		.uleb128 0x15
 5259 06f5 BC030000 		.4byte	.LVL132
 5260 06f9 0E1F0000 		.4byte	0x1f0e
 5261 06fd 16       		.uleb128 0x16
 5262 06fe 01       		.uleb128 0x1
 5263 06ff 51       		.byte	0x51
 5264 0700 02       		.uleb128 0x2
 5265 0701 75       		.byte	0x75
 5266 0702 00       		.sleb128 0
 5267 0703 16       		.uleb128 0x16
 5268 0704 01       		.uleb128 0x1
 5269 0705 52       		.byte	0x52
 5270 0706 02       		.uleb128 0x2
 5271 0707 74       		.byte	0x74
 5272 0708 00       		.sleb128 0
 5273 0709 00       		.byte	0
 5274 070a 00       		.byte	0
 5275 070b 00       		.byte	0
 5276 070c 00       		.byte	0
 5277 070d 00       		.byte	0
 5278 070e 00       		.byte	0
 5279 070f 1D       		.uleb128 0x1d
 5280 0710 D6000000 		.4byte	0xd6
 5281 0714 E2030000 		.4byte	.LBB283
 5282 0718 64000000 		.4byte	.LBE283-.LBB283
 5283 071c 01       		.byte	0x1
 5284 071d F204     		.2byte	0x4f2
 5285 071f B5070000 		.4byte	0x7b5
 5286 0723 1E       		.uleb128 0x1e
 5287 0724 03010000 		.4byte	0x103
 5288 0728 1E       		.uleb128 0x1e
 5289 0729 F7000000 		.4byte	0xf7
 5290 072d 10       		.uleb128 0x10
 5291 072e ED000000 		.4byte	0xed
 5292 0732 B30A0000 		.4byte	.LLST57
 5293 0736 10       		.uleb128 0x10
 5294 0737 E3000000 		.4byte	0xe3
 5295 073b D10A0000 		.4byte	.LLST58
 5296 073f 13       		.uleb128 0x13
 5297 0740 E2030000 		.4byte	.LBB284
 5298 0744 64000000 		.4byte	.LBE284-.LBB284
 5299 0748 11       		.uleb128 0x11
 5300 0749 0F010000 		.4byte	0x10f
 5301 074d E40A0000 		.4byte	.LLST59
 5302 0751 11       		.uleb128 0x11
 5303 0752 1B010000 		.4byte	0x11b
ARM GAS  C:\Users\legoc\AppData\Local\Temp\cc4EoOj2.s 			page 131


 5304 0756 250B0000 		.4byte	.LLST60
 5305 075a 1F       		.uleb128 0x1f
 5306 075b E2030000 		.4byte	.LBB285
 5307 075f 0A000000 		.4byte	.LBE285-.LBB285
 5308 0763 6D070000 		.4byte	0x76d
 5309 0767 20       		.uleb128 0x20
 5310 0768 2C010000 		.4byte	0x12c
 5311 076c 00       		.byte	0
 5312 076d 13       		.uleb128 0x13
 5313 076e 0A040000 		.4byte	.LBB286
 5314 0772 3C000000 		.4byte	.LBE286-.LBB286
 5315 0776 11       		.uleb128 0x11
 5316 0777 38010000 		.4byte	0x138
 5317 077b 390B0000 		.4byte	.LLST61
 5318 077f 13       		.uleb128 0x13
 5319 0780 0A040000 		.4byte	.LBB287
 5320 0784 28000000 		.4byte	.LBE287-.LBB287
 5321 0788 11       		.uleb128 0x11
 5322 0789 43010000 		.4byte	0x143
 5323 078d 4D0B0000 		.4byte	.LLST62
 5324 0791 13       		.uleb128 0x13
 5325 0792 1E040000 		.4byte	.LBB288
 5326 0796 0E000000 		.4byte	.LBE288-.LBB288
 5327 079a 15       		.uleb128 0x15
 5328 079b 2C040000 		.4byte	.LVL147
 5329 079f 0E1F0000 		.4byte	0x1f0e
 5330 07a3 16       		.uleb128 0x16
 5331 07a4 01       		.uleb128 0x1
 5332 07a5 51       		.byte	0x51
 5333 07a6 02       		.uleb128 0x2
 5334 07a7 75       		.byte	0x75
 5335 07a8 00       		.sleb128 0
 5336 07a9 16       		.uleb128 0x16
 5337 07aa 01       		.uleb128 0x1
 5338 07ab 52       		.byte	0x52
 5339 07ac 02       		.uleb128 0x2
 5340 07ad 74       		.byte	0x74
 5341 07ae 00       		.sleb128 0
 5342 07af 00       		.byte	0
 5343 07b0 00       		.byte	0
 5344 07b1 00       		.byte	0
 5345 07b2 00       		.byte	0
 5346 07b3 00       		.byte	0
 5347 07b4 00       		.byte	0
 5348 07b5 1D       		.uleb128 0x1d
 5349 07b6 D6000000 		.4byte	0xd6
 5350 07ba 46040000 		.4byte	.LBB289
 5351 07be 5E000000 		.4byte	.LBE289-.LBB289
 5352 07c2 01       		.byte	0x1
 5353 07c3 C204     		.2byte	0x4c2
 5354 07c5 48080000 		.4byte	0x848
 5355 07c9 1E       		.uleb128 0x1e
 5356 07ca 03010000 		.4byte	0x103
 5357 07ce 1E       		.uleb128 0x1e
 5358 07cf F7000000 		.4byte	0xf7
 5359 07d3 10       		.uleb128 0x10
 5360 07d4 ED000000 		.4byte	0xed
ARM GAS  C:\Users\legoc\AppData\Local\Temp\cc4EoOj2.s 			page 132


 5361 07d8 610B0000 		.4byte	.LLST63
 5362 07dc 10       		.uleb128 0x10
 5363 07dd E3000000 		.4byte	0xe3
 5364 07e1 7F0B0000 		.4byte	.LLST64
 5365 07e5 13       		.uleb128 0x13
 5366 07e6 46040000 		.4byte	.LBB290
 5367 07ea 5E000000 		.4byte	.LBE290-.LBB290
 5368 07ee 11       		.uleb128 0x11
 5369 07ef 0F010000 		.4byte	0x10f
 5370 07f3 920B0000 		.4byte	.LLST65
 5371 07f7 11       		.uleb128 0x11
 5372 07f8 1B010000 		.4byte	0x11b
 5373 07fc BE0B0000 		.4byte	.LLST66
 5374 0800 13       		.uleb128 0x13
 5375 0801 66040000 		.4byte	.LBB291
 5376 0805 3E000000 		.4byte	.LBE291-.LBB291
 5377 0809 11       		.uleb128 0x11
 5378 080a 38010000 		.4byte	0x138
 5379 080e D20B0000 		.4byte	.LLST67
 5380 0812 13       		.uleb128 0x13
 5381 0813 66040000 		.4byte	.LBB292
 5382 0817 24000000 		.4byte	.LBE292-.LBB292
 5383 081b 11       		.uleb128 0x11
 5384 081c 43010000 		.4byte	0x143
 5385 0820 E60B0000 		.4byte	.LLST68
 5386 0824 13       		.uleb128 0x13
 5387 0825 76040000 		.4byte	.LBB293
 5388 0829 0E000000 		.4byte	.LBE293-.LBB293
 5389 082d 15       		.uleb128 0x15
 5390 082e 84040000 		.4byte	.LVL156
 5391 0832 0E1F0000 		.4byte	0x1f0e
 5392 0836 16       		.uleb128 0x16
 5393 0837 01       		.uleb128 0x1
 5394 0838 51       		.byte	0x51
 5395 0839 02       		.uleb128 0x2
 5396 083a 75       		.byte	0x75
 5397 083b 00       		.sleb128 0
 5398 083c 16       		.uleb128 0x16
 5399 083d 01       		.uleb128 0x1
 5400 083e 52       		.byte	0x52
 5401 083f 02       		.uleb128 0x2
 5402 0840 74       		.byte	0x74
 5403 0841 00       		.sleb128 0
 5404 0842 00       		.byte	0
 5405 0843 00       		.byte	0
 5406 0844 00       		.byte	0
 5407 0845 00       		.byte	0
 5408 0846 00       		.byte	0
 5409 0847 00       		.byte	0
 5410 0848 1D       		.uleb128 0x1d
 5411 0849 D6000000 		.4byte	0xd6
 5412 084d B0040000 		.4byte	.LBB294
 5413 0851 64000000 		.4byte	.LBE294-.LBB294
 5414 0855 01       		.byte	0x1
 5415 0856 DA04     		.2byte	0x4da
 5416 0858 EE080000 		.4byte	0x8ee
 5417 085c 1E       		.uleb128 0x1e
ARM GAS  C:\Users\legoc\AppData\Local\Temp\cc4EoOj2.s 			page 133


 5418 085d 03010000 		.4byte	0x103
 5419 0861 1E       		.uleb128 0x1e
 5420 0862 F7000000 		.4byte	0xf7
 5421 0866 10       		.uleb128 0x10
 5422 0867 ED000000 		.4byte	0xed
 5423 086b FA0B0000 		.4byte	.LLST69
 5424 086f 10       		.uleb128 0x10
 5425 0870 E3000000 		.4byte	0xe3
 5426 0874 180C0000 		.4byte	.LLST70
 5427 0878 13       		.uleb128 0x13
 5428 0879 B0040000 		.4byte	.LBB295
 5429 087d 64000000 		.4byte	.LBE295-.LBB295
 5430 0881 11       		.uleb128 0x11
 5431 0882 0F010000 		.4byte	0x10f
 5432 0886 2B0C0000 		.4byte	.LLST71
 5433 088a 11       		.uleb128 0x11
 5434 088b 1B010000 		.4byte	0x11b
 5435 088f 6C0C0000 		.4byte	.LLST72
 5436 0893 1F       		.uleb128 0x1f
 5437 0894 B0040000 		.4byte	.LBB296
 5438 0898 0A000000 		.4byte	.LBE296-.LBB296
 5439 089c A6080000 		.4byte	0x8a6
 5440 08a0 20       		.uleb128 0x20
 5441 08a1 2C010000 		.4byte	0x12c
 5442 08a5 00       		.byte	0
 5443 08a6 13       		.uleb128 0x13
 5444 08a7 D8040000 		.4byte	.LBB297
 5445 08ab 3C000000 		.4byte	.LBE297-.LBB297
 5446 08af 11       		.uleb128 0x11
 5447 08b0 38010000 		.4byte	0x138
 5448 08b4 800C0000 		.4byte	.LLST73
 5449 08b8 13       		.uleb128 0x13
 5450 08b9 D8040000 		.4byte	.LBB298
 5451 08bd 28000000 		.4byte	.LBE298-.LBB298
 5452 08c1 11       		.uleb128 0x11
 5453 08c2 43010000 		.4byte	0x143
 5454 08c6 940C0000 		.4byte	.LLST74
 5455 08ca 13       		.uleb128 0x13
 5456 08cb EC040000 		.4byte	.LBB299
 5457 08cf 0E000000 		.4byte	.LBE299-.LBB299
 5458 08d3 15       		.uleb128 0x15
 5459 08d4 FA040000 		.4byte	.LVL171
 5460 08d8 0E1F0000 		.4byte	0x1f0e
 5461 08dc 16       		.uleb128 0x16
 5462 08dd 01       		.uleb128 0x1
 5463 08de 51       		.byte	0x51
 5464 08df 02       		.uleb128 0x2
 5465 08e0 75       		.byte	0x75
 5466 08e1 00       		.sleb128 0
 5467 08e2 16       		.uleb128 0x16
 5468 08e3 01       		.uleb128 0x1
 5469 08e4 52       		.byte	0x52
 5470 08e5 02       		.uleb128 0x2
 5471 08e6 74       		.byte	0x74
 5472 08e7 00       		.sleb128 0
 5473 08e8 00       		.byte	0
 5474 08e9 00       		.byte	0
ARM GAS  C:\Users\legoc\AppData\Local\Temp\cc4EoOj2.s 			page 134


 5475 08ea 00       		.byte	0
 5476 08eb 00       		.byte	0
 5477 08ec 00       		.byte	0
 5478 08ed 00       		.byte	0
 5479 08ee 1D       		.uleb128 0x1d
 5480 08ef D6000000 		.4byte	0xd6
 5481 08f3 14050000 		.4byte	.LBB300
 5482 08f7 5E000000 		.4byte	.LBE300-.LBB300
 5483 08fb 01       		.byte	0x1
 5484 08fc AA04     		.2byte	0x4aa
 5485 08fe 81090000 		.4byte	0x981
 5486 0902 1E       		.uleb128 0x1e
 5487 0903 03010000 		.4byte	0x103
 5488 0907 1E       		.uleb128 0x1e
 5489 0908 F7000000 		.4byte	0xf7
 5490 090c 10       		.uleb128 0x10
 5491 090d ED000000 		.4byte	0xed
 5492 0911 A80C0000 		.4byte	.LLST75
 5493 0915 10       		.uleb128 0x10
 5494 0916 E3000000 		.4byte	0xe3
 5495 091a C60C0000 		.4byte	.LLST76
 5496 091e 13       		.uleb128 0x13
 5497 091f 14050000 		.4byte	.LBB301
 5498 0923 5E000000 		.4byte	.LBE301-.LBB301
 5499 0927 11       		.uleb128 0x11
 5500 0928 0F010000 		.4byte	0x10f
 5501 092c D90C0000 		.4byte	.LLST77
 5502 0930 11       		.uleb128 0x11
 5503 0931 1B010000 		.4byte	0x11b
 5504 0935 040D0000 		.4byte	.LLST78
 5505 0939 13       		.uleb128 0x13
 5506 093a 34050000 		.4byte	.LBB302
 5507 093e 3E000000 		.4byte	.LBE302-.LBB302
 5508 0942 11       		.uleb128 0x11
 5509 0943 38010000 		.4byte	0x138
 5510 0947 180D0000 		.4byte	.LLST79
 5511 094b 13       		.uleb128 0x13
 5512 094c 34050000 		.4byte	.LBB303
 5513 0950 24000000 		.4byte	.LBE303-.LBB303
 5514 0954 11       		.uleb128 0x11
 5515 0955 43010000 		.4byte	0x143
 5516 0959 2C0D0000 		.4byte	.LLST80
 5517 095d 13       		.uleb128 0x13
 5518 095e 44050000 		.4byte	.LBB304
 5519 0962 0E000000 		.4byte	.LBE304-.LBB304
 5520 0966 15       		.uleb128 0x15
 5521 0967 52050000 		.4byte	.LVL180
 5522 096b 0E1F0000 		.4byte	0x1f0e
 5523 096f 16       		.uleb128 0x16
 5524 0970 01       		.uleb128 0x1
 5525 0971 51       		.byte	0x51
 5526 0972 02       		.uleb128 0x2
 5527 0973 75       		.byte	0x75
 5528 0974 00       		.sleb128 0
 5529 0975 16       		.uleb128 0x16
 5530 0976 01       		.uleb128 0x1
 5531 0977 52       		.byte	0x52
ARM GAS  C:\Users\legoc\AppData\Local\Temp\cc4EoOj2.s 			page 135


 5532 0978 02       		.uleb128 0x2
 5533 0979 74       		.byte	0x74
 5534 097a 00       		.sleb128 0
 5535 097b 00       		.byte	0
 5536 097c 00       		.byte	0
 5537 097d 00       		.byte	0
 5538 097e 00       		.byte	0
 5539 097f 00       		.byte	0
 5540 0980 00       		.byte	0
 5541 0981 1D       		.uleb128 0x1d
 5542 0982 D6000000 		.4byte	0xd6
 5543 0986 7E050000 		.4byte	.LBB305
 5544 098a 64000000 		.4byte	.LBE305-.LBB305
 5545 098e 01       		.byte	0x1
 5546 098f E604     		.2byte	0x4e6
 5547 0991 270A0000 		.4byte	0xa27
 5548 0995 1E       		.uleb128 0x1e
 5549 0996 03010000 		.4byte	0x103
 5550 099a 1E       		.uleb128 0x1e
 5551 099b F7000000 		.4byte	0xf7
 5552 099f 10       		.uleb128 0x10
 5553 09a0 ED000000 		.4byte	0xed
 5554 09a4 400D0000 		.4byte	.LLST81
 5555 09a8 10       		.uleb128 0x10
 5556 09a9 E3000000 		.4byte	0xe3
 5557 09ad 5E0D0000 		.4byte	.LLST82
 5558 09b1 13       		.uleb128 0x13
 5559 09b2 7E050000 		.4byte	.LBB306
 5560 09b6 64000000 		.4byte	.LBE306-.LBB306
 5561 09ba 11       		.uleb128 0x11
 5562 09bb 0F010000 		.4byte	0x10f
 5563 09bf 710D0000 		.4byte	.LLST83
 5564 09c3 11       		.uleb128 0x11
 5565 09c4 1B010000 		.4byte	0x11b
 5566 09c8 B20D0000 		.4byte	.LLST84
 5567 09cc 1F       		.uleb128 0x1f
 5568 09cd 7E050000 		.4byte	.LBB307
 5569 09d1 0A000000 		.4byte	.LBE307-.LBB307
 5570 09d5 DF090000 		.4byte	0x9df
 5571 09d9 20       		.uleb128 0x20
 5572 09da 2C010000 		.4byte	0x12c
 5573 09de 00       		.byte	0
 5574 09df 13       		.uleb128 0x13
 5575 09e0 A6050000 		.4byte	.LBB308
 5576 09e4 3C000000 		.4byte	.LBE308-.LBB308
 5577 09e8 11       		.uleb128 0x11
 5578 09e9 38010000 		.4byte	0x138
 5579 09ed C60D0000 		.4byte	.LLST85
 5580 09f1 13       		.uleb128 0x13
 5581 09f2 A6050000 		.4byte	.LBB309
 5582 09f6 28000000 		.4byte	.LBE309-.LBB309
 5583 09fa 11       		.uleb128 0x11
 5584 09fb 43010000 		.4byte	0x143
 5585 09ff DA0D0000 		.4byte	.LLST86
 5586 0a03 13       		.uleb128 0x13
 5587 0a04 BA050000 		.4byte	.LBB310
 5588 0a08 0E000000 		.4byte	.LBE310-.LBB310
ARM GAS  C:\Users\legoc\AppData\Local\Temp\cc4EoOj2.s 			page 136


 5589 0a0c 15       		.uleb128 0x15
 5590 0a0d C8050000 		.4byte	.LVL195
 5591 0a11 0E1F0000 		.4byte	0x1f0e
 5592 0a15 16       		.uleb128 0x16
 5593 0a16 01       		.uleb128 0x1
 5594 0a17 51       		.byte	0x51
 5595 0a18 02       		.uleb128 0x2
 5596 0a19 75       		.byte	0x75
 5597 0a1a 00       		.sleb128 0
 5598 0a1b 16       		.uleb128 0x16
 5599 0a1c 01       		.uleb128 0x1
 5600 0a1d 52       		.byte	0x52
 5601 0a1e 02       		.uleb128 0x2
 5602 0a1f 74       		.byte	0x74
 5603 0a20 00       		.sleb128 0
 5604 0a21 00       		.byte	0
 5605 0a22 00       		.byte	0
 5606 0a23 00       		.byte	0
 5607 0a24 00       		.byte	0
 5608 0a25 00       		.byte	0
 5609 0a26 00       		.byte	0
 5610 0a27 1D       		.uleb128 0x1d
 5611 0a28 D6000000 		.4byte	0xd6
 5612 0a2c EE050000 		.4byte	.LBB311
 5613 0a30 64000000 		.4byte	.LBE311-.LBB311
 5614 0a34 01       		.byte	0x1
 5615 0a35 E304     		.2byte	0x4e3
 5616 0a37 CD0A0000 		.4byte	0xacd
 5617 0a3b 1E       		.uleb128 0x1e
 5618 0a3c 03010000 		.4byte	0x103
 5619 0a40 1E       		.uleb128 0x1e
 5620 0a41 F7000000 		.4byte	0xf7
 5621 0a45 10       		.uleb128 0x10
 5622 0a46 ED000000 		.4byte	0xed
 5623 0a4a EE0D0000 		.4byte	.LLST87
 5624 0a4e 10       		.uleb128 0x10
 5625 0a4f E3000000 		.4byte	0xe3
 5626 0a53 0C0E0000 		.4byte	.LLST88
 5627 0a57 13       		.uleb128 0x13
 5628 0a58 EE050000 		.4byte	.LBB312
 5629 0a5c 64000000 		.4byte	.LBE312-.LBB312
 5630 0a60 11       		.uleb128 0x11
 5631 0a61 0F010000 		.4byte	0x10f
 5632 0a65 1F0E0000 		.4byte	.LLST89
 5633 0a69 11       		.uleb128 0x11
 5634 0a6a 1B010000 		.4byte	0x11b
 5635 0a6e 600E0000 		.4byte	.LLST90
 5636 0a72 1F       		.uleb128 0x1f
 5637 0a73 EE050000 		.4byte	.LBB313
 5638 0a77 0A000000 		.4byte	.LBE313-.LBB313
 5639 0a7b 850A0000 		.4byte	0xa85
 5640 0a7f 20       		.uleb128 0x20
 5641 0a80 2C010000 		.4byte	0x12c
 5642 0a84 00       		.byte	0
 5643 0a85 13       		.uleb128 0x13
 5644 0a86 16060000 		.4byte	.LBB314
 5645 0a8a 3C000000 		.4byte	.LBE314-.LBB314
ARM GAS  C:\Users\legoc\AppData\Local\Temp\cc4EoOj2.s 			page 137


 5646 0a8e 11       		.uleb128 0x11
 5647 0a8f 38010000 		.4byte	0x138
 5648 0a93 740E0000 		.4byte	.LLST91
 5649 0a97 13       		.uleb128 0x13
 5650 0a98 16060000 		.4byte	.LBB315
 5651 0a9c 28000000 		.4byte	.LBE315-.LBB315
 5652 0aa0 11       		.uleb128 0x11
 5653 0aa1 43010000 		.4byte	0x143
 5654 0aa5 880E0000 		.4byte	.LLST92
 5655 0aa9 13       		.uleb128 0x13
 5656 0aaa 2A060000 		.4byte	.LBB316
 5657 0aae 0E000000 		.4byte	.LBE316-.LBB316
 5658 0ab2 15       		.uleb128 0x15
 5659 0ab3 38060000 		.4byte	.LVL210
 5660 0ab7 0E1F0000 		.4byte	0x1f0e
 5661 0abb 16       		.uleb128 0x16
 5662 0abc 01       		.uleb128 0x1
 5663 0abd 51       		.byte	0x51
 5664 0abe 02       		.uleb128 0x2
 5665 0abf 75       		.byte	0x75
 5666 0ac0 00       		.sleb128 0
 5667 0ac1 16       		.uleb128 0x16
 5668 0ac2 01       		.uleb128 0x1
 5669 0ac3 52       		.byte	0x52
 5670 0ac4 02       		.uleb128 0x2
 5671 0ac5 74       		.byte	0x74
 5672 0ac6 00       		.sleb128 0
 5673 0ac7 00       		.byte	0
 5674 0ac8 00       		.byte	0
 5675 0ac9 00       		.byte	0
 5676 0aca 00       		.byte	0
 5677 0acb 00       		.byte	0
 5678 0acc 00       		.byte	0
 5679 0acd 1D       		.uleb128 0x1d
 5680 0ace D6000000 		.4byte	0xd6
 5681 0ad2 5E060000 		.4byte	.LBB317
 5682 0ad6 64000000 		.4byte	.LBE317-.LBB317
 5683 0ada 01       		.byte	0x1
 5684 0adb E004     		.2byte	0x4e0
 5685 0add 730B0000 		.4byte	0xb73
 5686 0ae1 1E       		.uleb128 0x1e
 5687 0ae2 03010000 		.4byte	0x103
 5688 0ae6 1E       		.uleb128 0x1e
 5689 0ae7 F7000000 		.4byte	0xf7
 5690 0aeb 10       		.uleb128 0x10
 5691 0aec ED000000 		.4byte	0xed
 5692 0af0 9C0E0000 		.4byte	.LLST93
 5693 0af4 10       		.uleb128 0x10
 5694 0af5 E3000000 		.4byte	0xe3
 5695 0af9 BA0E0000 		.4byte	.LLST94
 5696 0afd 13       		.uleb128 0x13
 5697 0afe 5E060000 		.4byte	.LBB318
 5698 0b02 64000000 		.4byte	.LBE318-.LBB318
 5699 0b06 11       		.uleb128 0x11
 5700 0b07 0F010000 		.4byte	0x10f
 5701 0b0b CD0E0000 		.4byte	.LLST95
 5702 0b0f 11       		.uleb128 0x11
ARM GAS  C:\Users\legoc\AppData\Local\Temp\cc4EoOj2.s 			page 138


 5703 0b10 1B010000 		.4byte	0x11b
 5704 0b14 0E0F0000 		.4byte	.LLST96
 5705 0b18 1F       		.uleb128 0x1f
 5706 0b19 5E060000 		.4byte	.LBB319
 5707 0b1d 0A000000 		.4byte	.LBE319-.LBB319
 5708 0b21 2B0B0000 		.4byte	0xb2b
 5709 0b25 20       		.uleb128 0x20
 5710 0b26 2C010000 		.4byte	0x12c
 5711 0b2a 00       		.byte	0
 5712 0b2b 13       		.uleb128 0x13
 5713 0b2c 86060000 		.4byte	.LBB320
 5714 0b30 3C000000 		.4byte	.LBE320-.LBB320
 5715 0b34 11       		.uleb128 0x11
 5716 0b35 38010000 		.4byte	0x138
 5717 0b39 220F0000 		.4byte	.LLST97
 5718 0b3d 13       		.uleb128 0x13
 5719 0b3e 86060000 		.4byte	.LBB321
 5720 0b42 28000000 		.4byte	.LBE321-.LBB321
 5721 0b46 11       		.uleb128 0x11
 5722 0b47 43010000 		.4byte	0x143
 5723 0b4b 360F0000 		.4byte	.LLST98
 5724 0b4f 13       		.uleb128 0x13
 5725 0b50 9A060000 		.4byte	.LBB322
 5726 0b54 0E000000 		.4byte	.LBE322-.LBB322
 5727 0b58 15       		.uleb128 0x15
 5728 0b59 A8060000 		.4byte	.LVL225
 5729 0b5d 0E1F0000 		.4byte	0x1f0e
 5730 0b61 16       		.uleb128 0x16
 5731 0b62 01       		.uleb128 0x1
 5732 0b63 51       		.byte	0x51
 5733 0b64 02       		.uleb128 0x2
 5734 0b65 75       		.byte	0x75
 5735 0b66 00       		.sleb128 0
 5736 0b67 16       		.uleb128 0x16
 5737 0b68 01       		.uleb128 0x1
 5738 0b69 52       		.byte	0x52
 5739 0b6a 02       		.uleb128 0x2
 5740 0b6b 74       		.byte	0x74
 5741 0b6c 00       		.sleb128 0
 5742 0b6d 00       		.byte	0
 5743 0b6e 00       		.byte	0
 5744 0b6f 00       		.byte	0
 5745 0b70 00       		.byte	0
 5746 0b71 00       		.byte	0
 5747 0b72 00       		.byte	0
 5748 0b73 1D       		.uleb128 0x1d
 5749 0b74 D6000000 		.4byte	0xd6
 5750 0b78 C2060000 		.4byte	.LBB323
 5751 0b7c 5E000000 		.4byte	.LBE323-.LBB323
 5752 0b80 01       		.byte	0x1
 5753 0b81 B604     		.2byte	0x4b6
 5754 0b83 060C0000 		.4byte	0xc06
 5755 0b87 1E       		.uleb128 0x1e
 5756 0b88 03010000 		.4byte	0x103
 5757 0b8c 1E       		.uleb128 0x1e
 5758 0b8d F7000000 		.4byte	0xf7
 5759 0b91 10       		.uleb128 0x10
ARM GAS  C:\Users\legoc\AppData\Local\Temp\cc4EoOj2.s 			page 139


 5760 0b92 ED000000 		.4byte	0xed
 5761 0b96 4A0F0000 		.4byte	.LLST99
 5762 0b9a 10       		.uleb128 0x10
 5763 0b9b E3000000 		.4byte	0xe3
 5764 0b9f 680F0000 		.4byte	.LLST100
 5765 0ba3 13       		.uleb128 0x13
 5766 0ba4 C2060000 		.4byte	.LBB324
 5767 0ba8 5E000000 		.4byte	.LBE324-.LBB324
 5768 0bac 11       		.uleb128 0x11
 5769 0bad 0F010000 		.4byte	0x10f
 5770 0bb1 7B0F0000 		.4byte	.LLST101
 5771 0bb5 11       		.uleb128 0x11
 5772 0bb6 1B010000 		.4byte	0x11b
 5773 0bba A60F0000 		.4byte	.LLST102
 5774 0bbe 13       		.uleb128 0x13
 5775 0bbf E2060000 		.4byte	.LBB325
 5776 0bc3 3E000000 		.4byte	.LBE325-.LBB325
 5777 0bc7 11       		.uleb128 0x11
 5778 0bc8 38010000 		.4byte	0x138
 5779 0bcc BA0F0000 		.4byte	.LLST103
 5780 0bd0 13       		.uleb128 0x13
 5781 0bd1 E2060000 		.4byte	.LBB326
 5782 0bd5 24000000 		.4byte	.LBE326-.LBB326
 5783 0bd9 11       		.uleb128 0x11
 5784 0bda 43010000 		.4byte	0x143
 5785 0bde CE0F0000 		.4byte	.LLST104
 5786 0be2 13       		.uleb128 0x13
 5787 0be3 F2060000 		.4byte	.LBB327
 5788 0be7 0E000000 		.4byte	.LBE327-.LBB327
 5789 0beb 15       		.uleb128 0x15
 5790 0bec 00070000 		.4byte	.LVL234
 5791 0bf0 0E1F0000 		.4byte	0x1f0e
 5792 0bf4 16       		.uleb128 0x16
 5793 0bf5 01       		.uleb128 0x1
 5794 0bf6 51       		.byte	0x51
 5795 0bf7 02       		.uleb128 0x2
 5796 0bf8 75       		.byte	0x75
 5797 0bf9 00       		.sleb128 0
 5798 0bfa 16       		.uleb128 0x16
 5799 0bfb 01       		.uleb128 0x1
 5800 0bfc 52       		.byte	0x52
 5801 0bfd 02       		.uleb128 0x2
 5802 0bfe 74       		.byte	0x74
 5803 0bff 00       		.sleb128 0
 5804 0c00 00       		.byte	0
 5805 0c01 00       		.byte	0
 5806 0c02 00       		.byte	0
 5807 0c03 00       		.byte	0
 5808 0c04 00       		.byte	0
 5809 0c05 00       		.byte	0
 5810 0c06 1D       		.uleb128 0x1d
 5811 0c07 D6000000 		.4byte	0xd6
 5812 0c0b 20070000 		.4byte	.LBB328
 5813 0c0f 5E000000 		.4byte	.LBE328-.LBB328
 5814 0c13 01       		.byte	0x1
 5815 0c14 CE04     		.2byte	0x4ce
 5816 0c16 990C0000 		.4byte	0xc99
ARM GAS  C:\Users\legoc\AppData\Local\Temp\cc4EoOj2.s 			page 140


 5817 0c1a 1E       		.uleb128 0x1e
 5818 0c1b 03010000 		.4byte	0x103
 5819 0c1f 1E       		.uleb128 0x1e
 5820 0c20 F7000000 		.4byte	0xf7
 5821 0c24 10       		.uleb128 0x10
 5822 0c25 ED000000 		.4byte	0xed
 5823 0c29 E20F0000 		.4byte	.LLST105
 5824 0c2d 10       		.uleb128 0x10
 5825 0c2e E3000000 		.4byte	0xe3
 5826 0c32 00100000 		.4byte	.LLST106
 5827 0c36 13       		.uleb128 0x13
 5828 0c37 20070000 		.4byte	.LBB329
 5829 0c3b 5E000000 		.4byte	.LBE329-.LBB329
 5830 0c3f 11       		.uleb128 0x11
 5831 0c40 0F010000 		.4byte	0x10f
 5832 0c44 13100000 		.4byte	.LLST107
 5833 0c48 11       		.uleb128 0x11
 5834 0c49 1B010000 		.4byte	0x11b
 5835 0c4d 3F100000 		.4byte	.LLST108
 5836 0c51 13       		.uleb128 0x13
 5837 0c52 40070000 		.4byte	.LBB330
 5838 0c56 3E000000 		.4byte	.LBE330-.LBB330
 5839 0c5a 11       		.uleb128 0x11
 5840 0c5b 38010000 		.4byte	0x138
 5841 0c5f 53100000 		.4byte	.LLST109
 5842 0c63 13       		.uleb128 0x13
 5843 0c64 40070000 		.4byte	.LBB331
 5844 0c68 24000000 		.4byte	.LBE331-.LBB331
 5845 0c6c 11       		.uleb128 0x11
 5846 0c6d 43010000 		.4byte	0x143
 5847 0c71 67100000 		.4byte	.LLST110
 5848 0c75 13       		.uleb128 0x13
 5849 0c76 50070000 		.4byte	.LBB332
 5850 0c7a 0E000000 		.4byte	.LBE332-.LBB332
 5851 0c7e 15       		.uleb128 0x15
 5852 0c7f 5E070000 		.4byte	.LVL243
 5853 0c83 0E1F0000 		.4byte	0x1f0e
 5854 0c87 16       		.uleb128 0x16
 5855 0c88 01       		.uleb128 0x1
 5856 0c89 51       		.byte	0x51
 5857 0c8a 02       		.uleb128 0x2
 5858 0c8b 75       		.byte	0x75
 5859 0c8c 00       		.sleb128 0
 5860 0c8d 16       		.uleb128 0x16
 5861 0c8e 01       		.uleb128 0x1
 5862 0c8f 52       		.byte	0x52
 5863 0c90 02       		.uleb128 0x2
 5864 0c91 74       		.byte	0x74
 5865 0c92 00       		.sleb128 0
 5866 0c93 00       		.byte	0
 5867 0c94 00       		.byte	0
 5868 0c95 00       		.byte	0
 5869 0c96 00       		.byte	0
 5870 0c97 00       		.byte	0
 5871 0c98 00       		.byte	0
 5872 0c99 1D       		.uleb128 0x1d
 5873 0c9a D6000000 		.4byte	0xd6
ARM GAS  C:\Users\legoc\AppData\Local\Temp\cc4EoOj2.s 			page 141


 5874 0c9e 7E070000 		.4byte	.LBB333
 5875 0ca2 5E000000 		.4byte	.LBE333-.LBB333
 5876 0ca6 01       		.byte	0x1
 5877 0ca7 CB04     		.2byte	0x4cb
 5878 0ca9 2C0D0000 		.4byte	0xd2c
 5879 0cad 1E       		.uleb128 0x1e
 5880 0cae 03010000 		.4byte	0x103
 5881 0cb2 1E       		.uleb128 0x1e
 5882 0cb3 F7000000 		.4byte	0xf7
 5883 0cb7 10       		.uleb128 0x10
 5884 0cb8 ED000000 		.4byte	0xed
 5885 0cbc 7B100000 		.4byte	.LLST111
 5886 0cc0 10       		.uleb128 0x10
 5887 0cc1 E3000000 		.4byte	0xe3
 5888 0cc5 99100000 		.4byte	.LLST112
 5889 0cc9 13       		.uleb128 0x13
 5890 0cca 7E070000 		.4byte	.LBB334
 5891 0cce 5E000000 		.4byte	.LBE334-.LBB334
 5892 0cd2 11       		.uleb128 0x11
 5893 0cd3 0F010000 		.4byte	0x10f
 5894 0cd7 AC100000 		.4byte	.LLST113
 5895 0cdb 11       		.uleb128 0x11
 5896 0cdc 1B010000 		.4byte	0x11b
 5897 0ce0 D8100000 		.4byte	.LLST114
 5898 0ce4 13       		.uleb128 0x13
 5899 0ce5 9E070000 		.4byte	.LBB335
 5900 0ce9 3E000000 		.4byte	.LBE335-.LBB335
 5901 0ced 11       		.uleb128 0x11
 5902 0cee 38010000 		.4byte	0x138
 5903 0cf2 EC100000 		.4byte	.LLST115
 5904 0cf6 13       		.uleb128 0x13
 5905 0cf7 9E070000 		.4byte	.LBB336
 5906 0cfb 24000000 		.4byte	.LBE336-.LBB336
 5907 0cff 11       		.uleb128 0x11
 5908 0d00 43010000 		.4byte	0x143
 5909 0d04 00110000 		.4byte	.LLST116
 5910 0d08 13       		.uleb128 0x13
 5911 0d09 AE070000 		.4byte	.LBB337
 5912 0d0d 0E000000 		.4byte	.LBE337-.LBB337
 5913 0d11 15       		.uleb128 0x15
 5914 0d12 BC070000 		.4byte	.LVL252
 5915 0d16 0E1F0000 		.4byte	0x1f0e
 5916 0d1a 16       		.uleb128 0x16
 5917 0d1b 01       		.uleb128 0x1
 5918 0d1c 51       		.byte	0x51
 5919 0d1d 02       		.uleb128 0x2
 5920 0d1e 75       		.byte	0x75
 5921 0d1f 00       		.sleb128 0
 5922 0d20 16       		.uleb128 0x16
 5923 0d21 01       		.uleb128 0x1
 5924 0d22 52       		.byte	0x52
 5925 0d23 02       		.uleb128 0x2
 5926 0d24 74       		.byte	0x74
 5927 0d25 00       		.sleb128 0
 5928 0d26 00       		.byte	0
 5929 0d27 00       		.byte	0
 5930 0d28 00       		.byte	0
ARM GAS  C:\Users\legoc\AppData\Local\Temp\cc4EoOj2.s 			page 142


 5931 0d29 00       		.byte	0
 5932 0d2a 00       		.byte	0
 5933 0d2b 00       		.byte	0
 5934 0d2c 1D       		.uleb128 0x1d
 5935 0d2d D6000000 		.4byte	0xd6
 5936 0d31 DC070000 		.4byte	.LBB338
 5937 0d35 5E000000 		.4byte	.LBE338-.LBB338
 5938 0d39 01       		.byte	0x1
 5939 0d3a C804     		.2byte	0x4c8
 5940 0d3c BF0D0000 		.4byte	0xdbf
 5941 0d40 1E       		.uleb128 0x1e
 5942 0d41 03010000 		.4byte	0x103
 5943 0d45 1E       		.uleb128 0x1e
 5944 0d46 F7000000 		.4byte	0xf7
 5945 0d4a 10       		.uleb128 0x10
 5946 0d4b ED000000 		.4byte	0xed
 5947 0d4f 14110000 		.4byte	.LLST117
 5948 0d53 10       		.uleb128 0x10
 5949 0d54 E3000000 		.4byte	0xe3
 5950 0d58 32110000 		.4byte	.LLST118
 5951 0d5c 13       		.uleb128 0x13
 5952 0d5d DC070000 		.4byte	.LBB339
 5953 0d61 5E000000 		.4byte	.LBE339-.LBB339
 5954 0d65 11       		.uleb128 0x11
 5955 0d66 0F010000 		.4byte	0x10f
 5956 0d6a 45110000 		.4byte	.LLST119
 5957 0d6e 11       		.uleb128 0x11
 5958 0d6f 1B010000 		.4byte	0x11b
 5959 0d73 71110000 		.4byte	.LLST120
 5960 0d77 13       		.uleb128 0x13
 5961 0d78 FC070000 		.4byte	.LBB340
 5962 0d7c 3E000000 		.4byte	.LBE340-.LBB340
 5963 0d80 11       		.uleb128 0x11
 5964 0d81 38010000 		.4byte	0x138
 5965 0d85 85110000 		.4byte	.LLST121
 5966 0d89 13       		.uleb128 0x13
 5967 0d8a FC070000 		.4byte	.LBB341
 5968 0d8e 24000000 		.4byte	.LBE341-.LBB341
 5969 0d92 11       		.uleb128 0x11
 5970 0d93 43010000 		.4byte	0x143
 5971 0d97 99110000 		.4byte	.LLST122
 5972 0d9b 13       		.uleb128 0x13
 5973 0d9c 0C080000 		.4byte	.LBB342
 5974 0da0 0E000000 		.4byte	.LBE342-.LBB342
 5975 0da4 15       		.uleb128 0x15
 5976 0da5 1A080000 		.4byte	.LVL261
 5977 0da9 0E1F0000 		.4byte	0x1f0e
 5978 0dad 16       		.uleb128 0x16
 5979 0dae 01       		.uleb128 0x1
 5980 0daf 51       		.byte	0x51
 5981 0db0 02       		.uleb128 0x2
 5982 0db1 75       		.byte	0x75
 5983 0db2 00       		.sleb128 0
 5984 0db3 16       		.uleb128 0x16
 5985 0db4 01       		.uleb128 0x1
 5986 0db5 52       		.byte	0x52
 5987 0db6 02       		.uleb128 0x2
ARM GAS  C:\Users\legoc\AppData\Local\Temp\cc4EoOj2.s 			page 143


 5988 0db7 74       		.byte	0x74
 5989 0db8 00       		.sleb128 0
 5990 0db9 00       		.byte	0
 5991 0dba 00       		.byte	0
 5992 0dbb 00       		.byte	0
 5993 0dbc 00       		.byte	0
 5994 0dbd 00       		.byte	0
 5995 0dbe 00       		.byte	0
 5996 0dbf 1D       		.uleb128 0x1d
 5997 0dc0 D6000000 		.4byte	0xd6
 5998 0dc4 3A080000 		.4byte	.LBB343
 5999 0dc8 5E000000 		.4byte	.LBE343-.LBB343
 6000 0dcc 01       		.byte	0x1
 6001 0dcd C504     		.2byte	0x4c5
 6002 0dcf 520E0000 		.4byte	0xe52
 6003 0dd3 1E       		.uleb128 0x1e
 6004 0dd4 03010000 		.4byte	0x103
 6005 0dd8 1E       		.uleb128 0x1e
 6006 0dd9 F7000000 		.4byte	0xf7
 6007 0ddd 10       		.uleb128 0x10
 6008 0dde ED000000 		.4byte	0xed
 6009 0de2 AD110000 		.4byte	.LLST123
 6010 0de6 10       		.uleb128 0x10
 6011 0de7 E3000000 		.4byte	0xe3
 6012 0deb CB110000 		.4byte	.LLST124
 6013 0def 13       		.uleb128 0x13
 6014 0df0 3A080000 		.4byte	.LBB344
 6015 0df4 5E000000 		.4byte	.LBE344-.LBB344
 6016 0df8 11       		.uleb128 0x11
 6017 0df9 0F010000 		.4byte	0x10f
 6018 0dfd DE110000 		.4byte	.LLST125
 6019 0e01 11       		.uleb128 0x11
 6020 0e02 1B010000 		.4byte	0x11b
 6021 0e06 0A120000 		.4byte	.LLST126
 6022 0e0a 13       		.uleb128 0x13
 6023 0e0b 5A080000 		.4byte	.LBB345
 6024 0e0f 3E000000 		.4byte	.LBE345-.LBB345
 6025 0e13 11       		.uleb128 0x11
 6026 0e14 38010000 		.4byte	0x138
 6027 0e18 1E120000 		.4byte	.LLST127
 6028 0e1c 13       		.uleb128 0x13
 6029 0e1d 5A080000 		.4byte	.LBB346
 6030 0e21 24000000 		.4byte	.LBE346-.LBB346
 6031 0e25 11       		.uleb128 0x11
 6032 0e26 43010000 		.4byte	0x143
 6033 0e2a 32120000 		.4byte	.LLST128
 6034 0e2e 13       		.uleb128 0x13
 6035 0e2f 6A080000 		.4byte	.LBB347
 6036 0e33 0E000000 		.4byte	.LBE347-.LBB347
 6037 0e37 15       		.uleb128 0x15
 6038 0e38 78080000 		.4byte	.LVL270
 6039 0e3c 0E1F0000 		.4byte	0x1f0e
 6040 0e40 16       		.uleb128 0x16
 6041 0e41 01       		.uleb128 0x1
 6042 0e42 51       		.byte	0x51
 6043 0e43 02       		.uleb128 0x2
 6044 0e44 75       		.byte	0x75
ARM GAS  C:\Users\legoc\AppData\Local\Temp\cc4EoOj2.s 			page 144


 6045 0e45 00       		.sleb128 0
 6046 0e46 16       		.uleb128 0x16
 6047 0e47 01       		.uleb128 0x1
 6048 0e48 52       		.byte	0x52
 6049 0e49 02       		.uleb128 0x2
 6050 0e4a 74       		.byte	0x74
 6051 0e4b 00       		.sleb128 0
 6052 0e4c 00       		.byte	0
 6053 0e4d 00       		.byte	0
 6054 0e4e 00       		.byte	0
 6055 0e4f 00       		.byte	0
 6056 0e50 00       		.byte	0
 6057 0e51 00       		.byte	0
 6058 0e52 1D       		.uleb128 0x1d
 6059 0e53 D6000000 		.4byte	0xd6
 6060 0e57 A4080000 		.4byte	.LBB348
 6061 0e5b 66000000 		.4byte	.LBE348-.LBB348
 6062 0e5f 01       		.byte	0x1
 6063 0e60 D404     		.2byte	0x4d4
 6064 0e62 F80E0000 		.4byte	0xef8
 6065 0e66 1E       		.uleb128 0x1e
 6066 0e67 03010000 		.4byte	0x103
 6067 0e6b 1E       		.uleb128 0x1e
 6068 0e6c F7000000 		.4byte	0xf7
 6069 0e70 10       		.uleb128 0x10
 6070 0e71 ED000000 		.4byte	0xed
 6071 0e75 46120000 		.4byte	.LLST129
 6072 0e79 10       		.uleb128 0x10
 6073 0e7a E3000000 		.4byte	0xe3
 6074 0e7e 64120000 		.4byte	.LLST130
 6075 0e82 13       		.uleb128 0x13
 6076 0e83 A4080000 		.4byte	.LBB349
 6077 0e87 66000000 		.4byte	.LBE349-.LBB349
 6078 0e8b 11       		.uleb128 0x11
 6079 0e8c 0F010000 		.4byte	0x10f
 6080 0e90 77120000 		.4byte	.LLST131
 6081 0e94 11       		.uleb128 0x11
 6082 0e95 1B010000 		.4byte	0x11b
 6083 0e99 B8120000 		.4byte	.LLST132
 6084 0e9d 1F       		.uleb128 0x1f
 6085 0e9e A4080000 		.4byte	.LBB350
 6086 0ea2 0A000000 		.4byte	.LBE350-.LBB350
 6087 0ea6 B00E0000 		.4byte	0xeb0
 6088 0eaa 20       		.uleb128 0x20
 6089 0eab 2C010000 		.4byte	0x12c
 6090 0eaf 00       		.byte	0
 6091 0eb0 13       		.uleb128 0x13
 6092 0eb1 CC080000 		.4byte	.LBB351
 6093 0eb5 3E000000 		.4byte	.LBE351-.LBB351
 6094 0eb9 11       		.uleb128 0x11
 6095 0eba 38010000 		.4byte	0x138
 6096 0ebe CC120000 		.4byte	.LLST133
 6097 0ec2 13       		.uleb128 0x13
 6098 0ec3 CC080000 		.4byte	.LBB352
 6099 0ec7 28000000 		.4byte	.LBE352-.LBB352
 6100 0ecb 11       		.uleb128 0x11
 6101 0ecc 43010000 		.4byte	0x143
ARM GAS  C:\Users\legoc\AppData\Local\Temp\cc4EoOj2.s 			page 145


 6102 0ed0 E0120000 		.4byte	.LLST134
 6103 0ed4 13       		.uleb128 0x13
 6104 0ed5 E0080000 		.4byte	.LBB353
 6105 0ed9 0E000000 		.4byte	.LBE353-.LBB353
 6106 0edd 15       		.uleb128 0x15
 6107 0ede EE080000 		.4byte	.LVL285
 6108 0ee2 0E1F0000 		.4byte	0x1f0e
 6109 0ee6 16       		.uleb128 0x16
 6110 0ee7 01       		.uleb128 0x1
 6111 0ee8 51       		.byte	0x51
 6112 0ee9 02       		.uleb128 0x2
 6113 0eea 75       		.byte	0x75
 6114 0eeb 00       		.sleb128 0
 6115 0eec 16       		.uleb128 0x16
 6116 0eed 01       		.uleb128 0x1
 6117 0eee 52       		.byte	0x52
 6118 0eef 02       		.uleb128 0x2
 6119 0ef0 74       		.byte	0x74
 6120 0ef1 00       		.sleb128 0
 6121 0ef2 00       		.byte	0
 6122 0ef3 00       		.byte	0
 6123 0ef4 00       		.byte	0
 6124 0ef5 00       		.byte	0
 6125 0ef6 00       		.byte	0
 6126 0ef7 00       		.byte	0
 6127 0ef8 1D       		.uleb128 0x1d
 6128 0ef9 D6000000 		.4byte	0xd6
 6129 0efd 0A090000 		.4byte	.LBB354
 6130 0f01 5A000000 		.4byte	.LBE354-.LBB354
 6131 0f05 01       		.byte	0x1
 6132 0f06 D104     		.2byte	0x4d1
 6133 0f08 8B0F0000 		.4byte	0xf8b
 6134 0f0c 1E       		.uleb128 0x1e
 6135 0f0d 03010000 		.4byte	0x103
 6136 0f11 1E       		.uleb128 0x1e
 6137 0f12 F7000000 		.4byte	0xf7
 6138 0f16 10       		.uleb128 0x10
 6139 0f17 ED000000 		.4byte	0xed
 6140 0f1b F4120000 		.4byte	.LLST135
 6141 0f1f 10       		.uleb128 0x10
 6142 0f20 E3000000 		.4byte	0xe3
 6143 0f24 12130000 		.4byte	.LLST136
 6144 0f28 13       		.uleb128 0x13
 6145 0f29 0A090000 		.4byte	.LBB355
 6146 0f2d 5A000000 		.4byte	.LBE355-.LBB355
 6147 0f31 11       		.uleb128 0x11
 6148 0f32 0F010000 		.4byte	0x10f
 6149 0f36 25130000 		.4byte	.LLST137
 6150 0f3a 11       		.uleb128 0x11
 6151 0f3b 1B010000 		.4byte	0x11b
 6152 0f3f 51130000 		.4byte	.LLST138
 6153 0f43 13       		.uleb128 0x13
 6154 0f44 26090000 		.4byte	.LBB356
 6155 0f48 3E000000 		.4byte	.LBE356-.LBB356
 6156 0f4c 11       		.uleb128 0x11
 6157 0f4d 38010000 		.4byte	0x138
 6158 0f51 65130000 		.4byte	.LLST139
ARM GAS  C:\Users\legoc\AppData\Local\Temp\cc4EoOj2.s 			page 146


 6159 0f55 13       		.uleb128 0x13
 6160 0f56 26090000 		.4byte	.LBB357
 6161 0f5a 28000000 		.4byte	.LBE357-.LBB357
 6162 0f5e 11       		.uleb128 0x11
 6163 0f5f 43010000 		.4byte	0x143
 6164 0f63 79130000 		.4byte	.LLST140
 6165 0f67 13       		.uleb128 0x13
 6166 0f68 3A090000 		.4byte	.LBB358
 6167 0f6c 0E000000 		.4byte	.LBE358-.LBB358
 6168 0f70 15       		.uleb128 0x15
 6169 0f71 48090000 		.4byte	.LVL294
 6170 0f75 0E1F0000 		.4byte	0x1f0e
 6171 0f79 16       		.uleb128 0x16
 6172 0f7a 01       		.uleb128 0x1
 6173 0f7b 51       		.byte	0x51
 6174 0f7c 02       		.uleb128 0x2
 6175 0f7d 75       		.byte	0x75
 6176 0f7e 00       		.sleb128 0
 6177 0f7f 16       		.uleb128 0x16
 6178 0f80 01       		.uleb128 0x1
 6179 0f81 52       		.byte	0x52
 6180 0f82 02       		.uleb128 0x2
 6181 0f83 74       		.byte	0x74
 6182 0f84 00       		.sleb128 0
 6183 0f85 00       		.byte	0
 6184 0f86 00       		.byte	0
 6185 0f87 00       		.byte	0
 6186 0f88 00       		.byte	0
 6187 0f89 00       		.byte	0
 6188 0f8a 00       		.byte	0
 6189 0f8b 1D       		.uleb128 0x1d
 6190 0f8c D6000000 		.4byte	0xd6
 6191 0f90 64090000 		.4byte	.LBB359
 6192 0f94 5E000000 		.4byte	.LBE359-.LBB359
 6193 0f98 01       		.byte	0x1
 6194 0f99 9E04     		.2byte	0x49e
 6195 0f9b 1E100000 		.4byte	0x101e
 6196 0f9f 1E       		.uleb128 0x1e
 6197 0fa0 03010000 		.4byte	0x103
 6198 0fa4 1E       		.uleb128 0x1e
 6199 0fa5 F7000000 		.4byte	0xf7
 6200 0fa9 10       		.uleb128 0x10
 6201 0faa ED000000 		.4byte	0xed
 6202 0fae 8D130000 		.4byte	.LLST141
 6203 0fb2 10       		.uleb128 0x10
 6204 0fb3 E3000000 		.4byte	0xe3
 6205 0fb7 AB130000 		.4byte	.LLST142
 6206 0fbb 13       		.uleb128 0x13
 6207 0fbc 64090000 		.4byte	.LBB360
 6208 0fc0 5E000000 		.4byte	.LBE360-.LBB360
 6209 0fc4 11       		.uleb128 0x11
 6210 0fc5 0F010000 		.4byte	0x10f
 6211 0fc9 BE130000 		.4byte	.LLST143
 6212 0fcd 11       		.uleb128 0x11
 6213 0fce 1B010000 		.4byte	0x11b
 6214 0fd2 E8130000 		.4byte	.LLST144
 6215 0fd6 13       		.uleb128 0x13
ARM GAS  C:\Users\legoc\AppData\Local\Temp\cc4EoOj2.s 			page 147


 6216 0fd7 84090000 		.4byte	.LBB361
 6217 0fdb 3E000000 		.4byte	.LBE361-.LBB361
 6218 0fdf 11       		.uleb128 0x11
 6219 0fe0 38010000 		.4byte	0x138
 6220 0fe4 FC130000 		.4byte	.LLST145
 6221 0fe8 13       		.uleb128 0x13
 6222 0fe9 84090000 		.4byte	.LBB362
 6223 0fed 24000000 		.4byte	.LBE362-.LBB362
 6224 0ff1 11       		.uleb128 0x11
 6225 0ff2 43010000 		.4byte	0x143
 6226 0ff6 10140000 		.4byte	.LLST146
 6227 0ffa 13       		.uleb128 0x13
 6228 0ffb 94090000 		.4byte	.LBB363
 6229 0fff 0E000000 		.4byte	.LBE363-.LBB363
 6230 1003 15       		.uleb128 0x15
 6231 1004 A2090000 		.4byte	.LVL303
 6232 1008 0E1F0000 		.4byte	0x1f0e
 6233 100c 16       		.uleb128 0x16
 6234 100d 01       		.uleb128 0x1
 6235 100e 51       		.byte	0x51
 6236 100f 02       		.uleb128 0x2
 6237 1010 75       		.byte	0x75
 6238 1011 00       		.sleb128 0
 6239 1012 16       		.uleb128 0x16
 6240 1013 01       		.uleb128 0x1
 6241 1014 52       		.byte	0x52
 6242 1015 02       		.uleb128 0x2
 6243 1016 74       		.byte	0x74
 6244 1017 00       		.sleb128 0
 6245 1018 00       		.byte	0
 6246 1019 00       		.byte	0
 6247 101a 00       		.byte	0
 6248 101b 00       		.byte	0
 6249 101c 00       		.byte	0
 6250 101d 00       		.byte	0
 6251 101e 1D       		.uleb128 0x1d
 6252 101f D6000000 		.4byte	0xd6
 6253 1023 CE090000 		.4byte	.LBB364
 6254 1027 66000000 		.4byte	.LBE364-.LBB364
 6255 102b 01       		.byte	0x1
 6256 102c 5805     		.2byte	0x558
 6257 102e C4100000 		.4byte	0x10c4
 6258 1032 1E       		.uleb128 0x1e
 6259 1033 03010000 		.4byte	0x103
 6260 1037 1E       		.uleb128 0x1e
 6261 1038 F7000000 		.4byte	0xf7
 6262 103c 10       		.uleb128 0x10
 6263 103d ED000000 		.4byte	0xed
 6264 1041 24140000 		.4byte	.LLST147
 6265 1045 10       		.uleb128 0x10
 6266 1046 E3000000 		.4byte	0xe3
 6267 104a 42140000 		.4byte	.LLST148
 6268 104e 13       		.uleb128 0x13
 6269 104f CE090000 		.4byte	.LBB365
 6270 1053 66000000 		.4byte	.LBE365-.LBB365
 6271 1057 11       		.uleb128 0x11
 6272 1058 0F010000 		.4byte	0x10f
ARM GAS  C:\Users\legoc\AppData\Local\Temp\cc4EoOj2.s 			page 148


 6273 105c 55140000 		.4byte	.LLST149
 6274 1060 11       		.uleb128 0x11
 6275 1061 1B010000 		.4byte	0x11b
 6276 1065 96140000 		.4byte	.LLST150
 6277 1069 1F       		.uleb128 0x1f
 6278 106a CE090000 		.4byte	.LBB366
 6279 106e 0A000000 		.4byte	.LBE366-.LBB366
 6280 1072 7C100000 		.4byte	0x107c
 6281 1076 20       		.uleb128 0x20
 6282 1077 2C010000 		.4byte	0x12c
 6283 107b 00       		.byte	0
 6284 107c 13       		.uleb128 0x13
 6285 107d F6090000 		.4byte	.LBB367
 6286 1081 3E000000 		.4byte	.LBE367-.LBB367
 6287 1085 11       		.uleb128 0x11
 6288 1086 38010000 		.4byte	0x138
 6289 108a AA140000 		.4byte	.LLST151
 6290 108e 13       		.uleb128 0x13
 6291 108f F6090000 		.4byte	.LBB368
 6292 1093 28000000 		.4byte	.LBE368-.LBB368
 6293 1097 11       		.uleb128 0x11
 6294 1098 43010000 		.4byte	0x143
 6295 109c BE140000 		.4byte	.LLST152
 6296 10a0 13       		.uleb128 0x13
 6297 10a1 0A0A0000 		.4byte	.LBB369
 6298 10a5 0E000000 		.4byte	.LBE369-.LBB369
 6299 10a9 15       		.uleb128 0x15
 6300 10aa 180A0000 		.4byte	.LVL318
 6301 10ae 0E1F0000 		.4byte	0x1f0e
 6302 10b2 16       		.uleb128 0x16
 6303 10b3 01       		.uleb128 0x1
 6304 10b4 51       		.byte	0x51
 6305 10b5 02       		.uleb128 0x2
 6306 10b6 75       		.byte	0x75
 6307 10b7 00       		.sleb128 0
 6308 10b8 16       		.uleb128 0x16
 6309 10b9 01       		.uleb128 0x1
 6310 10ba 52       		.byte	0x52
 6311 10bb 02       		.uleb128 0x2
 6312 10bc 74       		.byte	0x74
 6313 10bd 00       		.sleb128 0
 6314 10be 00       		.byte	0
 6315 10bf 00       		.byte	0
 6316 10c0 00       		.byte	0
 6317 10c1 00       		.byte	0
 6318 10c2 00       		.byte	0
 6319 10c3 00       		.byte	0
 6320 10c4 1D       		.uleb128 0x1d
 6321 10c5 D6000000 		.4byte	0xd6
 6322 10c9 400A0000 		.4byte	.LBB370
 6323 10cd 66000000 		.4byte	.LBE370-.LBB370
 6324 10d1 01       		.byte	0x1
 6325 10d2 5B05     		.2byte	0x55b
 6326 10d4 6A110000 		.4byte	0x116a
 6327 10d8 1E       		.uleb128 0x1e
 6328 10d9 03010000 		.4byte	0x103
 6329 10dd 1E       		.uleb128 0x1e
ARM GAS  C:\Users\legoc\AppData\Local\Temp\cc4EoOj2.s 			page 149


 6330 10de F7000000 		.4byte	0xf7
 6331 10e2 10       		.uleb128 0x10
 6332 10e3 ED000000 		.4byte	0xed
 6333 10e7 D2140000 		.4byte	.LLST153
 6334 10eb 10       		.uleb128 0x10
 6335 10ec E3000000 		.4byte	0xe3
 6336 10f0 F0140000 		.4byte	.LLST154
 6337 10f4 13       		.uleb128 0x13
 6338 10f5 400A0000 		.4byte	.LBB371
 6339 10f9 66000000 		.4byte	.LBE371-.LBB371
 6340 10fd 11       		.uleb128 0x11
 6341 10fe 0F010000 		.4byte	0x10f
 6342 1102 03150000 		.4byte	.LLST155
 6343 1106 11       		.uleb128 0x11
 6344 1107 1B010000 		.4byte	0x11b
 6345 110b 44150000 		.4byte	.LLST156
 6346 110f 1F       		.uleb128 0x1f
 6347 1110 400A0000 		.4byte	.LBB372
 6348 1114 0A000000 		.4byte	.LBE372-.LBB372
 6349 1118 22110000 		.4byte	0x1122
 6350 111c 20       		.uleb128 0x20
 6351 111d 2C010000 		.4byte	0x12c
 6352 1121 00       		.byte	0
 6353 1122 13       		.uleb128 0x13
 6354 1123 680A0000 		.4byte	.LBB373
 6355 1127 3E000000 		.4byte	.LBE373-.LBB373
 6356 112b 11       		.uleb128 0x11
 6357 112c 38010000 		.4byte	0x138
 6358 1130 58150000 		.4byte	.LLST157
 6359 1134 13       		.uleb128 0x13
 6360 1135 680A0000 		.4byte	.LBB374
 6361 1139 28000000 		.4byte	.LBE374-.LBB374
 6362 113d 11       		.uleb128 0x11
 6363 113e 43010000 		.4byte	0x143
 6364 1142 6C150000 		.4byte	.LLST158
 6365 1146 13       		.uleb128 0x13
 6366 1147 7C0A0000 		.4byte	.LBB375
 6367 114b 0E000000 		.4byte	.LBE375-.LBB375
 6368 114f 15       		.uleb128 0x15
 6369 1150 8A0A0000 		.4byte	.LVL333
 6370 1154 0E1F0000 		.4byte	0x1f0e
 6371 1158 16       		.uleb128 0x16
 6372 1159 01       		.uleb128 0x1
 6373 115a 51       		.byte	0x51
 6374 115b 02       		.uleb128 0x2
 6375 115c 75       		.byte	0x75
 6376 115d 00       		.sleb128 0
 6377 115e 16       		.uleb128 0x16
 6378 115f 01       		.uleb128 0x1
 6379 1160 52       		.byte	0x52
 6380 1161 02       		.uleb128 0x2
 6381 1162 74       		.byte	0x74
 6382 1163 00       		.sleb128 0
 6383 1164 00       		.byte	0
 6384 1165 00       		.byte	0
 6385 1166 00       		.byte	0
 6386 1167 00       		.byte	0
ARM GAS  C:\Users\legoc\AppData\Local\Temp\cc4EoOj2.s 			page 150


 6387 1168 00       		.byte	0
 6388 1169 00       		.byte	0
 6389 116a 1D       		.uleb128 0x1d
 6390 116b D6000000 		.4byte	0xd6
 6391 116f A60A0000 		.4byte	.LBB376
 6392 1173 5E000000 		.4byte	.LBE376-.LBB376
 6393 1177 01       		.byte	0x1
 6394 1178 A404     		.2byte	0x4a4
 6395 117a FD110000 		.4byte	0x11fd
 6396 117e 1E       		.uleb128 0x1e
 6397 117f 03010000 		.4byte	0x103
 6398 1183 1E       		.uleb128 0x1e
 6399 1184 F7000000 		.4byte	0xf7
 6400 1188 10       		.uleb128 0x10
 6401 1189 ED000000 		.4byte	0xed
 6402 118d 80150000 		.4byte	.LLST159
 6403 1191 10       		.uleb128 0x10
 6404 1192 E3000000 		.4byte	0xe3
 6405 1196 9E150000 		.4byte	.LLST160
 6406 119a 13       		.uleb128 0x13
 6407 119b A60A0000 		.4byte	.LBB377
 6408 119f 5E000000 		.4byte	.LBE377-.LBB377
 6409 11a3 11       		.uleb128 0x11
 6410 11a4 0F010000 		.4byte	0x10f
 6411 11a8 B1150000 		.4byte	.LLST161
 6412 11ac 11       		.uleb128 0x11
 6413 11ad 1B010000 		.4byte	0x11b
 6414 11b1 DC150000 		.4byte	.LLST162
 6415 11b5 13       		.uleb128 0x13
 6416 11b6 C60A0000 		.4byte	.LBB378
 6417 11ba 3E000000 		.4byte	.LBE378-.LBB378
 6418 11be 11       		.uleb128 0x11
 6419 11bf 38010000 		.4byte	0x138
 6420 11c3 F0150000 		.4byte	.LLST163
 6421 11c7 13       		.uleb128 0x13
 6422 11c8 C60A0000 		.4byte	.LBB379
 6423 11cc 24000000 		.4byte	.LBE379-.LBB379
 6424 11d0 11       		.uleb128 0x11
 6425 11d1 43010000 		.4byte	0x143
 6426 11d5 04160000 		.4byte	.LLST164
 6427 11d9 13       		.uleb128 0x13
 6428 11da D60A0000 		.4byte	.LBB380
 6429 11de 0E000000 		.4byte	.LBE380-.LBB380
 6430 11e2 15       		.uleb128 0x15
 6431 11e3 E40A0000 		.4byte	.LVL342
 6432 11e7 0E1F0000 		.4byte	0x1f0e
 6433 11eb 16       		.uleb128 0x16
 6434 11ec 01       		.uleb128 0x1
 6435 11ed 51       		.byte	0x51
 6436 11ee 02       		.uleb128 0x2
 6437 11ef 75       		.byte	0x75
 6438 11f0 00       		.sleb128 0
 6439 11f1 16       		.uleb128 0x16
 6440 11f2 01       		.uleb128 0x1
 6441 11f3 52       		.byte	0x52
 6442 11f4 02       		.uleb128 0x2
 6443 11f5 74       		.byte	0x74
ARM GAS  C:\Users\legoc\AppData\Local\Temp\cc4EoOj2.s 			page 151


 6444 11f6 00       		.sleb128 0
 6445 11f7 00       		.byte	0
 6446 11f8 00       		.byte	0
 6447 11f9 00       		.byte	0
 6448 11fa 00       		.byte	0
 6449 11fb 00       		.byte	0
 6450 11fc 00       		.byte	0
 6451 11fd 1D       		.uleb128 0x1d
 6452 11fe D6000000 		.4byte	0xd6
 6453 1202 040B0000 		.4byte	.LBB381
 6454 1206 5E000000 		.4byte	.LBE381-.LBB381
 6455 120a 01       		.byte	0x1
 6456 120b A704     		.2byte	0x4a7
 6457 120d 90120000 		.4byte	0x1290
 6458 1211 1E       		.uleb128 0x1e
 6459 1212 03010000 		.4byte	0x103
 6460 1216 1E       		.uleb128 0x1e
 6461 1217 F7000000 		.4byte	0xf7
 6462 121b 10       		.uleb128 0x10
 6463 121c ED000000 		.4byte	0xed
 6464 1220 18160000 		.4byte	.LLST165
 6465 1224 10       		.uleb128 0x10
 6466 1225 E3000000 		.4byte	0xe3
 6467 1229 36160000 		.4byte	.LLST166
 6468 122d 13       		.uleb128 0x13
 6469 122e 040B0000 		.4byte	.LBB382
 6470 1232 5E000000 		.4byte	.LBE382-.LBB382
 6471 1236 11       		.uleb128 0x11
 6472 1237 0F010000 		.4byte	0x10f
 6473 123b 49160000 		.4byte	.LLST167
 6474 123f 11       		.uleb128 0x11
 6475 1240 1B010000 		.4byte	0x11b
 6476 1244 74160000 		.4byte	.LLST168
 6477 1248 13       		.uleb128 0x13
 6478 1249 240B0000 		.4byte	.LBB383
 6479 124d 3E000000 		.4byte	.LBE383-.LBB383
 6480 1251 11       		.uleb128 0x11
 6481 1252 38010000 		.4byte	0x138
 6482 1256 88160000 		.4byte	.LLST169
 6483 125a 13       		.uleb128 0x13
 6484 125b 240B0000 		.4byte	.LBB384
 6485 125f 24000000 		.4byte	.LBE384-.LBB384
 6486 1263 11       		.uleb128 0x11
 6487 1264 43010000 		.4byte	0x143
 6488 1268 9C160000 		.4byte	.LLST170
 6489 126c 13       		.uleb128 0x13
 6490 126d 340B0000 		.4byte	.LBB385
 6491 1271 0E000000 		.4byte	.LBE385-.LBB385
 6492 1275 15       		.uleb128 0x15
 6493 1276 420B0000 		.4byte	.LVL351
 6494 127a 0E1F0000 		.4byte	0x1f0e
 6495 127e 16       		.uleb128 0x16
 6496 127f 01       		.uleb128 0x1
 6497 1280 51       		.byte	0x51
 6498 1281 02       		.uleb128 0x2
 6499 1282 75       		.byte	0x75
 6500 1283 00       		.sleb128 0
ARM GAS  C:\Users\legoc\AppData\Local\Temp\cc4EoOj2.s 			page 152


 6501 1284 16       		.uleb128 0x16
 6502 1285 01       		.uleb128 0x1
 6503 1286 52       		.byte	0x52
 6504 1287 02       		.uleb128 0x2
 6505 1288 74       		.byte	0x74
 6506 1289 00       		.sleb128 0
 6507 128a 00       		.byte	0
 6508 128b 00       		.byte	0
 6509 128c 00       		.byte	0
 6510 128d 00       		.byte	0
 6511 128e 00       		.byte	0
 6512 128f 00       		.byte	0
 6513 1290 1D       		.uleb128 0x1d
 6514 1291 D6000000 		.4byte	0xd6
 6515 1295 620B0000 		.4byte	.LBB386
 6516 1299 5E000000 		.4byte	.LBE386-.LBB386
 6517 129d 01       		.byte	0x1
 6518 129e A104     		.2byte	0x4a1
 6519 12a0 23130000 		.4byte	0x1323
 6520 12a4 1E       		.uleb128 0x1e
 6521 12a5 03010000 		.4byte	0x103
 6522 12a9 1E       		.uleb128 0x1e
 6523 12aa F7000000 		.4byte	0xf7
 6524 12ae 10       		.uleb128 0x10
 6525 12af ED000000 		.4byte	0xed
 6526 12b3 B0160000 		.4byte	.LLST171
 6527 12b7 10       		.uleb128 0x10
 6528 12b8 E3000000 		.4byte	0xe3
 6529 12bc CE160000 		.4byte	.LLST172
 6530 12c0 13       		.uleb128 0x13
 6531 12c1 620B0000 		.4byte	.LBB387
 6532 12c5 5E000000 		.4byte	.LBE387-.LBB387
 6533 12c9 11       		.uleb128 0x11
 6534 12ca 0F010000 		.4byte	0x10f
 6535 12ce E1160000 		.4byte	.LLST173
 6536 12d2 11       		.uleb128 0x11
 6537 12d3 1B010000 		.4byte	0x11b
 6538 12d7 0B170000 		.4byte	.LLST174
 6539 12db 13       		.uleb128 0x13
 6540 12dc 820B0000 		.4byte	.LBB388
 6541 12e0 3E000000 		.4byte	.LBE388-.LBB388
 6542 12e4 11       		.uleb128 0x11
 6543 12e5 38010000 		.4byte	0x138
 6544 12e9 1F170000 		.4byte	.LLST175
 6545 12ed 13       		.uleb128 0x13
 6546 12ee 820B0000 		.4byte	.LBB389
 6547 12f2 24000000 		.4byte	.LBE389-.LBB389
 6548 12f6 11       		.uleb128 0x11
 6549 12f7 43010000 		.4byte	0x143
 6550 12fb 33170000 		.4byte	.LLST176
 6551 12ff 13       		.uleb128 0x13
 6552 1300 920B0000 		.4byte	.LBB390
 6553 1304 0E000000 		.4byte	.LBE390-.LBB390
 6554 1308 15       		.uleb128 0x15
 6555 1309 A00B0000 		.4byte	.LVL360
 6556 130d 0E1F0000 		.4byte	0x1f0e
 6557 1311 16       		.uleb128 0x16
ARM GAS  C:\Users\legoc\AppData\Local\Temp\cc4EoOj2.s 			page 153


 6558 1312 01       		.uleb128 0x1
 6559 1313 51       		.byte	0x51
 6560 1314 02       		.uleb128 0x2
 6561 1315 75       		.byte	0x75
 6562 1316 00       		.sleb128 0
 6563 1317 16       		.uleb128 0x16
 6564 1318 01       		.uleb128 0x1
 6565 1319 52       		.byte	0x52
 6566 131a 02       		.uleb128 0x2
 6567 131b 74       		.byte	0x74
 6568 131c 00       		.sleb128 0
 6569 131d 00       		.byte	0
 6570 131e 00       		.byte	0
 6571 131f 00       		.byte	0
 6572 1320 00       		.byte	0
 6573 1321 00       		.byte	0
 6574 1322 00       		.byte	0
 6575 1323 1D       		.uleb128 0x1d
 6576 1324 D6000000 		.4byte	0xd6
 6577 1328 C00B0000 		.4byte	.LBB391
 6578 132c 5E000000 		.4byte	.LBE391-.LBB391
 6579 1330 01       		.byte	0x1
 6580 1331 BC04     		.2byte	0x4bc
 6581 1333 B6130000 		.4byte	0x13b6
 6582 1337 1E       		.uleb128 0x1e
 6583 1338 03010000 		.4byte	0x103
 6584 133c 1E       		.uleb128 0x1e
 6585 133d F7000000 		.4byte	0xf7
 6586 1341 10       		.uleb128 0x10
 6587 1342 ED000000 		.4byte	0xed
 6588 1346 47170000 		.4byte	.LLST177
 6589 134a 10       		.uleb128 0x10
 6590 134b E3000000 		.4byte	0xe3
 6591 134f 65170000 		.4byte	.LLST178
 6592 1353 13       		.uleb128 0x13
 6593 1354 C00B0000 		.4byte	.LBB392
 6594 1358 5E000000 		.4byte	.LBE392-.LBB392
 6595 135c 11       		.uleb128 0x11
 6596 135d 0F010000 		.4byte	0x10f
 6597 1361 78170000 		.4byte	.LLST179
 6598 1365 11       		.uleb128 0x11
 6599 1366 1B010000 		.4byte	0x11b
 6600 136a A3170000 		.4byte	.LLST180
 6601 136e 13       		.uleb128 0x13
 6602 136f E00B0000 		.4byte	.LBB393
 6603 1373 3E000000 		.4byte	.LBE393-.LBB393
 6604 1377 11       		.uleb128 0x11
 6605 1378 38010000 		.4byte	0x138
 6606 137c B7170000 		.4byte	.LLST181
 6607 1380 13       		.uleb128 0x13
 6608 1381 E00B0000 		.4byte	.LBB394
 6609 1385 24000000 		.4byte	.LBE394-.LBB394
 6610 1389 11       		.uleb128 0x11
 6611 138a 43010000 		.4byte	0x143
 6612 138e CB170000 		.4byte	.LLST182
 6613 1392 13       		.uleb128 0x13
 6614 1393 F00B0000 		.4byte	.LBB395
ARM GAS  C:\Users\legoc\AppData\Local\Temp\cc4EoOj2.s 			page 154


 6615 1397 0E000000 		.4byte	.LBE395-.LBB395
 6616 139b 15       		.uleb128 0x15
 6617 139c FE0B0000 		.4byte	.LVL369
 6618 13a0 0E1F0000 		.4byte	0x1f0e
 6619 13a4 16       		.uleb128 0x16
 6620 13a5 01       		.uleb128 0x1
 6621 13a6 51       		.byte	0x51
 6622 13a7 02       		.uleb128 0x2
 6623 13a8 75       		.byte	0x75
 6624 13a9 00       		.sleb128 0
 6625 13aa 16       		.uleb128 0x16
 6626 13ab 01       		.uleb128 0x1
 6627 13ac 52       		.byte	0x52
 6628 13ad 02       		.uleb128 0x2
 6629 13ae 74       		.byte	0x74
 6630 13af 00       		.sleb128 0
 6631 13b0 00       		.byte	0
 6632 13b1 00       		.byte	0
 6633 13b2 00       		.byte	0
 6634 13b3 00       		.byte	0
 6635 13b4 00       		.byte	0
 6636 13b5 00       		.byte	0
 6637 13b6 1D       		.uleb128 0x1d
 6638 13b7 D6000000 		.4byte	0xd6
 6639 13bb 1E0C0000 		.4byte	.LBB396
 6640 13bf 62000000 		.4byte	.LBE396-.LBB396
 6641 13c3 01       		.byte	0x1
 6642 13c4 B904     		.2byte	0x4b9
 6643 13c6 49140000 		.4byte	0x1449
 6644 13ca 1E       		.uleb128 0x1e
 6645 13cb 03010000 		.4byte	0x103
 6646 13cf 1E       		.uleb128 0x1e
 6647 13d0 F7000000 		.4byte	0xf7
 6648 13d4 10       		.uleb128 0x10
 6649 13d5 ED000000 		.4byte	0xed
 6650 13d9 DF170000 		.4byte	.LLST183
 6651 13dd 10       		.uleb128 0x10
 6652 13de E3000000 		.4byte	0xe3
 6653 13e2 FD170000 		.4byte	.LLST184
 6654 13e6 13       		.uleb128 0x13
 6655 13e7 1E0C0000 		.4byte	.LBB397
 6656 13eb 62000000 		.4byte	.LBE397-.LBB397
 6657 13ef 11       		.uleb128 0x11
 6658 13f0 0F010000 		.4byte	0x10f
 6659 13f4 10180000 		.4byte	.LLST185
 6660 13f8 11       		.uleb128 0x11
 6661 13f9 1B010000 		.4byte	0x11b
 6662 13fd 3B180000 		.4byte	.LLST186
 6663 1401 13       		.uleb128 0x13
 6664 1402 3E0C0000 		.4byte	.LBB398
 6665 1406 42000000 		.4byte	.LBE398-.LBB398
 6666 140a 11       		.uleb128 0x11
 6667 140b 38010000 		.4byte	0x138
 6668 140f 4F180000 		.4byte	.LLST187
 6669 1413 13       		.uleb128 0x13
 6670 1414 3E0C0000 		.4byte	.LBB399
 6671 1418 24000000 		.4byte	.LBE399-.LBB399
ARM GAS  C:\Users\legoc\AppData\Local\Temp\cc4EoOj2.s 			page 155


 6672 141c 11       		.uleb128 0x11
 6673 141d 43010000 		.4byte	0x143
 6674 1421 63180000 		.4byte	.LLST188
 6675 1425 13       		.uleb128 0x13
 6676 1426 4E0C0000 		.4byte	.LBB400
 6677 142a 0E000000 		.4byte	.LBE400-.LBB400
 6678 142e 15       		.uleb128 0x15
 6679 142f 5C0C0000 		.4byte	.LVL378
 6680 1433 0E1F0000 		.4byte	0x1f0e
 6681 1437 16       		.uleb128 0x16
 6682 1438 01       		.uleb128 0x1
 6683 1439 51       		.byte	0x51
 6684 143a 02       		.uleb128 0x2
 6685 143b 75       		.byte	0x75
 6686 143c 00       		.sleb128 0
 6687 143d 16       		.uleb128 0x16
 6688 143e 01       		.uleb128 0x1
 6689 143f 52       		.byte	0x52
 6690 1440 02       		.uleb128 0x2
 6691 1441 74       		.byte	0x74
 6692 1442 00       		.sleb128 0
 6693 1443 00       		.byte	0
 6694 1444 00       		.byte	0
 6695 1445 00       		.byte	0
 6696 1446 00       		.byte	0
 6697 1447 00       		.byte	0
 6698 1448 00       		.byte	0
 6699 1449 1D       		.uleb128 0x1d
 6700 144a D6000000 		.4byte	0xd6
 6701 144e 800C0000 		.4byte	.LBB401
 6702 1452 5E000000 		.4byte	.LBE401-.LBB401
 6703 1456 01       		.byte	0x1
 6704 1457 BF04     		.2byte	0x4bf
 6705 1459 DC140000 		.4byte	0x14dc
 6706 145d 1E       		.uleb128 0x1e
 6707 145e 03010000 		.4byte	0x103
 6708 1462 1E       		.uleb128 0x1e
 6709 1463 F7000000 		.4byte	0xf7
 6710 1467 10       		.uleb128 0x10
 6711 1468 ED000000 		.4byte	0xed
 6712 146c 77180000 		.4byte	.LLST189
 6713 1470 10       		.uleb128 0x10
 6714 1471 E3000000 		.4byte	0xe3
 6715 1475 95180000 		.4byte	.LLST190
 6716 1479 13       		.uleb128 0x13
 6717 147a 800C0000 		.4byte	.LBB402
 6718 147e 5E000000 		.4byte	.LBE402-.LBB402
 6719 1482 11       		.uleb128 0x11
 6720 1483 0F010000 		.4byte	0x10f
 6721 1487 A8180000 		.4byte	.LLST191
 6722 148b 11       		.uleb128 0x11
 6723 148c 1B010000 		.4byte	0x11b
 6724 1490 D4180000 		.4byte	.LLST192
 6725 1494 13       		.uleb128 0x13
 6726 1495 A00C0000 		.4byte	.LBB403
 6727 1499 3E000000 		.4byte	.LBE403-.LBB403
 6728 149d 11       		.uleb128 0x11
ARM GAS  C:\Users\legoc\AppData\Local\Temp\cc4EoOj2.s 			page 156


 6729 149e 38010000 		.4byte	0x138
 6730 14a2 E8180000 		.4byte	.LLST193
 6731 14a6 13       		.uleb128 0x13
 6732 14a7 A00C0000 		.4byte	.LBB404
 6733 14ab 24000000 		.4byte	.LBE404-.LBB404
 6734 14af 11       		.uleb128 0x11
 6735 14b0 43010000 		.4byte	0x143
 6736 14b4 FC180000 		.4byte	.LLST194
 6737 14b8 13       		.uleb128 0x13
 6738 14b9 B00C0000 		.4byte	.LBB405
 6739 14bd 0E000000 		.4byte	.LBE405-.LBB405
 6740 14c1 15       		.uleb128 0x15
 6741 14c2 BE0C0000 		.4byte	.LVL387
 6742 14c6 0E1F0000 		.4byte	0x1f0e
 6743 14ca 16       		.uleb128 0x16
 6744 14cb 01       		.uleb128 0x1
 6745 14cc 51       		.byte	0x51
 6746 14cd 02       		.uleb128 0x2
 6747 14ce 75       		.byte	0x75
 6748 14cf 00       		.sleb128 0
 6749 14d0 16       		.uleb128 0x16
 6750 14d1 01       		.uleb128 0x1
 6751 14d2 52       		.byte	0x52
 6752 14d3 02       		.uleb128 0x2
 6753 14d4 74       		.byte	0x74
 6754 14d5 00       		.sleb128 0
 6755 14d6 00       		.byte	0
 6756 14d7 00       		.byte	0
 6757 14d8 00       		.byte	0
 6758 14d9 00       		.byte	0
 6759 14da 00       		.byte	0
 6760 14db 00       		.byte	0
 6761 14dc 1D       		.uleb128 0x1d
 6762 14dd D6000000 		.4byte	0xd6
 6763 14e1 DE0C0000 		.4byte	.LBB406
 6764 14e5 5E000000 		.4byte	.LBE406-.LBB406
 6765 14e9 01       		.byte	0x1
 6766 14ea B004     		.2byte	0x4b0
 6767 14ec 6F150000 		.4byte	0x156f
 6768 14f0 1E       		.uleb128 0x1e
 6769 14f1 03010000 		.4byte	0x103
 6770 14f5 1E       		.uleb128 0x1e
 6771 14f6 F7000000 		.4byte	0xf7
 6772 14fa 10       		.uleb128 0x10
 6773 14fb ED000000 		.4byte	0xed
 6774 14ff 10190000 		.4byte	.LLST195
 6775 1503 10       		.uleb128 0x10
 6776 1504 E3000000 		.4byte	0xe3
 6777 1508 2E190000 		.4byte	.LLST196
 6778 150c 13       		.uleb128 0x13
 6779 150d DE0C0000 		.4byte	.LBB407
 6780 1511 5E000000 		.4byte	.LBE407-.LBB407
 6781 1515 11       		.uleb128 0x11
 6782 1516 0F010000 		.4byte	0x10f
 6783 151a 41190000 		.4byte	.LLST197
 6784 151e 11       		.uleb128 0x11
 6785 151f 1B010000 		.4byte	0x11b
ARM GAS  C:\Users\legoc\AppData\Local\Temp\cc4EoOj2.s 			page 157


 6786 1523 6C190000 		.4byte	.LLST198
 6787 1527 13       		.uleb128 0x13
 6788 1528 FE0C0000 		.4byte	.LBB408
 6789 152c 3E000000 		.4byte	.LBE408-.LBB408
 6790 1530 11       		.uleb128 0x11
 6791 1531 38010000 		.4byte	0x138
 6792 1535 80190000 		.4byte	.LLST199
 6793 1539 13       		.uleb128 0x13
 6794 153a FE0C0000 		.4byte	.LBB409
 6795 153e 24000000 		.4byte	.LBE409-.LBB409
 6796 1542 11       		.uleb128 0x11
 6797 1543 43010000 		.4byte	0x143
 6798 1547 94190000 		.4byte	.LLST200
 6799 154b 13       		.uleb128 0x13
 6800 154c 0E0D0000 		.4byte	.LBB410
 6801 1550 0E000000 		.4byte	.LBE410-.LBB410
 6802 1554 15       		.uleb128 0x15
 6803 1555 1C0D0000 		.4byte	.LVL396
 6804 1559 0E1F0000 		.4byte	0x1f0e
 6805 155d 16       		.uleb128 0x16
 6806 155e 01       		.uleb128 0x1
 6807 155f 51       		.byte	0x51
 6808 1560 02       		.uleb128 0x2
 6809 1561 75       		.byte	0x75
 6810 1562 00       		.sleb128 0
 6811 1563 16       		.uleb128 0x16
 6812 1564 01       		.uleb128 0x1
 6813 1565 52       		.byte	0x52
 6814 1566 02       		.uleb128 0x2
 6815 1567 74       		.byte	0x74
 6816 1568 00       		.sleb128 0
 6817 1569 00       		.byte	0
 6818 156a 00       		.byte	0
 6819 156b 00       		.byte	0
 6820 156c 00       		.byte	0
 6821 156d 00       		.byte	0
 6822 156e 00       		.byte	0
 6823 156f 1D       		.uleb128 0x1d
 6824 1570 D6000000 		.4byte	0xd6
 6825 1574 3C0D0000 		.4byte	.LBB411
 6826 1578 5E000000 		.4byte	.LBE411-.LBB411
 6827 157c 01       		.byte	0x1
 6828 157d AD04     		.2byte	0x4ad
 6829 157f 02160000 		.4byte	0x1602
 6830 1583 1E       		.uleb128 0x1e
 6831 1584 03010000 		.4byte	0x103
 6832 1588 1E       		.uleb128 0x1e
 6833 1589 F7000000 		.4byte	0xf7
 6834 158d 10       		.uleb128 0x10
 6835 158e ED000000 		.4byte	0xed
 6836 1592 A8190000 		.4byte	.LLST201
 6837 1596 10       		.uleb128 0x10
 6838 1597 E3000000 		.4byte	0xe3
 6839 159b C6190000 		.4byte	.LLST202
 6840 159f 13       		.uleb128 0x13
 6841 15a0 3C0D0000 		.4byte	.LBB412
 6842 15a4 5E000000 		.4byte	.LBE412-.LBB412
ARM GAS  C:\Users\legoc\AppData\Local\Temp\cc4EoOj2.s 			page 158


 6843 15a8 11       		.uleb128 0x11
 6844 15a9 0F010000 		.4byte	0x10f
 6845 15ad D9190000 		.4byte	.LLST203
 6846 15b1 11       		.uleb128 0x11
 6847 15b2 1B010000 		.4byte	0x11b
 6848 15b6 041A0000 		.4byte	.LLST204
 6849 15ba 13       		.uleb128 0x13
 6850 15bb 5C0D0000 		.4byte	.LBB413
 6851 15bf 3E000000 		.4byte	.LBE413-.LBB413
 6852 15c3 11       		.uleb128 0x11
 6853 15c4 38010000 		.4byte	0x138
 6854 15c8 181A0000 		.4byte	.LLST205
 6855 15cc 13       		.uleb128 0x13
 6856 15cd 5C0D0000 		.4byte	.LBB414
 6857 15d1 24000000 		.4byte	.LBE414-.LBB414
 6858 15d5 11       		.uleb128 0x11
 6859 15d6 43010000 		.4byte	0x143
 6860 15da 2C1A0000 		.4byte	.LLST206
 6861 15de 13       		.uleb128 0x13
 6862 15df 6C0D0000 		.4byte	.LBB415
 6863 15e3 0E000000 		.4byte	.LBE415-.LBB415
 6864 15e7 15       		.uleb128 0x15
 6865 15e8 7A0D0000 		.4byte	.LVL405
 6866 15ec 0E1F0000 		.4byte	0x1f0e
 6867 15f0 16       		.uleb128 0x16
 6868 15f1 01       		.uleb128 0x1
 6869 15f2 51       		.byte	0x51
 6870 15f3 02       		.uleb128 0x2
 6871 15f4 75       		.byte	0x75
 6872 15f5 00       		.sleb128 0
 6873 15f6 16       		.uleb128 0x16
 6874 15f7 01       		.uleb128 0x1
 6875 15f8 52       		.byte	0x52
 6876 15f9 02       		.uleb128 0x2
 6877 15fa 74       		.byte	0x74
 6878 15fb 00       		.sleb128 0
 6879 15fc 00       		.byte	0
 6880 15fd 00       		.byte	0
 6881 15fe 00       		.byte	0
 6882 15ff 00       		.byte	0
 6883 1600 00       		.byte	0
 6884 1601 00       		.byte	0
 6885 1602 1D       		.uleb128 0x1d
 6886 1603 D6000000 		.4byte	0xd6
 6887 1607 9A0D0000 		.4byte	.LBB416
 6888 160b 5E000000 		.4byte	.LBE416-.LBB416
 6889 160f 01       		.byte	0x1
 6890 1610 B304     		.2byte	0x4b3
 6891 1612 95160000 		.4byte	0x1695
 6892 1616 1E       		.uleb128 0x1e
 6893 1617 03010000 		.4byte	0x103
 6894 161b 1E       		.uleb128 0x1e
 6895 161c F7000000 		.4byte	0xf7
 6896 1620 10       		.uleb128 0x10
 6897 1621 ED000000 		.4byte	0xed
 6898 1625 401A0000 		.4byte	.LLST207
 6899 1629 10       		.uleb128 0x10
ARM GAS  C:\Users\legoc\AppData\Local\Temp\cc4EoOj2.s 			page 159


 6900 162a E3000000 		.4byte	0xe3
 6901 162e 5E1A0000 		.4byte	.LLST208
 6902 1632 13       		.uleb128 0x13
 6903 1633 9A0D0000 		.4byte	.LBB417
 6904 1637 5E000000 		.4byte	.LBE417-.LBB417
 6905 163b 11       		.uleb128 0x11
 6906 163c 0F010000 		.4byte	0x10f
 6907 1640 711A0000 		.4byte	.LLST209
 6908 1644 11       		.uleb128 0x11
 6909 1645 1B010000 		.4byte	0x11b
 6910 1649 9C1A0000 		.4byte	.LLST210
 6911 164d 13       		.uleb128 0x13
 6912 164e BA0D0000 		.4byte	.LBB418
 6913 1652 3E000000 		.4byte	.LBE418-.LBB418
 6914 1656 11       		.uleb128 0x11
 6915 1657 38010000 		.4byte	0x138
 6916 165b B01A0000 		.4byte	.LLST211
 6917 165f 13       		.uleb128 0x13
 6918 1660 BA0D0000 		.4byte	.LBB419
 6919 1664 24000000 		.4byte	.LBE419-.LBB419
 6920 1668 11       		.uleb128 0x11
 6921 1669 43010000 		.4byte	0x143
 6922 166d C41A0000 		.4byte	.LLST212
 6923 1671 13       		.uleb128 0x13
 6924 1672 CA0D0000 		.4byte	.LBB420
 6925 1676 0E000000 		.4byte	.LBE420-.LBB420
 6926 167a 15       		.uleb128 0x15
 6927 167b D80D0000 		.4byte	.LVL414
 6928 167f 0E1F0000 		.4byte	0x1f0e
 6929 1683 16       		.uleb128 0x16
 6930 1684 01       		.uleb128 0x1
 6931 1685 51       		.byte	0x51
 6932 1686 02       		.uleb128 0x2
 6933 1687 75       		.byte	0x75
 6934 1688 00       		.sleb128 0
 6935 1689 16       		.uleb128 0x16
 6936 168a 01       		.uleb128 0x1
 6937 168b 52       		.byte	0x52
 6938 168c 02       		.uleb128 0x2
 6939 168d 74       		.byte	0x74
 6940 168e 00       		.sleb128 0
 6941 168f 00       		.byte	0
 6942 1690 00       		.byte	0
 6943 1691 00       		.byte	0
 6944 1692 00       		.byte	0
 6945 1693 00       		.byte	0
 6946 1694 00       		.byte	0
 6947 1695 1D       		.uleb128 0x1d
 6948 1696 D6000000 		.4byte	0xd6
 6949 169a 040E0000 		.4byte	.LBB421
 6950 169e 66000000 		.4byte	.LBE421-.LBB421
 6951 16a2 01       		.byte	0x1
 6952 16a3 EC04     		.2byte	0x4ec
 6953 16a5 3B170000 		.4byte	0x173b
 6954 16a9 1E       		.uleb128 0x1e
 6955 16aa 03010000 		.4byte	0x103
 6956 16ae 1E       		.uleb128 0x1e
ARM GAS  C:\Users\legoc\AppData\Local\Temp\cc4EoOj2.s 			page 160


 6957 16af F7000000 		.4byte	0xf7
 6958 16b3 10       		.uleb128 0x10
 6959 16b4 ED000000 		.4byte	0xed
 6960 16b8 D81A0000 		.4byte	.LLST213
 6961 16bc 10       		.uleb128 0x10
 6962 16bd E3000000 		.4byte	0xe3
 6963 16c1 F61A0000 		.4byte	.LLST214
 6964 16c5 13       		.uleb128 0x13
 6965 16c6 040E0000 		.4byte	.LBB422
 6966 16ca 66000000 		.4byte	.LBE422-.LBB422
 6967 16ce 11       		.uleb128 0x11
 6968 16cf 0F010000 		.4byte	0x10f
 6969 16d3 091B0000 		.4byte	.LLST215
 6970 16d7 11       		.uleb128 0x11
 6971 16d8 1B010000 		.4byte	0x11b
 6972 16dc 4A1B0000 		.4byte	.LLST216
 6973 16e0 1F       		.uleb128 0x1f
 6974 16e1 040E0000 		.4byte	.LBB423
 6975 16e5 0A000000 		.4byte	.LBE423-.LBB423
 6976 16e9 F3160000 		.4byte	0x16f3
 6977 16ed 20       		.uleb128 0x20
 6978 16ee 2C010000 		.4byte	0x12c
 6979 16f2 00       		.byte	0
 6980 16f3 13       		.uleb128 0x13
 6981 16f4 2C0E0000 		.4byte	.LBB424
 6982 16f8 3E000000 		.4byte	.LBE424-.LBB424
 6983 16fc 11       		.uleb128 0x11
 6984 16fd 38010000 		.4byte	0x138
 6985 1701 5E1B0000 		.4byte	.LLST217
 6986 1705 13       		.uleb128 0x13
 6987 1706 2C0E0000 		.4byte	.LBB425
 6988 170a 28000000 		.4byte	.LBE425-.LBB425
 6989 170e 11       		.uleb128 0x11
 6990 170f 43010000 		.4byte	0x143
 6991 1713 721B0000 		.4byte	.LLST218
 6992 1717 13       		.uleb128 0x13
 6993 1718 400E0000 		.4byte	.LBB426
 6994 171c 0E000000 		.4byte	.LBE426-.LBB426
 6995 1720 15       		.uleb128 0x15
 6996 1721 4E0E0000 		.4byte	.LVL429
 6997 1725 0E1F0000 		.4byte	0x1f0e
 6998 1729 16       		.uleb128 0x16
 6999 172a 01       		.uleb128 0x1
 7000 172b 51       		.byte	0x51
 7001 172c 02       		.uleb128 0x2
 7002 172d 75       		.byte	0x75
 7003 172e 00       		.sleb128 0
 7004 172f 16       		.uleb128 0x16
 7005 1730 01       		.uleb128 0x1
 7006 1731 52       		.byte	0x52
 7007 1732 02       		.uleb128 0x2
 7008 1733 74       		.byte	0x74
 7009 1734 00       		.sleb128 0
 7010 1735 00       		.byte	0
 7011 1736 00       		.byte	0
 7012 1737 00       		.byte	0
 7013 1738 00       		.byte	0
ARM GAS  C:\Users\legoc\AppData\Local\Temp\cc4EoOj2.s 			page 161


 7014 1739 00       		.byte	0
 7015 173a 00       		.byte	0
 7016 173b 1D       		.uleb128 0x1d
 7017 173c D6000000 		.4byte	0xd6
 7018 1740 760E0000 		.4byte	.LBB427
 7019 1744 66000000 		.4byte	.LBE427-.LBB427
 7020 1748 01       		.byte	0x1
 7021 1749 E904     		.2byte	0x4e9
 7022 174b E1170000 		.4byte	0x17e1
 7023 174f 1E       		.uleb128 0x1e
 7024 1750 03010000 		.4byte	0x103
 7025 1754 1E       		.uleb128 0x1e
 7026 1755 F7000000 		.4byte	0xf7
 7027 1759 10       		.uleb128 0x10
 7028 175a ED000000 		.4byte	0xed
 7029 175e 861B0000 		.4byte	.LLST219
 7030 1762 10       		.uleb128 0x10
 7031 1763 E3000000 		.4byte	0xe3
 7032 1767 A41B0000 		.4byte	.LLST220
 7033 176b 13       		.uleb128 0x13
 7034 176c 760E0000 		.4byte	.LBB428
 7035 1770 66000000 		.4byte	.LBE428-.LBB428
 7036 1774 11       		.uleb128 0x11
 7037 1775 0F010000 		.4byte	0x10f
 7038 1779 B71B0000 		.4byte	.LLST221
 7039 177d 11       		.uleb128 0x11
 7040 177e 1B010000 		.4byte	0x11b
 7041 1782 F81B0000 		.4byte	.LLST222
 7042 1786 1F       		.uleb128 0x1f
 7043 1787 760E0000 		.4byte	.LBB429
 7044 178b 0A000000 		.4byte	.LBE429-.LBB429
 7045 178f 99170000 		.4byte	0x1799
 7046 1793 20       		.uleb128 0x20
 7047 1794 2C010000 		.4byte	0x12c
 7048 1798 00       		.byte	0
 7049 1799 13       		.uleb128 0x13
 7050 179a 9E0E0000 		.4byte	.LBB430
 7051 179e 3E000000 		.4byte	.LBE430-.LBB430
 7052 17a2 11       		.uleb128 0x11
 7053 17a3 38010000 		.4byte	0x138
 7054 17a7 0C1C0000 		.4byte	.LLST223
 7055 17ab 13       		.uleb128 0x13
 7056 17ac 9E0E0000 		.4byte	.LBB431
 7057 17b0 28000000 		.4byte	.LBE431-.LBB431
 7058 17b4 11       		.uleb128 0x11
 7059 17b5 43010000 		.4byte	0x143
 7060 17b9 201C0000 		.4byte	.LLST224
 7061 17bd 13       		.uleb128 0x13
 7062 17be B20E0000 		.4byte	.LBB432
 7063 17c2 0E000000 		.4byte	.LBE432-.LBB432
 7064 17c6 15       		.uleb128 0x15
 7065 17c7 C00E0000 		.4byte	.LVL444
 7066 17cb 0E1F0000 		.4byte	0x1f0e
 7067 17cf 16       		.uleb128 0x16
 7068 17d0 01       		.uleb128 0x1
 7069 17d1 51       		.byte	0x51
 7070 17d2 02       		.uleb128 0x2
ARM GAS  C:\Users\legoc\AppData\Local\Temp\cc4EoOj2.s 			page 162


 7071 17d3 75       		.byte	0x75
 7072 17d4 00       		.sleb128 0
 7073 17d5 16       		.uleb128 0x16
 7074 17d6 01       		.uleb128 0x1
 7075 17d7 52       		.byte	0x52
 7076 17d8 02       		.uleb128 0x2
 7077 17d9 74       		.byte	0x74
 7078 17da 00       		.sleb128 0
 7079 17db 00       		.byte	0
 7080 17dc 00       		.byte	0
 7081 17dd 00       		.byte	0
 7082 17de 00       		.byte	0
 7083 17df 00       		.byte	0
 7084 17e0 00       		.byte	0
 7085 17e1 1D       		.uleb128 0x1d
 7086 17e2 D6000000 		.4byte	0xd6
 7087 17e6 E80E0000 		.4byte	.LBB433
 7088 17ea 66000000 		.4byte	.LBE433-.LBB433
 7089 17ee 01       		.byte	0x1
 7090 17ef EF04     		.2byte	0x4ef
 7091 17f1 87180000 		.4byte	0x1887
 7092 17f5 1E       		.uleb128 0x1e
 7093 17f6 03010000 		.4byte	0x103
 7094 17fa 1E       		.uleb128 0x1e
 7095 17fb F7000000 		.4byte	0xf7
 7096 17ff 10       		.uleb128 0x10
 7097 1800 ED000000 		.4byte	0xed
 7098 1804 341C0000 		.4byte	.LLST225
 7099 1808 10       		.uleb128 0x10
 7100 1809 E3000000 		.4byte	0xe3
 7101 180d 521C0000 		.4byte	.LLST226
 7102 1811 13       		.uleb128 0x13
 7103 1812 E80E0000 		.4byte	.LBB434
 7104 1816 66000000 		.4byte	.LBE434-.LBB434
 7105 181a 11       		.uleb128 0x11
 7106 181b 0F010000 		.4byte	0x10f
 7107 181f 651C0000 		.4byte	.LLST227
 7108 1823 11       		.uleb128 0x11
 7109 1824 1B010000 		.4byte	0x11b
 7110 1828 A61C0000 		.4byte	.LLST228
 7111 182c 1F       		.uleb128 0x1f
 7112 182d E80E0000 		.4byte	.LBB435
 7113 1831 0A000000 		.4byte	.LBE435-.LBB435
 7114 1835 3F180000 		.4byte	0x183f
 7115 1839 20       		.uleb128 0x20
 7116 183a 2C010000 		.4byte	0x12c
 7117 183e 00       		.byte	0
 7118 183f 13       		.uleb128 0x13
 7119 1840 100F0000 		.4byte	.LBB436
 7120 1844 3E000000 		.4byte	.LBE436-.LBB436
 7121 1848 11       		.uleb128 0x11
 7122 1849 38010000 		.4byte	0x138
 7123 184d BA1C0000 		.4byte	.LLST229
 7124 1851 13       		.uleb128 0x13
 7125 1852 100F0000 		.4byte	.LBB437
 7126 1856 28000000 		.4byte	.LBE437-.LBB437
 7127 185a 11       		.uleb128 0x11
ARM GAS  C:\Users\legoc\AppData\Local\Temp\cc4EoOj2.s 			page 163


 7128 185b 43010000 		.4byte	0x143
 7129 185f CE1C0000 		.4byte	.LLST230
 7130 1863 13       		.uleb128 0x13
 7131 1864 240F0000 		.4byte	.LBB438
 7132 1868 0E000000 		.4byte	.LBE438-.LBB438
 7133 186c 15       		.uleb128 0x15
 7134 186d 320F0000 		.4byte	.LVL459
 7135 1871 0E1F0000 		.4byte	0x1f0e
 7136 1875 16       		.uleb128 0x16
 7137 1876 01       		.uleb128 0x1
 7138 1877 51       		.byte	0x51
 7139 1878 02       		.uleb128 0x2
 7140 1879 75       		.byte	0x75
 7141 187a 00       		.sleb128 0
 7142 187b 16       		.uleb128 0x16
 7143 187c 01       		.uleb128 0x1
 7144 187d 52       		.byte	0x52
 7145 187e 02       		.uleb128 0x2
 7146 187f 74       		.byte	0x74
 7147 1880 00       		.sleb128 0
 7148 1881 00       		.byte	0
 7149 1882 00       		.byte	0
 7150 1883 00       		.byte	0
 7151 1884 00       		.byte	0
 7152 1885 00       		.byte	0
 7153 1886 00       		.byte	0
 7154 1887 1D       		.uleb128 0x1d
 7155 1888 D6000000 		.4byte	0xd6
 7156 188c 5A0F0000 		.4byte	.LBB439
 7157 1890 66000000 		.4byte	.LBE439-.LBB439
 7158 1894 01       		.byte	0x1
 7159 1895 D704     		.2byte	0x4d7
 7160 1897 2D190000 		.4byte	0x192d
 7161 189b 1E       		.uleb128 0x1e
 7162 189c 03010000 		.4byte	0x103
 7163 18a0 1E       		.uleb128 0x1e
 7164 18a1 F7000000 		.4byte	0xf7
 7165 18a5 10       		.uleb128 0x10
 7166 18a6 ED000000 		.4byte	0xed
 7167 18aa E21C0000 		.4byte	.LLST231
 7168 18ae 10       		.uleb128 0x10
 7169 18af E3000000 		.4byte	0xe3
 7170 18b3 001D0000 		.4byte	.LLST232
 7171 18b7 13       		.uleb128 0x13
 7172 18b8 5A0F0000 		.4byte	.LBB440
 7173 18bc 66000000 		.4byte	.LBE440-.LBB440
 7174 18c0 11       		.uleb128 0x11
 7175 18c1 0F010000 		.4byte	0x10f
 7176 18c5 131D0000 		.4byte	.LLST233
 7177 18c9 11       		.uleb128 0x11
 7178 18ca 1B010000 		.4byte	0x11b
 7179 18ce 541D0000 		.4byte	.LLST234
 7180 18d2 1F       		.uleb128 0x1f
 7181 18d3 5A0F0000 		.4byte	.LBB441
 7182 18d7 0A000000 		.4byte	.LBE441-.LBB441
 7183 18db E5180000 		.4byte	0x18e5
 7184 18df 20       		.uleb128 0x20
ARM GAS  C:\Users\legoc\AppData\Local\Temp\cc4EoOj2.s 			page 164


 7185 18e0 2C010000 		.4byte	0x12c
 7186 18e4 00       		.byte	0
 7187 18e5 13       		.uleb128 0x13
 7188 18e6 820F0000 		.4byte	.LBB442
 7189 18ea 3E000000 		.4byte	.LBE442-.LBB442
 7190 18ee 11       		.uleb128 0x11
 7191 18ef 38010000 		.4byte	0x138
 7192 18f3 681D0000 		.4byte	.LLST235
 7193 18f7 13       		.uleb128 0x13
 7194 18f8 820F0000 		.4byte	.LBB443
 7195 18fc 28000000 		.4byte	.LBE443-.LBB443
 7196 1900 11       		.uleb128 0x11
 7197 1901 43010000 		.4byte	0x143
 7198 1905 7C1D0000 		.4byte	.LLST236
 7199 1909 13       		.uleb128 0x13
 7200 190a 960F0000 		.4byte	.LBB444
 7201 190e 0E000000 		.4byte	.LBE444-.LBB444
 7202 1912 15       		.uleb128 0x15
 7203 1913 A40F0000 		.4byte	.LVL474
 7204 1917 0E1F0000 		.4byte	0x1f0e
 7205 191b 16       		.uleb128 0x16
 7206 191c 01       		.uleb128 0x1
 7207 191d 51       		.byte	0x51
 7208 191e 02       		.uleb128 0x2
 7209 191f 75       		.byte	0x75
 7210 1920 00       		.sleb128 0
 7211 1921 16       		.uleb128 0x16
 7212 1922 01       		.uleb128 0x1
 7213 1923 52       		.byte	0x52
 7214 1924 02       		.uleb128 0x2
 7215 1925 74       		.byte	0x74
 7216 1926 00       		.sleb128 0
 7217 1927 00       		.byte	0
 7218 1928 00       		.byte	0
 7219 1929 00       		.byte	0
 7220 192a 00       		.byte	0
 7221 192b 00       		.byte	0
 7222 192c 00       		.byte	0
 7223 192d 21       		.uleb128 0x21
 7224 192e D6000000 		.4byte	0xd6
 7225 1932 CC0F0000 		.4byte	.LBB445
 7226 1936 66000000 		.4byte	.LBE445-.LBB445
 7227 193a 01       		.byte	0x1
 7228 193b DD04     		.2byte	0x4dd
 7229 193d 1E       		.uleb128 0x1e
 7230 193e 03010000 		.4byte	0x103
 7231 1942 1E       		.uleb128 0x1e
 7232 1943 F7000000 		.4byte	0xf7
 7233 1947 10       		.uleb128 0x10
 7234 1948 ED000000 		.4byte	0xed
 7235 194c 901D0000 		.4byte	.LLST237
 7236 1950 22       		.uleb128 0x22
 7237 1951 E3000000 		.4byte	0xe3
 7238 1955 01       		.uleb128 0x1
 7239 1956 57       		.byte	0x57
 7240 1957 13       		.uleb128 0x13
 7241 1958 CC0F0000 		.4byte	.LBB446
ARM GAS  C:\Users\legoc\AppData\Local\Temp\cc4EoOj2.s 			page 165


 7242 195c 66000000 		.4byte	.LBE446-.LBB446
 7243 1960 11       		.uleb128 0x11
 7244 1961 0F010000 		.4byte	0x10f
 7245 1965 AE1D0000 		.4byte	.LLST238
 7246 1969 23       		.uleb128 0x23
 7247 196a 1B010000 		.4byte	0x11b
 7248 196e 07       		.byte	0x7
 7249 196f 1F       		.uleb128 0x1f
 7250 1970 CC0F0000 		.4byte	.LBB447
 7251 1974 0A000000 		.4byte	.LBE447-.LBB447
 7252 1978 82190000 		.4byte	0x1982
 7253 197c 20       		.uleb128 0x20
 7254 197d 2C010000 		.4byte	0x12c
 7255 1981 00       		.byte	0
 7256 1982 13       		.uleb128 0x13
 7257 1983 F40F0000 		.4byte	.LBB448
 7258 1987 3E000000 		.4byte	.LBE448-.LBB448
 7259 198b 11       		.uleb128 0x11
 7260 198c 38010000 		.4byte	0x138
 7261 1990 EF1D0000 		.4byte	.LLST239
 7262 1994 13       		.uleb128 0x13
 7263 1995 F40F0000 		.4byte	.LBB449
 7264 1999 28000000 		.4byte	.LBE449-.LBB449
 7265 199d 11       		.uleb128 0x11
 7266 199e 43010000 		.4byte	0x143
 7267 19a2 031E0000 		.4byte	.LLST240
 7268 19a6 13       		.uleb128 0x13
 7269 19a7 08100000 		.4byte	.LBB450
 7270 19ab 0E000000 		.4byte	.LBE450-.LBB450
 7271 19af 15       		.uleb128 0x15
 7272 19b0 16100000 		.4byte	.LVL489
 7273 19b4 0E1F0000 		.4byte	0x1f0e
 7274 19b8 16       		.uleb128 0x16
 7275 19b9 01       		.uleb128 0x1
 7276 19ba 51       		.byte	0x51
 7277 19bb 02       		.uleb128 0x2
 7278 19bc 75       		.byte	0x75
 7279 19bd 00       		.sleb128 0
 7280 19be 16       		.uleb128 0x16
 7281 19bf 01       		.uleb128 0x1
 7282 19c0 52       		.byte	0x52
 7283 19c1 02       		.uleb128 0x2
 7284 19c2 74       		.byte	0x74
 7285 19c3 00       		.sleb128 0
 7286 19c4 00       		.byte	0
 7287 19c5 00       		.byte	0
 7288 19c6 00       		.byte	0
 7289 19c7 00       		.byte	0
 7290 19c8 00       		.byte	0
 7291 19c9 00       		.byte	0
 7292 19ca 00       		.byte	0
 7293 19cb 00       		.byte	0
 7294 19cc 24       		.uleb128 0x24
 7295 19cd DC190000 		.4byte	0x19dc
 7296 19d1 DC190000 		.4byte	0x19dc
 7297 19d5 25       		.uleb128 0x25
 7298 19d6 C9000000 		.4byte	0xc9
ARM GAS  C:\Users\legoc\AppData\Local\Temp\cc4EoOj2.s 			page 166


 7299 19da 19       		.byte	0x19
 7300 19db 00       		.byte	0
 7301 19dc 26       		.uleb128 0x26
 7302 19dd 8C000000 		.4byte	0x8c
 7303 19e1 27       		.uleb128 0x27
 7304 19e2 1A020000 		.4byte	.LASF26
 7305 19e6 04       		.byte	0x4
 7306 19e7 0F       		.byte	0xf
 7307 19e8 071A0000 		.4byte	0x1a07
 7308 19ec 1A       		.byte	0x1a
 7309 19ed 03       		.byte	0x3
 7310 19ee 01       		.byte	0x1
 7311 19ef 02       		.byte	0x2
 7312 19f0 03       		.byte	0x3
 7313 19f1 02       		.byte	0x2
 7314 19f2 00       		.byte	0
 7315 19f3 04       		.byte	0x4
 7316 19f4 03       		.byte	0x3
 7317 19f5 00       		.byte	0
 7318 19f6 01       		.byte	0x1
 7319 19f7 04       		.byte	0x4
 7320 19f8 03       		.byte	0x3
 7321 19f9 00       		.byte	0
 7322 19fa 02       		.byte	0x2
 7323 19fb 04       		.byte	0x4
 7324 19fc 03       		.byte	0x3
 7325 19fd 00       		.byte	0
 7326 19fe 03       		.byte	0x3
 7327 19ff 04       		.byte	0x4
 7328 1a00 02       		.byte	0x2
 7329 1a01 00       		.byte	0
 7330 1a02 04       		.byte	0x4
 7331 1a03 03       		.byte	0x3
 7332 1a04 01       		.byte	0x1
 7333 1a05 02       		.byte	0x2
 7334 1a06 03       		.byte	0x3
 7335 1a07 26       		.uleb128 0x26
 7336 1a08 CC190000 		.4byte	0x19cc
 7337 1a0c 24       		.uleb128 0x24
 7338 1a0d DC190000 		.4byte	0x19dc
 7339 1a11 1C1A0000 		.4byte	0x1a1c
 7340 1a15 25       		.uleb128 0x25
 7341 1a16 C9000000 		.4byte	0xc9
 7342 1a1a 12       		.byte	0x12
 7343 1a1b 00       		.byte	0
 7344 1a1c 27       		.uleb128 0x27
 7345 1a1d 21020000 		.4byte	.LASF27
 7346 1a21 04       		.byte	0x4
 7347 1a22 21       		.byte	0x21
 7348 1a23 3B1A0000 		.4byte	0x1a3b
 7349 1a27 13       		.byte	0x13
 7350 1a28 05       		.byte	0x5
 7351 1a29 00       		.byte	0
 7352 1a2a 01       		.byte	0x1
 7353 1a2b 02       		.byte	0x2
 7354 1a2c 03       		.byte	0x3
 7355 1a2d 04       		.byte	0x4
ARM GAS  C:\Users\legoc\AppData\Local\Temp\cc4EoOj2.s 			page 167


 7356 1a2e 01       		.byte	0x1
 7357 1a2f 02       		.byte	0x2
 7358 1a30 01       		.byte	0x1
 7359 1a31 02       		.byte	0x2
 7360 1a32 01       		.byte	0x1
 7361 1a33 02       		.byte	0x2
 7362 1a34 01       		.byte	0x1
 7363 1a35 02       		.byte	0x2
 7364 1a36 02       		.byte	0x2
 7365 1a37 01       		.byte	0x1
 7366 1a38 02       		.byte	0x2
 7367 1a39 01       		.byte	0x1
 7368 1a3a 02       		.byte	0x2
 7369 1a3b 26       		.uleb128 0x26
 7370 1a3c 0C1A0000 		.4byte	0x1a0c
 7371 1a40 24       		.uleb128 0x24
 7372 1a41 DC190000 		.4byte	0x19dc
 7373 1a45 501A0000 		.4byte	0x1a50
 7374 1a49 25       		.uleb128 0x25
 7375 1a4a C9000000 		.4byte	0xc9
 7376 1a4e 16       		.byte	0x16
 7377 1a4f 00       		.byte	0
 7378 1a50 27       		.uleb128 0x27
 7379 1a51 28020000 		.4byte	.LASF28
 7380 1a55 04       		.byte	0x4
 7381 1a56 33       		.byte	0x33
 7382 1a57 731A0000 		.4byte	0x1a73
 7383 1a5b 17       		.byte	0x17
 7384 1a5c 05       		.byte	0x5
 7385 1a5d 00       		.byte	0
 7386 1a5e 01       		.byte	0x1
 7387 1a5f 02       		.byte	0x2
 7388 1a60 03       		.byte	0x3
 7389 1a61 04       		.byte	0x4
 7390 1a62 02       		.byte	0x2
 7391 1a63 00       		.byte	0
 7392 1a64 04       		.byte	0x4
 7393 1a65 01       		.byte	0x1
 7394 1a66 01       		.byte	0x1
 7395 1a67 02       		.byte	0x2
 7396 1a68 02       		.byte	0x2
 7397 1a69 03       		.byte	0x3
 7398 1a6a 01       		.byte	0x1
 7399 1a6b 04       		.byte	0x4
 7400 1a6c 02       		.byte	0x2
 7401 1a6d 00       		.byte	0
 7402 1a6e 04       		.byte	0x4
 7403 1a6f 03       		.byte	0x3
 7404 1a70 01       		.byte	0x1
 7405 1a71 02       		.byte	0x2
 7406 1a72 03       		.byte	0x3
 7407 1a73 26       		.uleb128 0x26
 7408 1a74 401A0000 		.4byte	0x1a40
 7409 1a78 24       		.uleb128 0x24
 7410 1a79 DC190000 		.4byte	0x19dc
 7411 1a7d 881A0000 		.4byte	0x1a88
 7412 1a81 25       		.uleb128 0x25
ARM GAS  C:\Users\legoc\AppData\Local\Temp\cc4EoOj2.s 			page 168


 7413 1a82 C9000000 		.4byte	0xc9
 7414 1a86 14       		.byte	0x14
 7415 1a87 00       		.byte	0
 7416 1a88 27       		.uleb128 0x27
 7417 1a89 2F020000 		.4byte	.LASF29
 7418 1a8d 04       		.byte	0x4
 7419 1a8e 45       		.byte	0x45
 7420 1a8f A91A0000 		.4byte	0x1aa9
 7421 1a93 15       		.byte	0x15
 7422 1a94 03       		.byte	0x3
 7423 1a95 01       		.byte	0x1
 7424 1a96 02       		.byte	0x2
 7425 1a97 03       		.byte	0x3
 7426 1a98 02       		.byte	0x2
 7427 1a99 00       		.byte	0
 7428 1a9a 04       		.byte	0x4
 7429 1a9b 01       		.byte	0x1
 7430 1a9c 04       		.byte	0x4
 7431 1a9d 02       		.byte	0x2
 7432 1a9e 02       		.byte	0x2
 7433 1a9f 03       		.byte	0x3
 7434 1aa0 01       		.byte	0x1
 7435 1aa1 04       		.byte	0x4
 7436 1aa2 02       		.byte	0x2
 7437 1aa3 00       		.byte	0
 7438 1aa4 04       		.byte	0x4
 7439 1aa5 03       		.byte	0x3
 7440 1aa6 01       		.byte	0x1
 7441 1aa7 02       		.byte	0x2
 7442 1aa8 03       		.byte	0x3
 7443 1aa9 26       		.uleb128 0x26
 7444 1aaa 781A0000 		.4byte	0x1a78
 7445 1aae 24       		.uleb128 0x24
 7446 1aaf DC190000 		.4byte	0x19dc
 7447 1ab3 BE1A0000 		.4byte	0x1abe
 7448 1ab7 25       		.uleb128 0x25
 7449 1ab8 C9000000 		.4byte	0xc9
 7450 1abc 15       		.byte	0x15
 7451 1abd 00       		.byte	0
 7452 1abe 27       		.uleb128 0x27
 7453 1abf 36020000 		.4byte	.LASF30
 7454 1ac3 04       		.byte	0x4
 7455 1ac4 57       		.byte	0x57
 7456 1ac5 E01A0000 		.4byte	0x1ae0
 7457 1ac9 16       		.byte	0x16
 7458 1aca 01       		.byte	0x1
 7459 1acb 04       		.byte	0x4
 7460 1acc 01       		.byte	0x1
 7461 1acd 04       		.byte	0x4
 7462 1ace 05       		.byte	0x5
 7463 1acf 00       		.byte	0
 7464 1ad0 01       		.byte	0x1
 7465 1ad1 02       		.byte	0x2
 7466 1ad2 03       		.byte	0x3
 7467 1ad3 04       		.byte	0x4
 7468 1ad4 02       		.byte	0x2
 7469 1ad5 00       		.byte	0
ARM GAS  C:\Users\legoc\AppData\Local\Temp\cc4EoOj2.s 			page 169


 7470 1ad6 04       		.byte	0x4
 7471 1ad7 02       		.byte	0x2
 7472 1ad8 01       		.byte	0x1
 7473 1ad9 04       		.byte	0x4
 7474 1ada 02       		.byte	0x2
 7475 1adb 02       		.byte	0x2
 7476 1adc 04       		.byte	0x4
 7477 1add 02       		.byte	0x2
 7478 1ade 03       		.byte	0x3
 7479 1adf 04       		.byte	0x4
 7480 1ae0 26       		.uleb128 0x26
 7481 1ae1 AE1A0000 		.4byte	0x1aae
 7482 1ae5 24       		.uleb128 0x24
 7483 1ae6 DC190000 		.4byte	0x19dc
 7484 1aea F51A0000 		.4byte	0x1af5
 7485 1aee 25       		.uleb128 0x25
 7486 1aef C9000000 		.4byte	0xc9
 7487 1af3 17       		.byte	0x17
 7488 1af4 00       		.byte	0
 7489 1af5 27       		.uleb128 0x27
 7490 1af6 3D020000 		.4byte	.LASF31
 7491 1afa 04       		.byte	0x4
 7492 1afb 69       		.byte	0x69
 7493 1afc 191B0000 		.4byte	0x1b19
 7494 1b00 18       		.byte	0x18
 7495 1b01 03       		.byte	0x3
 7496 1b02 01       		.byte	0x1
 7497 1b03 02       		.byte	0x2
 7498 1b04 03       		.byte	0x3
 7499 1b05 02       		.byte	0x2
 7500 1b06 00       		.byte	0
 7501 1b07 04       		.byte	0x4
 7502 1b08 01       		.byte	0x1
 7503 1b09 04       		.byte	0x4
 7504 1b0a 01       		.byte	0x1
 7505 1b0b 04       		.byte	0x4
 7506 1b0c 04       		.byte	0x4
 7507 1b0d 00       		.byte	0
 7508 1b0e 01       		.byte	0x1
 7509 1b0f 02       		.byte	0x2
 7510 1b10 03       		.byte	0x3
 7511 1b11 01       		.byte	0x1
 7512 1b12 00       		.byte	0
 7513 1b13 05       		.byte	0x5
 7514 1b14 00       		.byte	0
 7515 1b15 01       		.byte	0x1
 7516 1b16 02       		.byte	0x2
 7517 1b17 03       		.byte	0x3
 7518 1b18 04       		.byte	0x4
 7519 1b19 26       		.uleb128 0x26
 7520 1b1a E51A0000 		.4byte	0x1ae5
 7521 1b1e 27       		.uleb128 0x27
 7522 1b1f 44020000 		.4byte	.LASF32
 7523 1b23 04       		.byte	0x4
 7524 1b24 7B       		.byte	0x7b
 7525 1b25 401B0000 		.4byte	0x1b40
 7526 1b29 16       		.byte	0x16
ARM GAS  C:\Users\legoc\AppData\Local\Temp\cc4EoOj2.s 			page 170


 7527 1b2a 03       		.byte	0x3
 7528 1b2b 01       		.byte	0x1
 7529 1b2c 02       		.byte	0x2
 7530 1b2d 03       		.byte	0x3
 7531 1b2e 02       		.byte	0x2
 7532 1b2f 00       		.byte	0
 7533 1b30 04       		.byte	0x4
 7534 1b31 02       		.byte	0x2
 7535 1b32 00       		.byte	0
 7536 1b33 04       		.byte	0x4
 7537 1b34 04       		.byte	0x4
 7538 1b35 00       		.byte	0
 7539 1b36 01       		.byte	0x1
 7540 1b37 02       		.byte	0x2
 7541 1b38 03       		.byte	0x3
 7542 1b39 01       		.byte	0x1
 7543 1b3a 00       		.byte	0
 7544 1b3b 01       		.byte	0x1
 7545 1b3c 01       		.byte	0x1
 7546 1b3d 02       		.byte	0x2
 7547 1b3e 02       		.byte	0x2
 7548 1b3f 03       		.byte	0x3
 7549 1b40 26       		.uleb128 0x26
 7550 1b41 AE1A0000 		.4byte	0x1aae
 7551 1b45 27       		.uleb128 0x27
 7552 1b46 4B020000 		.4byte	.LASF33
 7553 1b4a 04       		.byte	0x4
 7554 1b4b 8D       		.byte	0x8d
 7555 1b4c 641B0000 		.4byte	0x1b64
 7556 1b50 13       		.byte	0x13
 7557 1b51 01       		.byte	0x1
 7558 1b52 02       		.byte	0x2
 7559 1b53 01       		.byte	0x1
 7560 1b54 02       		.byte	0x2
 7561 1b55 01       		.byte	0x1
 7562 1b56 02       		.byte	0x2
 7563 1b57 01       		.byte	0x1
 7564 1b58 03       		.byte	0x3
 7565 1b59 01       		.byte	0x1
 7566 1b5a 04       		.byte	0x4
 7567 1b5b 02       		.byte	0x2
 7568 1b5c 00       		.byte	0
 7569 1b5d 04       		.byte	0x4
 7570 1b5e 05       		.byte	0x5
 7571 1b5f 00       		.byte	0
 7572 1b60 01       		.byte	0x1
 7573 1b61 02       		.byte	0x2
 7574 1b62 03       		.byte	0x3
 7575 1b63 04       		.byte	0x4
 7576 1b64 26       		.uleb128 0x26
 7577 1b65 0C1A0000 		.4byte	0x1a0c
 7578 1b69 27       		.uleb128 0x27
 7579 1b6a 52020000 		.4byte	.LASF34
 7580 1b6e 04       		.byte	0x4
 7581 1b6f 9F       		.byte	0x9f
 7582 1b70 8D1B0000 		.4byte	0x1b8d
 7583 1b74 18       		.byte	0x18
ARM GAS  C:\Users\legoc\AppData\Local\Temp\cc4EoOj2.s 			page 171


 7584 1b75 03       		.byte	0x3
 7585 1b76 01       		.byte	0x1
 7586 1b77 02       		.byte	0x2
 7587 1b78 03       		.byte	0x3
 7588 1b79 02       		.byte	0x2
 7589 1b7a 00       		.byte	0
 7590 1b7b 04       		.byte	0x4
 7591 1b7c 02       		.byte	0x2
 7592 1b7d 00       		.byte	0
 7593 1b7e 04       		.byte	0x4
 7594 1b7f 03       		.byte	0x3
 7595 1b80 01       		.byte	0x1
 7596 1b81 02       		.byte	0x2
 7597 1b82 03       		.byte	0x3
 7598 1b83 02       		.byte	0x2
 7599 1b84 00       		.byte	0
 7600 1b85 04       		.byte	0x4
 7601 1b86 02       		.byte	0x2
 7602 1b87 00       		.byte	0
 7603 1b88 04       		.byte	0x4
 7604 1b89 03       		.byte	0x3
 7605 1b8a 01       		.byte	0x1
 7606 1b8b 02       		.byte	0x2
 7607 1b8c 03       		.byte	0x3
 7608 1b8d 26       		.uleb128 0x26
 7609 1b8e E51A0000 		.4byte	0x1ae5
 7610 1b92 27       		.uleb128 0x27
 7611 1b93 59020000 		.4byte	.LASF35
 7612 1b97 04       		.byte	0x4
 7613 1b98 B1       		.byte	0xb1
 7614 1b99 B41B0000 		.4byte	0x1bb4
 7615 1b9d 16       		.byte	0x16
 7616 1b9e 02       		.byte	0x2
 7617 1b9f 01       		.byte	0x1
 7618 1ba0 02       		.byte	0x2
 7619 1ba1 01       		.byte	0x1
 7620 1ba2 03       		.byte	0x3
 7621 1ba3 01       		.byte	0x1
 7622 1ba4 04       		.byte	0x4
 7623 1ba5 04       		.byte	0x4
 7624 1ba6 01       		.byte	0x1
 7625 1ba7 02       		.byte	0x2
 7626 1ba8 03       		.byte	0x3
 7627 1ba9 04       		.byte	0x4
 7628 1baa 02       		.byte	0x2
 7629 1bab 00       		.byte	0
 7630 1bac 04       		.byte	0x4
 7631 1bad 02       		.byte	0x2
 7632 1bae 00       		.byte	0
 7633 1baf 04       		.byte	0x4
 7634 1bb0 03       		.byte	0x3
 7635 1bb1 01       		.byte	0x1
 7636 1bb2 02       		.byte	0x2
 7637 1bb3 03       		.byte	0x3
 7638 1bb4 26       		.uleb128 0x26
 7639 1bb5 AE1A0000 		.4byte	0x1aae
 7640 1bb9 24       		.uleb128 0x24
ARM GAS  C:\Users\legoc\AppData\Local\Temp\cc4EoOj2.s 			page 172


 7641 1bba DC190000 		.4byte	0x19dc
 7642 1bbe C91B0000 		.4byte	0x1bc9
 7643 1bc2 25       		.uleb128 0x25
 7644 1bc3 C9000000 		.4byte	0xc9
 7645 1bc7 07       		.byte	0x7
 7646 1bc8 00       		.byte	0
 7647 1bc9 27       		.uleb128 0x27
 7648 1bca BC020000 		.4byte	.LASF36
 7649 1bce 04       		.byte	0x4
 7650 1bcf C3       		.byte	0xc3
 7651 1bd0 DD1B0000 		.4byte	0x1bdd
 7652 1bd4 08       		.byte	0x8
 7653 1bd5 01       		.byte	0x1
 7654 1bd6 02       		.byte	0x2
 7655 1bd7 00       		.byte	0
 7656 1bd8 00       		.byte	0
 7657 1bd9 00       		.byte	0
 7658 1bda 00       		.byte	0
 7659 1bdb 00       		.byte	0
 7660 1bdc 00       		.byte	0
 7661 1bdd 26       		.uleb128 0x26
 7662 1bde B91B0000 		.4byte	0x1bb9
 7663 1be2 27       		.uleb128 0x27
 7664 1be3 D9020000 		.4byte	.LASF37
 7665 1be7 04       		.byte	0x4
 7666 1be8 D4       		.byte	0xd4
 7667 1be9 031C0000 		.4byte	0x1c03
 7668 1bed 15       		.byte	0x15
 7669 1bee 04       		.byte	0x4
 7670 1bef 01       		.byte	0x1
 7671 1bf0 02       		.byte	0x2
 7672 1bf1 03       		.byte	0x3
 7673 1bf2 04       		.byte	0x4
 7674 1bf3 01       		.byte	0x1
 7675 1bf4 00       		.byte	0
 7676 1bf5 04       		.byte	0x4
 7677 1bf6 04       		.byte	0x4
 7678 1bf7 01       		.byte	0x1
 7679 1bf8 02       		.byte	0x2
 7680 1bf9 03       		.byte	0x3
 7681 1bfa 04       		.byte	0x4
 7682 1bfb 01       		.byte	0x1
 7683 1bfc 04       		.byte	0x4
 7684 1bfd 03       		.byte	0x3
 7685 1bfe 02       		.byte	0x2
 7686 1bff 03       		.byte	0x3
 7687 1c00 04       		.byte	0x4
 7688 1c01 00       		.byte	0
 7689 1c02 00       		.byte	0
 7690 1c03 26       		.uleb128 0x26
 7691 1c04 781A0000 		.4byte	0x1a78
 7692 1c08 27       		.uleb128 0x27
 7693 1c09 E0020000 		.4byte	.LASF38
 7694 1c0d 04       		.byte	0x4
 7695 1c0e E5       		.byte	0xe5
 7696 1c0f 2B1C0000 		.4byte	0x1c2b
 7697 1c13 17       		.byte	0x17
ARM GAS  C:\Users\legoc\AppData\Local\Temp\cc4EoOj2.s 			page 173


 7698 1c14 04       		.byte	0x4
 7699 1c15 00       		.byte	0
 7700 1c16 01       		.byte	0x1
 7701 1c17 02       		.byte	0x2
 7702 1c18 03       		.byte	0x3
 7703 1c19 02       		.byte	0x2
 7704 1c1a 00       		.byte	0
 7705 1c1b 04       		.byte	0x4
 7706 1c1c 02       		.byte	0x2
 7707 1c1d 00       		.byte	0
 7708 1c1e 04       		.byte	0x4
 7709 1c1f 03       		.byte	0x3
 7710 1c20 00       		.byte	0
 7711 1c21 01       		.byte	0x1
 7712 1c22 04       		.byte	0x4
 7713 1c23 03       		.byte	0x3
 7714 1c24 00       		.byte	0
 7715 1c25 02       		.byte	0x2
 7716 1c26 03       		.byte	0x3
 7717 1c27 01       		.byte	0x1
 7718 1c28 00       		.byte	0
 7719 1c29 01       		.byte	0x1
 7720 1c2a 00       		.byte	0
 7721 1c2b 26       		.uleb128 0x26
 7722 1c2c 401A0000 		.4byte	0x1a40
 7723 1c30 24       		.uleb128 0x24
 7724 1c31 DC190000 		.4byte	0x19dc
 7725 1c35 401C0000 		.4byte	0x1c40
 7726 1c39 25       		.uleb128 0x25
 7727 1c3a C9000000 		.4byte	0xc9
 7728 1c3e 11       		.byte	0x11
 7729 1c3f 00       		.byte	0
 7730 1c40 27       		.uleb128 0x27
 7731 1c41 E7020000 		.4byte	.LASF39
 7732 1c45 04       		.byte	0x4
 7733 1c46 F7       		.byte	0xf7
 7734 1c47 5E1C0000 		.4byte	0x1c5e
 7735 1c4b 12       		.byte	0x12
 7736 1c4c 03       		.byte	0x3
 7737 1c4d 01       		.byte	0x1
 7738 1c4e 02       		.byte	0x2
 7739 1c4f 03       		.byte	0x3
 7740 1c50 02       		.byte	0x2
 7741 1c51 00       		.byte	0
 7742 1c52 04       		.byte	0x4
 7743 1c53 01       		.byte	0x1
 7744 1c54 00       		.byte	0
 7745 1c55 02       		.byte	0x2
 7746 1c56 00       		.byte	0
 7747 1c57 04       		.byte	0x4
 7748 1c58 03       		.byte	0x3
 7749 1c59 01       		.byte	0x1
 7750 1c5a 02       		.byte	0x2
 7751 1c5b 03       		.byte	0x3
 7752 1c5c 00       		.byte	0
 7753 1c5d 00       		.byte	0
 7754 1c5e 26       		.uleb128 0x26
ARM GAS  C:\Users\legoc\AppData\Local\Temp\cc4EoOj2.s 			page 174


 7755 1c5f 301C0000 		.4byte	0x1c30
 7756 1c63 28       		.uleb128 0x28
 7757 1c64 EE020000 		.4byte	.LASF40
 7758 1c68 04       		.byte	0x4
 7759 1c69 0801     		.2byte	0x108
 7760 1c6b 871C0000 		.4byte	0x1c87
 7761 1c6f 17       		.byte	0x17
 7762 1c70 04       		.byte	0x4
 7763 1c71 01       		.byte	0x1
 7764 1c72 02       		.byte	0x2
 7765 1c73 03       		.byte	0x3
 7766 1c74 04       		.byte	0x4
 7767 1c75 02       		.byte	0x2
 7768 1c76 00       		.byte	0
 7769 1c77 04       		.byte	0x4
 7770 1c78 02       		.byte	0x2
 7771 1c79 00       		.byte	0
 7772 1c7a 04       		.byte	0x4
 7773 1c7b 03       		.byte	0x3
 7774 1c7c 00       		.byte	0
 7775 1c7d 03       		.byte	0x3
 7776 1c7e 04       		.byte	0x4
 7777 1c7f 03       		.byte	0x3
 7778 1c80 01       		.byte	0x1
 7779 1c81 02       		.byte	0x2
 7780 1c82 04       		.byte	0x4
 7781 1c83 01       		.byte	0x1
 7782 1c84 04       		.byte	0x4
 7783 1c85 01       		.byte	0x1
 7784 1c86 04       		.byte	0x4
 7785 1c87 26       		.uleb128 0x26
 7786 1c88 401A0000 		.4byte	0x1a40
 7787 1c8c 28       		.uleb128 0x28
 7788 1c8d F5020000 		.4byte	.LASF41
 7789 1c91 04       		.byte	0x4
 7790 1c92 1A01     		.2byte	0x11a
 7791 1c94 AF1C0000 		.4byte	0x1caf
 7792 1c98 16       		.byte	0x16
 7793 1c99 04       		.byte	0x4
 7794 1c9a 01       		.byte	0x1
 7795 1c9b 02       		.byte	0x2
 7796 1c9c 03       		.byte	0x3
 7797 1c9d 04       		.byte	0x4
 7798 1c9e 01       		.byte	0x1
 7799 1c9f 00       		.byte	0
 7800 1ca0 05       		.byte	0x5
 7801 1ca1 00       		.byte	0
 7802 1ca2 01       		.byte	0x1
 7803 1ca3 02       		.byte	0x2
 7804 1ca4 03       		.byte	0x3
 7805 1ca5 04       		.byte	0x4
 7806 1ca6 02       		.byte	0x2
 7807 1ca7 00       		.byte	0
 7808 1ca8 04       		.byte	0x4
 7809 1ca9 03       		.byte	0x3
 7810 1caa 01       		.byte	0x1
 7811 1cab 02       		.byte	0x2
ARM GAS  C:\Users\legoc\AppData\Local\Temp\cc4EoOj2.s 			page 175


 7812 1cac 03       		.byte	0x3
 7813 1cad 00       		.byte	0
 7814 1cae 00       		.byte	0
 7815 1caf 26       		.uleb128 0x26
 7816 1cb0 AE1A0000 		.4byte	0x1aae
 7817 1cb4 28       		.uleb128 0x28
 7818 1cb5 FC020000 		.4byte	.LASF42
 7819 1cb9 04       		.byte	0x4
 7820 1cba 2B01     		.2byte	0x12b
 7821 1cbc D31C0000 		.4byte	0x1cd3
 7822 1cc0 12       		.byte	0x12
 7823 1cc1 01       		.byte	0x1
 7824 1cc2 02       		.byte	0x2
 7825 1cc3 01       		.byte	0x1
 7826 1cc4 02       		.byte	0x2
 7827 1cc5 01       		.byte	0x1
 7828 1cc6 02       		.byte	0x2
 7829 1cc7 01       		.byte	0x1
 7830 1cc8 02       		.byte	0x2
 7831 1cc9 04       		.byte	0x4
 7832 1cca 01       		.byte	0x1
 7833 1ccb 02       		.byte	0x2
 7834 1ccc 03       		.byte	0x3
 7835 1ccd 04       		.byte	0x4
 7836 1cce 01       		.byte	0x1
 7837 1ccf 02       		.byte	0x2
 7838 1cd0 02       		.byte	0x2
 7839 1cd1 03       		.byte	0x3
 7840 1cd2 04       		.byte	0x4
 7841 1cd3 26       		.uleb128 0x26
 7842 1cd4 301C0000 		.4byte	0x1c30
 7843 1cd8 28       		.uleb128 0x28
 7844 1cd9 03030000 		.4byte	.LASF43
 7845 1cdd 04       		.byte	0x4
 7846 1cde 3F01     		.2byte	0x13f
 7847 1ce0 FD1C0000 		.4byte	0x1cfd
 7848 1ce4 18       		.byte	0x18
 7849 1ce5 04       		.byte	0x4
 7850 1ce6 00       		.byte	0
 7851 1ce7 01       		.byte	0x1
 7852 1ce8 02       		.byte	0x2
 7853 1ce9 03       		.byte	0x3
 7854 1cea 01       		.byte	0x1
 7855 1ceb 04       		.byte	0x4
 7856 1cec 04       		.byte	0x4
 7857 1ced 01       		.byte	0x1
 7858 1cee 02       		.byte	0x2
 7859 1cef 03       		.byte	0x3
 7860 1cf0 04       		.byte	0x4
 7861 1cf1 02       		.byte	0x2
 7862 1cf2 00       		.byte	0
 7863 1cf3 04       		.byte	0x4
 7864 1cf4 02       		.byte	0x2
 7865 1cf5 00       		.byte	0
 7866 1cf6 04       		.byte	0x4
 7867 1cf7 04       		.byte	0x4
 7868 1cf8 01       		.byte	0x1
ARM GAS  C:\Users\legoc\AppData\Local\Temp\cc4EoOj2.s 			page 176


 7869 1cf9 02       		.byte	0x2
 7870 1cfa 03       		.byte	0x3
 7871 1cfb 04       		.byte	0x4
 7872 1cfc 00       		.byte	0
 7873 1cfd 26       		.uleb128 0x26
 7874 1cfe E51A0000 		.4byte	0x1ae5
 7875 1d02 28       		.uleb128 0x28
 7876 1d03 0A030000 		.4byte	.LASF44
 7877 1d07 04       		.byte	0x4
 7878 1d08 5001     		.2byte	0x150
 7879 1d0a 241D0000 		.4byte	0x1d24
 7880 1d0e 15       		.byte	0x15
 7881 1d0f 02       		.byte	0x2
 7882 1d10 00       		.byte	0
 7883 1d11 04       		.byte	0x4
 7884 1d12 02       		.byte	0x2
 7885 1d13 00       		.byte	0
 7886 1d14 04       		.byte	0x4
 7887 1d15 02       		.byte	0x2
 7888 1d16 00       		.byte	0
 7889 1d17 04       		.byte	0x4
 7890 1d18 03       		.byte	0x3
 7891 1d19 00       		.byte	0
 7892 1d1a 01       		.byte	0x1
 7893 1d1b 04       		.byte	0x4
 7894 1d1c 03       		.byte	0x3
 7895 1d1d 00       		.byte	0
 7896 1d1e 02       		.byte	0x2
 7897 1d1f 03       		.byte	0x3
 7898 1d20 01       		.byte	0x1
 7899 1d21 00       		.byte	0
 7900 1d22 01       		.byte	0x1
 7901 1d23 00       		.byte	0
 7902 1d24 26       		.uleb128 0x26
 7903 1d25 781A0000 		.4byte	0x1a78
 7904 1d29 24       		.uleb128 0x24
 7905 1d2a DC190000 		.4byte	0x19dc
 7906 1d2e 391D0000 		.4byte	0x1d39
 7907 1d32 25       		.uleb128 0x25
 7908 1d33 C9000000 		.4byte	0xc9
 7909 1d37 0C       		.byte	0xc
 7910 1d38 00       		.byte	0
 7911 1d39 28       		.uleb128 0x28
 7912 1d3a 11030000 		.4byte	.LASF45
 7913 1d3e 04       		.byte	0x4
 7914 1d3f 6201     		.2byte	0x162
 7915 1d41 531D0000 		.4byte	0x1d53
 7916 1d45 0D       		.byte	0xd
 7917 1d46 01       		.byte	0x1
 7918 1d47 02       		.byte	0x2
 7919 1d48 01       		.byte	0x1
 7920 1d49 02       		.byte	0x2
 7921 1d4a 01       		.byte	0x1
 7922 1d4b 02       		.byte	0x2
 7923 1d4c 01       		.byte	0x1
 7924 1d4d 02       		.byte	0x2
 7925 1d4e 01       		.byte	0x1
ARM GAS  C:\Users\legoc\AppData\Local\Temp\cc4EoOj2.s 			page 177


 7926 1d4f 02       		.byte	0x2
 7927 1d50 00       		.byte	0
 7928 1d51 01       		.byte	0x1
 7929 1d52 02       		.byte	0x2
 7930 1d53 26       		.uleb128 0x26
 7931 1d54 291D0000 		.4byte	0x1d29
 7932 1d58 24       		.uleb128 0x24
 7933 1d59 DC190000 		.4byte	0x19dc
 7934 1d5d 681D0000 		.4byte	0x1d68
 7935 1d61 29       		.uleb128 0x29
 7936 1d62 681D0000 		.4byte	0x1d68
 7937 1d66 7F       		.sleb128 -1
 7938 1d67 00       		.byte	0
 7939 1d68 02       		.uleb128 0x2
 7940 1d69 04       		.byte	0x4
 7941 1d6a 05       		.byte	0x5
 7942 1d6b 31000000 		.4byte	.LASF46
 7943 1d6f 09       		.uleb128 0x9
 7944 1d70 18030000 		.4byte	.LASF47
 7945 1d74 04       		.byte	0x4
 7946 1d75 7501     		.2byte	0x175
 7947 1d77 7B1D0000 		.4byte	0x1d7b
 7948 1d7b 26       		.uleb128 0x26
 7949 1d7c 581D0000 		.4byte	0x1d58
 7950 1d80 24       		.uleb128 0x24
 7951 1d81 DC190000 		.4byte	0x19dc
 7952 1d85 901D0000 		.4byte	0x1d90
 7953 1d89 25       		.uleb128 0x25
 7954 1d8a C9000000 		.4byte	0xc9
 7955 1d8e 1B       		.byte	0x1b
 7956 1d8f 00       		.byte	0
 7957 1d90 28       		.uleb128 0x28
 7958 1d91 7A020000 		.4byte	.LASF48
 7959 1d95 04       		.byte	0x4
 7960 1d96 7C01     		.2byte	0x17c
 7961 1d98 B91D0000 		.4byte	0x1db9
 7962 1d9c 1C       		.byte	0x1c
 7963 1d9d 02       		.byte	0x2
 7964 1d9e 00       		.byte	0
 7965 1d9f 04       		.byte	0x4
 7966 1da0 02       		.byte	0x2
 7967 1da1 00       		.byte	0
 7968 1da2 04       		.byte	0x4
 7969 1da3 02       		.byte	0x2
 7970 1da4 00       		.byte	0
 7971 1da5 04       		.byte	0x4
 7972 1da6 02       		.byte	0x2
 7973 1da7 00       		.byte	0
 7974 1da8 04       		.byte	0x4
 7975 1da9 02       		.byte	0x2
 7976 1daa 00       		.byte	0
 7977 1dab 04       		.byte	0x4
 7978 1dac 05       		.byte	0x5
 7979 1dad 00       		.byte	0
 7980 1dae 01       		.byte	0x1
 7981 1daf 02       		.byte	0x2
 7982 1db0 03       		.byte	0x3
ARM GAS  C:\Users\legoc\AppData\Local\Temp\cc4EoOj2.s 			page 178


 7983 1db1 04       		.byte	0x4
 7984 1db2 02       		.byte	0x2
 7985 1db3 00       		.byte	0
 7986 1db4 04       		.byte	0x4
 7987 1db5 03       		.byte	0x3
 7988 1db6 01       		.byte	0x1
 7989 1db7 02       		.byte	0x2
 7990 1db8 03       		.byte	0x3
 7991 1db9 26       		.uleb128 0x26
 7992 1dba 801D0000 		.4byte	0x1d80
 7993 1dbe 24       		.uleb128 0x24
 7994 1dbf DC190000 		.4byte	0x19dc
 7995 1dc3 CE1D0000 		.4byte	0x1dce
 7996 1dc7 25       		.uleb128 0x25
 7997 1dc8 C9000000 		.4byte	0xc9
 7998 1dcc 1A       		.byte	0x1a
 7999 1dcd 00       		.byte	0
 8000 1dce 28       		.uleb128 0x28
 8001 1dcf 81020000 		.4byte	.LASF49
 8002 1dd3 04       		.byte	0x4
 8003 1dd4 9001     		.2byte	0x190
 8004 1dd6 F61D0000 		.4byte	0x1df6
 8005 1dda 1B       		.byte	0x1b
 8006 1ddb 04       		.byte	0x4
 8007 1ddc 00       		.byte	0
 8008 1ddd 01       		.byte	0x1
 8009 1dde 02       		.byte	0x2
 8010 1ddf 03       		.byte	0x3
 8011 1de0 02       		.byte	0x2
 8012 1de1 00       		.byte	0
 8013 1de2 04       		.byte	0x4
 8014 1de3 02       		.byte	0x2
 8015 1de4 00       		.byte	0
 8016 1de5 04       		.byte	0x4
 8017 1de6 02       		.byte	0x2
 8018 1de7 00       		.byte	0
 8019 1de8 04       		.byte	0x4
 8020 1de9 04       		.byte	0x4
 8021 1dea 00       		.byte	0
 8022 1deb 01       		.byte	0x1
 8023 1dec 02       		.byte	0x2
 8024 1ded 03       		.byte	0x3
 8025 1dee 02       		.byte	0x2
 8026 1def 00       		.byte	0
 8027 1df0 04       		.byte	0x4
 8028 1df1 04       		.byte	0x4
 8029 1df2 00       		.byte	0
 8030 1df3 01       		.byte	0x1
 8031 1df4 02       		.byte	0x2
 8032 1df5 03       		.byte	0x3
 8033 1df6 26       		.uleb128 0x26
 8034 1df7 BE1D0000 		.4byte	0x1dbe
 8035 1dfb 24       		.uleb128 0x24
 8036 1dfc DC190000 		.4byte	0x19dc
 8037 1e00 0B1E0000 		.4byte	0x1e0b
 8038 1e04 25       		.uleb128 0x25
 8039 1e05 C9000000 		.4byte	0xc9
ARM GAS  C:\Users\legoc\AppData\Local\Temp\cc4EoOj2.s 			page 179


 8040 1e09 13       		.byte	0x13
 8041 1e0a 00       		.byte	0
 8042 1e0b 28       		.uleb128 0x28
 8043 1e0c 88020000 		.4byte	.LASF50
 8044 1e10 04       		.byte	0x4
 8045 1e11 A201     		.2byte	0x1a2
 8046 1e13 2C1E0000 		.4byte	0x1e2c
 8047 1e17 14       		.byte	0x14
 8048 1e18 03       		.byte	0x3
 8049 1e19 01       		.byte	0x1
 8050 1e1a 02       		.byte	0x2
 8051 1e1b 03       		.byte	0x3
 8052 1e1c 02       		.byte	0x2
 8053 1e1d 00       		.byte	0
 8054 1e1e 04       		.byte	0x4
 8055 1e1f 01       		.byte	0x1
 8056 1e20 00       		.byte	0
 8057 1e21 01       		.byte	0x1
 8058 1e22 00       		.byte	0
 8059 1e23 01       		.byte	0x1
 8060 1e24 00       		.byte	0
 8061 1e25 02       		.byte	0x2
 8062 1e26 00       		.byte	0
 8063 1e27 04       		.byte	0x4
 8064 1e28 03       		.byte	0x3
 8065 1e29 01       		.byte	0x1
 8066 1e2a 02       		.byte	0x2
 8067 1e2b 03       		.byte	0x3
 8068 1e2c 26       		.uleb128 0x26
 8069 1e2d FB1D0000 		.4byte	0x1dfb
 8070 1e31 24       		.uleb128 0x24
 8071 1e32 DC190000 		.4byte	0x19dc
 8072 1e36 411E0000 		.4byte	0x1e41
 8073 1e3a 25       		.uleb128 0x25
 8074 1e3b C9000000 		.4byte	0xc9
 8075 1e3f 18       		.byte	0x18
 8076 1e40 00       		.byte	0
 8077 1e41 28       		.uleb128 0x28
 8078 1e42 8F020000 		.4byte	.LASF51
 8079 1e46 04       		.byte	0x4
 8080 1e47 B401     		.2byte	0x1b4
 8081 1e49 671E0000 		.4byte	0x1e67
 8082 1e4d 19       		.byte	0x19
 8083 1e4e 04       		.byte	0x4
 8084 1e4f 00       		.byte	0
 8085 1e50 01       		.byte	0x1
 8086 1e51 02       		.byte	0x2
 8087 1e52 03       		.byte	0x3
 8088 1e53 02       		.byte	0x2
 8089 1e54 00       		.byte	0
 8090 1e55 04       		.byte	0x4
 8091 1e56 02       		.byte	0x2
 8092 1e57 00       		.byte	0
 8093 1e58 04       		.byte	0x4
 8094 1e59 02       		.byte	0x2
 8095 1e5a 00       		.byte	0
 8096 1e5b 04       		.byte	0x4
ARM GAS  C:\Users\legoc\AppData\Local\Temp\cc4EoOj2.s 			page 180


 8097 1e5c 02       		.byte	0x2
 8098 1e5d 00       		.byte	0
 8099 1e5e 04       		.byte	0x4
 8100 1e5f 02       		.byte	0x2
 8101 1e60 00       		.byte	0
 8102 1e61 04       		.byte	0x4
 8103 1e62 04       		.byte	0x4
 8104 1e63 00       		.byte	0
 8105 1e64 01       		.byte	0x1
 8106 1e65 02       		.byte	0x2
 8107 1e66 03       		.byte	0x3
 8108 1e67 26       		.uleb128 0x26
 8109 1e68 311E0000 		.4byte	0x1e31
 8110 1e6c 28       		.uleb128 0x28
 8111 1e6d 96020000 		.4byte	.LASF52
 8112 1e71 04       		.byte	0x4
 8113 1e72 C701     		.2byte	0x1c7
 8114 1e74 921E0000 		.4byte	0x1e92
 8115 1e78 19       		.byte	0x19
 8116 1e79 05       		.byte	0x5
 8117 1e7a 00       		.byte	0
 8118 1e7b 01       		.byte	0x1
 8119 1e7c 02       		.byte	0x2
 8120 1e7d 03       		.byte	0x3
 8121 1e7e 04       		.byte	0x4
 8122 1e7f 01       		.byte	0x1
 8123 1e80 00       		.byte	0
 8124 1e81 01       		.byte	0x1
 8125 1e82 00       		.byte	0
 8126 1e83 04       		.byte	0x4
 8127 1e84 00       		.byte	0
 8128 1e85 01       		.byte	0x1
 8129 1e86 02       		.byte	0x2
 8130 1e87 03       		.byte	0x3
 8131 1e88 01       		.byte	0x1
 8132 1e89 00       		.byte	0
 8133 1e8a 01       		.byte	0x1
 8134 1e8b 00       		.byte	0
 8135 1e8c 05       		.byte	0x5
 8136 1e8d 00       		.byte	0
 8137 1e8e 01       		.byte	0x1
 8138 1e8f 02       		.byte	0x2
 8139 1e90 03       		.byte	0x3
 8140 1e91 04       		.byte	0x4
 8141 1e92 26       		.uleb128 0x26
 8142 1e93 311E0000 		.4byte	0x1e31
 8143 1e97 28       		.uleb128 0x28
 8144 1e98 9D020000 		.4byte	.LASF53
 8145 1e9c 04       		.byte	0x4
 8146 1e9d D901     		.2byte	0x1d9
 8147 1e9f B81E0000 		.4byte	0x1eb8
 8148 1ea3 14       		.byte	0x14
 8149 1ea4 01       		.byte	0x1
 8150 1ea5 00       		.byte	0
 8151 1ea6 01       		.byte	0x1
 8152 1ea7 00       		.byte	0
 8153 1ea8 01       		.byte	0x1
ARM GAS  C:\Users\legoc\AppData\Local\Temp\cc4EoOj2.s 			page 181


 8154 1ea9 00       		.byte	0
 8155 1eaa 01       		.byte	0x1
 8156 1eab 00       		.byte	0
 8157 1eac 03       		.byte	0x3
 8158 1ead 00       		.byte	0
 8159 1eae 01       		.byte	0x1
 8160 1eaf 02       		.byte	0x2
 8161 1eb0 01       		.byte	0x1
 8162 1eb1 00       		.byte	0
 8163 1eb2 05       		.byte	0x5
 8164 1eb3 00       		.byte	0
 8165 1eb4 01       		.byte	0x1
 8166 1eb5 02       		.byte	0x2
 8167 1eb6 03       		.byte	0x3
 8168 1eb7 04       		.byte	0x4
 8169 1eb8 26       		.uleb128 0x26
 8170 1eb9 FB1D0000 		.4byte	0x1dfb
 8171 1ebd 28       		.uleb128 0x28
 8172 1ebe A4020000 		.4byte	.LASF54
 8173 1ec2 04       		.byte	0x4
 8174 1ec3 EB01     		.2byte	0x1eb
 8175 1ec5 E21E0000 		.4byte	0x1ee2
 8176 1ec9 18       		.byte	0x18
 8177 1eca 03       		.byte	0x3
 8178 1ecb 01       		.byte	0x1
 8179 1ecc 02       		.byte	0x2
 8180 1ecd 03       		.byte	0x3
 8181 1ece 02       		.byte	0x2
 8182 1ecf 00       		.byte	0
 8183 1ed0 04       		.byte	0x4
 8184 1ed1 02       		.byte	0x2
 8185 1ed2 00       		.byte	0
 8186 1ed3 04       		.byte	0x4
 8187 1ed4 02       		.byte	0x2
 8188 1ed5 00       		.byte	0
 8189 1ed6 04       		.byte	0x4
 8190 1ed7 03       		.byte	0x3
 8191 1ed8 00       		.byte	0
 8192 1ed9 03       		.byte	0x3
 8193 1eda 04       		.byte	0x4
 8194 1edb 01       		.byte	0x1
 8195 1edc 00       		.byte	0
 8196 1edd 04       		.byte	0x4
 8197 1ede 01       		.byte	0x1
 8198 1edf 02       		.byte	0x2
 8199 1ee0 03       		.byte	0x3
 8200 1ee1 04       		.byte	0x4
 8201 1ee2 26       		.uleb128 0x26
 8202 1ee3 E51A0000 		.4byte	0x1ae5
 8203 1ee7 24       		.uleb128 0x24
 8204 1ee8 DC190000 		.4byte	0x19dc
 8205 1eec F81E0000 		.4byte	0x1ef8
 8206 1ef0 2A       		.uleb128 0x2a
 8207 1ef1 C9000000 		.4byte	0xc9
 8208 1ef5 4C03     		.2byte	0x34c
 8209 1ef7 00       		.byte	0
 8210 1ef8 2B       		.uleb128 0x2b
ARM GAS  C:\Users\legoc\AppData\Local\Temp\cc4EoOj2.s 			page 182


 8211 1ef9 11000000 		.4byte	.LASF55
 8212 1efd 01       		.byte	0x1
 8213 1efe 15       		.byte	0x15
 8214 1eff 091F0000 		.4byte	0x1f09
 8215 1f03 05       		.uleb128 0x5
 8216 1f04 03       		.byte	0x3
 8217 1f05 00000000 		.4byte	font
 8218 1f09 26       		.uleb128 0x26
 8219 1f0a E71E0000 		.4byte	0x1ee7
 8220 1f0e 2C       		.uleb128 0x2c
 8221 1f0f 60020000 		.4byte	.LASF60
 8222 1f13 60020000 		.4byte	.LASF60
 8223 1f17 01       		.byte	0x1
 8224 1f18 8C04     		.2byte	0x48c
 8225 1f1a 00       		.byte	0
 8226              		.section	.debug_abbrev,"",%progbits
 8227              	.Ldebug_abbrev0:
 8228 0000 01       		.uleb128 0x1
 8229 0001 11       		.uleb128 0x11
 8230 0002 01       		.byte	0x1
 8231 0003 25       		.uleb128 0x25
 8232 0004 0E       		.uleb128 0xe
 8233 0005 13       		.uleb128 0x13
 8234 0006 0B       		.uleb128 0xb
 8235 0007 03       		.uleb128 0x3
 8236 0008 0E       		.uleb128 0xe
 8237 0009 1B       		.uleb128 0x1b
 8238 000a 0E       		.uleb128 0xe
 8239 000b 55       		.uleb128 0x55
 8240 000c 17       		.uleb128 0x17
 8241 000d 11       		.uleb128 0x11
 8242 000e 01       		.uleb128 0x1
 8243 000f 10       		.uleb128 0x10
 8244 0010 17       		.uleb128 0x17
 8245 0011 00       		.byte	0
 8246 0012 00       		.byte	0
 8247 0013 02       		.uleb128 0x2
 8248 0014 24       		.uleb128 0x24
 8249 0015 00       		.byte	0
 8250 0016 0B       		.uleb128 0xb
 8251 0017 0B       		.uleb128 0xb
 8252 0018 3E       		.uleb128 0x3e
 8253 0019 0B       		.uleb128 0xb
 8254 001a 03       		.uleb128 0x3
 8255 001b 0E       		.uleb128 0xe
 8256 001c 00       		.byte	0
 8257 001d 00       		.byte	0
 8258 001e 03       		.uleb128 0x3
 8259 001f 16       		.uleb128 0x16
 8260 0020 00       		.byte	0
 8261 0021 03       		.uleb128 0x3
 8262 0022 0E       		.uleb128 0xe
 8263 0023 3A       		.uleb128 0x3a
 8264 0024 0B       		.uleb128 0xb
 8265 0025 3B       		.uleb128 0x3b
 8266 0026 0B       		.uleb128 0xb
 8267 0027 49       		.uleb128 0x49
ARM GAS  C:\Users\legoc\AppData\Local\Temp\cc4EoOj2.s 			page 183


 8268 0028 13       		.uleb128 0x13
 8269 0029 00       		.byte	0
 8270 002a 00       		.byte	0
 8271 002b 04       		.uleb128 0x4
 8272 002c 24       		.uleb128 0x24
 8273 002d 00       		.byte	0
 8274 002e 0B       		.uleb128 0xb
 8275 002f 0B       		.uleb128 0xb
 8276 0030 3E       		.uleb128 0x3e
 8277 0031 0B       		.uleb128 0xb
 8278 0032 03       		.uleb128 0x3
 8279 0033 08       		.uleb128 0x8
 8280 0034 00       		.byte	0
 8281 0035 00       		.byte	0
 8282 0036 05       		.uleb128 0x5
 8283 0037 0F       		.uleb128 0xf
 8284 0038 00       		.byte	0
 8285 0039 0B       		.uleb128 0xb
 8286 003a 0B       		.uleb128 0xb
 8287 003b 49       		.uleb128 0x49
 8288 003c 13       		.uleb128 0x13
 8289 003d 00       		.byte	0
 8290 003e 00       		.byte	0
 8291 003f 06       		.uleb128 0x6
 8292 0040 2E       		.uleb128 0x2e
 8293 0041 01       		.byte	0x1
 8294 0042 3F       		.uleb128 0x3f
 8295 0043 19       		.uleb128 0x19
 8296 0044 03       		.uleb128 0x3
 8297 0045 0E       		.uleb128 0xe
 8298 0046 3A       		.uleb128 0x3a
 8299 0047 0B       		.uleb128 0xb
 8300 0048 3B       		.uleb128 0x3b
 8301 0049 05       		.uleb128 0x5
 8302 004a 27       		.uleb128 0x27
 8303 004b 19       		.uleb128 0x19
 8304 004c 20       		.uleb128 0x20
 8305 004d 0B       		.uleb128 0xb
 8306 004e 01       		.uleb128 0x1
 8307 004f 13       		.uleb128 0x13
 8308 0050 00       		.byte	0
 8309 0051 00       		.byte	0
 8310 0052 07       		.uleb128 0x7
 8311 0053 05       		.uleb128 0x5
 8312 0054 00       		.byte	0
 8313 0055 03       		.uleb128 0x3
 8314 0056 08       		.uleb128 0x8
 8315 0057 3A       		.uleb128 0x3a
 8316 0058 0B       		.uleb128 0xb
 8317 0059 3B       		.uleb128 0x3b
 8318 005a 05       		.uleb128 0x5
 8319 005b 49       		.uleb128 0x49
 8320 005c 13       		.uleb128 0x13
 8321 005d 00       		.byte	0
 8322 005e 00       		.byte	0
 8323 005f 08       		.uleb128 0x8
 8324 0060 05       		.uleb128 0x5
ARM GAS  C:\Users\legoc\AppData\Local\Temp\cc4EoOj2.s 			page 184


 8325 0061 00       		.byte	0
 8326 0062 03       		.uleb128 0x3
 8327 0063 0E       		.uleb128 0xe
 8328 0064 3A       		.uleb128 0x3a
 8329 0065 0B       		.uleb128 0xb
 8330 0066 3B       		.uleb128 0x3b
 8331 0067 05       		.uleb128 0x5
 8332 0068 49       		.uleb128 0x49
 8333 0069 13       		.uleb128 0x13
 8334 006a 00       		.byte	0
 8335 006b 00       		.byte	0
 8336 006c 09       		.uleb128 0x9
 8337 006d 34       		.uleb128 0x34
 8338 006e 00       		.byte	0
 8339 006f 03       		.uleb128 0x3
 8340 0070 0E       		.uleb128 0xe
 8341 0071 3A       		.uleb128 0x3a
 8342 0072 0B       		.uleb128 0xb
 8343 0073 3B       		.uleb128 0x3b
 8344 0074 05       		.uleb128 0x5
 8345 0075 49       		.uleb128 0x49
 8346 0076 13       		.uleb128 0x13
 8347 0077 00       		.byte	0
 8348 0078 00       		.byte	0
 8349 0079 0A       		.uleb128 0xa
 8350 007a 0B       		.uleb128 0xb
 8351 007b 01       		.byte	0x1
 8352 007c 01       		.uleb128 0x1
 8353 007d 13       		.uleb128 0x13
 8354 007e 00       		.byte	0
 8355 007f 00       		.byte	0
 8356 0080 0B       		.uleb128 0xb
 8357 0081 34       		.uleb128 0x34
 8358 0082 00       		.byte	0
 8359 0083 03       		.uleb128 0x3
 8360 0084 08       		.uleb128 0x8
 8361 0085 3A       		.uleb128 0x3a
 8362 0086 0B       		.uleb128 0xb
 8363 0087 3B       		.uleb128 0x3b
 8364 0088 05       		.uleb128 0x5
 8365 0089 49       		.uleb128 0x49
 8366 008a 13       		.uleb128 0x13
 8367 008b 00       		.byte	0
 8368 008c 00       		.byte	0
 8369 008d 0C       		.uleb128 0xc
 8370 008e 0B       		.uleb128 0xb
 8371 008f 01       		.byte	0x1
 8372 0090 00       		.byte	0
 8373 0091 00       		.byte	0
 8374 0092 0D       		.uleb128 0xd
 8375 0093 2E       		.uleb128 0x2e
 8376 0094 01       		.byte	0x1
 8377 0095 3F       		.uleb128 0x3f
 8378 0096 19       		.uleb128 0x19
 8379 0097 03       		.uleb128 0x3
 8380 0098 0E       		.uleb128 0xe
 8381 0099 3A       		.uleb128 0x3a
ARM GAS  C:\Users\legoc\AppData\Local\Temp\cc4EoOj2.s 			page 185


 8382 009a 0B       		.uleb128 0xb
 8383 009b 3B       		.uleb128 0x3b
 8384 009c 05       		.uleb128 0x5
 8385 009d 49       		.uleb128 0x49
 8386 009e 13       		.uleb128 0x13
 8387 009f 3C       		.uleb128 0x3c
 8388 00a0 19       		.uleb128 0x19
 8389 00a1 00       		.byte	0
 8390 00a2 00       		.byte	0
 8391 00a3 0E       		.uleb128 0xe
 8392 00a4 18       		.uleb128 0x18
 8393 00a5 00       		.byte	0
 8394 00a6 00       		.byte	0
 8395 00a7 00       		.byte	0
 8396 00a8 0F       		.uleb128 0xf
 8397 00a9 2E       		.uleb128 0x2e
 8398 00aa 01       		.byte	0x1
 8399 00ab 31       		.uleb128 0x31
 8400 00ac 13       		.uleb128 0x13
 8401 00ad 11       		.uleb128 0x11
 8402 00ae 01       		.uleb128 0x1
 8403 00af 12       		.uleb128 0x12
 8404 00b0 06       		.uleb128 0x6
 8405 00b1 40       		.uleb128 0x40
 8406 00b2 18       		.uleb128 0x18
 8407 00b3 9742     		.uleb128 0x2117
 8408 00b5 19       		.uleb128 0x19
 8409 00b6 01       		.uleb128 0x1
 8410 00b7 13       		.uleb128 0x13
 8411 00b8 00       		.byte	0
 8412 00b9 00       		.byte	0
 8413 00ba 10       		.uleb128 0x10
 8414 00bb 05       		.uleb128 0x5
 8415 00bc 00       		.byte	0
 8416 00bd 31       		.uleb128 0x31
 8417 00be 13       		.uleb128 0x13
 8418 00bf 02       		.uleb128 0x2
 8419 00c0 17       		.uleb128 0x17
 8420 00c1 00       		.byte	0
 8421 00c2 00       		.byte	0
 8422 00c3 11       		.uleb128 0x11
 8423 00c4 34       		.uleb128 0x34
 8424 00c5 00       		.byte	0
 8425 00c6 31       		.uleb128 0x31
 8426 00c7 13       		.uleb128 0x13
 8427 00c8 02       		.uleb128 0x2
 8428 00c9 17       		.uleb128 0x17
 8429 00ca 00       		.byte	0
 8430 00cb 00       		.byte	0
 8431 00cc 12       		.uleb128 0x12
 8432 00cd 0B       		.uleb128 0xb
 8433 00ce 01       		.byte	0x1
 8434 00cf 55       		.uleb128 0x55
 8435 00d0 17       		.uleb128 0x17
 8436 00d1 01       		.uleb128 0x1
 8437 00d2 13       		.uleb128 0x13
 8438 00d3 00       		.byte	0
ARM GAS  C:\Users\legoc\AppData\Local\Temp\cc4EoOj2.s 			page 186


 8439 00d4 00       		.byte	0
 8440 00d5 13       		.uleb128 0x13
 8441 00d6 0B       		.uleb128 0xb
 8442 00d7 01       		.byte	0x1
 8443 00d8 11       		.uleb128 0x11
 8444 00d9 01       		.uleb128 0x1
 8445 00da 12       		.uleb128 0x12
 8446 00db 06       		.uleb128 0x6
 8447 00dc 00       		.byte	0
 8448 00dd 00       		.byte	0
 8449 00de 14       		.uleb128 0x14
 8450 00df 2E       		.uleb128 0x2e
 8451 00e0 01       		.byte	0x1
 8452 00e1 47       		.uleb128 0x47
 8453 00e2 13       		.uleb128 0x13
 8454 00e3 20       		.uleb128 0x20
 8455 00e4 0B       		.uleb128 0xb
 8456 00e5 01       		.uleb128 0x1
 8457 00e6 13       		.uleb128 0x13
 8458 00e7 00       		.byte	0
 8459 00e8 00       		.byte	0
 8460 00e9 15       		.uleb128 0x15
 8461 00ea 898201   		.uleb128 0x4109
 8462 00ed 01       		.byte	0x1
 8463 00ee 11       		.uleb128 0x11
 8464 00ef 01       		.uleb128 0x1
 8465 00f0 31       		.uleb128 0x31
 8466 00f1 13       		.uleb128 0x13
 8467 00f2 00       		.byte	0
 8468 00f3 00       		.byte	0
 8469 00f4 16       		.uleb128 0x16
 8470 00f5 8A8201   		.uleb128 0x410a
 8471 00f8 00       		.byte	0
 8472 00f9 02       		.uleb128 0x2
 8473 00fa 18       		.uleb128 0x18
 8474 00fb 9142     		.uleb128 0x2111
 8475 00fd 18       		.uleb128 0x18
 8476 00fe 00       		.byte	0
 8477 00ff 00       		.byte	0
 8478 0100 17       		.uleb128 0x17
 8479 0101 2E       		.uleb128 0x2e
 8480 0102 01       		.byte	0x1
 8481 0103 3F       		.uleb128 0x3f
 8482 0104 19       		.uleb128 0x19
 8483 0105 03       		.uleb128 0x3
 8484 0106 0E       		.uleb128 0xe
 8485 0107 3A       		.uleb128 0x3a
 8486 0108 0B       		.uleb128 0xb
 8487 0109 3B       		.uleb128 0x3b
 8488 010a 05       		.uleb128 0x5
 8489 010b 27       		.uleb128 0x27
 8490 010c 19       		.uleb128 0x19
 8491 010d 11       		.uleb128 0x11
 8492 010e 01       		.uleb128 0x1
 8493 010f 12       		.uleb128 0x12
 8494 0110 06       		.uleb128 0x6
 8495 0111 40       		.uleb128 0x40
ARM GAS  C:\Users\legoc\AppData\Local\Temp\cc4EoOj2.s 			page 187


 8496 0112 18       		.uleb128 0x18
 8497 0113 9742     		.uleb128 0x2117
 8498 0115 19       		.uleb128 0x19
 8499 0116 01       		.uleb128 0x1
 8500 0117 13       		.uleb128 0x13
 8501 0118 00       		.byte	0
 8502 0119 00       		.byte	0
 8503 011a 18       		.uleb128 0x18
 8504 011b 05       		.uleb128 0x5
 8505 011c 00       		.byte	0
 8506 011d 03       		.uleb128 0x3
 8507 011e 08       		.uleb128 0x8
 8508 011f 3A       		.uleb128 0x3a
 8509 0120 0B       		.uleb128 0xb
 8510 0121 3B       		.uleb128 0x3b
 8511 0122 05       		.uleb128 0x5
 8512 0123 49       		.uleb128 0x49
 8513 0124 13       		.uleb128 0x13
 8514 0125 02       		.uleb128 0x2
 8515 0126 17       		.uleb128 0x17
 8516 0127 00       		.byte	0
 8517 0128 00       		.byte	0
 8518 0129 19       		.uleb128 0x19
 8519 012a 05       		.uleb128 0x5
 8520 012b 00       		.byte	0
 8521 012c 03       		.uleb128 0x3
 8522 012d 0E       		.uleb128 0xe
 8523 012e 3A       		.uleb128 0x3a
 8524 012f 0B       		.uleb128 0xb
 8525 0130 3B       		.uleb128 0x3b
 8526 0131 05       		.uleb128 0x5
 8527 0132 49       		.uleb128 0x49
 8528 0133 13       		.uleb128 0x13
 8529 0134 02       		.uleb128 0x2
 8530 0135 17       		.uleb128 0x17
 8531 0136 00       		.byte	0
 8532 0137 00       		.byte	0
 8533 0138 1A       		.uleb128 0x1a
 8534 0139 34       		.uleb128 0x34
 8535 013a 00       		.byte	0
 8536 013b 03       		.uleb128 0x3
 8537 013c 0E       		.uleb128 0xe
 8538 013d 3A       		.uleb128 0x3a
 8539 013e 0B       		.uleb128 0xb
 8540 013f 3B       		.uleb128 0x3b
 8541 0140 05       		.uleb128 0x5
 8542 0141 49       		.uleb128 0x49
 8543 0142 13       		.uleb128 0x13
 8544 0143 02       		.uleb128 0x2
 8545 0144 17       		.uleb128 0x17
 8546 0145 00       		.byte	0
 8547 0146 00       		.byte	0
 8548 0147 1B       		.uleb128 0x1b
 8549 0148 0B       		.uleb128 0xb
 8550 0149 01       		.byte	0x1
 8551 014a 55       		.uleb128 0x55
 8552 014b 17       		.uleb128 0x17
ARM GAS  C:\Users\legoc\AppData\Local\Temp\cc4EoOj2.s 			page 188


 8553 014c 00       		.byte	0
 8554 014d 00       		.byte	0
 8555 014e 1C       		.uleb128 0x1c
 8556 014f 34       		.uleb128 0x34
 8557 0150 00       		.byte	0
 8558 0151 03       		.uleb128 0x3
 8559 0152 08       		.uleb128 0x8
 8560 0153 3A       		.uleb128 0x3a
 8561 0154 0B       		.uleb128 0xb
 8562 0155 3B       		.uleb128 0x3b
 8563 0156 05       		.uleb128 0x5
 8564 0157 49       		.uleb128 0x49
 8565 0158 13       		.uleb128 0x13
 8566 0159 02       		.uleb128 0x2
 8567 015a 17       		.uleb128 0x17
 8568 015b 00       		.byte	0
 8569 015c 00       		.byte	0
 8570 015d 1D       		.uleb128 0x1d
 8571 015e 1D       		.uleb128 0x1d
 8572 015f 01       		.byte	0x1
 8573 0160 31       		.uleb128 0x31
 8574 0161 13       		.uleb128 0x13
 8575 0162 11       		.uleb128 0x11
 8576 0163 01       		.uleb128 0x1
 8577 0164 12       		.uleb128 0x12
 8578 0165 06       		.uleb128 0x6
 8579 0166 58       		.uleb128 0x58
 8580 0167 0B       		.uleb128 0xb
 8581 0168 59       		.uleb128 0x59
 8582 0169 05       		.uleb128 0x5
 8583 016a 01       		.uleb128 0x1
 8584 016b 13       		.uleb128 0x13
 8585 016c 00       		.byte	0
 8586 016d 00       		.byte	0
 8587 016e 1E       		.uleb128 0x1e
 8588 016f 05       		.uleb128 0x5
 8589 0170 00       		.byte	0
 8590 0171 31       		.uleb128 0x31
 8591 0172 13       		.uleb128 0x13
 8592 0173 00       		.byte	0
 8593 0174 00       		.byte	0
 8594 0175 1F       		.uleb128 0x1f
 8595 0176 0B       		.uleb128 0xb
 8596 0177 01       		.byte	0x1
 8597 0178 11       		.uleb128 0x11
 8598 0179 01       		.uleb128 0x1
 8599 017a 12       		.uleb128 0x12
 8600 017b 06       		.uleb128 0x6
 8601 017c 01       		.uleb128 0x1
 8602 017d 13       		.uleb128 0x13
 8603 017e 00       		.byte	0
 8604 017f 00       		.byte	0
 8605 0180 20       		.uleb128 0x20
 8606 0181 34       		.uleb128 0x34
 8607 0182 00       		.byte	0
 8608 0183 31       		.uleb128 0x31
 8609 0184 13       		.uleb128 0x13
ARM GAS  C:\Users\legoc\AppData\Local\Temp\cc4EoOj2.s 			page 189


 8610 0185 00       		.byte	0
 8611 0186 00       		.byte	0
 8612 0187 21       		.uleb128 0x21
 8613 0188 1D       		.uleb128 0x1d
 8614 0189 01       		.byte	0x1
 8615 018a 31       		.uleb128 0x31
 8616 018b 13       		.uleb128 0x13
 8617 018c 11       		.uleb128 0x11
 8618 018d 01       		.uleb128 0x1
 8619 018e 12       		.uleb128 0x12
 8620 018f 06       		.uleb128 0x6
 8621 0190 58       		.uleb128 0x58
 8622 0191 0B       		.uleb128 0xb
 8623 0192 59       		.uleb128 0x59
 8624 0193 05       		.uleb128 0x5
 8625 0194 00       		.byte	0
 8626 0195 00       		.byte	0
 8627 0196 22       		.uleb128 0x22
 8628 0197 05       		.uleb128 0x5
 8629 0198 00       		.byte	0
 8630 0199 31       		.uleb128 0x31
 8631 019a 13       		.uleb128 0x13
 8632 019b 02       		.uleb128 0x2
 8633 019c 18       		.uleb128 0x18
 8634 019d 00       		.byte	0
 8635 019e 00       		.byte	0
 8636 019f 23       		.uleb128 0x23
 8637 01a0 34       		.uleb128 0x34
 8638 01a1 00       		.byte	0
 8639 01a2 31       		.uleb128 0x31
 8640 01a3 13       		.uleb128 0x13
 8641 01a4 1C       		.uleb128 0x1c
 8642 01a5 0B       		.uleb128 0xb
 8643 01a6 00       		.byte	0
 8644 01a7 00       		.byte	0
 8645 01a8 24       		.uleb128 0x24
 8646 01a9 01       		.uleb128 0x1
 8647 01aa 01       		.byte	0x1
 8648 01ab 49       		.uleb128 0x49
 8649 01ac 13       		.uleb128 0x13
 8650 01ad 01       		.uleb128 0x1
 8651 01ae 13       		.uleb128 0x13
 8652 01af 00       		.byte	0
 8653 01b0 00       		.byte	0
 8654 01b1 25       		.uleb128 0x25
 8655 01b2 21       		.uleb128 0x21
 8656 01b3 00       		.byte	0
 8657 01b4 49       		.uleb128 0x49
 8658 01b5 13       		.uleb128 0x13
 8659 01b6 2F       		.uleb128 0x2f
 8660 01b7 0B       		.uleb128 0xb
 8661 01b8 00       		.byte	0
 8662 01b9 00       		.byte	0
 8663 01ba 26       		.uleb128 0x26
 8664 01bb 26       		.uleb128 0x26
 8665 01bc 00       		.byte	0
 8666 01bd 49       		.uleb128 0x49
ARM GAS  C:\Users\legoc\AppData\Local\Temp\cc4EoOj2.s 			page 190


 8667 01be 13       		.uleb128 0x13
 8668 01bf 00       		.byte	0
 8669 01c0 00       		.byte	0
 8670 01c1 27       		.uleb128 0x27
 8671 01c2 34       		.uleb128 0x34
 8672 01c3 00       		.byte	0
 8673 01c4 03       		.uleb128 0x3
 8674 01c5 0E       		.uleb128 0xe
 8675 01c6 3A       		.uleb128 0x3a
 8676 01c7 0B       		.uleb128 0xb
 8677 01c8 3B       		.uleb128 0x3b
 8678 01c9 0B       		.uleb128 0xb
 8679 01ca 49       		.uleb128 0x49
 8680 01cb 13       		.uleb128 0x13
 8681 01cc 1C       		.uleb128 0x1c
 8682 01cd 0A       		.uleb128 0xa
 8683 01ce 00       		.byte	0
 8684 01cf 00       		.byte	0
 8685 01d0 28       		.uleb128 0x28
 8686 01d1 34       		.uleb128 0x34
 8687 01d2 00       		.byte	0
 8688 01d3 03       		.uleb128 0x3
 8689 01d4 0E       		.uleb128 0xe
 8690 01d5 3A       		.uleb128 0x3a
 8691 01d6 0B       		.uleb128 0xb
 8692 01d7 3B       		.uleb128 0x3b
 8693 01d8 05       		.uleb128 0x5
 8694 01d9 49       		.uleb128 0x49
 8695 01da 13       		.uleb128 0x13
 8696 01db 1C       		.uleb128 0x1c
 8697 01dc 0A       		.uleb128 0xa
 8698 01dd 00       		.byte	0
 8699 01de 00       		.byte	0
 8700 01df 29       		.uleb128 0x29
 8701 01e0 21       		.uleb128 0x21
 8702 01e1 00       		.byte	0
 8703 01e2 49       		.uleb128 0x49
 8704 01e3 13       		.uleb128 0x13
 8705 01e4 2F       		.uleb128 0x2f
 8706 01e5 0D       		.uleb128 0xd
 8707 01e6 00       		.byte	0
 8708 01e7 00       		.byte	0
 8709 01e8 2A       		.uleb128 0x2a
 8710 01e9 21       		.uleb128 0x21
 8711 01ea 00       		.byte	0
 8712 01eb 49       		.uleb128 0x49
 8713 01ec 13       		.uleb128 0x13
 8714 01ed 2F       		.uleb128 0x2f
 8715 01ee 05       		.uleb128 0x5
 8716 01ef 00       		.byte	0
 8717 01f0 00       		.byte	0
 8718 01f1 2B       		.uleb128 0x2b
 8719 01f2 34       		.uleb128 0x34
 8720 01f3 00       		.byte	0
 8721 01f4 03       		.uleb128 0x3
 8722 01f5 0E       		.uleb128 0xe
 8723 01f6 3A       		.uleb128 0x3a
ARM GAS  C:\Users\legoc\AppData\Local\Temp\cc4EoOj2.s 			page 191


 8724 01f7 0B       		.uleb128 0xb
 8725 01f8 3B       		.uleb128 0x3b
 8726 01f9 0B       		.uleb128 0xb
 8727 01fa 49       		.uleb128 0x49
 8728 01fb 13       		.uleb128 0x13
 8729 01fc 02       		.uleb128 0x2
 8730 01fd 18       		.uleb128 0x18
 8731 01fe 00       		.byte	0
 8732 01ff 00       		.byte	0
 8733 0200 2C       		.uleb128 0x2c
 8734 0201 2E       		.uleb128 0x2e
 8735 0202 00       		.byte	0
 8736 0203 3F       		.uleb128 0x3f
 8737 0204 19       		.uleb128 0x19
 8738 0205 3C       		.uleb128 0x3c
 8739 0206 19       		.uleb128 0x19
 8740 0207 6E       		.uleb128 0x6e
 8741 0208 0E       		.uleb128 0xe
 8742 0209 03       		.uleb128 0x3
 8743 020a 0E       		.uleb128 0xe
 8744 020b 3A       		.uleb128 0x3a
 8745 020c 0B       		.uleb128 0xb
 8746 020d 3B       		.uleb128 0x3b
 8747 020e 05       		.uleb128 0x5
 8748 020f 00       		.byte	0
 8749 0210 00       		.byte	0
 8750 0211 00       		.byte	0
 8751              		.section	.debug_loc,"",%progbits
 8752              	.Ldebug_loc0:
 8753              	.LLST0:
 8754 0000 00000000 		.4byte	.LVL0
 8755 0004 38000000 		.4byte	.LVL9
 8756 0008 0100     		.2byte	0x1
 8757 000a 50       		.byte	0x50
 8758 000b 38000000 		.4byte	.LVL9
 8759 000f 42000000 		.4byte	.LVL11
 8760 0013 0400     		.2byte	0x4
 8761 0015 F3       		.byte	0xf3
 8762 0016 01       		.uleb128 0x1
 8763 0017 50       		.byte	0x50
 8764 0018 9F       		.byte	0x9f
 8765 0019 42000000 		.4byte	.LVL11
 8766 001d 86000000 		.4byte	.LVL19
 8767 0021 0100     		.2byte	0x1
 8768 0023 56       		.byte	0x56
 8769 0024 86000000 		.4byte	.LVL19
 8770 0028 94000000 		.4byte	.LFE1
 8771 002c 0100     		.2byte	0x1
 8772 002e 50       		.byte	0x50
 8773 002f 00000000 		.4byte	0
 8774 0033 00000000 		.4byte	0
 8775              	.LLST1:
 8776 0037 00000000 		.4byte	.LVL0
 8777 003b 36000000 		.4byte	.LVL8
 8778 003f 0100     		.2byte	0x1
 8779 0041 51       		.byte	0x51
 8780 0042 36000000 		.4byte	.LVL8
ARM GAS  C:\Users\legoc\AppData\Local\Temp\cc4EoOj2.s 			page 192


 8781 0046 42000000 		.4byte	.LVL11
 8782 004a 0300     		.2byte	0x3
 8783 004c 71       		.byte	0x71
 8784 004d 7B       		.sleb128 -5
 8785 004e 9F       		.byte	0x9f
 8786 004f 42000000 		.4byte	.LVL11
 8787 0053 68000000 		.4byte	.LVL15
 8788 0057 0100     		.2byte	0x1
 8789 0059 54       		.byte	0x54
 8790 005a 70000000 		.4byte	.LVL16
 8791 005e 86000000 		.4byte	.LVL19
 8792 0062 0100     		.2byte	0x1
 8793 0064 54       		.byte	0x54
 8794 0065 86000000 		.4byte	.LVL19
 8795 0069 94000000 		.4byte	.LFE1
 8796 006d 0100     		.2byte	0x1
 8797 006f 51       		.byte	0x51
 8798 0070 00000000 		.4byte	0
 8799 0074 00000000 		.4byte	0
 8800              	.LLST2:
 8801 0078 00000000 		.4byte	.LVL0
 8802 007c 14000000 		.4byte	.LVL1
 8803 0080 0100     		.2byte	0x1
 8804 0082 52       		.byte	0x52
 8805 0083 14000000 		.4byte	.LVL1
 8806 0087 86000000 		.4byte	.LVL19
 8807 008b 0400     		.2byte	0x4
 8808 008d F3       		.byte	0xf3
 8809 008e 01       		.uleb128 0x1
 8810 008f 52       		.byte	0x52
 8811 0090 9F       		.byte	0x9f
 8812 0091 86000000 		.4byte	.LVL19
 8813 0095 94000000 		.4byte	.LFE1
 8814 0099 0100     		.2byte	0x1
 8815 009b 52       		.byte	0x52
 8816 009c 00000000 		.4byte	0
 8817 00a0 00000000 		.4byte	0
 8818              	.LLST3:
 8819 00a4 00000000 		.4byte	.LVL0
 8820 00a8 3A000000 		.4byte	.LVL10
 8821 00ac 0100     		.2byte	0x1
 8822 00ae 53       		.byte	0x53
 8823 00af 3A000000 		.4byte	.LVL10
 8824 00b3 86000000 		.4byte	.LVL19
 8825 00b7 0400     		.2byte	0x4
 8826 00b9 F3       		.byte	0xf3
 8827 00ba 01       		.uleb128 0x1
 8828 00bb 53       		.byte	0x53
 8829 00bc 9F       		.byte	0x9f
 8830 00bd 86000000 		.4byte	.LVL19
 8831 00c1 94000000 		.4byte	.LFE1
 8832 00c5 0100     		.2byte	0x1
 8833 00c7 53       		.byte	0x53
 8834 00c8 00000000 		.4byte	0
 8835 00cc 00000000 		.4byte	0
 8836              	.LLST4:
 8837 00d0 00000000 		.4byte	.LVL0
ARM GAS  C:\Users\legoc\AppData\Local\Temp\cc4EoOj2.s 			page 193


 8838 00d4 16000000 		.4byte	.LVL2
 8839 00d8 0200     		.2byte	0x2
 8840 00da 31       		.byte	0x31
 8841 00db 9F       		.byte	0x9f
 8842 00dc 16000000 		.4byte	.LVL2
 8843 00e0 1E000000 		.4byte	.LVL5
 8844 00e4 0100     		.2byte	0x1
 8845 00e6 52       		.byte	0x52
 8846 00e7 22000000 		.4byte	.LVL6
 8847 00eb 30000000 		.4byte	.LVL7
 8848 00ef 0100     		.2byte	0x1
 8849 00f1 52       		.byte	0x52
 8850 00f2 44000000 		.4byte	.LVL12
 8851 00f6 72000000 		.4byte	.LVL17
 8852 00fa 0100     		.2byte	0x1
 8853 00fc 58       		.byte	0x58
 8854 00fd 78000000 		.4byte	.LVL18
 8855 0101 86000000 		.4byte	.LVL19
 8856 0105 0100     		.2byte	0x1
 8857 0107 58       		.byte	0x58
 8858 0108 86000000 		.4byte	.LVL19
 8859 010c 94000000 		.4byte	.LFE1
 8860 0110 0200     		.2byte	0x2
 8861 0112 31       		.byte	0x31
 8862 0113 9F       		.byte	0x9f
 8863 0114 00000000 		.4byte	0
 8864 0118 00000000 		.4byte	0
 8865              	.LLST5:
 8866 011c 42000000 		.4byte	.LVL11
 8867 0120 86000000 		.4byte	.LVL19
 8868 0124 0200     		.2byte	0x2
 8869 0126 37       		.byte	0x37
 8870 0127 9F       		.byte	0x9f
 8871 0128 00000000 		.4byte	0
 8872 012c 00000000 		.4byte	0
 8873              	.LLST6:
 8874 0130 00000000 		.4byte	.LVL0
 8875 0134 16000000 		.4byte	.LVL2
 8876 0138 0200     		.2byte	0x2
 8877 013a 30       		.byte	0x30
 8878 013b 9F       		.byte	0x9f
 8879 013c 16000000 		.4byte	.LVL2
 8880 0140 1C000000 		.4byte	.LVL4
 8881 0144 0100     		.2byte	0x1
 8882 0146 55       		.byte	0x55
 8883 0147 1C000000 		.4byte	.LVL4
 8884 014b 22000000 		.4byte	.LVL6
 8885 014f 0300     		.2byte	0x3
 8886 0151 75       		.byte	0x75
 8887 0152 7F       		.sleb128 -1
 8888 0153 9F       		.byte	0x9f
 8889 0154 22000000 		.4byte	.LVL6
 8890 0158 30000000 		.4byte	.LVL7
 8891 015c 0100     		.2byte	0x1
 8892 015e 55       		.byte	0x55
 8893 015f 86000000 		.4byte	.LVL19
 8894 0163 94000000 		.4byte	.LFE1
ARM GAS  C:\Users\legoc\AppData\Local\Temp\cc4EoOj2.s 			page 194


 8895 0167 0200     		.2byte	0x2
 8896 0169 30       		.byte	0x30
 8897 016a 9F       		.byte	0x9f
 8898 016b 00000000 		.4byte	0
 8899 016f 00000000 		.4byte	0
 8900              	.LLST7:
 8901 0173 42000000 		.4byte	.LVL11
 8902 0177 44000000 		.4byte	.LVL12
 8903 017b 0200     		.2byte	0x2
 8904 017d 30       		.byte	0x30
 8905 017e 9F       		.byte	0x9f
 8906 017f 00000000 		.4byte	0
 8907 0183 00000000 		.4byte	0
 8908              	.LLST8:
 8909 0187 44000000 		.4byte	.LVL12
 8910 018b 54000000 		.4byte	.LVL13
 8911 018f 0200     		.2byte	0x2
 8912 0191 30       		.byte	0x30
 8913 0192 9F       		.byte	0x9f
 8914 0193 00000000 		.4byte	0
 8915 0197 00000000 		.4byte	0
 8916              	.LLST9:
 8917 019b 00000000 		.4byte	.LVL20
 8918 019f 1A000000 		.4byte	.LVL24
 8919 01a3 0100     		.2byte	0x1
 8920 01a5 50       		.byte	0x50
 8921 01a6 1A000000 		.4byte	.LVL24
 8922 01aa 32100000 		.4byte	.LFE2
 8923 01ae 0400     		.2byte	0x4
 8924 01b0 F3       		.byte	0xf3
 8925 01b1 01       		.uleb128 0x1
 8926 01b2 50       		.byte	0x50
 8927 01b3 9F       		.byte	0x9f
 8928 01b4 00000000 		.4byte	0
 8929 01b8 00000000 		.4byte	0
 8930              	.LLST10:
 8931 01bc 00000000 		.4byte	.LVL20
 8932 01c0 0E000000 		.4byte	.LVL23
 8933 01c4 0100     		.2byte	0x1
 8934 01c6 51       		.byte	0x51
 8935 01c7 0E000000 		.4byte	.LVL23
 8936 01cb 32100000 		.4byte	.LFE2
 8937 01cf 0200     		.2byte	0x2
 8938 01d1 91       		.byte	0x91
 8939 01d2 48       		.sleb128 -56
 8940 01d3 00000000 		.4byte	0
 8941 01d7 00000000 		.4byte	0
 8942              	.LLST11:
 8943 01db 00000000 		.4byte	.LVL20
 8944 01df 1A000000 		.4byte	.LVL24
 8945 01e3 0100     		.2byte	0x1
 8946 01e5 52       		.byte	0x52
 8947 01e6 1A000000 		.4byte	.LVL24
 8948 01ea 32100000 		.4byte	.LFE2
 8949 01ee 0400     		.2byte	0x4
 8950 01f0 F3       		.byte	0xf3
 8951 01f1 01       		.uleb128 0x1
ARM GAS  C:\Users\legoc\AppData\Local\Temp\cc4EoOj2.s 			page 195


 8952 01f2 52       		.byte	0x52
 8953 01f3 9F       		.byte	0x9f
 8954 01f4 00000000 		.4byte	0
 8955 01f8 00000000 		.4byte	0
 8956              	.LLST12:
 8957 01fc 00000000 		.4byte	.LVL20
 8958 0200 0A000000 		.4byte	.LVL21
 8959 0204 0100     		.2byte	0x1
 8960 0206 53       		.byte	0x53
 8961 0207 0A000000 		.4byte	.LVL21
 8962 020b BC000000 		.4byte	.LVL30
 8963 020f 0200     		.2byte	0x2
 8964 0211 91       		.byte	0x91
 8965 0212 44       		.sleb128 -60
 8966 0213 BC000000 		.4byte	.LVL30
 8967 0217 C0000000 		.4byte	.LVL31
 8968 021b 0300     		.2byte	0x3
 8969 021d 72       		.byte	0x72
 8970 021e 7F       		.sleb128 -1
 8971 021f 9F       		.byte	0x9f
 8972 0220 C6000000 		.4byte	.LVL32
 8973 0224 32100000 		.4byte	.LFE2
 8974 0228 0200     		.2byte	0x2
 8975 022a 91       		.byte	0x91
 8976 022b 44       		.sleb128 -60
 8977 022c 00000000 		.4byte	0
 8978 0230 00000000 		.4byte	0
 8979              	.LLST13:
 8980 0234 0C000000 		.4byte	.LVL22
 8981 0238 1A000000 		.4byte	.LVL24
 8982 023c 0100     		.2byte	0x1
 8983 023e 50       		.byte	0x50
 8984 023f 1A000000 		.4byte	.LVL24
 8985 0243 9E000000 		.4byte	.LVL26
 8986 0247 0100     		.2byte	0x1
 8987 0249 56       		.byte	0x56
 8988 024a A4000000 		.4byte	.LVL27
 8989 024e AA000000 		.4byte	.LVL28
 8990 0252 0100     		.2byte	0x1
 8991 0254 56       		.byte	0x56
 8992 0255 AA000000 		.4byte	.LVL28
 8993 0259 B4000000 		.4byte	.LVL29
 8994 025d 0200     		.2byte	0x2
 8995 025f 91       		.byte	0x91
 8996 0260 50       		.sleb128 -48
 8997 0261 B4000000 		.4byte	.LVL29
 8998 0265 C0000000 		.4byte	.LVL31
 8999 0269 0100     		.2byte	0x1
 9000 026b 56       		.byte	0x56
 9001 026c C6000000 		.4byte	.LVL32
 9002 0270 FA000000 		.4byte	.LVL40
 9003 0274 0100     		.2byte	0x1
 9004 0276 56       		.byte	0x56
 9005 0277 FA000000 		.4byte	.LVL40
 9006 027b 36010000 		.4byte	.LVL47
 9007 027f 0200     		.2byte	0x2
 9008 0281 91       		.byte	0x91
ARM GAS  C:\Users\legoc\AppData\Local\Temp\cc4EoOj2.s 			page 196


 9009 0282 4C       		.sleb128 -52
 9010 0283 36010000 		.4byte	.LVL47
 9011 0287 6A010000 		.4byte	.LVL55
 9012 028b 0100     		.2byte	0x1
 9013 028d 56       		.byte	0x56
 9014 028e 6A010000 		.4byte	.LVL55
 9015 0292 A6010000 		.4byte	.LVL62
 9016 0296 0200     		.2byte	0x2
 9017 0298 91       		.byte	0x91
 9018 0299 4C       		.sleb128 -52
 9019 029a A6010000 		.4byte	.LVL62
 9020 029e DA010000 		.4byte	.LVL70
 9021 02a2 0100     		.2byte	0x1
 9022 02a4 56       		.byte	0x56
 9023 02a5 DA010000 		.4byte	.LVL70
 9024 02a9 16020000 		.4byte	.LVL77
 9025 02ad 0200     		.2byte	0x2
 9026 02af 91       		.byte	0x91
 9027 02b0 4C       		.sleb128 -52
 9028 02b1 16020000 		.4byte	.LVL77
 9029 02b5 4A020000 		.4byte	.LVL85
 9030 02b9 0100     		.2byte	0x1
 9031 02bb 56       		.byte	0x56
 9032 02bc 4A020000 		.4byte	.LVL85
 9033 02c0 86020000 		.4byte	.LVL92
 9034 02c4 0200     		.2byte	0x2
 9035 02c6 91       		.byte	0x91
 9036 02c7 4C       		.sleb128 -52
 9037 02c8 86020000 		.4byte	.LVL92
 9038 02cc BA020000 		.4byte	.LVL100
 9039 02d0 0100     		.2byte	0x1
 9040 02d2 56       		.byte	0x56
 9041 02d3 BA020000 		.4byte	.LVL100
 9042 02d7 F6020000 		.4byte	.LVL107
 9043 02db 0200     		.2byte	0x2
 9044 02dd 91       		.byte	0x91
 9045 02de 4C       		.sleb128 -52
 9046 02df F6020000 		.4byte	.LVL107
 9047 02e3 2A030000 		.4byte	.LVL115
 9048 02e7 0100     		.2byte	0x1
 9049 02e9 56       		.byte	0x56
 9050 02ea 2A030000 		.4byte	.LVL115
 9051 02ee 66030000 		.4byte	.LVL122
 9052 02f2 0200     		.2byte	0x2
 9053 02f4 91       		.byte	0x91
 9054 02f5 4C       		.sleb128 -52
 9055 02f6 66030000 		.4byte	.LVL122
 9056 02fa 9A030000 		.4byte	.LVL130
 9057 02fe 0100     		.2byte	0x1
 9058 0300 56       		.byte	0x56
 9059 0301 9A030000 		.4byte	.LVL130
 9060 0305 D6030000 		.4byte	.LVL137
 9061 0309 0200     		.2byte	0x2
 9062 030b 91       		.byte	0x91
 9063 030c 4C       		.sleb128 -52
 9064 030d D6030000 		.4byte	.LVL137
 9065 0311 0A040000 		.4byte	.LVL145
ARM GAS  C:\Users\legoc\AppData\Local\Temp\cc4EoOj2.s 			page 197


 9066 0315 0100     		.2byte	0x1
 9067 0317 56       		.byte	0x56
 9068 0318 0A040000 		.4byte	.LVL145
 9069 031c 46040000 		.4byte	.LVL152
 9070 0320 0200     		.2byte	0x2
 9071 0322 91       		.byte	0x91
 9072 0323 4C       		.sleb128 -52
 9073 0324 46040000 		.4byte	.LVL152
 9074 0328 66040000 		.4byte	.LVL154
 9075 032c 0100     		.2byte	0x1
 9076 032e 56       		.byte	0x56
 9077 032f 66040000 		.4byte	.LVL154
 9078 0333 A4040000 		.4byte	.LVL161
 9079 0337 0200     		.2byte	0x2
 9080 0339 91       		.byte	0x91
 9081 033a 4C       		.sleb128 -52
 9082 033b A4040000 		.4byte	.LVL161
 9083 033f D8040000 		.4byte	.LVL169
 9084 0343 0100     		.2byte	0x1
 9085 0345 56       		.byte	0x56
 9086 0346 D8040000 		.4byte	.LVL169
 9087 034a 14050000 		.4byte	.LVL176
 9088 034e 0200     		.2byte	0x2
 9089 0350 91       		.byte	0x91
 9090 0351 4C       		.sleb128 -52
 9091 0352 14050000 		.4byte	.LVL176
 9092 0356 34050000 		.4byte	.LVL178
 9093 035a 0100     		.2byte	0x1
 9094 035c 56       		.byte	0x56
 9095 035d 34050000 		.4byte	.LVL178
 9096 0361 72050000 		.4byte	.LVL185
 9097 0365 0200     		.2byte	0x2
 9098 0367 91       		.byte	0x91
 9099 0368 4C       		.sleb128 -52
 9100 0369 72050000 		.4byte	.LVL185
 9101 036d A6050000 		.4byte	.LVL193
 9102 0371 0100     		.2byte	0x1
 9103 0373 56       		.byte	0x56
 9104 0374 A6050000 		.4byte	.LVL193
 9105 0378 E2050000 		.4byte	.LVL200
 9106 037c 0200     		.2byte	0x2
 9107 037e 91       		.byte	0x91
 9108 037f 4C       		.sleb128 -52
 9109 0380 E2050000 		.4byte	.LVL200
 9110 0384 16060000 		.4byte	.LVL208
 9111 0388 0100     		.2byte	0x1
 9112 038a 56       		.byte	0x56
 9113 038b 16060000 		.4byte	.LVL208
 9114 038f 52060000 		.4byte	.LVL215
 9115 0393 0200     		.2byte	0x2
 9116 0395 91       		.byte	0x91
 9117 0396 4C       		.sleb128 -52
 9118 0397 52060000 		.4byte	.LVL215
 9119 039b 86060000 		.4byte	.LVL223
 9120 039f 0100     		.2byte	0x1
 9121 03a1 56       		.byte	0x56
 9122 03a2 86060000 		.4byte	.LVL223
ARM GAS  C:\Users\legoc\AppData\Local\Temp\cc4EoOj2.s 			page 198


 9123 03a6 C2060000 		.4byte	.LVL230
 9124 03aa 0200     		.2byte	0x2
 9125 03ac 91       		.byte	0x91
 9126 03ad 4C       		.sleb128 -52
 9127 03ae C2060000 		.4byte	.LVL230
 9128 03b2 E2060000 		.4byte	.LVL232
 9129 03b6 0100     		.2byte	0x1
 9130 03b8 56       		.byte	0x56
 9131 03b9 E2060000 		.4byte	.LVL232
 9132 03bd 20070000 		.4byte	.LVL239
 9133 03c1 0200     		.2byte	0x2
 9134 03c3 91       		.byte	0x91
 9135 03c4 4C       		.sleb128 -52
 9136 03c5 20070000 		.4byte	.LVL239
 9137 03c9 40070000 		.4byte	.LVL241
 9138 03cd 0100     		.2byte	0x1
 9139 03cf 56       		.byte	0x56
 9140 03d0 40070000 		.4byte	.LVL241
 9141 03d4 7E070000 		.4byte	.LVL248
 9142 03d8 0200     		.2byte	0x2
 9143 03da 91       		.byte	0x91
 9144 03db 4C       		.sleb128 -52
 9145 03dc 7E070000 		.4byte	.LVL248
 9146 03e0 9E070000 		.4byte	.LVL250
 9147 03e4 0100     		.2byte	0x1
 9148 03e6 56       		.byte	0x56
 9149 03e7 9E070000 		.4byte	.LVL250
 9150 03eb DC070000 		.4byte	.LVL257
 9151 03ef 0200     		.2byte	0x2
 9152 03f1 91       		.byte	0x91
 9153 03f2 4C       		.sleb128 -52
 9154 03f3 DC070000 		.4byte	.LVL257
 9155 03f7 FC070000 		.4byte	.LVL259
 9156 03fb 0100     		.2byte	0x1
 9157 03fd 56       		.byte	0x56
 9158 03fe FC070000 		.4byte	.LVL259
 9159 0402 3A080000 		.4byte	.LVL266
 9160 0406 0200     		.2byte	0x2
 9161 0408 91       		.byte	0x91
 9162 0409 4C       		.sleb128 -52
 9163 040a 3A080000 		.4byte	.LVL266
 9164 040e 5A080000 		.4byte	.LVL268
 9165 0412 0100     		.2byte	0x1
 9166 0414 56       		.byte	0x56
 9167 0415 5A080000 		.4byte	.LVL268
 9168 0419 98080000 		.4byte	.LVL275
 9169 041d 0200     		.2byte	0x2
 9170 041f 91       		.byte	0x91
 9171 0420 4C       		.sleb128 -52
 9172 0421 98080000 		.4byte	.LVL275
 9173 0425 CC080000 		.4byte	.LVL283
 9174 0429 0100     		.2byte	0x1
 9175 042b 56       		.byte	0x56
 9176 042c CC080000 		.4byte	.LVL283
 9177 0430 0A090000 		.4byte	.LVL290
 9178 0434 0200     		.2byte	0x2
 9179 0436 91       		.byte	0x91
ARM GAS  C:\Users\legoc\AppData\Local\Temp\cc4EoOj2.s 			page 199


 9180 0437 4C       		.sleb128 -52
 9181 0438 0A090000 		.4byte	.LVL290
 9182 043c 26090000 		.4byte	.LVL292
 9183 0440 0100     		.2byte	0x1
 9184 0442 56       		.byte	0x56
 9185 0443 26090000 		.4byte	.LVL292
 9186 0447 64090000 		.4byte	.LVL299
 9187 044b 0200     		.2byte	0x2
 9188 044d 91       		.byte	0x91
 9189 044e 4C       		.sleb128 -52
 9190 044f 64090000 		.4byte	.LVL299
 9191 0453 84090000 		.4byte	.LVL301
 9192 0457 0100     		.2byte	0x1
 9193 0459 56       		.byte	0x56
 9194 045a 84090000 		.4byte	.LVL301
 9195 045e C2090000 		.4byte	.LVL308
 9196 0462 0200     		.2byte	0x2
 9197 0464 91       		.byte	0x91
 9198 0465 4C       		.sleb128 -52
 9199 0466 C2090000 		.4byte	.LVL308
 9200 046a F6090000 		.4byte	.LVL316
 9201 046e 0100     		.2byte	0x1
 9202 0470 56       		.byte	0x56
 9203 0471 F6090000 		.4byte	.LVL316
 9204 0475 340A0000 		.4byte	.LVL323
 9205 0479 0200     		.2byte	0x2
 9206 047b 91       		.byte	0x91
 9207 047c 4C       		.sleb128 -52
 9208 047d 340A0000 		.4byte	.LVL323
 9209 0481 680A0000 		.4byte	.LVL331
 9210 0485 0100     		.2byte	0x1
 9211 0487 56       		.byte	0x56
 9212 0488 680A0000 		.4byte	.LVL331
 9213 048c A60A0000 		.4byte	.LVL338
 9214 0490 0200     		.2byte	0x2
 9215 0492 91       		.byte	0x91
 9216 0493 4C       		.sleb128 -52
 9217 0494 A60A0000 		.4byte	.LVL338
 9218 0498 C60A0000 		.4byte	.LVL340
 9219 049c 0100     		.2byte	0x1
 9220 049e 56       		.byte	0x56
 9221 049f C60A0000 		.4byte	.LVL340
 9222 04a3 040B0000 		.4byte	.LVL347
 9223 04a7 0200     		.2byte	0x2
 9224 04a9 91       		.byte	0x91
 9225 04aa 4C       		.sleb128 -52
 9226 04ab 040B0000 		.4byte	.LVL347
 9227 04af 240B0000 		.4byte	.LVL349
 9228 04b3 0100     		.2byte	0x1
 9229 04b5 56       		.byte	0x56
 9230 04b6 240B0000 		.4byte	.LVL349
 9231 04ba 620B0000 		.4byte	.LVL356
 9232 04be 0200     		.2byte	0x2
 9233 04c0 91       		.byte	0x91
 9234 04c1 4C       		.sleb128 -52
 9235 04c2 620B0000 		.4byte	.LVL356
 9236 04c6 820B0000 		.4byte	.LVL358
ARM GAS  C:\Users\legoc\AppData\Local\Temp\cc4EoOj2.s 			page 200


 9237 04ca 0100     		.2byte	0x1
 9238 04cc 56       		.byte	0x56
 9239 04cd 820B0000 		.4byte	.LVL358
 9240 04d1 C00B0000 		.4byte	.LVL365
 9241 04d5 0200     		.2byte	0x2
 9242 04d7 91       		.byte	0x91
 9243 04d8 4C       		.sleb128 -52
 9244 04d9 C00B0000 		.4byte	.LVL365
 9245 04dd E00B0000 		.4byte	.LVL367
 9246 04e1 0100     		.2byte	0x1
 9247 04e3 56       		.byte	0x56
 9248 04e4 E00B0000 		.4byte	.LVL367
 9249 04e8 1E0C0000 		.4byte	.LVL374
 9250 04ec 0200     		.2byte	0x2
 9251 04ee 91       		.byte	0x91
 9252 04ef 4C       		.sleb128 -52
 9253 04f0 1E0C0000 		.4byte	.LVL374
 9254 04f4 3E0C0000 		.4byte	.LVL376
 9255 04f8 0100     		.2byte	0x1
 9256 04fa 56       		.byte	0x56
 9257 04fb 3E0C0000 		.4byte	.LVL376
 9258 04ff 800C0000 		.4byte	.LVL383
 9259 0503 0200     		.2byte	0x2
 9260 0505 91       		.byte	0x91
 9261 0506 4C       		.sleb128 -52
 9262 0507 800C0000 		.4byte	.LVL383
 9263 050b A00C0000 		.4byte	.LVL385
 9264 050f 0100     		.2byte	0x1
 9265 0511 56       		.byte	0x56
 9266 0512 A00C0000 		.4byte	.LVL385
 9267 0516 DE0C0000 		.4byte	.LVL392
 9268 051a 0200     		.2byte	0x2
 9269 051c 91       		.byte	0x91
 9270 051d 4C       		.sleb128 -52
 9271 051e DE0C0000 		.4byte	.LVL392
 9272 0522 FE0C0000 		.4byte	.LVL394
 9273 0526 0100     		.2byte	0x1
 9274 0528 56       		.byte	0x56
 9275 0529 FE0C0000 		.4byte	.LVL394
 9276 052d 3C0D0000 		.4byte	.LVL401
 9277 0531 0200     		.2byte	0x2
 9278 0533 91       		.byte	0x91
 9279 0534 4C       		.sleb128 -52
 9280 0535 3C0D0000 		.4byte	.LVL401
 9281 0539 5C0D0000 		.4byte	.LVL403
 9282 053d 0100     		.2byte	0x1
 9283 053f 56       		.byte	0x56
 9284 0540 5C0D0000 		.4byte	.LVL403
 9285 0544 9A0D0000 		.4byte	.LVL410
 9286 0548 0200     		.2byte	0x2
 9287 054a 91       		.byte	0x91
 9288 054b 4C       		.sleb128 -52
 9289 054c 9A0D0000 		.4byte	.LVL410
 9290 0550 BA0D0000 		.4byte	.LVL412
 9291 0554 0100     		.2byte	0x1
 9292 0556 56       		.byte	0x56
 9293 0557 BA0D0000 		.4byte	.LVL412
ARM GAS  C:\Users\legoc\AppData\Local\Temp\cc4EoOj2.s 			page 201


 9294 055b F80D0000 		.4byte	.LVL419
 9295 055f 0200     		.2byte	0x2
 9296 0561 91       		.byte	0x91
 9297 0562 4C       		.sleb128 -52
 9298 0563 F80D0000 		.4byte	.LVL419
 9299 0567 2C0E0000 		.4byte	.LVL427
 9300 056b 0100     		.2byte	0x1
 9301 056d 56       		.byte	0x56
 9302 056e 2C0E0000 		.4byte	.LVL427
 9303 0572 6A0E0000 		.4byte	.LVL434
 9304 0576 0200     		.2byte	0x2
 9305 0578 91       		.byte	0x91
 9306 0579 4C       		.sleb128 -52
 9307 057a 6A0E0000 		.4byte	.LVL434
 9308 057e 9E0E0000 		.4byte	.LVL442
 9309 0582 0100     		.2byte	0x1
 9310 0584 56       		.byte	0x56
 9311 0585 9E0E0000 		.4byte	.LVL442
 9312 0589 DC0E0000 		.4byte	.LVL449
 9313 058d 0200     		.2byte	0x2
 9314 058f 91       		.byte	0x91
 9315 0590 4C       		.sleb128 -52
 9316 0591 DC0E0000 		.4byte	.LVL449
 9317 0595 100F0000 		.4byte	.LVL457
 9318 0599 0100     		.2byte	0x1
 9319 059b 56       		.byte	0x56
 9320 059c 100F0000 		.4byte	.LVL457
 9321 05a0 4E0F0000 		.4byte	.LVL464
 9322 05a4 0200     		.2byte	0x2
 9323 05a6 91       		.byte	0x91
 9324 05a7 4C       		.sleb128 -52
 9325 05a8 4E0F0000 		.4byte	.LVL464
 9326 05ac 820F0000 		.4byte	.LVL472
 9327 05b0 0100     		.2byte	0x1
 9328 05b2 56       		.byte	0x56
 9329 05b3 820F0000 		.4byte	.LVL472
 9330 05b7 C00F0000 		.4byte	.LVL479
 9331 05bb 0200     		.2byte	0x2
 9332 05bd 91       		.byte	0x91
 9333 05be 4C       		.sleb128 -52
 9334 05bf C00F0000 		.4byte	.LVL479
 9335 05c3 F40F0000 		.4byte	.LVL487
 9336 05c7 0100     		.2byte	0x1
 9337 05c9 56       		.byte	0x56
 9338 05ca F40F0000 		.4byte	.LVL487
 9339 05ce 32100000 		.4byte	.LFE2
 9340 05d2 0200     		.2byte	0x2
 9341 05d4 91       		.byte	0x91
 9342 05d5 4C       		.sleb128 -52
 9343 05d6 00000000 		.4byte	0
 9344 05da 00000000 		.4byte	0
 9345              	.LLST14:
 9346 05de 1A000000 		.4byte	.LVL24
 9347 05e2 1C000000 		.4byte	.LVL25
 9348 05e6 0100     		.2byte	0x1
 9349 05e8 53       		.byte	0x53
 9350 05e9 00000000 		.4byte	0
ARM GAS  C:\Users\legoc\AppData\Local\Temp\cc4EoOj2.s 			page 202


 9351 05ed 00000000 		.4byte	0
 9352              	.LLST15:
 9353 05f1 F8000000 		.4byte	.LVL39
 9354 05f5 22010000 		.4byte	.LVL43
 9355 05f9 0100     		.2byte	0x1
 9356 05fb 55       		.byte	0x55
 9357 05fc 2A010000 		.4byte	.LVL44
 9358 0600 36010000 		.4byte	.LVL47
 9359 0604 0100     		.2byte	0x1
 9360 0606 55       		.byte	0x55
 9361 0607 00000000 		.4byte	0
 9362 060b 00000000 		.4byte	0
 9363              	.LLST16:
 9364 060f F8000000 		.4byte	.LVL39
 9365 0613 36010000 		.4byte	.LVL47
 9366 0617 0100     		.2byte	0x1
 9367 0619 57       		.byte	0x57
 9368 061a 00000000 		.4byte	0
 9369 061e 00000000 		.4byte	0
 9370              	.LLST17:
 9371 0622 CE000000 		.4byte	.LVL33
 9372 0626 D6000000 		.4byte	.LVL35
 9373 062a 0100     		.2byte	0x1
 9374 062c 53       		.byte	0x53
 9375 062d DA000000 		.4byte	.LVL36
 9376 0631 E8000000 		.4byte	.LVL37
 9377 0635 0100     		.2byte	0x1
 9378 0637 53       		.byte	0x53
 9379 0638 E8000000 		.4byte	.LVL37
 9380 063c F2000000 		.4byte	.LVL38
 9381 0640 0300     		.2byte	0x3
 9382 0642 73       		.byte	0x73
 9383 0643 7F       		.sleb128 -1
 9384 0644 9F       		.byte	0x9f
 9385 0645 F2000000 		.4byte	.LVL38
 9386 0649 2C010000 		.4byte	.LVL45
 9387 064d 0100     		.2byte	0x1
 9388 064f 58       		.byte	0x58
 9389 0650 32010000 		.4byte	.LVL46
 9390 0654 36010000 		.4byte	.LVL47
 9391 0658 0100     		.2byte	0x1
 9392 065a 58       		.byte	0x58
 9393 065b 00000000 		.4byte	0
 9394 065f 00000000 		.4byte	0
 9395              	.LLST18:
 9396 0663 F8000000 		.4byte	.LVL39
 9397 0667 36010000 		.4byte	.LVL47
 9398 066b 0200     		.2byte	0x2
 9399 066d 37       		.byte	0x37
 9400 066e 9F       		.byte	0x9f
 9401 066f 00000000 		.4byte	0
 9402 0673 00000000 		.4byte	0
 9403              	.LLST19:
 9404 0677 F8000000 		.4byte	.LVL39
 9405 067b FA000000 		.4byte	.LVL40
 9406 067f 0200     		.2byte	0x2
 9407 0681 30       		.byte	0x30
ARM GAS  C:\Users\legoc\AppData\Local\Temp\cc4EoOj2.s 			page 203


 9408 0682 9F       		.byte	0x9f
 9409 0683 00000000 		.4byte	0
 9410 0687 00000000 		.4byte	0
 9411              	.LLST20:
 9412 068b FA000000 		.4byte	.LVL40
 9413 068f 0E010000 		.4byte	.LVL41
 9414 0693 0200     		.2byte	0x2
 9415 0695 30       		.byte	0x30
 9416 0696 9F       		.byte	0x9f
 9417 0697 00000000 		.4byte	0
 9418 069b 00000000 		.4byte	0
 9419              	.LLST21:
 9420 069f 68010000 		.4byte	.LVL54
 9421 06a3 92010000 		.4byte	.LVL58
 9422 06a7 0100     		.2byte	0x1
 9423 06a9 55       		.byte	0x55
 9424 06aa 9A010000 		.4byte	.LVL59
 9425 06ae A6010000 		.4byte	.LVL62
 9426 06b2 0100     		.2byte	0x1
 9427 06b4 55       		.byte	0x55
 9428 06b5 00000000 		.4byte	0
 9429 06b9 00000000 		.4byte	0
 9430              	.LLST22:
 9431 06bd 68010000 		.4byte	.LVL54
 9432 06c1 A6010000 		.4byte	.LVL62
 9433 06c5 0100     		.2byte	0x1
 9434 06c7 57       		.byte	0x57
 9435 06c8 00000000 		.4byte	0
 9436 06cc 00000000 		.4byte	0
 9437              	.LLST23:
 9438 06d0 3E010000 		.4byte	.LVL48
 9439 06d4 46010000 		.4byte	.LVL50
 9440 06d8 0100     		.2byte	0x1
 9441 06da 53       		.byte	0x53
 9442 06db 4A010000 		.4byte	.LVL51
 9443 06df 58010000 		.4byte	.LVL52
 9444 06e3 0100     		.2byte	0x1
 9445 06e5 53       		.byte	0x53
 9446 06e6 58010000 		.4byte	.LVL52
 9447 06ea 62010000 		.4byte	.LVL53
 9448 06ee 0300     		.2byte	0x3
 9449 06f0 73       		.byte	0x73
 9450 06f1 7F       		.sleb128 -1
 9451 06f2 9F       		.byte	0x9f
 9452 06f3 62010000 		.4byte	.LVL53
 9453 06f7 9C010000 		.4byte	.LVL60
 9454 06fb 0100     		.2byte	0x1
 9455 06fd 58       		.byte	0x58
 9456 06fe A2010000 		.4byte	.LVL61
 9457 0702 A6010000 		.4byte	.LVL62
 9458 0706 0100     		.2byte	0x1
 9459 0708 58       		.byte	0x58
 9460 0709 00000000 		.4byte	0
 9461 070d 00000000 		.4byte	0
 9462              	.LLST24:
 9463 0711 68010000 		.4byte	.LVL54
 9464 0715 A6010000 		.4byte	.LVL62
ARM GAS  C:\Users\legoc\AppData\Local\Temp\cc4EoOj2.s 			page 204


 9465 0719 0200     		.2byte	0x2
 9466 071b 37       		.byte	0x37
 9467 071c 9F       		.byte	0x9f
 9468 071d 00000000 		.4byte	0
 9469 0721 00000000 		.4byte	0
 9470              	.LLST25:
 9471 0725 68010000 		.4byte	.LVL54
 9472 0729 6A010000 		.4byte	.LVL55
 9473 072d 0200     		.2byte	0x2
 9474 072f 30       		.byte	0x30
 9475 0730 9F       		.byte	0x9f
 9476 0731 00000000 		.4byte	0
 9477 0735 00000000 		.4byte	0
 9478              	.LLST26:
 9479 0739 6A010000 		.4byte	.LVL55
 9480 073d 7E010000 		.4byte	.LVL56
 9481 0741 0200     		.2byte	0x2
 9482 0743 30       		.byte	0x30
 9483 0744 9F       		.byte	0x9f
 9484 0745 00000000 		.4byte	0
 9485 0749 00000000 		.4byte	0
 9486              	.LLST27:
 9487 074d D8010000 		.4byte	.LVL69
 9488 0751 02020000 		.4byte	.LVL73
 9489 0755 0100     		.2byte	0x1
 9490 0757 55       		.byte	0x55
 9491 0758 0A020000 		.4byte	.LVL74
 9492 075c 16020000 		.4byte	.LVL77
 9493 0760 0100     		.2byte	0x1
 9494 0762 55       		.byte	0x55
 9495 0763 00000000 		.4byte	0
 9496 0767 00000000 		.4byte	0
 9497              	.LLST28:
 9498 076b D8010000 		.4byte	.LVL69
 9499 076f 16020000 		.4byte	.LVL77
 9500 0773 0100     		.2byte	0x1
 9501 0775 57       		.byte	0x57
 9502 0776 00000000 		.4byte	0
 9503 077a 00000000 		.4byte	0
 9504              	.LLST29:
 9505 077e AE010000 		.4byte	.LVL63
 9506 0782 B6010000 		.4byte	.LVL65
 9507 0786 0100     		.2byte	0x1
 9508 0788 53       		.byte	0x53
 9509 0789 BA010000 		.4byte	.LVL66
 9510 078d C8010000 		.4byte	.LVL67
 9511 0791 0100     		.2byte	0x1
 9512 0793 53       		.byte	0x53
 9513 0794 C8010000 		.4byte	.LVL67
 9514 0798 D2010000 		.4byte	.LVL68
 9515 079c 0300     		.2byte	0x3
 9516 079e 73       		.byte	0x73
 9517 079f 7F       		.sleb128 -1
 9518 07a0 9F       		.byte	0x9f
 9519 07a1 D2010000 		.4byte	.LVL68
 9520 07a5 0C020000 		.4byte	.LVL75
 9521 07a9 0100     		.2byte	0x1
ARM GAS  C:\Users\legoc\AppData\Local\Temp\cc4EoOj2.s 			page 205


 9522 07ab 58       		.byte	0x58
 9523 07ac 12020000 		.4byte	.LVL76
 9524 07b0 16020000 		.4byte	.LVL77
 9525 07b4 0100     		.2byte	0x1
 9526 07b6 58       		.byte	0x58
 9527 07b7 00000000 		.4byte	0
 9528 07bb 00000000 		.4byte	0
 9529              	.LLST30:
 9530 07bf D8010000 		.4byte	.LVL69
 9531 07c3 16020000 		.4byte	.LVL77
 9532 07c7 0200     		.2byte	0x2
 9533 07c9 37       		.byte	0x37
 9534 07ca 9F       		.byte	0x9f
 9535 07cb 00000000 		.4byte	0
 9536 07cf 00000000 		.4byte	0
 9537              	.LLST31:
 9538 07d3 D8010000 		.4byte	.LVL69
 9539 07d7 DA010000 		.4byte	.LVL70
 9540 07db 0200     		.2byte	0x2
 9541 07dd 30       		.byte	0x30
 9542 07de 9F       		.byte	0x9f
 9543 07df 00000000 		.4byte	0
 9544 07e3 00000000 		.4byte	0
 9545              	.LLST32:
 9546 07e7 DA010000 		.4byte	.LVL70
 9547 07eb EE010000 		.4byte	.LVL71
 9548 07ef 0200     		.2byte	0x2
 9549 07f1 30       		.byte	0x30
 9550 07f2 9F       		.byte	0x9f
 9551 07f3 00000000 		.4byte	0
 9552 07f7 00000000 		.4byte	0
 9553              	.LLST33:
 9554 07fb 48020000 		.4byte	.LVL84
 9555 07ff 72020000 		.4byte	.LVL88
 9556 0803 0100     		.2byte	0x1
 9557 0805 55       		.byte	0x55
 9558 0806 7A020000 		.4byte	.LVL89
 9559 080a 86020000 		.4byte	.LVL92
 9560 080e 0100     		.2byte	0x1
 9561 0810 55       		.byte	0x55
 9562 0811 00000000 		.4byte	0
 9563 0815 00000000 		.4byte	0
 9564              	.LLST34:
 9565 0819 48020000 		.4byte	.LVL84
 9566 081d 86020000 		.4byte	.LVL92
 9567 0821 0100     		.2byte	0x1
 9568 0823 57       		.byte	0x57
 9569 0824 00000000 		.4byte	0
 9570 0828 00000000 		.4byte	0
 9571              	.LLST35:
 9572 082c 1E020000 		.4byte	.LVL78
 9573 0830 26020000 		.4byte	.LVL80
 9574 0834 0100     		.2byte	0x1
 9575 0836 53       		.byte	0x53
 9576 0837 2A020000 		.4byte	.LVL81
 9577 083b 38020000 		.4byte	.LVL82
 9578 083f 0100     		.2byte	0x1
ARM GAS  C:\Users\legoc\AppData\Local\Temp\cc4EoOj2.s 			page 206


 9579 0841 53       		.byte	0x53
 9580 0842 38020000 		.4byte	.LVL82
 9581 0846 42020000 		.4byte	.LVL83
 9582 084a 0300     		.2byte	0x3
 9583 084c 73       		.byte	0x73
 9584 084d 7F       		.sleb128 -1
 9585 084e 9F       		.byte	0x9f
 9586 084f 42020000 		.4byte	.LVL83
 9587 0853 7C020000 		.4byte	.LVL90
 9588 0857 0100     		.2byte	0x1
 9589 0859 58       		.byte	0x58
 9590 085a 82020000 		.4byte	.LVL91
 9591 085e 86020000 		.4byte	.LVL92
 9592 0862 0100     		.2byte	0x1
 9593 0864 58       		.byte	0x58
 9594 0865 00000000 		.4byte	0
 9595 0869 00000000 		.4byte	0
 9596              	.LLST36:
 9597 086d 48020000 		.4byte	.LVL84
 9598 0871 86020000 		.4byte	.LVL92
 9599 0875 0200     		.2byte	0x2
 9600 0877 37       		.byte	0x37
 9601 0878 9F       		.byte	0x9f
 9602 0879 00000000 		.4byte	0
 9603 087d 00000000 		.4byte	0
 9604              	.LLST37:
 9605 0881 48020000 		.4byte	.LVL84
 9606 0885 4A020000 		.4byte	.LVL85
 9607 0889 0200     		.2byte	0x2
 9608 088b 30       		.byte	0x30
 9609 088c 9F       		.byte	0x9f
 9610 088d 00000000 		.4byte	0
 9611 0891 00000000 		.4byte	0
 9612              	.LLST38:
 9613 0895 4A020000 		.4byte	.LVL85
 9614 0899 5E020000 		.4byte	.LVL86
 9615 089d 0200     		.2byte	0x2
 9616 089f 30       		.byte	0x30
 9617 08a0 9F       		.byte	0x9f
 9618 08a1 00000000 		.4byte	0
 9619 08a5 00000000 		.4byte	0
 9620              	.LLST39:
 9621 08a9 B8020000 		.4byte	.LVL99
 9622 08ad E2020000 		.4byte	.LVL103
 9623 08b1 0100     		.2byte	0x1
 9624 08b3 55       		.byte	0x55
 9625 08b4 EA020000 		.4byte	.LVL104
 9626 08b8 F6020000 		.4byte	.LVL107
 9627 08bc 0100     		.2byte	0x1
 9628 08be 55       		.byte	0x55
 9629 08bf 00000000 		.4byte	0
 9630 08c3 00000000 		.4byte	0
 9631              	.LLST40:
 9632 08c7 B8020000 		.4byte	.LVL99
 9633 08cb F6020000 		.4byte	.LVL107
 9634 08cf 0100     		.2byte	0x1
 9635 08d1 57       		.byte	0x57
ARM GAS  C:\Users\legoc\AppData\Local\Temp\cc4EoOj2.s 			page 207


 9636 08d2 00000000 		.4byte	0
 9637 08d6 00000000 		.4byte	0
 9638              	.LLST41:
 9639 08da 8E020000 		.4byte	.LVL93
 9640 08de 96020000 		.4byte	.LVL95
 9641 08e2 0100     		.2byte	0x1
 9642 08e4 53       		.byte	0x53
 9643 08e5 9A020000 		.4byte	.LVL96
 9644 08e9 A8020000 		.4byte	.LVL97
 9645 08ed 0100     		.2byte	0x1
 9646 08ef 53       		.byte	0x53
 9647 08f0 A8020000 		.4byte	.LVL97
 9648 08f4 B2020000 		.4byte	.LVL98
 9649 08f8 0300     		.2byte	0x3
 9650 08fa 73       		.byte	0x73
 9651 08fb 7F       		.sleb128 -1
 9652 08fc 9F       		.byte	0x9f
 9653 08fd B2020000 		.4byte	.LVL98
 9654 0901 EC020000 		.4byte	.LVL105
 9655 0905 0100     		.2byte	0x1
 9656 0907 58       		.byte	0x58
 9657 0908 F2020000 		.4byte	.LVL106
 9658 090c F6020000 		.4byte	.LVL107
 9659 0910 0100     		.2byte	0x1
 9660 0912 58       		.byte	0x58
 9661 0913 00000000 		.4byte	0
 9662 0917 00000000 		.4byte	0
 9663              	.LLST42:
 9664 091b B8020000 		.4byte	.LVL99
 9665 091f F6020000 		.4byte	.LVL107
 9666 0923 0200     		.2byte	0x2
 9667 0925 37       		.byte	0x37
 9668 0926 9F       		.byte	0x9f
 9669 0927 00000000 		.4byte	0
 9670 092b 00000000 		.4byte	0
 9671              	.LLST43:
 9672 092f B8020000 		.4byte	.LVL99
 9673 0933 BA020000 		.4byte	.LVL100
 9674 0937 0200     		.2byte	0x2
 9675 0939 30       		.byte	0x30
 9676 093a 9F       		.byte	0x9f
 9677 093b 00000000 		.4byte	0
 9678 093f 00000000 		.4byte	0
 9679              	.LLST44:
 9680 0943 BA020000 		.4byte	.LVL100
 9681 0947 CE020000 		.4byte	.LVL101
 9682 094b 0200     		.2byte	0x2
 9683 094d 30       		.byte	0x30
 9684 094e 9F       		.byte	0x9f
 9685 094f 00000000 		.4byte	0
 9686 0953 00000000 		.4byte	0
 9687              	.LLST45:
 9688 0957 28030000 		.4byte	.LVL114
 9689 095b 52030000 		.4byte	.LVL118
 9690 095f 0100     		.2byte	0x1
 9691 0961 55       		.byte	0x55
 9692 0962 5A030000 		.4byte	.LVL119
ARM GAS  C:\Users\legoc\AppData\Local\Temp\cc4EoOj2.s 			page 208


 9693 0966 66030000 		.4byte	.LVL122
 9694 096a 0100     		.2byte	0x1
 9695 096c 55       		.byte	0x55
 9696 096d 00000000 		.4byte	0
 9697 0971 00000000 		.4byte	0
 9698              	.LLST46:
 9699 0975 28030000 		.4byte	.LVL114
 9700 0979 66030000 		.4byte	.LVL122
 9701 097d 0100     		.2byte	0x1
 9702 097f 57       		.byte	0x57
 9703 0980 00000000 		.4byte	0
 9704 0984 00000000 		.4byte	0
 9705              	.LLST47:
 9706 0988 FE020000 		.4byte	.LVL108
 9707 098c 06030000 		.4byte	.LVL110
 9708 0990 0100     		.2byte	0x1
 9709 0992 53       		.byte	0x53
 9710 0993 0A030000 		.4byte	.LVL111
 9711 0997 18030000 		.4byte	.LVL112
 9712 099b 0100     		.2byte	0x1
 9713 099d 53       		.byte	0x53
 9714 099e 18030000 		.4byte	.LVL112
 9715 09a2 22030000 		.4byte	.LVL113
 9716 09a6 0300     		.2byte	0x3
 9717 09a8 73       		.byte	0x73
 9718 09a9 7F       		.sleb128 -1
 9719 09aa 9F       		.byte	0x9f
 9720 09ab 22030000 		.4byte	.LVL113
 9721 09af 5C030000 		.4byte	.LVL120
 9722 09b3 0100     		.2byte	0x1
 9723 09b5 58       		.byte	0x58
 9724 09b6 62030000 		.4byte	.LVL121
 9725 09ba 66030000 		.4byte	.LVL122
 9726 09be 0100     		.2byte	0x1
 9727 09c0 58       		.byte	0x58
 9728 09c1 00000000 		.4byte	0
 9729 09c5 00000000 		.4byte	0
 9730              	.LLST48:
 9731 09c9 28030000 		.4byte	.LVL114
 9732 09cd 66030000 		.4byte	.LVL122
 9733 09d1 0200     		.2byte	0x2
 9734 09d3 37       		.byte	0x37
 9735 09d4 9F       		.byte	0x9f
 9736 09d5 00000000 		.4byte	0
 9737 09d9 00000000 		.4byte	0
 9738              	.LLST49:
 9739 09dd 28030000 		.4byte	.LVL114
 9740 09e1 2A030000 		.4byte	.LVL115
 9741 09e5 0200     		.2byte	0x2
 9742 09e7 30       		.byte	0x30
 9743 09e8 9F       		.byte	0x9f
 9744 09e9 00000000 		.4byte	0
 9745 09ed 00000000 		.4byte	0
 9746              	.LLST50:
 9747 09f1 2A030000 		.4byte	.LVL115
 9748 09f5 3E030000 		.4byte	.LVL116
 9749 09f9 0200     		.2byte	0x2
ARM GAS  C:\Users\legoc\AppData\Local\Temp\cc4EoOj2.s 			page 209


 9750 09fb 30       		.byte	0x30
 9751 09fc 9F       		.byte	0x9f
 9752 09fd 00000000 		.4byte	0
 9753 0a01 00000000 		.4byte	0
 9754              	.LLST51:
 9755 0a05 98030000 		.4byte	.LVL129
 9756 0a09 C2030000 		.4byte	.LVL133
 9757 0a0d 0100     		.2byte	0x1
 9758 0a0f 55       		.byte	0x55
 9759 0a10 CA030000 		.4byte	.LVL134
 9760 0a14 D6030000 		.4byte	.LVL137
 9761 0a18 0100     		.2byte	0x1
 9762 0a1a 55       		.byte	0x55
 9763 0a1b 00000000 		.4byte	0
 9764 0a1f 00000000 		.4byte	0
 9765              	.LLST52:
 9766 0a23 98030000 		.4byte	.LVL129
 9767 0a27 D6030000 		.4byte	.LVL137
 9768 0a2b 0100     		.2byte	0x1
 9769 0a2d 57       		.byte	0x57
 9770 0a2e 00000000 		.4byte	0
 9771 0a32 00000000 		.4byte	0
 9772              	.LLST53:
 9773 0a36 6E030000 		.4byte	.LVL123
 9774 0a3a 76030000 		.4byte	.LVL125
 9775 0a3e 0100     		.2byte	0x1
 9776 0a40 53       		.byte	0x53
 9777 0a41 7A030000 		.4byte	.LVL126
 9778 0a45 88030000 		.4byte	.LVL127
 9779 0a49 0100     		.2byte	0x1
 9780 0a4b 53       		.byte	0x53
 9781 0a4c 88030000 		.4byte	.LVL127
 9782 0a50 92030000 		.4byte	.LVL128
 9783 0a54 0300     		.2byte	0x3
 9784 0a56 73       		.byte	0x73
 9785 0a57 7F       		.sleb128 -1
 9786 0a58 9F       		.byte	0x9f
 9787 0a59 92030000 		.4byte	.LVL128
 9788 0a5d CC030000 		.4byte	.LVL135
 9789 0a61 0100     		.2byte	0x1
 9790 0a63 58       		.byte	0x58
 9791 0a64 D2030000 		.4byte	.LVL136
 9792 0a68 D6030000 		.4byte	.LVL137
 9793 0a6c 0100     		.2byte	0x1
 9794 0a6e 58       		.byte	0x58
 9795 0a6f 00000000 		.4byte	0
 9796 0a73 00000000 		.4byte	0
 9797              	.LLST54:
 9798 0a77 98030000 		.4byte	.LVL129
 9799 0a7b D6030000 		.4byte	.LVL137
 9800 0a7f 0200     		.2byte	0x2
 9801 0a81 37       		.byte	0x37
 9802 0a82 9F       		.byte	0x9f
 9803 0a83 00000000 		.4byte	0
 9804 0a87 00000000 		.4byte	0
 9805              	.LLST55:
 9806 0a8b 98030000 		.4byte	.LVL129
ARM GAS  C:\Users\legoc\AppData\Local\Temp\cc4EoOj2.s 			page 210


 9807 0a8f 9A030000 		.4byte	.LVL130
 9808 0a93 0200     		.2byte	0x2
 9809 0a95 30       		.byte	0x30
 9810 0a96 9F       		.byte	0x9f
 9811 0a97 00000000 		.4byte	0
 9812 0a9b 00000000 		.4byte	0
 9813              	.LLST56:
 9814 0a9f 9A030000 		.4byte	.LVL130
 9815 0aa3 AE030000 		.4byte	.LVL131
 9816 0aa7 0200     		.2byte	0x2
 9817 0aa9 30       		.byte	0x30
 9818 0aaa 9F       		.byte	0x9f
 9819 0aab 00000000 		.4byte	0
 9820 0aaf 00000000 		.4byte	0
 9821              	.LLST57:
 9822 0ab3 08040000 		.4byte	.LVL144
 9823 0ab7 32040000 		.4byte	.LVL148
 9824 0abb 0100     		.2byte	0x1
 9825 0abd 55       		.byte	0x55
 9826 0abe 3A040000 		.4byte	.LVL149
 9827 0ac2 46040000 		.4byte	.LVL152
 9828 0ac6 0100     		.2byte	0x1
 9829 0ac8 55       		.byte	0x55
 9830 0ac9 00000000 		.4byte	0
 9831 0acd 00000000 		.4byte	0
 9832              	.LLST58:
 9833 0ad1 08040000 		.4byte	.LVL144
 9834 0ad5 46040000 		.4byte	.LVL152
 9835 0ad9 0100     		.2byte	0x1
 9836 0adb 57       		.byte	0x57
 9837 0adc 00000000 		.4byte	0
 9838 0ae0 00000000 		.4byte	0
 9839              	.LLST59:
 9840 0ae4 DE030000 		.4byte	.LVL138
 9841 0ae8 E6030000 		.4byte	.LVL140
 9842 0aec 0100     		.2byte	0x1
 9843 0aee 53       		.byte	0x53
 9844 0aef EA030000 		.4byte	.LVL141
 9845 0af3 F8030000 		.4byte	.LVL142
 9846 0af7 0100     		.2byte	0x1
 9847 0af9 53       		.byte	0x53
 9848 0afa F8030000 		.4byte	.LVL142
 9849 0afe 02040000 		.4byte	.LVL143
 9850 0b02 0300     		.2byte	0x3
 9851 0b04 73       		.byte	0x73
 9852 0b05 7F       		.sleb128 -1
 9853 0b06 9F       		.byte	0x9f
 9854 0b07 02040000 		.4byte	.LVL143
 9855 0b0b 3C040000 		.4byte	.LVL150
 9856 0b0f 0100     		.2byte	0x1
 9857 0b11 58       		.byte	0x58
 9858 0b12 42040000 		.4byte	.LVL151
 9859 0b16 46040000 		.4byte	.LVL152
 9860 0b1a 0100     		.2byte	0x1
 9861 0b1c 58       		.byte	0x58
 9862 0b1d 00000000 		.4byte	0
 9863 0b21 00000000 		.4byte	0
ARM GAS  C:\Users\legoc\AppData\Local\Temp\cc4EoOj2.s 			page 211


 9864              	.LLST60:
 9865 0b25 08040000 		.4byte	.LVL144
 9866 0b29 46040000 		.4byte	.LVL152
 9867 0b2d 0200     		.2byte	0x2
 9868 0b2f 37       		.byte	0x37
 9869 0b30 9F       		.byte	0x9f
 9870 0b31 00000000 		.4byte	0
 9871 0b35 00000000 		.4byte	0
 9872              	.LLST61:
 9873 0b39 08040000 		.4byte	.LVL144
 9874 0b3d 0A040000 		.4byte	.LVL145
 9875 0b41 0200     		.2byte	0x2
 9876 0b43 30       		.byte	0x30
 9877 0b44 9F       		.byte	0x9f
 9878 0b45 00000000 		.4byte	0
 9879 0b49 00000000 		.4byte	0
 9880              	.LLST62:
 9881 0b4d 0A040000 		.4byte	.LVL145
 9882 0b51 1E040000 		.4byte	.LVL146
 9883 0b55 0200     		.2byte	0x2
 9884 0b57 30       		.byte	0x30
 9885 0b58 9F       		.byte	0x9f
 9886 0b59 00000000 		.4byte	0
 9887 0b5d 00000000 		.4byte	0
 9888              	.LLST63:
 9889 0b61 5C040000 		.4byte	.LVL153
 9890 0b65 8A040000 		.4byte	.LVL157
 9891 0b69 0100     		.2byte	0x1
 9892 0b6b 55       		.byte	0x55
 9893 0b6c 92040000 		.4byte	.LVL158
 9894 0b70 A4040000 		.4byte	.LVL161
 9895 0b74 0100     		.2byte	0x1
 9896 0b76 55       		.byte	0x55
 9897 0b77 00000000 		.4byte	0
 9898 0b7b 00000000 		.4byte	0
 9899              	.LLST64:
 9900 0b7f 5C040000 		.4byte	.LVL153
 9901 0b83 A4040000 		.4byte	.LVL161
 9902 0b87 0100     		.2byte	0x1
 9903 0b89 57       		.byte	0x57
 9904 0b8a 00000000 		.4byte	0
 9905 0b8e 00000000 		.4byte	0
 9906              	.LLST65:
 9907 0b92 46040000 		.4byte	.LVL152
 9908 0b96 66040000 		.4byte	.LVL154
 9909 0b9a 0400     		.2byte	0x4
 9910 0b9c 0A       		.byte	0xa
 9911 0b9d 2001     		.2byte	0x120
 9912 0b9f 9F       		.byte	0x9f
 9913 0ba0 66040000 		.4byte	.LVL154
 9914 0ba4 94040000 		.4byte	.LVL159
 9915 0ba8 0100     		.2byte	0x1
 9916 0baa 58       		.byte	0x58
 9917 0bab 9A040000 		.4byte	.LVL160
 9918 0baf A4040000 		.4byte	.LVL161
 9919 0bb3 0100     		.2byte	0x1
 9920 0bb5 58       		.byte	0x58
ARM GAS  C:\Users\legoc\AppData\Local\Temp\cc4EoOj2.s 			page 212


 9921 0bb6 00000000 		.4byte	0
 9922 0bba 00000000 		.4byte	0
 9923              	.LLST66:
 9924 0bbe 5C040000 		.4byte	.LVL153
 9925 0bc2 A4040000 		.4byte	.LVL161
 9926 0bc6 0200     		.2byte	0x2
 9927 0bc8 37       		.byte	0x37
 9928 0bc9 9F       		.byte	0x9f
 9929 0bca 00000000 		.4byte	0
 9930 0bce 00000000 		.4byte	0
 9931              	.LLST67:
 9932 0bd2 5C040000 		.4byte	.LVL153
 9933 0bd6 66040000 		.4byte	.LVL154
 9934 0bda 0200     		.2byte	0x2
 9935 0bdc 30       		.byte	0x30
 9936 0bdd 9F       		.byte	0x9f
 9937 0bde 00000000 		.4byte	0
 9938 0be2 00000000 		.4byte	0
 9939              	.LLST68:
 9940 0be6 66040000 		.4byte	.LVL154
 9941 0bea 76040000 		.4byte	.LVL155
 9942 0bee 0200     		.2byte	0x2
 9943 0bf0 30       		.byte	0x30
 9944 0bf1 9F       		.byte	0x9f
 9945 0bf2 00000000 		.4byte	0
 9946 0bf6 00000000 		.4byte	0
 9947              	.LLST69:
 9948 0bfa D6040000 		.4byte	.LVL168
 9949 0bfe 00050000 		.4byte	.LVL172
 9950 0c02 0100     		.2byte	0x1
 9951 0c04 55       		.byte	0x55
 9952 0c05 08050000 		.4byte	.LVL173
 9953 0c09 14050000 		.4byte	.LVL176
 9954 0c0d 0100     		.2byte	0x1
 9955 0c0f 55       		.byte	0x55
 9956 0c10 00000000 		.4byte	0
 9957 0c14 00000000 		.4byte	0
 9958              	.LLST70:
 9959 0c18 D6040000 		.4byte	.LVL168
 9960 0c1c 14050000 		.4byte	.LVL176
 9961 0c20 0100     		.2byte	0x1
 9962 0c22 57       		.byte	0x57
 9963 0c23 00000000 		.4byte	0
 9964 0c27 00000000 		.4byte	0
 9965              	.LLST71:
 9966 0c2b AC040000 		.4byte	.LVL162
 9967 0c2f B4040000 		.4byte	.LVL164
 9968 0c33 0100     		.2byte	0x1
 9969 0c35 53       		.byte	0x53
 9970 0c36 B8040000 		.4byte	.LVL165
 9971 0c3a C6040000 		.4byte	.LVL166
 9972 0c3e 0100     		.2byte	0x1
 9973 0c40 53       		.byte	0x53
 9974 0c41 C6040000 		.4byte	.LVL166
 9975 0c45 D0040000 		.4byte	.LVL167
 9976 0c49 0300     		.2byte	0x3
 9977 0c4b 73       		.byte	0x73
ARM GAS  C:\Users\legoc\AppData\Local\Temp\cc4EoOj2.s 			page 213


 9978 0c4c 7F       		.sleb128 -1
 9979 0c4d 9F       		.byte	0x9f
 9980 0c4e D0040000 		.4byte	.LVL167
 9981 0c52 0A050000 		.4byte	.LVL174
 9982 0c56 0100     		.2byte	0x1
 9983 0c58 58       		.byte	0x58
 9984 0c59 10050000 		.4byte	.LVL175
 9985 0c5d 14050000 		.4byte	.LVL176
 9986 0c61 0100     		.2byte	0x1
 9987 0c63 58       		.byte	0x58
 9988 0c64 00000000 		.4byte	0
 9989 0c68 00000000 		.4byte	0
 9990              	.LLST72:
 9991 0c6c D6040000 		.4byte	.LVL168
 9992 0c70 14050000 		.4byte	.LVL176
 9993 0c74 0200     		.2byte	0x2
 9994 0c76 37       		.byte	0x37
 9995 0c77 9F       		.byte	0x9f
 9996 0c78 00000000 		.4byte	0
 9997 0c7c 00000000 		.4byte	0
 9998              	.LLST73:
 9999 0c80 D6040000 		.4byte	.LVL168
 10000 0c84 D8040000 		.4byte	.LVL169
 10001 0c88 0200     		.2byte	0x2
 10002 0c8a 30       		.byte	0x30
 10003 0c8b 9F       		.byte	0x9f
 10004 0c8c 00000000 		.4byte	0
 10005 0c90 00000000 		.4byte	0
 10006              	.LLST74:
 10007 0c94 D8040000 		.4byte	.LVL169
 10008 0c98 EC040000 		.4byte	.LVL170
 10009 0c9c 0200     		.2byte	0x2
 10010 0c9e 30       		.byte	0x30
 10011 0c9f 9F       		.byte	0x9f
 10012 0ca0 00000000 		.4byte	0
 10013 0ca4 00000000 		.4byte	0
 10014              	.LLST75:
 10015 0ca8 2A050000 		.4byte	.LVL177
 10016 0cac 58050000 		.4byte	.LVL181
 10017 0cb0 0100     		.2byte	0x1
 10018 0cb2 55       		.byte	0x55
 10019 0cb3 60050000 		.4byte	.LVL182
 10020 0cb7 72050000 		.4byte	.LVL185
 10021 0cbb 0100     		.2byte	0x1
 10022 0cbd 55       		.byte	0x55
 10023 0cbe 00000000 		.4byte	0
 10024 0cc2 00000000 		.4byte	0
 10025              	.LLST76:
 10026 0cc6 2A050000 		.4byte	.LVL177
 10027 0cca 72050000 		.4byte	.LVL185
 10028 0cce 0100     		.2byte	0x1
 10029 0cd0 57       		.byte	0x57
 10030 0cd1 00000000 		.4byte	0
 10031 0cd5 00000000 		.4byte	0
 10032              	.LLST77:
 10033 0cd9 14050000 		.4byte	.LVL176
 10034 0cdd 34050000 		.4byte	.LVL178
ARM GAS  C:\Users\legoc\AppData\Local\Temp\cc4EoOj2.s 			page 214


 10035 0ce1 0300     		.2byte	0x3
 10036 0ce3 08       		.byte	0x8
 10037 0ce4 5F       		.byte	0x5f
 10038 0ce5 9F       		.byte	0x9f
 10039 0ce6 34050000 		.4byte	.LVL178
 10040 0cea 62050000 		.4byte	.LVL183
 10041 0cee 0100     		.2byte	0x1
 10042 0cf0 58       		.byte	0x58
 10043 0cf1 68050000 		.4byte	.LVL184
 10044 0cf5 72050000 		.4byte	.LVL185
 10045 0cf9 0100     		.2byte	0x1
 10046 0cfb 58       		.byte	0x58
 10047 0cfc 00000000 		.4byte	0
 10048 0d00 00000000 		.4byte	0
 10049              	.LLST78:
 10050 0d04 2A050000 		.4byte	.LVL177
 10051 0d08 72050000 		.4byte	.LVL185
 10052 0d0c 0200     		.2byte	0x2
 10053 0d0e 37       		.byte	0x37
 10054 0d0f 9F       		.byte	0x9f
 10055 0d10 00000000 		.4byte	0
 10056 0d14 00000000 		.4byte	0
 10057              	.LLST79:
 10058 0d18 2A050000 		.4byte	.LVL177
 10059 0d1c 34050000 		.4byte	.LVL178
 10060 0d20 0200     		.2byte	0x2
 10061 0d22 30       		.byte	0x30
 10062 0d23 9F       		.byte	0x9f
 10063 0d24 00000000 		.4byte	0
 10064 0d28 00000000 		.4byte	0
 10065              	.LLST80:
 10066 0d2c 34050000 		.4byte	.LVL178
 10067 0d30 44050000 		.4byte	.LVL179
 10068 0d34 0200     		.2byte	0x2
 10069 0d36 30       		.byte	0x30
 10070 0d37 9F       		.byte	0x9f
 10071 0d38 00000000 		.4byte	0
 10072 0d3c 00000000 		.4byte	0
 10073              	.LLST81:
 10074 0d40 A4050000 		.4byte	.LVL192
 10075 0d44 CE050000 		.4byte	.LVL196
 10076 0d48 0100     		.2byte	0x1
 10077 0d4a 55       		.byte	0x55
 10078 0d4b D6050000 		.4byte	.LVL197
 10079 0d4f E2050000 		.4byte	.LVL200
 10080 0d53 0100     		.2byte	0x1
 10081 0d55 55       		.byte	0x55
 10082 0d56 00000000 		.4byte	0
 10083 0d5a 00000000 		.4byte	0
 10084              	.LLST82:
 10085 0d5e A4050000 		.4byte	.LVL192
 10086 0d62 E2050000 		.4byte	.LVL200
 10087 0d66 0100     		.2byte	0x1
 10088 0d68 57       		.byte	0x57
 10089 0d69 00000000 		.4byte	0
 10090 0d6d 00000000 		.4byte	0
 10091              	.LLST83:
ARM GAS  C:\Users\legoc\AppData\Local\Temp\cc4EoOj2.s 			page 215


 10092 0d71 7A050000 		.4byte	.LVL186
 10093 0d75 82050000 		.4byte	.LVL188
 10094 0d79 0100     		.2byte	0x1
 10095 0d7b 53       		.byte	0x53
 10096 0d7c 86050000 		.4byte	.LVL189
 10097 0d80 94050000 		.4byte	.LVL190
 10098 0d84 0100     		.2byte	0x1
 10099 0d86 53       		.byte	0x53
 10100 0d87 94050000 		.4byte	.LVL190
 10101 0d8b 9E050000 		.4byte	.LVL191
 10102 0d8f 0300     		.2byte	0x3
 10103 0d91 73       		.byte	0x73
 10104 0d92 7F       		.sleb128 -1
 10105 0d93 9F       		.byte	0x9f
 10106 0d94 9E050000 		.4byte	.LVL191
 10107 0d98 D8050000 		.4byte	.LVL198
 10108 0d9c 0100     		.2byte	0x1
 10109 0d9e 58       		.byte	0x58
 10110 0d9f DE050000 		.4byte	.LVL199
 10111 0da3 E2050000 		.4byte	.LVL200
 10112 0da7 0100     		.2byte	0x1
 10113 0da9 58       		.byte	0x58
 10114 0daa 00000000 		.4byte	0
 10115 0dae 00000000 		.4byte	0
 10116              	.LLST84:
 10117 0db2 A4050000 		.4byte	.LVL192
 10118 0db6 E2050000 		.4byte	.LVL200
 10119 0dba 0200     		.2byte	0x2
 10120 0dbc 37       		.byte	0x37
 10121 0dbd 9F       		.byte	0x9f
 10122 0dbe 00000000 		.4byte	0
 10123 0dc2 00000000 		.4byte	0
 10124              	.LLST85:
 10125 0dc6 A4050000 		.4byte	.LVL192
 10126 0dca A6050000 		.4byte	.LVL193
 10127 0dce 0200     		.2byte	0x2
 10128 0dd0 30       		.byte	0x30
 10129 0dd1 9F       		.byte	0x9f
 10130 0dd2 00000000 		.4byte	0
 10131 0dd6 00000000 		.4byte	0
 10132              	.LLST86:
 10133 0dda A6050000 		.4byte	.LVL193
 10134 0dde BA050000 		.4byte	.LVL194
 10135 0de2 0200     		.2byte	0x2
 10136 0de4 30       		.byte	0x30
 10137 0de5 9F       		.byte	0x9f
 10138 0de6 00000000 		.4byte	0
 10139 0dea 00000000 		.4byte	0
 10140              	.LLST87:
 10141 0dee 14060000 		.4byte	.LVL207
 10142 0df2 3E060000 		.4byte	.LVL211
 10143 0df6 0100     		.2byte	0x1
 10144 0df8 55       		.byte	0x55
 10145 0df9 46060000 		.4byte	.LVL212
 10146 0dfd 52060000 		.4byte	.LVL215
 10147 0e01 0100     		.2byte	0x1
 10148 0e03 55       		.byte	0x55
ARM GAS  C:\Users\legoc\AppData\Local\Temp\cc4EoOj2.s 			page 216


 10149 0e04 00000000 		.4byte	0
 10150 0e08 00000000 		.4byte	0
 10151              	.LLST88:
 10152 0e0c 14060000 		.4byte	.LVL207
 10153 0e10 52060000 		.4byte	.LVL215
 10154 0e14 0100     		.2byte	0x1
 10155 0e16 57       		.byte	0x57
 10156 0e17 00000000 		.4byte	0
 10157 0e1b 00000000 		.4byte	0
 10158              	.LLST89:
 10159 0e1f EA050000 		.4byte	.LVL201
 10160 0e23 F2050000 		.4byte	.LVL203
 10161 0e27 0100     		.2byte	0x1
 10162 0e29 53       		.byte	0x53
 10163 0e2a F6050000 		.4byte	.LVL204
 10164 0e2e 04060000 		.4byte	.LVL205
 10165 0e32 0100     		.2byte	0x1
 10166 0e34 53       		.byte	0x53
 10167 0e35 04060000 		.4byte	.LVL205
 10168 0e39 0E060000 		.4byte	.LVL206
 10169 0e3d 0300     		.2byte	0x3
 10170 0e3f 73       		.byte	0x73
 10171 0e40 7F       		.sleb128 -1
 10172 0e41 9F       		.byte	0x9f
 10173 0e42 0E060000 		.4byte	.LVL206
 10174 0e46 48060000 		.4byte	.LVL213
 10175 0e4a 0100     		.2byte	0x1
 10176 0e4c 58       		.byte	0x58
 10177 0e4d 4E060000 		.4byte	.LVL214
 10178 0e51 52060000 		.4byte	.LVL215
 10179 0e55 0100     		.2byte	0x1
 10180 0e57 58       		.byte	0x58
 10181 0e58 00000000 		.4byte	0
 10182 0e5c 00000000 		.4byte	0
 10183              	.LLST90:
 10184 0e60 14060000 		.4byte	.LVL207
 10185 0e64 52060000 		.4byte	.LVL215
 10186 0e68 0200     		.2byte	0x2
 10187 0e6a 37       		.byte	0x37
 10188 0e6b 9F       		.byte	0x9f
 10189 0e6c 00000000 		.4byte	0
 10190 0e70 00000000 		.4byte	0
 10191              	.LLST91:
 10192 0e74 14060000 		.4byte	.LVL207
 10193 0e78 16060000 		.4byte	.LVL208
 10194 0e7c 0200     		.2byte	0x2
 10195 0e7e 30       		.byte	0x30
 10196 0e7f 9F       		.byte	0x9f
 10197 0e80 00000000 		.4byte	0
 10198 0e84 00000000 		.4byte	0
 10199              	.LLST92:
 10200 0e88 16060000 		.4byte	.LVL208
 10201 0e8c 2A060000 		.4byte	.LVL209
 10202 0e90 0200     		.2byte	0x2
 10203 0e92 30       		.byte	0x30
 10204 0e93 9F       		.byte	0x9f
 10205 0e94 00000000 		.4byte	0
ARM GAS  C:\Users\legoc\AppData\Local\Temp\cc4EoOj2.s 			page 217


 10206 0e98 00000000 		.4byte	0
 10207              	.LLST93:
 10208 0e9c 84060000 		.4byte	.LVL222
 10209 0ea0 AE060000 		.4byte	.LVL226
 10210 0ea4 0100     		.2byte	0x1
 10211 0ea6 55       		.byte	0x55
 10212 0ea7 B6060000 		.4byte	.LVL227
 10213 0eab C2060000 		.4byte	.LVL230
 10214 0eaf 0100     		.2byte	0x1
 10215 0eb1 55       		.byte	0x55
 10216 0eb2 00000000 		.4byte	0
 10217 0eb6 00000000 		.4byte	0
 10218              	.LLST94:
 10219 0eba 84060000 		.4byte	.LVL222
 10220 0ebe C2060000 		.4byte	.LVL230
 10221 0ec2 0100     		.2byte	0x1
 10222 0ec4 57       		.byte	0x57
 10223 0ec5 00000000 		.4byte	0
 10224 0ec9 00000000 		.4byte	0
 10225              	.LLST95:
 10226 0ecd 5A060000 		.4byte	.LVL216
 10227 0ed1 62060000 		.4byte	.LVL218
 10228 0ed5 0100     		.2byte	0x1
 10229 0ed7 53       		.byte	0x53
 10230 0ed8 66060000 		.4byte	.LVL219
 10231 0edc 74060000 		.4byte	.LVL220
 10232 0ee0 0100     		.2byte	0x1
 10233 0ee2 53       		.byte	0x53
 10234 0ee3 74060000 		.4byte	.LVL220
 10235 0ee7 7E060000 		.4byte	.LVL221
 10236 0eeb 0300     		.2byte	0x3
 10237 0eed 73       		.byte	0x73
 10238 0eee 7F       		.sleb128 -1
 10239 0eef 9F       		.byte	0x9f
 10240 0ef0 7E060000 		.4byte	.LVL221
 10241 0ef4 B8060000 		.4byte	.LVL228
 10242 0ef8 0100     		.2byte	0x1
 10243 0efa 58       		.byte	0x58
 10244 0efb BE060000 		.4byte	.LVL229
 10245 0eff C2060000 		.4byte	.LVL230
 10246 0f03 0100     		.2byte	0x1
 10247 0f05 58       		.byte	0x58
 10248 0f06 00000000 		.4byte	0
 10249 0f0a 00000000 		.4byte	0
 10250              	.LLST96:
 10251 0f0e 84060000 		.4byte	.LVL222
 10252 0f12 C2060000 		.4byte	.LVL230
 10253 0f16 0200     		.2byte	0x2
 10254 0f18 37       		.byte	0x37
 10255 0f19 9F       		.byte	0x9f
 10256 0f1a 00000000 		.4byte	0
 10257 0f1e 00000000 		.4byte	0
 10258              	.LLST97:
 10259 0f22 84060000 		.4byte	.LVL222
 10260 0f26 86060000 		.4byte	.LVL223
 10261 0f2a 0200     		.2byte	0x2
 10262 0f2c 30       		.byte	0x30
ARM GAS  C:\Users\legoc\AppData\Local\Temp\cc4EoOj2.s 			page 218


 10263 0f2d 9F       		.byte	0x9f
 10264 0f2e 00000000 		.4byte	0
 10265 0f32 00000000 		.4byte	0
 10266              	.LLST98:
 10267 0f36 86060000 		.4byte	.LVL223
 10268 0f3a 9A060000 		.4byte	.LVL224
 10269 0f3e 0200     		.2byte	0x2
 10270 0f40 30       		.byte	0x30
 10271 0f41 9F       		.byte	0x9f
 10272 0f42 00000000 		.4byte	0
 10273 0f46 00000000 		.4byte	0
 10274              	.LLST99:
 10275 0f4a D8060000 		.4byte	.LVL231
 10276 0f4e 06070000 		.4byte	.LVL235
 10277 0f52 0100     		.2byte	0x1
 10278 0f54 55       		.byte	0x55
 10279 0f55 0E070000 		.4byte	.LVL236
 10280 0f59 20070000 		.4byte	.LVL239
 10281 0f5d 0100     		.2byte	0x1
 10282 0f5f 55       		.byte	0x55
 10283 0f60 00000000 		.4byte	0
 10284 0f64 00000000 		.4byte	0
 10285              	.LLST100:
 10286 0f68 D8060000 		.4byte	.LVL231
 10287 0f6c 20070000 		.4byte	.LVL239
 10288 0f70 0100     		.2byte	0x1
 10289 0f72 57       		.byte	0x57
 10290 0f73 00000000 		.4byte	0
 10291 0f77 00000000 		.4byte	0
 10292              	.LLST101:
 10293 0f7b C2060000 		.4byte	.LVL230
 10294 0f7f E2060000 		.4byte	.LVL232
 10295 0f83 0300     		.2byte	0x3
 10296 0f85 08       		.byte	0x8
 10297 0f86 BA       		.byte	0xba
 10298 0f87 9F       		.byte	0x9f
 10299 0f88 E2060000 		.4byte	.LVL232
 10300 0f8c 10070000 		.4byte	.LVL237
 10301 0f90 0100     		.2byte	0x1
 10302 0f92 58       		.byte	0x58
 10303 0f93 16070000 		.4byte	.LVL238
 10304 0f97 20070000 		.4byte	.LVL239
 10305 0f9b 0100     		.2byte	0x1
 10306 0f9d 58       		.byte	0x58
 10307 0f9e 00000000 		.4byte	0
 10308 0fa2 00000000 		.4byte	0
 10309              	.LLST102:
 10310 0fa6 D8060000 		.4byte	.LVL231
 10311 0faa 20070000 		.4byte	.LVL239
 10312 0fae 0200     		.2byte	0x2
 10313 0fb0 37       		.byte	0x37
 10314 0fb1 9F       		.byte	0x9f
 10315 0fb2 00000000 		.4byte	0
 10316 0fb6 00000000 		.4byte	0
 10317              	.LLST103:
 10318 0fba D8060000 		.4byte	.LVL231
 10319 0fbe E2060000 		.4byte	.LVL232
ARM GAS  C:\Users\legoc\AppData\Local\Temp\cc4EoOj2.s 			page 219


 10320 0fc2 0200     		.2byte	0x2
 10321 0fc4 30       		.byte	0x30
 10322 0fc5 9F       		.byte	0x9f
 10323 0fc6 00000000 		.4byte	0
 10324 0fca 00000000 		.4byte	0
 10325              	.LLST104:
 10326 0fce E2060000 		.4byte	.LVL232
 10327 0fd2 F2060000 		.4byte	.LVL233
 10328 0fd6 0200     		.2byte	0x2
 10329 0fd8 30       		.byte	0x30
 10330 0fd9 9F       		.byte	0x9f
 10331 0fda 00000000 		.4byte	0
 10332 0fde 00000000 		.4byte	0
 10333              	.LLST105:
 10334 0fe2 36070000 		.4byte	.LVL240
 10335 0fe6 64070000 		.4byte	.LVL244
 10336 0fea 0100     		.2byte	0x1
 10337 0fec 55       		.byte	0x55
 10338 0fed 6C070000 		.4byte	.LVL245
 10339 0ff1 7E070000 		.4byte	.LVL248
 10340 0ff5 0100     		.2byte	0x1
 10341 0ff7 55       		.byte	0x55
 10342 0ff8 00000000 		.4byte	0
 10343 0ffc 00000000 		.4byte	0
 10344              	.LLST106:
 10345 1000 36070000 		.4byte	.LVL240
 10346 1004 7E070000 		.4byte	.LVL248
 10347 1008 0100     		.2byte	0x1
 10348 100a 57       		.byte	0x57
 10349 100b 00000000 		.4byte	0
 10350 100f 00000000 		.4byte	0
 10351              	.LLST107:
 10352 1013 20070000 		.4byte	.LVL239
 10353 1017 40070000 		.4byte	.LVL241
 10354 101b 0400     		.2byte	0x4
 10355 101d 0A       		.byte	0xa
 10356 101e 7E01     		.2byte	0x17e
 10357 1020 9F       		.byte	0x9f
 10358 1021 40070000 		.4byte	.LVL241
 10359 1025 6E070000 		.4byte	.LVL246
 10360 1029 0100     		.2byte	0x1
 10361 102b 58       		.byte	0x58
 10362 102c 74070000 		.4byte	.LVL247
 10363 1030 7E070000 		.4byte	.LVL248
 10364 1034 0100     		.2byte	0x1
 10365 1036 58       		.byte	0x58
 10366 1037 00000000 		.4byte	0
 10367 103b 00000000 		.4byte	0
 10368              	.LLST108:
 10369 103f 36070000 		.4byte	.LVL240
 10370 1043 7E070000 		.4byte	.LVL248
 10371 1047 0200     		.2byte	0x2
 10372 1049 37       		.byte	0x37
 10373 104a 9F       		.byte	0x9f
 10374 104b 00000000 		.4byte	0
 10375 104f 00000000 		.4byte	0
 10376              	.LLST109:
ARM GAS  C:\Users\legoc\AppData\Local\Temp\cc4EoOj2.s 			page 220


 10377 1053 36070000 		.4byte	.LVL240
 10378 1057 40070000 		.4byte	.LVL241
 10379 105b 0200     		.2byte	0x2
 10380 105d 30       		.byte	0x30
 10381 105e 9F       		.byte	0x9f
 10382 105f 00000000 		.4byte	0
 10383 1063 00000000 		.4byte	0
 10384              	.LLST110:
 10385 1067 40070000 		.4byte	.LVL241
 10386 106b 50070000 		.4byte	.LVL242
 10387 106f 0200     		.2byte	0x2
 10388 1071 30       		.byte	0x30
 10389 1072 9F       		.byte	0x9f
 10390 1073 00000000 		.4byte	0
 10391 1077 00000000 		.4byte	0
 10392              	.LLST111:
 10393 107b 98070000 		.4byte	.LVL249
 10394 107f C2070000 		.4byte	.LVL253
 10395 1083 0100     		.2byte	0x1
 10396 1085 55       		.byte	0x55
 10397 1086 CA070000 		.4byte	.LVL254
 10398 108a DC070000 		.4byte	.LVL257
 10399 108e 0100     		.2byte	0x1
 10400 1090 55       		.byte	0x55
 10401 1091 00000000 		.4byte	0
 10402 1095 00000000 		.4byte	0
 10403              	.LLST112:
 10404 1099 98070000 		.4byte	.LVL249
 10405 109d DC070000 		.4byte	.LVL257
 10406 10a1 0100     		.2byte	0x1
 10407 10a3 57       		.byte	0x57
 10408 10a4 00000000 		.4byte	0
 10409 10a8 00000000 		.4byte	0
 10410              	.LLST113:
 10411 10ac 7E070000 		.4byte	.LVL248
 10412 10b0 9E070000 		.4byte	.LVL250
 10413 10b4 0400     		.2byte	0x4
 10414 10b6 0A       		.byte	0xa
 10415 10b7 6901     		.2byte	0x169
 10416 10b9 9F       		.byte	0x9f
 10417 10ba 9E070000 		.4byte	.LVL250
 10418 10be CC070000 		.4byte	.LVL255
 10419 10c2 0100     		.2byte	0x1
 10420 10c4 58       		.byte	0x58
 10421 10c5 D2070000 		.4byte	.LVL256
 10422 10c9 DC070000 		.4byte	.LVL257
 10423 10cd 0100     		.2byte	0x1
 10424 10cf 58       		.byte	0x58
 10425 10d0 00000000 		.4byte	0
 10426 10d4 00000000 		.4byte	0
 10427              	.LLST114:
 10428 10d8 98070000 		.4byte	.LVL249
 10429 10dc DC070000 		.4byte	.LVL257
 10430 10e0 0200     		.2byte	0x2
 10431 10e2 37       		.byte	0x37
 10432 10e3 9F       		.byte	0x9f
 10433 10e4 00000000 		.4byte	0
ARM GAS  C:\Users\legoc\AppData\Local\Temp\cc4EoOj2.s 			page 221


 10434 10e8 00000000 		.4byte	0
 10435              	.LLST115:
 10436 10ec 98070000 		.4byte	.LVL249
 10437 10f0 9E070000 		.4byte	.LVL250
 10438 10f4 0200     		.2byte	0x2
 10439 10f6 30       		.byte	0x30
 10440 10f7 9F       		.byte	0x9f
 10441 10f8 00000000 		.4byte	0
 10442 10fc 00000000 		.4byte	0
 10443              	.LLST116:
 10444 1100 9E070000 		.4byte	.LVL250
 10445 1104 AE070000 		.4byte	.LVL251
 10446 1108 0200     		.2byte	0x2
 10447 110a 30       		.byte	0x30
 10448 110b 9F       		.byte	0x9f
 10449 110c 00000000 		.4byte	0
 10450 1110 00000000 		.4byte	0
 10451              	.LLST117:
 10452 1114 F6070000 		.4byte	.LVL258
 10453 1118 20080000 		.4byte	.LVL262
 10454 111c 0100     		.2byte	0x1
 10455 111e 55       		.byte	0x55
 10456 111f 28080000 		.4byte	.LVL263
 10457 1123 3A080000 		.4byte	.LVL266
 10458 1127 0100     		.2byte	0x1
 10459 1129 55       		.byte	0x55
 10460 112a 00000000 		.4byte	0
 10461 112e 00000000 		.4byte	0
 10462              	.LLST118:
 10463 1132 F6070000 		.4byte	.LVL258
 10464 1136 3A080000 		.4byte	.LVL266
 10465 113a 0100     		.2byte	0x1
 10466 113c 57       		.byte	0x57
 10467 113d 00000000 		.4byte	0
 10468 1141 00000000 		.4byte	0
 10469              	.LLST119:
 10470 1145 DC070000 		.4byte	.LVL257
 10471 1149 FC070000 		.4byte	.LVL259
 10472 114d 0400     		.2byte	0x4
 10473 114f 0A       		.byte	0xa
 10474 1150 4F01     		.2byte	0x14f
 10475 1152 9F       		.byte	0x9f
 10476 1153 FC070000 		.4byte	.LVL259
 10477 1157 2A080000 		.4byte	.LVL264
 10478 115b 0100     		.2byte	0x1
 10479 115d 58       		.byte	0x58
 10480 115e 30080000 		.4byte	.LVL265
 10481 1162 3A080000 		.4byte	.LVL266
 10482 1166 0100     		.2byte	0x1
 10483 1168 58       		.byte	0x58
 10484 1169 00000000 		.4byte	0
 10485 116d 00000000 		.4byte	0
 10486              	.LLST120:
 10487 1171 F6070000 		.4byte	.LVL258
 10488 1175 3A080000 		.4byte	.LVL266
 10489 1179 0200     		.2byte	0x2
 10490 117b 37       		.byte	0x37
ARM GAS  C:\Users\legoc\AppData\Local\Temp\cc4EoOj2.s 			page 222


 10491 117c 9F       		.byte	0x9f
 10492 117d 00000000 		.4byte	0
 10493 1181 00000000 		.4byte	0
 10494              	.LLST121:
 10495 1185 F6070000 		.4byte	.LVL258
 10496 1189 FC070000 		.4byte	.LVL259
 10497 118d 0200     		.2byte	0x2
 10498 118f 30       		.byte	0x30
 10499 1190 9F       		.byte	0x9f
 10500 1191 00000000 		.4byte	0
 10501 1195 00000000 		.4byte	0
 10502              	.LLST122:
 10503 1199 FC070000 		.4byte	.LVL259
 10504 119d 0C080000 		.4byte	.LVL260
 10505 11a1 0200     		.2byte	0x2
 10506 11a3 30       		.byte	0x30
 10507 11a4 9F       		.byte	0x9f
 10508 11a5 00000000 		.4byte	0
 10509 11a9 00000000 		.4byte	0
 10510              	.LLST123:
 10511 11ad 54080000 		.4byte	.LVL267
 10512 11b1 7E080000 		.4byte	.LVL271
 10513 11b5 0100     		.2byte	0x1
 10514 11b7 55       		.byte	0x55
 10515 11b8 86080000 		.4byte	.LVL272
 10516 11bc 98080000 		.4byte	.LVL275
 10517 11c0 0100     		.2byte	0x1
 10518 11c2 55       		.byte	0x55
 10519 11c3 00000000 		.4byte	0
 10520 11c7 00000000 		.4byte	0
 10521              	.LLST124:
 10522 11cb 54080000 		.4byte	.LVL267
 10523 11cf 98080000 		.4byte	.LVL275
 10524 11d3 0100     		.2byte	0x1
 10525 11d5 57       		.byte	0x57
 10526 11d6 00000000 		.4byte	0
 10527 11da 00000000 		.4byte	0
 10528              	.LLST125:
 10529 11de 3A080000 		.4byte	.LVL266
 10530 11e2 5A080000 		.4byte	.LVL268
 10531 11e6 0400     		.2byte	0x4
 10532 11e8 0A       		.byte	0xa
 10533 11e9 3501     		.2byte	0x135
 10534 11eb 9F       		.byte	0x9f
 10535 11ec 5A080000 		.4byte	.LVL268
 10536 11f0 88080000 		.4byte	.LVL273
 10537 11f4 0100     		.2byte	0x1
 10538 11f6 58       		.byte	0x58
 10539 11f7 8E080000 		.4byte	.LVL274
 10540 11fb 98080000 		.4byte	.LVL275
 10541 11ff 0100     		.2byte	0x1
 10542 1201 58       		.byte	0x58
 10543 1202 00000000 		.4byte	0
 10544 1206 00000000 		.4byte	0
 10545              	.LLST126:
 10546 120a 54080000 		.4byte	.LVL267
 10547 120e 98080000 		.4byte	.LVL275
ARM GAS  C:\Users\legoc\AppData\Local\Temp\cc4EoOj2.s 			page 223


 10548 1212 0200     		.2byte	0x2
 10549 1214 37       		.byte	0x37
 10550 1215 9F       		.byte	0x9f
 10551 1216 00000000 		.4byte	0
 10552 121a 00000000 		.4byte	0
 10553              	.LLST127:
 10554 121e 54080000 		.4byte	.LVL267
 10555 1222 5A080000 		.4byte	.LVL268
 10556 1226 0200     		.2byte	0x2
 10557 1228 30       		.byte	0x30
 10558 1229 9F       		.byte	0x9f
 10559 122a 00000000 		.4byte	0
 10560 122e 00000000 		.4byte	0
 10561              	.LLST128:
 10562 1232 5A080000 		.4byte	.LVL268
 10563 1236 6A080000 		.4byte	.LVL269
 10564 123a 0200     		.2byte	0x2
 10565 123c 30       		.byte	0x30
 10566 123d 9F       		.byte	0x9f
 10567 123e 00000000 		.4byte	0
 10568 1242 00000000 		.4byte	0
 10569              	.LLST129:
 10570 1246 CA080000 		.4byte	.LVL282
 10571 124a F4080000 		.4byte	.LVL286
 10572 124e 0100     		.2byte	0x1
 10573 1250 55       		.byte	0x55
 10574 1251 FC080000 		.4byte	.LVL287
 10575 1255 0A090000 		.4byte	.LVL290
 10576 1259 0100     		.2byte	0x1
 10577 125b 55       		.byte	0x55
 10578 125c 00000000 		.4byte	0
 10579 1260 00000000 		.4byte	0
 10580              	.LLST130:
 10581 1264 CA080000 		.4byte	.LVL282
 10582 1268 0A090000 		.4byte	.LVL290
 10583 126c 0100     		.2byte	0x1
 10584 126e 57       		.byte	0x57
 10585 126f 00000000 		.4byte	0
 10586 1273 00000000 		.4byte	0
 10587              	.LLST131:
 10588 1277 A0080000 		.4byte	.LVL276
 10589 127b A8080000 		.4byte	.LVL278
 10590 127f 0100     		.2byte	0x1
 10591 1281 53       		.byte	0x53
 10592 1282 AC080000 		.4byte	.LVL279
 10593 1286 BA080000 		.4byte	.LVL280
 10594 128a 0100     		.2byte	0x1
 10595 128c 53       		.byte	0x53
 10596 128d BA080000 		.4byte	.LVL280
 10597 1291 C4080000 		.4byte	.LVL281
 10598 1295 0300     		.2byte	0x3
 10599 1297 73       		.byte	0x73
 10600 1298 7F       		.sleb128 -1
 10601 1299 9F       		.byte	0x9f
 10602 129a C4080000 		.4byte	.LVL281
 10603 129e FE080000 		.4byte	.LVL288
 10604 12a2 0100     		.2byte	0x1
ARM GAS  C:\Users\legoc\AppData\Local\Temp\cc4EoOj2.s 			page 224


 10605 12a4 58       		.byte	0x58
 10606 12a5 04090000 		.4byte	.LVL289
 10607 12a9 0A090000 		.4byte	.LVL290
 10608 12ad 0100     		.2byte	0x1
 10609 12af 58       		.byte	0x58
 10610 12b0 00000000 		.4byte	0
 10611 12b4 00000000 		.4byte	0
 10612              	.LLST132:
 10613 12b8 CA080000 		.4byte	.LVL282
 10614 12bc 0A090000 		.4byte	.LVL290
 10615 12c0 0200     		.2byte	0x2
 10616 12c2 37       		.byte	0x37
 10617 12c3 9F       		.byte	0x9f
 10618 12c4 00000000 		.4byte	0
 10619 12c8 00000000 		.4byte	0
 10620              	.LLST133:
 10621 12cc CA080000 		.4byte	.LVL282
 10622 12d0 CC080000 		.4byte	.LVL283
 10623 12d4 0200     		.2byte	0x2
 10624 12d6 30       		.byte	0x30
 10625 12d7 9F       		.byte	0x9f
 10626 12d8 00000000 		.4byte	0
 10627 12dc 00000000 		.4byte	0
 10628              	.LLST134:
 10629 12e0 CC080000 		.4byte	.LVL283
 10630 12e4 E0080000 		.4byte	.LVL284
 10631 12e8 0200     		.2byte	0x2
 10632 12ea 30       		.byte	0x30
 10633 12eb 9F       		.byte	0x9f
 10634 12ec 00000000 		.4byte	0
 10635 12f0 00000000 		.4byte	0
 10636              	.LLST135:
 10637 12f4 24090000 		.4byte	.LVL291
 10638 12f8 4E090000 		.4byte	.LVL295
 10639 12fc 0100     		.2byte	0x1
 10640 12fe 55       		.byte	0x55
 10641 12ff 56090000 		.4byte	.LVL296
 10642 1303 64090000 		.4byte	.LVL299
 10643 1307 0100     		.2byte	0x1
 10644 1309 55       		.byte	0x55
 10645 130a 00000000 		.4byte	0
 10646 130e 00000000 		.4byte	0
 10647              	.LLST136:
 10648 1312 24090000 		.4byte	.LVL291
 10649 1316 64090000 		.4byte	.LVL299
 10650 131a 0100     		.2byte	0x1
 10651 131c 57       		.byte	0x57
 10652 131d 00000000 		.4byte	0
 10653 1321 00000000 		.4byte	0
 10654              	.LLST137:
 10655 1325 0A090000 		.4byte	.LVL290
 10656 1329 26090000 		.4byte	.LVL292
 10657 132d 0400     		.2byte	0x4
 10658 132f 0A       		.byte	0xa
 10659 1330 9701     		.2byte	0x197
 10660 1332 9F       		.byte	0x9f
 10661 1333 26090000 		.4byte	.LVL292
ARM GAS  C:\Users\legoc\AppData\Local\Temp\cc4EoOj2.s 			page 225


 10662 1337 58090000 		.4byte	.LVL297
 10663 133b 0100     		.2byte	0x1
 10664 133d 58       		.byte	0x58
 10665 133e 5E090000 		.4byte	.LVL298
 10666 1342 64090000 		.4byte	.LVL299
 10667 1346 0100     		.2byte	0x1
 10668 1348 58       		.byte	0x58
 10669 1349 00000000 		.4byte	0
 10670 134d 00000000 		.4byte	0
 10671              	.LLST138:
 10672 1351 24090000 		.4byte	.LVL291
 10673 1355 64090000 		.4byte	.LVL299
 10674 1359 0200     		.2byte	0x2
 10675 135b 37       		.byte	0x37
 10676 135c 9F       		.byte	0x9f
 10677 135d 00000000 		.4byte	0
 10678 1361 00000000 		.4byte	0
 10679              	.LLST139:
 10680 1365 24090000 		.4byte	.LVL291
 10681 1369 26090000 		.4byte	.LVL292
 10682 136d 0200     		.2byte	0x2
 10683 136f 30       		.byte	0x30
 10684 1370 9F       		.byte	0x9f
 10685 1371 00000000 		.4byte	0
 10686 1375 00000000 		.4byte	0
 10687              	.LLST140:
 10688 1379 26090000 		.4byte	.LVL292
 10689 137d 3A090000 		.4byte	.LVL293
 10690 1381 0200     		.2byte	0x2
 10691 1383 30       		.byte	0x30
 10692 1384 9F       		.byte	0x9f
 10693 1385 00000000 		.4byte	0
 10694 1389 00000000 		.4byte	0
 10695              	.LLST141:
 10696 138d 7A090000 		.4byte	.LVL300
 10697 1391 A8090000 		.4byte	.LVL304
 10698 1395 0100     		.2byte	0x1
 10699 1397 55       		.byte	0x55
 10700 1398 B0090000 		.4byte	.LVL305
 10701 139c C2090000 		.4byte	.LVL308
 10702 13a0 0100     		.2byte	0x1
 10703 13a2 55       		.byte	0x55
 10704 13a3 00000000 		.4byte	0
 10705 13a7 00000000 		.4byte	0
 10706              	.LLST142:
 10707 13ab 7A090000 		.4byte	.LVL300
 10708 13af C2090000 		.4byte	.LVL308
 10709 13b3 0100     		.2byte	0x1
 10710 13b5 57       		.byte	0x57
 10711 13b6 00000000 		.4byte	0
 10712 13ba 00000000 		.4byte	0
 10713              	.LLST143:
 10714 13be 64090000 		.4byte	.LVL299
 10715 13c2 84090000 		.4byte	.LVL301
 10716 13c6 0200     		.2byte	0x2
 10717 13c8 32       		.byte	0x32
 10718 13c9 9F       		.byte	0x9f
ARM GAS  C:\Users\legoc\AppData\Local\Temp\cc4EoOj2.s 			page 226


 10719 13ca 84090000 		.4byte	.LVL301
 10720 13ce B2090000 		.4byte	.LVL306
 10721 13d2 0100     		.2byte	0x1
 10722 13d4 58       		.byte	0x58
 10723 13d5 B8090000 		.4byte	.LVL307
 10724 13d9 C2090000 		.4byte	.LVL308
 10725 13dd 0100     		.2byte	0x1
 10726 13df 58       		.byte	0x58
 10727 13e0 00000000 		.4byte	0
 10728 13e4 00000000 		.4byte	0
 10729              	.LLST144:
 10730 13e8 7A090000 		.4byte	.LVL300
 10731 13ec C2090000 		.4byte	.LVL308
 10732 13f0 0200     		.2byte	0x2
 10733 13f2 37       		.byte	0x37
 10734 13f3 9F       		.byte	0x9f
 10735 13f4 00000000 		.4byte	0
 10736 13f8 00000000 		.4byte	0
 10737              	.LLST145:
 10738 13fc 7A090000 		.4byte	.LVL300
 10739 1400 84090000 		.4byte	.LVL301
 10740 1404 0200     		.2byte	0x2
 10741 1406 30       		.byte	0x30
 10742 1407 9F       		.byte	0x9f
 10743 1408 00000000 		.4byte	0
 10744 140c 00000000 		.4byte	0
 10745              	.LLST146:
 10746 1410 84090000 		.4byte	.LVL301
 10747 1414 94090000 		.4byte	.LVL302
 10748 1418 0200     		.2byte	0x2
 10749 141a 30       		.byte	0x30
 10750 141b 9F       		.byte	0x9f
 10751 141c 00000000 		.4byte	0
 10752 1420 00000000 		.4byte	0
 10753              	.LLST147:
 10754 1424 F4090000 		.4byte	.LVL315
 10755 1428 1E0A0000 		.4byte	.LVL319
 10756 142c 0100     		.2byte	0x1
 10757 142e 55       		.byte	0x55
 10758 142f 260A0000 		.4byte	.LVL320
 10759 1433 340A0000 		.4byte	.LVL323
 10760 1437 0100     		.2byte	0x1
 10761 1439 55       		.byte	0x55
 10762 143a 00000000 		.4byte	0
 10763 143e 00000000 		.4byte	0
 10764              	.LLST148:
 10765 1442 F4090000 		.4byte	.LVL315
 10766 1446 340A0000 		.4byte	.LVL323
 10767 144a 0100     		.2byte	0x1
 10768 144c 57       		.byte	0x57
 10769 144d 00000000 		.4byte	0
 10770 1451 00000000 		.4byte	0
 10771              	.LLST149:
 10772 1455 CA090000 		.4byte	.LVL309
 10773 1459 D2090000 		.4byte	.LVL311
 10774 145d 0100     		.2byte	0x1
 10775 145f 53       		.byte	0x53
ARM GAS  C:\Users\legoc\AppData\Local\Temp\cc4EoOj2.s 			page 227


 10776 1460 D6090000 		.4byte	.LVL312
 10777 1464 E4090000 		.4byte	.LVL313
 10778 1468 0100     		.2byte	0x1
 10779 146a 53       		.byte	0x53
 10780 146b E4090000 		.4byte	.LVL313
 10781 146f EE090000 		.4byte	.LVL314
 10782 1473 0300     		.2byte	0x3
 10783 1475 73       		.byte	0x73
 10784 1476 7F       		.sleb128 -1
 10785 1477 9F       		.byte	0x9f
 10786 1478 EE090000 		.4byte	.LVL314
 10787 147c 280A0000 		.4byte	.LVL321
 10788 1480 0100     		.2byte	0x1
 10789 1482 58       		.byte	0x58
 10790 1483 2E0A0000 		.4byte	.LVL322
 10791 1487 340A0000 		.4byte	.LVL323
 10792 148b 0100     		.2byte	0x1
 10793 148d 58       		.byte	0x58
 10794 148e 00000000 		.4byte	0
 10795 1492 00000000 		.4byte	0
 10796              	.LLST150:
 10797 1496 F4090000 		.4byte	.LVL315
 10798 149a 340A0000 		.4byte	.LVL323
 10799 149e 0200     		.2byte	0x2
 10800 14a0 37       		.byte	0x37
 10801 14a1 9F       		.byte	0x9f
 10802 14a2 00000000 		.4byte	0
 10803 14a6 00000000 		.4byte	0
 10804              	.LLST151:
 10805 14aa F4090000 		.4byte	.LVL315
 10806 14ae F6090000 		.4byte	.LVL316
 10807 14b2 0200     		.2byte	0x2
 10808 14b4 30       		.byte	0x30
 10809 14b5 9F       		.byte	0x9f
 10810 14b6 00000000 		.4byte	0
 10811 14ba 00000000 		.4byte	0
 10812              	.LLST152:
 10813 14be F6090000 		.4byte	.LVL316
 10814 14c2 0A0A0000 		.4byte	.LVL317
 10815 14c6 0200     		.2byte	0x2
 10816 14c8 30       		.byte	0x30
 10817 14c9 9F       		.byte	0x9f
 10818 14ca 00000000 		.4byte	0
 10819 14ce 00000000 		.4byte	0
 10820              	.LLST153:
 10821 14d2 660A0000 		.4byte	.LVL330
 10822 14d6 900A0000 		.4byte	.LVL334
 10823 14da 0100     		.2byte	0x1
 10824 14dc 55       		.byte	0x55
 10825 14dd 980A0000 		.4byte	.LVL335
 10826 14e1 A60A0000 		.4byte	.LVL338
 10827 14e5 0100     		.2byte	0x1
 10828 14e7 55       		.byte	0x55
 10829 14e8 00000000 		.4byte	0
 10830 14ec 00000000 		.4byte	0
 10831              	.LLST154:
 10832 14f0 660A0000 		.4byte	.LVL330
ARM GAS  C:\Users\legoc\AppData\Local\Temp\cc4EoOj2.s 			page 228


 10833 14f4 A60A0000 		.4byte	.LVL338
 10834 14f8 0100     		.2byte	0x1
 10835 14fa 57       		.byte	0x57
 10836 14fb 00000000 		.4byte	0
 10837 14ff 00000000 		.4byte	0
 10838              	.LLST155:
 10839 1503 3C0A0000 		.4byte	.LVL324
 10840 1507 440A0000 		.4byte	.LVL326
 10841 150b 0100     		.2byte	0x1
 10842 150d 53       		.byte	0x53
 10843 150e 480A0000 		.4byte	.LVL327
 10844 1512 560A0000 		.4byte	.LVL328
 10845 1516 0100     		.2byte	0x1
 10846 1518 53       		.byte	0x53
 10847 1519 560A0000 		.4byte	.LVL328
 10848 151d 600A0000 		.4byte	.LVL329
 10849 1521 0300     		.2byte	0x3
 10850 1523 73       		.byte	0x73
 10851 1524 7F       		.sleb128 -1
 10852 1525 9F       		.byte	0x9f
 10853 1526 600A0000 		.4byte	.LVL329
 10854 152a 9A0A0000 		.4byte	.LVL336
 10855 152e 0100     		.2byte	0x1
 10856 1530 58       		.byte	0x58
 10857 1531 A00A0000 		.4byte	.LVL337
 10858 1535 A60A0000 		.4byte	.LVL338
 10859 1539 0100     		.2byte	0x1
 10860 153b 58       		.byte	0x58
 10861 153c 00000000 		.4byte	0
 10862 1540 00000000 		.4byte	0
 10863              	.LLST156:
 10864 1544 660A0000 		.4byte	.LVL330
 10865 1548 A60A0000 		.4byte	.LVL338
 10866 154c 0200     		.2byte	0x2
 10867 154e 37       		.byte	0x37
 10868 154f 9F       		.byte	0x9f
 10869 1550 00000000 		.4byte	0
 10870 1554 00000000 		.4byte	0
 10871              	.LLST157:
 10872 1558 660A0000 		.4byte	.LVL330
 10873 155c 680A0000 		.4byte	.LVL331
 10874 1560 0200     		.2byte	0x2
 10875 1562 30       		.byte	0x30
 10876 1563 9F       		.byte	0x9f
 10877 1564 00000000 		.4byte	0
 10878 1568 00000000 		.4byte	0
 10879              	.LLST158:
 10880 156c 680A0000 		.4byte	.LVL331
 10881 1570 7C0A0000 		.4byte	.LVL332
 10882 1574 0200     		.2byte	0x2
 10883 1576 30       		.byte	0x30
 10884 1577 9F       		.byte	0x9f
 10885 1578 00000000 		.4byte	0
 10886 157c 00000000 		.4byte	0
 10887              	.LLST159:
 10888 1580 BC0A0000 		.4byte	.LVL339
 10889 1584 EA0A0000 		.4byte	.LVL343
ARM GAS  C:\Users\legoc\AppData\Local\Temp\cc4EoOj2.s 			page 229


 10890 1588 0100     		.2byte	0x1
 10891 158a 55       		.byte	0x55
 10892 158b F20A0000 		.4byte	.LVL344
 10893 158f 040B0000 		.4byte	.LVL347
 10894 1593 0100     		.2byte	0x1
 10895 1595 55       		.byte	0x55
 10896 1596 00000000 		.4byte	0
 10897 159a 00000000 		.4byte	0
 10898              	.LLST160:
 10899 159e BC0A0000 		.4byte	.LVL339
 10900 15a2 040B0000 		.4byte	.LVL347
 10901 15a6 0100     		.2byte	0x1
 10902 15a8 57       		.byte	0x57
 10903 15a9 00000000 		.4byte	0
 10904 15ad 00000000 		.4byte	0
 10905              	.LLST161:
 10906 15b1 A60A0000 		.4byte	.LVL338
 10907 15b5 C60A0000 		.4byte	.LVL340
 10908 15b9 0300     		.2byte	0x3
 10909 15bb 08       		.byte	0x8
 10910 15bc 31       		.byte	0x31
 10911 15bd 9F       		.byte	0x9f
 10912 15be C60A0000 		.4byte	.LVL340
 10913 15c2 F40A0000 		.4byte	.LVL345
 10914 15c6 0100     		.2byte	0x1
 10915 15c8 58       		.byte	0x58
 10916 15c9 FA0A0000 		.4byte	.LVL346
 10917 15cd 040B0000 		.4byte	.LVL347
 10918 15d1 0100     		.2byte	0x1
 10919 15d3 58       		.byte	0x58
 10920 15d4 00000000 		.4byte	0
 10921 15d8 00000000 		.4byte	0
 10922              	.LLST162:
 10923 15dc BC0A0000 		.4byte	.LVL339
 10924 15e0 040B0000 		.4byte	.LVL347
 10925 15e4 0200     		.2byte	0x2
 10926 15e6 37       		.byte	0x37
 10927 15e7 9F       		.byte	0x9f
 10928 15e8 00000000 		.4byte	0
 10929 15ec 00000000 		.4byte	0
 10930              	.LLST163:
 10931 15f0 BC0A0000 		.4byte	.LVL339
 10932 15f4 C60A0000 		.4byte	.LVL340
 10933 15f8 0200     		.2byte	0x2
 10934 15fa 30       		.byte	0x30
 10935 15fb 9F       		.byte	0x9f
 10936 15fc 00000000 		.4byte	0
 10937 1600 00000000 		.4byte	0
 10938              	.LLST164:
 10939 1604 C60A0000 		.4byte	.LVL340
 10940 1608 D60A0000 		.4byte	.LVL341
 10941 160c 0200     		.2byte	0x2
 10942 160e 30       		.byte	0x30
 10943 160f 9F       		.byte	0x9f
 10944 1610 00000000 		.4byte	0
 10945 1614 00000000 		.4byte	0
 10946              	.LLST165:
ARM GAS  C:\Users\legoc\AppData\Local\Temp\cc4EoOj2.s 			page 230


 10947 1618 1A0B0000 		.4byte	.LVL348
 10948 161c 480B0000 		.4byte	.LVL352
 10949 1620 0100     		.2byte	0x1
 10950 1622 55       		.byte	0x55
 10951 1623 500B0000 		.4byte	.LVL353
 10952 1627 620B0000 		.4byte	.LVL356
 10953 162b 0100     		.2byte	0x1
 10954 162d 55       		.byte	0x55
 10955 162e 00000000 		.4byte	0
 10956 1632 00000000 		.4byte	0
 10957              	.LLST166:
 10958 1636 1A0B0000 		.4byte	.LVL348
 10959 163a 620B0000 		.4byte	.LVL356
 10960 163e 0100     		.2byte	0x1
 10961 1640 57       		.byte	0x57
 10962 1641 00000000 		.4byte	0
 10963 1645 00000000 		.4byte	0
 10964              	.LLST167:
 10965 1649 040B0000 		.4byte	.LVL347
 10966 164d 240B0000 		.4byte	.LVL349
 10967 1651 0300     		.2byte	0x3
 10968 1653 08       		.byte	0x8
 10969 1654 49       		.byte	0x49
 10970 1655 9F       		.byte	0x9f
 10971 1656 240B0000 		.4byte	.LVL349
 10972 165a 520B0000 		.4byte	.LVL354
 10973 165e 0100     		.2byte	0x1
 10974 1660 58       		.byte	0x58
 10975 1661 580B0000 		.4byte	.LVL355
 10976 1665 620B0000 		.4byte	.LVL356
 10977 1669 0100     		.2byte	0x1
 10978 166b 58       		.byte	0x58
 10979 166c 00000000 		.4byte	0
 10980 1670 00000000 		.4byte	0
 10981              	.LLST168:
 10982 1674 1A0B0000 		.4byte	.LVL348
 10983 1678 620B0000 		.4byte	.LVL356
 10984 167c 0200     		.2byte	0x2
 10985 167e 37       		.byte	0x37
 10986 167f 9F       		.byte	0x9f
 10987 1680 00000000 		.4byte	0
 10988 1684 00000000 		.4byte	0
 10989              	.LLST169:
 10990 1688 1A0B0000 		.4byte	.LVL348
 10991 168c 240B0000 		.4byte	.LVL349
 10992 1690 0200     		.2byte	0x2
 10993 1692 30       		.byte	0x30
 10994 1693 9F       		.byte	0x9f
 10995 1694 00000000 		.4byte	0
 10996 1698 00000000 		.4byte	0
 10997              	.LLST170:
 10998 169c 240B0000 		.4byte	.LVL349
 10999 16a0 340B0000 		.4byte	.LVL350
 11000 16a4 0200     		.2byte	0x2
 11001 16a6 30       		.byte	0x30
 11002 16a7 9F       		.byte	0x9f
 11003 16a8 00000000 		.4byte	0
ARM GAS  C:\Users\legoc\AppData\Local\Temp\cc4EoOj2.s 			page 231


 11004 16ac 00000000 		.4byte	0
 11005              	.LLST171:
 11006 16b0 780B0000 		.4byte	.LVL357
 11007 16b4 A60B0000 		.4byte	.LVL361
 11008 16b8 0100     		.2byte	0x1
 11009 16ba 55       		.byte	0x55
 11010 16bb AE0B0000 		.4byte	.LVL362
 11011 16bf C00B0000 		.4byte	.LVL365
 11012 16c3 0100     		.2byte	0x1
 11013 16c5 55       		.byte	0x55
 11014 16c6 00000000 		.4byte	0
 11015 16ca 00000000 		.4byte	0
 11016              	.LLST172:
 11017 16ce 780B0000 		.4byte	.LVL357
 11018 16d2 C00B0000 		.4byte	.LVL365
 11019 16d6 0100     		.2byte	0x1
 11020 16d8 57       		.byte	0x57
 11021 16d9 00000000 		.4byte	0
 11022 16dd 00000000 		.4byte	0
 11023              	.LLST173:
 11024 16e1 620B0000 		.4byte	.LVL356
 11025 16e5 820B0000 		.4byte	.LVL358
 11026 16e9 0200     		.2byte	0x2
 11027 16eb 4D       		.byte	0x4d
 11028 16ec 9F       		.byte	0x9f
 11029 16ed 820B0000 		.4byte	.LVL358
 11030 16f1 B00B0000 		.4byte	.LVL363
 11031 16f5 0100     		.2byte	0x1
 11032 16f7 58       		.byte	0x58
 11033 16f8 B60B0000 		.4byte	.LVL364
 11034 16fc C00B0000 		.4byte	.LVL365
 11035 1700 0100     		.2byte	0x1
 11036 1702 58       		.byte	0x58
 11037 1703 00000000 		.4byte	0
 11038 1707 00000000 		.4byte	0
 11039              	.LLST174:
 11040 170b 780B0000 		.4byte	.LVL357
 11041 170f C00B0000 		.4byte	.LVL365
 11042 1713 0200     		.2byte	0x2
 11043 1715 37       		.byte	0x37
 11044 1716 9F       		.byte	0x9f
 11045 1717 00000000 		.4byte	0
 11046 171b 00000000 		.4byte	0
 11047              	.LLST175:
 11048 171f 780B0000 		.4byte	.LVL357
 11049 1723 820B0000 		.4byte	.LVL358
 11050 1727 0200     		.2byte	0x2
 11051 1729 30       		.byte	0x30
 11052 172a 9F       		.byte	0x9f
 11053 172b 00000000 		.4byte	0
 11054 172f 00000000 		.4byte	0
 11055              	.LLST176:
 11056 1733 820B0000 		.4byte	.LVL358
 11057 1737 920B0000 		.4byte	.LVL359
 11058 173b 0200     		.2byte	0x2
 11059 173d 30       		.byte	0x30
 11060 173e 9F       		.byte	0x9f
ARM GAS  C:\Users\legoc\AppData\Local\Temp\cc4EoOj2.s 			page 232


 11061 173f 00000000 		.4byte	0
 11062 1743 00000000 		.4byte	0
 11063              	.LLST177:
 11064 1747 D60B0000 		.4byte	.LVL366
 11065 174b 040C0000 		.4byte	.LVL370
 11066 174f 0100     		.2byte	0x1
 11067 1751 55       		.byte	0x55
 11068 1752 0C0C0000 		.4byte	.LVL371
 11069 1756 1E0C0000 		.4byte	.LVL374
 11070 175a 0100     		.2byte	0x1
 11071 175c 55       		.byte	0x55
 11072 175d 00000000 		.4byte	0
 11073 1761 00000000 		.4byte	0
 11074              	.LLST178:
 11075 1765 D60B0000 		.4byte	.LVL366
 11076 1769 1E0C0000 		.4byte	.LVL374
 11077 176d 0100     		.2byte	0x1
 11078 176f 57       		.byte	0x57
 11079 1770 00000000 		.4byte	0
 11080 1774 00000000 		.4byte	0
 11081              	.LLST179:
 11082 1778 C00B0000 		.4byte	.LVL365
 11083 177c E00B0000 		.4byte	.LVL367
 11084 1780 0300     		.2byte	0x3
 11085 1782 08       		.byte	0x8
 11086 1783 EA       		.byte	0xea
 11087 1784 9F       		.byte	0x9f
 11088 1785 E00B0000 		.4byte	.LVL367
 11089 1789 0E0C0000 		.4byte	.LVL372
 11090 178d 0100     		.2byte	0x1
 11091 178f 58       		.byte	0x58
 11092 1790 140C0000 		.4byte	.LVL373
 11093 1794 1E0C0000 		.4byte	.LVL374
 11094 1798 0100     		.2byte	0x1
 11095 179a 58       		.byte	0x58
 11096 179b 00000000 		.4byte	0
 11097 179f 00000000 		.4byte	0
 11098              	.LLST180:
 11099 17a3 D60B0000 		.4byte	.LVL366
 11100 17a7 1E0C0000 		.4byte	.LVL374
 11101 17ab 0200     		.2byte	0x2
 11102 17ad 37       		.byte	0x37
 11103 17ae 9F       		.byte	0x9f
 11104 17af 00000000 		.4byte	0
 11105 17b3 00000000 		.4byte	0
 11106              	.LLST181:
 11107 17b7 D60B0000 		.4byte	.LVL366
 11108 17bb E00B0000 		.4byte	.LVL367
 11109 17bf 0200     		.2byte	0x2
 11110 17c1 30       		.byte	0x30
 11111 17c2 9F       		.byte	0x9f
 11112 17c3 00000000 		.4byte	0
 11113 17c7 00000000 		.4byte	0
 11114              	.LLST182:
 11115 17cb E00B0000 		.4byte	.LVL367
 11116 17cf F00B0000 		.4byte	.LVL368
 11117 17d3 0200     		.2byte	0x2
ARM GAS  C:\Users\legoc\AppData\Local\Temp\cc4EoOj2.s 			page 233


 11118 17d5 30       		.byte	0x30
 11119 17d6 9F       		.byte	0x9f
 11120 17d7 00000000 		.4byte	0
 11121 17db 00000000 		.4byte	0
 11122              	.LLST183:
 11123 17df 340C0000 		.4byte	.LVL375
 11124 17e3 620C0000 		.4byte	.LVL379
 11125 17e7 0100     		.2byte	0x1
 11126 17e9 55       		.byte	0x55
 11127 17ea 6A0C0000 		.4byte	.LVL380
 11128 17ee 800C0000 		.4byte	.LVL383
 11129 17f2 0100     		.2byte	0x1
 11130 17f4 55       		.byte	0x55
 11131 17f5 00000000 		.4byte	0
 11132 17f9 00000000 		.4byte	0
 11133              	.LLST184:
 11134 17fd 340C0000 		.4byte	.LVL375
 11135 1801 800C0000 		.4byte	.LVL383
 11136 1805 0100     		.2byte	0x1
 11137 1807 57       		.byte	0x57
 11138 1808 00000000 		.4byte	0
 11139 180c 00000000 		.4byte	0
 11140              	.LLST185:
 11141 1810 1E0C0000 		.4byte	.LVL374
 11142 1814 3E0C0000 		.4byte	.LVL376
 11143 1818 0300     		.2byte	0x3
 11144 181a 08       		.byte	0x8
 11145 181b D3       		.byte	0xd3
 11146 181c 9F       		.byte	0x9f
 11147 181d 3E0C0000 		.4byte	.LVL376
 11148 1821 6C0C0000 		.4byte	.LVL381
 11149 1825 0100     		.2byte	0x1
 11150 1827 58       		.byte	0x58
 11151 1828 720C0000 		.4byte	.LVL382
 11152 182c 800C0000 		.4byte	.LVL383
 11153 1830 0100     		.2byte	0x1
 11154 1832 58       		.byte	0x58
 11155 1833 00000000 		.4byte	0
 11156 1837 00000000 		.4byte	0
 11157              	.LLST186:
 11158 183b 340C0000 		.4byte	.LVL375
 11159 183f 800C0000 		.4byte	.LVL383
 11160 1843 0200     		.2byte	0x2
 11161 1845 37       		.byte	0x37
 11162 1846 9F       		.byte	0x9f
 11163 1847 00000000 		.4byte	0
 11164 184b 00000000 		.4byte	0
 11165              	.LLST187:
 11166 184f 340C0000 		.4byte	.LVL375
 11167 1853 3E0C0000 		.4byte	.LVL376
 11168 1857 0200     		.2byte	0x2
 11169 1859 30       		.byte	0x30
 11170 185a 9F       		.byte	0x9f
 11171 185b 00000000 		.4byte	0
 11172 185f 00000000 		.4byte	0
 11173              	.LLST188:
 11174 1863 3E0C0000 		.4byte	.LVL376
ARM GAS  C:\Users\legoc\AppData\Local\Temp\cc4EoOj2.s 			page 234


 11175 1867 4E0C0000 		.4byte	.LVL377
 11176 186b 0200     		.2byte	0x2
 11177 186d 30       		.byte	0x30
 11178 186e 9F       		.byte	0x9f
 11179 186f 00000000 		.4byte	0
 11180 1873 00000000 		.4byte	0
 11181              	.LLST189:
 11182 1877 960C0000 		.4byte	.LVL384
 11183 187b C40C0000 		.4byte	.LVL388
 11184 187f 0100     		.2byte	0x1
 11185 1881 55       		.byte	0x55
 11186 1882 CC0C0000 		.4byte	.LVL389
 11187 1886 DE0C0000 		.4byte	.LVL392
 11188 188a 0100     		.2byte	0x1
 11189 188c 55       		.byte	0x55
 11190 188d 00000000 		.4byte	0
 11191 1891 00000000 		.4byte	0
 11192              	.LLST190:
 11193 1895 960C0000 		.4byte	.LVL384
 11194 1899 DE0C0000 		.4byte	.LVL392
 11195 189d 0100     		.2byte	0x1
 11196 189f 57       		.byte	0x57
 11197 18a0 00000000 		.4byte	0
 11198 18a4 00000000 		.4byte	0
 11199              	.LLST191:
 11200 18a8 800C0000 		.4byte	.LVL383
 11201 18ac A00C0000 		.4byte	.LVL385
 11202 18b0 0400     		.2byte	0x4
 11203 18b2 0A       		.byte	0xa
 11204 18b3 0401     		.2byte	0x104
 11205 18b5 9F       		.byte	0x9f
 11206 18b6 A00C0000 		.4byte	.LVL385
 11207 18ba CE0C0000 		.4byte	.LVL390
 11208 18be 0100     		.2byte	0x1
 11209 18c0 58       		.byte	0x58
 11210 18c1 D40C0000 		.4byte	.LVL391
 11211 18c5 DE0C0000 		.4byte	.LVL392
 11212 18c9 0100     		.2byte	0x1
 11213 18cb 58       		.byte	0x58
 11214 18cc 00000000 		.4byte	0
 11215 18d0 00000000 		.4byte	0
 11216              	.LLST192:
 11217 18d4 960C0000 		.4byte	.LVL384
 11218 18d8 DE0C0000 		.4byte	.LVL392
 11219 18dc 0200     		.2byte	0x2
 11220 18de 37       		.byte	0x37
 11221 18df 9F       		.byte	0x9f
 11222 18e0 00000000 		.4byte	0
 11223 18e4 00000000 		.4byte	0
 11224              	.LLST193:
 11225 18e8 960C0000 		.4byte	.LVL384
 11226 18ec A00C0000 		.4byte	.LVL385
 11227 18f0 0200     		.2byte	0x2
 11228 18f2 30       		.byte	0x30
 11229 18f3 9F       		.byte	0x9f
 11230 18f4 00000000 		.4byte	0
 11231 18f8 00000000 		.4byte	0
ARM GAS  C:\Users\legoc\AppData\Local\Temp\cc4EoOj2.s 			page 235


 11232              	.LLST194:
 11233 18fc A00C0000 		.4byte	.LVL385
 11234 1900 B00C0000 		.4byte	.LVL386
 11235 1904 0200     		.2byte	0x2
 11236 1906 30       		.byte	0x30
 11237 1907 9F       		.byte	0x9f
 11238 1908 00000000 		.4byte	0
 11239 190c 00000000 		.4byte	0
 11240              	.LLST195:
 11241 1910 F40C0000 		.4byte	.LVL393
 11242 1914 220D0000 		.4byte	.LVL397
 11243 1918 0100     		.2byte	0x1
 11244 191a 55       		.byte	0x55
 11245 191b 2A0D0000 		.4byte	.LVL398
 11246 191f 3C0D0000 		.4byte	.LVL401
 11247 1923 0100     		.2byte	0x1
 11248 1925 55       		.byte	0x55
 11249 1926 00000000 		.4byte	0
 11250 192a 00000000 		.4byte	0
 11251              	.LLST196:
 11252 192e F40C0000 		.4byte	.LVL393
 11253 1932 3C0D0000 		.4byte	.LVL401
 11254 1936 0100     		.2byte	0x1
 11255 1938 57       		.byte	0x57
 11256 1939 00000000 		.4byte	0
 11257 193d 00000000 		.4byte	0
 11258              	.LLST197:
 11259 1941 DE0C0000 		.4byte	.LVL392
 11260 1945 FE0C0000 		.4byte	.LVL394
 11261 1949 0300     		.2byte	0x3
 11262 194b 08       		.byte	0x8
 11263 194c 8F       		.byte	0x8f
 11264 194d 9F       		.byte	0x9f
 11265 194e FE0C0000 		.4byte	.LVL394
 11266 1952 2C0D0000 		.4byte	.LVL399
 11267 1956 0100     		.2byte	0x1
 11268 1958 58       		.byte	0x58
 11269 1959 320D0000 		.4byte	.LVL400
 11270 195d 3C0D0000 		.4byte	.LVL401
 11271 1961 0100     		.2byte	0x1
 11272 1963 58       		.byte	0x58
 11273 1964 00000000 		.4byte	0
 11274 1968 00000000 		.4byte	0
 11275              	.LLST198:
 11276 196c F40C0000 		.4byte	.LVL393
 11277 1970 3C0D0000 		.4byte	.LVL401
 11278 1974 0200     		.2byte	0x2
 11279 1976 37       		.byte	0x37
 11280 1977 9F       		.byte	0x9f
 11281 1978 00000000 		.4byte	0
 11282 197c 00000000 		.4byte	0
 11283              	.LLST199:
 11284 1980 F40C0000 		.4byte	.LVL393
 11285 1984 FE0C0000 		.4byte	.LVL394
 11286 1988 0200     		.2byte	0x2
 11287 198a 30       		.byte	0x30
 11288 198b 9F       		.byte	0x9f
ARM GAS  C:\Users\legoc\AppData\Local\Temp\cc4EoOj2.s 			page 236


 11289 198c 00000000 		.4byte	0
 11290 1990 00000000 		.4byte	0
 11291              	.LLST200:
 11292 1994 FE0C0000 		.4byte	.LVL394
 11293 1998 0E0D0000 		.4byte	.LVL395
 11294 199c 0200     		.2byte	0x2
 11295 199e 30       		.byte	0x30
 11296 199f 9F       		.byte	0x9f
 11297 19a0 00000000 		.4byte	0
 11298 19a4 00000000 		.4byte	0
 11299              	.LLST201:
 11300 19a8 520D0000 		.4byte	.LVL402
 11301 19ac 800D0000 		.4byte	.LVL406
 11302 19b0 0100     		.2byte	0x1
 11303 19b2 55       		.byte	0x55
 11304 19b3 880D0000 		.4byte	.LVL407
 11305 19b7 9A0D0000 		.4byte	.LVL410
 11306 19bb 0100     		.2byte	0x1
 11307 19bd 55       		.byte	0x55
 11308 19be 00000000 		.4byte	0
 11309 19c2 00000000 		.4byte	0
 11310              	.LLST202:
 11311 19c6 520D0000 		.4byte	.LVL402
 11312 19ca 9A0D0000 		.4byte	.LVL410
 11313 19ce 0100     		.2byte	0x1
 11314 19d0 57       		.byte	0x57
 11315 19d1 00000000 		.4byte	0
 11316 19d5 00000000 		.4byte	0
 11317              	.LLST203:
 11318 19d9 3C0D0000 		.4byte	.LVL401
 11319 19dd 5C0D0000 		.4byte	.LVL403
 11320 19e1 0300     		.2byte	0x3
 11321 19e3 08       		.byte	0x8
 11322 19e4 76       		.byte	0x76
 11323 19e5 9F       		.byte	0x9f
 11324 19e6 5C0D0000 		.4byte	.LVL403
 11325 19ea 8A0D0000 		.4byte	.LVL408
 11326 19ee 0100     		.2byte	0x1
 11327 19f0 58       		.byte	0x58
 11328 19f1 900D0000 		.4byte	.LVL409
 11329 19f5 9A0D0000 		.4byte	.LVL410
 11330 19f9 0100     		.2byte	0x1
 11331 19fb 58       		.byte	0x58
 11332 19fc 00000000 		.4byte	0
 11333 1a00 00000000 		.4byte	0
 11334              	.LLST204:
 11335 1a04 520D0000 		.4byte	.LVL402
 11336 1a08 9A0D0000 		.4byte	.LVL410
 11337 1a0c 0200     		.2byte	0x2
 11338 1a0e 37       		.byte	0x37
 11339 1a0f 9F       		.byte	0x9f
 11340 1a10 00000000 		.4byte	0
 11341 1a14 00000000 		.4byte	0
 11342              	.LLST205:
 11343 1a18 520D0000 		.4byte	.LVL402
 11344 1a1c 5C0D0000 		.4byte	.LVL403
 11345 1a20 0200     		.2byte	0x2
ARM GAS  C:\Users\legoc\AppData\Local\Temp\cc4EoOj2.s 			page 237


 11346 1a22 30       		.byte	0x30
 11347 1a23 9F       		.byte	0x9f
 11348 1a24 00000000 		.4byte	0
 11349 1a28 00000000 		.4byte	0
 11350              	.LLST206:
 11351 1a2c 5C0D0000 		.4byte	.LVL403
 11352 1a30 6C0D0000 		.4byte	.LVL404
 11353 1a34 0200     		.2byte	0x2
 11354 1a36 30       		.byte	0x30
 11355 1a37 9F       		.byte	0x9f
 11356 1a38 00000000 		.4byte	0
 11357 1a3c 00000000 		.4byte	0
 11358              	.LLST207:
 11359 1a40 B00D0000 		.4byte	.LVL411
 11360 1a44 DE0D0000 		.4byte	.LVL415
 11361 1a48 0100     		.2byte	0x1
 11362 1a4a 55       		.byte	0x55
 11363 1a4b E60D0000 		.4byte	.LVL416
 11364 1a4f F80D0000 		.4byte	.LVL419
 11365 1a53 0100     		.2byte	0x1
 11366 1a55 55       		.byte	0x55
 11367 1a56 00000000 		.4byte	0
 11368 1a5a 00000000 		.4byte	0
 11369              	.LLST208:
 11370 1a5e B00D0000 		.4byte	.LVL411
 11371 1a62 F80D0000 		.4byte	.LVL419
 11372 1a66 0100     		.2byte	0x1
 11373 1a68 57       		.byte	0x57
 11374 1a69 00000000 		.4byte	0
 11375 1a6d 00000000 		.4byte	0
 11376              	.LLST209:
 11377 1a71 9A0D0000 		.4byte	.LVL410
 11378 1a75 BA0D0000 		.4byte	.LVL412
 11379 1a79 0300     		.2byte	0x3
 11380 1a7b 08       		.byte	0x8
 11381 1a7c A6       		.byte	0xa6
 11382 1a7d 9F       		.byte	0x9f
 11383 1a7e BA0D0000 		.4byte	.LVL412
 11384 1a82 E80D0000 		.4byte	.LVL417
 11385 1a86 0100     		.2byte	0x1
 11386 1a88 58       		.byte	0x58
 11387 1a89 EE0D0000 		.4byte	.LVL418
 11388 1a8d F80D0000 		.4byte	.LVL419
 11389 1a91 0100     		.2byte	0x1
 11390 1a93 58       		.byte	0x58
 11391 1a94 00000000 		.4byte	0
 11392 1a98 00000000 		.4byte	0
 11393              	.LLST210:
 11394 1a9c B00D0000 		.4byte	.LVL411
 11395 1aa0 F80D0000 		.4byte	.LVL419
 11396 1aa4 0200     		.2byte	0x2
 11397 1aa6 37       		.byte	0x37
 11398 1aa7 9F       		.byte	0x9f
 11399 1aa8 00000000 		.4byte	0
 11400 1aac 00000000 		.4byte	0
 11401              	.LLST211:
 11402 1ab0 B00D0000 		.4byte	.LVL411
ARM GAS  C:\Users\legoc\AppData\Local\Temp\cc4EoOj2.s 			page 238


 11403 1ab4 BA0D0000 		.4byte	.LVL412
 11404 1ab8 0200     		.2byte	0x2
 11405 1aba 30       		.byte	0x30
 11406 1abb 9F       		.byte	0x9f
 11407 1abc 00000000 		.4byte	0
 11408 1ac0 00000000 		.4byte	0
 11409              	.LLST212:
 11410 1ac4 BA0D0000 		.4byte	.LVL412
 11411 1ac8 CA0D0000 		.4byte	.LVL413
 11412 1acc 0200     		.2byte	0x2
 11413 1ace 30       		.byte	0x30
 11414 1acf 9F       		.byte	0x9f
 11415 1ad0 00000000 		.4byte	0
 11416 1ad4 00000000 		.4byte	0
 11417              	.LLST213:
 11418 1ad8 2A0E0000 		.4byte	.LVL426
 11419 1adc 540E0000 		.4byte	.LVL430
 11420 1ae0 0100     		.2byte	0x1
 11421 1ae2 55       		.byte	0x55
 11422 1ae3 5C0E0000 		.4byte	.LVL431
 11423 1ae7 6A0E0000 		.4byte	.LVL434
 11424 1aeb 0100     		.2byte	0x1
 11425 1aed 55       		.byte	0x55
 11426 1aee 00000000 		.4byte	0
 11427 1af2 00000000 		.4byte	0
 11428              	.LLST214:
 11429 1af6 2A0E0000 		.4byte	.LVL426
 11430 1afa 6A0E0000 		.4byte	.LVL434
 11431 1afe 0100     		.2byte	0x1
 11432 1b00 57       		.byte	0x57
 11433 1b01 00000000 		.4byte	0
 11434 1b05 00000000 		.4byte	0
 11435              	.LLST215:
 11436 1b09 000E0000 		.4byte	.LVL420
 11437 1b0d 080E0000 		.4byte	.LVL422
 11438 1b11 0100     		.2byte	0x1
 11439 1b13 53       		.byte	0x53
 11440 1b14 0C0E0000 		.4byte	.LVL423
 11441 1b18 1A0E0000 		.4byte	.LVL424
 11442 1b1c 0100     		.2byte	0x1
 11443 1b1e 53       		.byte	0x53
 11444 1b1f 1A0E0000 		.4byte	.LVL424
 11445 1b23 240E0000 		.4byte	.LVL425
 11446 1b27 0300     		.2byte	0x3
 11447 1b29 73       		.byte	0x73
 11448 1b2a 7F       		.sleb128 -1
 11449 1b2b 9F       		.byte	0x9f
 11450 1b2c 240E0000 		.4byte	.LVL425
 11451 1b30 5E0E0000 		.4byte	.LVL432
 11452 1b34 0100     		.2byte	0x1
 11453 1b36 58       		.byte	0x58
 11454 1b37 640E0000 		.4byte	.LVL433
 11455 1b3b 6A0E0000 		.4byte	.LVL434
 11456 1b3f 0100     		.2byte	0x1
 11457 1b41 58       		.byte	0x58
 11458 1b42 00000000 		.4byte	0
 11459 1b46 00000000 		.4byte	0
ARM GAS  C:\Users\legoc\AppData\Local\Temp\cc4EoOj2.s 			page 239


 11460              	.LLST216:
 11461 1b4a 2A0E0000 		.4byte	.LVL426
 11462 1b4e 6A0E0000 		.4byte	.LVL434
 11463 1b52 0200     		.2byte	0x2
 11464 1b54 37       		.byte	0x37
 11465 1b55 9F       		.byte	0x9f
 11466 1b56 00000000 		.4byte	0
 11467 1b5a 00000000 		.4byte	0
 11468              	.LLST217:
 11469 1b5e 2A0E0000 		.4byte	.LVL426
 11470 1b62 2C0E0000 		.4byte	.LVL427
 11471 1b66 0200     		.2byte	0x2
 11472 1b68 30       		.byte	0x30
 11473 1b69 9F       		.byte	0x9f
 11474 1b6a 00000000 		.4byte	0
 11475 1b6e 00000000 		.4byte	0
 11476              	.LLST218:
 11477 1b72 2C0E0000 		.4byte	.LVL427
 11478 1b76 400E0000 		.4byte	.LVL428
 11479 1b7a 0200     		.2byte	0x2
 11480 1b7c 30       		.byte	0x30
 11481 1b7d 9F       		.byte	0x9f
 11482 1b7e 00000000 		.4byte	0
 11483 1b82 00000000 		.4byte	0
 11484              	.LLST219:
 11485 1b86 9C0E0000 		.4byte	.LVL441
 11486 1b8a C60E0000 		.4byte	.LVL445
 11487 1b8e 0100     		.2byte	0x1
 11488 1b90 55       		.byte	0x55
 11489 1b91 CE0E0000 		.4byte	.LVL446
 11490 1b95 DC0E0000 		.4byte	.LVL449
 11491 1b99 0100     		.2byte	0x1
 11492 1b9b 55       		.byte	0x55
 11493 1b9c 00000000 		.4byte	0
 11494 1ba0 00000000 		.4byte	0
 11495              	.LLST220:
 11496 1ba4 9C0E0000 		.4byte	.LVL441
 11497 1ba8 DC0E0000 		.4byte	.LVL449
 11498 1bac 0100     		.2byte	0x1
 11499 1bae 57       		.byte	0x57
 11500 1baf 00000000 		.4byte	0
 11501 1bb3 00000000 		.4byte	0
 11502              	.LLST221:
 11503 1bb7 720E0000 		.4byte	.LVL435
 11504 1bbb 7A0E0000 		.4byte	.LVL437
 11505 1bbf 0100     		.2byte	0x1
 11506 1bc1 53       		.byte	0x53
 11507 1bc2 7E0E0000 		.4byte	.LVL438
 11508 1bc6 8C0E0000 		.4byte	.LVL439
 11509 1bca 0100     		.2byte	0x1
 11510 1bcc 53       		.byte	0x53
 11511 1bcd 8C0E0000 		.4byte	.LVL439
 11512 1bd1 960E0000 		.4byte	.LVL440
 11513 1bd5 0300     		.2byte	0x3
 11514 1bd7 73       		.byte	0x73
 11515 1bd8 7F       		.sleb128 -1
 11516 1bd9 9F       		.byte	0x9f
ARM GAS  C:\Users\legoc\AppData\Local\Temp\cc4EoOj2.s 			page 240


 11517 1bda 960E0000 		.4byte	.LVL440
 11518 1bde D00E0000 		.4byte	.LVL447
 11519 1be2 0100     		.2byte	0x1
 11520 1be4 58       		.byte	0x58
 11521 1be5 D60E0000 		.4byte	.LVL448
 11522 1be9 DC0E0000 		.4byte	.LVL449
 11523 1bed 0100     		.2byte	0x1
 11524 1bef 58       		.byte	0x58
 11525 1bf0 00000000 		.4byte	0
 11526 1bf4 00000000 		.4byte	0
 11527              	.LLST222:
 11528 1bf8 9C0E0000 		.4byte	.LVL441
 11529 1bfc DC0E0000 		.4byte	.LVL449
 11530 1c00 0200     		.2byte	0x2
 11531 1c02 37       		.byte	0x37
 11532 1c03 9F       		.byte	0x9f
 11533 1c04 00000000 		.4byte	0
 11534 1c08 00000000 		.4byte	0
 11535              	.LLST223:
 11536 1c0c 9C0E0000 		.4byte	.LVL441
 11537 1c10 9E0E0000 		.4byte	.LVL442
 11538 1c14 0200     		.2byte	0x2
 11539 1c16 30       		.byte	0x30
 11540 1c17 9F       		.byte	0x9f
 11541 1c18 00000000 		.4byte	0
 11542 1c1c 00000000 		.4byte	0
 11543              	.LLST224:
 11544 1c20 9E0E0000 		.4byte	.LVL442
 11545 1c24 B20E0000 		.4byte	.LVL443
 11546 1c28 0200     		.2byte	0x2
 11547 1c2a 30       		.byte	0x30
 11548 1c2b 9F       		.byte	0x9f
 11549 1c2c 00000000 		.4byte	0
 11550 1c30 00000000 		.4byte	0
 11551              	.LLST225:
 11552 1c34 0E0F0000 		.4byte	.LVL456
 11553 1c38 380F0000 		.4byte	.LVL460
 11554 1c3c 0100     		.2byte	0x1
 11555 1c3e 55       		.byte	0x55
 11556 1c3f 400F0000 		.4byte	.LVL461
 11557 1c43 4E0F0000 		.4byte	.LVL464
 11558 1c47 0100     		.2byte	0x1
 11559 1c49 55       		.byte	0x55
 11560 1c4a 00000000 		.4byte	0
 11561 1c4e 00000000 		.4byte	0
 11562              	.LLST226:
 11563 1c52 0E0F0000 		.4byte	.LVL456
 11564 1c56 4E0F0000 		.4byte	.LVL464
 11565 1c5a 0100     		.2byte	0x1
 11566 1c5c 57       		.byte	0x57
 11567 1c5d 00000000 		.4byte	0
 11568 1c61 00000000 		.4byte	0
 11569              	.LLST227:
 11570 1c65 E40E0000 		.4byte	.LVL450
 11571 1c69 EC0E0000 		.4byte	.LVL452
 11572 1c6d 0100     		.2byte	0x1
 11573 1c6f 53       		.byte	0x53
ARM GAS  C:\Users\legoc\AppData\Local\Temp\cc4EoOj2.s 			page 241


 11574 1c70 F00E0000 		.4byte	.LVL453
 11575 1c74 FE0E0000 		.4byte	.LVL454
 11576 1c78 0100     		.2byte	0x1
 11577 1c7a 53       		.byte	0x53
 11578 1c7b FE0E0000 		.4byte	.LVL454
 11579 1c7f 080F0000 		.4byte	.LVL455
 11580 1c83 0300     		.2byte	0x3
 11581 1c85 73       		.byte	0x73
 11582 1c86 7F       		.sleb128 -1
 11583 1c87 9F       		.byte	0x9f
 11584 1c88 080F0000 		.4byte	.LVL455
 11585 1c8c 420F0000 		.4byte	.LVL462
 11586 1c90 0100     		.2byte	0x1
 11587 1c92 58       		.byte	0x58
 11588 1c93 480F0000 		.4byte	.LVL463
 11589 1c97 4E0F0000 		.4byte	.LVL464
 11590 1c9b 0100     		.2byte	0x1
 11591 1c9d 58       		.byte	0x58
 11592 1c9e 00000000 		.4byte	0
 11593 1ca2 00000000 		.4byte	0
 11594              	.LLST228:
 11595 1ca6 0E0F0000 		.4byte	.LVL456
 11596 1caa 4E0F0000 		.4byte	.LVL464
 11597 1cae 0200     		.2byte	0x2
 11598 1cb0 37       		.byte	0x37
 11599 1cb1 9F       		.byte	0x9f
 11600 1cb2 00000000 		.4byte	0
 11601 1cb6 00000000 		.4byte	0
 11602              	.LLST229:
 11603 1cba 0E0F0000 		.4byte	.LVL456
 11604 1cbe 100F0000 		.4byte	.LVL457
 11605 1cc2 0200     		.2byte	0x2
 11606 1cc4 30       		.byte	0x30
 11607 1cc5 9F       		.byte	0x9f
 11608 1cc6 00000000 		.4byte	0
 11609 1cca 00000000 		.4byte	0
 11610              	.LLST230:
 11611 1cce 100F0000 		.4byte	.LVL457
 11612 1cd2 240F0000 		.4byte	.LVL458
 11613 1cd6 0200     		.2byte	0x2
 11614 1cd8 30       		.byte	0x30
 11615 1cd9 9F       		.byte	0x9f
 11616 1cda 00000000 		.4byte	0
 11617 1cde 00000000 		.4byte	0
 11618              	.LLST231:
 11619 1ce2 800F0000 		.4byte	.LVL471
 11620 1ce6 AA0F0000 		.4byte	.LVL475
 11621 1cea 0100     		.2byte	0x1
 11622 1cec 55       		.byte	0x55
 11623 1ced B20F0000 		.4byte	.LVL476
 11624 1cf1 C00F0000 		.4byte	.LVL479
 11625 1cf5 0100     		.2byte	0x1
 11626 1cf7 55       		.byte	0x55
 11627 1cf8 00000000 		.4byte	0
 11628 1cfc 00000000 		.4byte	0
 11629              	.LLST232:
 11630 1d00 800F0000 		.4byte	.LVL471
ARM GAS  C:\Users\legoc\AppData\Local\Temp\cc4EoOj2.s 			page 242


 11631 1d04 C00F0000 		.4byte	.LVL479
 11632 1d08 0100     		.2byte	0x1
 11633 1d0a 57       		.byte	0x57
 11634 1d0b 00000000 		.4byte	0
 11635 1d0f 00000000 		.4byte	0
 11636              	.LLST233:
 11637 1d13 560F0000 		.4byte	.LVL465
 11638 1d17 5E0F0000 		.4byte	.LVL467
 11639 1d1b 0100     		.2byte	0x1
 11640 1d1d 53       		.byte	0x53
 11641 1d1e 620F0000 		.4byte	.LVL468
 11642 1d22 700F0000 		.4byte	.LVL469
 11643 1d26 0100     		.2byte	0x1
 11644 1d28 53       		.byte	0x53
 11645 1d29 700F0000 		.4byte	.LVL469
 11646 1d2d 7A0F0000 		.4byte	.LVL470
 11647 1d31 0300     		.2byte	0x3
 11648 1d33 73       		.byte	0x73
 11649 1d34 7F       		.sleb128 -1
 11650 1d35 9F       		.byte	0x9f
 11651 1d36 7A0F0000 		.4byte	.LVL470
 11652 1d3a B40F0000 		.4byte	.LVL477
 11653 1d3e 0100     		.2byte	0x1
 11654 1d40 58       		.byte	0x58
 11655 1d41 BA0F0000 		.4byte	.LVL478
 11656 1d45 C00F0000 		.4byte	.LVL479
 11657 1d49 0100     		.2byte	0x1
 11658 1d4b 58       		.byte	0x58
 11659 1d4c 00000000 		.4byte	0
 11660 1d50 00000000 		.4byte	0
 11661              	.LLST234:
 11662 1d54 800F0000 		.4byte	.LVL471
 11663 1d58 C00F0000 		.4byte	.LVL479
 11664 1d5c 0200     		.2byte	0x2
 11665 1d5e 37       		.byte	0x37
 11666 1d5f 9F       		.byte	0x9f
 11667 1d60 00000000 		.4byte	0
 11668 1d64 00000000 		.4byte	0
 11669              	.LLST235:
 11670 1d68 800F0000 		.4byte	.LVL471
 11671 1d6c 820F0000 		.4byte	.LVL472
 11672 1d70 0200     		.2byte	0x2
 11673 1d72 30       		.byte	0x30
 11674 1d73 9F       		.byte	0x9f
 11675 1d74 00000000 		.4byte	0
 11676 1d78 00000000 		.4byte	0
 11677              	.LLST236:
 11678 1d7c 820F0000 		.4byte	.LVL472
 11679 1d80 960F0000 		.4byte	.LVL473
 11680 1d84 0200     		.2byte	0x2
 11681 1d86 30       		.byte	0x30
 11682 1d87 9F       		.byte	0x9f
 11683 1d88 00000000 		.4byte	0
 11684 1d8c 00000000 		.4byte	0
 11685              	.LLST237:
 11686 1d90 F20F0000 		.4byte	.LVL486
 11687 1d94 1C100000 		.4byte	.LVL490
ARM GAS  C:\Users\legoc\AppData\Local\Temp\cc4EoOj2.s 			page 243


 11688 1d98 0100     		.2byte	0x1
 11689 1d9a 55       		.byte	0x55
 11690 1d9b 24100000 		.4byte	.LVL491
 11691 1d9f 32100000 		.4byte	.LFE2
 11692 1da3 0100     		.2byte	0x1
 11693 1da5 55       		.byte	0x55
 11694 1da6 00000000 		.4byte	0
 11695 1daa 00000000 		.4byte	0
 11696              	.LLST238:
 11697 1dae C80F0000 		.4byte	.LVL480
 11698 1db2 D00F0000 		.4byte	.LVL482
 11699 1db6 0100     		.2byte	0x1
 11700 1db8 53       		.byte	0x53
 11701 1db9 D40F0000 		.4byte	.LVL483
 11702 1dbd E20F0000 		.4byte	.LVL484
 11703 1dc1 0100     		.2byte	0x1
 11704 1dc3 53       		.byte	0x53
 11705 1dc4 E20F0000 		.4byte	.LVL484
 11706 1dc8 EC0F0000 		.4byte	.LVL485
 11707 1dcc 0300     		.2byte	0x3
 11708 1dce 73       		.byte	0x73
 11709 1dcf 7F       		.sleb128 -1
 11710 1dd0 9F       		.byte	0x9f
 11711 1dd1 EC0F0000 		.4byte	.LVL485
 11712 1dd5 26100000 		.4byte	.LVL492
 11713 1dd9 0100     		.2byte	0x1
 11714 1ddb 58       		.byte	0x58
 11715 1ddc 2C100000 		.4byte	.LVL493
 11716 1de0 32100000 		.4byte	.LFE2
 11717 1de4 0100     		.2byte	0x1
 11718 1de6 58       		.byte	0x58
 11719 1de7 00000000 		.4byte	0
 11720 1deb 00000000 		.4byte	0
 11721              	.LLST239:
 11722 1def F20F0000 		.4byte	.LVL486
 11723 1df3 F40F0000 		.4byte	.LVL487
 11724 1df7 0200     		.2byte	0x2
 11725 1df9 30       		.byte	0x30
 11726 1dfa 9F       		.byte	0x9f
 11727 1dfb 00000000 		.4byte	0
 11728 1dff 00000000 		.4byte	0
 11729              	.LLST240:
 11730 1e03 F40F0000 		.4byte	.LVL487
 11731 1e07 08100000 		.4byte	.LVL488
 11732 1e0b 0200     		.2byte	0x2
 11733 1e0d 30       		.byte	0x30
 11734 1e0e 9F       		.byte	0x9f
 11735 1e0f 00000000 		.4byte	0
 11736 1e13 00000000 		.4byte	0
 11737              		.section	.debug_aranges,"",%progbits
 11738 0000 24000000 		.4byte	0x24
 11739 0004 0200     		.2byte	0x2
 11740 0006 00000000 		.4byte	.Ldebug_info0
 11741 000a 04       		.byte	0x4
 11742 000b 00       		.byte	0
 11743 000c 0000     		.2byte	0
 11744 000e 0000     		.2byte	0
ARM GAS  C:\Users\legoc\AppData\Local\Temp\cc4EoOj2.s 			page 244


 11745 0010 00000000 		.4byte	.LFB1
 11746 0014 94000000 		.4byte	.LFE1-.LFB1
 11747 0018 00000000 		.4byte	.LFB2
 11748 001c 32100000 		.4byte	.LFE2-.LFB2
 11749 0020 00000000 		.4byte	0
 11750 0024 00000000 		.4byte	0
 11751              		.section	.debug_ranges,"",%progbits
 11752              	.Ldebug_ranges0:
 11753 0000 08000000 		.4byte	.LBB6
 11754 0004 30000000 		.4byte	.LBE6
 11755 0008 86000000 		.4byte	.LBB10
 11756 000c 94000000 		.4byte	.LBE10
 11757 0010 00000000 		.4byte	0
 11758 0014 00000000 		.4byte	0
 11759 0018 1A000000 		.4byte	.LBB240
 11760 001c B4000000 		.4byte	.LBE240
 11761 0020 C6000000 		.4byte	.LBB451
 11762 0024 32100000 		.4byte	.LBE451
 11763 0028 00000000 		.4byte	0
 11764 002c 00000000 		.4byte	0
 11765 0030 00000000 		.4byte	.LFB1
 11766 0034 94000000 		.4byte	.LFE1
 11767 0038 00000000 		.4byte	.LFB2
 11768 003c 32100000 		.4byte	.LFE2
 11769 0040 00000000 		.4byte	0
 11770 0044 00000000 		.4byte	0
 11771              		.section	.debug_line,"",%progbits
 11772              	.Ldebug_line0:
 11773 0000 1F050000 		.section	.debug_str,"MS",%progbits,1
 11773      0200F600 
 11773      00000201 
 11773      FB0E0D00 
 11773      01010101 
 11774              	.LASF3:
 11775 0000 5F5F696E 		.ascii	"__int16_t\000"
 11775      7431365F 
 11775      7400
 11776              	.LASF16:
 11777 000a 646F7562 		.ascii	"double\000"
 11777      6C6500
 11778              	.LASF55:
 11779 0011 666F6E74 		.ascii	"font\000"
 11779      00
 11780              	.LASF4:
 11781 0016 73686F72 		.ascii	"short int\000"
 11781      7420696E 
 11781      7400
 11782              	.LASF20:
 11783 0020 636F6C6F 		.ascii	"color\000"
 11783      7200
 11784              	.LASF5:
 11785 0026 5F5F7569 		.ascii	"__uint16_t\000"
 11785      6E743136 
 11785      5F7400
 11786              	.LASF46:
 11787 0031 7373697A 		.ascii	"ssizetype\000"
 11787      65747970 
ARM GAS  C:\Users\legoc\AppData\Local\Temp\cc4EoOj2.s 			page 245


 11787      6500
 11788              	.LASF25:
 11789 003b 785F636F 		.ascii	"x_coor\000"
 11789      6F7200
 11790              	.LASF22:
 11791 0042 696E6465 		.ascii	"index\000"
 11791      7800
 11792              	.LASF15:
 11793 0048 666C6F61 		.ascii	"float\000"
 11793      7400
 11794              	.LASF9:
 11795 004e 6C6F6E67 		.ascii	"long long int\000"
 11795      206C6F6E 
 11795      6720696E 
 11795      7400
 11796              	.LASF7:
 11797 005c 6C6F6E67 		.ascii	"long int\000"
 11797      20696E74 
 11797      00
 11798              	.LASF24:
 11799 0065 73747269 		.ascii	"string\000"
 11799      6E6700
 11800              	.LASF2:
 11801 006c 5F5F7569 		.ascii	"__uint8_t\000"
 11801      6E74385F 
 11801      7400
 11802              	.LASF61:
 11803 0076 64726177 		.ascii	"draw_string\000"
 11803      5F737472 
 11803      696E6700 
 11804              	.LASF56:
 11805 0082 474E5520 		.ascii	"GNU C11 5.4.1 20160609 (release) [ARM/embedded-5-br"
 11805      43313120 
 11805      352E342E 
 11805      31203230 
 11805      31363036 
 11806 00b5 616E6368 		.ascii	"anch revision 237715] -mcpu=cortex-m3 -mthumb -g -O"
 11806      20726576 
 11806      6973696F 
 11806      6E203233 
 11806      37373135 
 11807 00e8 33202D66 		.ascii	"3 -ffunction-sections -ffat-lto-objects\000"
 11807      66756E63 
 11807      74696F6E 
 11807      2D736563 
 11807      74696F6E 
 11808              	.LASF18:
 11809 0110 6C6F6E67 		.ascii	"long double\000"
 11809      20646F75 
 11809      626C6500 
 11810              	.LASF1:
 11811 011c 756E7369 		.ascii	"unsigned char\000"
 11811      676E6564 
 11811      20636861 
 11811      7200
 11812              	.LASF0:
 11813 012a 7369676E 		.ascii	"signed char\000"
ARM GAS  C:\Users\legoc\AppData\Local\Temp\cc4EoOj2.s 			page 246


 11813      65642063 
 11813      68617200 
 11814              	.LASF10:
 11815 0136 6C6F6E67 		.ascii	"long long unsigned int\000"
 11815      206C6F6E 
 11815      6720756E 
 11815      7369676E 
 11815      65642069 
 11816              	.LASF23:
 11817 014d 68656967 		.ascii	"height\000"
 11817      687400
 11818              	.LASF11:
 11819 0154 756E7369 		.ascii	"unsigned int\000"
 11819      676E6564 
 11819      20696E74 
 11819      00
 11820              	.LASF58:
 11821 0161 433A5C55 		.ascii	"C:\\Users\\legoc\\Documents\\School\\Senior Year\\S"
 11821      73657273 
 11821      5C6C6567 
 11821      6F635C44 
 11821      6F63756D 
 11822 018e 656E696F 		.ascii	"enior Project\\Senior Project Integrated\\Senior Pr"
 11822      72205072 
 11822      6F6A6563 
 11822      745C5365 
 11822      6E696F72 
 11823 01bf 6F6A6563 		.ascii	"oject Integrated\\Design01.cydsn\000"
 11823      7420496E 
 11823      74656772 
 11823      61746564 
 11823      5C446573 
 11824              	.LASF8:
 11825 01df 6C6F6E67 		.ascii	"long unsigned int\000"
 11825      20756E73 
 11825      69676E65 
 11825      6420696E 
 11825      7400
 11826              	.LASF6:
 11827 01f1 73686F72 		.ascii	"short unsigned int\000"
 11827      7420756E 
 11827      7369676E 
 11827      65642069 
 11827      6E7400
 11828              	.LASF17:
 11829 0204 63686172 		.ascii	"char\000"
 11829      00
 11830              	.LASF14:
 11831 0209 75696E74 		.ascii	"uint16_t\000"
 11831      31365F74 
 11831      00
 11832              	.LASF13:
 11833 0212 696E7431 		.ascii	"int16_t\000"
 11833      365F7400 
 11834              	.LASF26:
 11835 021a 666F6E74 		.ascii	"font_0\000"
 11835      5F3000
ARM GAS  C:\Users\legoc\AppData\Local\Temp\cc4EoOj2.s 			page 247


 11836              	.LASF27:
 11837 0221 666F6E74 		.ascii	"font_1\000"
 11837      5F3100
 11838              	.LASF28:
 11839 0228 666F6E74 		.ascii	"font_2\000"
 11839      5F3200
 11840              	.LASF29:
 11841 022f 666F6E74 		.ascii	"font_3\000"
 11841      5F3300
 11842              	.LASF30:
 11843 0236 666F6E74 		.ascii	"font_4\000"
 11843      5F3400
 11844              	.LASF31:
 11845 023d 666F6E74 		.ascii	"font_5\000"
 11845      5F3500
 11846              	.LASF32:
 11847 0244 666F6E74 		.ascii	"font_6\000"
 11847      5F3600
 11848              	.LASF33:
 11849 024b 666F6E74 		.ascii	"font_7\000"
 11849      5F3700
 11850              	.LASF34:
 11851 0252 666F6E74 		.ascii	"font_8\000"
 11851      5F3800
 11852              	.LASF35:
 11853 0259 666F6E74 		.ascii	"font_9\000"
 11853      5F3900
 11854              	.LASF60:
 11855 0260 64726177 		.ascii	"draw_pixel\000"
 11855      5F706978 
 11855      656C00
 11856              	.LASF59:
 11857 026b 64726177 		.ascii	"draw_character\000"
 11857      5F636861 
 11857      72616374 
 11857      657200
 11858              	.LASF48:
 11859 027a 666F6E74 		.ascii	"font_A\000"
 11859      5F4100
 11860              	.LASF49:
 11861 0281 666F6E74 		.ascii	"font_B\000"
 11861      5F4200
 11862              	.LASF50:
 11863 0288 666F6E74 		.ascii	"font_C\000"
 11863      5F4300
 11864              	.LASF51:
 11865 028f 666F6E74 		.ascii	"font_D\000"
 11865      5F4400
 11866              	.LASF52:
 11867 0296 666F6E74 		.ascii	"font_E\000"
 11867      5F4500
 11868              	.LASF53:
 11869 029d 666F6E74 		.ascii	"font_F\000"
 11869      5F4600
 11870              	.LASF54:
 11871 02a4 666F6E74 		.ascii	"font_G\000"
 11871      5F4700
ARM GAS  C:\Users\legoc\AppData\Local\Temp\cc4EoOj2.s 			page 248


 11872              	.LASF21:
 11873 02ab 63686172 		.ascii	"character\000"
 11873      61637465 
 11873      7200
 11874              	.LASF57:
 11875 02b5 666F6E74 		.ascii	"font.c\000"
 11875      2E6300
 11876              	.LASF36:
 11877 02bc 666F6E74 		.ascii	"font_period\000"
 11877      5F706572 
 11877      696F6400 
 11878              	.LASF12:
 11879 02c8 75696E74 		.ascii	"uint8_t\000"
 11879      385F7400 
 11880              	.LASF19:
 11881 02d0 73697A65 		.ascii	"sizetype\000"
 11881      74797065 
 11881      00
 11882              	.LASF37:
 11883 02d9 666F6E74 		.ascii	"font_a\000"
 11883      5F6100
 11884              	.LASF38:
 11885 02e0 666F6E74 		.ascii	"font_b\000"
 11885      5F6200
 11886              	.LASF39:
 11887 02e7 666F6E74 		.ascii	"font_c\000"
 11887      5F6300
 11888              	.LASF40:
 11889 02ee 666F6E74 		.ascii	"font_d\000"
 11889      5F6400
 11890              	.LASF41:
 11891 02f5 666F6E74 		.ascii	"font_e\000"
 11891      5F6500
 11892              	.LASF42:
 11893 02fc 666F6E74 		.ascii	"font_f\000"
 11893      5F6600
 11894              	.LASF43:
 11895 0303 666F6E74 		.ascii	"font_g\000"
 11895      5F6700
 11896              	.LASF44:
 11897 030a 666F6E74 		.ascii	"font_h\000"
 11897      5F6800
 11898              	.LASF45:
 11899 0311 666F6E74 		.ascii	"font_i\000"
 11899      5F6900
 11900              	.LASF47:
 11901 0318 666F6E74 		.ascii	"font_j\000"
 11901      5F6A00
 11902              		.ident	"GCC: (GNU Tools for ARM Embedded Processors) 5.4.1 20160609 (release) [ARM/embedded-5-bran
