ARM GAS  C:\Users\legoc\AppData\Local\Temp\ccXGBqqV.s 			page 1


   1              		.syntax unified
   2              		.cpu cortex-m3
   3              		.fpu softvfp
   4              		.eabi_attribute 20, 1
   5              		.eabi_attribute 21, 1
   6              		.eabi_attribute 23, 3
   7              		.eabi_attribute 24, 1
   8              		.eabi_attribute 25, 1
   9              		.eabi_attribute 26, 1
  10              		.eabi_attribute 30, 2
  11              		.eabi_attribute 34, 1
  12              		.eabi_attribute 18, 4
  13              		.thumb
  14              		.syntax unified
  15              		.file	"I2C.c"
  16              		.text
  17              	.Ltext0:
  18              		.cfi_sections	.debug_frame
  19              		.section	.text.I2C_Init,"ax",%progbits
  20              		.align	2
  21              		.global	I2C_Init
  22              		.thumb
  23              		.thumb_func
  24              		.type	I2C_Init, %function
  25              	I2C_Init:
  26              	.LFB0:
  27              		.file 1 "Generated_Source\\PSoC5\\I2C.c"
   1:Generated_Source\PSoC5/I2C.c **** /*******************************************************************************
   2:Generated_Source\PSoC5/I2C.c **** * File Name: I2C.c
   3:Generated_Source\PSoC5/I2C.c **** * Version 3.50
   4:Generated_Source\PSoC5/I2C.c **** *
   5:Generated_Source\PSoC5/I2C.c **** * Description:
   6:Generated_Source\PSoC5/I2C.c **** *  This file provides the source code of APIs for the I2C component.
   7:Generated_Source\PSoC5/I2C.c **** *  The actual protocol and operation code resides in the interrupt service
   8:Generated_Source\PSoC5/I2C.c **** *  routine file.
   9:Generated_Source\PSoC5/I2C.c **** *
  10:Generated_Source\PSoC5/I2C.c **** *******************************************************************************
  11:Generated_Source\PSoC5/I2C.c **** * Copyright 2008-2015, Cypress Semiconductor Corporation. All rights reserved.
  12:Generated_Source\PSoC5/I2C.c **** * You may use this file only in accordance with the license, terms, conditions,
  13:Generated_Source\PSoC5/I2C.c **** * disclaimers, and limitations in the end user license agreement accompanying
  14:Generated_Source\PSoC5/I2C.c **** * the software package with which this file was provided.
  15:Generated_Source\PSoC5/I2C.c **** *******************************************************************************/
  16:Generated_Source\PSoC5/I2C.c **** 
  17:Generated_Source\PSoC5/I2C.c **** #include "I2C_PVT.h"
  18:Generated_Source\PSoC5/I2C.c **** 
  19:Generated_Source\PSoC5/I2C.c **** 
  20:Generated_Source\PSoC5/I2C.c **** /**********************************
  21:Generated_Source\PSoC5/I2C.c **** *      System variables
  22:Generated_Source\PSoC5/I2C.c **** **********************************/
  23:Generated_Source\PSoC5/I2C.c **** 
  24:Generated_Source\PSoC5/I2C.c **** uint8 I2C_initVar = 0u; /* Defines if component was initialized */
  25:Generated_Source\PSoC5/I2C.c **** 
  26:Generated_Source\PSoC5/I2C.c **** volatile uint8 I2C_state;  /* Current state of I2C FSM */
  27:Generated_Source\PSoC5/I2C.c **** 
  28:Generated_Source\PSoC5/I2C.c **** 
  29:Generated_Source\PSoC5/I2C.c **** /*******************************************************************************
  30:Generated_Source\PSoC5/I2C.c **** * Function Name: I2C_Init
ARM GAS  C:\Users\legoc\AppData\Local\Temp\ccXGBqqV.s 			page 2


  31:Generated_Source\PSoC5/I2C.c **** ********************************************************************************
  32:Generated_Source\PSoC5/I2C.c **** *
  33:Generated_Source\PSoC5/I2C.c **** * Summary:
  34:Generated_Source\PSoC5/I2C.c **** *  Initializes I2C registers with initial values provided from customizer.
  35:Generated_Source\PSoC5/I2C.c **** *
  36:Generated_Source\PSoC5/I2C.c **** * Parameters:
  37:Generated_Source\PSoC5/I2C.c **** *  None.
  38:Generated_Source\PSoC5/I2C.c **** *
  39:Generated_Source\PSoC5/I2C.c **** * Return:
  40:Generated_Source\PSoC5/I2C.c **** *  None.
  41:Generated_Source\PSoC5/I2C.c **** *
  42:Generated_Source\PSoC5/I2C.c **** * Global variables:
  43:Generated_Source\PSoC5/I2C.c **** *  None.
  44:Generated_Source\PSoC5/I2C.c **** *
  45:Generated_Source\PSoC5/I2C.c **** * Reentrant:
  46:Generated_Source\PSoC5/I2C.c **** *  No.
  47:Generated_Source\PSoC5/I2C.c **** *
  48:Generated_Source\PSoC5/I2C.c **** *******************************************************************************/
  49:Generated_Source\PSoC5/I2C.c **** void I2C_Init(void) 
  50:Generated_Source\PSoC5/I2C.c **** {
  28              		.loc 1 50 0
  29              		.cfi_startproc
  30              		@ args = 0, pretend = 0, frame = 0
  31              		@ frame_needed = 0, uses_anonymous_args = 0
  32 0000 F8B5     		push	{r3, r4, r5, r6, r7, lr}
  33              		.cfi_def_cfa_offset 24
  34              		.cfi_offset 3, -24
  35              		.cfi_offset 4, -20
  36              		.cfi_offset 5, -16
  37              		.cfi_offset 6, -12
  38              		.cfi_offset 7, -8
  39              		.cfi_offset 14, -4
  51:Generated_Source\PSoC5/I2C.c **** #if (I2C_FF_IMPLEMENTED)
  52:Generated_Source\PSoC5/I2C.c ****     /* Configure fixed function block */
  53:Generated_Source\PSoC5/I2C.c ****     I2C_CFG_REG  = I2C_DEFAULT_CFG;
  54:Generated_Source\PSoC5/I2C.c ****     I2C_XCFG_REG = I2C_DEFAULT_XCFG;
  40              		.loc 1 54 0
  41 0002 124A     		ldr	r2, .L3
  53:Generated_Source\PSoC5/I2C.c ****     I2C_XCFG_REG = I2C_DEFAULT_XCFG;
  42              		.loc 1 53 0
  43 0004 124D     		ldr	r5, .L3+4
  55:Generated_Source\PSoC5/I2C.c ****     I2C_ADDR_REG = I2C_DEFAULT_ADDR;
  56:Generated_Source\PSoC5/I2C.c ****     I2C_CLKDIV1_REG = LO8(I2C_DEFAULT_DIVIDE_FACTOR);
  57:Generated_Source\PSoC5/I2C.c ****     I2C_CLKDIV2_REG = HI8(I2C_DEFAULT_DIVIDE_FACTOR);
  58:Generated_Source\PSoC5/I2C.c **** 
  59:Generated_Source\PSoC5/I2C.c **** #else
  60:Generated_Source\PSoC5/I2C.c ****     uint8 intState;
  61:Generated_Source\PSoC5/I2C.c **** 
  62:Generated_Source\PSoC5/I2C.c ****     /* Configure control and interrupt sources */
  63:Generated_Source\PSoC5/I2C.c ****     I2C_CFG_REG      = I2C_DEFAULT_CFG;
  64:Generated_Source\PSoC5/I2C.c ****     I2C_INT_MASK_REG = I2C_DEFAULT_INT_MASK;
  65:Generated_Source\PSoC5/I2C.c **** 
  66:Generated_Source\PSoC5/I2C.c ****     /* Enable interrupt generation in status */
  67:Generated_Source\PSoC5/I2C.c ****     intState = CyEnterCriticalSection();
  68:Generated_Source\PSoC5/I2C.c ****     I2C_INT_ENABLE_REG |= I2C_INTR_ENABLE;
  69:Generated_Source\PSoC5/I2C.c ****     CyExitCriticalSection(intState);
  70:Generated_Source\PSoC5/I2C.c **** 
ARM GAS  C:\Users\legoc\AppData\Local\Temp\ccXGBqqV.s 			page 3


  71:Generated_Source\PSoC5/I2C.c ****     /* Configure bit counter */
  72:Generated_Source\PSoC5/I2C.c ****     #if (I2C_MODE_SLAVE_ENABLED)
  73:Generated_Source\PSoC5/I2C.c ****         I2C_PERIOD_REG = I2C_DEFAULT_PERIOD;
  74:Generated_Source\PSoC5/I2C.c ****     #endif  /* (I2C_MODE_SLAVE_ENABLED) */
  75:Generated_Source\PSoC5/I2C.c **** 
  76:Generated_Source\PSoC5/I2C.c ****     /* Configure clock generator */
  77:Generated_Source\PSoC5/I2C.c ****     #if (I2C_MODE_MASTER_ENABLED)
  78:Generated_Source\PSoC5/I2C.c ****         I2C_MCLK_PRD_REG = I2C_DEFAULT_MCLK_PRD;
  79:Generated_Source\PSoC5/I2C.c ****         I2C_MCLK_CMP_REG = I2C_DEFAULT_MCLK_CMP;
  80:Generated_Source\PSoC5/I2C.c ****     #endif /* (I2C_MODE_MASTER_ENABLED) */
  81:Generated_Source\PSoC5/I2C.c **** #endif /* (I2C_FF_IMPLEMENTED) */
  82:Generated_Source\PSoC5/I2C.c **** 
  83:Generated_Source\PSoC5/I2C.c **** #if (I2C_TIMEOUT_ENABLED)
  84:Generated_Source\PSoC5/I2C.c ****     I2C_TimeoutInit();
  85:Generated_Source\PSoC5/I2C.c **** #endif /* (I2C_TIMEOUT_ENABLED) */
  86:Generated_Source\PSoC5/I2C.c **** 
  87:Generated_Source\PSoC5/I2C.c ****     /* Configure internal interrupt */
  88:Generated_Source\PSoC5/I2C.c ****     CyIntDisable    (I2C_ISR_NUMBER);
  44              		.loc 1 88 0
  45 0006 134B     		ldr	r3, .L3+8
  55:Generated_Source\PSoC5/I2C.c ****     I2C_ADDR_REG = I2C_DEFAULT_ADDR;
  46              		.loc 1 55 0
  47 0008 1348     		ldr	r0, .L3+12
  56:Generated_Source\PSoC5/I2C.c ****     I2C_CLKDIV2_REG = HI8(I2C_DEFAULT_DIVIDE_FACTOR);
  48              		.loc 1 56 0
  49 000a 1449     		ldr	r1, .L3+16
  53:Generated_Source\PSoC5/I2C.c ****     I2C_XCFG_REG = I2C_DEFAULT_XCFG;
  50              		.loc 1 53 0
  51 000c 0227     		movs	r7, #2
  54:Generated_Source\PSoC5/I2C.c ****     I2C_ADDR_REG = I2C_DEFAULT_ADDR;
  52              		.loc 1 54 0
  53 000e 8124     		movs	r4, #129
  57:Generated_Source\PSoC5/I2C.c **** 
  54              		.loc 1 57 0
  55 0010 134E     		ldr	r6, .L3+20
  53:Generated_Source\PSoC5/I2C.c ****     I2C_XCFG_REG = I2C_DEFAULT_XCFG;
  56              		.loc 1 53 0
  57 0012 2F70     		strb	r7, [r5]
  54:Generated_Source\PSoC5/I2C.c ****     I2C_ADDR_REG = I2C_DEFAULT_ADDR;
  58              		.loc 1 54 0
  59 0014 1470     		strb	r4, [r2]
  56:Generated_Source\PSoC5/I2C.c ****     I2C_CLKDIV2_REG = HI8(I2C_DEFAULT_DIVIDE_FACTOR);
  60              		.loc 1 56 0
  61 0016 0F25     		movs	r5, #15
  57:Generated_Source\PSoC5/I2C.c **** 
  62              		.loc 1 57 0
  63 0018 0024     		movs	r4, #0
  64              		.loc 1 88 0
  65 001a 4FF40042 		mov	r2, #32768
  55:Generated_Source\PSoC5/I2C.c ****     I2C_CLKDIV1_REG = LO8(I2C_DEFAULT_DIVIDE_FACTOR);
  66              		.loc 1 55 0
  67 001e 0827     		movs	r7, #8
  68 0020 0770     		strb	r7, [r0]
  56:Generated_Source\PSoC5/I2C.c ****     I2C_CLKDIV2_REG = HI8(I2C_DEFAULT_DIVIDE_FACTOR);
  69              		.loc 1 56 0
  70 0022 0D70     		strb	r5, [r1]
  89:Generated_Source\PSoC5/I2C.c ****     CyIntSetPriority(I2C_ISR_NUMBER, I2C_ISR_PRIORITY);
ARM GAS  C:\Users\legoc\AppData\Local\Temp\ccXGBqqV.s 			page 4


  71              		.loc 1 89 0
  72 0024 2846     		mov	r0, r5
  73 0026 0721     		movs	r1, #7
  57:Generated_Source\PSoC5/I2C.c **** 
  74              		.loc 1 57 0
  75 0028 3470     		strb	r4, [r6]
  88:Generated_Source\PSoC5/I2C.c ****     CyIntSetPriority(I2C_ISR_NUMBER, I2C_ISR_PRIORITY);
  76              		.loc 1 88 0
  77 002a 1A60     		str	r2, [r3]
  78              		.loc 1 89 0
  79 002c FFF7FEFF 		bl	CyIntSetPriority
  80              	.LVL0:
  90:Generated_Source\PSoC5/I2C.c ****     #if (I2C_INTERN_I2C_INTR_HANDLER)
  91:Generated_Source\PSoC5/I2C.c ****         (void) CyIntSetVector(I2C_ISR_NUMBER, &I2C_ISR);
  81              		.loc 1 91 0
  82 0030 2846     		mov	r0, r5
  83 0032 0C49     		ldr	r1, .L3+24
  84 0034 FFF7FEFF 		bl	CyIntSetVector
  85              	.LVL1:
  92:Generated_Source\PSoC5/I2C.c ****     #endif /* (I2C_INTERN_I2C_INTR_HANDLER) */
  93:Generated_Source\PSoC5/I2C.c **** 
  94:Generated_Source\PSoC5/I2C.c ****     /* Set FSM to default state */
  95:Generated_Source\PSoC5/I2C.c ****     I2C_state = I2C_SM_IDLE;
  86              		.loc 1 95 0
  87 0038 0B48     		ldr	r0, .L3+28
  96:Generated_Source\PSoC5/I2C.c **** 
  97:Generated_Source\PSoC5/I2C.c **** #if (I2C_MODE_SLAVE_ENABLED)
  98:Generated_Source\PSoC5/I2C.c ****     /* Clear status and buffers index */
  99:Generated_Source\PSoC5/I2C.c ****     I2C_slStatus = 0u;
 100:Generated_Source\PSoC5/I2C.c ****     I2C_slRdBufIndex = 0u;
 101:Generated_Source\PSoC5/I2C.c ****     I2C_slWrBufIndex = 0u;
 102:Generated_Source\PSoC5/I2C.c **** 
 103:Generated_Source\PSoC5/I2C.c ****     /* Configure matched address */
 104:Generated_Source\PSoC5/I2C.c ****     I2C_SlaveSetAddress(I2C_DEFAULT_ADDR);
 105:Generated_Source\PSoC5/I2C.c **** #endif /* (I2C_MODE_SLAVE_ENABLED) */
 106:Generated_Source\PSoC5/I2C.c **** 
 107:Generated_Source\PSoC5/I2C.c **** #if (I2C_MODE_MASTER_ENABLED)
 108:Generated_Source\PSoC5/I2C.c ****     /* Clear status and buffers index */
 109:Generated_Source\PSoC5/I2C.c ****     I2C_mstrStatus = 0u;
  88              		.loc 1 109 0
  89 003a 0C49     		ldr	r1, .L3+32
 110:Generated_Source\PSoC5/I2C.c ****     I2C_mstrRdBufIndex = 0u;
  90              		.loc 1 110 0
  91 003c 0C4A     		ldr	r2, .L3+36
 111:Generated_Source\PSoC5/I2C.c ****     I2C_mstrWrBufIndex = 0u;
  92              		.loc 1 111 0
  93 003e 0D4B     		ldr	r3, .L3+40
  95:Generated_Source\PSoC5/I2C.c **** 
  94              		.loc 1 95 0
  95 0040 1025     		movs	r5, #16
  96 0042 0570     		strb	r5, [r0]
 109:Generated_Source\PSoC5/I2C.c ****     I2C_mstrRdBufIndex = 0u;
  97              		.loc 1 109 0
  98 0044 0C70     		strb	r4, [r1]
 110:Generated_Source\PSoC5/I2C.c ****     I2C_mstrWrBufIndex = 0u;
  99              		.loc 1 110 0
 100 0046 1470     		strb	r4, [r2]
ARM GAS  C:\Users\legoc\AppData\Local\Temp\ccXGBqqV.s 			page 5


 101              		.loc 1 111 0
 102 0048 1C70     		strb	r4, [r3]
 103 004a F8BD     		pop	{r3, r4, r5, r6, r7, pc}
 104              	.L4:
 105              		.align	2
 106              	.L3:
 107 004c C8490040 		.word	1073760712
 108 0050 D6490040 		.word	1073760726
 109 0054 80E100E0 		.word	-536813184
 110 0058 CA490040 		.word	1073760714
 111 005c DB490040 		.word	1073760731
 112 0060 DC490040 		.word	1073760732
 113 0064 00000000 		.word	I2C_ISR
 114 0068 00000000 		.word	I2C_state
 115 006c 00000000 		.word	I2C_mstrStatus
 116 0070 00000000 		.word	I2C_mstrRdBufIndex
 117 0074 00000000 		.word	I2C_mstrWrBufIndex
 118              		.cfi_endproc
 119              	.LFE0:
 120              		.size	I2C_Init, .-I2C_Init
 121              		.section	.text.I2C_Enable,"ax",%progbits
 122              		.align	2
 123              		.global	I2C_Enable
 124              		.thumb
 125              		.thumb_func
 126              		.type	I2C_Enable, %function
 127              	I2C_Enable:
 128              	.LFB1:
 112:Generated_Source\PSoC5/I2C.c **** #endif /* (I2C_MODE_MASTER_ENABLED) */
 113:Generated_Source\PSoC5/I2C.c **** }
 114:Generated_Source\PSoC5/I2C.c **** 
 115:Generated_Source\PSoC5/I2C.c **** 
 116:Generated_Source\PSoC5/I2C.c **** /*******************************************************************************
 117:Generated_Source\PSoC5/I2C.c **** * Function Name: I2C_Enable
 118:Generated_Source\PSoC5/I2C.c **** ********************************************************************************
 119:Generated_Source\PSoC5/I2C.c **** *
 120:Generated_Source\PSoC5/I2C.c **** * Summary:
 121:Generated_Source\PSoC5/I2C.c **** *  Enables I2C operations.
 122:Generated_Source\PSoC5/I2C.c **** *
 123:Generated_Source\PSoC5/I2C.c **** * Parameters:
 124:Generated_Source\PSoC5/I2C.c **** *  None.
 125:Generated_Source\PSoC5/I2C.c **** *
 126:Generated_Source\PSoC5/I2C.c **** * Return:
 127:Generated_Source\PSoC5/I2C.c **** *  None.
 128:Generated_Source\PSoC5/I2C.c **** *
 129:Generated_Source\PSoC5/I2C.c **** * Global variables:
 130:Generated_Source\PSoC5/I2C.c **** *  None.
 131:Generated_Source\PSoC5/I2C.c **** *
 132:Generated_Source\PSoC5/I2C.c **** *******************************************************************************/
 133:Generated_Source\PSoC5/I2C.c **** void I2C_Enable(void) 
 134:Generated_Source\PSoC5/I2C.c **** {
 129              		.loc 1 134 0
 130              		.cfi_startproc
 131              		@ args = 0, pretend = 0, frame = 0
 132              		@ frame_needed = 0, uses_anonymous_args = 0
 133 0000 08B5     		push	{r3, lr}
 134              		.cfi_def_cfa_offset 8
ARM GAS  C:\Users\legoc\AppData\Local\Temp\ccXGBqqV.s 			page 6


 135              		.cfi_offset 3, -8
 136              		.cfi_offset 14, -4
 135:Generated_Source\PSoC5/I2C.c **** #if (I2C_FF_IMPLEMENTED)
 136:Generated_Source\PSoC5/I2C.c ****     uint8 intState;
 137:Generated_Source\PSoC5/I2C.c **** 
 138:Generated_Source\PSoC5/I2C.c ****     /* Enable power to block */
 139:Generated_Source\PSoC5/I2C.c ****     intState = CyEnterCriticalSection();
 137              		.loc 1 139 0
 138 0002 FFF7FEFF 		bl	CyEnterCriticalSection
 139              	.LVL2:
 140:Generated_Source\PSoC5/I2C.c ****     I2C_ACT_PWRMGR_REG  |= I2C_ACT_PWR_EN;
 140              		.loc 1 140 0
 141 0006 0749     		ldr	r1, .L7
 141:Generated_Source\PSoC5/I2C.c ****     I2C_STBY_PWRMGR_REG |= I2C_STBY_PWR_EN;
 142              		.loc 1 141 0
 143 0008 074A     		ldr	r2, .L7+4
 140:Generated_Source\PSoC5/I2C.c ****     I2C_ACT_PWRMGR_REG  |= I2C_ACT_PWR_EN;
 144              		.loc 1 140 0
 145 000a 0B78     		ldrb	r3, [r1]	@ zero_extendqisi2
 146 000c 43F00403 		orr	r3, r3, #4
 147 0010 0B70     		strb	r3, [r1]
 148              		.loc 1 141 0
 149 0012 1378     		ldrb	r3, [r2]	@ zero_extendqisi2
 150 0014 43F00403 		orr	r3, r3, #4
 151 0018 1370     		strb	r3, [r2]
 142:Generated_Source\PSoC5/I2C.c ****     CyExitCriticalSection(intState);
 143:Generated_Source\PSoC5/I2C.c **** #else
 144:Generated_Source\PSoC5/I2C.c ****     #if (I2C_MODE_SLAVE_ENABLED)
 145:Generated_Source\PSoC5/I2C.c ****         /* Enable bit counter */
 146:Generated_Source\PSoC5/I2C.c ****         uint8 intState = CyEnterCriticalSection();
 147:Generated_Source\PSoC5/I2C.c ****         I2C_COUNTER_AUX_CTL_REG |= I2C_CNT7_ENABLE;
 148:Generated_Source\PSoC5/I2C.c ****         CyExitCriticalSection(intState);
 149:Generated_Source\PSoC5/I2C.c ****     #endif /* (I2C_MODE_SLAVE_ENABLED) */
 150:Generated_Source\PSoC5/I2C.c **** 
 151:Generated_Source\PSoC5/I2C.c ****     /* Enable slave or master bits */
 152:Generated_Source\PSoC5/I2C.c ****     I2C_CFG_REG |= I2C_ENABLE_MS;
 153:Generated_Source\PSoC5/I2C.c **** #endif /* (I2C_FF_IMPLEMENTED) */
 154:Generated_Source\PSoC5/I2C.c **** 
 155:Generated_Source\PSoC5/I2C.c **** #if (I2C_TIMEOUT_ENABLED)
 156:Generated_Source\PSoC5/I2C.c ****     I2C_TimeoutEnable();
 157:Generated_Source\PSoC5/I2C.c **** #endif /* (I2C_TIMEOUT_ENABLED) */
 158:Generated_Source\PSoC5/I2C.c **** }
 152              		.loc 1 158 0
 153 001a BDE80840 		pop	{r3, lr}
 154              		.cfi_restore 14
 155              		.cfi_restore 3
 156              		.cfi_def_cfa_offset 0
 142:Generated_Source\PSoC5/I2C.c ****     CyExitCriticalSection(intState);
 157              		.loc 1 142 0
 158 001e FFF7FEBF 		b	CyExitCriticalSection
 159              	.LVL3:
 160              	.L8:
 161 0022 00BF     		.align	2
 162              	.L7:
 163 0024 A5430040 		.word	1073759141
 164 0028 B5430040 		.word	1073759157
 165              		.cfi_endproc
ARM GAS  C:\Users\legoc\AppData\Local\Temp\ccXGBqqV.s 			page 7


 166              	.LFE1:
 167              		.size	I2C_Enable, .-I2C_Enable
 168              		.section	.text.I2C_Start,"ax",%progbits
 169              		.align	2
 170              		.global	I2C_Start
 171              		.thumb
 172              		.thumb_func
 173              		.type	I2C_Start, %function
 174              	I2C_Start:
 175              	.LFB2:
 159:Generated_Source\PSoC5/I2C.c **** 
 160:Generated_Source\PSoC5/I2C.c **** 
 161:Generated_Source\PSoC5/I2C.c **** /*******************************************************************************
 162:Generated_Source\PSoC5/I2C.c **** * Function Name: I2C_Start
 163:Generated_Source\PSoC5/I2C.c **** ********************************************************************************
 164:Generated_Source\PSoC5/I2C.c **** *
 165:Generated_Source\PSoC5/I2C.c **** * Summary:
 166:Generated_Source\PSoC5/I2C.c **** *  Starts the I2C hardware. Enables Active mode power template bits or clock
 167:Generated_Source\PSoC5/I2C.c **** *  gating as appropriate. It is required to be executed before I2C bus
 168:Generated_Source\PSoC5/I2C.c **** *  operation.
 169:Generated_Source\PSoC5/I2C.c **** *
 170:Generated_Source\PSoC5/I2C.c **** * Parameters:
 171:Generated_Source\PSoC5/I2C.c **** *  None.
 172:Generated_Source\PSoC5/I2C.c **** *
 173:Generated_Source\PSoC5/I2C.c **** * Return:
 174:Generated_Source\PSoC5/I2C.c **** *  None.
 175:Generated_Source\PSoC5/I2C.c **** *
 176:Generated_Source\PSoC5/I2C.c **** * Side Effects:
 177:Generated_Source\PSoC5/I2C.c **** *  This component automatically enables its interrupt.  If I2C is enabled !
 178:Generated_Source\PSoC5/I2C.c **** *  without the interrupt enabled, it can lock up the I2C bus.
 179:Generated_Source\PSoC5/I2C.c **** *
 180:Generated_Source\PSoC5/I2C.c **** * Global variables:
 181:Generated_Source\PSoC5/I2C.c **** *  I2C_initVar - This variable is used to check the initial
 182:Generated_Source\PSoC5/I2C.c **** *                             configuration, modified on the first
 183:Generated_Source\PSoC5/I2C.c **** *                             function call.
 184:Generated_Source\PSoC5/I2C.c **** *
 185:Generated_Source\PSoC5/I2C.c **** * Reentrant:
 186:Generated_Source\PSoC5/I2C.c **** *  No.
 187:Generated_Source\PSoC5/I2C.c **** *
 188:Generated_Source\PSoC5/I2C.c **** *******************************************************************************/
 189:Generated_Source\PSoC5/I2C.c **** void I2C_Start(void) 
 190:Generated_Source\PSoC5/I2C.c **** {
 176              		.loc 1 190 0
 177              		.cfi_startproc
 178              		@ args = 0, pretend = 0, frame = 0
 179              		@ frame_needed = 0, uses_anonymous_args = 0
 180 0000 F8B5     		push	{r3, r4, r5, r6, r7, lr}
 181              		.cfi_def_cfa_offset 24
 182              		.cfi_offset 3, -24
 183              		.cfi_offset 4, -20
 184              		.cfi_offset 5, -16
 185              		.cfi_offset 6, -12
 186              		.cfi_offset 7, -8
 187              		.cfi_offset 14, -4
 191:Generated_Source\PSoC5/I2C.c ****     if (0u == I2C_initVar)
 188              		.loc 1 191 0
 189 0002 1D4D     		ldr	r5, .L13
ARM GAS  C:\Users\legoc\AppData\Local\Temp\ccXGBqqV.s 			page 8


 190 0004 2C78     		ldrb	r4, [r5]	@ zero_extendqisi2
 191 0006 24BB     		cbnz	r4, .L10
 192              	.LBB6:
 193              	.LBB7:
  53:Generated_Source\PSoC5/I2C.c ****     I2C_XCFG_REG = I2C_DEFAULT_XCFG;
 194              		.loc 1 53 0
 195 0008 1C4B     		ldr	r3, .L13+4
  54:Generated_Source\PSoC5/I2C.c ****     I2C_ADDR_REG = I2C_DEFAULT_ADDR;
 196              		.loc 1 54 0
 197 000a 1D4E     		ldr	r6, .L13+8
  53:Generated_Source\PSoC5/I2C.c ****     I2C_XCFG_REG = I2C_DEFAULT_XCFG;
 198              		.loc 1 53 0
 199 000c 0227     		movs	r7, #2
 200 000e 1F70     		strb	r7, [r3]
  55:Generated_Source\PSoC5/I2C.c ****     I2C_CLKDIV1_REG = LO8(I2C_DEFAULT_DIVIDE_FACTOR);
 201              		.loc 1 55 0
 202 0010 1C4A     		ldr	r2, .L13+12
  54:Generated_Source\PSoC5/I2C.c ****     I2C_ADDR_REG = I2C_DEFAULT_ADDR;
 203              		.loc 1 54 0
 204 0012 8127     		movs	r7, #129
 205 0014 3770     		strb	r7, [r6]
  88:Generated_Source\PSoC5/I2C.c ****     CyIntSetPriority(I2C_ISR_NUMBER, I2C_ISR_PRIORITY);
 206              		.loc 1 88 0
 207 0016 1C4B     		ldr	r3, .L13+16
  56:Generated_Source\PSoC5/I2C.c ****     I2C_CLKDIV2_REG = HI8(I2C_DEFAULT_DIVIDE_FACTOR);
 208              		.loc 1 56 0
 209 0018 1C48     		ldr	r0, .L13+20
  57:Generated_Source\PSoC5/I2C.c **** 
 210              		.loc 1 57 0
 211 001a 1D49     		ldr	r1, .L13+24
  55:Generated_Source\PSoC5/I2C.c ****     I2C_CLKDIV1_REG = LO8(I2C_DEFAULT_DIVIDE_FACTOR);
 212              		.loc 1 55 0
 213 001c 0827     		movs	r7, #8
 214 001e 1770     		strb	r7, [r2]
  56:Generated_Source\PSoC5/I2C.c ****     I2C_CLKDIV2_REG = HI8(I2C_DEFAULT_DIVIDE_FACTOR);
 215              		.loc 1 56 0
 216 0020 0F26     		movs	r6, #15
  88:Generated_Source\PSoC5/I2C.c ****     CyIntSetPriority(I2C_ISR_NUMBER, I2C_ISR_PRIORITY);
 217              		.loc 1 88 0
 218 0022 4FF40042 		mov	r2, #32768
  56:Generated_Source\PSoC5/I2C.c ****     I2C_CLKDIV2_REG = HI8(I2C_DEFAULT_DIVIDE_FACTOR);
 219              		.loc 1 56 0
 220 0026 0670     		strb	r6, [r0]
  89:Generated_Source\PSoC5/I2C.c ****     #if (I2C_INTERN_I2C_INTR_HANDLER)
 221              		.loc 1 89 0
 222 0028 3046     		mov	r0, r6
  57:Generated_Source\PSoC5/I2C.c **** 
 223              		.loc 1 57 0
 224 002a 0C70     		strb	r4, [r1]
  88:Generated_Source\PSoC5/I2C.c ****     CyIntSetPriority(I2C_ISR_NUMBER, I2C_ISR_PRIORITY);
 225              		.loc 1 88 0
 226 002c 1A60     		str	r2, [r3]
  89:Generated_Source\PSoC5/I2C.c ****     #if (I2C_INTERN_I2C_INTR_HANDLER)
 227              		.loc 1 89 0
 228 002e 0721     		movs	r1, #7
 229 0030 FFF7FEFF 		bl	CyIntSetPriority
 230              	.LVL4:
ARM GAS  C:\Users\legoc\AppData\Local\Temp\ccXGBqqV.s 			page 9


  91:Generated_Source\PSoC5/I2C.c ****     #endif /* (I2C_INTERN_I2C_INTR_HANDLER) */
 231              		.loc 1 91 0
 232 0034 3046     		mov	r0, r6
 233 0036 1749     		ldr	r1, .L13+28
 234 0038 FFF7FEFF 		bl	CyIntSetVector
 235              	.LVL5:
  95:Generated_Source\PSoC5/I2C.c **** 
 236              		.loc 1 95 0
 237 003c 164E     		ldr	r6, .L13+32
 109:Generated_Source\PSoC5/I2C.c ****     I2C_mstrRdBufIndex = 0u;
 238              		.loc 1 109 0
 239 003e 1749     		ldr	r1, .L13+36
 110:Generated_Source\PSoC5/I2C.c ****     I2C_mstrWrBufIndex = 0u;
 240              		.loc 1 110 0
 241 0040 174A     		ldr	r2, .L13+40
 111:Generated_Source\PSoC5/I2C.c **** #endif /* (I2C_MODE_MASTER_ENABLED) */
 242              		.loc 1 111 0
 243 0042 184B     		ldr	r3, .L13+44
  95:Generated_Source\PSoC5/I2C.c **** 
 244              		.loc 1 95 0
 245 0044 1027     		movs	r7, #16
 246              	.LBE7:
 247              	.LBE6:
 192:Generated_Source\PSoC5/I2C.c ****     {
 193:Generated_Source\PSoC5/I2C.c ****         I2C_Init();
 194:Generated_Source\PSoC5/I2C.c ****         I2C_initVar = 1u; /* Component initialized */
 248              		.loc 1 194 0
 249 0046 0120     		movs	r0, #1
 250              	.LBB10:
 251              	.LBB8:
  95:Generated_Source\PSoC5/I2C.c **** 
 252              		.loc 1 95 0
 253 0048 3770     		strb	r7, [r6]
 254              	.LBE8:
 255              	.LBE10:
 256              		.loc 1 194 0
 257 004a 2870     		strb	r0, [r5]
 258              	.LBB11:
 259              	.LBB9:
 109:Generated_Source\PSoC5/I2C.c ****     I2C_mstrRdBufIndex = 0u;
 260              		.loc 1 109 0
 261 004c 0C70     		strb	r4, [r1]
 110:Generated_Source\PSoC5/I2C.c ****     I2C_mstrWrBufIndex = 0u;
 262              		.loc 1 110 0
 263 004e 1470     		strb	r4, [r2]
 111:Generated_Source\PSoC5/I2C.c **** #endif /* (I2C_MODE_MASTER_ENABLED) */
 264              		.loc 1 111 0
 265 0050 1C70     		strb	r4, [r3]
 266              	.L10:
 267              	.LBE9:
 268              	.LBE11:
 269              	.LBB12:
 270              	.LBB13:
 139:Generated_Source\PSoC5/I2C.c ****     I2C_ACT_PWRMGR_REG  |= I2C_ACT_PWR_EN;
 271              		.loc 1 139 0
 272 0052 FFF7FEFF 		bl	CyEnterCriticalSection
 273              	.LVL6:
ARM GAS  C:\Users\legoc\AppData\Local\Temp\ccXGBqqV.s 			page 10


 140:Generated_Source\PSoC5/I2C.c ****     I2C_STBY_PWRMGR_REG |= I2C_STBY_PWR_EN;
 274              		.loc 1 140 0
 275 0056 1449     		ldr	r1, .L13+48
 141:Generated_Source\PSoC5/I2C.c ****     CyExitCriticalSection(intState);
 276              		.loc 1 141 0
 277 0058 144A     		ldr	r2, .L13+52
 140:Generated_Source\PSoC5/I2C.c ****     I2C_STBY_PWRMGR_REG |= I2C_STBY_PWR_EN;
 278              		.loc 1 140 0
 279 005a 0B78     		ldrb	r3, [r1]	@ zero_extendqisi2
 280 005c 43F00403 		orr	r3, r3, #4
 281 0060 0B70     		strb	r3, [r1]
 141:Generated_Source\PSoC5/I2C.c ****     CyExitCriticalSection(intState);
 282              		.loc 1 141 0
 283 0062 1378     		ldrb	r3, [r2]	@ zero_extendqisi2
 284 0064 43F00403 		orr	r3, r3, #4
 285 0068 1370     		strb	r3, [r2]
 142:Generated_Source\PSoC5/I2C.c **** #else
 286              		.loc 1 142 0
 287 006a FFF7FEFF 		bl	CyExitCriticalSection
 288              	.LVL7:
 289              	.LBE13:
 290              	.LBE12:
 195:Generated_Source\PSoC5/I2C.c ****     }
 196:Generated_Source\PSoC5/I2C.c **** 
 197:Generated_Source\PSoC5/I2C.c ****     I2C_Enable();
 198:Generated_Source\PSoC5/I2C.c ****     I2C_EnableInt();
 291              		.loc 1 198 0
 292 006e 104B     		ldr	r3, .L13+56
 293 0070 4FF40042 		mov	r2, #32768
 294 0074 1A60     		str	r2, [r3]
 295 0076 F8BD     		pop	{r3, r4, r5, r6, r7, pc}
 296              	.L14:
 297              		.align	2
 298              	.L13:
 299 0078 00000000 		.word	.LANCHOR0
 300 007c D6490040 		.word	1073760726
 301 0080 C8490040 		.word	1073760712
 302 0084 CA490040 		.word	1073760714
 303 0088 80E100E0 		.word	-536813184
 304 008c DB490040 		.word	1073760731
 305 0090 DC490040 		.word	1073760732
 306 0094 00000000 		.word	I2C_ISR
 307 0098 00000000 		.word	I2C_state
 308 009c 00000000 		.word	I2C_mstrStatus
 309 00a0 00000000 		.word	I2C_mstrRdBufIndex
 310 00a4 00000000 		.word	I2C_mstrWrBufIndex
 311 00a8 A5430040 		.word	1073759141
 312 00ac B5430040 		.word	1073759157
 313 00b0 00E100E0 		.word	-536813312
 314              		.cfi_endproc
 315              	.LFE2:
 316              		.size	I2C_Start, .-I2C_Start
 317              		.section	.text.I2C_Stop,"ax",%progbits
 318              		.align	2
 319              		.global	I2C_Stop
 320              		.thumb
 321              		.thumb_func
ARM GAS  C:\Users\legoc\AppData\Local\Temp\ccXGBqqV.s 			page 11


 322              		.type	I2C_Stop, %function
 323              	I2C_Stop:
 324              	.LFB3:
 199:Generated_Source\PSoC5/I2C.c **** }
 200:Generated_Source\PSoC5/I2C.c **** 
 201:Generated_Source\PSoC5/I2C.c **** 
 202:Generated_Source\PSoC5/I2C.c **** /*******************************************************************************
 203:Generated_Source\PSoC5/I2C.c **** * Function Name: I2C_Stop
 204:Generated_Source\PSoC5/I2C.c **** ********************************************************************************
 205:Generated_Source\PSoC5/I2C.c **** *
 206:Generated_Source\PSoC5/I2C.c **** * Summary:
 207:Generated_Source\PSoC5/I2C.c **** *  Disables I2C hardware and disables I2C interrupt. Disables Active mode power
 208:Generated_Source\PSoC5/I2C.c **** *  template bits or clock gating as appropriate.
 209:Generated_Source\PSoC5/I2C.c **** *
 210:Generated_Source\PSoC5/I2C.c **** * Parameters:
 211:Generated_Source\PSoC5/I2C.c **** *  None.
 212:Generated_Source\PSoC5/I2C.c **** *
 213:Generated_Source\PSoC5/I2C.c **** * Return:
 214:Generated_Source\PSoC5/I2C.c **** *  None.
 215:Generated_Source\PSoC5/I2C.c **** *
 216:Generated_Source\PSoC5/I2C.c **** *******************************************************************************/
 217:Generated_Source\PSoC5/I2C.c **** void I2C_Stop(void) 
 218:Generated_Source\PSoC5/I2C.c **** {
 325              		.loc 1 218 0
 326              		.cfi_startproc
 327              		@ args = 0, pretend = 0, frame = 0
 328              		@ frame_needed = 0, uses_anonymous_args = 0
 329 0000 2DE9F843 		push	{r3, r4, r5, r6, r7, r8, r9, lr}
 330              		.cfi_def_cfa_offset 32
 331              		.cfi_offset 3, -32
 332              		.cfi_offset 4, -28
 333              		.cfi_offset 5, -24
 334              		.cfi_offset 6, -20
 335              		.cfi_offset 7, -16
 336              		.cfi_offset 8, -12
 337              		.cfi_offset 9, -8
 338              		.cfi_offset 14, -4
 219:Generated_Source\PSoC5/I2C.c ****     I2C_DisableInt();
 339              		.loc 1 219 0
 340 0004 234B     		ldr	r3, .L17
 341              	.LBB14:
 220:Generated_Source\PSoC5/I2C.c **** 
 221:Generated_Source\PSoC5/I2C.c **** #if (I2C_TIMEOUT_ENABLED)
 222:Generated_Source\PSoC5/I2C.c ****     I2C_TimeoutStop();
 223:Generated_Source\PSoC5/I2C.c **** #endif  /* End (I2C_TIMEOUT_ENABLED) */
 224:Generated_Source\PSoC5/I2C.c **** 
 225:Generated_Source\PSoC5/I2C.c **** #if (I2C_FF_IMPLEMENTED)
 226:Generated_Source\PSoC5/I2C.c ****     {
 227:Generated_Source\PSoC5/I2C.c ****         uint8 intState;
 228:Generated_Source\PSoC5/I2C.c ****         uint16 blockResetCycles;
 229:Generated_Source\PSoC5/I2C.c **** 
 230:Generated_Source\PSoC5/I2C.c ****         /* Store registers effected by block disable */
 231:Generated_Source\PSoC5/I2C.c ****         I2C_backup.addr    = I2C_ADDR_REG;
 342              		.loc 1 231 0
 343 0006 DFF8B080 		ldr	r8, .L17+36
 232:Generated_Source\PSoC5/I2C.c ****         I2C_backup.clkDiv1 = I2C_CLKDIV1_REG;
 344              		.loc 1 232 0
ARM GAS  C:\Users\legoc\AppData\Local\Temp\ccXGBqqV.s 			page 12


 345 000a 234F     		ldr	r7, .L17+4
 233:Generated_Source\PSoC5/I2C.c ****         I2C_backup.clkDiv2 = I2C_CLKDIV2_REG;
 346              		.loc 1 233 0
 347 000c 234E     		ldr	r6, .L17+8
 348              	.LBE14:
 219:Generated_Source\PSoC5/I2C.c **** 
 349              		.loc 1 219 0
 350 000e 4FF40049 		mov	r9, #32768
 351 0012 C3F80090 		str	r9, [r3]
 352              	.LBB15:
 231:Generated_Source\PSoC5/I2C.c ****         I2C_backup.clkDiv1 = I2C_CLKDIV1_REG;
 353              		.loc 1 231 0
 354 0016 98F800E0 		ldrb	lr, [r8]	@ zero_extendqisi2
 234:Generated_Source\PSoC5/I2C.c **** 
 235:Generated_Source\PSoC5/I2C.c ****         /* Calculate number of cycles to reset block */
 236:Generated_Source\PSoC5/I2C.c ****         blockResetCycles = ((uint16) ((uint16) I2C_CLKDIV2_REG << 8u) | I2C_CLKDIV1_REG) + 1u;
 237:Generated_Source\PSoC5/I2C.c **** 
 238:Generated_Source\PSoC5/I2C.c ****         /* Disable block */
 239:Generated_Source\PSoC5/I2C.c ****         I2C_CFG_REG &= (uint8) ~I2C_CFG_EN_SLAVE;
 355              		.loc 1 239 0
 356 001a 214D     		ldr	r5, .L17+12
 232:Generated_Source\PSoC5/I2C.c ****         I2C_backup.clkDiv2 = I2C_CLKDIV2_REG;
 357              		.loc 1 232 0
 358 001c 3978     		ldrb	r1, [r7]	@ zero_extendqisi2
 233:Generated_Source\PSoC5/I2C.c **** 
 359              		.loc 1 233 0
 360 001e 3278     		ldrb	r2, [r6]	@ zero_extendqisi2
 236:Generated_Source\PSoC5/I2C.c **** 
 361              		.loc 1 236 0
 362 0020 3078     		ldrb	r0, [r6]	@ zero_extendqisi2
 363 0022 3B78     		ldrb	r3, [r7]	@ zero_extendqisi2
 364              	.LVL8:
 231:Generated_Source\PSoC5/I2C.c ****         I2C_backup.clkDiv1 = I2C_CLKDIV1_REG;
 365              		.loc 1 231 0
 366 0024 1F4C     		ldr	r4, .L17+16
 240:Generated_Source\PSoC5/I2C.c ****         /* Wait for block reset before disable power */
 241:Generated_Source\PSoC5/I2C.c ****         CyDelayCycles((uint32) blockResetCycles);
 367              		.loc 1 241 0
 368 0026 43EA0020 		orr	r0, r3, r0, lsl #8
 369              	.LVL9:
 239:Generated_Source\PSoC5/I2C.c ****         /* Wait for block reset before disable power */
 370              		.loc 1 239 0
 371 002a 2B78     		ldrb	r3, [r5]	@ zero_extendqisi2
 372              		.loc 1 241 0
 373 002c 0130     		adds	r0, r0, #1
 239:Generated_Source\PSoC5/I2C.c ****         /* Wait for block reset before disable power */
 374              		.loc 1 239 0
 375 002e 03F0FE03 		and	r3, r3, #254
 376 0032 2B70     		strb	r3, [r5]
 377              		.loc 1 241 0
 378 0034 80B2     		uxth	r0, r0
 231:Generated_Source\PSoC5/I2C.c ****         I2C_backup.clkDiv1 = I2C_CLKDIV1_REG;
 379              		.loc 1 231 0
 380 0036 84F803E0 		strb	lr, [r4, #3]
 232:Generated_Source\PSoC5/I2C.c ****         I2C_backup.clkDiv2 = I2C_CLKDIV2_REG;
 381              		.loc 1 232 0
 382 003a 2171     		strb	r1, [r4, #4]
ARM GAS  C:\Users\legoc\AppData\Local\Temp\ccXGBqqV.s 			page 13


 233:Generated_Source\PSoC5/I2C.c **** 
 383              		.loc 1 233 0
 384 003c 6271     		strb	r2, [r4, #5]
 385              		.loc 1 241 0
 386 003e FFF7FEFF 		bl	CyDelayCycles
 387              	.LVL10:
 242:Generated_Source\PSoC5/I2C.c **** 
 243:Generated_Source\PSoC5/I2C.c ****         /* Disable power to block */
 244:Generated_Source\PSoC5/I2C.c ****         intState = CyEnterCriticalSection();
 388              		.loc 1 244 0
 389 0042 FFF7FEFF 		bl	CyEnterCriticalSection
 390              	.LVL11:
 245:Generated_Source\PSoC5/I2C.c ****         I2C_ACT_PWRMGR_REG  &= (uint8) ~I2C_ACT_PWR_EN;
 391              		.loc 1 245 0
 392 0046 1849     		ldr	r1, .L17+20
 246:Generated_Source\PSoC5/I2C.c ****         I2C_STBY_PWRMGR_REG &= (uint8) ~I2C_STBY_PWR_EN;
 393              		.loc 1 246 0
 394 0048 184A     		ldr	r2, .L17+24
 245:Generated_Source\PSoC5/I2C.c ****         I2C_ACT_PWRMGR_REG  &= (uint8) ~I2C_ACT_PWR_EN;
 395              		.loc 1 245 0
 396 004a 0B78     		ldrb	r3, [r1]	@ zero_extendqisi2
 397 004c 03F0FB03 		and	r3, r3, #251
 398 0050 0B70     		strb	r3, [r1]
 399              		.loc 1 246 0
 400 0052 1378     		ldrb	r3, [r2]	@ zero_extendqisi2
 401 0054 03F0FB03 		and	r3, r3, #251
 402 0058 1370     		strb	r3, [r2]
 247:Generated_Source\PSoC5/I2C.c ****         CyExitCriticalSection(intState);
 403              		.loc 1 247 0
 404 005a FFF7FEFF 		bl	CyExitCriticalSection
 405              	.LVL12:
 248:Generated_Source\PSoC5/I2C.c **** 
 249:Generated_Source\PSoC5/I2C.c ****         /* Enable block */
 250:Generated_Source\PSoC5/I2C.c ****         I2C_CFG_REG |= (uint8) I2C_ENABLE_MS;
 406              		.loc 1 250 0
 407 005e 2B78     		ldrb	r3, [r5]	@ zero_extendqisi2
 251:Generated_Source\PSoC5/I2C.c **** 
 252:Generated_Source\PSoC5/I2C.c ****         /* Restore registers effected by block disable. Ticket ID#198004 */
 253:Generated_Source\PSoC5/I2C.c ****         I2C_ADDR_REG    = I2C_backup.addr;
 254:Generated_Source\PSoC5/I2C.c ****         I2C_ADDR_REG    = I2C_backup.addr;
 255:Generated_Source\PSoC5/I2C.c ****         I2C_CLKDIV1_REG = I2C_backup.clkDiv1;
 408              		.loc 1 255 0
 409 0060 2179     		ldrb	r1, [r4, #4]	@ zero_extendqisi2
 256:Generated_Source\PSoC5/I2C.c ****         I2C_CLKDIV2_REG = I2C_backup.clkDiv2;
 410              		.loc 1 256 0
 411 0062 6279     		ldrb	r2, [r4, #5]	@ zero_extendqisi2
 253:Generated_Source\PSoC5/I2C.c ****         I2C_ADDR_REG    = I2C_backup.addr;
 412              		.loc 1 253 0
 413 0064 94F803E0 		ldrb	lr, [r4, #3]	@ zero_extendqisi2
 250:Generated_Source\PSoC5/I2C.c **** 
 414              		.loc 1 250 0
 415 0068 43F00203 		orr	r3, r3, #2
 416 006c 2B70     		strb	r3, [r5]
 253:Generated_Source\PSoC5/I2C.c ****         I2C_ADDR_REG    = I2C_backup.addr;
 417              		.loc 1 253 0
 418 006e 88F800E0 		strb	lr, [r8]
 254:Generated_Source\PSoC5/I2C.c ****         I2C_CLKDIV1_REG = I2C_backup.clkDiv1;
ARM GAS  C:\Users\legoc\AppData\Local\Temp\ccXGBqqV.s 			page 14


 419              		.loc 1 254 0
 420 0072 88F800E0 		strb	lr, [r8]
 255:Generated_Source\PSoC5/I2C.c ****         I2C_CLKDIV2_REG = I2C_backup.clkDiv2;
 421              		.loc 1 255 0
 422 0076 3970     		strb	r1, [r7]
 423              		.loc 1 256 0
 424 0078 3270     		strb	r2, [r6]
 425              	.LBE15:
 257:Generated_Source\PSoC5/I2C.c ****     }
 258:Generated_Source\PSoC5/I2C.c **** #else
 259:Generated_Source\PSoC5/I2C.c **** 
 260:Generated_Source\PSoC5/I2C.c ****     /* Disable slave or master bits */
 261:Generated_Source\PSoC5/I2C.c ****     I2C_CFG_REG &= (uint8) ~I2C_ENABLE_MS;
 262:Generated_Source\PSoC5/I2C.c **** 
 263:Generated_Source\PSoC5/I2C.c **** #if (I2C_MODE_SLAVE_ENABLED)
 264:Generated_Source\PSoC5/I2C.c ****     {
 265:Generated_Source\PSoC5/I2C.c ****         /* Disable bit counter */
 266:Generated_Source\PSoC5/I2C.c ****         uint8 intState = CyEnterCriticalSection();
 267:Generated_Source\PSoC5/I2C.c ****         I2C_COUNTER_AUX_CTL_REG &= (uint8) ~I2C_CNT7_ENABLE;
 268:Generated_Source\PSoC5/I2C.c ****         CyExitCriticalSection(intState);
 269:Generated_Source\PSoC5/I2C.c ****     }
 270:Generated_Source\PSoC5/I2C.c **** #endif /* (I2C_MODE_SLAVE_ENABLED) */
 271:Generated_Source\PSoC5/I2C.c **** 
 272:Generated_Source\PSoC5/I2C.c ****     /* Clear interrupt source register */
 273:Generated_Source\PSoC5/I2C.c ****     (void) I2C_CSR_REG;
 274:Generated_Source\PSoC5/I2C.c **** #endif /* (I2C_FF_IMPLEMENTED) */
 275:Generated_Source\PSoC5/I2C.c **** 
 276:Generated_Source\PSoC5/I2C.c ****     /* Disable interrupt on stop (enabled by write transaction) */
 277:Generated_Source\PSoC5/I2C.c ****     I2C_DISABLE_INT_ON_STOP;
 426              		.loc 1 277 0
 427 007a 2B78     		ldrb	r3, [r5]	@ zero_extendqisi2
 278:Generated_Source\PSoC5/I2C.c ****     I2C_ClearPendingInt();
 428              		.loc 1 278 0
 429 007c 0C48     		ldr	r0, .L17+28
 279:Generated_Source\PSoC5/I2C.c **** 
 280:Generated_Source\PSoC5/I2C.c ****     /* Reset FSM to default state */
 281:Generated_Source\PSoC5/I2C.c ****     I2C_state = I2C_SM_IDLE;
 430              		.loc 1 281 0
 431 007e 0D4A     		ldr	r2, .L17+32
 277:Generated_Source\PSoC5/I2C.c ****     I2C_ClearPendingInt();
 432              		.loc 1 277 0
 433 0080 03F0EF03 		and	r3, r3, #239
 434              		.loc 1 281 0
 435 0084 1021     		movs	r1, #16
 277:Generated_Source\PSoC5/I2C.c ****     I2C_ClearPendingInt();
 436              		.loc 1 277 0
 437 0086 2B70     		strb	r3, [r5]
 278:Generated_Source\PSoC5/I2C.c ****     I2C_ClearPendingInt();
 438              		.loc 1 278 0
 439 0088 C0F80090 		str	r9, [r0]
 440              		.loc 1 281 0
 441 008c 1170     		strb	r1, [r2]
 442 008e BDE8F883 		pop	{r3, r4, r5, r6, r7, r8, r9, pc}
 443              	.L18:
 444 0092 00BF     		.align	2
 445              	.L17:
 446 0094 80E100E0 		.word	-536813184
ARM GAS  C:\Users\legoc\AppData\Local\Temp\ccXGBqqV.s 			page 15


 447 0098 DB490040 		.word	1073760731
 448 009c DC490040 		.word	1073760732
 449 00a0 D6490040 		.word	1073760726
 450 00a4 00000000 		.word	I2C_backup
 451 00a8 A5430040 		.word	1073759141
 452 00ac B5430040 		.word	1073759157
 453 00b0 80E200E0 		.word	-536812928
 454 00b4 00000000 		.word	I2C_state
 455 00b8 CA490040 		.word	1073760714
 456              		.cfi_endproc
 457              	.LFE3:
 458              		.size	I2C_Stop, .-I2C_Stop
 459              		.comm	I2C_state,1,1
 460              		.global	I2C_initVar
 461              		.bss
 462              		.set	.LANCHOR0,. + 0
 463              		.type	I2C_initVar, %object
 464              		.size	I2C_initVar, 1
 465              	I2C_initVar:
 466 0000 00       		.space	1
 467              		.text
 468              	.Letext0:
 469              		.file 2 "Generated_Source\\PSoC5\\cytypes.h"
 470              		.file 3 "Generated_Source\\PSoC5\\I2C.h"
 471              		.file 4 "Generated_Source\\PSoC5\\I2C_PVT.h"
 472              		.file 5 "Generated_Source\\PSoC5\\CyLib.h"