ARM GAS  C:\Users\legoc\AppData\Local\Temp\ccTcE57I.s 			page 1


   1              		.syntax unified
   2              		.cpu cortex-m3
   3              		.fpu softvfp
   4              		.eabi_attribute 20, 1
   5              		.eabi_attribute 21, 1
   6              		.eabi_attribute 23, 3
   7              		.eabi_attribute 24, 1
   8              		.eabi_attribute 25, 1
   9              		.eabi_attribute 26, 1
  10              		.eabi_attribute 30, 2
  11              		.eabi_attribute 34, 1
  12              		.eabi_attribute 18, 4
  13              		.thumb
  14              		.syntax unified
  15              		.file	"I2C_MASTER.c"
  16              		.text
  17              	.Ltext0:
  18              		.cfi_sections	.debug_frame
  19              		.section	.text.I2C_MasterWriteBuf,"ax",%progbits
  20              		.align	2
  21              		.global	I2C_MasterWriteBuf
  22              		.thumb
  23              		.thumb_func
  24              		.type	I2C_MasterWriteBuf, %function
  25              	I2C_MasterWriteBuf:
  26              	.LFB0:
  27              		.file 1 "Generated_Source\\PSoC5\\I2C_MASTER.c"
   1:Generated_Source\PSoC5/I2C_MASTER.c **** /*******************************************************************************
   2:Generated_Source\PSoC5/I2C_MASTER.c **** * File Name: I2C_MASTER.c
   3:Generated_Source\PSoC5/I2C_MASTER.c **** * Version 3.50
   4:Generated_Source\PSoC5/I2C_MASTER.c **** *
   5:Generated_Source\PSoC5/I2C_MASTER.c **** * Description:
   6:Generated_Source\PSoC5/I2C_MASTER.c **** *  This file provides the source code of APIs for the I2C component master mode.
   7:Generated_Source\PSoC5/I2C_MASTER.c **** *
   8:Generated_Source\PSoC5/I2C_MASTER.c **** *******************************************************************************
   9:Generated_Source\PSoC5/I2C_MASTER.c **** * Copyright 2012-2015, Cypress Semiconductor Corporation. All rights reserved.
  10:Generated_Source\PSoC5/I2C_MASTER.c **** * You may use this file only in accordance with the license, terms, conditions,
  11:Generated_Source\PSoC5/I2C_MASTER.c **** * disclaimers, and limitations in the end user license agreement accompanying
  12:Generated_Source\PSoC5/I2C_MASTER.c **** * the software package with which this file was provided.
  13:Generated_Source\PSoC5/I2C_MASTER.c **** *******************************************************************************/
  14:Generated_Source\PSoC5/I2C_MASTER.c **** 
  15:Generated_Source\PSoC5/I2C_MASTER.c **** #include "I2C_PVT.h"
  16:Generated_Source\PSoC5/I2C_MASTER.c **** 
  17:Generated_Source\PSoC5/I2C_MASTER.c **** #if(I2C_MODE_MASTER_ENABLED)
  18:Generated_Source\PSoC5/I2C_MASTER.c **** 
  19:Generated_Source\PSoC5/I2C_MASTER.c **** /**********************************
  20:Generated_Source\PSoC5/I2C_MASTER.c **** *      System variables
  21:Generated_Source\PSoC5/I2C_MASTER.c **** **********************************/
  22:Generated_Source\PSoC5/I2C_MASTER.c **** 
  23:Generated_Source\PSoC5/I2C_MASTER.c **** volatile uint8 I2C_mstrStatus;     /* Master Status byte  */
  24:Generated_Source\PSoC5/I2C_MASTER.c **** volatile uint8 I2C_mstrControl;    /* Master Control byte */
  25:Generated_Source\PSoC5/I2C_MASTER.c **** 
  26:Generated_Source\PSoC5/I2C_MASTER.c **** /* Transmit buffer variables */
  27:Generated_Source\PSoC5/I2C_MASTER.c **** volatile uint8 * I2C_mstrRdBufPtr;     /* Pointer to Master Read buffer */
  28:Generated_Source\PSoC5/I2C_MASTER.c **** volatile uint8   I2C_mstrRdBufSize;    /* Master Read buffer size       */
  29:Generated_Source\PSoC5/I2C_MASTER.c **** volatile uint8   I2C_mstrRdBufIndex;   /* Master Read buffer Index      */
  30:Generated_Source\PSoC5/I2C_MASTER.c **** 
ARM GAS  C:\Users\legoc\AppData\Local\Temp\ccTcE57I.s 			page 2


  31:Generated_Source\PSoC5/I2C_MASTER.c **** /* Receive buffer variables */
  32:Generated_Source\PSoC5/I2C_MASTER.c **** volatile uint8 * I2C_mstrWrBufPtr;     /* Pointer to Master Write buffer */
  33:Generated_Source\PSoC5/I2C_MASTER.c **** volatile uint8   I2C_mstrWrBufSize;    /* Master Write buffer size       */
  34:Generated_Source\PSoC5/I2C_MASTER.c **** volatile uint8   I2C_mstrWrBufIndex;   /* Master Write buffer Index      */
  35:Generated_Source\PSoC5/I2C_MASTER.c **** 
  36:Generated_Source\PSoC5/I2C_MASTER.c **** 
  37:Generated_Source\PSoC5/I2C_MASTER.c **** /*******************************************************************************
  38:Generated_Source\PSoC5/I2C_MASTER.c **** * Function Name: I2C_MasterWriteBuf
  39:Generated_Source\PSoC5/I2C_MASTER.c **** ********************************************************************************
  40:Generated_Source\PSoC5/I2C_MASTER.c **** *
  41:Generated_Source\PSoC5/I2C_MASTER.c **** * Summary:
  42:Generated_Source\PSoC5/I2C_MASTER.c **** *  Automatically writes an entire buffer of data to a slave device. Once the
  43:Generated_Source\PSoC5/I2C_MASTER.c **** *  data transfer is initiated by this function, further data transfer is handled
  44:Generated_Source\PSoC5/I2C_MASTER.c **** *  by the included ISR in byte by byte mode.
  45:Generated_Source\PSoC5/I2C_MASTER.c **** *
  46:Generated_Source\PSoC5/I2C_MASTER.c **** * Parameters:
  47:Generated_Source\PSoC5/I2C_MASTER.c **** *  slaveAddr: 7-bit slave address.
  48:Generated_Source\PSoC5/I2C_MASTER.c **** *  xferData:  Pointer to buffer of data to be sent.
  49:Generated_Source\PSoC5/I2C_MASTER.c **** *  cnt:       Size of buffer to send.
  50:Generated_Source\PSoC5/I2C_MASTER.c **** *  mode:      Transfer mode defines: start or restart condition generation at
  51:Generated_Source\PSoC5/I2C_MASTER.c **** *             begin of the transfer and complete the transfer or halt before
  52:Generated_Source\PSoC5/I2C_MASTER.c **** *             generating a stop.
  53:Generated_Source\PSoC5/I2C_MASTER.c **** *
  54:Generated_Source\PSoC5/I2C_MASTER.c **** * Return:
  55:Generated_Source\PSoC5/I2C_MASTER.c **** *  Status error - Zero means no errors.
  56:Generated_Source\PSoC5/I2C_MASTER.c **** *
  57:Generated_Source\PSoC5/I2C_MASTER.c **** * Side Effects:
  58:Generated_Source\PSoC5/I2C_MASTER.c **** *  The included ISR will start a transfer after a start or restart condition is
  59:Generated_Source\PSoC5/I2C_MASTER.c **** *  generated.
  60:Generated_Source\PSoC5/I2C_MASTER.c **** *
  61:Generated_Source\PSoC5/I2C_MASTER.c **** * Global variables:
  62:Generated_Source\PSoC5/I2C_MASTER.c **** *  I2C_mstrStatus  - The global variable used to store a current
  63:Generated_Source\PSoC5/I2C_MASTER.c **** *                                 status of the I2C Master.
  64:Generated_Source\PSoC5/I2C_MASTER.c **** *  I2C_state       - The global variable used to store a current
  65:Generated_Source\PSoC5/I2C_MASTER.c **** *                                 state of the software FSM.
  66:Generated_Source\PSoC5/I2C_MASTER.c **** *  I2C_mstrControl - The global variable used to control the master
  67:Generated_Source\PSoC5/I2C_MASTER.c **** *                                 end of a transaction with or without Stop
  68:Generated_Source\PSoC5/I2C_MASTER.c **** *                                 generation.
  69:Generated_Source\PSoC5/I2C_MASTER.c **** *  I2C_mstrWrBufPtr - The global variable used to store a pointer
  70:Generated_Source\PSoC5/I2C_MASTER.c **** *                                  to the master write buffer.
  71:Generated_Source\PSoC5/I2C_MASTER.c **** *  I2C_mstrWrBufIndex - The global variable used to store current
  72:Generated_Source\PSoC5/I2C_MASTER.c **** *                                    index within the master write buffer.
  73:Generated_Source\PSoC5/I2C_MASTER.c **** *  I2C_mstrWrBufSize - The global variable used to store a master
  74:Generated_Source\PSoC5/I2C_MASTER.c **** *                                   write buffer size.
  75:Generated_Source\PSoC5/I2C_MASTER.c **** *
  76:Generated_Source\PSoC5/I2C_MASTER.c **** * Reentrant:
  77:Generated_Source\PSoC5/I2C_MASTER.c **** *  No
  78:Generated_Source\PSoC5/I2C_MASTER.c **** *
  79:Generated_Source\PSoC5/I2C_MASTER.c **** *******************************************************************************/
  80:Generated_Source\PSoC5/I2C_MASTER.c **** uint8 I2C_MasterWriteBuf(uint8 slaveAddress, uint8 * wrData, uint8 cnt, uint8 mode)
  81:Generated_Source\PSoC5/I2C_MASTER.c ****       
  82:Generated_Source\PSoC5/I2C_MASTER.c **** {
  28              		.loc 1 82 0
  29              		.cfi_startproc
  30              		@ args = 0, pretend = 0, frame = 0
  31              		@ frame_needed = 0, uses_anonymous_args = 0
  32              		@ link register save eliminated.
ARM GAS  C:\Users\legoc\AppData\Local\Temp\ccTcE57I.s 			page 3


  33              	.LVL0:
  83:Generated_Source\PSoC5/I2C_MASTER.c ****     uint8 errStatus;
  84:Generated_Source\PSoC5/I2C_MASTER.c **** 
  85:Generated_Source\PSoC5/I2C_MASTER.c ****     errStatus = I2C_MSTR_NOT_READY;
  86:Generated_Source\PSoC5/I2C_MASTER.c **** 
  87:Generated_Source\PSoC5/I2C_MASTER.c ****     if(NULL != wrData)
  34              		.loc 1 87 0
  35 0000 51B1     		cbz	r1, .L9
  82:Generated_Source\PSoC5/I2C_MASTER.c ****     uint8 errStatus;
  36              		.loc 1 82 0
  37 0002 F0B4     		push	{r4, r5, r6, r7}
  38              		.cfi_def_cfa_offset 16
  39              		.cfi_offset 4, -16
  40              		.cfi_offset 5, -12
  41              		.cfi_offset 6, -8
  42              		.cfi_offset 7, -4
  88:Generated_Source\PSoC5/I2C_MASTER.c ****     {
  89:Generated_Source\PSoC5/I2C_MASTER.c ****         /* Check I2C state to allow transfer: valid states are IDLE or HALT */
  90:Generated_Source\PSoC5/I2C_MASTER.c ****         if(I2C_SM_IDLE == I2C_state)
  43              		.loc 1 90 0
  44 0004 214C     		ldr	r4, .L22
  45 0006 2578     		ldrb	r5, [r4]	@ zero_extendqisi2
  46 0008 102D     		cmp	r5, #16
  47 000a 07D0     		beq	.L19
  91:Generated_Source\PSoC5/I2C_MASTER.c ****         {
  92:Generated_Source\PSoC5/I2C_MASTER.c ****             /* Master is ready for transaction: check if bus is free */
  93:Generated_Source\PSoC5/I2C_MASTER.c ****             if(I2C_CHECK_BUS_FREE(I2C_MCSR_REG))
  94:Generated_Source\PSoC5/I2C_MASTER.c ****             {
  95:Generated_Source\PSoC5/I2C_MASTER.c ****                 errStatus = I2C_MSTR_NO_ERROR;
  96:Generated_Source\PSoC5/I2C_MASTER.c ****             }
  97:Generated_Source\PSoC5/I2C_MASTER.c ****             else
  98:Generated_Source\PSoC5/I2C_MASTER.c ****             {
  99:Generated_Source\PSoC5/I2C_MASTER.c ****                 errStatus = I2C_MSTR_BUS_BUSY;
 100:Generated_Source\PSoC5/I2C_MASTER.c ****             }
 101:Generated_Source\PSoC5/I2C_MASTER.c ****         }
 102:Generated_Source\PSoC5/I2C_MASTER.c ****         else if(I2C_SM_MSTR_HALT == I2C_state)
  48              		.loc 1 102 0
  49 000c 2578     		ldrb	r5, [r4]	@ zero_extendqisi2
  50 000e 602D     		cmp	r5, #96
  51 0010 0AD0     		beq	.L20
 103:Generated_Source\PSoC5/I2C_MASTER.c ****         {
 104:Generated_Source\PSoC5/I2C_MASTER.c ****             /* Master is ready and waiting for ReStart */
 105:Generated_Source\PSoC5/I2C_MASTER.c ****             errStatus = I2C_MSTR_NO_ERROR;
 106:Generated_Source\PSoC5/I2C_MASTER.c **** 
 107:Generated_Source\PSoC5/I2C_MASTER.c ****             I2C_ClearPendingInt();
 108:Generated_Source\PSoC5/I2C_MASTER.c ****             I2C_mstrStatus &= (uint8) ~I2C_MSTAT_XFER_HALT;
 109:Generated_Source\PSoC5/I2C_MASTER.c ****         }
 110:Generated_Source\PSoC5/I2C_MASTER.c ****         else
 111:Generated_Source\PSoC5/I2C_MASTER.c ****         {
 112:Generated_Source\PSoC5/I2C_MASTER.c ****             /* errStatus = I2C_MSTR_NOT_READY was send before */
 113:Generated_Source\PSoC5/I2C_MASTER.c ****         }
 114:Generated_Source\PSoC5/I2C_MASTER.c **** 
 115:Generated_Source\PSoC5/I2C_MASTER.c ****         if(I2C_MSTR_NO_ERROR == errStatus)
 116:Generated_Source\PSoC5/I2C_MASTER.c ****         {
 117:Generated_Source\PSoC5/I2C_MASTER.c ****             /* Set state to start write transaction */
 118:Generated_Source\PSoC5/I2C_MASTER.c ****             I2C_state = I2C_SM_MSTR_WR_ADDR;
 119:Generated_Source\PSoC5/I2C_MASTER.c **** 
ARM GAS  C:\Users\legoc\AppData\Local\Temp\ccTcE57I.s 			page 4


 120:Generated_Source\PSoC5/I2C_MASTER.c ****             /* Prepare write buffer */
 121:Generated_Source\PSoC5/I2C_MASTER.c ****             I2C_mstrWrBufIndex = 0u;
 122:Generated_Source\PSoC5/I2C_MASTER.c ****             I2C_mstrWrBufSize  = cnt;
 123:Generated_Source\PSoC5/I2C_MASTER.c ****             I2C_mstrWrBufPtr   = (volatile uint8 *) wrData;
 124:Generated_Source\PSoC5/I2C_MASTER.c **** 
 125:Generated_Source\PSoC5/I2C_MASTER.c ****             /* Set end of transaction flag: Stop or Halt (following ReStart) */
 126:Generated_Source\PSoC5/I2C_MASTER.c ****             I2C_mstrControl = mode;
 127:Generated_Source\PSoC5/I2C_MASTER.c **** 
 128:Generated_Source\PSoC5/I2C_MASTER.c ****             /* Clear write status history */
 129:Generated_Source\PSoC5/I2C_MASTER.c ****             I2C_mstrStatus &= (uint8) ~I2C_MSTAT_WR_CMPLT;
 130:Generated_Source\PSoC5/I2C_MASTER.c **** 
 131:Generated_Source\PSoC5/I2C_MASTER.c ****             /* Hardware actions: write address and generate Start or ReStart */
 132:Generated_Source\PSoC5/I2C_MASTER.c ****             I2C_DATA_REG = (uint8) (slaveAddress << I2C_SLAVE_ADDR_SHIFT);
 133:Generated_Source\PSoC5/I2C_MASTER.c **** 
 134:Generated_Source\PSoC5/I2C_MASTER.c ****             if(I2C_CHECK_RESTART(mode))
 135:Generated_Source\PSoC5/I2C_MASTER.c ****             {
 136:Generated_Source\PSoC5/I2C_MASTER.c ****                 I2C_GENERATE_RESTART;
 137:Generated_Source\PSoC5/I2C_MASTER.c ****             }
 138:Generated_Source\PSoC5/I2C_MASTER.c ****             else
 139:Generated_Source\PSoC5/I2C_MASTER.c ****             {
 140:Generated_Source\PSoC5/I2C_MASTER.c ****                 I2C_GENERATE_START;
 141:Generated_Source\PSoC5/I2C_MASTER.c ****             }
 142:Generated_Source\PSoC5/I2C_MASTER.c **** 
 143:Generated_Source\PSoC5/I2C_MASTER.c ****             /* Enable interrupt to complete transfer */
 144:Generated_Source\PSoC5/I2C_MASTER.c ****             I2C_EnableInt();
 145:Generated_Source\PSoC5/I2C_MASTER.c ****         }
 146:Generated_Source\PSoC5/I2C_MASTER.c ****     }
 147:Generated_Source\PSoC5/I2C_MASTER.c **** 
 148:Generated_Source\PSoC5/I2C_MASTER.c ****     return(errStatus);
 149:Generated_Source\PSoC5/I2C_MASTER.c **** }
  52              		.loc 1 149 0
  53 0012 F0BC     		pop	{r4, r5, r6, r7}
  54              		.cfi_restore 7
  55              		.cfi_restore 6
  56              		.cfi_restore 5
  57              		.cfi_restore 4
  58              		.cfi_def_cfa_offset 0
  85:Generated_Source\PSoC5/I2C_MASTER.c **** 
  59              		.loc 1 85 0
  60 0014 0220     		movs	r0, #2
  61              	.LVL1:
  62              		.loc 1 149 0
  63 0016 7047     		bx	lr
  64              	.LVL2:
  65              	.L9:
  85:Generated_Source\PSoC5/I2C_MASTER.c **** 
  66              		.loc 1 85 0
  67 0018 0220     		movs	r0, #2
  68              	.LVL3:
  69              		.loc 1 149 0
  70 001a 7047     		bx	lr
  71              	.LVL4:
  72              	.L19:
  73              		.cfi_def_cfa_offset 16
  74              		.cfi_offset 4, -16
  75              		.cfi_offset 5, -12
  76              		.cfi_offset 6, -8
ARM GAS  C:\Users\legoc\AppData\Local\Temp\ccTcE57I.s 			page 5


  77              		.cfi_offset 7, -4
  93:Generated_Source\PSoC5/I2C_MASTER.c ****             {
  78              		.loc 1 93 0
  79 001c 1C4D     		ldr	r5, .L22+4
  80 001e 2D78     		ldrb	r5, [r5]	@ zero_extendqisi2
  81 0020 2D07     		lsls	r5, r5, #28
  82 0022 2CD4     		bmi	.L13
  83 0024 1B4D     		ldr	r5, .L22+8
  84 0026 08E0     		b	.L4
  85              	.L20:
  86              	.LVL5:
 107:Generated_Source\PSoC5/I2C_MASTER.c ****             I2C_mstrStatus &= (uint8) ~I2C_MSTAT_XFER_HALT;
  87              		.loc 1 107 0
  88 0028 1B4E     		ldr	r6, .L22+12
 108:Generated_Source\PSoC5/I2C_MASTER.c ****         }
  89              		.loc 1 108 0
  90 002a 1A4D     		ldr	r5, .L22+8
 107:Generated_Source\PSoC5/I2C_MASTER.c ****             I2C_mstrStatus &= (uint8) ~I2C_MSTAT_XFER_HALT;
  91              		.loc 1 107 0
  92 002c 4FF40047 		mov	r7, #32768
  93 0030 3760     		str	r7, [r6]
 108:Generated_Source\PSoC5/I2C_MASTER.c ****         }
  94              		.loc 1 108 0
  95 0032 2E78     		ldrb	r6, [r5]	@ zero_extendqisi2
  96 0034 06F0F706 		and	r6, r6, #247
  97 0038 2E70     		strb	r6, [r5]
  98              	.LVL6:
  99              	.L4:
 118:Generated_Source\PSoC5/I2C_MASTER.c **** 
 100              		.loc 1 118 0
 101 003a 4526     		movs	r6, #69
 121:Generated_Source\PSoC5/I2C_MASTER.c ****             I2C_mstrWrBufSize  = cnt;
 102              		.loc 1 121 0
 103 003c 174F     		ldr	r7, .L22+16
 118:Generated_Source\PSoC5/I2C_MASTER.c **** 
 104              		.loc 1 118 0
 105 003e 2670     		strb	r6, [r4]
 121:Generated_Source\PSoC5/I2C_MASTER.c ****             I2C_mstrWrBufSize  = cnt;
 106              		.loc 1 121 0
 107 0040 0024     		movs	r4, #0
 108 0042 3C70     		strb	r4, [r7]
 122:Generated_Source\PSoC5/I2C_MASTER.c ****             I2C_mstrWrBufPtr   = (volatile uint8 *) wrData;
 109              		.loc 1 122 0
 110 0044 164E     		ldr	r6, .L22+20
 126:Generated_Source\PSoC5/I2C_MASTER.c **** 
 111              		.loc 1 126 0
 112 0046 174C     		ldr	r4, .L22+24
 122:Generated_Source\PSoC5/I2C_MASTER.c ****             I2C_mstrWrBufPtr   = (volatile uint8 *) wrData;
 113              		.loc 1 122 0
 114 0048 3270     		strb	r2, [r6]
 126:Generated_Source\PSoC5/I2C_MASTER.c **** 
 115              		.loc 1 126 0
 116 004a 2370     		strb	r3, [r4]
 129:Generated_Source\PSoC5/I2C_MASTER.c **** 
 117              		.loc 1 129 0
 118 004c 2A78     		ldrb	r2, [r5]	@ zero_extendqisi2
 119              	.LVL7:
ARM GAS  C:\Users\legoc\AppData\Local\Temp\ccTcE57I.s 			page 6


 132:Generated_Source\PSoC5/I2C_MASTER.c **** 
 120              		.loc 1 132 0
 121 004e 4000     		lsls	r0, r0, #1
 122              	.LVL8:
 123:Generated_Source\PSoC5/I2C_MASTER.c **** 
 123              		.loc 1 123 0
 124 0050 154E     		ldr	r6, .L22+28
 132:Generated_Source\PSoC5/I2C_MASTER.c **** 
 125              		.loc 1 132 0
 126 0052 164C     		ldr	r4, .L22+32
 127 0054 C0B2     		uxtb	r0, r0
 129:Generated_Source\PSoC5/I2C_MASTER.c **** 
 128              		.loc 1 129 0
 129 0056 02F0FD02 		and	r2, r2, #253
 134:Generated_Source\PSoC5/I2C_MASTER.c ****             {
 130              		.loc 1 134 0
 131 005a DB07     		lsls	r3, r3, #31
 132              	.LVL9:
 129:Generated_Source\PSoC5/I2C_MASTER.c **** 
 133              		.loc 1 129 0
 134 005c 2A70     		strb	r2, [r5]
 135              	.LVL10:
 123:Generated_Source\PSoC5/I2C_MASTER.c **** 
 136              		.loc 1 123 0
 137 005e 3160     		str	r1, [r6]
 132:Generated_Source\PSoC5/I2C_MASTER.c **** 
 138              		.loc 1 132 0
 139 0060 2070     		strb	r0, [r4]
 134:Generated_Source\PSoC5/I2C_MASTER.c ****             {
 140              		.loc 1 134 0
 141 0062 0FD5     		bpl	.L21
 136:Generated_Source\PSoC5/I2C_MASTER.c ****             }
 142              		.loc 1 136 0
 143 0064 0A49     		ldr	r1, .L22+4
 144              	.LVL11:
 145 0066 124B     		ldr	r3, .L22+36
 146 0068 1220     		movs	r0, #18
 147 006a 0422     		movs	r2, #4
 148 006c 0870     		strb	r0, [r1]
 149 006e 1A70     		strb	r2, [r3]
 150              	.L6:
 144:Generated_Source\PSoC5/I2C_MASTER.c ****         }
 151              		.loc 1 144 0
 152 0070 104B     		ldr	r3, .L22+40
 153 0072 4FF40042 		mov	r2, #32768
 154 0076 0020     		movs	r0, #0
 155 0078 1A60     		str	r2, [r3]
 156              		.loc 1 149 0
 157 007a F0BC     		pop	{r4, r5, r6, r7}
 158              		.cfi_remember_state
 159              		.cfi_restore 4
 160              		.cfi_restore 5
 161              		.cfi_restore 6
 162              		.cfi_restore 7
 163              		.cfi_def_cfa_offset 0
 164 007c 7047     		bx	lr
 165              	.LVL12:
ARM GAS  C:\Users\legoc\AppData\Local\Temp\ccTcE57I.s 			page 7


 166              	.L13:
 167              		.cfi_restore_state
  99:Generated_Source\PSoC5/I2C_MASTER.c ****             }
 168              		.loc 1 99 0
 169 007e 0120     		movs	r0, #1
 170              	.LVL13:
 171              		.loc 1 149 0
 172 0080 F0BC     		pop	{r4, r5, r6, r7}
 173              		.cfi_remember_state
 174              		.cfi_restore 4
 175              		.cfi_restore 5
 176              		.cfi_restore 6
 177              		.cfi_restore 7
 178              		.cfi_def_cfa_offset 0
 179 0082 7047     		bx	lr
 180              	.LVL14:
 181              	.L21:
 182              		.cfi_restore_state
 140:Generated_Source\PSoC5/I2C_MASTER.c ****             }
 183              		.loc 1 140 0
 184 0084 024B     		ldr	r3, .L22+4
 185 0086 0122     		movs	r2, #1
 186 0088 1A70     		strb	r2, [r3]
 187 008a F1E7     		b	.L6
 188              	.L23:
 189              		.align	2
 190              	.L22:
 191 008c 00000000 		.word	I2C_state
 192 0090 D9490040 		.word	1073760729
 193 0094 00000000 		.word	I2C_mstrStatus
 194 0098 80E200E0 		.word	-536812928
 195 009c 00000000 		.word	I2C_mstrWrBufIndex
 196 00a0 00000000 		.word	I2C_mstrWrBufSize
 197 00a4 00000000 		.word	I2C_mstrControl
 198 00a8 00000000 		.word	I2C_mstrWrBufPtr
 199 00ac D8490040 		.word	1073760728
 200 00b0 D7490040 		.word	1073760727
 201 00b4 00E100E0 		.word	-536813312
 202              		.cfi_endproc
 203              	.LFE0:
 204              		.size	I2C_MasterWriteBuf, .-I2C_MasterWriteBuf
 205              		.section	.text.I2C_MasterReadBuf,"ax",%progbits
 206              		.align	2
 207              		.global	I2C_MasterReadBuf
 208              		.thumb
 209              		.thumb_func
 210              		.type	I2C_MasterReadBuf, %function
 211              	I2C_MasterReadBuf:
 212              	.LFB1:
 150:Generated_Source\PSoC5/I2C_MASTER.c **** 
 151:Generated_Source\PSoC5/I2C_MASTER.c **** 
 152:Generated_Source\PSoC5/I2C_MASTER.c **** /*******************************************************************************
 153:Generated_Source\PSoC5/I2C_MASTER.c **** * Function Name: I2C_MasterReadBuf
 154:Generated_Source\PSoC5/I2C_MASTER.c **** ********************************************************************************
 155:Generated_Source\PSoC5/I2C_MASTER.c **** *
 156:Generated_Source\PSoC5/I2C_MASTER.c **** * Summary:
 157:Generated_Source\PSoC5/I2C_MASTER.c **** *  Automatically writes an entire buffer of data to a slave device. Once the
ARM GAS  C:\Users\legoc\AppData\Local\Temp\ccTcE57I.s 			page 8


 158:Generated_Source\PSoC5/I2C_MASTER.c **** *  data transfer is initiated by this function, further data transfer is handled
 159:Generated_Source\PSoC5/I2C_MASTER.c **** *  by the included ISR in byte by byte mode.
 160:Generated_Source\PSoC5/I2C_MASTER.c **** *
 161:Generated_Source\PSoC5/I2C_MASTER.c **** * Parameters:
 162:Generated_Source\PSoC5/I2C_MASTER.c **** *  slaveAddr: 7-bit slave address.
 163:Generated_Source\PSoC5/I2C_MASTER.c **** *  xferData:  Pointer to buffer where to put data from slave.
 164:Generated_Source\PSoC5/I2C_MASTER.c **** *  cnt:       Size of buffer to read.
 165:Generated_Source\PSoC5/I2C_MASTER.c **** *  mode:      Transfer mode defines: start or restart condition generation at
 166:Generated_Source\PSoC5/I2C_MASTER.c **** *             begin of the transfer and complete the transfer or halt before
 167:Generated_Source\PSoC5/I2C_MASTER.c **** *             generating a stop.
 168:Generated_Source\PSoC5/I2C_MASTER.c **** *
 169:Generated_Source\PSoC5/I2C_MASTER.c **** * Return:
 170:Generated_Source\PSoC5/I2C_MASTER.c **** *  Status error - Zero means no errors.
 171:Generated_Source\PSoC5/I2C_MASTER.c **** *
 172:Generated_Source\PSoC5/I2C_MASTER.c **** * Side Effects:
 173:Generated_Source\PSoC5/I2C_MASTER.c **** *  The included ISR will start a transfer after start or restart condition is
 174:Generated_Source\PSoC5/I2C_MASTER.c **** *  generated.
 175:Generated_Source\PSoC5/I2C_MASTER.c **** *
 176:Generated_Source\PSoC5/I2C_MASTER.c **** * Global variables:
 177:Generated_Source\PSoC5/I2C_MASTER.c **** *  I2C_mstrStatus  - The global variable used to store a current
 178:Generated_Source\PSoC5/I2C_MASTER.c **** *                                 status of the I2C Master.
 179:Generated_Source\PSoC5/I2C_MASTER.c **** *  I2C_state       - The global variable used to store a current
 180:Generated_Source\PSoC5/I2C_MASTER.c **** *                                 state of the software FSM.
 181:Generated_Source\PSoC5/I2C_MASTER.c **** *  I2C_mstrControl - The global variable used to control the master
 182:Generated_Source\PSoC5/I2C_MASTER.c **** *                                 end of a transaction with or without
 183:Generated_Source\PSoC5/I2C_MASTER.c **** *                                 Stop generation.
 184:Generated_Source\PSoC5/I2C_MASTER.c **** *  I2C_mstrRdBufPtr - The global variable used to store a pointer
 185:Generated_Source\PSoC5/I2C_MASTER.c **** *                                  to the master write buffer.
 186:Generated_Source\PSoC5/I2C_MASTER.c **** *  I2C_mstrRdBufIndex - The global variable  used to store a
 187:Generated_Source\PSoC5/I2C_MASTER.c **** *                                    current index within the master
 188:Generated_Source\PSoC5/I2C_MASTER.c **** *                                    write buffer.
 189:Generated_Source\PSoC5/I2C_MASTER.c **** *  I2C_mstrRdBufSize - The global variable used to store a master
 190:Generated_Source\PSoC5/I2C_MASTER.c **** *                                   write buffer size.
 191:Generated_Source\PSoC5/I2C_MASTER.c **** *
 192:Generated_Source\PSoC5/I2C_MASTER.c **** * Reentrant:
 193:Generated_Source\PSoC5/I2C_MASTER.c **** *  No.
 194:Generated_Source\PSoC5/I2C_MASTER.c **** *
 195:Generated_Source\PSoC5/I2C_MASTER.c **** *******************************************************************************/
 196:Generated_Source\PSoC5/I2C_MASTER.c **** uint8 I2C_MasterReadBuf(uint8 slaveAddress, uint8 * rdData, uint8 cnt, uint8 mode)
 197:Generated_Source\PSoC5/I2C_MASTER.c ****       
 198:Generated_Source\PSoC5/I2C_MASTER.c **** {
 213              		.loc 1 198 0
 214              		.cfi_startproc
 215              		@ args = 0, pretend = 0, frame = 0
 216              		@ frame_needed = 0, uses_anonymous_args = 0
 217              		@ link register save eliminated.
 218              	.LVL15:
 199:Generated_Source\PSoC5/I2C_MASTER.c ****     uint8 errStatus;
 200:Generated_Source\PSoC5/I2C_MASTER.c **** 
 201:Generated_Source\PSoC5/I2C_MASTER.c ****     errStatus = I2C_MSTR_NOT_READY;
 202:Generated_Source\PSoC5/I2C_MASTER.c **** 
 203:Generated_Source\PSoC5/I2C_MASTER.c ****     if(NULL != rdData)
 219              		.loc 1 203 0
 220 0000 51B1     		cbz	r1, .L32
 198:Generated_Source\PSoC5/I2C_MASTER.c ****     uint8 errStatus;
 221              		.loc 1 198 0
 222 0002 F0B4     		push	{r4, r5, r6, r7}
ARM GAS  C:\Users\legoc\AppData\Local\Temp\ccTcE57I.s 			page 9


 223              		.cfi_def_cfa_offset 16
 224              		.cfi_offset 4, -16
 225              		.cfi_offset 5, -12
 226              		.cfi_offset 6, -8
 227              		.cfi_offset 7, -4
 204:Generated_Source\PSoC5/I2C_MASTER.c ****     {
 205:Generated_Source\PSoC5/I2C_MASTER.c ****         /* Check I2C state to allow transfer: valid states are IDLE or HALT */
 206:Generated_Source\PSoC5/I2C_MASTER.c ****         if(I2C_SM_IDLE == I2C_state)
 228              		.loc 1 206 0
 229 0004 224C     		ldr	r4, .L44
 230 0006 2578     		ldrb	r5, [r4]	@ zero_extendqisi2
 231 0008 102D     		cmp	r5, #16
 232 000a 07D0     		beq	.L41
 207:Generated_Source\PSoC5/I2C_MASTER.c ****         {
 208:Generated_Source\PSoC5/I2C_MASTER.c ****             /* Master is ready to transaction: check if bus is free */
 209:Generated_Source\PSoC5/I2C_MASTER.c ****             if(I2C_CHECK_BUS_FREE(I2C_MCSR_REG))
 210:Generated_Source\PSoC5/I2C_MASTER.c ****             {
 211:Generated_Source\PSoC5/I2C_MASTER.c ****                 errStatus = I2C_MSTR_NO_ERROR;
 212:Generated_Source\PSoC5/I2C_MASTER.c ****             }
 213:Generated_Source\PSoC5/I2C_MASTER.c ****             else
 214:Generated_Source\PSoC5/I2C_MASTER.c ****             {
 215:Generated_Source\PSoC5/I2C_MASTER.c ****                 errStatus = I2C_MSTR_BUS_BUSY;
 216:Generated_Source\PSoC5/I2C_MASTER.c ****             }
 217:Generated_Source\PSoC5/I2C_MASTER.c ****         }
 218:Generated_Source\PSoC5/I2C_MASTER.c ****         else if(I2C_SM_MSTR_HALT == I2C_state)
 233              		.loc 1 218 0
 234 000c 2578     		ldrb	r5, [r4]	@ zero_extendqisi2
 235 000e 602D     		cmp	r5, #96
 236 0010 0AD0     		beq	.L42
 219:Generated_Source\PSoC5/I2C_MASTER.c ****         {
 220:Generated_Source\PSoC5/I2C_MASTER.c ****             /* Master is ready and waiting for ReStart */
 221:Generated_Source\PSoC5/I2C_MASTER.c ****             errStatus = I2C_MSTR_NO_ERROR;
 222:Generated_Source\PSoC5/I2C_MASTER.c **** 
 223:Generated_Source\PSoC5/I2C_MASTER.c ****             I2C_ClearPendingInt();
 224:Generated_Source\PSoC5/I2C_MASTER.c ****             I2C_mstrStatus &= (uint8) ~I2C_MSTAT_XFER_HALT;
 225:Generated_Source\PSoC5/I2C_MASTER.c ****         }
 226:Generated_Source\PSoC5/I2C_MASTER.c ****         else
 227:Generated_Source\PSoC5/I2C_MASTER.c ****         {
 228:Generated_Source\PSoC5/I2C_MASTER.c ****             /* errStatus = I2C_MSTR_NOT_READY was set before */
 229:Generated_Source\PSoC5/I2C_MASTER.c ****         }
 230:Generated_Source\PSoC5/I2C_MASTER.c **** 
 231:Generated_Source\PSoC5/I2C_MASTER.c ****         if(I2C_MSTR_NO_ERROR == errStatus)
 232:Generated_Source\PSoC5/I2C_MASTER.c ****         {
 233:Generated_Source\PSoC5/I2C_MASTER.c ****             /* Set state to start write transaction */
 234:Generated_Source\PSoC5/I2C_MASTER.c ****             I2C_state = I2C_SM_MSTR_RD_ADDR;
 235:Generated_Source\PSoC5/I2C_MASTER.c **** 
 236:Generated_Source\PSoC5/I2C_MASTER.c ****             /* Prepare read buffer */
 237:Generated_Source\PSoC5/I2C_MASTER.c ****             I2C_mstrRdBufIndex  = 0u;
 238:Generated_Source\PSoC5/I2C_MASTER.c ****             I2C_mstrRdBufSize   = cnt;
 239:Generated_Source\PSoC5/I2C_MASTER.c ****             I2C_mstrRdBufPtr    = (volatile uint8 *) rdData;
 240:Generated_Source\PSoC5/I2C_MASTER.c **** 
 241:Generated_Source\PSoC5/I2C_MASTER.c ****             /* Set end of transaction flag: Stop or Halt (following ReStart) */
 242:Generated_Source\PSoC5/I2C_MASTER.c ****             I2C_mstrControl = mode;
 243:Generated_Source\PSoC5/I2C_MASTER.c **** 
 244:Generated_Source\PSoC5/I2C_MASTER.c ****             /* Clear read status history */
 245:Generated_Source\PSoC5/I2C_MASTER.c ****             I2C_mstrStatus &= (uint8) ~I2C_MSTAT_RD_CMPLT;
 246:Generated_Source\PSoC5/I2C_MASTER.c **** 
ARM GAS  C:\Users\legoc\AppData\Local\Temp\ccTcE57I.s 			page 10


 247:Generated_Source\PSoC5/I2C_MASTER.c ****             /* Hardware actions: write address and generate Start or ReStart */
 248:Generated_Source\PSoC5/I2C_MASTER.c ****             I2C_DATA_REG = ((uint8) (slaveAddress << I2C_SLAVE_ADDR_SHIFT) |
 249:Generated_Source\PSoC5/I2C_MASTER.c ****                                                   I2C_READ_FLAG);
 250:Generated_Source\PSoC5/I2C_MASTER.c **** 
 251:Generated_Source\PSoC5/I2C_MASTER.c ****             if(I2C_CHECK_RESTART(mode))
 252:Generated_Source\PSoC5/I2C_MASTER.c ****             {
 253:Generated_Source\PSoC5/I2C_MASTER.c ****                 I2C_GENERATE_RESTART;
 254:Generated_Source\PSoC5/I2C_MASTER.c ****             }
 255:Generated_Source\PSoC5/I2C_MASTER.c ****             else
 256:Generated_Source\PSoC5/I2C_MASTER.c ****             {
 257:Generated_Source\PSoC5/I2C_MASTER.c ****                 I2C_GENERATE_START;
 258:Generated_Source\PSoC5/I2C_MASTER.c ****             }
 259:Generated_Source\PSoC5/I2C_MASTER.c **** 
 260:Generated_Source\PSoC5/I2C_MASTER.c ****             /* Enable interrupt to complete transfer */
 261:Generated_Source\PSoC5/I2C_MASTER.c ****             I2C_EnableInt();
 262:Generated_Source\PSoC5/I2C_MASTER.c ****         }
 263:Generated_Source\PSoC5/I2C_MASTER.c ****     }
 264:Generated_Source\PSoC5/I2C_MASTER.c **** 
 265:Generated_Source\PSoC5/I2C_MASTER.c ****     return(errStatus);
 266:Generated_Source\PSoC5/I2C_MASTER.c **** }
 237              		.loc 1 266 0
 238 0012 F0BC     		pop	{r4, r5, r6, r7}
 239              		.cfi_restore 7
 240              		.cfi_restore 6
 241              		.cfi_restore 5
 242              		.cfi_restore 4
 243              		.cfi_def_cfa_offset 0
 201:Generated_Source\PSoC5/I2C_MASTER.c **** 
 244              		.loc 1 201 0
 245 0014 0220     		movs	r0, #2
 246              	.LVL16:
 247              		.loc 1 266 0
 248 0016 7047     		bx	lr
 249              	.LVL17:
 250              	.L32:
 201:Generated_Source\PSoC5/I2C_MASTER.c **** 
 251              		.loc 1 201 0
 252 0018 0220     		movs	r0, #2
 253              	.LVL18:
 254              		.loc 1 266 0
 255 001a 7047     		bx	lr
 256              	.LVL19:
 257              	.L41:
 258              		.cfi_def_cfa_offset 16
 259              		.cfi_offset 4, -16
 260              		.cfi_offset 5, -12
 261              		.cfi_offset 6, -8
 262              		.cfi_offset 7, -4
 209:Generated_Source\PSoC5/I2C_MASTER.c ****             {
 263              		.loc 1 209 0
 264 001c 1D4D     		ldr	r5, .L44+4
 265 001e 2D78     		ldrb	r5, [r5]	@ zero_extendqisi2
 266 0020 2D07     		lsls	r5, r5, #28
 267 0022 2ED4     		bmi	.L36
 268 0024 1C4D     		ldr	r5, .L44+8
 269 0026 08E0     		b	.L27
 270              	.L42:
ARM GAS  C:\Users\legoc\AppData\Local\Temp\ccTcE57I.s 			page 11


 271              	.LVL20:
 223:Generated_Source\PSoC5/I2C_MASTER.c ****             I2C_mstrStatus &= (uint8) ~I2C_MSTAT_XFER_HALT;
 272              		.loc 1 223 0
 273 0028 1C4E     		ldr	r6, .L44+12
 224:Generated_Source\PSoC5/I2C_MASTER.c ****         }
 274              		.loc 1 224 0
 275 002a 1B4D     		ldr	r5, .L44+8
 223:Generated_Source\PSoC5/I2C_MASTER.c ****             I2C_mstrStatus &= (uint8) ~I2C_MSTAT_XFER_HALT;
 276              		.loc 1 223 0
 277 002c 4FF40047 		mov	r7, #32768
 278 0030 3760     		str	r7, [r6]
 224:Generated_Source\PSoC5/I2C_MASTER.c ****         }
 279              		.loc 1 224 0
 280 0032 2E78     		ldrb	r6, [r5]	@ zero_extendqisi2
 281 0034 06F0F706 		and	r6, r6, #247
 282 0038 2E70     		strb	r6, [r5]
 283              	.LVL21:
 284              	.L27:
 234:Generated_Source\PSoC5/I2C_MASTER.c **** 
 285              		.loc 1 234 0
 286 003a 4926     		movs	r6, #73
 237:Generated_Source\PSoC5/I2C_MASTER.c ****             I2C_mstrRdBufSize   = cnt;
 287              		.loc 1 237 0
 288 003c 184F     		ldr	r7, .L44+16
 234:Generated_Source\PSoC5/I2C_MASTER.c **** 
 289              		.loc 1 234 0
 290 003e 2670     		strb	r6, [r4]
 237:Generated_Source\PSoC5/I2C_MASTER.c ****             I2C_mstrRdBufSize   = cnt;
 291              		.loc 1 237 0
 292 0040 0024     		movs	r4, #0
 293 0042 3C70     		strb	r4, [r7]
 238:Generated_Source\PSoC5/I2C_MASTER.c ****             I2C_mstrRdBufPtr    = (volatile uint8 *) rdData;
 294              		.loc 1 238 0
 295 0044 174E     		ldr	r6, .L44+20
 242:Generated_Source\PSoC5/I2C_MASTER.c **** 
 296              		.loc 1 242 0
 297 0046 184C     		ldr	r4, .L44+24
 238:Generated_Source\PSoC5/I2C_MASTER.c ****             I2C_mstrRdBufPtr    = (volatile uint8 *) rdData;
 298              		.loc 1 238 0
 299 0048 3270     		strb	r2, [r6]
 242:Generated_Source\PSoC5/I2C_MASTER.c **** 
 300              		.loc 1 242 0
 301 004a 2370     		strb	r3, [r4]
 245:Generated_Source\PSoC5/I2C_MASTER.c **** 
 302              		.loc 1 245 0
 303 004c 2A78     		ldrb	r2, [r5]	@ zero_extendqisi2
 304              	.LVL22:
 248:Generated_Source\PSoC5/I2C_MASTER.c ****                                                   I2C_READ_FLAG);
 305              		.loc 1 248 0
 306 004e 4000     		lsls	r0, r0, #1
 307              	.LVL23:
 308 0050 40F00100 		orr	r0, r0, #1
 239:Generated_Source\PSoC5/I2C_MASTER.c **** 
 309              		.loc 1 239 0
 310 0054 154E     		ldr	r6, .L44+28
 248:Generated_Source\PSoC5/I2C_MASTER.c ****                                                   I2C_READ_FLAG);
 311              		.loc 1 248 0
ARM GAS  C:\Users\legoc\AppData\Local\Temp\ccTcE57I.s 			page 12


 312 0056 164C     		ldr	r4, .L44+32
 313 0058 C0B2     		uxtb	r0, r0
 245:Generated_Source\PSoC5/I2C_MASTER.c **** 
 314              		.loc 1 245 0
 315 005a 02F0FE02 		and	r2, r2, #254
 251:Generated_Source\PSoC5/I2C_MASTER.c ****             {
 316              		.loc 1 251 0
 317 005e DB07     		lsls	r3, r3, #31
 318              	.LVL24:
 245:Generated_Source\PSoC5/I2C_MASTER.c **** 
 319              		.loc 1 245 0
 320 0060 2A70     		strb	r2, [r5]
 321              	.LVL25:
 239:Generated_Source\PSoC5/I2C_MASTER.c **** 
 322              		.loc 1 239 0
 323 0062 3160     		str	r1, [r6]
 248:Generated_Source\PSoC5/I2C_MASTER.c ****                                                   I2C_READ_FLAG);
 324              		.loc 1 248 0
 325 0064 2070     		strb	r0, [r4]
 251:Generated_Source\PSoC5/I2C_MASTER.c ****             {
 326              		.loc 1 251 0
 327 0066 0FD5     		bpl	.L43
 253:Generated_Source\PSoC5/I2C_MASTER.c ****             }
 328              		.loc 1 253 0
 329 0068 0A49     		ldr	r1, .L44+4
 330              	.LVL26:
 331 006a 124B     		ldr	r3, .L44+36
 332 006c 1220     		movs	r0, #18
 333 006e 0422     		movs	r2, #4
 334 0070 0870     		strb	r0, [r1]
 335 0072 1A70     		strb	r2, [r3]
 336              	.L29:
 261:Generated_Source\PSoC5/I2C_MASTER.c ****         }
 337              		.loc 1 261 0
 338 0074 104B     		ldr	r3, .L44+40
 339 0076 4FF40042 		mov	r2, #32768
 340 007a 0020     		movs	r0, #0
 341 007c 1A60     		str	r2, [r3]
 342              		.loc 1 266 0
 343 007e F0BC     		pop	{r4, r5, r6, r7}
 344              		.cfi_remember_state
 345              		.cfi_restore 4
 346              		.cfi_restore 5
 347              		.cfi_restore 6
 348              		.cfi_restore 7
 349              		.cfi_def_cfa_offset 0
 350 0080 7047     		bx	lr
 351              	.LVL27:
 352              	.L36:
 353              		.cfi_restore_state
 215:Generated_Source\PSoC5/I2C_MASTER.c ****             }
 354              		.loc 1 215 0
 355 0082 0120     		movs	r0, #1
 356              	.LVL28:
 357              		.loc 1 266 0
 358 0084 F0BC     		pop	{r4, r5, r6, r7}
 359              		.cfi_remember_state
ARM GAS  C:\Users\legoc\AppData\Local\Temp\ccTcE57I.s 			page 13


 360              		.cfi_restore 4
 361              		.cfi_restore 5
 362              		.cfi_restore 6
 363              		.cfi_restore 7
 364              		.cfi_def_cfa_offset 0
 365 0086 7047     		bx	lr
 366              	.LVL29:
 367              	.L43:
 368              		.cfi_restore_state
 257:Generated_Source\PSoC5/I2C_MASTER.c ****             }
 369              		.loc 1 257 0
 370 0088 024B     		ldr	r3, .L44+4
 371 008a 0122     		movs	r2, #1
 372 008c 1A70     		strb	r2, [r3]
 373 008e F1E7     		b	.L29
 374              	.L45:
 375              		.align	2
 376              	.L44:
 377 0090 00000000 		.word	I2C_state
 378 0094 D9490040 		.word	1073760729
 379 0098 00000000 		.word	I2C_mstrStatus
 380 009c 80E200E0 		.word	-536812928
 381 00a0 00000000 		.word	I2C_mstrRdBufIndex
 382 00a4 00000000 		.word	I2C_mstrRdBufSize
 383 00a8 00000000 		.word	I2C_mstrControl
 384 00ac 00000000 		.word	I2C_mstrRdBufPtr
 385 00b0 D8490040 		.word	1073760728
 386 00b4 D7490040 		.word	1073760727
 387 00b8 00E100E0 		.word	-536813312
 388              		.cfi_endproc
 389              	.LFE1:
 390              		.size	I2C_MasterReadBuf, .-I2C_MasterReadBuf
 391              		.section	.text.I2C_MasterSendStart,"ax",%progbits
 392              		.align	2
 393              		.global	I2C_MasterSendStart
 394              		.thumb
 395              		.thumb_func
 396              		.type	I2C_MasterSendStart, %function
 397              	I2C_MasterSendStart:
 398              	.LFB2:
 267:Generated_Source\PSoC5/I2C_MASTER.c **** 
 268:Generated_Source\PSoC5/I2C_MASTER.c **** 
 269:Generated_Source\PSoC5/I2C_MASTER.c **** /*******************************************************************************
 270:Generated_Source\PSoC5/I2C_MASTER.c **** * Function Name: I2C_MasterSendStart
 271:Generated_Source\PSoC5/I2C_MASTER.c **** ********************************************************************************
 272:Generated_Source\PSoC5/I2C_MASTER.c **** *
 273:Generated_Source\PSoC5/I2C_MASTER.c **** * Summary:
 274:Generated_Source\PSoC5/I2C_MASTER.c **** *  Generates Start condition and sends slave address with read/write bit.
 275:Generated_Source\PSoC5/I2C_MASTER.c **** *
 276:Generated_Source\PSoC5/I2C_MASTER.c **** * Parameters:
 277:Generated_Source\PSoC5/I2C_MASTER.c **** *  slaveAddress:  7-bit slave address.
 278:Generated_Source\PSoC5/I2C_MASTER.c **** *  R_nW:          Zero, send write command, non-zero send read command.
 279:Generated_Source\PSoC5/I2C_MASTER.c **** *
 280:Generated_Source\PSoC5/I2C_MASTER.c **** * Return:
 281:Generated_Source\PSoC5/I2C_MASTER.c **** *  Status error - Zero means no errors.
 282:Generated_Source\PSoC5/I2C_MASTER.c **** *
 283:Generated_Source\PSoC5/I2C_MASTER.c **** * Side Effects:
ARM GAS  C:\Users\legoc\AppData\Local\Temp\ccTcE57I.s 			page 14


 284:Generated_Source\PSoC5/I2C_MASTER.c **** *  This function is entered without a "byte complete" bit set in the I2C_CSR
 285:Generated_Source\PSoC5/I2C_MASTER.c **** *  register. It does not exit until it is set.
 286:Generated_Source\PSoC5/I2C_MASTER.c **** *
 287:Generated_Source\PSoC5/I2C_MASTER.c **** * Global variables:
 288:Generated_Source\PSoC5/I2C_MASTER.c **** *  I2C_state - The global variable used to store a current state of
 289:Generated_Source\PSoC5/I2C_MASTER.c **** *                           the software FSM.
 290:Generated_Source\PSoC5/I2C_MASTER.c **** *
 291:Generated_Source\PSoC5/I2C_MASTER.c **** * Reentrant:
 292:Generated_Source\PSoC5/I2C_MASTER.c **** *  No.
 293:Generated_Source\PSoC5/I2C_MASTER.c **** *
 294:Generated_Source\PSoC5/I2C_MASTER.c **** *******************************************************************************/
 295:Generated_Source\PSoC5/I2C_MASTER.c **** uint8 I2C_MasterSendStart(uint8 slaveAddress, uint8 R_nW)
 296:Generated_Source\PSoC5/I2C_MASTER.c ****       
 297:Generated_Source\PSoC5/I2C_MASTER.c **** {
 399              		.loc 1 297 0
 400              		.cfi_startproc
 401              		@ args = 0, pretend = 0, frame = 0
 402              		@ frame_needed = 0, uses_anonymous_args = 0
 403              		@ link register save eliminated.
 404              	.LVL30:
 298:Generated_Source\PSoC5/I2C_MASTER.c ****     uint8 errStatus;
 299:Generated_Source\PSoC5/I2C_MASTER.c **** 
 300:Generated_Source\PSoC5/I2C_MASTER.c ****     errStatus = I2C_MSTR_NOT_READY;
 301:Generated_Source\PSoC5/I2C_MASTER.c **** 
 302:Generated_Source\PSoC5/I2C_MASTER.c ****     /* If IDLE, check if bus is free */
 303:Generated_Source\PSoC5/I2C_MASTER.c ****     if(I2C_SM_IDLE == I2C_state)
 405              		.loc 1 303 0
 406 0000 184A     		ldr	r2, .L61
 407 0002 1378     		ldrb	r3, [r2]	@ zero_extendqisi2
 408 0004 102B     		cmp	r3, #16
 409 0006 01D0     		beq	.L58
 300:Generated_Source\PSoC5/I2C_MASTER.c **** 
 410              		.loc 1 300 0
 411 0008 0220     		movs	r0, #2
 412              	.LVL31:
 304:Generated_Source\PSoC5/I2C_MASTER.c ****     {
 305:Generated_Source\PSoC5/I2C_MASTER.c ****         /* If bus is free, generate Start condition */
 306:Generated_Source\PSoC5/I2C_MASTER.c ****         if(I2C_CHECK_BUS_FREE(I2C_MCSR_REG))
 307:Generated_Source\PSoC5/I2C_MASTER.c ****         {
 308:Generated_Source\PSoC5/I2C_MASTER.c ****             /* Disable interrupt for manual master operation */
 309:Generated_Source\PSoC5/I2C_MASTER.c ****             I2C_DisableInt();
 310:Generated_Source\PSoC5/I2C_MASTER.c **** 
 311:Generated_Source\PSoC5/I2C_MASTER.c ****             /* Set address and read/write flag */
 312:Generated_Source\PSoC5/I2C_MASTER.c ****             slaveAddress = (uint8) (slaveAddress << I2C_SLAVE_ADDR_SHIFT);
 313:Generated_Source\PSoC5/I2C_MASTER.c ****             if(0u != R_nW)
 314:Generated_Source\PSoC5/I2C_MASTER.c ****             {
 315:Generated_Source\PSoC5/I2C_MASTER.c ****                 slaveAddress |= I2C_READ_FLAG;
 316:Generated_Source\PSoC5/I2C_MASTER.c ****                 I2C_state = I2C_SM_MSTR_RD_ADDR;
 317:Generated_Source\PSoC5/I2C_MASTER.c ****             }
 318:Generated_Source\PSoC5/I2C_MASTER.c ****             else
 319:Generated_Source\PSoC5/I2C_MASTER.c ****             {
 320:Generated_Source\PSoC5/I2C_MASTER.c ****                 I2C_state = I2C_SM_MSTR_WR_ADDR;
 321:Generated_Source\PSoC5/I2C_MASTER.c ****             }
 322:Generated_Source\PSoC5/I2C_MASTER.c **** 
 323:Generated_Source\PSoC5/I2C_MASTER.c ****             /* Hardware actions: write address and generate Start */
 324:Generated_Source\PSoC5/I2C_MASTER.c ****             I2C_DATA_REG = slaveAddress;
 325:Generated_Source\PSoC5/I2C_MASTER.c ****             I2C_GENERATE_START_MANUAL;
ARM GAS  C:\Users\legoc\AppData\Local\Temp\ccTcE57I.s 			page 15


 326:Generated_Source\PSoC5/I2C_MASTER.c **** 
 327:Generated_Source\PSoC5/I2C_MASTER.c ****             /* Wait until address is transferred */
 328:Generated_Source\PSoC5/I2C_MASTER.c ****             while(I2C_WAIT_BYTE_COMPLETE(I2C_CSR_REG))
 329:Generated_Source\PSoC5/I2C_MASTER.c ****             {
 330:Generated_Source\PSoC5/I2C_MASTER.c ****             }
 331:Generated_Source\PSoC5/I2C_MASTER.c **** 
 332:Generated_Source\PSoC5/I2C_MASTER.c ****         #if(I2C_MODE_MULTI_MASTER_SLAVE_ENABLED)
 333:Generated_Source\PSoC5/I2C_MASTER.c ****             if(I2C_CHECK_START_GEN(I2C_MCSR_REG))
 334:Generated_Source\PSoC5/I2C_MASTER.c ****             {
 335:Generated_Source\PSoC5/I2C_MASTER.c ****                 I2C_CLEAR_START_GEN;
 336:Generated_Source\PSoC5/I2C_MASTER.c **** 
 337:Generated_Source\PSoC5/I2C_MASTER.c ****                 /* Start condition was not generated: reset FSM to IDLE */
 338:Generated_Source\PSoC5/I2C_MASTER.c ****                 I2C_state = I2C_SM_IDLE;
 339:Generated_Source\PSoC5/I2C_MASTER.c ****                 errStatus = I2C_MSTR_ERR_ABORT_START_GEN;
 340:Generated_Source\PSoC5/I2C_MASTER.c ****             }
 341:Generated_Source\PSoC5/I2C_MASTER.c ****             else
 342:Generated_Source\PSoC5/I2C_MASTER.c ****         #endif /* (I2C_MODE_MULTI_MASTER_SLAVE_ENABLED) */
 343:Generated_Source\PSoC5/I2C_MASTER.c **** 
 344:Generated_Source\PSoC5/I2C_MASTER.c ****         #if(I2C_MODE_MULTI_MASTER_ENABLED)
 345:Generated_Source\PSoC5/I2C_MASTER.c ****             if(I2C_CHECK_LOST_ARB(I2C_CSR_REG))
 346:Generated_Source\PSoC5/I2C_MASTER.c ****             {
 347:Generated_Source\PSoC5/I2C_MASTER.c ****                 I2C_BUS_RELEASE_MANUAL;
 348:Generated_Source\PSoC5/I2C_MASTER.c **** 
 349:Generated_Source\PSoC5/I2C_MASTER.c ****                 /* Master lost arbitrage: reset FSM to IDLE */
 350:Generated_Source\PSoC5/I2C_MASTER.c ****                 I2C_state = I2C_SM_IDLE;
 351:Generated_Source\PSoC5/I2C_MASTER.c ****                 errStatus = I2C_MSTR_ERR_ARB_LOST;
 352:Generated_Source\PSoC5/I2C_MASTER.c ****             }
 353:Generated_Source\PSoC5/I2C_MASTER.c ****             else
 354:Generated_Source\PSoC5/I2C_MASTER.c ****         #endif /* (I2C_MODE_MULTI_MASTER_ENABLED) */
 355:Generated_Source\PSoC5/I2C_MASTER.c **** 
 356:Generated_Source\PSoC5/I2C_MASTER.c ****             if(I2C_CHECK_ADDR_NAK(I2C_CSR_REG))
 357:Generated_Source\PSoC5/I2C_MASTER.c ****             {
 358:Generated_Source\PSoC5/I2C_MASTER.c ****                 /* Address has been NACKed: reset FSM to IDLE */
 359:Generated_Source\PSoC5/I2C_MASTER.c ****                 I2C_state = I2C_SM_IDLE;
 360:Generated_Source\PSoC5/I2C_MASTER.c ****                 errStatus = I2C_MSTR_ERR_LB_NAK;
 361:Generated_Source\PSoC5/I2C_MASTER.c ****             }
 362:Generated_Source\PSoC5/I2C_MASTER.c ****             else
 363:Generated_Source\PSoC5/I2C_MASTER.c ****             {
 364:Generated_Source\PSoC5/I2C_MASTER.c ****                 /* Start was sent without errors */
 365:Generated_Source\PSoC5/I2C_MASTER.c ****                 errStatus = I2C_MSTR_NO_ERROR;
 366:Generated_Source\PSoC5/I2C_MASTER.c ****             }
 367:Generated_Source\PSoC5/I2C_MASTER.c ****         }
 368:Generated_Source\PSoC5/I2C_MASTER.c ****         else
 369:Generated_Source\PSoC5/I2C_MASTER.c ****         {
 370:Generated_Source\PSoC5/I2C_MASTER.c ****             errStatus = I2C_MSTR_BUS_BUSY;
 371:Generated_Source\PSoC5/I2C_MASTER.c ****         }
 372:Generated_Source\PSoC5/I2C_MASTER.c ****     }
 373:Generated_Source\PSoC5/I2C_MASTER.c **** 
 374:Generated_Source\PSoC5/I2C_MASTER.c ****     return(errStatus);
 375:Generated_Source\PSoC5/I2C_MASTER.c **** }
 413              		.loc 1 375 0
 414 000a 7047     		bx	lr
 415              	.LVL32:
 416              	.L58:
 306:Generated_Source\PSoC5/I2C_MASTER.c ****         {
 417              		.loc 1 306 0
 418 000c 164B     		ldr	r3, .L61+4
ARM GAS  C:\Users\legoc\AppData\Local\Temp\ccTcE57I.s 			page 16


 419 000e 1B78     		ldrb	r3, [r3]	@ zero_extendqisi2
 420 0010 1B07     		lsls	r3, r3, #28
 421 0012 1BD4     		bmi	.L52
 309:Generated_Source\PSoC5/I2C_MASTER.c **** 
 422              		.loc 1 309 0
 423 0014 154B     		ldr	r3, .L61+8
 297:Generated_Source\PSoC5/I2C_MASTER.c ****     uint8 errStatus;
 424              		.loc 1 297 0
 425 0016 30B4     		push	{r4, r5}
 426              		.cfi_def_cfa_offset 8
 427              		.cfi_offset 4, -8
 428              		.cfi_offset 5, -4
 312:Generated_Source\PSoC5/I2C_MASTER.c ****             if(0u != R_nW)
 429              		.loc 1 312 0
 430 0018 4000     		lsls	r0, r0, #1
 431              	.LVL33:
 309:Generated_Source\PSoC5/I2C_MASTER.c **** 
 432              		.loc 1 309 0
 433 001a 4FF40044 		mov	r4, #32768
 312:Generated_Source\PSoC5/I2C_MASTER.c ****             if(0u != R_nW)
 434              		.loc 1 312 0
 435 001e C0B2     		uxtb	r0, r0
 436              	.LVL34:
 309:Generated_Source\PSoC5/I2C_MASTER.c **** 
 437              		.loc 1 309 0
 438 0020 1C60     		str	r4, [r3]
 313:Generated_Source\PSoC5/I2C_MASTER.c ****             {
 439              		.loc 1 313 0
 440 0022 A9B9     		cbnz	r1, .L59
 320:Generated_Source\PSoC5/I2C_MASTER.c ****             }
 441              		.loc 1 320 0
 442 0024 4523     		movs	r3, #69
 443 0026 1370     		strb	r3, [r2]
 444              	.L49:
 324:Generated_Source\PSoC5/I2C_MASTER.c ****             I2C_GENERATE_START_MANUAL;
 445              		.loc 1 324 0
 446 0028 114D     		ldr	r5, .L61+12
 325:Generated_Source\PSoC5/I2C_MASTER.c **** 
 447              		.loc 1 325 0
 448 002a 0F4B     		ldr	r3, .L61+4
 449 002c 0121     		movs	r1, #1
 450              	.LVL35:
 328:Generated_Source\PSoC5/I2C_MASTER.c ****             {
 451              		.loc 1 328 0
 452 002e 114C     		ldr	r4, .L61+16
 324:Generated_Source\PSoC5/I2C_MASTER.c ****             I2C_GENERATE_START_MANUAL;
 453              		.loc 1 324 0
 454 0030 2870     		strb	r0, [r5]
 325:Generated_Source\PSoC5/I2C_MASTER.c **** 
 455              		.loc 1 325 0
 456 0032 1970     		strb	r1, [r3]
 457              	.L50:
 328:Generated_Source\PSoC5/I2C_MASTER.c ****             {
 458              		.loc 1 328 0 discriminator 1
 459 0034 2378     		ldrb	r3, [r4]	@ zero_extendqisi2
 460 0036 0F49     		ldr	r1, .L61+16
 461 0038 DB07     		lsls	r3, r3, #31
ARM GAS  C:\Users\legoc\AppData\Local\Temp\ccTcE57I.s 			page 17


 462 003a FBD5     		bpl	.L50
 356:Generated_Source\PSoC5/I2C_MASTER.c ****             {
 463              		.loc 1 356 0
 464 003c 0B78     		ldrb	r3, [r1]	@ zero_extendqisi2
 465 003e 03F00A03 		and	r3, r3, #10
 466 0042 0A2B     		cmp	r3, #10
 467 0044 09D0     		beq	.L60
 365:Generated_Source\PSoC5/I2C_MASTER.c ****             }
 468              		.loc 1 365 0
 469 0046 0020     		movs	r0, #0
 470              	.LVL36:
 471              	.L47:
 472              		.loc 1 375 0
 473 0048 30BC     		pop	{r4, r5}
 474              		.cfi_restore 5
 475              		.cfi_restore 4
 476              		.cfi_def_cfa_offset 0
 477 004a 7047     		bx	lr
 478              	.LVL37:
 479              	.L52:
 370:Generated_Source\PSoC5/I2C_MASTER.c ****         }
 480              		.loc 1 370 0
 481 004c 0120     		movs	r0, #1
 482              	.LVL38:
 483 004e 7047     		bx	lr
 484              	.LVL39:
 485              	.L59:
 486              		.cfi_def_cfa_offset 8
 487              		.cfi_offset 4, -8
 488              		.cfi_offset 5, -4
 316:Generated_Source\PSoC5/I2C_MASTER.c ****             }
 489              		.loc 1 316 0
 490 0050 4923     		movs	r3, #73
 315:Generated_Source\PSoC5/I2C_MASTER.c ****                 I2C_state = I2C_SM_MSTR_RD_ADDR;
 491              		.loc 1 315 0
 492 0052 40F00100 		orr	r0, r0, #1
 493              	.LVL40:
 316:Generated_Source\PSoC5/I2C_MASTER.c ****             }
 494              		.loc 1 316 0
 495 0056 1370     		strb	r3, [r2]
 496 0058 E6E7     		b	.L49
 497              	.LVL41:
 498              	.L60:
 359:Generated_Source\PSoC5/I2C_MASTER.c ****                 errStatus = I2C_MSTR_ERR_LB_NAK;
 499              		.loc 1 359 0
 500 005a 1023     		movs	r3, #16
 501 005c 1370     		strb	r3, [r2]
 502              	.LVL42:
 360:Generated_Source\PSoC5/I2C_MASTER.c ****             }
 503              		.loc 1 360 0
 504 005e 0320     		movs	r0, #3
 505              	.LVL43:
 506 0060 F2E7     		b	.L47
 507              	.L62:
 508 0062 00BF     		.align	2
 509              	.L61:
 510 0064 00000000 		.word	I2C_state
ARM GAS  C:\Users\legoc\AppData\Local\Temp\ccTcE57I.s 			page 18


 511 0068 D9490040 		.word	1073760729
 512 006c 80E100E0 		.word	-536813184
 513 0070 D8490040 		.word	1073760728
 514 0074 D7490040 		.word	1073760727
 515              		.cfi_endproc
 516              	.LFE2:
 517              		.size	I2C_MasterSendStart, .-I2C_MasterSendStart
 518              		.section	.text.I2C_MasterSendRestart,"ax",%progbits
 519              		.align	2
 520              		.global	I2C_MasterSendRestart
 521              		.thumb
 522              		.thumb_func
 523              		.type	I2C_MasterSendRestart, %function
 524              	I2C_MasterSendRestart:
 525              	.LFB3:
 376:Generated_Source\PSoC5/I2C_MASTER.c **** 
 377:Generated_Source\PSoC5/I2C_MASTER.c **** 
 378:Generated_Source\PSoC5/I2C_MASTER.c **** /*******************************************************************************
 379:Generated_Source\PSoC5/I2C_MASTER.c **** * Function Name: I2C_MasterSendRestart
 380:Generated_Source\PSoC5/I2C_MASTER.c **** ********************************************************************************
 381:Generated_Source\PSoC5/I2C_MASTER.c **** *
 382:Generated_Source\PSoC5/I2C_MASTER.c **** * Summary:
 383:Generated_Source\PSoC5/I2C_MASTER.c **** *  Generates ReStart condition and sends slave address with read/write bit.
 384:Generated_Source\PSoC5/I2C_MASTER.c **** *
 385:Generated_Source\PSoC5/I2C_MASTER.c **** * Parameters:
 386:Generated_Source\PSoC5/I2C_MASTER.c **** *  slaveAddress:  7-bit slave address.
 387:Generated_Source\PSoC5/I2C_MASTER.c **** *  R_nW:          Zero, send write command, non-zero send read command.
 388:Generated_Source\PSoC5/I2C_MASTER.c **** *
 389:Generated_Source\PSoC5/I2C_MASTER.c **** * Return:
 390:Generated_Source\PSoC5/I2C_MASTER.c **** *  Status error - Zero means no errors.
 391:Generated_Source\PSoC5/I2C_MASTER.c **** *
 392:Generated_Source\PSoC5/I2C_MASTER.c **** * Side Effects:
 393:Generated_Source\PSoC5/I2C_MASTER.c **** *  This function is entered without a "byte complete" bit set in the I2C_CSR
 394:Generated_Source\PSoC5/I2C_MASTER.c **** *  register. It does not exit until it is set.
 395:Generated_Source\PSoC5/I2C_MASTER.c **** *
 396:Generated_Source\PSoC5/I2C_MASTER.c **** * Global variables:
 397:Generated_Source\PSoC5/I2C_MASTER.c **** *  I2C_state - The global variable used to store a current state of
 398:Generated_Source\PSoC5/I2C_MASTER.c **** *                           the software FSM.
 399:Generated_Source\PSoC5/I2C_MASTER.c **** *
 400:Generated_Source\PSoC5/I2C_MASTER.c **** * Reentrant:
 401:Generated_Source\PSoC5/I2C_MASTER.c **** *  No.
 402:Generated_Source\PSoC5/I2C_MASTER.c **** *
 403:Generated_Source\PSoC5/I2C_MASTER.c **** *******************************************************************************/
 404:Generated_Source\PSoC5/I2C_MASTER.c **** uint8 I2C_MasterSendRestart(uint8 slaveAddress, uint8 R_nW)
 405:Generated_Source\PSoC5/I2C_MASTER.c ****       
 406:Generated_Source\PSoC5/I2C_MASTER.c **** {
 526              		.loc 1 406 0
 527              		.cfi_startproc
 528              		@ args = 0, pretend = 0, frame = 0
 529              		@ frame_needed = 0, uses_anonymous_args = 0
 530              		@ link register save eliminated.
 531              	.LVL44:
 407:Generated_Source\PSoC5/I2C_MASTER.c ****     uint8 errStatus;
 408:Generated_Source\PSoC5/I2C_MASTER.c **** 
 409:Generated_Source\PSoC5/I2C_MASTER.c ****     errStatus = I2C_MSTR_NOT_READY;
 410:Generated_Source\PSoC5/I2C_MASTER.c **** 
 411:Generated_Source\PSoC5/I2C_MASTER.c ****     /* Check if START condition was generated */
ARM GAS  C:\Users\legoc\AppData\Local\Temp\ccTcE57I.s 			page 19


 412:Generated_Source\PSoC5/I2C_MASTER.c ****     if(I2C_CHECK_MASTER_MODE(I2C_MCSR_REG))
 532              		.loc 1 412 0
 533 0000 154B     		ldr	r3, .L76
 534 0002 1B78     		ldrb	r3, [r3]	@ zero_extendqisi2
 535 0004 5A07     		lsls	r2, r3, #29
 536 0006 01D4     		bmi	.L73
 409:Generated_Source\PSoC5/I2C_MASTER.c **** 
 537              		.loc 1 409 0
 538 0008 0220     		movs	r0, #2
 539              	.LVL45:
 413:Generated_Source\PSoC5/I2C_MASTER.c ****     {
 414:Generated_Source\PSoC5/I2C_MASTER.c ****         /* Set address and read/write flag */
 415:Generated_Source\PSoC5/I2C_MASTER.c ****         slaveAddress = (uint8) (slaveAddress << I2C_SLAVE_ADDR_SHIFT);
 416:Generated_Source\PSoC5/I2C_MASTER.c ****         if(0u != R_nW)
 417:Generated_Source\PSoC5/I2C_MASTER.c ****         {
 418:Generated_Source\PSoC5/I2C_MASTER.c ****             slaveAddress |= I2C_READ_FLAG;
 419:Generated_Source\PSoC5/I2C_MASTER.c ****             I2C_state = I2C_SM_MSTR_RD_ADDR;
 420:Generated_Source\PSoC5/I2C_MASTER.c ****         }
 421:Generated_Source\PSoC5/I2C_MASTER.c ****         else
 422:Generated_Source\PSoC5/I2C_MASTER.c ****         {
 423:Generated_Source\PSoC5/I2C_MASTER.c ****             I2C_state = I2C_SM_MSTR_WR_ADDR;
 424:Generated_Source\PSoC5/I2C_MASTER.c ****         }
 425:Generated_Source\PSoC5/I2C_MASTER.c **** 
 426:Generated_Source\PSoC5/I2C_MASTER.c ****         /* Hardware actions: write address and generate ReStart */
 427:Generated_Source\PSoC5/I2C_MASTER.c ****         I2C_DATA_REG = slaveAddress;
 428:Generated_Source\PSoC5/I2C_MASTER.c ****         I2C_GENERATE_RESTART_MANUAL;
 429:Generated_Source\PSoC5/I2C_MASTER.c **** 
 430:Generated_Source\PSoC5/I2C_MASTER.c ****         /* Wait until address has been transferred */
 431:Generated_Source\PSoC5/I2C_MASTER.c ****         while(I2C_WAIT_BYTE_COMPLETE(I2C_CSR_REG))
 432:Generated_Source\PSoC5/I2C_MASTER.c ****         {
 433:Generated_Source\PSoC5/I2C_MASTER.c ****         }
 434:Generated_Source\PSoC5/I2C_MASTER.c **** 
 435:Generated_Source\PSoC5/I2C_MASTER.c ****     #if(I2C_MODE_MULTI_MASTER_ENABLED)
 436:Generated_Source\PSoC5/I2C_MASTER.c ****         if(I2C_CHECK_LOST_ARB(I2C_CSR_REG))
 437:Generated_Source\PSoC5/I2C_MASTER.c ****         {
 438:Generated_Source\PSoC5/I2C_MASTER.c ****             I2C_BUS_RELEASE_MANUAL;
 439:Generated_Source\PSoC5/I2C_MASTER.c **** 
 440:Generated_Source\PSoC5/I2C_MASTER.c ****             /* Master lost arbitrage: reset FSM to IDLE */
 441:Generated_Source\PSoC5/I2C_MASTER.c ****             I2C_state = I2C_SM_IDLE;
 442:Generated_Source\PSoC5/I2C_MASTER.c ****             errStatus = I2C_MSTR_ERR_ARB_LOST;
 443:Generated_Source\PSoC5/I2C_MASTER.c ****         }
 444:Generated_Source\PSoC5/I2C_MASTER.c ****         else
 445:Generated_Source\PSoC5/I2C_MASTER.c ****     #endif /* (I2C_MODE_MULTI_MASTER_ENABLED) */
 446:Generated_Source\PSoC5/I2C_MASTER.c **** 
 447:Generated_Source\PSoC5/I2C_MASTER.c ****         if(I2C_CHECK_ADDR_NAK(I2C_CSR_REG))
 448:Generated_Source\PSoC5/I2C_MASTER.c ****         {
 449:Generated_Source\PSoC5/I2C_MASTER.c ****             /* Address has been NACKed: reset FSM to IDLE */
 450:Generated_Source\PSoC5/I2C_MASTER.c ****             I2C_state = I2C_SM_IDLE;
 451:Generated_Source\PSoC5/I2C_MASTER.c ****             errStatus = I2C_MSTR_ERR_LB_NAK;
 452:Generated_Source\PSoC5/I2C_MASTER.c ****         }
 453:Generated_Source\PSoC5/I2C_MASTER.c ****         else
 454:Generated_Source\PSoC5/I2C_MASTER.c ****         {
 455:Generated_Source\PSoC5/I2C_MASTER.c ****             /* ReStart was sent without errors */
 456:Generated_Source\PSoC5/I2C_MASTER.c ****             errStatus = I2C_MSTR_NO_ERROR;
 457:Generated_Source\PSoC5/I2C_MASTER.c ****         }
 458:Generated_Source\PSoC5/I2C_MASTER.c ****     }
 459:Generated_Source\PSoC5/I2C_MASTER.c **** 
ARM GAS  C:\Users\legoc\AppData\Local\Temp\ccTcE57I.s 			page 20


 460:Generated_Source\PSoC5/I2C_MASTER.c ****     return(errStatus);
 461:Generated_Source\PSoC5/I2C_MASTER.c **** }
 540              		.loc 1 461 0
 541 000a 7047     		bx	lr
 542              	.LVL46:
 543              	.L73:
 415:Generated_Source\PSoC5/I2C_MASTER.c ****         if(0u != R_nW)
 544              		.loc 1 415 0
 545 000c 4000     		lsls	r0, r0, #1
 546              	.LVL47:
 406:Generated_Source\PSoC5/I2C_MASTER.c ****     uint8 errStatus;
 547              		.loc 1 406 0
 548 000e F0B4     		push	{r4, r5, r6, r7}
 549              		.cfi_def_cfa_offset 16
 550              		.cfi_offset 4, -16
 551              		.cfi_offset 5, -12
 552              		.cfi_offset 6, -8
 553              		.cfi_offset 7, -4
 415:Generated_Source\PSoC5/I2C_MASTER.c ****         if(0u != R_nW)
 554              		.loc 1 415 0
 555 0010 C0B2     		uxtb	r0, r0
 556              	.LVL48:
 419:Generated_Source\PSoC5/I2C_MASTER.c ****         }
 557              		.loc 1 419 0
 558 0012 124C     		ldr	r4, .L76+4
 416:Generated_Source\PSoC5/I2C_MASTER.c ****         {
 559              		.loc 1 416 0
 560 0014 B1B9     		cbnz	r1, .L74
 423:Generated_Source\PSoC5/I2C_MASTER.c ****         }
 561              		.loc 1 423 0
 562 0016 4523     		movs	r3, #69
 563 0018 2370     		strb	r3, [r4]
 564              	.L66:
 428:Generated_Source\PSoC5/I2C_MASTER.c **** 
 565              		.loc 1 428 0
 566 001a 114B     		ldr	r3, .L76+8
 427:Generated_Source\PSoC5/I2C_MASTER.c ****         I2C_GENERATE_RESTART_MANUAL;
 567              		.loc 1 427 0
 568 001c 114F     		ldr	r7, .L76+12
 431:Generated_Source\PSoC5/I2C_MASTER.c ****         {
 569              		.loc 1 431 0
 570 001e 1946     		mov	r1, r3
 571              	.LVL49:
 428:Generated_Source\PSoC5/I2C_MASTER.c **** 
 572              		.loc 1 428 0
 573 0020 0D4D     		ldr	r5, .L76
 574 0022 1226     		movs	r6, #18
 575 0024 0422     		movs	r2, #4
 427:Generated_Source\PSoC5/I2C_MASTER.c ****         I2C_GENERATE_RESTART_MANUAL;
 576              		.loc 1 427 0
 577 0026 3870     		strb	r0, [r7]
 428:Generated_Source\PSoC5/I2C_MASTER.c **** 
 578              		.loc 1 428 0
 579 0028 2E70     		strb	r6, [r5]
 580 002a 1A70     		strb	r2, [r3]
 581              	.L67:
 431:Generated_Source\PSoC5/I2C_MASTER.c ****         {
ARM GAS  C:\Users\legoc\AppData\Local\Temp\ccTcE57I.s 			page 21


 582              		.loc 1 431 0 discriminator 1
 583 002c 0B78     		ldrb	r3, [r1]	@ zero_extendqisi2
 584 002e 0C4A     		ldr	r2, .L76+8
 585 0030 DB07     		lsls	r3, r3, #31
 586 0032 FBD5     		bpl	.L67
 447:Generated_Source\PSoC5/I2C_MASTER.c ****         {
 587              		.loc 1 447 0
 588 0034 1378     		ldrb	r3, [r2]	@ zero_extendqisi2
 589 0036 03F00A03 		and	r3, r3, #10
 590 003a 0A2B     		cmp	r3, #10
 591 003c 07D0     		beq	.L75
 592              		.loc 1 461 0
 593 003e F0BC     		pop	{r4, r5, r6, r7}
 594              		.cfi_remember_state
 595              		.cfi_restore 7
 596              		.cfi_restore 6
 597              		.cfi_restore 5
 598              		.cfi_restore 4
 599              		.cfi_def_cfa_offset 0
 456:Generated_Source\PSoC5/I2C_MASTER.c ****         }
 600              		.loc 1 456 0
 601 0040 0020     		movs	r0, #0
 602              	.LVL50:
 603              		.loc 1 461 0
 604 0042 7047     		bx	lr
 605              	.LVL51:
 606              	.L74:
 607              		.cfi_restore_state
 419:Generated_Source\PSoC5/I2C_MASTER.c ****         }
 608              		.loc 1 419 0
 609 0044 4923     		movs	r3, #73
 418:Generated_Source\PSoC5/I2C_MASTER.c ****             I2C_state = I2C_SM_MSTR_RD_ADDR;
 610              		.loc 1 418 0
 611 0046 40F00100 		orr	r0, r0, #1
 612              	.LVL52:
 419:Generated_Source\PSoC5/I2C_MASTER.c ****         }
 613              		.loc 1 419 0
 614 004a 2370     		strb	r3, [r4]
 615 004c E5E7     		b	.L66
 616              	.LVL53:
 617              	.L75:
 450:Generated_Source\PSoC5/I2C_MASTER.c ****             errStatus = I2C_MSTR_ERR_LB_NAK;
 618              		.loc 1 450 0
 619 004e 1023     		movs	r3, #16
 620 0050 2370     		strb	r3, [r4]
 621              	.LVL54:
 451:Generated_Source\PSoC5/I2C_MASTER.c ****         }
 622              		.loc 1 451 0
 623 0052 0320     		movs	r0, #3
 624              	.LVL55:
 625              		.loc 1 461 0
 626 0054 F0BC     		pop	{r4, r5, r6, r7}
 627              		.cfi_restore 4
 628              		.cfi_restore 5
 629              		.cfi_restore 6
 630              		.cfi_restore 7
 631              		.cfi_def_cfa_offset 0
ARM GAS  C:\Users\legoc\AppData\Local\Temp\ccTcE57I.s 			page 22


 632 0056 7047     		bx	lr
 633              	.L77:
 634              		.align	2
 635              	.L76:
 636 0058 D9490040 		.word	1073760729
 637 005c 00000000 		.word	I2C_state
 638 0060 D7490040 		.word	1073760727
 639 0064 D8490040 		.word	1073760728
 640              		.cfi_endproc
 641              	.LFE3:
 642              		.size	I2C_MasterSendRestart, .-I2C_MasterSendRestart
 643              		.section	.text.I2C_MasterSendStop,"ax",%progbits
 644              		.align	2
 645              		.global	I2C_MasterSendStop
 646              		.thumb
 647              		.thumb_func
 648              		.type	I2C_MasterSendStop, %function
 649              	I2C_MasterSendStop:
 650              	.LFB4:
 462:Generated_Source\PSoC5/I2C_MASTER.c **** 
 463:Generated_Source\PSoC5/I2C_MASTER.c **** 
 464:Generated_Source\PSoC5/I2C_MASTER.c **** /*******************************************************************************
 465:Generated_Source\PSoC5/I2C_MASTER.c **** * Function Name: I2C_MasterSendStop
 466:Generated_Source\PSoC5/I2C_MASTER.c **** ********************************************************************************
 467:Generated_Source\PSoC5/I2C_MASTER.c **** *
 468:Generated_Source\PSoC5/I2C_MASTER.c **** * Summary:
 469:Generated_Source\PSoC5/I2C_MASTER.c **** *  Generates I2C Stop condition on bus. Function do nothing if Start or Restart
 470:Generated_Source\PSoC5/I2C_MASTER.c **** *  condition was failed before call this function.
 471:Generated_Source\PSoC5/I2C_MASTER.c **** *
 472:Generated_Source\PSoC5/I2C_MASTER.c **** * Parameters:
 473:Generated_Source\PSoC5/I2C_MASTER.c **** *  None.
 474:Generated_Source\PSoC5/I2C_MASTER.c **** *
 475:Generated_Source\PSoC5/I2C_MASTER.c **** * Return:
 476:Generated_Source\PSoC5/I2C_MASTER.c **** *  Status error - Zero means no errors.
 477:Generated_Source\PSoC5/I2C_MASTER.c **** *
 478:Generated_Source\PSoC5/I2C_MASTER.c **** * Side Effects:
 479:Generated_Source\PSoC5/I2C_MASTER.c **** *  Stop generation is required to complete the transaction.
 480:Generated_Source\PSoC5/I2C_MASTER.c **** *  This function does not wait until a Stop condition is generated.
 481:Generated_Source\PSoC5/I2C_MASTER.c **** *
 482:Generated_Source\PSoC5/I2C_MASTER.c **** * Global variables:
 483:Generated_Source\PSoC5/I2C_MASTER.c **** *  I2C_state - The global variable used to store a current state of
 484:Generated_Source\PSoC5/I2C_MASTER.c **** *                           the software FSM.
 485:Generated_Source\PSoC5/I2C_MASTER.c **** *
 486:Generated_Source\PSoC5/I2C_MASTER.c **** * Reentrant:
 487:Generated_Source\PSoC5/I2C_MASTER.c **** *  No.
 488:Generated_Source\PSoC5/I2C_MASTER.c **** *
 489:Generated_Source\PSoC5/I2C_MASTER.c **** *******************************************************************************/
 490:Generated_Source\PSoC5/I2C_MASTER.c **** uint8 I2C_MasterSendStop(void) 
 491:Generated_Source\PSoC5/I2C_MASTER.c **** {
 651              		.loc 1 491 0
 652              		.cfi_startproc
 653              		@ args = 0, pretend = 0, frame = 0
 654              		@ frame_needed = 0, uses_anonymous_args = 0
 655              		@ link register save eliminated.
 656              	.LVL56:
 492:Generated_Source\PSoC5/I2C_MASTER.c ****     uint8 errStatus;
 493:Generated_Source\PSoC5/I2C_MASTER.c **** 
ARM GAS  C:\Users\legoc\AppData\Local\Temp\ccTcE57I.s 			page 23


 494:Generated_Source\PSoC5/I2C_MASTER.c ****     errStatus = I2C_MSTR_NOT_READY;
 495:Generated_Source\PSoC5/I2C_MASTER.c **** 
 496:Generated_Source\PSoC5/I2C_MASTER.c ****     /* Check if master is active on bus */
 497:Generated_Source\PSoC5/I2C_MASTER.c ****     if(I2C_CHECK_MASTER_MODE(I2C_MCSR_REG))
 657              		.loc 1 497 0
 658 0000 0A4B     		ldr	r3, .L87
 659 0002 1A78     		ldrb	r2, [r3]	@ zero_extendqisi2
 660 0004 5207     		lsls	r2, r2, #29
 661 0006 01D4     		bmi	.L86
 494:Generated_Source\PSoC5/I2C_MASTER.c **** 
 662              		.loc 1 494 0
 663 0008 0220     		movs	r0, #2
 664 000a 7047     		bx	lr
 665              	.L86:
 498:Generated_Source\PSoC5/I2C_MASTER.c ****     {
 499:Generated_Source\PSoC5/I2C_MASTER.c ****         I2C_GENERATE_STOP_MANUAL;
 666              		.loc 1 499 0
 667 000c 0848     		ldr	r0, .L87+4
 491:Generated_Source\PSoC5/I2C_MASTER.c ****     uint8 errStatus;
 668              		.loc 1 491 0
 669 000e 30B4     		push	{r4, r5}
 670              		.cfi_def_cfa_offset 8
 671              		.cfi_offset 4, -8
 672              		.cfi_offset 5, -4
 500:Generated_Source\PSoC5/I2C_MASTER.c ****         I2C_state = I2C_SM_IDLE;
 501:Generated_Source\PSoC5/I2C_MASTER.c **** 
 502:Generated_Source\PSoC5/I2C_MASTER.c ****         /* Wait until stop has been generated */
 503:Generated_Source\PSoC5/I2C_MASTER.c ****         while(I2C_WAIT_STOP_COMPLETE(I2C_CSR_REG))
 673              		.loc 1 503 0
 674 0010 0246     		mov	r2, r0
 500:Generated_Source\PSoC5/I2C_MASTER.c ****         I2C_state = I2C_SM_IDLE;
 675              		.loc 1 500 0
 676 0012 084C     		ldr	r4, .L87+8
 499:Generated_Source\PSoC5/I2C_MASTER.c ****         I2C_state = I2C_SM_IDLE;
 677              		.loc 1 499 0
 678 0014 1021     		movs	r1, #16
 679 0016 0425     		movs	r5, #4
 680 0018 1970     		strb	r1, [r3]
 681 001a 0570     		strb	r5, [r0]
 500:Generated_Source\PSoC5/I2C_MASTER.c ****         I2C_state = I2C_SM_IDLE;
 682              		.loc 1 500 0
 683 001c 2170     		strb	r1, [r4]
 684              	.L80:
 685              		.loc 1 503 0 discriminator 1
 686 001e 1378     		ldrb	r3, [r2]	@ zero_extendqisi2
 687 0020 13F0210F 		tst	r3, #33
 688 0024 FBD0     		beq	.L80
 504:Generated_Source\PSoC5/I2C_MASTER.c ****         {
 505:Generated_Source\PSoC5/I2C_MASTER.c ****         }
 506:Generated_Source\PSoC5/I2C_MASTER.c **** 
 507:Generated_Source\PSoC5/I2C_MASTER.c ****         errStatus = I2C_MSTR_NO_ERROR;
 689              		.loc 1 507 0
 690 0026 0020     		movs	r0, #0
 691              	.LVL57:
 508:Generated_Source\PSoC5/I2C_MASTER.c **** 
 509:Generated_Source\PSoC5/I2C_MASTER.c ****     #if(I2C_MODE_MULTI_MASTER_ENABLED)
 510:Generated_Source\PSoC5/I2C_MASTER.c ****         if(I2C_CHECK_LOST_ARB(I2C_CSR_REG))
ARM GAS  C:\Users\legoc\AppData\Local\Temp\ccTcE57I.s 			page 24


 511:Generated_Source\PSoC5/I2C_MASTER.c ****         {
 512:Generated_Source\PSoC5/I2C_MASTER.c ****             I2C_BUS_RELEASE_MANUAL;
 513:Generated_Source\PSoC5/I2C_MASTER.c **** 
 514:Generated_Source\PSoC5/I2C_MASTER.c ****             /* NACK was generated by instead Stop */
 515:Generated_Source\PSoC5/I2C_MASTER.c ****             errStatus = I2C_MSTR_ERR_ARB_LOST;
 516:Generated_Source\PSoC5/I2C_MASTER.c ****         }
 517:Generated_Source\PSoC5/I2C_MASTER.c ****     #endif /* (I2C_MODE_MULTI_MASTER_ENABLED) */
 518:Generated_Source\PSoC5/I2C_MASTER.c ****     }
 519:Generated_Source\PSoC5/I2C_MASTER.c **** 
 520:Generated_Source\PSoC5/I2C_MASTER.c ****     return(errStatus);
 521:Generated_Source\PSoC5/I2C_MASTER.c **** }
 692              		.loc 1 521 0
 693 0028 30BC     		pop	{r4, r5}
 694              		.cfi_restore 5
 695              		.cfi_restore 4
 696              		.cfi_def_cfa_offset 0
 697 002a 7047     		bx	lr
 698              	.L88:
 699              		.align	2
 700              	.L87:
 701 002c D9490040 		.word	1073760729
 702 0030 D7490040 		.word	1073760727
 703 0034 00000000 		.word	I2C_state
 704              		.cfi_endproc
 705              	.LFE4:
 706              		.size	I2C_MasterSendStop, .-I2C_MasterSendStop
 707              		.section	.text.I2C_MasterWriteByte,"ax",%progbits
 708              		.align	2
 709              		.global	I2C_MasterWriteByte
 710              		.thumb
 711              		.thumb_func
 712              		.type	I2C_MasterWriteByte, %function
 713              	I2C_MasterWriteByte:
 714              	.LFB5:
 522:Generated_Source\PSoC5/I2C_MASTER.c **** 
 523:Generated_Source\PSoC5/I2C_MASTER.c **** 
 524:Generated_Source\PSoC5/I2C_MASTER.c **** /*******************************************************************************
 525:Generated_Source\PSoC5/I2C_MASTER.c **** * Function Name: I2C_MasterWriteByte
 526:Generated_Source\PSoC5/I2C_MASTER.c **** ********************************************************************************
 527:Generated_Source\PSoC5/I2C_MASTER.c **** *
 528:Generated_Source\PSoC5/I2C_MASTER.c **** * Summary:
 529:Generated_Source\PSoC5/I2C_MASTER.c **** *  Sends one byte to a slave. A valid Start or ReStart condition must be
 530:Generated_Source\PSoC5/I2C_MASTER.c **** *  generated before this call this function. Function do nothing if Start or
 531:Generated_Source\PSoC5/I2C_MASTER.c **** *  Restart condition was failed before call this function.
 532:Generated_Source\PSoC5/I2C_MASTER.c **** *
 533:Generated_Source\PSoC5/I2C_MASTER.c **** * Parameters:
 534:Generated_Source\PSoC5/I2C_MASTER.c **** *  data:  The data byte to send to the slave.
 535:Generated_Source\PSoC5/I2C_MASTER.c **** *
 536:Generated_Source\PSoC5/I2C_MASTER.c **** * Return:
 537:Generated_Source\PSoC5/I2C_MASTER.c **** *  Status error - Zero means no errors.
 538:Generated_Source\PSoC5/I2C_MASTER.c **** *
 539:Generated_Source\PSoC5/I2C_MASTER.c **** * Side Effects:
 540:Generated_Source\PSoC5/I2C_MASTER.c **** *  This function is entered without a "byte complete" bit set in the I2C_CSR
 541:Generated_Source\PSoC5/I2C_MASTER.c **** *  register. It does not exit until it is set.
 542:Generated_Source\PSoC5/I2C_MASTER.c **** *
 543:Generated_Source\PSoC5/I2C_MASTER.c **** * Global variables:
 544:Generated_Source\PSoC5/I2C_MASTER.c **** *  I2C_state - The global variable used to store a current state of
ARM GAS  C:\Users\legoc\AppData\Local\Temp\ccTcE57I.s 			page 25


 545:Generated_Source\PSoC5/I2C_MASTER.c **** *                           the software FSM.
 546:Generated_Source\PSoC5/I2C_MASTER.c **** *
 547:Generated_Source\PSoC5/I2C_MASTER.c **** *******************************************************************************/
 548:Generated_Source\PSoC5/I2C_MASTER.c **** uint8 I2C_MasterWriteByte(uint8 theByte) 
 549:Generated_Source\PSoC5/I2C_MASTER.c **** {
 715              		.loc 1 549 0
 716              		.cfi_startproc
 717              		@ args = 0, pretend = 0, frame = 0
 718              		@ frame_needed = 0, uses_anonymous_args = 0
 719              		@ link register save eliminated.
 720              	.LVL58:
 550:Generated_Source\PSoC5/I2C_MASTER.c ****     uint8 errStatus;
 551:Generated_Source\PSoC5/I2C_MASTER.c **** 
 552:Generated_Source\PSoC5/I2C_MASTER.c ****     errStatus = I2C_MSTR_NOT_READY;
 553:Generated_Source\PSoC5/I2C_MASTER.c **** 
 554:Generated_Source\PSoC5/I2C_MASTER.c ****     /* Check if START condition was generated */
 555:Generated_Source\PSoC5/I2C_MASTER.c ****     if(I2C_CHECK_MASTER_MODE(I2C_MCSR_REG))
 721              		.loc 1 555 0
 722 0000 114B     		ldr	r3, .L100
 723 0002 1B78     		ldrb	r3, [r3]	@ zero_extendqisi2
 724 0004 5A07     		lsls	r2, r3, #29
 725 0006 01D4     		bmi	.L98
 552:Generated_Source\PSoC5/I2C_MASTER.c **** 
 726              		.loc 1 552 0
 727 0008 0220     		movs	r0, #2
 728              	.LVL59:
 729 000a 7047     		bx	lr
 730              	.LVL60:
 731              	.L98:
 556:Generated_Source\PSoC5/I2C_MASTER.c ****     {
 557:Generated_Source\PSoC5/I2C_MASTER.c ****         I2C_DATA_REG = theByte;   /* Write DATA register */
 558:Generated_Source\PSoC5/I2C_MASTER.c ****         I2C_TRANSMIT_DATA_MANUAL; /* Set transmit mode   */
 732              		.loc 1 558 0
 733 000c 0F4B     		ldr	r3, .L100+4
 549:Generated_Source\PSoC5/I2C_MASTER.c ****     uint8 errStatus;
 734              		.loc 1 549 0
 735 000e 70B4     		push	{r4, r5, r6}
 736              		.cfi_def_cfa_offset 12
 737              		.cfi_offset 4, -12
 738              		.cfi_offset 5, -8
 739              		.cfi_offset 6, -4
 559:Generated_Source\PSoC5/I2C_MASTER.c ****         I2C_state = I2C_SM_MSTR_WR_DATA;
 560:Generated_Source\PSoC5/I2C_MASTER.c **** 
 561:Generated_Source\PSoC5/I2C_MASTER.c ****         /* Wait until data byte has been transmitted */
 562:Generated_Source\PSoC5/I2C_MASTER.c ****         while(I2C_WAIT_BYTE_COMPLETE(I2C_CSR_REG))
 740              		.loc 1 562 0
 741 0010 1946     		mov	r1, r3
 557:Generated_Source\PSoC5/I2C_MASTER.c ****         I2C_TRANSMIT_DATA_MANUAL; /* Set transmit mode   */
 742              		.loc 1 557 0
 743 0012 0F4E     		ldr	r6, .L100+8
 559:Generated_Source\PSoC5/I2C_MASTER.c ****         I2C_state = I2C_SM_MSTR_WR_DATA;
 744              		.loc 1 559 0
 745 0014 0F4C     		ldr	r4, .L100+12
 558:Generated_Source\PSoC5/I2C_MASTER.c ****         I2C_state = I2C_SM_MSTR_WR_DATA;
 746              		.loc 1 558 0
 747 0016 0425     		movs	r5, #4
 559:Generated_Source\PSoC5/I2C_MASTER.c ****         I2C_state = I2C_SM_MSTR_WR_DATA;
ARM GAS  C:\Users\legoc\AppData\Local\Temp\ccTcE57I.s 			page 26


 748              		.loc 1 559 0
 749 0018 4622     		movs	r2, #70
 557:Generated_Source\PSoC5/I2C_MASTER.c ****         I2C_TRANSMIT_DATA_MANUAL; /* Set transmit mode   */
 750              		.loc 1 557 0
 751 001a 3070     		strb	r0, [r6]
 558:Generated_Source\PSoC5/I2C_MASTER.c ****         I2C_state = I2C_SM_MSTR_WR_DATA;
 752              		.loc 1 558 0
 753 001c 1D70     		strb	r5, [r3]
 559:Generated_Source\PSoC5/I2C_MASTER.c ****         I2C_state = I2C_SM_MSTR_WR_DATA;
 754              		.loc 1 559 0
 755 001e 2270     		strb	r2, [r4]
 756              	.L91:
 757              		.loc 1 562 0 discriminator 1
 758 0020 0B78     		ldrb	r3, [r1]	@ zero_extendqisi2
 759 0022 0A4A     		ldr	r2, .L100+4
 760 0024 DB07     		lsls	r3, r3, #31
 761 0026 FBD5     		bpl	.L91
 563:Generated_Source\PSoC5/I2C_MASTER.c ****         {
 564:Generated_Source\PSoC5/I2C_MASTER.c ****         }
 565:Generated_Source\PSoC5/I2C_MASTER.c **** 
 566:Generated_Source\PSoC5/I2C_MASTER.c ****     #if(I2C_MODE_MULTI_MASTER_ENABLED)
 567:Generated_Source\PSoC5/I2C_MASTER.c ****         if(I2C_CHECK_LOST_ARB(I2C_CSR_REG))
 568:Generated_Source\PSoC5/I2C_MASTER.c ****         {
 569:Generated_Source\PSoC5/I2C_MASTER.c ****             I2C_BUS_RELEASE_MANUAL;
 570:Generated_Source\PSoC5/I2C_MASTER.c **** 
 571:Generated_Source\PSoC5/I2C_MASTER.c ****             /* Master lost arbitrage: reset FSM to IDLE */
 572:Generated_Source\PSoC5/I2C_MASTER.c ****             I2C_state = I2C_SM_IDLE;
 573:Generated_Source\PSoC5/I2C_MASTER.c ****             errStatus = I2C_MSTR_ERR_ARB_LOST;
 574:Generated_Source\PSoC5/I2C_MASTER.c ****         }
 575:Generated_Source\PSoC5/I2C_MASTER.c ****         /* Check LRB bit */
 576:Generated_Source\PSoC5/I2C_MASTER.c ****         else
 577:Generated_Source\PSoC5/I2C_MASTER.c ****     #endif /* (I2C_MODE_MULTI_MASTER_ENABLED) */
 578:Generated_Source\PSoC5/I2C_MASTER.c **** 
 579:Generated_Source\PSoC5/I2C_MASTER.c ****         if(I2C_CHECK_DATA_ACK(I2C_CSR_REG))
 762              		.loc 1 579 0
 763 0028 1378     		ldrb	r3, [r2]	@ zero_extendqisi2
 764 002a 03F00203 		and	r3, r3, #2
 765 002e 03F0FF00 		and	r0, r3, #255
 766              	.LVL61:
 767 0032 23B1     		cbz	r3, .L99
 580:Generated_Source\PSoC5/I2C_MASTER.c ****         {
 581:Generated_Source\PSoC5/I2C_MASTER.c ****             I2C_state = I2C_SM_MSTR_HALT;
 582:Generated_Source\PSoC5/I2C_MASTER.c ****             errStatus = I2C_MSTR_NO_ERROR;
 583:Generated_Source\PSoC5/I2C_MASTER.c ****         }
 584:Generated_Source\PSoC5/I2C_MASTER.c ****         else
 585:Generated_Source\PSoC5/I2C_MASTER.c ****         {
 586:Generated_Source\PSoC5/I2C_MASTER.c ****             I2C_state = I2C_SM_MSTR_HALT;
 768              		.loc 1 586 0
 769 0034 6023     		movs	r3, #96
 770 0036 2370     		strb	r3, [r4]
 771              	.LVL62:
 587:Generated_Source\PSoC5/I2C_MASTER.c ****             errStatus = I2C_MSTR_ERR_LB_NAK;
 772              		.loc 1 587 0
 773 0038 0320     		movs	r0, #3
 774              	.LVL63:
 588:Generated_Source\PSoC5/I2C_MASTER.c ****         }
 589:Generated_Source\PSoC5/I2C_MASTER.c ****     }
ARM GAS  C:\Users\legoc\AppData\Local\Temp\ccTcE57I.s 			page 27


 590:Generated_Source\PSoC5/I2C_MASTER.c **** 
 591:Generated_Source\PSoC5/I2C_MASTER.c ****     return(errStatus);
 592:Generated_Source\PSoC5/I2C_MASTER.c **** }
 775              		.loc 1 592 0
 776 003a 70BC     		pop	{r4, r5, r6}
 777              		.cfi_remember_state
 778              		.cfi_restore 6
 779              		.cfi_restore 5
 780              		.cfi_restore 4
 781              		.cfi_def_cfa_offset 0
 782 003c 7047     		bx	lr
 783              	.LVL64:
 784              	.L99:
 785              		.cfi_restore_state
 581:Generated_Source\PSoC5/I2C_MASTER.c ****             errStatus = I2C_MSTR_NO_ERROR;
 786              		.loc 1 581 0
 787 003e 6023     		movs	r3, #96
 788 0040 2370     		strb	r3, [r4]
 789              	.LVL65:
 790              		.loc 1 592 0
 791 0042 70BC     		pop	{r4, r5, r6}
 792              		.cfi_restore 4
 793              		.cfi_restore 5
 794              		.cfi_restore 6
 795              		.cfi_def_cfa_offset 0
 796 0044 7047     		bx	lr
 797              	.L101:
 798 0046 00BF     		.align	2
 799              	.L100:
 800 0048 D9490040 		.word	1073760729
 801 004c D7490040 		.word	1073760727
 802 0050 D8490040 		.word	1073760728
 803 0054 00000000 		.word	I2C_state
 804              		.cfi_endproc
 805              	.LFE5:
 806              		.size	I2C_MasterWriteByte, .-I2C_MasterWriteByte
 807              		.section	.text.I2C_MasterReadByte,"ax",%progbits
 808              		.align	2
 809              		.global	I2C_MasterReadByte
 810              		.thumb
 811              		.thumb_func
 812              		.type	I2C_MasterReadByte, %function
 813              	I2C_MasterReadByte:
 814              	.LFB6:
 593:Generated_Source\PSoC5/I2C_MASTER.c **** 
 594:Generated_Source\PSoC5/I2C_MASTER.c **** 
 595:Generated_Source\PSoC5/I2C_MASTER.c **** /*******************************************************************************
 596:Generated_Source\PSoC5/I2C_MASTER.c **** * Function Name: I2C_MasterReadByte
 597:Generated_Source\PSoC5/I2C_MASTER.c **** ********************************************************************************
 598:Generated_Source\PSoC5/I2C_MASTER.c **** *
 599:Generated_Source\PSoC5/I2C_MASTER.c **** * Summary:
 600:Generated_Source\PSoC5/I2C_MASTER.c **** *  Reads one byte from a slave and ACK or NACK the transfer. A valid Start or
 601:Generated_Source\PSoC5/I2C_MASTER.c **** *  ReStart condition must be generated before this call this function. Function
 602:Generated_Source\PSoC5/I2C_MASTER.c **** *  do nothing if Start or Restart condition was failed before call this
 603:Generated_Source\PSoC5/I2C_MASTER.c **** *  function.
 604:Generated_Source\PSoC5/I2C_MASTER.c **** *
 605:Generated_Source\PSoC5/I2C_MASTER.c **** * Parameters:
ARM GAS  C:\Users\legoc\AppData\Local\Temp\ccTcE57I.s 			page 28


 606:Generated_Source\PSoC5/I2C_MASTER.c **** *  acknNack:  Zero, response with NACK, if non-zero response with ACK.
 607:Generated_Source\PSoC5/I2C_MASTER.c **** *
 608:Generated_Source\PSoC5/I2C_MASTER.c **** * Return:
 609:Generated_Source\PSoC5/I2C_MASTER.c **** *  Byte read from slave.
 610:Generated_Source\PSoC5/I2C_MASTER.c **** *
 611:Generated_Source\PSoC5/I2C_MASTER.c **** * Side Effects:
 612:Generated_Source\PSoC5/I2C_MASTER.c **** *  This function is entered without a "byte complete" bit set in the I2C_CSR
 613:Generated_Source\PSoC5/I2C_MASTER.c **** *  register. It does not exit until it is set.
 614:Generated_Source\PSoC5/I2C_MASTER.c **** *
 615:Generated_Source\PSoC5/I2C_MASTER.c **** * Global variables:
 616:Generated_Source\PSoC5/I2C_MASTER.c **** *  I2C_state - The global variable used to store a current
 617:Generated_Source\PSoC5/I2C_MASTER.c **** *                           state of the software FSM.
 618:Generated_Source\PSoC5/I2C_MASTER.c **** *
 619:Generated_Source\PSoC5/I2C_MASTER.c **** * Reentrant:
 620:Generated_Source\PSoC5/I2C_MASTER.c **** *  No.
 621:Generated_Source\PSoC5/I2C_MASTER.c **** *
 622:Generated_Source\PSoC5/I2C_MASTER.c **** *******************************************************************************/
 623:Generated_Source\PSoC5/I2C_MASTER.c **** uint8 I2C_MasterReadByte(uint8 acknNak) 
 624:Generated_Source\PSoC5/I2C_MASTER.c **** {
 815              		.loc 1 624 0
 816              		.cfi_startproc
 817              		@ args = 0, pretend = 0, frame = 0
 818              		@ frame_needed = 0, uses_anonymous_args = 0
 819              		@ link register save eliminated.
 820              	.LVL66:
 625:Generated_Source\PSoC5/I2C_MASTER.c ****     uint8 theByte;
 626:Generated_Source\PSoC5/I2C_MASTER.c **** 
 627:Generated_Source\PSoC5/I2C_MASTER.c ****     theByte = 0u;
 628:Generated_Source\PSoC5/I2C_MASTER.c **** 
 629:Generated_Source\PSoC5/I2C_MASTER.c ****     /* Check if START condition was generated */
 630:Generated_Source\PSoC5/I2C_MASTER.c ****     if(I2C_CHECK_MASTER_MODE(I2C_MCSR_REG))
 821              		.loc 1 630 0
 822 0000 124B     		ldr	r3, .L114
 823 0002 1B78     		ldrb	r3, [r3]	@ zero_extendqisi2
 824 0004 03F00403 		and	r3, r3, #4
 825 0008 B3B1     		cbz	r3, .L107
 624:Generated_Source\PSoC5/I2C_MASTER.c ****     uint8 theByte;
 826              		.loc 1 624 0
 827 000a 30B4     		push	{r4, r5}
 828              		.cfi_def_cfa_offset 8
 829              		.cfi_offset 4, -8
 830              		.cfi_offset 5, -4
 631:Generated_Source\PSoC5/I2C_MASTER.c ****     {
 632:Generated_Source\PSoC5/I2C_MASTER.c ****         /* When address phase needs to release bus and receive byte,
 633:Generated_Source\PSoC5/I2C_MASTER.c ****         * then decide ACK or NACK
 634:Generated_Source\PSoC5/I2C_MASTER.c ****         */
 635:Generated_Source\PSoC5/I2C_MASTER.c ****         if(I2C_SM_MSTR_RD_ADDR == I2C_state)
 831              		.loc 1 635 0
 832 000c 104C     		ldr	r4, .L114+4
 833 000e 0546     		mov	r5, r0
 834 0010 2378     		ldrb	r3, [r4]	@ zero_extendqisi2
 835 0012 492B     		cmp	r3, #73
 836 0014 14D0     		beq	.L112
 837              	.L104:
 636:Generated_Source\PSoC5/I2C_MASTER.c ****         {
 637:Generated_Source\PSoC5/I2C_MASTER.c ****             I2C_READY_TO_READ_MANUAL;
 638:Generated_Source\PSoC5/I2C_MASTER.c ****             I2C_state = I2C_SM_MSTR_RD_DATA;
ARM GAS  C:\Users\legoc\AppData\Local\Temp\ccTcE57I.s 			page 29


 639:Generated_Source\PSoC5/I2C_MASTER.c ****         }
 640:Generated_Source\PSoC5/I2C_MASTER.c **** 
 641:Generated_Source\PSoC5/I2C_MASTER.c ****         /* Wait until data byte has been received */
 642:Generated_Source\PSoC5/I2C_MASTER.c ****         while(I2C_WAIT_BYTE_COMPLETE(I2C_CSR_REG))
 838              		.loc 1 642 0 discriminator 1
 839 0016 0F4A     		ldr	r2, .L114+8
 840              	.L105:
 841 0018 1378     		ldrb	r3, [r2]	@ zero_extendqisi2
 842 001a 0E49     		ldr	r1, .L114+8
 843 001c DB07     		lsls	r3, r3, #31
 844 001e FBD5     		bpl	.L105
 643:Generated_Source\PSoC5/I2C_MASTER.c ****         {
 644:Generated_Source\PSoC5/I2C_MASTER.c ****         }
 645:Generated_Source\PSoC5/I2C_MASTER.c **** 
 646:Generated_Source\PSoC5/I2C_MASTER.c ****         theByte = I2C_DATA_REG;
 845              		.loc 1 646 0
 846 0020 0D4B     		ldr	r3, .L114+12
 847 0022 1B78     		ldrb	r3, [r3]	@ zero_extendqisi2
 848 0024 D8B2     		uxtb	r0, r3
 849              	.LVL67:
 647:Generated_Source\PSoC5/I2C_MASTER.c **** 
 648:Generated_Source\PSoC5/I2C_MASTER.c ****         /* Command ACK to receive next byte and continue transfer.
 649:Generated_Source\PSoC5/I2C_MASTER.c ****         *  Do nothing for NACK. The NACK will be generated by
 650:Generated_Source\PSoC5/I2C_MASTER.c ****         *  Stop or ReStart routine.
 651:Generated_Source\PSoC5/I2C_MASTER.c ****         */
 652:Generated_Source\PSoC5/I2C_MASTER.c ****         if(acknNak != 0u) /* Generate ACK */
 850              		.loc 1 652 0
 851 0026 1DB9     		cbnz	r5, .L113
 653:Generated_Source\PSoC5/I2C_MASTER.c ****         {
 654:Generated_Source\PSoC5/I2C_MASTER.c ****             I2C_ACK_AND_RECEIVE_MANUAL;
 655:Generated_Source\PSoC5/I2C_MASTER.c ****         }
 656:Generated_Source\PSoC5/I2C_MASTER.c ****         else              /* Do nothing for the follwong NACK */
 657:Generated_Source\PSoC5/I2C_MASTER.c ****         {
 658:Generated_Source\PSoC5/I2C_MASTER.c ****             I2C_state = I2C_SM_MSTR_HALT;
 852              		.loc 1 658 0
 853 0028 6023     		movs	r3, #96
 854 002a 2370     		strb	r3, [r4]
 659:Generated_Source\PSoC5/I2C_MASTER.c ****         }
 660:Generated_Source\PSoC5/I2C_MASTER.c ****     }
 661:Generated_Source\PSoC5/I2C_MASTER.c **** 
 662:Generated_Source\PSoC5/I2C_MASTER.c ****     return(theByte);
 663:Generated_Source\PSoC5/I2C_MASTER.c **** }
 855              		.loc 1 663 0
 856 002c 30BC     		pop	{r4, r5}
 857              		.cfi_remember_state
 858              		.cfi_restore 5
 859              		.cfi_restore 4
 860              		.cfi_def_cfa_offset 0
 861 002e 7047     		bx	lr
 862              	.L113:
 863              		.cfi_restore_state
 654:Generated_Source\PSoC5/I2C_MASTER.c ****         }
 864              		.loc 1 654 0
 865 0030 1023     		movs	r3, #16
 866 0032 0B70     		strb	r3, [r1]
 867              		.loc 1 663 0
 868 0034 30BC     		pop	{r4, r5}
ARM GAS  C:\Users\legoc\AppData\Local\Temp\ccTcE57I.s 			page 30


 869              		.cfi_restore 4
 870              		.cfi_restore 5
 871              		.cfi_def_cfa_offset 0
 872 0036 7047     		bx	lr
 873              	.LVL68:
 874              	.L107:
 875 0038 03F0FF02 		and	r2, r3, #255
 627:Generated_Source\PSoC5/I2C_MASTER.c **** 
 876              		.loc 1 627 0
 877 003c 1046     		mov	r0, r2
 878              	.LVL69:
 879 003e 7047     		bx	lr
 880              	.LVL70:
 881              	.L112:
 882              		.cfi_def_cfa_offset 8
 883              		.cfi_offset 4, -8
 884              		.cfi_offset 5, -4
 637:Generated_Source\PSoC5/I2C_MASTER.c ****             I2C_state = I2C_SM_MSTR_RD_DATA;
 885              		.loc 1 637 0
 886 0040 044A     		ldr	r2, .L114+8
 887 0042 0021     		movs	r1, #0
 638:Generated_Source\PSoC5/I2C_MASTER.c ****         }
 888              		.loc 1 638 0
 889 0044 4A23     		movs	r3, #74
 637:Generated_Source\PSoC5/I2C_MASTER.c ****             I2C_state = I2C_SM_MSTR_RD_DATA;
 890              		.loc 1 637 0
 891 0046 1170     		strb	r1, [r2]
 638:Generated_Source\PSoC5/I2C_MASTER.c ****         }
 892              		.loc 1 638 0
 893 0048 2370     		strb	r3, [r4]
 894 004a E4E7     		b	.L104
 895              	.L115:
 896              		.align	2
 897              	.L114:
 898 004c D9490040 		.word	1073760729
 899 0050 00000000 		.word	I2C_state
 900 0054 D7490040 		.word	1073760727
 901 0058 D8490040 		.word	1073760728
 902              		.cfi_endproc
 903              	.LFE6:
 904              		.size	I2C_MasterReadByte, .-I2C_MasterReadByte
 905              		.section	.text.I2C_MasterStatus,"ax",%progbits
 906              		.align	2
 907              		.global	I2C_MasterStatus
 908              		.thumb
 909              		.thumb_func
 910              		.type	I2C_MasterStatus, %function
 911              	I2C_MasterStatus:
 912              	.LFB7:
 664:Generated_Source\PSoC5/I2C_MASTER.c **** 
 665:Generated_Source\PSoC5/I2C_MASTER.c **** 
 666:Generated_Source\PSoC5/I2C_MASTER.c **** /*******************************************************************************
 667:Generated_Source\PSoC5/I2C_MASTER.c **** * Function Name: I2C_MasterStatus
 668:Generated_Source\PSoC5/I2C_MASTER.c **** ********************************************************************************
 669:Generated_Source\PSoC5/I2C_MASTER.c **** *
 670:Generated_Source\PSoC5/I2C_MASTER.c **** * Summary:
 671:Generated_Source\PSoC5/I2C_MASTER.c **** *  Returns the master's communication status.
ARM GAS  C:\Users\legoc\AppData\Local\Temp\ccTcE57I.s 			page 31


 672:Generated_Source\PSoC5/I2C_MASTER.c **** *
 673:Generated_Source\PSoC5/I2C_MASTER.c **** * Parameters:
 674:Generated_Source\PSoC5/I2C_MASTER.c **** *  None.
 675:Generated_Source\PSoC5/I2C_MASTER.c **** *
 676:Generated_Source\PSoC5/I2C_MASTER.c **** * Return:
 677:Generated_Source\PSoC5/I2C_MASTER.c **** *  Current status of I2C master.
 678:Generated_Source\PSoC5/I2C_MASTER.c **** *
 679:Generated_Source\PSoC5/I2C_MASTER.c **** * Global variables:
 680:Generated_Source\PSoC5/I2C_MASTER.c **** *  I2C_mstrStatus - The global variable used to store a current
 681:Generated_Source\PSoC5/I2C_MASTER.c **** *                                status of the I2C Master.
 682:Generated_Source\PSoC5/I2C_MASTER.c **** *
 683:Generated_Source\PSoC5/I2C_MASTER.c **** *******************************************************************************/
 684:Generated_Source\PSoC5/I2C_MASTER.c **** uint8 I2C_MasterStatus(void) 
 685:Generated_Source\PSoC5/I2C_MASTER.c **** {
 913              		.loc 1 685 0
 914              		.cfi_startproc
 915              		@ args = 0, pretend = 0, frame = 0
 916              		@ frame_needed = 0, uses_anonymous_args = 0
 917              		@ link register save eliminated.
 686:Generated_Source\PSoC5/I2C_MASTER.c ****     uint8 status;
 687:Generated_Source\PSoC5/I2C_MASTER.c **** 
 688:Generated_Source\PSoC5/I2C_MASTER.c ****     I2C_DisableInt(); /* Lock from interrupt */
 918              		.loc 1 688 0
 919 0000 0849     		ldr	r1, .L121
 920 0002 4FF40040 		mov	r0, #32768
 689:Generated_Source\PSoC5/I2C_MASTER.c **** 
 690:Generated_Source\PSoC5/I2C_MASTER.c ****     /* Read master status */
 691:Generated_Source\PSoC5/I2C_MASTER.c ****     status = I2C_mstrStatus;
 921              		.loc 1 691 0
 922 0006 084A     		ldr	r2, .L121+4
 692:Generated_Source\PSoC5/I2C_MASTER.c **** 
 693:Generated_Source\PSoC5/I2C_MASTER.c ****     if (I2C_CHECK_SM_MASTER)
 923              		.loc 1 693 0
 924 0008 084B     		ldr	r3, .L121+8
 688:Generated_Source\PSoC5/I2C_MASTER.c **** 
 925              		.loc 1 688 0
 926 000a 0860     		str	r0, [r1]
 691:Generated_Source\PSoC5/I2C_MASTER.c **** 
 927              		.loc 1 691 0
 928 000c 1078     		ldrb	r0, [r2]	@ zero_extendqisi2
 929              		.loc 1 693 0
 930 000e 1B78     		ldrb	r3, [r3]	@ zero_extendqisi2
 691:Generated_Source\PSoC5/I2C_MASTER.c **** 
 931              		.loc 1 691 0
 932 0010 C0B2     		uxtb	r0, r0
 933              	.LVL71:
 934              		.loc 1 693 0
 935 0012 5B06     		lsls	r3, r3, #25
 694:Generated_Source\PSoC5/I2C_MASTER.c ****     {
 695:Generated_Source\PSoC5/I2C_MASTER.c ****         /* Set transfer in progress flag in status */
 696:Generated_Source\PSoC5/I2C_MASTER.c ****         status |= I2C_MSTAT_XFER_INP;
 697:Generated_Source\PSoC5/I2C_MASTER.c ****     }
 698:Generated_Source\PSoC5/I2C_MASTER.c **** 
 699:Generated_Source\PSoC5/I2C_MASTER.c ****     I2C_EnableInt(); /* Release lock */
 936              		.loc 1 699 0
 937 0014 064B     		ldr	r3, .L121+12
 938 0016 4FF40042 		mov	r2, #32768
ARM GAS  C:\Users\legoc\AppData\Local\Temp\ccTcE57I.s 			page 32


 696:Generated_Source\PSoC5/I2C_MASTER.c ****     }
 939              		.loc 1 696 0
 940 001a 48BF     		it	mi
 941 001c 40F00400 		orrmi	r0, r0, #4
 942              	.LVL72:
 943              		.loc 1 699 0
 944 0020 1A60     		str	r2, [r3]
 700:Generated_Source\PSoC5/I2C_MASTER.c **** 
 701:Generated_Source\PSoC5/I2C_MASTER.c ****     return (status);
 702:Generated_Source\PSoC5/I2C_MASTER.c **** }
 945              		.loc 1 702 0
 946 0022 7047     		bx	lr
 947              	.L122:
 948              		.align	2
 949              	.L121:
 950 0024 80E100E0 		.word	-536813184
 951 0028 00000000 		.word	I2C_mstrStatus
 952 002c 00000000 		.word	I2C_state
 953 0030 00E100E0 		.word	-536813312
 954              		.cfi_endproc
 955              	.LFE7:
 956              		.size	I2C_MasterStatus, .-I2C_MasterStatus
 957              		.section	.text.I2C_MasterClearStatus,"ax",%progbits
 958              		.align	2
 959              		.global	I2C_MasterClearStatus
 960              		.thumb
 961              		.thumb_func
 962              		.type	I2C_MasterClearStatus, %function
 963              	I2C_MasterClearStatus:
 964              	.LFB8:
 703:Generated_Source\PSoC5/I2C_MASTER.c **** 
 704:Generated_Source\PSoC5/I2C_MASTER.c **** 
 705:Generated_Source\PSoC5/I2C_MASTER.c **** /*******************************************************************************
 706:Generated_Source\PSoC5/I2C_MASTER.c **** * Function Name: I2C_MasterClearStatus
 707:Generated_Source\PSoC5/I2C_MASTER.c **** ********************************************************************************
 708:Generated_Source\PSoC5/I2C_MASTER.c **** *
 709:Generated_Source\PSoC5/I2C_MASTER.c **** * Summary:
 710:Generated_Source\PSoC5/I2C_MASTER.c **** *  Clears all status flags and returns the master status.
 711:Generated_Source\PSoC5/I2C_MASTER.c **** *
 712:Generated_Source\PSoC5/I2C_MASTER.c **** * Parameters:
 713:Generated_Source\PSoC5/I2C_MASTER.c **** *  None.
 714:Generated_Source\PSoC5/I2C_MASTER.c **** *
 715:Generated_Source\PSoC5/I2C_MASTER.c **** * Return:
 716:Generated_Source\PSoC5/I2C_MASTER.c **** *  Current status of I2C master.
 717:Generated_Source\PSoC5/I2C_MASTER.c **** *
 718:Generated_Source\PSoC5/I2C_MASTER.c **** * Global variables:
 719:Generated_Source\PSoC5/I2C_MASTER.c **** *  I2C_mstrStatus - The global variable used to store a current
 720:Generated_Source\PSoC5/I2C_MASTER.c **** *                                status of the I2C Master.
 721:Generated_Source\PSoC5/I2C_MASTER.c **** *
 722:Generated_Source\PSoC5/I2C_MASTER.c **** * Reentrant:
 723:Generated_Source\PSoC5/I2C_MASTER.c **** *  No.
 724:Generated_Source\PSoC5/I2C_MASTER.c **** *
 725:Generated_Source\PSoC5/I2C_MASTER.c **** *******************************************************************************/
 726:Generated_Source\PSoC5/I2C_MASTER.c **** uint8 I2C_MasterClearStatus(void) 
 727:Generated_Source\PSoC5/I2C_MASTER.c **** {
 965              		.loc 1 727 0
 966              		.cfi_startproc
ARM GAS  C:\Users\legoc\AppData\Local\Temp\ccTcE57I.s 			page 33


 967              		@ args = 0, pretend = 0, frame = 0
 968              		@ frame_needed = 0, uses_anonymous_args = 0
 969              		@ link register save eliminated.
 970 0000 10B4     		push	{r4}
 971              		.cfi_def_cfa_offset 4
 972              		.cfi_offset 4, -4
 728:Generated_Source\PSoC5/I2C_MASTER.c ****     uint8 status;
 729:Generated_Source\PSoC5/I2C_MASTER.c **** 
 730:Generated_Source\PSoC5/I2C_MASTER.c ****     I2C_DisableInt(); /* Lock from interrupt */
 973              		.loc 1 730 0
 974 0002 0649     		ldr	r1, .L125
 975 0004 4FF40043 		mov	r3, #32768
 731:Generated_Source\PSoC5/I2C_MASTER.c **** 
 732:Generated_Source\PSoC5/I2C_MASTER.c ****     /* Read and clear master status */
 733:Generated_Source\PSoC5/I2C_MASTER.c ****     status = I2C_mstrStatus;
 976              		.loc 1 733 0
 977 0008 054A     		ldr	r2, .L125+4
 730:Generated_Source\PSoC5/I2C_MASTER.c **** 
 978              		.loc 1 730 0
 979 000a 0B60     		str	r3, [r1]
 734:Generated_Source\PSoC5/I2C_MASTER.c ****     I2C_mstrStatus = I2C_MSTAT_CLEAR;
 980              		.loc 1 734 0
 981 000c 0024     		movs	r4, #0
 733:Generated_Source\PSoC5/I2C_MASTER.c ****     I2C_mstrStatus = I2C_MSTAT_CLEAR;
 982              		.loc 1 733 0
 983 000e 1078     		ldrb	r0, [r2]	@ zero_extendqisi2
 984              	.LVL73:
 985              		.loc 1 734 0
 986 0010 1470     		strb	r4, [r2]
 735:Generated_Source\PSoC5/I2C_MASTER.c **** 
 736:Generated_Source\PSoC5/I2C_MASTER.c ****     I2C_EnableInt(); /* Release lock */
 987              		.loc 1 736 0
 988 0012 41F8803C 		str	r3, [r1, #-128]
 737:Generated_Source\PSoC5/I2C_MASTER.c **** 
 738:Generated_Source\PSoC5/I2C_MASTER.c ****     return (status);
 739:Generated_Source\PSoC5/I2C_MASTER.c **** }
 989              		.loc 1 739 0
 990 0016 10BC     		pop	{r4}
 991              		.cfi_restore 4
 992              		.cfi_def_cfa_offset 0
 993 0018 7047     		bx	lr
 994              	.L126:
 995 001a 00BF     		.align	2
 996              	.L125:
 997 001c 80E100E0 		.word	-536813184
 998 0020 00000000 		.word	I2C_mstrStatus
 999              		.cfi_endproc
 1000              	.LFE8:
 1001              		.size	I2C_MasterClearStatus, .-I2C_MasterClearStatus
 1002              		.section	.text.I2C_MasterGetReadBufSize,"ax",%progbits
 1003              		.align	2
 1004              		.global	I2C_MasterGetReadBufSize
 1005              		.thumb
 1006              		.thumb_func
 1007              		.type	I2C_MasterGetReadBufSize, %function
 1008              	I2C_MasterGetReadBufSize:
 1009              	.LFB9:
ARM GAS  C:\Users\legoc\AppData\Local\Temp\ccTcE57I.s 			page 34


 740:Generated_Source\PSoC5/I2C_MASTER.c **** 
 741:Generated_Source\PSoC5/I2C_MASTER.c **** 
 742:Generated_Source\PSoC5/I2C_MASTER.c **** /*******************************************************************************
 743:Generated_Source\PSoC5/I2C_MASTER.c **** * Function Name: I2C_MasterGetReadBufSize
 744:Generated_Source\PSoC5/I2C_MASTER.c **** ********************************************************************************
 745:Generated_Source\PSoC5/I2C_MASTER.c **** *
 746:Generated_Source\PSoC5/I2C_MASTER.c **** * Summary:
 747:Generated_Source\PSoC5/I2C_MASTER.c **** *  Returns the amount of bytes that has been transferred with an
 748:Generated_Source\PSoC5/I2C_MASTER.c **** *  I2C_MasterReadBuf command.
 749:Generated_Source\PSoC5/I2C_MASTER.c **** *
 750:Generated_Source\PSoC5/I2C_MASTER.c **** * Parameters:
 751:Generated_Source\PSoC5/I2C_MASTER.c **** *  None.
 752:Generated_Source\PSoC5/I2C_MASTER.c **** *
 753:Generated_Source\PSoC5/I2C_MASTER.c **** * Return:
 754:Generated_Source\PSoC5/I2C_MASTER.c **** *  Byte count of transfer. If the transfer is not yet complete, it will return
 755:Generated_Source\PSoC5/I2C_MASTER.c **** *  the byte count transferred so far.
 756:Generated_Source\PSoC5/I2C_MASTER.c **** *
 757:Generated_Source\PSoC5/I2C_MASTER.c **** * Global variables:
 758:Generated_Source\PSoC5/I2C_MASTER.c **** *  I2C_mstrRdBufIndex - The global variable stores current index
 759:Generated_Source\PSoC5/I2C_MASTER.c **** *                                    within the master read buffer.
 760:Generated_Source\PSoC5/I2C_MASTER.c **** *
 761:Generated_Source\PSoC5/I2C_MASTER.c **** *******************************************************************************/
 762:Generated_Source\PSoC5/I2C_MASTER.c **** uint8 I2C_MasterGetReadBufSize(void) 
 763:Generated_Source\PSoC5/I2C_MASTER.c **** {
 1010              		.loc 1 763 0
 1011              		.cfi_startproc
 1012              		@ args = 0, pretend = 0, frame = 0
 1013              		@ frame_needed = 0, uses_anonymous_args = 0
 1014              		@ link register save eliminated.
 764:Generated_Source\PSoC5/I2C_MASTER.c ****     return (I2C_mstrRdBufIndex);
 1015              		.loc 1 764 0
 1016 0000 014B     		ldr	r3, .L128
 1017 0002 1878     		ldrb	r0, [r3]	@ zero_extendqisi2
 765:Generated_Source\PSoC5/I2C_MASTER.c **** }
 1018              		.loc 1 765 0
 1019 0004 7047     		bx	lr
 1020              	.L129:
 1021 0006 00BF     		.align	2
 1022              	.L128:
 1023 0008 00000000 		.word	I2C_mstrRdBufIndex
 1024              		.cfi_endproc
 1025              	.LFE9:
 1026              		.size	I2C_MasterGetReadBufSize, .-I2C_MasterGetReadBufSize
 1027              		.section	.text.I2C_MasterGetWriteBufSize,"ax",%progbits
 1028              		.align	2
 1029              		.global	I2C_MasterGetWriteBufSize
 1030              		.thumb
 1031              		.thumb_func
 1032              		.type	I2C_MasterGetWriteBufSize, %function
 1033              	I2C_MasterGetWriteBufSize:
 1034              	.LFB10:
 766:Generated_Source\PSoC5/I2C_MASTER.c **** 
 767:Generated_Source\PSoC5/I2C_MASTER.c **** 
 768:Generated_Source\PSoC5/I2C_MASTER.c **** /*******************************************************************************
 769:Generated_Source\PSoC5/I2C_MASTER.c **** * Function Name: I2C_MasterGetWriteBufSize
 770:Generated_Source\PSoC5/I2C_MASTER.c **** ********************************************************************************
 771:Generated_Source\PSoC5/I2C_MASTER.c **** *
ARM GAS  C:\Users\legoc\AppData\Local\Temp\ccTcE57I.s 			page 35


 772:Generated_Source\PSoC5/I2C_MASTER.c **** * Summary:
 773:Generated_Source\PSoC5/I2C_MASTER.c **** *  Returns the amount of bytes that has been transferred with an
 774:Generated_Source\PSoC5/I2C_MASTER.c **** *  I2C_MasterWriteBuf command.
 775:Generated_Source\PSoC5/I2C_MASTER.c **** *
 776:Generated_Source\PSoC5/I2C_MASTER.c **** * Parameters:
 777:Generated_Source\PSoC5/I2C_MASTER.c **** *  None.
 778:Generated_Source\PSoC5/I2C_MASTER.c **** *
 779:Generated_Source\PSoC5/I2C_MASTER.c **** * Return:
 780:Generated_Source\PSoC5/I2C_MASTER.c **** *  Byte count of transfer. If the transfer is not yet complete, it will return
 781:Generated_Source\PSoC5/I2C_MASTER.c **** *  the byte count transferred so far.
 782:Generated_Source\PSoC5/I2C_MASTER.c **** *
 783:Generated_Source\PSoC5/I2C_MASTER.c **** * Global variables:
 784:Generated_Source\PSoC5/I2C_MASTER.c **** *  I2C_mstrWrBufIndex -  The global variable used to stores current
 785:Generated_Source\PSoC5/I2C_MASTER.c **** *                                     index within master write buffer.
 786:Generated_Source\PSoC5/I2C_MASTER.c **** *
 787:Generated_Source\PSoC5/I2C_MASTER.c **** *******************************************************************************/
 788:Generated_Source\PSoC5/I2C_MASTER.c **** uint8 I2C_MasterGetWriteBufSize(void) 
 789:Generated_Source\PSoC5/I2C_MASTER.c **** {
 1035              		.loc 1 789 0
 1036              		.cfi_startproc
 1037              		@ args = 0, pretend = 0, frame = 0
 1038              		@ frame_needed = 0, uses_anonymous_args = 0
 1039              		@ link register save eliminated.
 790:Generated_Source\PSoC5/I2C_MASTER.c ****     return (I2C_mstrWrBufIndex);
 1040              		.loc 1 790 0
 1041 0000 014B     		ldr	r3, .L131
 1042 0002 1878     		ldrb	r0, [r3]	@ zero_extendqisi2
 791:Generated_Source\PSoC5/I2C_MASTER.c **** }
 1043              		.loc 1 791 0
 1044 0004 7047     		bx	lr
 1045              	.L132:
 1046 0006 00BF     		.align	2
 1047              	.L131:
 1048 0008 00000000 		.word	I2C_mstrWrBufIndex
 1049              		.cfi_endproc
 1050              	.LFE10:
 1051              		.size	I2C_MasterGetWriteBufSize, .-I2C_MasterGetWriteBufSize
 1052              		.section	.text.I2C_MasterClearReadBuf,"ax",%progbits
 1053              		.align	2
 1054              		.global	I2C_MasterClearReadBuf
 1055              		.thumb
 1056              		.thumb_func
 1057              		.type	I2C_MasterClearReadBuf, %function
 1058              	I2C_MasterClearReadBuf:
 1059              	.LFB11:
 792:Generated_Source\PSoC5/I2C_MASTER.c **** 
 793:Generated_Source\PSoC5/I2C_MASTER.c **** 
 794:Generated_Source\PSoC5/I2C_MASTER.c **** /*******************************************************************************
 795:Generated_Source\PSoC5/I2C_MASTER.c **** * Function Name: I2C_MasterClearReadBuf
 796:Generated_Source\PSoC5/I2C_MASTER.c **** ********************************************************************************
 797:Generated_Source\PSoC5/I2C_MASTER.c **** *
 798:Generated_Source\PSoC5/I2C_MASTER.c **** * Summary:
 799:Generated_Source\PSoC5/I2C_MASTER.c **** *  Resets the read buffer pointer back to the first byte in the buffer.
 800:Generated_Source\PSoC5/I2C_MASTER.c **** *
 801:Generated_Source\PSoC5/I2C_MASTER.c **** * Parameters:
 802:Generated_Source\PSoC5/I2C_MASTER.c **** *  None.
 803:Generated_Source\PSoC5/I2C_MASTER.c **** *
ARM GAS  C:\Users\legoc\AppData\Local\Temp\ccTcE57I.s 			page 36


 804:Generated_Source\PSoC5/I2C_MASTER.c **** * Return:
 805:Generated_Source\PSoC5/I2C_MASTER.c **** *  None.
 806:Generated_Source\PSoC5/I2C_MASTER.c **** *
 807:Generated_Source\PSoC5/I2C_MASTER.c **** * Global variables:
 808:Generated_Source\PSoC5/I2C_MASTER.c **** *  I2C_mstrRdBufIndex - The global variable used to stores current
 809:Generated_Source\PSoC5/I2C_MASTER.c **** *                                    index within master read buffer.
 810:Generated_Source\PSoC5/I2C_MASTER.c **** *  I2C_mstrStatus - The global variable used to store a current
 811:Generated_Source\PSoC5/I2C_MASTER.c **** *                                status of the I2C Master.
 812:Generated_Source\PSoC5/I2C_MASTER.c **** *
 813:Generated_Source\PSoC5/I2C_MASTER.c **** * Reentrant:
 814:Generated_Source\PSoC5/I2C_MASTER.c **** *  No.
 815:Generated_Source\PSoC5/I2C_MASTER.c **** *
 816:Generated_Source\PSoC5/I2C_MASTER.c **** *******************************************************************************/
 817:Generated_Source\PSoC5/I2C_MASTER.c **** void I2C_MasterClearReadBuf(void) 
 818:Generated_Source\PSoC5/I2C_MASTER.c **** {
 1060              		.loc 1 818 0
 1061              		.cfi_startproc
 1062              		@ args = 0, pretend = 0, frame = 0
 1063              		@ frame_needed = 0, uses_anonymous_args = 0
 1064              		@ link register save eliminated.
 1065 0000 10B4     		push	{r4}
 1066              		.cfi_def_cfa_offset 4
 1067              		.cfi_offset 4, -4
 819:Generated_Source\PSoC5/I2C_MASTER.c ****     I2C_DisableInt(); /* Lock from interrupt */
 820:Generated_Source\PSoC5/I2C_MASTER.c **** 
 821:Generated_Source\PSoC5/I2C_MASTER.c ****     I2C_mstrRdBufIndex = 0u;
 1068              		.loc 1 821 0
 1069 0002 084B     		ldr	r3, .L135
 819:Generated_Source\PSoC5/I2C_MASTER.c ****     I2C_DisableInt(); /* Lock from interrupt */
 1070              		.loc 1 819 0
 1071 0004 084C     		ldr	r4, .L135+4
 1072 0006 4FF40042 		mov	r2, #32768
 1073              		.loc 1 821 0
 1074 000a 0020     		movs	r0, #0
 822:Generated_Source\PSoC5/I2C_MASTER.c ****     I2C_mstrStatus    &= (uint8) ~I2C_MSTAT_RD_CMPLT;
 1075              		.loc 1 822 0
 1076 000c 0749     		ldr	r1, .L135+8
 819:Generated_Source\PSoC5/I2C_MASTER.c ****     I2C_DisableInt(); /* Lock from interrupt */
 1077              		.loc 1 819 0
 1078 000e 2260     		str	r2, [r4]
 821:Generated_Source\PSoC5/I2C_MASTER.c ****     I2C_mstrStatus    &= (uint8) ~I2C_MSTAT_RD_CMPLT;
 1079              		.loc 1 821 0
 1080 0010 1870     		strb	r0, [r3]
 1081              		.loc 1 822 0
 1082 0012 0B78     		ldrb	r3, [r1]	@ zero_extendqisi2
 823:Generated_Source\PSoC5/I2C_MASTER.c **** 
 824:Generated_Source\PSoC5/I2C_MASTER.c ****     I2C_EnableInt(); /* Release lock */
 1083              		.loc 1 824 0
 1084 0014 0648     		ldr	r0, .L135+12
 822:Generated_Source\PSoC5/I2C_MASTER.c **** 
 1085              		.loc 1 822 0
 1086 0016 03F0FE03 		and	r3, r3, #254
 1087 001a 0B70     		strb	r3, [r1]
 825:Generated_Source\PSoC5/I2C_MASTER.c **** }
 1088              		.loc 1 825 0
 1089 001c 10BC     		pop	{r4}
 1090              		.cfi_restore 4
ARM GAS  C:\Users\legoc\AppData\Local\Temp\ccTcE57I.s 			page 37


 1091              		.cfi_def_cfa_offset 0
 824:Generated_Source\PSoC5/I2C_MASTER.c **** }
 1092              		.loc 1 824 0
 1093 001e 0260     		str	r2, [r0]
 1094              		.loc 1 825 0
 1095 0020 7047     		bx	lr
 1096              	.L136:
 1097 0022 00BF     		.align	2
 1098              	.L135:
 1099 0024 00000000 		.word	I2C_mstrRdBufIndex
 1100 0028 80E100E0 		.word	-536813184
 1101 002c 00000000 		.word	I2C_mstrStatus
 1102 0030 00E100E0 		.word	-536813312
 1103              		.cfi_endproc
 1104              	.LFE11:
 1105              		.size	I2C_MasterClearReadBuf, .-I2C_MasterClearReadBuf
 1106              		.section	.text.I2C_MasterClearWriteBuf,"ax",%progbits
 1107              		.align	2
 1108              		.global	I2C_MasterClearWriteBuf
 1109              		.thumb
 1110              		.thumb_func
 1111              		.type	I2C_MasterClearWriteBuf, %function
 1112              	I2C_MasterClearWriteBuf:
 1113              	.LFB12:
 826:Generated_Source\PSoC5/I2C_MASTER.c **** 
 827:Generated_Source\PSoC5/I2C_MASTER.c **** 
 828:Generated_Source\PSoC5/I2C_MASTER.c **** /*******************************************************************************
 829:Generated_Source\PSoC5/I2C_MASTER.c **** * Function Name: I2C_MasterClearWriteBuf
 830:Generated_Source\PSoC5/I2C_MASTER.c **** ********************************************************************************
 831:Generated_Source\PSoC5/I2C_MASTER.c **** *
 832:Generated_Source\PSoC5/I2C_MASTER.c **** * Summary:
 833:Generated_Source\PSoC5/I2C_MASTER.c **** *  Resets the write buffer pointer back to the first byte in the buffer.
 834:Generated_Source\PSoC5/I2C_MASTER.c **** *
 835:Generated_Source\PSoC5/I2C_MASTER.c **** * Parameters:
 836:Generated_Source\PSoC5/I2C_MASTER.c **** *  None.
 837:Generated_Source\PSoC5/I2C_MASTER.c **** *
 838:Generated_Source\PSoC5/I2C_MASTER.c **** * Return:
 839:Generated_Source\PSoC5/I2C_MASTER.c **** *  None.
 840:Generated_Source\PSoC5/I2C_MASTER.c **** *
 841:Generated_Source\PSoC5/I2C_MASTER.c **** * Global variables:
 842:Generated_Source\PSoC5/I2C_MASTER.c **** *  I2C_mstrRdBufIndex - The global variable used to stote current
 843:Generated_Source\PSoC5/I2C_MASTER.c **** *                                    index within master read buffer.
 844:Generated_Source\PSoC5/I2C_MASTER.c **** *  I2C_mstrStatus - The global variable used to store a current
 845:Generated_Source\PSoC5/I2C_MASTER.c **** *                                status of the I2C Master.
 846:Generated_Source\PSoC5/I2C_MASTER.c **** *
 847:Generated_Source\PSoC5/I2C_MASTER.c **** * Reentrant:
 848:Generated_Source\PSoC5/I2C_MASTER.c **** *  No.
 849:Generated_Source\PSoC5/I2C_MASTER.c **** *
 850:Generated_Source\PSoC5/I2C_MASTER.c **** *******************************************************************************/
 851:Generated_Source\PSoC5/I2C_MASTER.c **** void I2C_MasterClearWriteBuf(void) 
 852:Generated_Source\PSoC5/I2C_MASTER.c **** {
 1114              		.loc 1 852 0
 1115              		.cfi_startproc
 1116              		@ args = 0, pretend = 0, frame = 0
 1117              		@ frame_needed = 0, uses_anonymous_args = 0
 1118              		@ link register save eliminated.
 1119 0000 10B4     		push	{r4}
ARM GAS  C:\Users\legoc\AppData\Local\Temp\ccTcE57I.s 			page 38


 1120              		.cfi_def_cfa_offset 4
 1121              		.cfi_offset 4, -4
 853:Generated_Source\PSoC5/I2C_MASTER.c ****     I2C_DisableInt(); /* Lock from interrupt */
 854:Generated_Source\PSoC5/I2C_MASTER.c **** 
 855:Generated_Source\PSoC5/I2C_MASTER.c ****     I2C_mstrWrBufIndex = 0u;
 1122              		.loc 1 855 0
 1123 0002 084B     		ldr	r3, .L139
 853:Generated_Source\PSoC5/I2C_MASTER.c ****     I2C_DisableInt(); /* Lock from interrupt */
 1124              		.loc 1 853 0
 1125 0004 084C     		ldr	r4, .L139+4
 1126 0006 4FF40042 		mov	r2, #32768
 1127              		.loc 1 855 0
 1128 000a 0020     		movs	r0, #0
 856:Generated_Source\PSoC5/I2C_MASTER.c ****     I2C_mstrStatus    &= (uint8) ~I2C_MSTAT_WR_CMPLT;
 1129              		.loc 1 856 0
 1130 000c 0749     		ldr	r1, .L139+8
 853:Generated_Source\PSoC5/I2C_MASTER.c ****     I2C_DisableInt(); /* Lock from interrupt */
 1131              		.loc 1 853 0
 1132 000e 2260     		str	r2, [r4]
 855:Generated_Source\PSoC5/I2C_MASTER.c ****     I2C_mstrStatus    &= (uint8) ~I2C_MSTAT_WR_CMPLT;
 1133              		.loc 1 855 0
 1134 0010 1870     		strb	r0, [r3]
 1135              		.loc 1 856 0
 1136 0012 0B78     		ldrb	r3, [r1]	@ zero_extendqisi2
 857:Generated_Source\PSoC5/I2C_MASTER.c **** 
 858:Generated_Source\PSoC5/I2C_MASTER.c ****     I2C_EnableInt(); /* Release lock */
 1137              		.loc 1 858 0
 1138 0014 0648     		ldr	r0, .L139+12
 856:Generated_Source\PSoC5/I2C_MASTER.c **** 
 1139              		.loc 1 856 0
 1140 0016 03F0FD03 		and	r3, r3, #253
 1141 001a 0B70     		strb	r3, [r1]
 859:Generated_Source\PSoC5/I2C_MASTER.c **** }
 1142              		.loc 1 859 0
 1143 001c 10BC     		pop	{r4}
 1144              		.cfi_restore 4
 1145              		.cfi_def_cfa_offset 0
 858:Generated_Source\PSoC5/I2C_MASTER.c **** }
 1146              		.loc 1 858 0
 1147 001e 0260     		str	r2, [r0]
 1148              		.loc 1 859 0
 1149 0020 7047     		bx	lr
 1150              	.L140:
 1151 0022 00BF     		.align	2
 1152              	.L139:
 1153 0024 00000000 		.word	I2C_mstrWrBufIndex
 1154 0028 80E100E0 		.word	-536813184
 1155 002c 00000000 		.word	I2C_mstrStatus
 1156 0030 00E100E0 		.word	-536813312
 1157              		.cfi_endproc
 1158              	.LFE12:
 1159              		.size	I2C_MasterClearWriteBuf, .-I2C_MasterClearWriteBuf
 1160              		.comm	I2C_mstrWrBufIndex,1,1
 1161              		.comm	I2C_mstrWrBufSize,1,1
 1162              		.comm	I2C_mstrWrBufPtr,4,4
 1163              		.comm	I2C_mstrRdBufIndex,1,1
 1164              		.comm	I2C_mstrRdBufSize,1,1
ARM GAS  C:\Users\legoc\AppData\Local\Temp\ccTcE57I.s 			page 39


 1165              		.comm	I2C_mstrRdBufPtr,4,4
 1166              		.comm	I2C_mstrControl,1,1
 1167              		.comm	I2C_mstrStatus,1,1
 1168              		.text
 1169              	.Letext0:
 1170              		.file 2 "Generated_Source\\PSoC5\\cytypes.h"
 1171              		.file 3 "Generated_Source\\PSoC5\\I2C_PVT.h"