ARM GAS  C:\Users\legoc\AppData\Local\Temp\ccet5rOG.s 			page 1


   1              		.syntax unified
   2              		.cpu cortex-m3
   3              		.fpu softvfp
   4              		.eabi_attribute 20, 1
   5              		.eabi_attribute 21, 1
   6              		.eabi_attribute 23, 3
   7              		.eabi_attribute 24, 1
   8              		.eabi_attribute 25, 1
   9              		.eabi_attribute 26, 1
  10              		.eabi_attribute 30, 2
  11              		.eabi_attribute 34, 1
  12              		.eabi_attribute 18, 4
  13              		.thumb
  14              		.syntax unified
  15              		.file	"isr.c"
  16              		.text
  17              	.Ltext0:
  18              		.cfi_sections	.debug_frame
  19              		.section	.text.isr_Interrupt,"ax",%progbits
  20              		.align	2
  21              		.global	isr_Interrupt
  22              		.thumb
  23              		.thumb_func
  24              		.type	isr_Interrupt, %function
  25              	isr_Interrupt:
  26              	.LFB5:
  27              		.file 1 "Generated_Source\\PSoC5\\isr.c"
   1:Generated_Source\PSoC5/isr.c **** /*******************************************************************************
   2:Generated_Source\PSoC5/isr.c **** * File Name: isr.c  
   3:Generated_Source\PSoC5/isr.c **** * Version 1.70
   4:Generated_Source\PSoC5/isr.c **** *
   5:Generated_Source\PSoC5/isr.c **** *  Description:
   6:Generated_Source\PSoC5/isr.c **** *   API for controlling the state of an interrupt.
   7:Generated_Source\PSoC5/isr.c **** *
   8:Generated_Source\PSoC5/isr.c **** *
   9:Generated_Source\PSoC5/isr.c **** *  Note:
  10:Generated_Source\PSoC5/isr.c **** *
  11:Generated_Source\PSoC5/isr.c **** ********************************************************************************
  12:Generated_Source\PSoC5/isr.c **** * Copyright 2008-2015, Cypress Semiconductor Corporation.  All rights reserved.
  13:Generated_Source\PSoC5/isr.c **** * You may use this file only in accordance with the license, terms, conditions, 
  14:Generated_Source\PSoC5/isr.c **** * disclaimers, and limitations in the end user license agreement accompanying 
  15:Generated_Source\PSoC5/isr.c **** * the software package with which this file was provided.
  16:Generated_Source\PSoC5/isr.c **** *******************************************************************************/
  17:Generated_Source\PSoC5/isr.c **** 
  18:Generated_Source\PSoC5/isr.c **** 
  19:Generated_Source\PSoC5/isr.c **** #include <cydevice_trm.h>
  20:Generated_Source\PSoC5/isr.c **** #include <CyLib.h>
  21:Generated_Source\PSoC5/isr.c **** #include <isr.h>
  22:Generated_Source\PSoC5/isr.c **** #include "cyapicallbacks.h"
  23:Generated_Source\PSoC5/isr.c **** 
  24:Generated_Source\PSoC5/isr.c **** #include "screen.h"
  25:Generated_Source\PSoC5/isr.c **** #include "strings.h"
  26:Generated_Source\PSoC5/isr.c **** #include "string.h"
  27:Generated_Source\PSoC5/isr.c **** #include "stdio.h"
  28:Generated_Source\PSoC5/isr.c **** #include "stdlib.h"
  29:Generated_Source\PSoC5/isr.c **** #include "math.h"
  30:Generated_Source\PSoC5/isr.c **** #include "I2C.h"
ARM GAS  C:\Users\legoc\AppData\Local\Temp\ccet5rOG.s 			page 2


  31:Generated_Source\PSoC5/isr.c **** 
  32:Generated_Source\PSoC5/isr.c **** #define FT6206_ADDR             0x38
  33:Generated_Source\PSoC5/isr.c **** #define Read_Register_X_1         0x03
  34:Generated_Source\PSoC5/isr.c **** #define Read_Register_X_2         0x04
  35:Generated_Source\PSoC5/isr.c **** #define Read_Register_Y_1         0x05
  36:Generated_Source\PSoC5/isr.c **** #define Read_Register_Y_2         0x06
  37:Generated_Source\PSoC5/isr.c **** #define WRITE                   0
  38:Generated_Source\PSoC5/isr.c **** #define READ                    1
  39:Generated_Source\PSoC5/isr.c **** #define X                       1
  40:Generated_Source\PSoC5/isr.c **** #define Y                       0
  41:Generated_Source\PSoC5/isr.c **** 
  42:Generated_Source\PSoC5/isr.c **** #if !defined(isr__REMOVED) /* Check for removal by optimization */
  43:Generated_Source\PSoC5/isr.c **** 
  44:Generated_Source\PSoC5/isr.c **** /*******************************************************************************
  45:Generated_Source\PSoC5/isr.c **** *  Place your includes, defines and code here 
  46:Generated_Source\PSoC5/isr.c **** ********************************************************************************/
  47:Generated_Source\PSoC5/isr.c **** /* `#START isr_intc` */
  48:Generated_Source\PSoC5/isr.c **** 
  49:Generated_Source\PSoC5/isr.c **** /* `#END` */
  50:Generated_Source\PSoC5/isr.c **** 
  51:Generated_Source\PSoC5/isr.c **** #ifndef CYINT_IRQ_BASE
  52:Generated_Source\PSoC5/isr.c **** #define CYINT_IRQ_BASE      16
  53:Generated_Source\PSoC5/isr.c **** #endif /* CYINT_IRQ_BASE */
  54:Generated_Source\PSoC5/isr.c **** #ifndef CYINT_VECT_TABLE
  55:Generated_Source\PSoC5/isr.c **** #define CYINT_VECT_TABLE    ((cyisraddress **) CYREG_NVIC_VECT_OFFSET)
  56:Generated_Source\PSoC5/isr.c **** #endif /* CYINT_VECT_TABLE */
  57:Generated_Source\PSoC5/isr.c **** 
  58:Generated_Source\PSoC5/isr.c **** /* Declared in startup, used to set unused interrupts to. */
  59:Generated_Source\PSoC5/isr.c **** CY_ISR_PROTO(IntDefaultHandler);
  60:Generated_Source\PSoC5/isr.c **** 
  61:Generated_Source\PSoC5/isr.c **** 
  62:Generated_Source\PSoC5/isr.c **** /*******************************************************************************
  63:Generated_Source\PSoC5/isr.c **** * Function Name: isr_Start
  64:Generated_Source\PSoC5/isr.c **** ********************************************************************************
  65:Generated_Source\PSoC5/isr.c **** *
  66:Generated_Source\PSoC5/isr.c **** * Summary:
  67:Generated_Source\PSoC5/isr.c **** *  Set up the interrupt and enable it. This function disables the interrupt, 
  68:Generated_Source\PSoC5/isr.c **** *  sets the default interrupt vector, sets the priority from the value in the
  69:Generated_Source\PSoC5/isr.c **** *  Design Wide Resources Interrupt Editor, then enables the interrupt to the 
  70:Generated_Source\PSoC5/isr.c **** *  interrupt controller.
  71:Generated_Source\PSoC5/isr.c **** *
  72:Generated_Source\PSoC5/isr.c **** * Parameters:  
  73:Generated_Source\PSoC5/isr.c **** *   None
  74:Generated_Source\PSoC5/isr.c **** *
  75:Generated_Source\PSoC5/isr.c **** * Return:
  76:Generated_Source\PSoC5/isr.c **** *   None
  77:Generated_Source\PSoC5/isr.c **** *
  78:Generated_Source\PSoC5/isr.c **** *******************************************************************************/
  79:Generated_Source\PSoC5/isr.c **** void isr_Start(void)
  80:Generated_Source\PSoC5/isr.c **** {
  81:Generated_Source\PSoC5/isr.c ****     /* For all we know the interrupt is active. */
  82:Generated_Source\PSoC5/isr.c ****     isr_Disable();
  83:Generated_Source\PSoC5/isr.c **** 
  84:Generated_Source\PSoC5/isr.c ****     /* Set the ISR to point to the isr Interrupt. */
  85:Generated_Source\PSoC5/isr.c ****     isr_SetVector(&isr_Interrupt);
  86:Generated_Source\PSoC5/isr.c **** 
  87:Generated_Source\PSoC5/isr.c ****     /* Set the priority. */
ARM GAS  C:\Users\legoc\AppData\Local\Temp\ccet5rOG.s 			page 3


  88:Generated_Source\PSoC5/isr.c ****     isr_SetPriority((uint8)isr_INTC_PRIOR_NUMBER);
  89:Generated_Source\PSoC5/isr.c **** 
  90:Generated_Source\PSoC5/isr.c ****     /* Enable it. */
  91:Generated_Source\PSoC5/isr.c ****     isr_Enable();
  92:Generated_Source\PSoC5/isr.c **** }
  93:Generated_Source\PSoC5/isr.c **** 
  94:Generated_Source\PSoC5/isr.c **** 
  95:Generated_Source\PSoC5/isr.c **** /*******************************************************************************
  96:Generated_Source\PSoC5/isr.c **** * Function Name: isr_StartEx
  97:Generated_Source\PSoC5/isr.c **** ********************************************************************************
  98:Generated_Source\PSoC5/isr.c **** *
  99:Generated_Source\PSoC5/isr.c **** * Summary:
 100:Generated_Source\PSoC5/isr.c **** *  Sets up the interrupt and enables it. This function disables the interrupt,
 101:Generated_Source\PSoC5/isr.c **** *  sets the interrupt vector based on the address passed in, sets the priority 
 102:Generated_Source\PSoC5/isr.c **** *  from the value in the Design Wide Resources Interrupt Editor, then enables 
 103:Generated_Source\PSoC5/isr.c **** *  the interrupt to the interrupt controller.
 104:Generated_Source\PSoC5/isr.c **** *  
 105:Generated_Source\PSoC5/isr.c **** *  When defining ISR functions, the CY_ISR and CY_ISR_PROTO macros should be 
 106:Generated_Source\PSoC5/isr.c **** *  used to provide consistent definition across compilers:
 107:Generated_Source\PSoC5/isr.c **** *  
 108:Generated_Source\PSoC5/isr.c **** *  Function definition example:
 109:Generated_Source\PSoC5/isr.c **** *   CY_ISR(MyISR)
 110:Generated_Source\PSoC5/isr.c **** *   {
 111:Generated_Source\PSoC5/isr.c **** *   }
 112:Generated_Source\PSoC5/isr.c **** *   Function prototype example:
 113:Generated_Source\PSoC5/isr.c **** *   CY_ISR_PROTO(MyISR);
 114:Generated_Source\PSoC5/isr.c **** *
 115:Generated_Source\PSoC5/isr.c **** * Parameters:  
 116:Generated_Source\PSoC5/isr.c **** *   address: Address of the ISR to set in the interrupt vector table.
 117:Generated_Source\PSoC5/isr.c **** *
 118:Generated_Source\PSoC5/isr.c **** * Return:
 119:Generated_Source\PSoC5/isr.c **** *   None
 120:Generated_Source\PSoC5/isr.c **** *
 121:Generated_Source\PSoC5/isr.c **** *******************************************************************************/
 122:Generated_Source\PSoC5/isr.c **** void isr_StartEx(cyisraddress address)
 123:Generated_Source\PSoC5/isr.c **** {
 124:Generated_Source\PSoC5/isr.c ****     /* For all we know the interrupt is active. */
 125:Generated_Source\PSoC5/isr.c ****     isr_Disable();
 126:Generated_Source\PSoC5/isr.c **** 
 127:Generated_Source\PSoC5/isr.c ****     /* Set the ISR to point to the isr Interrupt. */
 128:Generated_Source\PSoC5/isr.c ****     isr_SetVector(address);
 129:Generated_Source\PSoC5/isr.c **** 
 130:Generated_Source\PSoC5/isr.c ****     /* Set the priority. */
 131:Generated_Source\PSoC5/isr.c ****     isr_SetPriority((uint8)isr_INTC_PRIOR_NUMBER);
 132:Generated_Source\PSoC5/isr.c **** 
 133:Generated_Source\PSoC5/isr.c ****     /* Enable it. */
 134:Generated_Source\PSoC5/isr.c ****     isr_Enable();
 135:Generated_Source\PSoC5/isr.c **** }
 136:Generated_Source\PSoC5/isr.c **** 
 137:Generated_Source\PSoC5/isr.c **** 
 138:Generated_Source\PSoC5/isr.c **** /*******************************************************************************
 139:Generated_Source\PSoC5/isr.c **** * Function Name: isr_Stop
 140:Generated_Source\PSoC5/isr.c **** ********************************************************************************
 141:Generated_Source\PSoC5/isr.c **** *
 142:Generated_Source\PSoC5/isr.c **** * Summary:
 143:Generated_Source\PSoC5/isr.c **** *   Disables and removes the interrupt.
 144:Generated_Source\PSoC5/isr.c **** *
ARM GAS  C:\Users\legoc\AppData\Local\Temp\ccet5rOG.s 			page 4


 145:Generated_Source\PSoC5/isr.c **** * Parameters:  
 146:Generated_Source\PSoC5/isr.c **** *   None
 147:Generated_Source\PSoC5/isr.c **** *
 148:Generated_Source\PSoC5/isr.c **** * Return:
 149:Generated_Source\PSoC5/isr.c **** *   None
 150:Generated_Source\PSoC5/isr.c **** *
 151:Generated_Source\PSoC5/isr.c **** *******************************************************************************/
 152:Generated_Source\PSoC5/isr.c **** void isr_Stop(void)
 153:Generated_Source\PSoC5/isr.c **** {
 154:Generated_Source\PSoC5/isr.c ****     /* Disable this interrupt. */
 155:Generated_Source\PSoC5/isr.c ****     isr_Disable();
 156:Generated_Source\PSoC5/isr.c **** 
 157:Generated_Source\PSoC5/isr.c ****     /* Set the ISR to point to the passive one. */
 158:Generated_Source\PSoC5/isr.c ****     isr_SetVector(&IntDefaultHandler);
 159:Generated_Source\PSoC5/isr.c **** }
 160:Generated_Source\PSoC5/isr.c **** 
 161:Generated_Source\PSoC5/isr.c **** uint16_t get_touch(uint8_t touch_type)
 162:Generated_Source\PSoC5/isr.c **** {
 163:Generated_Source\PSoC5/isr.c ****     uint16_t data_rec[2];
 164:Generated_Source\PSoC5/isr.c ****     uint16_t touch;
 165:Generated_Source\PSoC5/isr.c ****     uint8_t reg_1;
 166:Generated_Source\PSoC5/isr.c ****     uint8_t reg_2;
 167:Generated_Source\PSoC5/isr.c ****     
 168:Generated_Source\PSoC5/isr.c ****     if(touch_type == 0)
 169:Generated_Source\PSoC5/isr.c ****     {
 170:Generated_Source\PSoC5/isr.c ****         reg_1 = Read_Register_X_1;
 171:Generated_Source\PSoC5/isr.c ****         reg_2 = Read_Register_X_2;
 172:Generated_Source\PSoC5/isr.c ****     }
 173:Generated_Source\PSoC5/isr.c ****     else if(touch_type == 1)
 174:Generated_Source\PSoC5/isr.c ****     {
 175:Generated_Source\PSoC5/isr.c ****         reg_1 = Read_Register_Y_1;
 176:Generated_Source\PSoC5/isr.c ****         reg_2 = Read_Register_Y_2;
 177:Generated_Source\PSoC5/isr.c ****     }
 178:Generated_Source\PSoC5/isr.c ****     
 179:Generated_Source\PSoC5/isr.c ****     I2C_Start();
 180:Generated_Source\PSoC5/isr.c ****     
 181:Generated_Source\PSoC5/isr.c ****     I2C_MasterSendStart(FT6206_ADDR, WRITE);
 182:Generated_Source\PSoC5/isr.c ****     
 183:Generated_Source\PSoC5/isr.c ****     I2C_MasterWriteByte(reg_1);
 184:Generated_Source\PSoC5/isr.c ****     
 185:Generated_Source\PSoC5/isr.c ****     I2C_MasterSendRestart(FT6206_ADDR, READ);
 186:Generated_Source\PSoC5/isr.c ****     
 187:Generated_Source\PSoC5/isr.c ****     data_rec[0] = I2C_MasterReadByte(I2C_NAK_DATA);
 188:Generated_Source\PSoC5/isr.c ****     
 189:Generated_Source\PSoC5/isr.c ****     I2C_MasterSendStop();
 190:Generated_Source\PSoC5/isr.c ****     
 191:Generated_Source\PSoC5/isr.c ****     I2C_MasterSendStart(FT6206_ADDR, WRITE);
 192:Generated_Source\PSoC5/isr.c ****     
 193:Generated_Source\PSoC5/isr.c ****     I2C_MasterWriteByte(reg_2);
 194:Generated_Source\PSoC5/isr.c ****     
 195:Generated_Source\PSoC5/isr.c ****     I2C_MasterSendRestart(FT6206_ADDR, READ);
 196:Generated_Source\PSoC5/isr.c ****     
 197:Generated_Source\PSoC5/isr.c ****     data_rec[1] = I2C_MasterReadByte(I2C_NAK_DATA);
 198:Generated_Source\PSoC5/isr.c ****     
 199:Generated_Source\PSoC5/isr.c ****     I2C_MasterSendStop();
 200:Generated_Source\PSoC5/isr.c ****     
 201:Generated_Source\PSoC5/isr.c ****     I2C_Stop();
ARM GAS  C:\Users\legoc\AppData\Local\Temp\ccet5rOG.s 			page 5


 202:Generated_Source\PSoC5/isr.c ****     
 203:Generated_Source\PSoC5/isr.c ****     touch = ((data_rec[0] << 8) & 0x0F00) | (data_rec[1] & 0x00FF);
 204:Generated_Source\PSoC5/isr.c ****     
 205:Generated_Source\PSoC5/isr.c ****     return touch;
 206:Generated_Source\PSoC5/isr.c **** }
 207:Generated_Source\PSoC5/isr.c **** 
 208:Generated_Source\PSoC5/isr.c **** /*******************************************************************************
 209:Generated_Source\PSoC5/isr.c **** * Function Name: isr_Interrupt
 210:Generated_Source\PSoC5/isr.c **** ********************************************************************************
 211:Generated_Source\PSoC5/isr.c **** *
 212:Generated_Source\PSoC5/isr.c **** * Summary:
 213:Generated_Source\PSoC5/isr.c **** *   The default Interrupt Service Routine for isr.
 214:Generated_Source\PSoC5/isr.c **** *
 215:Generated_Source\PSoC5/isr.c **** *   Add custom code between the coments to keep the next version of this file
 216:Generated_Source\PSoC5/isr.c **** *   from over writting your code.
 217:Generated_Source\PSoC5/isr.c **** *
 218:Generated_Source\PSoC5/isr.c **** * Parameters:  
 219:Generated_Source\PSoC5/isr.c **** *
 220:Generated_Source\PSoC5/isr.c **** * Return:
 221:Generated_Source\PSoC5/isr.c **** *   None
 222:Generated_Source\PSoC5/isr.c **** *
 223:Generated_Source\PSoC5/isr.c **** *******************************************************************************/
 224:Generated_Source\PSoC5/isr.c **** CY_ISR(isr_Interrupt)
 225:Generated_Source\PSoC5/isr.c **** {
  28              		.loc 1 225 0
  29              		.cfi_startproc
  30              		@ args = 0, pretend = 0, frame = 24
  31              		@ frame_needed = 0, uses_anonymous_args = 0
  32              	.LVL0:
  33 0000 2DE9F041 		push	{r4, r5, r6, r7, r8, lr}
  34              		.cfi_def_cfa_offset 24
  35              		.cfi_offset 4, -24
  36              		.cfi_offset 5, -20
  37              		.cfi_offset 6, -16
  38              		.cfi_offset 7, -12
  39              		.cfi_offset 8, -8
  40              		.cfi_offset 14, -4
  41 0004 88B0     		sub	sp, sp, #32
  42              		.cfi_def_cfa_offset 56
  43              	.LBB36:
  44              	.LBB37:
 179:Generated_Source\PSoC5/isr.c ****     
  45              		.loc 1 179 0
  46 0006 FFF7FEFF 		bl	I2C_Start
  47              	.LVL1:
 181:Generated_Source\PSoC5/isr.c ****     
  48              		.loc 1 181 0
  49 000a 0021     		movs	r1, #0
  50 000c 3820     		movs	r0, #56
  51 000e FFF7FEFF 		bl	I2C_MasterSendStart
  52              	.LVL2:
 183:Generated_Source\PSoC5/isr.c ****     
  53              		.loc 1 183 0
  54 0012 0520     		movs	r0, #5
  55 0014 FFF7FEFF 		bl	I2C_MasterWriteByte
  56              	.LVL3:
 185:Generated_Source\PSoC5/isr.c ****     
ARM GAS  C:\Users\legoc\AppData\Local\Temp\ccet5rOG.s 			page 6


  57              		.loc 1 185 0
  58 0018 0121     		movs	r1, #1
  59 001a 3820     		movs	r0, #56
  60 001c FFF7FEFF 		bl	I2C_MasterSendRestart
  61              	.LVL4:
 187:Generated_Source\PSoC5/isr.c ****     
  62              		.loc 1 187 0
  63 0020 0020     		movs	r0, #0
  64 0022 FFF7FEFF 		bl	I2C_MasterReadByte
  65              	.LVL5:
  66 0026 0446     		mov	r4, r0
  67              	.LVL6:
 189:Generated_Source\PSoC5/isr.c ****     
  68              		.loc 1 189 0
  69 0028 FFF7FEFF 		bl	I2C_MasterSendStop
  70              	.LVL7:
 191:Generated_Source\PSoC5/isr.c ****     
  71              		.loc 1 191 0
  72 002c 0021     		movs	r1, #0
  73 002e 3820     		movs	r0, #56
  74 0030 FFF7FEFF 		bl	I2C_MasterSendStart
  75              	.LVL8:
 193:Generated_Source\PSoC5/isr.c ****     
  76              		.loc 1 193 0
  77 0034 0620     		movs	r0, #6
  78 0036 FFF7FEFF 		bl	I2C_MasterWriteByte
  79              	.LVL9:
 195:Generated_Source\PSoC5/isr.c ****     
  80              		.loc 1 195 0
  81 003a 0121     		movs	r1, #1
  82 003c 3820     		movs	r0, #56
  83 003e FFF7FEFF 		bl	I2C_MasterSendRestart
  84              	.LVL10:
 197:Generated_Source\PSoC5/isr.c ****     
  85              		.loc 1 197 0
  86 0042 0020     		movs	r0, #0
  87 0044 FFF7FEFF 		bl	I2C_MasterReadByte
  88              	.LVL11:
  89 0048 0546     		mov	r5, r0
  90              	.LVL12:
 199:Generated_Source\PSoC5/isr.c ****     
  91              		.loc 1 199 0
  92 004a FFF7FEFF 		bl	I2C_MasterSendStop
  93              	.LVL13:
 201:Generated_Source\PSoC5/isr.c ****     
  94              		.loc 1 201 0
  95 004e FFF7FEFF 		bl	I2C_Stop
  96              	.LVL14:
  97              	.LBE37:
  98              	.LBE36:
  99              	.LBB41:
 100              	.LBB42:
 179:Generated_Source\PSoC5/isr.c ****     
 101              		.loc 1 179 0
 102 0052 FFF7FEFF 		bl	I2C_Start
 103              	.LVL15:
 181:Generated_Source\PSoC5/isr.c ****     
ARM GAS  C:\Users\legoc\AppData\Local\Temp\ccet5rOG.s 			page 7


 104              		.loc 1 181 0
 105 0056 0021     		movs	r1, #0
 106 0058 3820     		movs	r0, #56
 107 005a FFF7FEFF 		bl	I2C_MasterSendStart
 108              	.LVL16:
 183:Generated_Source\PSoC5/isr.c ****     
 109              		.loc 1 183 0
 110 005e 0320     		movs	r0, #3
 111 0060 FFF7FEFF 		bl	I2C_MasterWriteByte
 112              	.LVL17:
 185:Generated_Source\PSoC5/isr.c ****     
 113              		.loc 1 185 0
 114 0064 0121     		movs	r1, #1
 115 0066 3820     		movs	r0, #56
 116 0068 FFF7FEFF 		bl	I2C_MasterSendRestart
 117              	.LVL18:
 187:Generated_Source\PSoC5/isr.c ****     
 118              		.loc 1 187 0
 119 006c 0020     		movs	r0, #0
 120 006e FFF7FEFF 		bl	I2C_MasterReadByte
 121              	.LVL19:
 122              	.LBE42:
 123              	.LBE41:
 124              	.LBB48:
 125              	.LBB38:
 203:Generated_Source\PSoC5/isr.c ****     
 126              		.loc 1 203 0
 127 0072 2402     		lsls	r4, r4, #8
 128              	.LVL20:
 129 0074 04F47064 		and	r4, r4, #3840
 130 0078 2C43     		orrs	r4, r4, r5
 131              	.LBE38:
 132              	.LBE48:
 133              	.LBB49:
 134              	.LBB43:
 187:Generated_Source\PSoC5/isr.c ****     
 135              		.loc 1 187 0
 136 007a 0546     		mov	r5, r0
 137              	.LVL21:
 189:Generated_Source\PSoC5/isr.c ****     
 138              		.loc 1 189 0
 139 007c FFF7FEFF 		bl	I2C_MasterSendStop
 140              	.LVL22:
 191:Generated_Source\PSoC5/isr.c ****     
 141              		.loc 1 191 0
 142 0080 0021     		movs	r1, #0
 143 0082 3820     		movs	r0, #56
 144 0084 FFF7FEFF 		bl	I2C_MasterSendStart
 145              	.LVL23:
 193:Generated_Source\PSoC5/isr.c ****     
 146              		.loc 1 193 0
 147 0088 0420     		movs	r0, #4
 148 008a FFF7FEFF 		bl	I2C_MasterWriteByte
 149              	.LVL24:
 195:Generated_Source\PSoC5/isr.c ****     
 150              		.loc 1 195 0
 151 008e 0121     		movs	r1, #1
ARM GAS  C:\Users\legoc\AppData\Local\Temp\ccet5rOG.s 			page 8


 152 0090 3820     		movs	r0, #56
 153 0092 FFF7FEFF 		bl	I2C_MasterSendRestart
 154              	.LVL25:
 197:Generated_Source\PSoC5/isr.c ****     
 155              		.loc 1 197 0
 156 0096 0020     		movs	r0, #0
 157 0098 FFF7FEFF 		bl	I2C_MasterReadByte
 158              	.LVL26:
 159              	.LBE43:
 160              	.LBE49:
 161              	.LBB50:
 162              	.LBB39:
 203:Generated_Source\PSoC5/isr.c ****     
 163              		.loc 1 203 0
 164 009c 27B2     		sxth	r7, r4
 165              	.LVL27:
 166              	.LBE39:
 167              	.LBE50:
 168              	.LBB51:
 169              	.LBB44:
 197:Generated_Source\PSoC5/isr.c ****     
 170              		.loc 1 197 0
 171 009e 0446     		mov	r4, r0
 172              	.LVL28:
 173              	.LBE44:
 174              	.LBE51:
 226:Generated_Source\PSoC5/isr.c ****     #ifdef isr_INTERRUPT_INTERRUPT_CALLBACK
 227:Generated_Source\PSoC5/isr.c ****         isr_Interrupt_InterruptCallback();
 228:Generated_Source\PSoC5/isr.c ****     #endif /* isr_INTERRUPT_INTERRUPT_CALLBACK */ 
 229:Generated_Source\PSoC5/isr.c **** 
 230:Generated_Source\PSoC5/isr.c ****     /*  Place your Interrupt code here. */
 231:Generated_Source\PSoC5/isr.c ****     
 232:Generated_Source\PSoC5/isr.c ****     uint16_t touch_x = get_touch(X);
 233:Generated_Source\PSoC5/isr.c ****     uint16_t touch_y = get_touch(Y);
 234:Generated_Source\PSoC5/isr.c ****     
 235:Generated_Source\PSoC5/isr.c ****     if(screen_state == 0)
 175              		.loc 1 235 0
 176 00a0 3E4E     		ldr	r6, .L8
 177              	.LBB52:
 178              	.LBB45:
 203:Generated_Source\PSoC5/isr.c ****     
 179              		.loc 1 203 0
 180 00a2 2D02     		lsls	r5, r5, #8
 181              	.LVL29:
 199:Generated_Source\PSoC5/isr.c ****     
 182              		.loc 1 199 0
 183 00a4 FFF7FEFF 		bl	I2C_MasterSendStop
 184              	.LVL30:
 203:Generated_Source\PSoC5/isr.c ****     
 185              		.loc 1 203 0
 186 00a8 05F47065 		and	r5, r5, #3840
 201:Generated_Source\PSoC5/isr.c ****     
 187              		.loc 1 201 0
 188 00ac FFF7FEFF 		bl	I2C_Stop
 189              	.LVL31:
 190              	.LBE45:
 191              	.LBE52:
ARM GAS  C:\Users\legoc\AppData\Local\Temp\ccet5rOG.s 			page 9


 192              		.loc 1 235 0
 193 00b0 D6F80080 		ldr	r8, [r6]
 194              	.LBB53:
 195              	.LBB46:
 203:Generated_Source\PSoC5/isr.c ****     
 196              		.loc 1 203 0
 197 00b4 2C43     		orrs	r4, r4, r5
 198              	.LVL32:
 199 00b6 24B2     		sxth	r4, r4
 200              	.LVL33:
 201              	.LBE46:
 202              	.LBE53:
 203              		.loc 1 235 0
 204 00b8 B8F1000F 		cmp	r8, #0
 205 00bc 42D1     		bne	.L2
 206              	.LBB54:
 207              	.LBB40:
 203:Generated_Source\PSoC5/isr.c ****     
 208              		.loc 1 203 0
 209 00be BFB2     		uxth	r7, r7
 210              	.LBE40:
 211              	.LBE54:
 236:Generated_Source\PSoC5/isr.c ****     {
 237:Generated_Source\PSoC5/isr.c ****         if(touch_x>=35 && touch_x<=283 && touch_y>=111 && touch_y<=129)
 212              		.loc 1 237 0
 213 00c0 A7F12303 		sub	r3, r7, #35
 214 00c4 F82B     		cmp	r3, #248
 215 00c6 37D8     		bhi	.L3
 216              	.LBB55:
 217              	.LBB47:
 203:Generated_Source\PSoC5/isr.c ****     
 218              		.loc 1 203 0 discriminator 1
 219 00c8 A4B2     		uxth	r4, r4
 220              	.LBE47:
 221              	.LBE55:
 222              		.loc 1 237 0 discriminator 1
 223 00ca A4F16F03 		sub	r3, r4, #111
 224 00ce 122B     		cmp	r3, #18
 225 00d0 32D8     		bhi	.L3
 226              	.LBB56:
 238:Generated_Source\PSoC5/isr.c ****         {
 239:Generated_Source\PSoC5/isr.c ****             fill_screen(BLACK);
 227              		.loc 1 239 0
 228 00d2 4046     		mov	r0, r8
 229 00d4 FFF7FEFF 		bl	fill_screen
 230              	.LVL34:
 240:Generated_Source\PSoC5/isr.c ****             
 241:Generated_Source\PSoC5/isr.c ****             screen_state = 1;
 231              		.loc 1 241 0
 232 00d8 0123     		movs	r3, #1
 242:Generated_Source\PSoC5/isr.c ****             
 243:Generated_Source\PSoC5/isr.c ****             char x_touch[10];
 244:Generated_Source\PSoC5/isr.c ****             char y_touch[10];
 245:Generated_Source\PSoC5/isr.c **** 
 246:Generated_Source\PSoC5/isr.c ****             itoa(touch_x, x_touch, 10);
 233              		.loc 1 246 0
 234 00da 02A9     		add	r1, sp, #8
ARM GAS  C:\Users\legoc\AppData\Local\Temp\ccet5rOG.s 			page 10


 235 00dc 0A22     		movs	r2, #10
 236 00de 3846     		mov	r0, r7
 241:Generated_Source\PSoC5/isr.c ****             
 237              		.loc 1 241 0
 238 00e0 3360     		str	r3, [r6]
 239              		.loc 1 246 0
 240 00e2 FFF7FEFF 		bl	itoa
 241              	.LVL35:
 247:Generated_Source\PSoC5/isr.c ****             itoa(touch_y, y_touch, 10);
 242              		.loc 1 247 0
 243 00e6 05A9     		add	r1, sp, #20
 244 00e8 0A22     		movs	r2, #10
 245 00ea 2046     		mov	r0, r4
 246 00ec FFF7FEFF 		bl	itoa
 247              	.LVL36:
 248:Generated_Source\PSoC5/isr.c ****             
 249:Generated_Source\PSoC5/isr.c ****             draw_string(100,110,WHITE,x_touch);
 248              		.loc 1 249 0
 249 00f0 02AB     		add	r3, sp, #8
 250 00f2 4FF6FF72 		movw	r2, #65535
 251 00f6 6E21     		movs	r1, #110
 252 00f8 6420     		movs	r0, #100
 253 00fa FFF7FEFF 		bl	draw_string
 254              	.LVL37:
 250:Generated_Source\PSoC5/isr.c ****             draw_string(100,100,WHITE,y_touch);
 255              		.loc 1 250 0
 256 00fe 6421     		movs	r1, #100
 257 0100 05AB     		add	r3, sp, #20
 258 0102 0846     		mov	r0, r1
 259 0104 4FF6FF72 		movw	r2, #65535
 260 0108 FFF7FEFF 		bl	draw_string
 261              	.LVL38:
 251:Generated_Source\PSoC5/isr.c ****             
 252:Generated_Source\PSoC5/isr.c ****             draw_string(100,200,WHITE,"TOUCH COORDINATES");
 262              		.loc 1 252 0
 263 010c 244B     		ldr	r3, .L8+4
 264 010e 4FF6FF72 		movw	r2, #65535
 265 0112 C821     		movs	r1, #200
 266 0114 6420     		movs	r0, #100
 267 0116 FFF7FEFF 		bl	draw_string
 268              	.LVL39:
 253:Generated_Source\PSoC5/isr.c ****             
 254:Generated_Source\PSoC5/isr.c ****             fill_rect(0,0,50,30,WHITE);
 269              		.loc 1 254 0
 270 011a 4FF6FF72 		movw	r2, #65535
 271 011e 1E23     		movs	r3, #30
 272 0120 0092     		str	r2, [sp]
 273 0122 4146     		mov	r1, r8
 274 0124 3222     		movs	r2, #50
 275 0126 4046     		mov	r0, r8
 276 0128 FFF7FEFF 		bl	fill_rect
 277              	.LVL40:
 255:Generated_Source\PSoC5/isr.c ****             
 256:Generated_Source\PSoC5/isr.c ****             draw_string(10,15,BLACK,"RETURN");
 278              		.loc 1 256 0
 279 012c 4246     		mov	r2, r8
 280 012e 1D4B     		ldr	r3, .L8+8
ARM GAS  C:\Users\legoc\AppData\Local\Temp\ccet5rOG.s 			page 11


 281 0130 0F21     		movs	r1, #15
 282 0132 0A20     		movs	r0, #10
 283 0134 FFF7FEFF 		bl	draw_string
 284              	.LVL41:
 285              	.L3:
 286              	.LBE56:
 287              	.LBB57:
 288              	.LBB58:
 257:Generated_Source\PSoC5/isr.c ****         }
 258:Generated_Source\PSoC5/isr.c ****     }
 259:Generated_Source\PSoC5/isr.c ****     else if(screen_state == 1)
 260:Generated_Source\PSoC5/isr.c ****     {
 261:Generated_Source\PSoC5/isr.c ****         if(touch_x>=0 && touch_x<=50 && touch_y>=0 && touch_y<=30)
 262:Generated_Source\PSoC5/isr.c ****         {
 263:Generated_Source\PSoC5/isr.c ****             draw_choose_screen();
 264:Generated_Source\PSoC5/isr.c ****         }
 265:Generated_Source\PSoC5/isr.c ****         else
 266:Generated_Source\PSoC5/isr.c ****         {
 267:Generated_Source\PSoC5/isr.c ****             fill_rect(95,95,30,30,BLACK);
 268:Generated_Source\PSoC5/isr.c ****             
 269:Generated_Source\PSoC5/isr.c ****             char x_touch[10];
 270:Generated_Source\PSoC5/isr.c ****             char y_touch[10];
 271:Generated_Source\PSoC5/isr.c **** 
 272:Generated_Source\PSoC5/isr.c ****             itoa(touch_x, x_touch, 10);
 273:Generated_Source\PSoC5/isr.c ****             itoa(touch_y, y_touch, 10);
 274:Generated_Source\PSoC5/isr.c ****             
 275:Generated_Source\PSoC5/isr.c ****             draw_string(100,110,WHITE,x_touch);
 276:Generated_Source\PSoC5/isr.c ****             draw_string(100,100,WHITE,y_touch);
 277:Generated_Source\PSoC5/isr.c ****         }
 278:Generated_Source\PSoC5/isr.c ****     }
 279:Generated_Source\PSoC5/isr.c ****         
 280:Generated_Source\PSoC5/isr.c ****     isr_ClearPending();
 281:Generated_Source\PSoC5/isr.c ****     
 282:Generated_Source\PSoC5/isr.c ****     /* `#START isr_Interrupt` */
 283:Generated_Source\PSoC5/isr.c **** 
 284:Generated_Source\PSoC5/isr.c ****     /* `#END` */
 285:Generated_Source\PSoC5/isr.c **** }
 286:Generated_Source\PSoC5/isr.c **** 
 287:Generated_Source\PSoC5/isr.c **** 
 288:Generated_Source\PSoC5/isr.c **** /*******************************************************************************
 289:Generated_Source\PSoC5/isr.c **** * Function Name: isr_SetVector
 290:Generated_Source\PSoC5/isr.c **** ********************************************************************************
 291:Generated_Source\PSoC5/isr.c **** *
 292:Generated_Source\PSoC5/isr.c **** * Summary:
 293:Generated_Source\PSoC5/isr.c **** *   Change the ISR vector for the Interrupt. Note calling isr_Start
 294:Generated_Source\PSoC5/isr.c **** *   will override any effect this method would have had. To set the vector 
 295:Generated_Source\PSoC5/isr.c **** *   before the component has been started use isr_StartEx instead.
 296:Generated_Source\PSoC5/isr.c **** * 
 297:Generated_Source\PSoC5/isr.c **** *   When defining ISR functions, the CY_ISR and CY_ISR_PROTO macros should be 
 298:Generated_Source\PSoC5/isr.c **** *   used to provide consistent definition across compilers:
 299:Generated_Source\PSoC5/isr.c **** *
 300:Generated_Source\PSoC5/isr.c **** *   Function definition example:
 301:Generated_Source\PSoC5/isr.c **** *   CY_ISR(MyISR)
 302:Generated_Source\PSoC5/isr.c **** *   {
 303:Generated_Source\PSoC5/isr.c **** *   }
 304:Generated_Source\PSoC5/isr.c **** *
 305:Generated_Source\PSoC5/isr.c **** *   Function prototype example:
ARM GAS  C:\Users\legoc\AppData\Local\Temp\ccet5rOG.s 			page 12


 306:Generated_Source\PSoC5/isr.c **** *     CY_ISR_PROTO(MyISR);
 307:Generated_Source\PSoC5/isr.c **** *
 308:Generated_Source\PSoC5/isr.c **** * Parameters:
 309:Generated_Source\PSoC5/isr.c **** *   address: Address of the ISR to set in the interrupt vector table.
 310:Generated_Source\PSoC5/isr.c **** *
 311:Generated_Source\PSoC5/isr.c **** * Return:
 312:Generated_Source\PSoC5/isr.c **** *   None
 313:Generated_Source\PSoC5/isr.c **** *
 314:Generated_Source\PSoC5/isr.c **** *******************************************************************************/
 315:Generated_Source\PSoC5/isr.c **** void isr_SetVector(cyisraddress address)
 316:Generated_Source\PSoC5/isr.c **** {
 317:Generated_Source\PSoC5/isr.c ****     cyisraddress * ramVectorTable;
 318:Generated_Source\PSoC5/isr.c **** 
 319:Generated_Source\PSoC5/isr.c ****     ramVectorTable = (cyisraddress *) *CYINT_VECT_TABLE;
 320:Generated_Source\PSoC5/isr.c **** 
 321:Generated_Source\PSoC5/isr.c ****     ramVectorTable[CYINT_IRQ_BASE + (uint32)isr__INTC_NUMBER] = address;
 322:Generated_Source\PSoC5/isr.c **** }
 323:Generated_Source\PSoC5/isr.c **** 
 324:Generated_Source\PSoC5/isr.c **** 
 325:Generated_Source\PSoC5/isr.c **** /*******************************************************************************
 326:Generated_Source\PSoC5/isr.c **** * Function Name: isr_GetVector
 327:Generated_Source\PSoC5/isr.c **** ********************************************************************************
 328:Generated_Source\PSoC5/isr.c **** *
 329:Generated_Source\PSoC5/isr.c **** * Summary:
 330:Generated_Source\PSoC5/isr.c **** *   Gets the "address" of the current ISR vector for the Interrupt.
 331:Generated_Source\PSoC5/isr.c **** *
 332:Generated_Source\PSoC5/isr.c **** * Parameters:
 333:Generated_Source\PSoC5/isr.c **** *   None
 334:Generated_Source\PSoC5/isr.c **** *
 335:Generated_Source\PSoC5/isr.c **** * Return:
 336:Generated_Source\PSoC5/isr.c **** *   Address of the ISR in the interrupt vector table.
 337:Generated_Source\PSoC5/isr.c **** *
 338:Generated_Source\PSoC5/isr.c **** *******************************************************************************/
 339:Generated_Source\PSoC5/isr.c **** cyisraddress isr_GetVector(void)
 340:Generated_Source\PSoC5/isr.c **** {
 341:Generated_Source\PSoC5/isr.c ****     cyisraddress * ramVectorTable;
 342:Generated_Source\PSoC5/isr.c **** 
 343:Generated_Source\PSoC5/isr.c ****     ramVectorTable = (cyisraddress *) *CYINT_VECT_TABLE;
 344:Generated_Source\PSoC5/isr.c **** 
 345:Generated_Source\PSoC5/isr.c ****     return ramVectorTable[CYINT_IRQ_BASE + (uint32)isr__INTC_NUMBER];
 346:Generated_Source\PSoC5/isr.c **** }
 347:Generated_Source\PSoC5/isr.c **** 
 348:Generated_Source\PSoC5/isr.c **** 
 349:Generated_Source\PSoC5/isr.c **** /*******************************************************************************
 350:Generated_Source\PSoC5/isr.c **** * Function Name: isr_SetPriority
 351:Generated_Source\PSoC5/isr.c **** ********************************************************************************
 352:Generated_Source\PSoC5/isr.c **** *
 353:Generated_Source\PSoC5/isr.c **** * Summary:
 354:Generated_Source\PSoC5/isr.c **** *   Sets the Priority of the Interrupt. 
 355:Generated_Source\PSoC5/isr.c **** *
 356:Generated_Source\PSoC5/isr.c **** *   Note calling isr_Start or isr_StartEx will 
 357:Generated_Source\PSoC5/isr.c **** *   override any effect this API would have had. This API should only be called
 358:Generated_Source\PSoC5/isr.c **** *   after isr_Start or isr_StartEx has been called. 
 359:Generated_Source\PSoC5/isr.c **** *   To set the initial priority for the component, use the Design-Wide Resources
 360:Generated_Source\PSoC5/isr.c **** *   Interrupt Editor.
 361:Generated_Source\PSoC5/isr.c **** *
 362:Generated_Source\PSoC5/isr.c **** *   Note This API has no effect on Non-maskable interrupt NMI).
ARM GAS  C:\Users\legoc\AppData\Local\Temp\ccet5rOG.s 			page 13


 363:Generated_Source\PSoC5/isr.c **** *
 364:Generated_Source\PSoC5/isr.c **** * Parameters:
 365:Generated_Source\PSoC5/isr.c **** *   priority: Priority of the interrupt, 0 being the highest priority
 366:Generated_Source\PSoC5/isr.c **** *             PSoC 3 and PSoC 5LP: Priority is from 0 to 7.
 367:Generated_Source\PSoC5/isr.c **** *             PSoC 4: Priority is from 0 to 3.
 368:Generated_Source\PSoC5/isr.c **** *
 369:Generated_Source\PSoC5/isr.c **** * Return:
 370:Generated_Source\PSoC5/isr.c **** *   None
 371:Generated_Source\PSoC5/isr.c **** *
 372:Generated_Source\PSoC5/isr.c **** *******************************************************************************/
 373:Generated_Source\PSoC5/isr.c **** void isr_SetPriority(uint8 priority)
 374:Generated_Source\PSoC5/isr.c **** {
 375:Generated_Source\PSoC5/isr.c ****     *isr_INTC_PRIOR = priority << 5;
 376:Generated_Source\PSoC5/isr.c **** }
 377:Generated_Source\PSoC5/isr.c **** 
 378:Generated_Source\PSoC5/isr.c **** 
 379:Generated_Source\PSoC5/isr.c **** /*******************************************************************************
 380:Generated_Source\PSoC5/isr.c **** * Function Name: isr_GetPriority
 381:Generated_Source\PSoC5/isr.c **** ********************************************************************************
 382:Generated_Source\PSoC5/isr.c **** *
 383:Generated_Source\PSoC5/isr.c **** * Summary:
 384:Generated_Source\PSoC5/isr.c **** *   Gets the Priority of the Interrupt.
 385:Generated_Source\PSoC5/isr.c **** *
 386:Generated_Source\PSoC5/isr.c **** * Parameters:
 387:Generated_Source\PSoC5/isr.c **** *   None
 388:Generated_Source\PSoC5/isr.c **** *
 389:Generated_Source\PSoC5/isr.c **** * Return:
 390:Generated_Source\PSoC5/isr.c **** *   Priority of the interrupt, 0 being the highest priority
 391:Generated_Source\PSoC5/isr.c **** *    PSoC 3 and PSoC 5LP: Priority is from 0 to 7.
 392:Generated_Source\PSoC5/isr.c **** *    PSoC 4: Priority is from 0 to 3.
 393:Generated_Source\PSoC5/isr.c **** *
 394:Generated_Source\PSoC5/isr.c **** *******************************************************************************/
 395:Generated_Source\PSoC5/isr.c **** uint8 isr_GetPriority(void)
 396:Generated_Source\PSoC5/isr.c **** {
 397:Generated_Source\PSoC5/isr.c ****     uint8 priority;
 398:Generated_Source\PSoC5/isr.c **** 
 399:Generated_Source\PSoC5/isr.c **** 
 400:Generated_Source\PSoC5/isr.c ****     priority = *isr_INTC_PRIOR >> 5;
 401:Generated_Source\PSoC5/isr.c **** 
 402:Generated_Source\PSoC5/isr.c ****     return priority;
 403:Generated_Source\PSoC5/isr.c **** }
 404:Generated_Source\PSoC5/isr.c **** 
 405:Generated_Source\PSoC5/isr.c **** 
 406:Generated_Source\PSoC5/isr.c **** /*******************************************************************************
 407:Generated_Source\PSoC5/isr.c **** * Function Name: isr_Enable
 408:Generated_Source\PSoC5/isr.c **** ********************************************************************************
 409:Generated_Source\PSoC5/isr.c **** *
 410:Generated_Source\PSoC5/isr.c **** * Summary:
 411:Generated_Source\PSoC5/isr.c **** *   Enables the interrupt to the interrupt controller. Do not call this function
 412:Generated_Source\PSoC5/isr.c **** *   unless ISR_Start() has been called or the functionality of the ISR_Start() 
 413:Generated_Source\PSoC5/isr.c **** *   function, which sets the vector and the priority, has been called.
 414:Generated_Source\PSoC5/isr.c **** *
 415:Generated_Source\PSoC5/isr.c **** * Parameters:
 416:Generated_Source\PSoC5/isr.c **** *   None
 417:Generated_Source\PSoC5/isr.c **** *
 418:Generated_Source\PSoC5/isr.c **** * Return:
 419:Generated_Source\PSoC5/isr.c **** *   None
ARM GAS  C:\Users\legoc\AppData\Local\Temp\ccet5rOG.s 			page 14


 420:Generated_Source\PSoC5/isr.c **** *
 421:Generated_Source\PSoC5/isr.c **** *******************************************************************************/
 422:Generated_Source\PSoC5/isr.c **** void isr_Enable(void)
 423:Generated_Source\PSoC5/isr.c **** {
 424:Generated_Source\PSoC5/isr.c ****     /* Enable the general interrupt. */
 425:Generated_Source\PSoC5/isr.c ****     *isr_INTC_SET_EN = isr__INTC_MASK;
 426:Generated_Source\PSoC5/isr.c **** }
 427:Generated_Source\PSoC5/isr.c **** 
 428:Generated_Source\PSoC5/isr.c **** 
 429:Generated_Source\PSoC5/isr.c **** /*******************************************************************************
 430:Generated_Source\PSoC5/isr.c **** * Function Name: isr_GetState
 431:Generated_Source\PSoC5/isr.c **** ********************************************************************************
 432:Generated_Source\PSoC5/isr.c **** *
 433:Generated_Source\PSoC5/isr.c **** * Summary:
 434:Generated_Source\PSoC5/isr.c **** *   Gets the state (enabled, disabled) of the Interrupt.
 435:Generated_Source\PSoC5/isr.c **** *
 436:Generated_Source\PSoC5/isr.c **** * Parameters:
 437:Generated_Source\PSoC5/isr.c **** *   None
 438:Generated_Source\PSoC5/isr.c **** *
 439:Generated_Source\PSoC5/isr.c **** * Return:
 440:Generated_Source\PSoC5/isr.c **** *   1 if enabled, 0 if disabled.
 441:Generated_Source\PSoC5/isr.c **** *
 442:Generated_Source\PSoC5/isr.c **** *******************************************************************************/
 443:Generated_Source\PSoC5/isr.c **** uint8 isr_GetState(void)
 444:Generated_Source\PSoC5/isr.c **** {
 445:Generated_Source\PSoC5/isr.c ****     /* Get the state of the general interrupt. */
 446:Generated_Source\PSoC5/isr.c ****     return ((*isr_INTC_SET_EN & (uint32)isr__INTC_MASK) != 0u) ? 1u:0u;
 447:Generated_Source\PSoC5/isr.c **** }
 448:Generated_Source\PSoC5/isr.c **** 
 449:Generated_Source\PSoC5/isr.c **** 
 450:Generated_Source\PSoC5/isr.c **** /*******************************************************************************
 451:Generated_Source\PSoC5/isr.c **** * Function Name: isr_Disable
 452:Generated_Source\PSoC5/isr.c **** ********************************************************************************
 453:Generated_Source\PSoC5/isr.c **** *
 454:Generated_Source\PSoC5/isr.c **** * Summary:
 455:Generated_Source\PSoC5/isr.c **** *   Disables the Interrupt in the interrupt controller.
 456:Generated_Source\PSoC5/isr.c **** *
 457:Generated_Source\PSoC5/isr.c **** * Parameters:
 458:Generated_Source\PSoC5/isr.c **** *   None
 459:Generated_Source\PSoC5/isr.c **** *
 460:Generated_Source\PSoC5/isr.c **** * Return:
 461:Generated_Source\PSoC5/isr.c **** *   None
 462:Generated_Source\PSoC5/isr.c **** *
 463:Generated_Source\PSoC5/isr.c **** *******************************************************************************/
 464:Generated_Source\PSoC5/isr.c **** void isr_Disable(void)
 465:Generated_Source\PSoC5/isr.c **** {
 466:Generated_Source\PSoC5/isr.c ****     /* Disable the general interrupt. */
 467:Generated_Source\PSoC5/isr.c ****     *isr_INTC_CLR_EN = isr__INTC_MASK;
 468:Generated_Source\PSoC5/isr.c **** }
 469:Generated_Source\PSoC5/isr.c **** 
 470:Generated_Source\PSoC5/isr.c **** 
 471:Generated_Source\PSoC5/isr.c **** /*******************************************************************************
 472:Generated_Source\PSoC5/isr.c **** * Function Name: isr_SetPending
 473:Generated_Source\PSoC5/isr.c **** ********************************************************************************
 474:Generated_Source\PSoC5/isr.c **** *
 475:Generated_Source\PSoC5/isr.c **** * Summary:
 476:Generated_Source\PSoC5/isr.c **** *   Causes the Interrupt to enter the pending state, a software method of
ARM GAS  C:\Users\legoc\AppData\Local\Temp\ccet5rOG.s 			page 15


 477:Generated_Source\PSoC5/isr.c **** *   generating the interrupt.
 478:Generated_Source\PSoC5/isr.c **** *
 479:Generated_Source\PSoC5/isr.c **** * Parameters:
 480:Generated_Source\PSoC5/isr.c **** *   None
 481:Generated_Source\PSoC5/isr.c **** *
 482:Generated_Source\PSoC5/isr.c **** * Return:
 483:Generated_Source\PSoC5/isr.c **** *   None
 484:Generated_Source\PSoC5/isr.c **** *
 485:Generated_Source\PSoC5/isr.c **** * Side Effects:
 486:Generated_Source\PSoC5/isr.c **** *   If interrupts are enabled and the interrupt is set up properly, the ISR is
 487:Generated_Source\PSoC5/isr.c **** *   entered (depending on the priority of this interrupt and other pending 
 488:Generated_Source\PSoC5/isr.c **** *   interrupts).
 489:Generated_Source\PSoC5/isr.c **** *
 490:Generated_Source\PSoC5/isr.c **** *******************************************************************************/
 491:Generated_Source\PSoC5/isr.c **** void isr_SetPending(void)
 492:Generated_Source\PSoC5/isr.c **** {
 493:Generated_Source\PSoC5/isr.c ****     *isr_INTC_SET_PD = isr__INTC_MASK;
 494:Generated_Source\PSoC5/isr.c **** }
 495:Generated_Source\PSoC5/isr.c **** 
 496:Generated_Source\PSoC5/isr.c **** 
 497:Generated_Source\PSoC5/isr.c **** /*******************************************************************************
 498:Generated_Source\PSoC5/isr.c **** * Function Name: isr_ClearPending
 499:Generated_Source\PSoC5/isr.c **** ********************************************************************************
 500:Generated_Source\PSoC5/isr.c **** *
 501:Generated_Source\PSoC5/isr.c **** * Summary:
 502:Generated_Source\PSoC5/isr.c **** *   Clears a pending interrupt in the interrupt controller.
 503:Generated_Source\PSoC5/isr.c **** *
 504:Generated_Source\PSoC5/isr.c **** *   Note Some interrupt sources are clear-on-read and require the block 
 505:Generated_Source\PSoC5/isr.c **** *   interrupt/status register to be read/cleared with the appropriate block API 
 506:Generated_Source\PSoC5/isr.c **** *   (GPIO, UART, and so on). Otherwise the ISR will continue to remain in 
 507:Generated_Source\PSoC5/isr.c **** *   pending state even though the interrupt itself is cleared using this API.
 508:Generated_Source\PSoC5/isr.c **** *
 509:Generated_Source\PSoC5/isr.c **** * Parameters:
 510:Generated_Source\PSoC5/isr.c **** *   None
 511:Generated_Source\PSoC5/isr.c **** *
 512:Generated_Source\PSoC5/isr.c **** * Return:
 513:Generated_Source\PSoC5/isr.c **** *   None
 514:Generated_Source\PSoC5/isr.c **** *
 515:Generated_Source\PSoC5/isr.c **** *******************************************************************************/
 516:Generated_Source\PSoC5/isr.c **** void isr_ClearPending(void)
 517:Generated_Source\PSoC5/isr.c **** {
 518:Generated_Source\PSoC5/isr.c ****     *isr_INTC_CLR_PD = isr__INTC_MASK;
 289              		.loc 1 518 0
 290 0138 1B4B     		ldr	r3, .L8+12
 291 013a 0222     		movs	r2, #2
 292 013c 1A60     		str	r2, [r3]
 293              	.LBE58:
 294              	.LBE57:
 285:Generated_Source\PSoC5/isr.c **** 
 295              		.loc 1 285 0
 296 013e 08B0     		add	sp, sp, #32
 297              		.cfi_remember_state
 298              		.cfi_def_cfa_offset 24
 299              		@ sp needed
 300 0140 BDE8F081 		pop	{r4, r5, r6, r7, r8, pc}
 301              	.L2:
 302              		.cfi_restore_state
ARM GAS  C:\Users\legoc\AppData\Local\Temp\ccet5rOG.s 			page 16


 259:Generated_Source\PSoC5/isr.c ****     {
 303              		.loc 1 259 0
 304 0144 B8F1010F 		cmp	r8, #1
 305 0148 F6D1     		bne	.L3
 261:Generated_Source\PSoC5/isr.c ****         {
 306              		.loc 1 261 0
 307 014a 322F     		cmp	r7, #50
 308 014c 01DC     		bgt	.L4
 261:Generated_Source\PSoC5/isr.c ****         {
 309              		.loc 1 261 0 is_stmt 0 discriminator 1
 310 014e 1E2C     		cmp	r4, #30
 311 0150 20DD     		ble	.L7
 312              	.L4:
 313              	.LBB59:
 267:Generated_Source\PSoC5/isr.c ****             
 314              		.loc 1 267 0 is_stmt 1
 315 0152 1E23     		movs	r3, #30
 316 0154 5F21     		movs	r1, #95
 317 0156 0022     		movs	r2, #0
 318 0158 0092     		str	r2, [sp]
 319 015a 0846     		mov	r0, r1
 320 015c 1A46     		mov	r2, r3
 321 015e FFF7FEFF 		bl	fill_rect
 322              	.LVL42:
 272:Generated_Source\PSoC5/isr.c ****             itoa(touch_y, y_touch, 10);
 323              		.loc 1 272 0
 324 0162 02A9     		add	r1, sp, #8
 325 0164 3846     		mov	r0, r7
 326 0166 0A22     		movs	r2, #10
 327 0168 FFF7FEFF 		bl	itoa
 328              	.LVL43:
 273:Generated_Source\PSoC5/isr.c ****             
 329              		.loc 1 273 0
 330 016c 05A9     		add	r1, sp, #20
 331 016e 2046     		mov	r0, r4
 332 0170 0A22     		movs	r2, #10
 333 0172 FFF7FEFF 		bl	itoa
 334              	.LVL44:
 275:Generated_Source\PSoC5/isr.c ****             draw_string(100,100,WHITE,y_touch);
 335              		.loc 1 275 0
 336 0176 02AB     		add	r3, sp, #8
 337 0178 4FF6FF72 		movw	r2, #65535
 338 017c 6E21     		movs	r1, #110
 339 017e 6420     		movs	r0, #100
 340 0180 FFF7FEFF 		bl	draw_string
 341              	.LVL45:
 276:Generated_Source\PSoC5/isr.c ****         }
 342              		.loc 1 276 0
 343 0184 6421     		movs	r1, #100
 344 0186 05AB     		add	r3, sp, #20
 345 0188 0846     		mov	r0, r1
 346 018a 4FF6FF72 		movw	r2, #65535
 347 018e FFF7FEFF 		bl	draw_string
 348              	.LVL46:
 349 0192 D1E7     		b	.L3
 350              	.L7:
 351              	.LBE59:
ARM GAS  C:\Users\legoc\AppData\Local\Temp\ccet5rOG.s 			page 17


 352              	.LBB60:
 263:Generated_Source\PSoC5/isr.c ****         }
 353              		.loc 1 263 0
 354 0194 FFF7FEFF 		bl	draw_choose_screen
 355              	.LVL47:
 356              	.LBE60:
 262:Generated_Source\PSoC5/isr.c ****             draw_choose_screen();
 357              		.loc 1 262 0
 358 0198 CEE7     		b	.L3
 359              	.L9:
 360 019a 00BF     		.align	2
 361              	.L8:
 362 019c 00000000 		.word	screen_state
 363 01a0 00000000 		.word	.LC0
 364 01a4 14000000 		.word	.LC1
 365 01a8 80E200E0 		.word	-536812928
 366              		.cfi_endproc
 367              	.LFE5:
 368              		.size	isr_Interrupt, .-isr_Interrupt
 369              		.section	.text.isr_Start,"ax",%progbits
 370              		.align	2
 371              		.global	isr_Start
 372              		.thumb
 373              		.thumb_func
 374              		.type	isr_Start, %function
 375              	isr_Start:
 376              	.LFB1:
  80:Generated_Source\PSoC5/isr.c ****     /* For all we know the interrupt is active. */
 377              		.loc 1 80 0
 378              		.cfi_startproc
 379              		@ args = 0, pretend = 0, frame = 0
 380              		@ frame_needed = 0, uses_anonymous_args = 0
 381              		@ link register save eliminated.
 382 0000 70B4     		push	{r4, r5, r6}
 383              		.cfi_def_cfa_offset 12
 384              		.cfi_offset 4, -12
 385              		.cfi_offset 5, -8
 386              		.cfi_offset 6, -4
 387              	.LBB61:
 388              	.LBB62:
 319:Generated_Source\PSoC5/isr.c **** 
 389              		.loc 1 319 0
 390 0002 074B     		ldr	r3, .L12
 391              	.LBE62:
 392              	.LBE61:
 393              	.LBB65:
 394              	.LBB66:
 467:Generated_Source\PSoC5/isr.c **** }
 395              		.loc 1 467 0
 396 0004 074E     		ldr	r6, .L12+4
 397              	.LBE66:
 398              	.LBE65:
 399              	.LBB69:
 400              	.LBB63:
 319:Generated_Source\PSoC5/isr.c **** 
 401              		.loc 1 319 0
 402 0006 1C68     		ldr	r4, [r3]
ARM GAS  C:\Users\legoc\AppData\Local\Temp\ccet5rOG.s 			page 18


 321:Generated_Source\PSoC5/isr.c **** }
 403              		.loc 1 321 0
 404 0008 074D     		ldr	r5, .L12+8
 405              	.LBE63:
 406              	.LBE69:
 407              	.LBB70:
 408              	.LBB71:
 375:Generated_Source\PSoC5/isr.c **** }
 409              		.loc 1 375 0
 410 000a 0849     		ldr	r1, .L12+12
 411              	.LBE71:
 412              	.LBE70:
 413              	.LBB74:
 414              	.LBB67:
 467:Generated_Source\PSoC5/isr.c **** }
 415              		.loc 1 467 0
 416 000c 0223     		movs	r3, #2
 417              	.LBE67:
 418              	.LBE74:
 419              	.LBB75:
 420              	.LBB76:
 425:Generated_Source\PSoC5/isr.c **** }
 421              		.loc 1 425 0
 422 000e 084A     		ldr	r2, .L12+16
 423              	.LBE76:
 424              	.LBE75:
 425              	.LBB78:
 426              	.LBB72:
 375:Generated_Source\PSoC5/isr.c **** }
 427              		.loc 1 375 0
 428 0010 E020     		movs	r0, #224
 429              	.LBE72:
 430              	.LBE78:
 431              	.LBB79:
 432              	.LBB68:
 467:Generated_Source\PSoC5/isr.c **** }
 433              		.loc 1 467 0
 434 0012 3360     		str	r3, [r6]
 435              	.LVL48:
 436              	.LBE68:
 437              	.LBE79:
 438              	.LBB80:
 439              	.LBB64:
 321:Generated_Source\PSoC5/isr.c **** }
 440              		.loc 1 321 0
 441 0014 6564     		str	r5, [r4, #68]
 442              	.LVL49:
 443              	.LBE64:
 444              	.LBE80:
 445              	.LBB81:
 446              	.LBB73:
 375:Generated_Source\PSoC5/isr.c **** }
 447              		.loc 1 375 0
 448 0016 0870     		strb	r0, [r1]
 449              	.LVL50:
 450              	.LBE73:
 451              	.LBE81:
ARM GAS  C:\Users\legoc\AppData\Local\Temp\ccet5rOG.s 			page 19


  92:Generated_Source\PSoC5/isr.c **** 
 452              		.loc 1 92 0
 453 0018 70BC     		pop	{r4, r5, r6}
 454              		.cfi_restore 6
 455              		.cfi_restore 5
 456              		.cfi_restore 4
 457              		.cfi_def_cfa_offset 0
 458              	.LBB82:
 459              	.LBB77:
 425:Generated_Source\PSoC5/isr.c **** }
 460              		.loc 1 425 0
 461 001a 1360     		str	r3, [r2]
 462              	.LBE77:
 463              	.LBE82:
  92:Generated_Source\PSoC5/isr.c **** 
 464              		.loc 1 92 0
 465 001c 7047     		bx	lr
 466              	.L13:
 467 001e 00BF     		.align	2
 468              	.L12:
 469 0020 08ED00E0 		.word	-536810232
 470 0024 80E100E0 		.word	-536813184
 471 0028 00000000 		.word	isr_Interrupt
 472 002c 01E400E0 		.word	-536812543
 473 0030 00E100E0 		.word	-536813312
 474              		.cfi_endproc
 475              	.LFE1:
 476              		.size	isr_Start, .-isr_Start
 477              		.section	.text.isr_StartEx,"ax",%progbits
 478              		.align	2
 479              		.global	isr_StartEx
 480              		.thumb
 481              		.thumb_func
 482              		.type	isr_StartEx, %function
 483              	isr_StartEx:
 484              	.LFB2:
 123:Generated_Source\PSoC5/isr.c ****     /* For all we know the interrupt is active. */
 485              		.loc 1 123 0
 486              		.cfi_startproc
 487              		@ args = 0, pretend = 0, frame = 0
 488              		@ frame_needed = 0, uses_anonymous_args = 0
 489              		@ link register save eliminated.
 490              	.LVL51:
 491 0000 70B4     		push	{r4, r5, r6}
 492              		.cfi_def_cfa_offset 12
 493              		.cfi_offset 4, -12
 494              		.cfi_offset 5, -8
 495              		.cfi_offset 6, -4
 496              	.LBB83:
 497              	.LBB84:
 319:Generated_Source\PSoC5/isr.c **** 
 498              		.loc 1 319 0
 499 0002 064B     		ldr	r3, .L16
 500              	.LBE84:
 501              	.LBE83:
 502              	.LBB87:
 503              	.LBB88:
ARM GAS  C:\Users\legoc\AppData\Local\Temp\ccet5rOG.s 			page 20


 467:Generated_Source\PSoC5/isr.c **** }
 504              		.loc 1 467 0
 505 0004 064E     		ldr	r6, .L16+4
 506              	.LBE88:
 507              	.LBE87:
 508              	.LBB91:
 509              	.LBB85:
 319:Generated_Source\PSoC5/isr.c **** 
 510              		.loc 1 319 0
 511 0006 1D68     		ldr	r5, [r3]
 512              	.LBE85:
 513              	.LBE91:
 514              	.LBB92:
 515              	.LBB93:
 375:Generated_Source\PSoC5/isr.c **** }
 516              		.loc 1 375 0
 517 0008 0649     		ldr	r1, .L16+8
 518              	.LBE93:
 519              	.LBE92:
 520              	.LBB96:
 521              	.LBB89:
 467:Generated_Source\PSoC5/isr.c **** }
 522              		.loc 1 467 0
 523 000a 0223     		movs	r3, #2
 524              	.LBE89:
 525              	.LBE96:
 526              	.LBB97:
 527              	.LBB94:
 375:Generated_Source\PSoC5/isr.c **** }
 528              		.loc 1 375 0
 529 000c E024     		movs	r4, #224
 530              	.LBE94:
 531              	.LBE97:
 532              	.LBB98:
 533              	.LBB99:
 425:Generated_Source\PSoC5/isr.c **** }
 534              		.loc 1 425 0
 535 000e 064A     		ldr	r2, .L16+12
 536              	.LBE99:
 537              	.LBE98:
 538              	.LBB101:
 539              	.LBB90:
 467:Generated_Source\PSoC5/isr.c **** }
 540              		.loc 1 467 0
 541 0010 3360     		str	r3, [r6]
 542              	.LVL52:
 543              	.LBE90:
 544              	.LBE101:
 545              	.LBB102:
 546              	.LBB86:
 321:Generated_Source\PSoC5/isr.c **** }
 547              		.loc 1 321 0
 548 0012 6864     		str	r0, [r5, #68]
 549              	.LVL53:
 550              	.LBE86:
 551              	.LBE102:
 552              	.LBB103:
ARM GAS  C:\Users\legoc\AppData\Local\Temp\ccet5rOG.s 			page 21


 553              	.LBB95:
 375:Generated_Source\PSoC5/isr.c **** }
 554              		.loc 1 375 0
 555 0014 0C70     		strb	r4, [r1]
 556              	.LVL54:
 557              	.LBE95:
 558              	.LBE103:
 135:Generated_Source\PSoC5/isr.c **** 
 559              		.loc 1 135 0
 560 0016 70BC     		pop	{r4, r5, r6}
 561              		.cfi_restore 6
 562              		.cfi_restore 5
 563              		.cfi_restore 4
 564              		.cfi_def_cfa_offset 0
 565              	.LBB104:
 566              	.LBB100:
 425:Generated_Source\PSoC5/isr.c **** }
 567              		.loc 1 425 0
 568 0018 1360     		str	r3, [r2]
 569              	.LBE100:
 570              	.LBE104:
 135:Generated_Source\PSoC5/isr.c **** 
 571              		.loc 1 135 0
 572 001a 7047     		bx	lr
 573              	.L17:
 574              		.align	2
 575              	.L16:
 576 001c 08ED00E0 		.word	-536810232
 577 0020 80E100E0 		.word	-536813184
 578 0024 01E400E0 		.word	-536812543
 579 0028 00E100E0 		.word	-536813312
 580              		.cfi_endproc
 581              	.LFE2:
 582              		.size	isr_StartEx, .-isr_StartEx
 583              		.section	.text.isr_Stop,"ax",%progbits
 584              		.align	2
 585              		.global	isr_Stop
 586              		.thumb
 587              		.thumb_func
 588              		.type	isr_Stop, %function
 589              	isr_Stop:
 590              	.LFB3:
 153:Generated_Source\PSoC5/isr.c ****     /* Disable this interrupt. */
 591              		.loc 1 153 0
 592              		.cfi_startproc
 593              		@ args = 0, pretend = 0, frame = 0
 594              		@ frame_needed = 0, uses_anonymous_args = 0
 595              		@ link register save eliminated.
 596              	.LBB105:
 597              	.LBB106:
 319:Generated_Source\PSoC5/isr.c **** 
 598              		.loc 1 319 0
 599 0000 034B     		ldr	r3, .L19
 600              	.LBE106:
 601              	.LBE105:
 602              	.LBB109:
 603              	.LBB110:
ARM GAS  C:\Users\legoc\AppData\Local\Temp\ccet5rOG.s 			page 22


 467:Generated_Source\PSoC5/isr.c **** }
 604              		.loc 1 467 0
 605 0002 0449     		ldr	r1, .L19+4
 606              	.LBE110:
 607              	.LBE109:
 608              	.LBB112:
 609              	.LBB107:
 319:Generated_Source\PSoC5/isr.c **** 
 610              		.loc 1 319 0
 611 0004 1B68     		ldr	r3, [r3]
 321:Generated_Source\PSoC5/isr.c **** }
 612              		.loc 1 321 0
 613 0006 044A     		ldr	r2, .L19+8
 614              	.LBE107:
 615              	.LBE112:
 616              	.LBB113:
 617              	.LBB111:
 467:Generated_Source\PSoC5/isr.c **** }
 618              		.loc 1 467 0
 619 0008 0220     		movs	r0, #2
 620 000a 0860     		str	r0, [r1]
 621              	.LVL55:
 622              	.LBE111:
 623              	.LBE113:
 624              	.LBB114:
 625              	.LBB108:
 321:Generated_Source\PSoC5/isr.c **** }
 626              		.loc 1 321 0
 627 000c 5A64     		str	r2, [r3, #68]
 628              	.LVL56:
 629 000e 7047     		bx	lr
 630              	.L20:
 631              		.align	2
 632              	.L19:
 633 0010 08ED00E0 		.word	-536810232
 634 0014 80E100E0 		.word	-536813184
 635 0018 00000000 		.word	IntDefaultHandler
 636              	.LBE108:
 637              	.LBE114:
 638              		.cfi_endproc
 639              	.LFE3:
 640              		.size	isr_Stop, .-isr_Stop
 641              		.section	.text.get_touch,"ax",%progbits
 642              		.align	2
 643              		.global	get_touch
 644              		.thumb
 645              		.thumb_func
 646              		.type	get_touch, %function
 647              	get_touch:
 648              	.LFB4:
 162:Generated_Source\PSoC5/isr.c ****     uint16_t data_rec[2];
 649              		.loc 1 162 0
 650              		.cfi_startproc
 651              		@ args = 0, pretend = 0, frame = 0
 652              		@ frame_needed = 0, uses_anonymous_args = 0
 653              	.LVL57:
 654 0000 38B5     		push	{r3, r4, r5, lr}
ARM GAS  C:\Users\legoc\AppData\Local\Temp\ccet5rOG.s 			page 23


 655              		.cfi_def_cfa_offset 16
 656              		.cfi_offset 3, -16
 657              		.cfi_offset 4, -12
 658              		.cfi_offset 5, -8
 659              		.cfi_offset 14, -4
 168:Generated_Source\PSoC5/isr.c ****     {
 660              		.loc 1 168 0
 661 0002 88B3     		cbz	r0, .L23
 173:Generated_Source\PSoC5/isr.c ****     {
 662              		.loc 1 173 0
 663 0004 0128     		cmp	r0, #1
 176:Generated_Source\PSoC5/isr.c ****     }
 664              		.loc 1 176 0
 665 0006 0BBF     		itete	eq
 666 0008 0625     		moveq	r5, #6
 667 000a 0025     		movne	r5, #0
 668 000c 0524     		moveq	r4, #5
 669 000e 0024     		movne	r4, #0
 670              	.L22:
 671              	.LVL58:
 179:Generated_Source\PSoC5/isr.c ****     
 672              		.loc 1 179 0
 673 0010 FFF7FEFF 		bl	I2C_Start
 674              	.LVL59:
 181:Generated_Source\PSoC5/isr.c ****     
 675              		.loc 1 181 0
 676 0014 0021     		movs	r1, #0
 677 0016 3820     		movs	r0, #56
 678 0018 FFF7FEFF 		bl	I2C_MasterSendStart
 679              	.LVL60:
 183:Generated_Source\PSoC5/isr.c ****     
 680              		.loc 1 183 0
 681 001c 2046     		mov	r0, r4
 682 001e FFF7FEFF 		bl	I2C_MasterWriteByte
 683              	.LVL61:
 185:Generated_Source\PSoC5/isr.c ****     
 684              		.loc 1 185 0
 685 0022 0121     		movs	r1, #1
 686 0024 3820     		movs	r0, #56
 687 0026 FFF7FEFF 		bl	I2C_MasterSendRestart
 688              	.LVL62:
 187:Generated_Source\PSoC5/isr.c ****     
 689              		.loc 1 187 0
 690 002a 0020     		movs	r0, #0
 691 002c FFF7FEFF 		bl	I2C_MasterReadByte
 692              	.LVL63:
 693 0030 0446     		mov	r4, r0
 694              	.LVL64:
 189:Generated_Source\PSoC5/isr.c ****     
 695              		.loc 1 189 0
 696 0032 FFF7FEFF 		bl	I2C_MasterSendStop
 697              	.LVL65:
 191:Generated_Source\PSoC5/isr.c ****     
 698              		.loc 1 191 0
 699 0036 0021     		movs	r1, #0
 700 0038 3820     		movs	r0, #56
 701 003a FFF7FEFF 		bl	I2C_MasterSendStart
ARM GAS  C:\Users\legoc\AppData\Local\Temp\ccet5rOG.s 			page 24


 702              	.LVL66:
 193:Generated_Source\PSoC5/isr.c ****     
 703              		.loc 1 193 0
 704 003e 2846     		mov	r0, r5
 705 0040 FFF7FEFF 		bl	I2C_MasterWriteByte
 706              	.LVL67:
 195:Generated_Source\PSoC5/isr.c ****     
 707              		.loc 1 195 0
 708 0044 0121     		movs	r1, #1
 709 0046 3820     		movs	r0, #56
 710 0048 FFF7FEFF 		bl	I2C_MasterSendRestart
 711              	.LVL68:
 197:Generated_Source\PSoC5/isr.c ****     
 712              		.loc 1 197 0
 713 004c 0020     		movs	r0, #0
 714 004e FFF7FEFF 		bl	I2C_MasterReadByte
 715              	.LVL69:
 716 0052 0546     		mov	r5, r0
 717              	.LVL70:
 199:Generated_Source\PSoC5/isr.c ****     
 718              		.loc 1 199 0
 719 0054 FFF7FEFF 		bl	I2C_MasterSendStop
 720              	.LVL71:
 201:Generated_Source\PSoC5/isr.c ****     
 721              		.loc 1 201 0
 722 0058 FFF7FEFF 		bl	I2C_Stop
 723              	.LVL72:
 205:Generated_Source\PSoC5/isr.c **** }
 724              		.loc 1 205 0
 725 005c 2002     		lsls	r0, r4, #8
 726 005e 00F47060 		and	r0, r0, #3840
 727 0062 2843     		orrs	r0, r0, r5
 206:Generated_Source\PSoC5/isr.c **** 
 728              		.loc 1 206 0
 729 0064 80B2     		uxth	r0, r0
 730 0066 38BD     		pop	{r3, r4, r5, pc}
 731              	.LVL73:
 732              	.L23:
 171:Generated_Source\PSoC5/isr.c ****     }
 733              		.loc 1 171 0
 734 0068 0425     		movs	r5, #4
 170:Generated_Source\PSoC5/isr.c ****         reg_2 = Read_Register_X_2;
 735              		.loc 1 170 0
 736 006a 0324     		movs	r4, #3
 737 006c D0E7     		b	.L22
 738              		.cfi_endproc
 739              	.LFE4:
 740              		.size	get_touch, .-get_touch
 741 006e 00BF     		.section	.text.isr_SetVector,"ax",%progbits
 742              		.align	2
 743              		.global	isr_SetVector
 744              		.thumb
 745              		.thumb_func
 746              		.type	isr_SetVector, %function
 747              	isr_SetVector:
 748              	.LFB6:
 316:Generated_Source\PSoC5/isr.c ****     cyisraddress * ramVectorTable;
ARM GAS  C:\Users\legoc\AppData\Local\Temp\ccet5rOG.s 			page 25


 749              		.loc 1 316 0
 750              		.cfi_startproc
 751              		@ args = 0, pretend = 0, frame = 0
 752              		@ frame_needed = 0, uses_anonymous_args = 0
 753              		@ link register save eliminated.
 754              	.LVL74:
 319:Generated_Source\PSoC5/isr.c **** 
 755              		.loc 1 319 0
 756 0000 014B     		ldr	r3, .L26
 757 0002 1B68     		ldr	r3, [r3]
 758              	.LVL75:
 321:Generated_Source\PSoC5/isr.c **** }
 759              		.loc 1 321 0
 760 0004 5864     		str	r0, [r3, #68]
 761 0006 7047     		bx	lr
 762              	.L27:
 763              		.align	2
 764              	.L26:
 765 0008 08ED00E0 		.word	-536810232
 766              		.cfi_endproc
 767              	.LFE6:
 768              		.size	isr_SetVector, .-isr_SetVector
 769              		.section	.text.isr_GetVector,"ax",%progbits
 770              		.align	2
 771              		.global	isr_GetVector
 772              		.thumb
 773              		.thumb_func
 774              		.type	isr_GetVector, %function
 775              	isr_GetVector:
 776              	.LFB7:
 340:Generated_Source\PSoC5/isr.c ****     cyisraddress * ramVectorTable;
 777              		.loc 1 340 0
 778              		.cfi_startproc
 779              		@ args = 0, pretend = 0, frame = 0
 780              		@ frame_needed = 0, uses_anonymous_args = 0
 781              		@ link register save eliminated.
 782              	.LVL76:
 343:Generated_Source\PSoC5/isr.c **** 
 783              		.loc 1 343 0
 784 0000 014B     		ldr	r3, .L29
 785              	.LVL77:
 345:Generated_Source\PSoC5/isr.c **** }
 786              		.loc 1 345 0
 787 0002 1B68     		ldr	r3, [r3]
 788              	.LVL78:
 346:Generated_Source\PSoC5/isr.c **** 
 789              		.loc 1 346 0
 790 0004 586C     		ldr	r0, [r3, #68]
 791 0006 7047     		bx	lr
 792              	.L30:
 793              		.align	2
 794              	.L29:
 795 0008 08ED00E0 		.word	-536810232
 796              		.cfi_endproc
 797              	.LFE7:
 798              		.size	isr_GetVector, .-isr_GetVector
 799              		.section	.text.isr_SetPriority,"ax",%progbits
ARM GAS  C:\Users\legoc\AppData\Local\Temp\ccet5rOG.s 			page 26


 800              		.align	2
 801              		.global	isr_SetPriority
 802              		.thumb
 803              		.thumb_func
 804              		.type	isr_SetPriority, %function
 805              	isr_SetPriority:
 806              	.LFB8:
 374:Generated_Source\PSoC5/isr.c ****     *isr_INTC_PRIOR = priority << 5;
 807              		.loc 1 374 0
 808              		.cfi_startproc
 809              		@ args = 0, pretend = 0, frame = 0
 810              		@ frame_needed = 0, uses_anonymous_args = 0
 811              		@ link register save eliminated.
 812              	.LVL79:
 375:Generated_Source\PSoC5/isr.c **** }
 813              		.loc 1 375 0
 814 0000 4001     		lsls	r0, r0, #5
 815              	.LVL80:
 816 0002 024B     		ldr	r3, .L32
 817 0004 C0B2     		uxtb	r0, r0
 818 0006 1870     		strb	r0, [r3]
 819 0008 7047     		bx	lr
 820              	.L33:
 821 000a 00BF     		.align	2
 822              	.L32:
 823 000c 01E400E0 		.word	-536812543
 824              		.cfi_endproc
 825              	.LFE8:
 826              		.size	isr_SetPriority, .-isr_SetPriority
 827              		.section	.text.isr_GetPriority,"ax",%progbits
 828              		.align	2
 829              		.global	isr_GetPriority
 830              		.thumb
 831              		.thumb_func
 832              		.type	isr_GetPriority, %function
 833              	isr_GetPriority:
 834              	.LFB9:
 396:Generated_Source\PSoC5/isr.c ****     uint8 priority;
 835              		.loc 1 396 0
 836              		.cfi_startproc
 837              		@ args = 0, pretend = 0, frame = 0
 838              		@ frame_needed = 0, uses_anonymous_args = 0
 839              		@ link register save eliminated.
 400:Generated_Source\PSoC5/isr.c **** 
 840              		.loc 1 400 0
 841 0000 014B     		ldr	r3, .L35
 842 0002 1878     		ldrb	r0, [r3]	@ zero_extendqisi2
 843              	.LVL81:
 403:Generated_Source\PSoC5/isr.c **** 
 844              		.loc 1 403 0
 845 0004 4009     		lsrs	r0, r0, #5
 846              	.LVL82:
 847 0006 7047     		bx	lr
 848              	.L36:
 849              		.align	2
 850              	.L35:
 851 0008 01E400E0 		.word	-536812543
ARM GAS  C:\Users\legoc\AppData\Local\Temp\ccet5rOG.s 			page 27


 852              		.cfi_endproc
 853              	.LFE9:
 854              		.size	isr_GetPriority, .-isr_GetPriority
 855              		.section	.text.isr_Enable,"ax",%progbits
 856              		.align	2
 857              		.global	isr_Enable
 858              		.thumb
 859              		.thumb_func
 860              		.type	isr_Enable, %function
 861              	isr_Enable:
 862              	.LFB10:
 423:Generated_Source\PSoC5/isr.c ****     /* Enable the general interrupt. */
 863              		.loc 1 423 0
 864              		.cfi_startproc
 865              		@ args = 0, pretend = 0, frame = 0
 866              		@ frame_needed = 0, uses_anonymous_args = 0
 867              		@ link register save eliminated.
 425:Generated_Source\PSoC5/isr.c **** }
 868              		.loc 1 425 0
 869 0000 014B     		ldr	r3, .L38
 870 0002 0222     		movs	r2, #2
 871 0004 1A60     		str	r2, [r3]
 872 0006 7047     		bx	lr
 873              	.L39:
 874              		.align	2
 875              	.L38:
 876 0008 00E100E0 		.word	-536813312
 877              		.cfi_endproc
 878              	.LFE10:
 879              		.size	isr_Enable, .-isr_Enable
 880              		.section	.text.isr_GetState,"ax",%progbits
 881              		.align	2
 882              		.global	isr_GetState
 883              		.thumb
 884              		.thumb_func
 885              		.type	isr_GetState, %function
 886              	isr_GetState:
 887              	.LFB11:
 444:Generated_Source\PSoC5/isr.c ****     /* Get the state of the general interrupt. */
 888              		.loc 1 444 0
 889              		.cfi_startproc
 890              		@ args = 0, pretend = 0, frame = 0
 891              		@ frame_needed = 0, uses_anonymous_args = 0
 892              		@ link register save eliminated.
 446:Generated_Source\PSoC5/isr.c **** }
 893              		.loc 1 446 0
 894 0000 024B     		ldr	r3, .L41
 895 0002 1868     		ldr	r0, [r3]
 447:Generated_Source\PSoC5/isr.c **** 
 896              		.loc 1 447 0
 897 0004 C0F34000 		ubfx	r0, r0, #1, #1
 898 0008 7047     		bx	lr
 899              	.L42:
 900 000a 00BF     		.align	2
 901              	.L41:
 902 000c 00E100E0 		.word	-536813312
 903              		.cfi_endproc
ARM GAS  C:\Users\legoc\AppData\Local\Temp\ccet5rOG.s 			page 28


 904              	.LFE11:
 905              		.size	isr_GetState, .-isr_GetState
 906              		.section	.text.isr_Disable,"ax",%progbits
 907              		.align	2
 908              		.global	isr_Disable
 909              		.thumb
 910              		.thumb_func
 911              		.type	isr_Disable, %function
 912              	isr_Disable:
 913              	.LFB12:
 465:Generated_Source\PSoC5/isr.c ****     /* Disable the general interrupt. */
 914              		.loc 1 465 0
 915              		.cfi_startproc
 916              		@ args = 0, pretend = 0, frame = 0
 917              		@ frame_needed = 0, uses_anonymous_args = 0
 918              		@ link register save eliminated.
 467:Generated_Source\PSoC5/isr.c **** }
 919              		.loc 1 467 0
 920 0000 014B     		ldr	r3, .L44
 921 0002 0222     		movs	r2, #2
 922 0004 1A60     		str	r2, [r3]
 923 0006 7047     		bx	lr
 924              	.L45:
 925              		.align	2
 926              	.L44:
 927 0008 80E100E0 		.word	-536813184
 928              		.cfi_endproc
 929              	.LFE12:
 930              		.size	isr_Disable, .-isr_Disable
 931              		.section	.text.isr_SetPending,"ax",%progbits
 932              		.align	2
 933              		.global	isr_SetPending
 934              		.thumb
 935              		.thumb_func
 936              		.type	isr_SetPending, %function
 937              	isr_SetPending:
 938              	.LFB13:
 492:Generated_Source\PSoC5/isr.c ****     *isr_INTC_SET_PD = isr__INTC_MASK;
 939              		.loc 1 492 0
 940              		.cfi_startproc
 941              		@ args = 0, pretend = 0, frame = 0
 942              		@ frame_needed = 0, uses_anonymous_args = 0
 943              		@ link register save eliminated.
 493:Generated_Source\PSoC5/isr.c **** }
 944              		.loc 1 493 0
 945 0000 014B     		ldr	r3, .L47
 946 0002 0222     		movs	r2, #2
 947 0004 1A60     		str	r2, [r3]
 948 0006 7047     		bx	lr
 949              	.L48:
 950              		.align	2
 951              	.L47:
 952 0008 00E200E0 		.word	-536813056
 953              		.cfi_endproc
 954              	.LFE13:
 955              		.size	isr_SetPending, .-isr_SetPending
 956              		.section	.text.isr_ClearPending,"ax",%progbits
ARM GAS  C:\Users\legoc\AppData\Local\Temp\ccet5rOG.s 			page 29


 957              		.align	2
 958              		.global	isr_ClearPending
 959              		.thumb
 960              		.thumb_func
 961              		.type	isr_ClearPending, %function
 962              	isr_ClearPending:
 963              	.LFB14:
 517:Generated_Source\PSoC5/isr.c ****     *isr_INTC_CLR_PD = isr__INTC_MASK;
 964              		.loc 1 517 0
 965              		.cfi_startproc
 966              		@ args = 0, pretend = 0, frame = 0
 967              		@ frame_needed = 0, uses_anonymous_args = 0
 968              		@ link register save eliminated.
 969              		.loc 1 518 0
 970 0000 014B     		ldr	r3, .L50
 971 0002 0222     		movs	r2, #2
 972 0004 1A60     		str	r2, [r3]
 973 0006 7047     		bx	lr
 974              	.L51:
 975              		.align	2
 976              	.L50:
 977 0008 80E200E0 		.word	-536812928
 978              		.cfi_endproc
 979              	.LFE14:
 980              		.size	isr_ClearPending, .-isr_ClearPending
 981              		.section	.rodata.str1.4,"aMS",%progbits,1
 982              		.align	2
 983              	.LC0:
 984 0000 544F5543 		.ascii	"TOUCH COORDINATES\000"
 984      4820434F 
 984      4F524449 
 984      4E415445 
 984      5300
 985 0012 0000     		.space	2
 986              	.LC1:
 987 0014 52455455 		.ascii	"RETURN\000"
 987      524E00
 988              		.text
 989              	.Letext0:
 990              		.file 2 "d:\\psoc\\psoc creator\\4.2\\psoc creator\\import\\gnu\\arm\\5.4.1\\arm-none-eabi\\includ
 991              		.file 3 "d:\\psoc\\psoc creator\\4.2\\psoc creator\\import\\gnu\\arm\\5.4.1\\arm-none-eabi\\includ
 992              		.file 4 "Generated_Source\\PSoC5/cytypes.h"
 993              		.file 5 "Generated_Source\\PSoC5\\I2C.h"
 994              		.file 6 "d:\\psoc\\psoc creator\\4.2\\psoc creator\\import\\gnu\\arm\\5.4.1\\arm-none-eabi\\includ
 995              		.file 7 "./screen.h"