ARM GAS  C:\Users\legoc\AppData\Local\Temp\ccGdwsaw.s 			page 1


   1              		.syntax unified
   2              		.cpu cortex-m3
   3              		.fpu softvfp
   4              		.eabi_attribute 20, 1
   5              		.eabi_attribute 21, 1
   6              		.eabi_attribute 23, 3
   7              		.eabi_attribute 24, 1
   8              		.eabi_attribute 25, 1
   9              		.eabi_attribute 26, 1
  10              		.eabi_attribute 30, 2
  11              		.eabi_attribute 34, 1
  12              		.eabi_attribute 18, 4
  13              		.thumb
  14              		.syntax unified
  15              		.file	"main.c"
  16              		.text
  17              	.Ltext0:
  18              		.cfi_sections	.debug_frame
  19              		.section	.text.set_transistor_test_type,"ax",%progbits
  20              		.align	2
  21              		.global	set_transistor_test_type
  22              		.thumb
  23              		.thumb_func
  24              		.type	set_transistor_test_type, %function
  25              	set_transistor_test_type:
  26              	.LFB1:
  27              		.file 1 "main.c"
   1:main.c        **** #include "project.h"
   2:main.c        **** #include "screen.h"
   3:main.c        **** #include "font.h"
   4:main.c        **** #include "stdio.h"
   5:main.c        **** #include "math.h"
   6:main.c        **** #include "string.h"
   7:main.c        **** #include "settings.h"
   8:main.c        **** #include <FS.h>
   9:main.c        **** #include <Global.h>
  10:main.c        **** #include "sd.h"
  11:main.c        **** #include "uifunctions.h"
  12:main.c        **** 
  13:main.c        **** #define VDAC_G_B_MAX    255 //Max VDAC code for the Gate/Base 
  14:main.c        **** #define VDAC_D_C_MAX    188 //Max VDAC for the Drain/Common
  15:main.c        **** #define VDS_NMOS_LENGTH ((VDAC_D_C_MAX/VD_STEP_NMOS) + 1)
  16:main.c        **** #define VCE_NPN_LENGTH  ((VDAC_D_C_MAX/VC_STEP_NPN) + 1)
  17:main.c        **** #define VDS_PMOS_LENGTH ((VDAC_D_C_MAX/VD_STEP_PMOS) + 1)
  18:main.c        **** #define VCE_PNP_LENGTH  ((VDAC_D_C_MAX/VC_STEP_PNP) + 1)
  19:main.c        **** #define VDAC_N_1_VOLT   21
  20:main.c        **** #define VDAC_P_1_VOLT   13
  21:main.c        **** #define ADC_GAIN        52.0
  22:main.c        **** #define CURVE_MAX       10
  23:main.c        **** 
  24:main.c        **** 
  25:main.c        **** //The lengths of Drain or Common testing points
  26:main.c        **** 
  27:main.c        **** void set_transistor_test_type(unsigned char device_selection)
  28:main.c        **** {
  28              		.loc 1 28 0
  29              		.cfi_startproc
ARM GAS  C:\Users\legoc\AppData\Local\Temp\ccGdwsaw.s 			page 2


  30              		@ args = 0, pretend = 0, frame = 0
  31              		@ frame_needed = 0, uses_anonymous_args = 0
  32              	.LVL0:
  29:main.c        ****     if(device_selection < 2)
  33              		.loc 1 29 0
  34 0000 0128     		cmp	r0, #1
  28:main.c        ****     if(device_selection < 2)
  35              		.loc 1 28 0
  36 0002 08B5     		push	{r3, lr}
  37              		.cfi_def_cfa_offset 8
  38              		.cfi_offset 3, -8
  39              		.cfi_offset 14, -4
  40              		.loc 1 29 0
  41 0004 0AD9     		bls	.L5
  30:main.c        ****     {
  31:main.c        ****         AMux_1_Select(0);
  32:main.c        ****         AMux_2_Select(0);
  33:main.c        ****         AMux_3_Select(0);
  34:main.c        ****     }
  35:main.c        ****     else
  36:main.c        ****     {
  37:main.c        ****         AMux_1_Select(1);
  42              		.loc 1 37 0
  43 0006 0120     		movs	r0, #1
  44              	.LVL1:
  45 0008 FFF7FEFF 		bl	AMux_1_Select
  46              	.LVL2:
  38:main.c        ****         AMux_2_Select(1);
  47              		.loc 1 38 0
  48 000c 0120     		movs	r0, #1
  49 000e FFF7FEFF 		bl	AMux_2_Select
  50              	.LVL3:
  39:main.c        ****         AMux_3_Select(1);
  40:main.c        ****     }
  41:main.c        **** }
  51              		.loc 1 41 0
  52 0012 BDE80840 		pop	{r3, lr}
  53              		.cfi_remember_state
  54              		.cfi_restore 14
  55              		.cfi_restore 3
  56              		.cfi_def_cfa_offset 0
  39:main.c        ****         AMux_3_Select(1);
  57              		.loc 1 39 0
  58 0016 0120     		movs	r0, #1
  59 0018 FFF7FEBF 		b	AMux_3_Select
  60              	.LVL4:
  61              	.L5:
  62              		.cfi_restore_state
  63              	.LBB4:
  64              	.LBB5:
  31:main.c        ****         AMux_2_Select(0);
  65              		.loc 1 31 0
  66 001c 0020     		movs	r0, #0
  67              	.LVL5:
  68 001e FFF7FEFF 		bl	AMux_1_Select
  69              	.LVL6:
  32:main.c        ****         AMux_3_Select(0);
ARM GAS  C:\Users\legoc\AppData\Local\Temp\ccGdwsaw.s 			page 3


  70              		.loc 1 32 0
  71 0022 0020     		movs	r0, #0
  72 0024 FFF7FEFF 		bl	AMux_2_Select
  73              	.LVL7:
  74              	.LBE5:
  75              	.LBE4:
  76              		.loc 1 41 0
  77 0028 BDE80840 		pop	{r3, lr}
  78              		.cfi_restore 14
  79              		.cfi_restore 3
  80              		.cfi_def_cfa_offset 0
  81              	.LBB7:
  82              	.LBB6:
  33:main.c        ****     }
  83              		.loc 1 33 0
  84 002c 0020     		movs	r0, #0
  85 002e FFF7FEBF 		b	AMux_3_Select
  86              	.LVL8:
  87              	.LBE6:
  88              	.LBE7:
  89              		.cfi_endproc
  90              	.LFE1:
  91              		.size	set_transistor_test_type, .-set_transistor_test_type
  92              		.global	__aeabi_i2d
  93              		.global	__aeabi_ddiv
  94 0032 00BF     		.section	.text.single_test,"ax",%progbits
  95              		.align	2
  96              		.global	single_test
  97              		.thumb
  98              		.thumb_func
  99              		.type	single_test, %function
 100              	single_test:
 101              	.LFB2:
  42:main.c        **** //Conducts a test for a singular Vds and Vgs
  43:main.c        **** double single_test(unsigned char Vds, unsigned char Vgs)
  44:main.c        **** {
 102              		.loc 1 44 0
 103              		.cfi_startproc
 104              		@ args = 0, pretend = 0, frame = 0
 105              		@ frame_needed = 0, uses_anonymous_args = 0
 106              	.LVL9:
 107 0000 10B5     		push	{r4, lr}
 108              		.cfi_def_cfa_offset 8
 109              		.cfi_offset 4, -8
 110              		.cfi_offset 14, -4
 111              		.loc 1 44 0
 112 0002 0C46     		mov	r4, r1
  45:main.c        ****     double Output;
  46:main.c        ****     double Output_avg;
  47:main.c        ****     int i;
  48:main.c        ****     VDAC8_DS_SetValue(Vds);
 113              		.loc 1 48 0
 114 0004 FFF7FEFF 		bl	VDAC8_DS_SetValue
 115              	.LVL10:
  49:main.c        ****     VDAC8_GS_SetValue(Vgs);
 116              		.loc 1 49 0
 117 0008 2046     		mov	r0, r4
ARM GAS  C:\Users\legoc\AppData\Local\Temp\ccGdwsaw.s 			page 4


 118 000a FFF7FEFF 		bl	VDAC8_GS_SetValue
 119              	.LVL11:
  50:main.c        ****     CyDelay(SETTLING_WAIT_TIME);
 120              		.loc 1 50 0
 121 000e 0120     		movs	r0, #1
 122 0010 FFF7FEFF 		bl	CyDelay
 123              	.LVL12:
  51:main.c        ****     ADC_SAR_1_StartConvert();
 124              		.loc 1 51 0
 125 0014 FFF7FEFF 		bl	ADC_SAR_1_StartConvert
 126              	.LVL13:
  52:main.c        ****     ADC_SAR_1_IsEndConversion(ADC_SAR_1_WAIT_FOR_RESULT);
 127              		.loc 1 52 0
 128 0018 0020     		movs	r0, #0
 129 001a FFF7FEFF 		bl	ADC_SAR_1_IsEndConversion
 130              	.LVL14:
  53:main.c        **** 	//waiting until conversion is over
  54:main.c        ****     ADC_SAR_1_StopConvert();
 131              		.loc 1 54 0
 132 001e FFF7FEFF 		bl	ADC_SAR_1_StopConvert
 133              	.LVL15:
  55:main.c        ****     Output = (ADC_SAR_1_CountsTo_mVolts(ADC_SAR_1_GetResult16())/ADC_GAIN);
 134              		.loc 1 55 0
 135 0022 FFF7FEFF 		bl	ADC_SAR_1_GetResult16
 136              	.LVL16:
 137 0026 FFF7FEFF 		bl	ADC_SAR_1_CountsTo_mVolts
 138              	.LVL17:
  56:main.c        ****     return Output;
 139              		.loc 1 56 0
 140 002a FFF7FEFF 		bl	__aeabi_i2d
 141              	.LVL18:
 142 002e 0022     		movs	r2, #0
 143 0030 014B     		ldr	r3, .L8
 144 0032 FFF7FEFF 		bl	__aeabi_ddiv
 145              	.LVL19:
  57:main.c        **** }
 146              		.loc 1 57 0
 147 0036 10BD     		pop	{r4, pc}
 148              	.L9:
 149              		.align	2
 150              	.L8:
 151 0038 00004A40 		.word	1078591488
 152              		.cfi_endproc
 153              	.LFE2:
 154              		.size	single_test, .-single_test
 155              		.section	.text.single_test_preset_vds,"ax",%progbits
 156              		.align	2
 157              		.global	single_test_preset_vds
 158              		.thumb
 159              		.thumb_func
 160              		.type	single_test_preset_vds, %function
 161              	single_test_preset_vds:
 162              	.LFB3:
  58:main.c        **** 
  59:main.c        **** double single_test_preset_vds(unsigned char Vgs)
  60:main.c        **** {
 163              		.loc 1 60 0
ARM GAS  C:\Users\legoc\AppData\Local\Temp\ccGdwsaw.s 			page 5


 164              		.cfi_startproc
 165              		@ args = 0, pretend = 0, frame = 0
 166              		@ frame_needed = 0, uses_anonymous_args = 0
 167              	.LVL20:
 168 0000 08B5     		push	{r3, lr}
 169              		.cfi_def_cfa_offset 8
 170              		.cfi_offset 3, -8
 171              		.cfi_offset 14, -4
  61:main.c        ****     double Output;
  62:main.c        ****     
  63:main.c        ****     VDAC8_GS_SetValue(Vgs);
 172              		.loc 1 63 0
 173 0002 FFF7FEFF 		bl	VDAC8_GS_SetValue
 174              	.LVL21:
  64:main.c        ****     CyDelay(SETTLING_WAIT_TIME);
 175              		.loc 1 64 0
 176 0006 0120     		movs	r0, #1
 177 0008 FFF7FEFF 		bl	CyDelay
 178              	.LVL22:
  65:main.c        ****     ADC_SAR_1_StartConvert();
 179              		.loc 1 65 0
 180 000c FFF7FEFF 		bl	ADC_SAR_1_StartConvert
 181              	.LVL23:
  66:main.c        ****     ADC_SAR_1_IsEndConversion(ADC_SAR_1_WAIT_FOR_RESULT);
 182              		.loc 1 66 0
 183 0010 0020     		movs	r0, #0
 184 0012 FFF7FEFF 		bl	ADC_SAR_1_IsEndConversion
 185              	.LVL24:
  67:main.c        **** 	//waiting until conversion is over
  68:main.c        ****     ADC_SAR_1_StopConvert();
 186              		.loc 1 68 0
 187 0016 FFF7FEFF 		bl	ADC_SAR_1_StopConvert
 188              	.LVL25:
  69:main.c        ****     Output = (ADC_SAR_1_CountsTo_mVolts(ADC_SAR_1_GetResult16())/ADC_GAIN);
 189              		.loc 1 69 0
 190 001a FFF7FEFF 		bl	ADC_SAR_1_GetResult16
 191              	.LVL26:
 192 001e FFF7FEFF 		bl	ADC_SAR_1_CountsTo_mVolts
 193              	.LVL27:
  70:main.c        ****     return Output;
 194              		.loc 1 70 0
 195 0022 FFF7FEFF 		bl	__aeabi_i2d
 196              	.LVL28:
 197 0026 0022     		movs	r2, #0
 198 0028 014B     		ldr	r3, .L12
 199 002a FFF7FEFF 		bl	__aeabi_ddiv
 200              	.LVL29:
  71:main.c        **** }
 201              		.loc 1 71 0
 202 002e 08BD     		pop	{r3, pc}
 203              	.L13:
 204              		.align	2
 205              	.L12:
 206 0030 00004A40 		.word	1078591488
 207              		.cfi_endproc
 208              	.LFE3:
 209              		.size	single_test_preset_vds, .-single_test_preset_vds
ARM GAS  C:\Users\legoc\AppData\Local\Temp\ccGdwsaw.s 			page 6


 210              		.global	__aeabi_dcmpgt
 211              		.section	.text.vgs_th_find,"ax",%progbits
 212              		.align	2
 213              		.global	vgs_th_find
 214              		.thumb
 215              		.thumb_func
 216              		.type	vgs_th_find, %function
 217              	vgs_th_find:
 218              	.LFB4:
  72:main.c        ****     
  73:main.c        **** 
  74:main.c        **** //Finds Vth (The minimum Vgs needed to turn the transistor by sorting through Vgs's until 
  75:main.c        **** //a minumum current of 1 mA is found Id is found by a 1 Ohm series resistor whose potential 
  76:main.c        **** //difference is magnitifed 100 fold for accurate reading
  77:main.c        **** int vgs_th_find(unsigned char Vgs_max, unsigned char Vds)
  78:main.c        **** {
 219              		.loc 1 78 0
 220              		.cfi_startproc
 221              		@ args = 0, pretend = 0, frame = 0
 222              		@ frame_needed = 0, uses_anonymous_args = 0
 223              	.LVL30:
 224 0000 38B5     		push	{r3, r4, r5, lr}
 225              		.cfi_def_cfa_offset 16
 226              		.cfi_offset 3, -16
 227              		.cfi_offset 4, -12
 228              		.cfi_offset 5, -8
 229              		.cfi_offset 14, -4
 230              		.loc 1 78 0
 231 0002 0C46     		mov	r4, r1
 232 0004 0546     		mov	r5, r0
  79:main.c        ****     unsigned char   Vgs;           
  80:main.c        **** 	//The Gate-Drain Voltage difference | Vds_real = Vds/256 * 4.096 * 3 (OpAmp gain)
  81:main.c        ****     double          Id=0;         
  82:main.c        **** 	//The Drain Current | Id_real = Id/100
  83:main.c        ****     ADC_SAR_1_Wakeup();
 233              		.loc 1 83 0
 234 0006 FFF7FEFF 		bl	ADC_SAR_1_Wakeup
 235              	.LVL31:
  84:main.c        ****     VDAC8_DS_SetValue(Vds); //Set Vds to 1 Volt
 236              		.loc 1 84 0
 237 000a 2046     		mov	r0, r4
 238 000c FFF7FEFF 		bl	VDAC8_DS_SetValue
 239              	.LVL32:
  85:main.c        ****     VDAC8_GS_SetValue(0);
 240              		.loc 1 85 0
 241 0010 0020     		movs	r0, #0
 242 0012 FFF7FEFF 		bl	VDAC8_GS_SetValue
 243              	.LVL33:
  86:main.c        ****     for(Vgs = 0; Vgs < Vgs_max; Vgs++)
 244              		.loc 1 86 0
 245 0016 0024     		movs	r4, #0
 246 0018 1DB9     		cbnz	r5, .L19
 247 001a 24E0     		b	.L20
 248              	.LVL34:
 249              	.L23:
 250              		.loc 1 86 0 is_stmt 0 discriminator 2
 251 001c DCB2     		uxtb	r4, r3
ARM GAS  C:\Users\legoc\AppData\Local\Temp\ccGdwsaw.s 			page 7


 252              	.LVL35:
 253 001e A542     		cmp	r5, r4
 254 0020 21D0     		beq	.L20
 255              	.LVL36:
 256              	.L19:
 257              	.LBB10:
 258              	.LBB11:
  63:main.c        ****     CyDelay(SETTLING_WAIT_TIME);
 259              		.loc 1 63 0 is_stmt 1
 260 0022 2046     		mov	r0, r4
 261 0024 FFF7FEFF 		bl	VDAC8_GS_SetValue
 262              	.LVL37:
  64:main.c        ****     ADC_SAR_1_StartConvert();
 263              		.loc 1 64 0
 264 0028 0120     		movs	r0, #1
 265 002a FFF7FEFF 		bl	CyDelay
 266              	.LVL38:
  65:main.c        ****     ADC_SAR_1_IsEndConversion(ADC_SAR_1_WAIT_FOR_RESULT);
 267              		.loc 1 65 0
 268 002e FFF7FEFF 		bl	ADC_SAR_1_StartConvert
 269              	.LVL39:
  66:main.c        **** 	//waiting until conversion is over
 270              		.loc 1 66 0
 271 0032 0020     		movs	r0, #0
 272 0034 FFF7FEFF 		bl	ADC_SAR_1_IsEndConversion
 273              	.LVL40:
  68:main.c        ****     Output = (ADC_SAR_1_CountsTo_mVolts(ADC_SAR_1_GetResult16())/ADC_GAIN);
 274              		.loc 1 68 0
 275 0038 FFF7FEFF 		bl	ADC_SAR_1_StopConvert
 276              	.LVL41:
  69:main.c        ****     return Output;
 277              		.loc 1 69 0
 278 003c FFF7FEFF 		bl	ADC_SAR_1_GetResult16
 279              	.LVL42:
 280 0040 FFF7FEFF 		bl	ADC_SAR_1_CountsTo_mVolts
 281              	.LVL43:
 282              	.LBE11:
 283              	.LBE10:
  87:main.c        ****     {
  88:main.c        ****         Id = single_test_preset_vds(Vgs);
  89:main.c        ****         if(Id > ID_TH)
 284              		.loc 1 89 0
 285 0044 FFF7FEFF 		bl	__aeabi_i2d
 286              	.LVL44:
 287 0048 0022     		movs	r2, #0
 288 004a 094B     		ldr	r3, .L25
 289 004c FFF7FEFF 		bl	__aeabi_ddiv
 290              	.LVL45:
 291 0050 084B     		ldr	r3, .L25+4
 292 0052 0022     		movs	r2, #0
 293 0054 FFF7FEFF 		bl	__aeabi_dcmpgt
 294              	.LVL46:
  86:main.c        ****     {
 295              		.loc 1 86 0
 296 0058 631C     		adds	r3, r4, #1
 297              		.loc 1 89 0
 298 005a 0028     		cmp	r0, #0
ARM GAS  C:\Users\legoc\AppData\Local\Temp\ccGdwsaw.s 			page 8


 299 005c DED0     		beq	.L23
  90:main.c        ****         {
  91:main.c        ****             //Once Id > 1 mV transistor is "on" and we can return Vgs as Vth
  92:main.c        ****             ADC_SAR_1_Sleep();
 300              		.loc 1 92 0
 301 005e FFF7FEFF 		bl	ADC_SAR_1_Sleep
 302              	.LVL47:
  93:main.c        ****             return Vgs;
 303              		.loc 1 93 0
 304 0062 2046     		mov	r0, r4
 305 0064 38BD     		pop	{r3, r4, r5, pc}
 306              	.LVL48:
 307              	.L20:
  94:main.c        ****         }
  95:main.c        ****     }
  96:main.c        ****     ADC_SAR_1_Sleep();
 308              		.loc 1 96 0
 309 0066 FFF7FEFF 		bl	ADC_SAR_1_Sleep
 310              	.LVL49:
  97:main.c        ****     return 0; //If a Vth cannot be found
 311              		.loc 1 97 0
 312 006a 0020     		movs	r0, #0
 313 006c 38BD     		pop	{r3, r4, r5, pc}
 314              	.L26:
 315 006e 00BF     		.align	2
 316              	.L25:
 317 0070 00004A40 		.word	1078591488
 318 0074 0000F03F 		.word	1072693248
 319              		.cfi_endproc
 320              	.LFE4:
 321              		.size	vgs_th_find, .-vgs_th_find
 322              		.global	__aeabi_dcmpge
 323              		.section	.text.vgs_max_id_find,"ax",%progbits
 324              		.align	2
 325              		.global	vgs_max_id_find
 326              		.thumb
 327              		.thumb_func
 328              		.type	vgs_max_id_find, %function
 329              	vgs_max_id_find:
 330              	.LFB5:
  98:main.c        **** }
  99:main.c        **** 
 100:main.c        **** //Finds the MAX current 20mA, Id is found through a 100 Ohm series resistor
 101:main.c        **** //Sweeps through Vgs until a max current of 20 mA is found
 102:main.c        **** //Therefor ID_MAX = 20*100 == 2000
 103:main.c        **** unsigned int vgs_max_id_find(unsigned char Vth, unsigned char Vds_max, unsigned char Vgs_max)
 104:main.c        **** {
 331              		.loc 1 104 0
 332              		.cfi_startproc
 333              		@ args = 0, pretend = 0, frame = 0
 334              		@ frame_needed = 0, uses_anonymous_args = 0
 335              	.LVL50:
 336 0000 70B5     		push	{r4, r5, r6, lr}
 337              		.cfi_def_cfa_offset 16
 338              		.cfi_offset 4, -16
 339              		.cfi_offset 5, -12
 340              		.cfi_offset 6, -8
ARM GAS  C:\Users\legoc\AppData\Local\Temp\ccGdwsaw.s 			page 9


 341              		.cfi_offset 14, -4
 342              		.loc 1 104 0
 343 0002 0E46     		mov	r6, r1
 344 0004 0446     		mov	r4, r0
 345 0006 1546     		mov	r5, r2
 105:main.c        ****     unsigned char   Vgs;
 106:main.c        **** 	//The Gate-Source Voltage difference | Vgs_real = Vgs/256 * 4.096
 107:main.c        ****     double          Id; 
 108:main.c        **** 	//The Drain Current | Id_real = Id/100
 109:main.c        ****     ADC_SAR_1_Wakeup();
 346              		.loc 1 109 0
 347 0008 FFF7FEFF 		bl	ADC_SAR_1_Wakeup
 348              	.LVL51:
 110:main.c        ****     VDAC8_DS_SetValue(Vds_max);
 349              		.loc 1 110 0
 350 000c 3046     		mov	r0, r6
 351 000e FFF7FEFF 		bl	VDAC8_DS_SetValue
 352              	.LVL52:
 111:main.c        **** 	//Sets Vds = 188/256 * 4.096 * 3 = 9V (max Vds to test wtih) to find max current
 112:main.c        ****     for(Vgs = Vth; Vgs < Vgs_max; Vgs++)
 353              		.loc 1 112 0
 354 0012 AC42     		cmp	r4, r5
 355 0014 03D3     		bcc	.L32
 356 0016 2AE0     		b	.L28
 357              	.L35:
 358              		.loc 1 112 0 is_stmt 0 discriminator 2
 359 0018 DCB2     		uxtb	r4, r3
 360              	.LVL53:
 361 001a A542     		cmp	r5, r4
 362 001c 27D9     		bls	.L28
 363              	.L32:
 364              	.LVL54:
 365              	.LBB14:
 366              	.LBB15:
  63:main.c        ****     CyDelay(SETTLING_WAIT_TIME);
 367              		.loc 1 63 0 is_stmt 1
 368 001e 2046     		mov	r0, r4
 369 0020 FFF7FEFF 		bl	VDAC8_GS_SetValue
 370              	.LVL55:
  64:main.c        ****     ADC_SAR_1_StartConvert();
 371              		.loc 1 64 0
 372 0024 0120     		movs	r0, #1
 373 0026 FFF7FEFF 		bl	CyDelay
 374              	.LVL56:
  65:main.c        ****     ADC_SAR_1_IsEndConversion(ADC_SAR_1_WAIT_FOR_RESULT);
 375              		.loc 1 65 0
 376 002a FFF7FEFF 		bl	ADC_SAR_1_StartConvert
 377              	.LVL57:
  66:main.c        **** 	//waiting until conversion is over
 378              		.loc 1 66 0
 379 002e 0020     		movs	r0, #0
 380 0030 FFF7FEFF 		bl	ADC_SAR_1_IsEndConversion
 381              	.LVL58:
  68:main.c        ****     Output = (ADC_SAR_1_CountsTo_mVolts(ADC_SAR_1_GetResult16())/ADC_GAIN);
 382              		.loc 1 68 0
 383 0034 FFF7FEFF 		bl	ADC_SAR_1_StopConvert
 384              	.LVL59:
ARM GAS  C:\Users\legoc\AppData\Local\Temp\ccGdwsaw.s 			page 10


  69:main.c        ****     return Output;
 385              		.loc 1 69 0
 386 0038 FFF7FEFF 		bl	ADC_SAR_1_GetResult16
 387              	.LVL60:
 388 003c FFF7FEFF 		bl	ADC_SAR_1_CountsTo_mVolts
 389              	.LVL61:
 390              	.LBE15:
 391              	.LBE14:
 113:main.c        ****     {
 114:main.c        ****         Id = single_test_preset_vds(Vgs);
 115:main.c        ****         if (Id >= ID_MAX)
 392              		.loc 1 115 0
 393 0040 FFF7FEFF 		bl	__aeabi_i2d
 394              	.LVL62:
 395 0044 0022     		movs	r2, #0
 396 0046 0F4B     		ldr	r3, .L37
 397 0048 FFF7FEFF 		bl	__aeabi_ddiv
 398              	.LVL63:
 399 004c 0E4B     		ldr	r3, .L37+4
 400 004e 0022     		movs	r2, #0
 401 0050 FFF7FEFF 		bl	__aeabi_dcmpge
 402              	.LVL64:
 112:main.c        ****     {
 403              		.loc 1 112 0
 404 0054 631C     		adds	r3, r4, #1
 405              		.loc 1 115 0
 406 0056 0028     		cmp	r0, #0
 407 0058 DED0     		beq	.L35
 116:main.c        ****         {
 117:main.c        ****             ADC_SAR_1_Sleep();
 408              		.loc 1 117 0
 409 005a FFF7FEFF 		bl	ADC_SAR_1_Sleep
 410              	.LVL65:
 118:main.c        ****             VDAC8_DS_SetValue(0);
 411              		.loc 1 118 0
 412 005e 0020     		movs	r0, #0
 413 0060 FFF7FEFF 		bl	VDAC8_DS_SetValue
 414              	.LVL66:
 119:main.c        ****             VDAC8_GS_SetValue(0);
 415              		.loc 1 119 0
 416 0064 0020     		movs	r0, #0
 417 0066 FFF7FEFF 		bl	VDAC8_GS_SetValue
 418              	.LVL67:
 120:main.c        ****             return Vgs-1; //Stop stepping once max current is hit
 419              		.loc 1 120 0
 420 006a 601E     		subs	r0, r4, #1
 421 006c 70BD     		pop	{r4, r5, r6, pc}
 422              	.LVL68:
 423              	.L28:
 121:main.c        ****         }
 122:main.c        ****     }
 123:main.c        ****     ADC_SAR_1_Sleep();
 424              		.loc 1 123 0
 425 006e FFF7FEFF 		bl	ADC_SAR_1_Sleep
 426              	.LVL69:
 124:main.c        ****     VDAC8_DS_SetValue(0);
 427              		.loc 1 124 0
ARM GAS  C:\Users\legoc\AppData\Local\Temp\ccGdwsaw.s 			page 11


 428 0072 0020     		movs	r0, #0
 429 0074 FFF7FEFF 		bl	VDAC8_DS_SetValue
 430              	.LVL70:
 125:main.c        ****     VDAC8_GS_SetValue(0);
 431              		.loc 1 125 0
 432 0078 0020     		movs	r0, #0
 433 007a FFF7FEFF 		bl	VDAC8_GS_SetValue
 434              	.LVL71:
 126:main.c        ****     return Vgs; //Returns the previous Vgs step to avoid going past 20mA
 435              		.loc 1 126 0
 436 007e 2046     		mov	r0, r4
 127:main.c        **** }
 437              		.loc 1 127 0
 438 0080 70BD     		pop	{r4, r5, r6, pc}
 439              	.LVL72:
 440              	.L38:
 441 0082 00BF     		.align	2
 442              	.L37:
 443 0084 00004A40 		.word	1078591488
 444 0088 00003440 		.word	1077149696
 445              		.cfi_endproc
 446              	.LFE5:
 447              		.size	vgs_max_id_find, .-vgs_max_id_find
 448              		.global	__aeabi_d2uiz
 449              		.global	__aeabi_dadd
 450              		.global	__aeabi_dmul
 451              		.global	__aeabi_d2iz
 452              		.section	.text.run_test,"ax",%progbits
 453              		.align	2
 454              		.global	run_test
 455              		.thumb
 456              		.thumb_func
 457              		.type	run_test, %function
 458              	run_test:
 459              	.LFB6:
 128:main.c        **** 
 129:main.c        **** //This function runs the main test, it intakes the y_max used to calculate the
 130:main.c        **** //pixels for line segments and the Vgs test points
 131:main.c        **** int run_test(int y_max, unsigned char Vgs_test_points[CURVE_NUM],double Vgs_double[CURVE_NUM], unsi
 132:main.c        **** {
 460              		.loc 1 132 0
 461              		.cfi_startproc
 462              		@ args = 0, pretend = 0, frame = 96
 463              		@ frame_needed = 0, uses_anonymous_args = 0
 464              	.LVL73:
 465 0000 2DE9F04F 		push	{r4, r5, r6, r7, r8, r9, r10, fp, lr}
 466              		.cfi_def_cfa_offset 36
 467              		.cfi_offset 4, -36
 468              		.cfi_offset 5, -32
 469              		.cfi_offset 6, -28
 470              		.cfi_offset 7, -24
 471              		.cfi_offset 8, -20
 472              		.cfi_offset 9, -16
 473              		.cfi_offset 10, -12
 474              		.cfi_offset 11, -8
 475              		.cfi_offset 14, -4
 476 0004 1646     		mov	r6, r2
ARM GAS  C:\Users\legoc\AppData\Local\Temp\ccGdwsaw.s 			page 12


 477 0006 9BB0     		sub	sp, sp, #108
 478              		.cfi_def_cfa_offset 144
 133:main.c        ****     int i,j,k;
 134:main.c        ****     double Id;
 135:main.c        ****     double Id_avg;
 136:main.c        ****     char print_string[20];
 137:main.c        ****     int y_pixel_prev, x_pixel_prev;
 138:main.c        ****     int y_pixel, x_pixel;
 139:main.c        ****     int curve_color[CURVE_MAX] = {BLUE, GREEN, RED, ORANGE, CYAN, PINK, LIGHTGREY, OLIVE, WHITE, GR
 479              		.loc 1 139 0
 480 0008 894D     		ldr	r5, .L63+8
 481 000a 10AC     		add	r4, sp, #64
 132:main.c        ****     int i,j,k;
 482              		.loc 1 132 0
 483 000c 0992     		str	r2, [sp, #36]
 484 000e 0690     		str	r0, [sp, #24]
 485 0010 0891     		str	r1, [sp, #32]
 486 0012 0393     		str	r3, [sp, #12]
 487              		.loc 1 139 0
 488 0014 0FCD     		ldmia	r5!, {r0, r1, r2, r3}
 489              	.LVL74:
 490 0016 0FC4     		stmia	r4!, {r0, r1, r2, r3}
 491 0018 0FCD     		ldmia	r5!, {r0, r1, r2, r3}
 492 001a 0FC4     		stmia	r4!, {r0, r1, r2, r3}
 493 001c 95E80300 		ldmia	r5, {r0, r1}
 494 0020 3346     		mov	r3, r6
 495 0022 84E80300 		stmia	r4, {r0, r1}
 496              	.LVL75:
 140:main.c        ****     
 141:main.c        ****     for(i = 0; i < CURVE_NUM; i++)
 497              		.loc 1 141 0
 498 0026 4FF00009 		mov	r9, #0
 499              	.LVL76:
 500              	.L53:
 501              	.LBB23:
 142:main.c        ****     {
 143:main.c        ****         write_header_info("data.txt",device_selection,i,Vgs_double); 
 502              		.loc 1 143 0
 503 002a 4A46     		mov	r2, r9
 504 002c 0399     		ldr	r1, [sp, #12]
 505 002e 8148     		ldr	r0, .L63+12
 506 0030 FFF7FEFF 		bl	write_header_info
 507              	.LVL77:
 144:main.c        ****         ADC_SAR_1_Wakeup();//wakeup from sleep for reset purposes
 508              		.loc 1 144 0
 509 0034 0127     		movs	r7, #1
 510 0036 FFF7FEFF 		bl	ADC_SAR_1_Wakeup
 511              	.LVL78:
 512              	.L40:
 513              	.LBB24:
 145:main.c        ****         for(j = 0; j <VDS_NMOS_LENGTH; j++)
 146:main.c        ****         {
 147:main.c        ****             if(!screen_state)
 514              		.loc 1 147 0
 515 003a 7F4B     		ldr	r3, .L63+16
 516 003c 1868     		ldr	r0, [r3]
 517 003e 7B1E     		subs	r3, r7, #1
ARM GAS  C:\Users\legoc\AppData\Local\Temp\ccGdwsaw.s 			page 13


 518 0040 0293     		str	r3, [sp, #8]
 519              	.LVL79:
 520 0042 0028     		cmp	r0, #0
 521 0044 00F0C180 		beq	.L39
 522 0048 039A     		ldr	r2, [sp, #12]
 523 004a FBB2     		uxtb	r3, r7
 524              	.LVL80:
 525 004c 03F1FF3B 		add	fp, r3, #-1
 526 0050 012A     		cmp	r2, #1
 527 0052 5FFA8BFB 		uxtb	fp, fp
 528 0056 4FF00004 		mov	r4, #0
 529 005a 4FF00005 		mov	r5, #0
 530 005e 72D9     		bls	.L42
 531 0060 C3F1BD0B 		rsb	fp, r3, #189
 532              	.LBB25:
 533              	.LBB26:
  48:main.c        ****     VDAC8_GS_SetValue(Vgs);
 534              		.loc 1 48 0
 535 0064 5FFA8BFB 		uxtb	fp, fp
 536              	.LBE26:
 537              	.LBE25:
 538              		.loc 1 147 0
 539 0068 4FF00A0A 		mov	r10, #10
 540              	.L43:
 541              	.LVL81:
 148:main.c        ****             {
 149:main.c        ****                 return 0;   
 150:main.c        ****             }
 151:main.c        ****             Id_avg = 0.0;//reset Id Value
 152:main.c        ****             //Averaging multiple tests to elminate noise
 153:main.c        ****             for(k=0; k<AVG; k++)
 154:main.c        ****             {
 155:main.c        ****                 if(device_selection < 2) //if testing N-Type Devices
 156:main.c        ****                 {
 157:main.c        ****                     Id = single_test(j,Vgs_test_points[i]);
 158:main.c        ****                 }
 159:main.c        ****                 else //if testing P-Type devices
 160:main.c        ****                 {
 161:main.c        ****                     Id = single_test(VDAC_D_C_MAX - j, Vgs_double[i]);
 542              		.loc 1 161 0
 543 006c D6E90001 		ldrd	r0, [r6]
 544 0070 FFF7FEFF 		bl	__aeabi_d2uiz
 545              	.LVL82:
 546 0074 5FFA80F8 		uxtb	r8, r0
 547              	.LVL83:
 548              	.LBB28:
 549              	.LBB27:
  48:main.c        ****     VDAC8_GS_SetValue(Vgs);
 550              		.loc 1 48 0
 551 0078 5846     		mov	r0, fp
 552 007a FFF7FEFF 		bl	VDAC8_DS_SetValue
 553              	.LVL84:
  49:main.c        ****     CyDelay(SETTLING_WAIT_TIME);
 554              		.loc 1 49 0
 555 007e 4046     		mov	r0, r8
 556 0080 FFF7FEFF 		bl	VDAC8_GS_SetValue
 557              	.LVL85:
ARM GAS  C:\Users\legoc\AppData\Local\Temp\ccGdwsaw.s 			page 14


  50:main.c        ****     ADC_SAR_1_StartConvert();
 558              		.loc 1 50 0
 559 0084 0120     		movs	r0, #1
 560 0086 FFF7FEFF 		bl	CyDelay
 561              	.LVL86:
  51:main.c        ****     ADC_SAR_1_IsEndConversion(ADC_SAR_1_WAIT_FOR_RESULT);
 562              		.loc 1 51 0
 563 008a FFF7FEFF 		bl	ADC_SAR_1_StartConvert
 564              	.LVL87:
  52:main.c        **** 	//waiting until conversion is over
 565              		.loc 1 52 0
 566 008e 0020     		movs	r0, #0
 567 0090 FFF7FEFF 		bl	ADC_SAR_1_IsEndConversion
 568              	.LVL88:
  54:main.c        ****     Output = (ADC_SAR_1_CountsTo_mVolts(ADC_SAR_1_GetResult16())/ADC_GAIN);
 569              		.loc 1 54 0
 570 0094 FFF7FEFF 		bl	ADC_SAR_1_StopConvert
 571              	.LVL89:
  55:main.c        ****     return Output;
 572              		.loc 1 55 0
 573 0098 FFF7FEFF 		bl	ADC_SAR_1_GetResult16
 574              	.LVL90:
 575 009c FFF7FEFF 		bl	ADC_SAR_1_CountsTo_mVolts
 576              	.LVL91:
 577              	.LBE27:
 578              	.LBE28:
 162:main.c        ****                 }
 163:main.c        ****                 Id_avg += Id;
 579              		.loc 1 163 0
 580 00a0 FFF7FEFF 		bl	__aeabi_i2d
 581              	.LVL92:
 582 00a4 0022     		movs	r2, #0
 583 00a6 654B     		ldr	r3, .L63+20
 584 00a8 FFF7FEFF 		bl	__aeabi_ddiv
 585              	.LVL93:
 586 00ac 0246     		mov	r2, r0
 587 00ae 0B46     		mov	r3, r1
 588 00b0 2046     		mov	r0, r4
 589 00b2 2946     		mov	r1, r5
 590 00b4 FFF7FEFF 		bl	__aeabi_dadd
 591              	.LVL94:
 153:main.c        ****             {
 592              		.loc 1 153 0
 593 00b8 BAF1010A 		subs	r10, r10, #1
 594              		.loc 1 163 0
 595 00bc 0446     		mov	r4, r0
 596              	.LVL95:
 597 00be 0D46     		mov	r5, r1
 598              	.LVL96:
 153:main.c        ****             {
 599              		.loc 1 153 0
 600 00c0 D4D1     		bne	.L43
 601              	.L44:
 164:main.c        ****             }
 165:main.c        ****             Id_avg /= AVG;
 602              		.loc 1 165 0
 603 00c2 2046     		mov	r0, r4
ARM GAS  C:\Users\legoc\AppData\Local\Temp\ccGdwsaw.s 			page 15


 604 00c4 2946     		mov	r1, r5
 605 00c6 0022     		movs	r2, #0
 606 00c8 5D4B     		ldr	r3, .L63+24
 607 00ca FFF7FEFF 		bl	__aeabi_ddiv
 608              	.LVL97:
 609 00ce 0446     		mov	r4, r0
 610              	.LVL98:
 611 00d0 0D46     		mov	r5, r1
 612              	.LVL99:
 166:main.c        ****             write_data("data.txt",Id_avg,j,device_selection);//update CSV File with new Id/Ic
 613              		.loc 1 166 0
 614 00d2 039B     		ldr	r3, [sp, #12]
 615 00d4 0246     		mov	r2, r0
 616 00d6 0193     		str	r3, [sp, #4]
 617 00d8 029B     		ldr	r3, [sp, #8]
 618 00da 5648     		ldr	r0, .L63+12
 619 00dc 0093     		str	r3, [sp]
 620 00de 0B46     		mov	r3, r1
 621 00e0 FFF7FEFF 		bl	write_data
 622              	.LVL100:
 167:main.c        ****             //creating pixel coordinates via rations (Id/Id_max == y_pixel/y_resolution)
 168:main.c        ****             y_pixel = (int) ((Id_avg*Y_RES)/(1.25*y_max));
 623              		.loc 1 168 0
 624 00e4 50A3     		adr	r3, .L63
 625 00e6 D3E90023 		ldrd	r2, [r3]
 626 00ea 2046     		mov	r0, r4
 627 00ec 2946     		mov	r1, r5
 628 00ee FFF7FEFF 		bl	__aeabi_dmul
 629              	.LVL101:
 630 00f2 0446     		mov	r4, r0
 631              	.LVL102:
 632 00f4 0698     		ldr	r0, [sp, #24]
 633 00f6 0D46     		mov	r5, r1
 634 00f8 FFF7FEFF 		bl	__aeabi_i2d
 635              	.LVL103:
 636 00fc 0022     		movs	r2, #0
 637 00fe 514B     		ldr	r3, .L63+28
 638 0100 FFF7FEFF 		bl	__aeabi_dmul
 639              	.LVL104:
 640 0104 0B46     		mov	r3, r1
 641 0106 0246     		mov	r2, r0
 642 0108 2946     		mov	r1, r5
 643 010a 2046     		mov	r0, r4
 644 010c FFF7FEFF 		bl	__aeabi_ddiv
 645              	.LVL105:
 646 0110 FFF7FEFF 		bl	__aeabi_d2iz
 647              	.LVL106:
 169:main.c        ****             x_pixel = (int) j;
 170:main.c        ****             if (j > 0) //only draw a line if 2 points have been tested already
 648              		.loc 1 170 0
 649 0114 029B     		ldr	r3, [sp, #8]
 168:main.c        ****             x_pixel = (int) j;
 650              		.loc 1 168 0
 651 0116 0446     		mov	r4, r0
 652              	.LVL107:
 653              		.loc 1 170 0
 654 0118 83B1     		cbz	r3, .L46
ARM GAS  C:\Users\legoc\AppData\Local\Temp\ccGdwsaw.s 			page 16


 655              	.LBB29:
 171:main.c        ****             {
 172:main.c        ****                 draw_line(x_pixel_prev+30,y_pixel_prev+10,x_pixel+30,y_pixel+10,curve_color[i]);
 656              		.loc 1 172 0
 657 011a 10AB     		add	r3, sp, #64
 658              	.LVL108:
 659 011c 53F82930 		ldr	r3, [r3, r9, lsl #2]
 660 0120 00F10A05 		add	r5, r0, #10
 661 0124 0499     		ldr	r1, [sp, #16]
 662 0126 0598     		ldr	r0, [sp, #20]
 663              	.LVL109:
 664 0128 0093     		str	r3, [sp]
 665 012a 0A31     		adds	r1, r1, #10
 666 012c 1E30     		adds	r0, r0, #30
 667 012e 2B46     		mov	r3, r5
 668 0130 07F11D02 		add	r2, r7, #29
 669 0134 FFF7FEFF 		bl	draw_line
 670              	.LVL110:
 671              	.LBE29:
 672              	.LBE24:
 145:main.c        ****         {
 673              		.loc 1 145 0
 674 0138 BD2F     		cmp	r7, #189
 675 013a 49D0     		beq	.L62
 676              	.LVL111:
 677              	.L46:
 678              	.LBE23:
 141:main.c        ****     {
 679              		.loc 1 141 0
 680 013c 029B     		ldr	r3, [sp, #8]
 681              	.LBB35:
 682              	.LBB32:
 168:main.c        ****             x_pixel = (int) j;
 683              		.loc 1 168 0
 684 013e 0494     		str	r4, [sp, #16]
 685              	.LBE32:
 686              	.LBE35:
 141:main.c        ****     {
 687              		.loc 1 141 0
 688 0140 0593     		str	r3, [sp, #20]
 689 0142 0137     		adds	r7, r7, #1
 690 0144 79E7     		b	.L40
 691              	.LVL112:
 692              	.L42:
 693              	.LBB36:
 694              	.LBB33:
 147:main.c        ****             {
 695              		.loc 1 147 0
 696 0146 0796     		str	r6, [sp, #28]
 697 0148 089E     		ldr	r6, [sp, #32]
 698 014a 4FF00A0A 		mov	r10, #10
 699              	.L45:
 700              	.LVL113:
 157:main.c        ****                 }
 701              		.loc 1 157 0
 702 014e 16F80980 		ldrb	r8, [r6, r9]	@ zero_extendqisi2
 703              	.LVL114:
ARM GAS  C:\Users\legoc\AppData\Local\Temp\ccGdwsaw.s 			page 17


 704              	.LBB30:
 705              	.LBB31:
  48:main.c        ****     VDAC8_GS_SetValue(Vgs);
 706              		.loc 1 48 0
 707 0152 5846     		mov	r0, fp
 708 0154 FFF7FEFF 		bl	VDAC8_DS_SetValue
 709              	.LVL115:
  49:main.c        ****     CyDelay(SETTLING_WAIT_TIME);
 710              		.loc 1 49 0
 711 0158 4046     		mov	r0, r8
 712 015a FFF7FEFF 		bl	VDAC8_GS_SetValue
 713              	.LVL116:
  50:main.c        ****     ADC_SAR_1_StartConvert();
 714              		.loc 1 50 0
 715 015e 0120     		movs	r0, #1
 716 0160 FFF7FEFF 		bl	CyDelay
 717              	.LVL117:
  51:main.c        ****     ADC_SAR_1_IsEndConversion(ADC_SAR_1_WAIT_FOR_RESULT);
 718              		.loc 1 51 0
 719 0164 FFF7FEFF 		bl	ADC_SAR_1_StartConvert
 720              	.LVL118:
  52:main.c        **** 	//waiting until conversion is over
 721              		.loc 1 52 0
 722 0168 0020     		movs	r0, #0
 723 016a FFF7FEFF 		bl	ADC_SAR_1_IsEndConversion
 724              	.LVL119:
  54:main.c        ****     Output = (ADC_SAR_1_CountsTo_mVolts(ADC_SAR_1_GetResult16())/ADC_GAIN);
 725              		.loc 1 54 0
 726 016e FFF7FEFF 		bl	ADC_SAR_1_StopConvert
 727              	.LVL120:
  55:main.c        ****     return Output;
 728              		.loc 1 55 0
 729 0172 FFF7FEFF 		bl	ADC_SAR_1_GetResult16
 730              	.LVL121:
 731 0176 FFF7FEFF 		bl	ADC_SAR_1_CountsTo_mVolts
 732              	.LVL122:
 733              	.LBE31:
 734              	.LBE30:
 163:main.c        ****             }
 735              		.loc 1 163 0
 736 017a FFF7FEFF 		bl	__aeabi_i2d
 737              	.LVL123:
 738 017e 0022     		movs	r2, #0
 739 0180 2E4B     		ldr	r3, .L63+20
 740 0182 FFF7FEFF 		bl	__aeabi_ddiv
 741              	.LVL124:
 742 0186 0246     		mov	r2, r0
 743 0188 0B46     		mov	r3, r1
 744 018a 2046     		mov	r0, r4
 745 018c 2946     		mov	r1, r5
 746 018e FFF7FEFF 		bl	__aeabi_dadd
 747              	.LVL125:
 153:main.c        ****             {
 748              		.loc 1 153 0
 749 0192 BAF1010A 		subs	r10, r10, #1
 163:main.c        ****             }
 750              		.loc 1 163 0
ARM GAS  C:\Users\legoc\AppData\Local\Temp\ccGdwsaw.s 			page 18


 751 0196 0446     		mov	r4, r0
 752              	.LVL126:
 753 0198 0D46     		mov	r5, r1
 754              	.LVL127:
 153:main.c        ****             {
 755              		.loc 1 153 0
 756 019a D8D1     		bne	.L45
 757 019c 079E     		ldr	r6, [sp, #28]
 758 019e 90E7     		b	.L44
 759              	.LVL128:
 760              	.L52:
 761              	.LBE33:
 173:main.c        ****             }
 174:main.c        ****             y_pixel_prev = y_pixel;
 175:main.c        ****             x_pixel_prev = x_pixel;
 176:main.c        ****             }
 177:main.c        ****         ADC_SAR_1_Sleep(); //sleep to reset ADC between curves
 178:main.c        ****         switch(device_selection)
 179:main.c        ****         {
 180:main.c        ****             case 0:
 181:main.c        ****                 sprintf(print_string,"%5.3f V",Vgs_double[i]);
 182:main.c        ****                 break;
 183:main.c        ****             case 1:
 184:main.c        ****                 sprintf(print_string,"%.3f MIL A",Vgs_double[i]);
 185:main.c        ****                 break;
 186:main.c        ****             case 2:
 187:main.c        ****                 sprintf(print_string,"%6.3f V",Vgs_double[i]);
 188:main.c        ****                 break;
 189:main.c        ****             case 3:
 190:main.c        ****                 sprintf(print_string,"%6.3f MIL A",Vgs_double[i]);
 762              		.loc 1 190 0
 763 01a0 3846     		mov	r0, r7
 764 01a2 D6E90023 		ldrd	r2, [r6]
 765 01a6 2849     		ldr	r1, .L63+32
 766 01a8 FFF7FEFF 		bl	sprintf
 767              	.LVL129:
 768              	.L47:
 191:main.c        ****                 break;
 192:main.c        ****         }
 193:main.c        ****         draw_string(x_pixel_prev+35,y_pixel_prev+10,WHITE,print_string);
 769              		.loc 1 193 0 discriminator 2
 770 01ac 0298     		ldr	r0, [sp, #8]
 771 01ae 3B46     		mov	r3, r7
 772 01b0 2946     		mov	r1, r5
 773              	.LBE36:
 141:main.c        ****     {
 774              		.loc 1 141 0 discriminator 2
 775 01b2 09F10109 		add	r9, r9, #1
 776              	.LVL130:
 777              	.LBB37:
 778              		.loc 1 193 0 discriminator 2
 779 01b6 4FF6FF72 		movw	r2, #65535
 780 01ba 2330     		adds	r0, r0, #35
 781 01bc FFF7FEFF 		bl	draw_string
 782              	.LVL131:
 783              	.LBE37:
 141:main.c        ****     {
ARM GAS  C:\Users\legoc\AppData\Local\Temp\ccGdwsaw.s 			page 19


 784              		.loc 1 141 0 discriminator 2
 785 01c0 B9F1040F 		cmp	r9, #4
 786 01c4 06F10806 		add	r6, r6, #8
 787 01c8 29D1     		bne	.L54
 788              	.LVL132:
 789              	.L39:
 194:main.c        ****     }
 195:main.c        ****     
 196:main.c        **** }
 790              		.loc 1 196 0
 791 01ca 1BB0     		add	sp, sp, #108
 792              		.cfi_remember_state
 793              		.cfi_def_cfa_offset 36
 794              		@ sp needed
 795 01cc BDE8F08F 		pop	{r4, r5, r6, r7, r8, r9, r10, fp, pc}
 796              	.LVL133:
 797              	.L62:
 798              		.cfi_restore_state
 799              	.LBB38:
 177:main.c        ****         switch(device_selection)
 800              		.loc 1 177 0
 801 01d0 FFF7FEFF 		bl	ADC_SAR_1_Sleep
 802              	.LVL134:
 178:main.c        ****         {
 803              		.loc 1 178 0
 804 01d4 039B     		ldr	r3, [sp, #12]
 805 01d6 0BAF     		add	r7, sp, #44
 806              	.LVL135:
 807 01d8 032B     		cmp	r3, #3
 808 01da E7D8     		bhi	.L47
 809 01dc 01A2     		adr	r2, .L49
 810 01de 52F823F0 		ldr	pc, [r2, r3, lsl #2]
 811 01e2 00BF     		.p2align 2
 812              	.L49:
 813 01e4 03020000 		.word	.L48+1
 814 01e8 11020000 		.word	.L50+1
 815 01ec F5010000 		.word	.L51+1
 816 01f0 A1010000 		.word	.L52+1
 817              		.p2align 1
 818              	.L51:
 187:main.c        ****                 break;
 819              		.loc 1 187 0
 820 01f4 3846     		mov	r0, r7
 821 01f6 D6E90023 		ldrd	r2, [r6]
 822 01fa 1449     		ldr	r1, .L63+36
 823 01fc FFF7FEFF 		bl	sprintf
 824              	.LVL136:
 188:main.c        ****             case 3:
 825              		.loc 1 188 0
 826 0200 D4E7     		b	.L47
 827              	.L48:
 181:main.c        ****                 break;
 828              		.loc 1 181 0
 829 0202 3846     		mov	r0, r7
 830 0204 D6E90023 		ldrd	r2, [r6]
 831 0208 1149     		ldr	r1, .L63+40
 832 020a FFF7FEFF 		bl	sprintf
ARM GAS  C:\Users\legoc\AppData\Local\Temp\ccGdwsaw.s 			page 20


 833              	.LVL137:
 182:main.c        ****             case 1:
 834              		.loc 1 182 0
 835 020e CDE7     		b	.L47
 836              	.L50:
 184:main.c        ****                 break;
 837              		.loc 1 184 0
 838 0210 3846     		mov	r0, r7
 839 0212 D6E90023 		ldrd	r2, [r6]
 840 0216 0F49     		ldr	r1, .L63+44
 841 0218 FFF7FEFF 		bl	sprintf
 842              	.LVL138:
 185:main.c        ****             case 2:
 843              		.loc 1 185 0
 844 021c C6E7     		b	.L47
 845              	.L54:
 846              	.LBE38:
 847 021e 029B     		ldr	r3, [sp, #8]
 848              	.LBB39:
 849              	.LBB34:
 168:main.c        ****             x_pixel = (int) j;
 850              		.loc 1 168 0
 851 0220 0494     		str	r4, [sp, #16]
 852              	.LBE34:
 853              	.LBE39:
 854 0222 0593     		str	r3, [sp, #20]
 855 0224 099B     		ldr	r3, [sp, #36]
 856 0226 00E7     		b	.L53
 857              	.L64:
 858              		.align	3
 859              	.L63:
 860 0228 00000000 		.word	0
 861 022c 00C06C40 		.word	1080868864
 862 0230 00000000 		.word	.LANCHOR0
 863 0234 00000000 		.word	.LC1
 864 0238 00000000 		.word	screen_state
 865 023c 00004A40 		.word	1078591488
 866 0240 00002440 		.word	1076101120
 867 0244 0000F43F 		.word	1072955392
 868 0248 28000000 		.word	.LC5
 869 024c 20000000 		.word	.LC4
 870 0250 0C000000 		.word	.LC2
 871 0254 14000000 		.word	.LC3
 872              		.cfi_endproc
 873              	.LFE6:
 874              		.size	run_test, .-run_test
 875              		.global	__aeabi_ui2d
 876              		.global	__aeabi_dsub
 877              		.section	.text.startup.main,"ax",%progbits
 878              		.align	2
 879              		.global	main
 880              		.thumb
 881              		.thumb_func
 882              		.type	main, %function
 883              	main:
 884              	.LFB7:
 197:main.c        **** 
ARM GAS  C:\Users\legoc\AppData\Local\Temp\ccGdwsaw.s 			page 21


 198:main.c        **** 
 199:main.c        **** int main(void)
 200:main.c        **** {
 885              		.loc 1 200 0
 886              		.cfi_startproc
 887              		@ args = 0, pretend = 0, frame = 56
 888              		@ frame_needed = 0, uses_anonymous_args = 0
 889 0000 2DE9F043 		push	{r4, r5, r6, r7, r8, r9, lr}
 890              		.cfi_def_cfa_offset 28
 891              		.cfi_offset 4, -28
 892              		.cfi_offset 5, -24
 893              		.cfi_offset 6, -20
 894              		.cfi_offset 7, -16
 895              		.cfi_offset 8, -12
 896              		.cfi_offset 9, -8
 897              		.cfi_offset 14, -4
 898 0004 8FB0     		sub	sp, sp, #60
 899              		.cfi_def_cfa_offset 88
 201:main.c        ****     CyGlobalIntEnable; /* Enable global interrupts. */
 900              		.loc 1 201 0
 901              		.syntax unified
 902              	@ 201 "main.c" 1
 903 0006 62B6     		CPSIE   i
 904              	@ 0 "" 2
 202:main.c        ****     
 203:main.c        ****     // Starts clock for SPI
 204:main.c        ****     SPIM_Start();
 905              		.loc 1 204 0
 906              		.thumb
 907              		.syntax unified
 908 0008 FFF7FEFF 		bl	SPIM_Start
 909              	.LVL139:
 205:main.c        ****     Clock_Start();
 910              		.loc 1 205 0
 911 000c FFF7FEFF 		bl	Clock_Start
 912              	.LVL140:
 206:main.c        ****     
 207:main.c        ****     
 208:main.c        ****     // Resets screen
 209:main.c        ****     Reset_Write(1);
 913              		.loc 1 209 0
 914 0010 0120     		movs	r0, #1
 915 0012 FFF7FEFF 		bl	Reset_Write
 916              	.LVL141:
 210:main.c        ****     CyDelay(1000);
 917              		.loc 1 210 0
 918 0016 4FF47A70 		mov	r0, #1000
 919 001a FFF7FEFF 		bl	CyDelay
 920              	.LVL142:
 211:main.c        ****     Reset_Write(0);
 921              		.loc 1 211 0
 922 001e 0020     		movs	r0, #0
 923 0020 FFF7FEFF 		bl	Reset_Write
 924              	.LVL143:
 212:main.c        ****     CyDelay(1000);
 925              		.loc 1 212 0
 926 0024 4FF47A70 		mov	r0, #1000
ARM GAS  C:\Users\legoc\AppData\Local\Temp\ccGdwsaw.s 			page 22


 927 0028 FFF7FEFF 		bl	CyDelay
 928              	.LVL144:
 213:main.c        ****     Reset_Write(1);
 929              		.loc 1 213 0
 930 002c 0120     		movs	r0, #1
 931 002e FFF7FEFF 		bl	Reset_Write
 932              	.LVL145:
 214:main.c        ****     CyDelay(1000);
 933              		.loc 1 214 0
 934 0032 4FF47A70 		mov	r0, #1000
 935 0036 FFF7FEFF 		bl	CyDelay
 936              	.LVL146:
 215:main.c        ****     
 216:main.c        ****     
 217:main.c        ****     
 218:main.c        ****     // Calls start screen
 219:main.c        ****     StartScreen();
 937              		.loc 1 219 0
 938 003a FFF7FEFF 		bl	StartScreen
 939              	.LVL147:
 220:main.c        ****     
 221:main.c        ****     // Fills screen in black    
 222:main.c        ****       
 223:main.c        ****     
 224:main.c        ****     isr_ClearPending();
 940              		.loc 1 224 0
 941 003e FFF7FEFF 		bl	isr_ClearPending
 942              	.LVL148:
 225:main.c        ****     
 226:main.c        ****     isr_Start();
 943              		.loc 1 226 0
 944 0042 FFF7FEFF 		bl	isr_Start
 945              	.LVL149:
 227:main.c        ****     isr_Enable();
 946              		.loc 1 227 0
 947 0046 FFF7FEFF 		bl	isr_Enable
 948              	.LVL150:
 228:main.c        ****     
 229:main.c        **** //    // Test case for writing characters 0-9 and period
 230:main.c        **** //    uint16_t char_x = 5;
 231:main.c        **** //    for(int p=0;p<=21;p++)
 232:main.c        **** //    {
 233:main.c        **** //        draw_character(char_x,235,WHITE,p);
 234:main.c        **** //        char_x = char_x+7;
 235:main.c        **** //    }
 236:main.c        **** //    
 237:main.c        **** //    double temp_num = 87.926;
 238:main.c        **** //    
 239:main.c        **** //    draw_number(100,100,WHITE,temp_num);
 240:main.c        **** //    
 241:main.c        **** //    char string_test[] = {"abcdefghijklmnopqrstuvwxyz"};
 242:main.c        **** //    draw_string(200,100,WHITE,string_test);
 243:main.c        **** //    draw_string(120, 160, WHITE, "abc");
 244:main.c        **** //    
 245:main.c        **** //    CyDelay(10000);
 246:main.c        **** //    
 247:main.c        **** //    fill_screen(BLACK);
ARM GAS  C:\Users\legoc\AppData\Local\Temp\ccGdwsaw.s 			page 23


 248:main.c        ****     
 249:main.c        ****     //Enabling VDACs and ADCs
 250:main.c        ****     VDAC8_GS_Start();
 949              		.loc 1 250 0
 950 004a FFF7FEFF 		bl	VDAC8_GS_Start
 951              	.LVL151:
 251:main.c        ****     VDAC8_DS_Start();
 952              		.loc 1 251 0
 953 004e FFF7FEFF 		bl	VDAC8_DS_Start
 954              	.LVL152:
 252:main.c        ****     ADC_SAR_1_Start();
 955              		.loc 1 252 0
 956 0052 FFF7FEFF 		bl	ADC_SAR_1_Start
 957              	.LVL153:
 253:main.c        ****     
 254:main.c        ****     int return_code;    //Going to be used for error displays
 255:main.c        ****     
 256:main.c        ****     int i;  //used for for loop iterations
 257:main.c        ****     int j;  //used for for loop iterations
 258:main.c        ****     int k;  //used for for loop iterations
 259:main.c        ****     
 260:main.c        ****     double y_max_mA;                        //The highest plottable Id in mA    
 261:main.c        ****     double x_max_mV = 10000;                   //the highest plottable Vds in mV
 262:main.c        ****     
 263:main.c        ****     unsigned int Vth;      //VDAC code for the threshold voltage
 264:main.c        ****     unsigned int Vgs_max;  //VDAC code for the the maximum Vgs that produces < 20 mA
 265:main.c        ****     int x_pixel;
 266:main.c        ****     int y_pixel;
 267:main.c        ****     int x_pixel_prev;
 268:main.c        ****     int y_pixel_prev;
 269:main.c        ****     int y_max_calc;
 270:main.c        ****     
 271:main.c        ****     
 272:main.c        ****     unsigned char Vgs_step;                         //The stepping amount to create the Vgs test po
 273:main.c        ****     unsigned char Vgs_test_points[CURVE_NUM];       //The Vgs stepping points of ammount specified 
 274:main.c        ****     
 275:main.c        ****     double Output_data_y[CURVE_NUM][VDS_NMOS_LENGTH] = {0};     //The output data of Id NMOS trace 
 276:main.c        ****     double Output_data_x[VDS_NMOS_LENGTH];                      //The Vds points used. Used for plo
 277:main.c        ****     double Vgs_points_double[CURVE_NUM];                        //The actual Vgs output by DAC
 278:main.c        ****     FS_FILE * pFile;
 279:main.c        ****     int debug;
 280:main.c        ****     
 281:main.c        ****     FS_Init();
 958              		.loc 1 281 0
 959 0056 FFF7FEFF 		bl	FS_Init
 960              	.LVL154:
 282:main.c        ****     debug = FS_MountEx("PSOC",FS_MOUNT_RW);
 961              		.loc 1 282 0
 962 005a 0321     		movs	r1, #3
 963 005c C048     		ldr	r0, .L133+8
 964 005e FFF7FEFF 		bl	FS_MountEx
 965              	.LVL155:
 283:main.c        **** //    if (debug <= 0)
 284:main.c        **** //    {
 285:main.c        **** //        draw_string(100,80,WHITE,"NO MOUNT");
 286:main.c        **** //    }
 287:main.c        ****     pFile = FS_FOpen("test.txt", "+w");
ARM GAS  C:\Users\legoc\AppData\Local\Temp\ccGdwsaw.s 			page 24


 966              		.loc 1 287 0
 967 0062 C049     		ldr	r1, .L133+12
 968 0064 C048     		ldr	r0, .L133+16
 969 0066 FFF7FEFF 		bl	FS_FOpen
 970              	.LVL156:
 971 006a 0446     		mov	r4, r0
 972              	.LVL157:
 288:main.c        **** //    if (pFile == 0)
 289:main.c        **** //    {
 290:main.c        **** //        draw_string(100,100,WHITE,"NO OPEN");
 291:main.c        **** //    }
 292:main.c        ****     const char text[] = "Can Write";
 973              		.loc 1 292 0
 974 006c BF4A     		ldr	r2, .L133+20
 975 006e 03AB     		add	r3, sp, #12
 976 0070 07CA     		ldmia	r2, {r0, r1, r2}
 977              	.LVL158:
 978 0072 03C3     		stmia	r3!, {r0, r1}
 293:main.c        ****     FS_Write(pFile,text,strlen(text));
 979              		.loc 1 293 0
 980 0074 03A9     		add	r1, sp, #12
 292:main.c        ****     FS_Write(pFile,text,strlen(text));
 981              		.loc 1 292 0
 982 0076 1A80     		strh	r2, [r3]	@ movhi
 983              		.loc 1 293 0
 984 0078 2046     		mov	r0, r4
 985 007a 0922     		movs	r2, #9
 986 007c FFF7FEFF 		bl	FS_Write
 987              	.LVL159:
 294:main.c        ****     FS_FClose(pFile);
 988              		.loc 1 294 0
 989 0080 2046     		mov	r0, r4
 990 0082 FFF7FEFF 		bl	FS_FClose
 991              	.LVL160:
 992 0086 BA4D     		ldr	r5, .L133+24
 993 0088 BA4E     		ldr	r6, .L133+28
 994              	.LVL161:
 995              	.L110:
 996              	.LBB60:
 295:main.c        ****     
 296:main.c        ****     for(;;)
 297:main.c        ****     { 
 298:main.c        ****         draw_choose_screen();
 997              		.loc 1 298 0
 998 008a FFF7FEFF 		bl	draw_choose_screen
 999              	.LVL162:
 299:main.c        ****         device_selection = -1;
 1000              		.loc 1 299 0
 1001 008e 4FF0FF32 		mov	r2, #-1
 300:main.c        ****         while(device_selection < 0)
 1002              		.loc 1 300 0
 1003 0092 1346     		mov	r3, r2
 299:main.c        ****         device_selection = -1;
 1004              		.loc 1 299 0
 1005 0094 2A60     		str	r2, [r5]
 1006 0096 0AE0     		b	.L68
 1007              	.LVL163:
ARM GAS  C:\Users\legoc\AppData\Local\Temp\ccGdwsaw.s 			page 25


 1008              	.L66:
 1009              	.LBB61:
 1010              	.LBB62:
  37:main.c        ****         AMux_2_Select(1);
 1011              		.loc 1 37 0
 1012 0098 FFF7FEFF 		bl	AMux_1_Select
 1013              	.LVL164:
  38:main.c        ****         AMux_3_Select(1);
 1014              		.loc 1 38 0
 1015 009c 0120     		movs	r0, #1
 1016 009e FFF7FEFF 		bl	AMux_2_Select
 1017              	.LVL165:
  39:main.c        ****     }
 1018              		.loc 1 39 0
 1019 00a2 0120     		movs	r0, #1
 1020 00a4 FFF7FEFF 		bl	AMux_3_Select
 1021              	.LVL166:
 1022              	.LBE62:
 1023              	.LBE61:
 1024              		.loc 1 300 0
 1025 00a8 2B68     		ldr	r3, [r5]
 1026 00aa 002B     		cmp	r3, #0
 1027 00ac 0FDA     		bge	.L131
 1028              	.L68:
 1029              	.LVL167:
 1030              	.LBB66:
 1031              	.LBB65:
  37:main.c        ****         AMux_2_Select(1);
 1032              		.loc 1 37 0
 1033 00ae 0120     		movs	r0, #1
  29:main.c        ****     {
 1034              		.loc 1 29 0
 1035 00b0 DBB2     		uxtb	r3, r3
 1036 00b2 8342     		cmp	r3, r0
 1037 00b4 F0D8     		bhi	.L66
 1038              	.LVL168:
 1039              	.LBB63:
 1040              	.LBB64:
  31:main.c        ****         AMux_2_Select(0);
 1041              		.loc 1 31 0
 1042 00b6 0020     		movs	r0, #0
 1043 00b8 FFF7FEFF 		bl	AMux_1_Select
 1044              	.LVL169:
  32:main.c        ****         AMux_3_Select(0);
 1045              		.loc 1 32 0
 1046 00bc 0020     		movs	r0, #0
 1047 00be FFF7FEFF 		bl	AMux_2_Select
 1048              	.LVL170:
  33:main.c        ****     }
 1049              		.loc 1 33 0
 1050 00c2 0020     		movs	r0, #0
 1051 00c4 FFF7FEFF 		bl	AMux_3_Select
 1052              	.LVL171:
 1053              	.LBE64:
 1054              	.LBE63:
 1055              	.LBE65:
 1056              	.LBE66:
ARM GAS  C:\Users\legoc\AppData\Local\Temp\ccGdwsaw.s 			page 26


 1057              		.loc 1 300 0
 1058 00c8 2B68     		ldr	r3, [r5]
 1059 00ca 002B     		cmp	r3, #0
 1060 00cc EFDB     		blt	.L68
 1061              	.L131:
 301:main.c        ****         set_transistor_test_type(device_selection);
 302:main.c        ****         if(device_selection < 2)
 1062              		.loc 1 302 0
 1063 00ce 012B     		cmp	r3, #1
 1064 00d0 40F37C82 		ble	.L132
 1065              	.LVL172:
 1066              	.LBB67:
 1067              	.LBB68:
  83:main.c        ****     VDAC8_DS_SetValue(Vds); //Set Vds to 1 Volt
 1068              		.loc 1 83 0
 1069 00d4 FFF7FEFF 		bl	ADC_SAR_1_Wakeup
 1070              	.LVL173:
  84:main.c        ****     VDAC8_GS_SetValue(0);
 1071              		.loc 1 84 0
 1072 00d8 0D20     		movs	r0, #13
 1073 00da FFF7FEFF 		bl	VDAC8_DS_SetValue
 1074              	.LVL174:
  85:main.c        ****     for(Vgs = 0; Vgs < Vgs_max; Vgs++)
 1075              		.loc 1 85 0
 1076 00de 0020     		movs	r0, #0
 1077 00e0 FFF7FEFF 		bl	VDAC8_GS_SetValue
 1078              	.LVL175:
 1079 00e4 0024     		movs	r4, #0
 1080              	.LVL176:
 1081              	.L77:
 1082 00e6 5FFA84F8 		uxtb	r8, r4
 1083              	.LVL177:
 1084              	.LBB69:
 1085              	.LBB70:
  63:main.c        ****     CyDelay(SETTLING_WAIT_TIME);
 1086              		.loc 1 63 0
 1087 00ea 4046     		mov	r0, r8
 1088 00ec FFF7FEFF 		bl	VDAC8_GS_SetValue
 1089              	.LVL178:
  64:main.c        ****     ADC_SAR_1_StartConvert();
 1090              		.loc 1 64 0
 1091 00f0 0120     		movs	r0, #1
 1092 00f2 FFF7FEFF 		bl	CyDelay
 1093              	.LVL179:
  65:main.c        ****     ADC_SAR_1_IsEndConversion(ADC_SAR_1_WAIT_FOR_RESULT);
 1094              		.loc 1 65 0
 1095 00f6 FFF7FEFF 		bl	ADC_SAR_1_StartConvert
 1096              	.LVL180:
  66:main.c        **** 	//waiting until conversion is over
 1097              		.loc 1 66 0
 1098 00fa 0020     		movs	r0, #0
 1099 00fc FFF7FEFF 		bl	ADC_SAR_1_IsEndConversion
 1100              	.LVL181:
  68:main.c        ****     Output = (ADC_SAR_1_CountsTo_mVolts(ADC_SAR_1_GetResult16())/ADC_GAIN);
 1101              		.loc 1 68 0
 1102 0100 FFF7FEFF 		bl	ADC_SAR_1_StopConvert
 1103              	.LVL182:
ARM GAS  C:\Users\legoc\AppData\Local\Temp\ccGdwsaw.s 			page 27


  69:main.c        ****     return Output;
 1104              		.loc 1 69 0
 1105 0104 FFF7FEFF 		bl	ADC_SAR_1_GetResult16
 1106              	.LVL183:
 1107 0108 FFF7FEFF 		bl	ADC_SAR_1_CountsTo_mVolts
 1108              	.LVL184:
 1109              	.LBE70:
 1110              	.LBE69:
  89:main.c        ****         {
 1111              		.loc 1 89 0
 1112 010c FFF7FEFF 		bl	__aeabi_i2d
 1113              	.LVL185:
 1114 0110 0022     		movs	r2, #0
 1115 0112 994B     		ldr	r3, .L133+32
 1116 0114 FFF7FEFF 		bl	__aeabi_ddiv
 1117              	.LVL186:
 1118 0118 0022     		movs	r2, #0
 1119 011a 984B     		ldr	r3, .L133+36
 1120 011c FFF7FEFF 		bl	__aeabi_dcmpgt
 1121              	.LVL187:
 1122 0120 0134     		adds	r4, r4, #1
 1123              	.LVL188:
 1124 0122 0028     		cmp	r0, #0
 1125 0124 40F03982 		bne	.L128
  86:main.c        ****     {
 1126              		.loc 1 86 0
 1127 0128 FF2C     		cmp	r4, #255
 1128 012a DCD1     		bne	.L77
 1129              	.LVL189:
 1130              	.L129:
 1131 012c 0190     		str	r0, [sp, #4]
  96:main.c        ****     return 0; //If a Vth cannot be found
 1132              		.loc 1 96 0
 1133 012e FFF7FEFF 		bl	ADC_SAR_1_Sleep
 1134              	.LVL190:
 1135 0132 0198     		ldr	r0, [sp, #4]
 1136 0134 0746     		mov	r7, r0
 1137              	.LVL191:
 1138              	.L74:
 1139              	.LBE68:
 1140              	.LBE67:
 1141              	.LBB72:
 303:main.c        ****         {
 304:main.c        ****             
 305:main.c        ****             Vth = vgs_th_find(VDAC_G_B_MAX,VDAC_N_1_VOLT);
 306:main.c        ****         }
 307:main.c        ****         else
 308:main.c        ****         {
 309:main.c        ****             Vth = vgs_th_find(VDAC_G_B_MAX,VDAC_P_1_VOLT);
 310:main.c        ****         }
 311:main.c        ****         if (Vth == 0)
 312:main.c        ****         {
 313:main.c        ****             fill_screen(BLACK);
 1142              		.loc 1 313 0
 1143 0136 0020     		movs	r0, #0
 1144 0138 FFF7FEFF 		bl	fill_screen
 1145              	.LVL192:
ARM GAS  C:\Users\legoc\AppData\Local\Temp\ccGdwsaw.s 			page 28


 314:main.c        ****             draw_string(120, 160, WHITE, "VTH CANNOT BE FOUND");
 1146              		.loc 1 314 0
 1147 013c 904B     		ldr	r3, .L133+40
 1148 013e 4FF6FF72 		movw	r2, #65535
 1149 0142 A021     		movs	r1, #160
 1150 0144 7820     		movs	r0, #120
 1151 0146 FFF7FEFF 		bl	draw_string
 1152              	.LVL193:
 315:main.c        ****             create_file_with_text("log.txt", "No Threshold Voltage found, check power supplies");
 1153              		.loc 1 315 0
 1154 014a 8E49     		ldr	r1, .L133+44
 1155 014c 8E48     		ldr	r0, .L133+48
 1156 014e FFF7FEFF 		bl	create_file_with_text
 1157              	.LVL194:
 1158              	.LBE72:
 1159              	.LBB73:
 1160              	.LBB74:
 109:main.c        ****     VDAC8_DS_SetValue(Vds_max);
 1161              		.loc 1 109 0
 1162 0152 FFF7FEFF 		bl	ADC_SAR_1_Wakeup
 1163              	.LVL195:
 110:main.c        **** 	//Sets Vds = 188/256 * 4.096 * 3 = 9V (max Vds to test wtih) to find max current
 1164              		.loc 1 110 0
 1165 0156 BC20     		movs	r0, #188
 1166 0158 FFF7FEFF 		bl	VDAC8_DS_SetValue
 1167              	.LVL196:
 1168 015c 4FF00008 		mov	r8, #0
 1169              	.LVL197:
 1170              	.L79:
 1171 0160 3C46     		mov	r4, r7
 1172 0162 03E0     		b	.L84
 1173              	.LVL198:
 1174              	.L125:
 112:main.c        ****     {
 1175              		.loc 1 112 0
 1176 0164 DCB2     		uxtb	r4, r3
 1177              	.LVL199:
 1178 0166 DC2C     		cmp	r4, #220
 1179 0168 00F02782 		beq	.L80
 1180              	.LVL200:
 1181              	.L84:
 1182              	.LBB75:
 1183              	.LBB76:
  63:main.c        ****     CyDelay(SETTLING_WAIT_TIME);
 1184              		.loc 1 63 0
 1185 016c 2046     		mov	r0, r4
 1186 016e FFF7FEFF 		bl	VDAC8_GS_SetValue
 1187              	.LVL201:
  64:main.c        ****     ADC_SAR_1_StartConvert();
 1188              		.loc 1 64 0
 1189 0172 0120     		movs	r0, #1
 1190 0174 FFF7FEFF 		bl	CyDelay
 1191              	.LVL202:
  65:main.c        ****     ADC_SAR_1_IsEndConversion(ADC_SAR_1_WAIT_FOR_RESULT);
 1192              		.loc 1 65 0
 1193 0178 FFF7FEFF 		bl	ADC_SAR_1_StartConvert
 1194              	.LVL203:
ARM GAS  C:\Users\legoc\AppData\Local\Temp\ccGdwsaw.s 			page 29


  66:main.c        **** 	//waiting until conversion is over
 1195              		.loc 1 66 0
 1196 017c 0020     		movs	r0, #0
 1197 017e FFF7FEFF 		bl	ADC_SAR_1_IsEndConversion
 1198              	.LVL204:
  68:main.c        ****     Output = (ADC_SAR_1_CountsTo_mVolts(ADC_SAR_1_GetResult16())/ADC_GAIN);
 1199              		.loc 1 68 0
 1200 0182 FFF7FEFF 		bl	ADC_SAR_1_StopConvert
 1201              	.LVL205:
  69:main.c        ****     return Output;
 1202              		.loc 1 69 0
 1203 0186 FFF7FEFF 		bl	ADC_SAR_1_GetResult16
 1204              	.LVL206:
 1205 018a FFF7FEFF 		bl	ADC_SAR_1_CountsTo_mVolts
 1206              	.LVL207:
 1207              	.LBE76:
 1208              	.LBE75:
 115:main.c        ****         {
 1209              		.loc 1 115 0
 1210 018e FFF7FEFF 		bl	__aeabi_i2d
 1211              	.LVL208:
 1212 0192 0022     		movs	r2, #0
 1213 0194 784B     		ldr	r3, .L133+32
 1214 0196 FFF7FEFF 		bl	__aeabi_ddiv
 1215              	.LVL209:
 1216 019a 7C4B     		ldr	r3, .L133+52
 1217 019c 0022     		movs	r2, #0
 1218 019e FFF7FEFF 		bl	__aeabi_dcmpge
 1219              	.LVL210:
 112:main.c        ****     {
 1220              		.loc 1 112 0
 1221 01a2 631C     		adds	r3, r4, #1
 115:main.c        ****         {
 1222              		.loc 1 115 0
 1223 01a4 0028     		cmp	r0, #0
 1224 01a6 DDD0     		beq	.L125
 117:main.c        ****             VDAC8_DS_SetValue(0);
 1225              		.loc 1 117 0
 1226 01a8 FFF7FEFF 		bl	ADC_SAR_1_Sleep
 1227              	.LVL211:
 118:main.c        ****             VDAC8_GS_SetValue(0);
 1228              		.loc 1 118 0
 1229 01ac 0020     		movs	r0, #0
 1230 01ae FFF7FEFF 		bl	VDAC8_DS_SetValue
 1231              	.LVL212:
 119:main.c        ****             return Vgs-1; //Stop stepping once max current is hit
 1232              		.loc 1 119 0
 1233 01b2 0020     		movs	r0, #0
 1234 01b4 FFF7FEFF 		bl	VDAC8_GS_SetValue
 1235              	.LVL213:
 120:main.c        ****         }
 1236              		.loc 1 120 0
 1237 01b8 013C     		subs	r4, r4, #1
 1238              	.LVL214:
 1239              	.L83:
 1240              	.LBE74:
 1241              	.LBE73:
ARM GAS  C:\Users\legoc\AppData\Local\Temp\ccGdwsaw.s 			page 30


 316:main.c        **** //            return 0;
 317:main.c        ****         }
 318:main.c        ****         Vgs_max = vgs_max_id_find(Vth,VDAC_D_C_MAX,220);
 319:main.c        ****         Vgs_step = (Vgs_max - Vth)/(CURVE_NUM-1); //Creating the step size for linearlly spaced
 1242              		.loc 1 319 0
 1243 01ba 754B     		ldr	r3, .L133+56
 1244 01bc C8EB0404 		rsb	r4, r8, r4
 1245 01c0 A3FB0434 		umull	r3, r4, r3, r4
 320:main.c        ****         Vgs_test_points[0] = Vth;
 321:main.c        ****         switch(device_selection)
 1246              		.loc 1 321 0
 1247 01c4 2A68     		ldr	r2, [r5]
 320:main.c        ****         Vgs_test_points[0] = Vth;
 1248              		.loc 1 320 0
 1249 01c6 8DF80870 		strb	r7, [sp, #8]
 319:main.c        ****         Vgs_test_points[0] = Vth;
 1250              		.loc 1 319 0
 1251 01ca C4F34704 		ubfx	r4, r4, #1, #8
 1252              	.LVL215:
 1253              		.loc 1 321 0
 1254 01ce 032A     		cmp	r2, #3
 1255 01d0 00F22882 		bhi	.L85
 1256 01d4 DFE812F0 		tbh	[pc, r2, lsl #1]
 1257              	.L87:
 1258 01d8 9C01     		.2byte	(.L86-.L87)/2
 1259 01da 3B01     		.2byte	(.L88-.L87)/2
 1260 01dc E600     		.2byte	(.L89-.L87)/2
 1261 01de 0400     		.2byte	(.L90-.L87)/2
 1262              		.p2align 1
 1263              	.L90:
 322:main.c        ****         {
 323:main.c        ****             case 0:
 324:main.c        ****                 Vgs_points_double[0] = Vth*4.096/256.0;
 325:main.c        ****                 break;
 326:main.c        ****             case 1:
 327:main.c        ****                 Vgs_points_double[0] = (Vth*4.096/256.0 - 0.7)/10;
 328:main.c        ****                 break;
 329:main.c        ****             case 2:
 330:main.c        ****                 Vgs_points_double[0] = -15 + Vth*4.096/256.0;
 331:main.c        ****                 break;
 332:main.c        ****             case 3:
 333:main.c        ****                 Vgs_points_double[0] = (-15 + (Vth*4.096/256.0))/10;
 1264              		.loc 1 333 0
 1265 01e0 4046     		mov	r0, r8
 1266 01e2 FFF7FEFF 		bl	__aeabi_ui2d
 1267              	.LVL216:
 1268 01e6 5CA3     		adr	r3, .L133
 1269 01e8 D3E90023 		ldrd	r2, [r3]
 1270 01ec FFF7FEFF 		bl	__aeabi_dmul
 1271              	.LVL217:
 1272 01f0 0022     		movs	r2, #0
 1273 01f2 684B     		ldr	r3, .L133+60
 1274 01f4 FFF7FEFF 		bl	__aeabi_dmul
 1275              	.LVL218:
 1276 01f8 0022     		movs	r2, #0
 1277 01fa 674B     		ldr	r3, .L133+64
 1278 01fc FFF7FEFF 		bl	__aeabi_dsub
ARM GAS  C:\Users\legoc\AppData\Local\Temp\ccGdwsaw.s 			page 31


 1279              	.LVL219:
 1280 0200 0022     		movs	r2, #0
 1281 0202 664B     		ldr	r3, .L133+68
 1282 0204 FFF7FEFF 		bl	__aeabi_ddiv
 1283              	.LVL220:
 334:main.c        ****                 break;
 335:main.c        ****         }
 336:main.c        ****         //Creating Vgs test point 
 337:main.c        ****         for (i=1; i < CURVE_NUM; i++)
 338:main.c        ****         {
 339:main.c        ****             Vgs_test_points[i] = (Vgs_test_points[i-1] + Vgs_step);
 1284              		.loc 1 339 0
 1285 0208 2744     		add	r7, r7, r4
 333:main.c        ****                 break;
 1286              		.loc 1 333 0
 1287 020a CDE90601 		strd	r0, [sp, #24]
 1288              	.LVL221:
 1289              		.loc 1 339 0
 1290 020e FFB2     		uxtb	r7, r7
 1291 0210 8DF80970 		strb	r7, [sp, #9]
 1292              	.L96:
 340:main.c        ****             switch(device_selection)
 341:main.c        ****             {
 342:main.c        ****                 case 0:
 343:main.c        ****                     Vgs_points_double[i] = Vgs_test_points[i]*4.096/256.0;
 344:main.c        ****                     break;
 345:main.c        ****                 case 1:
 346:main.c        ****                     Vgs_points_double[i] = (Vgs_test_points[i]*4.096/256.0 - 0.7)/10;
 347:main.c        ****                     break;
 348:main.c        ****                 case 2:
 349:main.c        ****                     Vgs_points_double[i] = -15 + Vgs_test_points[i]*4.096/256.0;
 350:main.c        ****                     break;
 351:main.c        ****                 case 3:
 352:main.c        ****                     Vgs_points_double[i] = (-15 + Vgs_test_points[i]*4.096/256.0)/10;
 1293              		.loc 1 352 0
 1294 0214 3846     		mov	r0, r7
 1295 0216 FFF7FEFF 		bl	__aeabi_i2d
 1296              	.LVL222:
 1297 021a 4FA3     		adr	r3, .L133
 1298 021c D3E90023 		ldrd	r2, [r3]
 1299 0220 FFF7FEFF 		bl	__aeabi_dmul
 1300              	.LVL223:
 1301 0224 0022     		movs	r2, #0
 1302 0226 5B4B     		ldr	r3, .L133+60
 1303 0228 FFF7FEFF 		bl	__aeabi_dmul
 1304              	.LVL224:
 1305 022c 0022     		movs	r2, #0
 1306 022e 5A4B     		ldr	r3, .L133+64
 1307 0230 FFF7FEFF 		bl	__aeabi_dsub
 1308              	.LVL225:
 1309 0234 0022     		movs	r2, #0
 1310 0236 594B     		ldr	r3, .L133+68
 1311 0238 FFF7FEFF 		bl	__aeabi_ddiv
 1312              	.LVL226:
 339:main.c        ****             switch(device_selection)
 1313              		.loc 1 339 0
 1314 023c 2744     		add	r7, r7, r4
ARM GAS  C:\Users\legoc\AppData\Local\Temp\ccGdwsaw.s 			page 32


 1315              		.loc 1 352 0
 1316 023e CDE90801 		strd	r0, [sp, #32]
 1317              	.LVL227:
 339:main.c        ****             switch(device_selection)
 1318              		.loc 1 339 0
 1319 0242 FFB2     		uxtb	r7, r7
 1320 0244 8DF80A70 		strb	r7, [sp, #10]
 1321              	.L97:
 1322              		.loc 1 352 0
 1323 0248 3846     		mov	r0, r7
 1324 024a FFF7FEFF 		bl	__aeabi_i2d
 1325              	.LVL228:
 1326 024e 42A3     		adr	r3, .L133
 1327 0250 D3E90023 		ldrd	r2, [r3]
 1328 0254 FFF7FEFF 		bl	__aeabi_dmul
 1329              	.LVL229:
 1330 0258 0022     		movs	r2, #0
 1331 025a 4E4B     		ldr	r3, .L133+60
 1332 025c FFF7FEFF 		bl	__aeabi_dmul
 1333              	.LVL230:
 1334 0260 0022     		movs	r2, #0
 1335 0262 4D4B     		ldr	r3, .L133+64
 1336 0264 FFF7FEFF 		bl	__aeabi_dsub
 1337              	.LVL231:
 1338 0268 4C4B     		ldr	r3, .L133+68
 1339 026a 0022     		movs	r2, #0
 1340 026c FFF7FEFF 		bl	__aeabi_ddiv
 1341              	.LVL232:
 339:main.c        ****             switch(device_selection)
 1342              		.loc 1 339 0
 1343 0270 E319     		adds	r3, r4, r7
 1344              		.loc 1 352 0
 1345 0272 CDE90A01 		strd	r0, [sp, #40]
 1346              	.LVL233:
 339:main.c        ****             switch(device_selection)
 1347              		.loc 1 339 0
 1348 0276 DBB2     		uxtb	r3, r3
 1349 0278 8DF80B30 		strb	r3, [sp, #11]
 1350              	.L103:
 1351              		.loc 1 352 0
 1352 027c 1846     		mov	r0, r3
 1353 027e FFF7FEFF 		bl	__aeabi_i2d
 1354              	.LVL234:
 1355 0282 35A3     		adr	r3, .L133
 1356 0284 D3E90023 		ldrd	r2, [r3]
 1357 0288 FFF7FEFF 		bl	__aeabi_dmul
 1358              	.LVL235:
 1359 028c 0022     		movs	r2, #0
 1360 028e 414B     		ldr	r3, .L133+60
 1361 0290 FFF7FEFF 		bl	__aeabi_dmul
 1362              	.LVL236:
 1363 0294 404B     		ldr	r3, .L133+64
 1364 0296 0022     		movs	r2, #0
 1365              	.L130:
 346:main.c        ****                     break;
 1366              		.loc 1 346 0
 1367 0298 FFF7FEFF 		bl	__aeabi_dsub
ARM GAS  C:\Users\legoc\AppData\Local\Temp\ccGdwsaw.s 			page 33


 1368              	.LVL237:
 1369 029c 0022     		movs	r2, #0
 1370 029e 3F4B     		ldr	r3, .L133+68
 1371 02a0 FFF7FEFF 		bl	__aeabi_ddiv
 1372              	.LVL238:
 1373 02a4 CDE90C01 		strd	r0, [sp, #48]
 1374              	.L107:
 1375              	.LVL239:
 353:main.c        ****                     break;
 354:main.c        ****             }
 355:main.c        ****         }
 356:main.c        ****         for(i=0; i < VDS_NMOS_LENGTH; i++)
 357:main.c        ****         {
 358:main.c        ****             if(device_selection < 2)
 359:main.c        ****             {
 360:main.c        ****                 Output_data_x[i] = i * 4.096 * 3 / 256.0; //actual Vds
 361:main.c        ****             }
 362:main.c        ****             else
 363:main.c        ****             {
 364:main.c        ****                 Output_data_x[i] = i * 4.096 * 5 / 256.0;
 365:main.c        ****             }
 366:main.c        ****         }
 367:main.c        ****         ADC_SAR_1_Wakeup();
 1376              		.loc 1 367 0
 1377 02a8 FFF7FEFF 		bl	ADC_SAR_1_Wakeup
 1378              	.LVL240:
 1379 02ac 0A24     		movs	r4, #10
 1380              	.LVL241:
 368:main.c        ****         y_max_mA = 0.0;
 1381              		.loc 1 368 0
 1382 02ae 4FF00008 		mov	r8, #0
 1383 02b2 4FF00009 		mov	r9, #0
 1384              	.LVL242:
 1385              	.L109:
 369:main.c        ****         for (i = 0; i <AVG;i++)
 370:main.c        ****         {
 371:main.c        ****             y_max_mA += single_test(VDAC_D_C_MAX,Vgs_test_points[CURVE_NUM-1]);
 1386              		.loc 1 371 0 discriminator 3
 1387 02b6 9DF80B70 		ldrb	r7, [sp, #11]	@ zero_extendqisi2
 1388              	.LVL243:
 1389              	.LBB78:
 1390              	.LBB79:
  48:main.c        ****     VDAC8_GS_SetValue(Vgs);
 1391              		.loc 1 48 0 discriminator 3
 1392 02ba BC20     		movs	r0, #188
 1393 02bc FFF7FEFF 		bl	VDAC8_DS_SetValue
 1394              	.LVL244:
  49:main.c        ****     CyDelay(SETTLING_WAIT_TIME);
 1395              		.loc 1 49 0 discriminator 3
 1396 02c0 3846     		mov	r0, r7
 1397 02c2 FFF7FEFF 		bl	VDAC8_GS_SetValue
 1398              	.LVL245:
  50:main.c        ****     ADC_SAR_1_StartConvert();
 1399              		.loc 1 50 0 discriminator 3
 1400 02c6 0120     		movs	r0, #1
 1401 02c8 FFF7FEFF 		bl	CyDelay
 1402              	.LVL246:
ARM GAS  C:\Users\legoc\AppData\Local\Temp\ccGdwsaw.s 			page 34


  51:main.c        ****     ADC_SAR_1_IsEndConversion(ADC_SAR_1_WAIT_FOR_RESULT);
 1403              		.loc 1 51 0 discriminator 3
 1404 02cc FFF7FEFF 		bl	ADC_SAR_1_StartConvert
 1405              	.LVL247:
  52:main.c        **** 	//waiting until conversion is over
 1406              		.loc 1 52 0 discriminator 3
 1407 02d0 0020     		movs	r0, #0
 1408 02d2 FFF7FEFF 		bl	ADC_SAR_1_IsEndConversion
 1409              	.LVL248:
  54:main.c        ****     Output = (ADC_SAR_1_CountsTo_mVolts(ADC_SAR_1_GetResult16())/ADC_GAIN);
 1410              		.loc 1 54 0 discriminator 3
 1411 02d6 FFF7FEFF 		bl	ADC_SAR_1_StopConvert
 1412              	.LVL249:
  55:main.c        ****     return Output;
 1413              		.loc 1 55 0 discriminator 3
 1414 02da FFF7FEFF 		bl	ADC_SAR_1_GetResult16
 1415              	.LVL250:
 1416 02de FFF7FEFF 		bl	ADC_SAR_1_CountsTo_mVolts
 1417              	.LVL251:
 1418              	.LBE79:
 1419              	.LBE78:
 1420              		.loc 1 371 0 discriminator 3
 1421 02e2 FFF7FEFF 		bl	__aeabi_i2d
 1422              	.LVL252:
 1423 02e6 0022     		movs	r2, #0
 1424 02e8 234B     		ldr	r3, .L133+32
 1425 02ea FFF7FEFF 		bl	__aeabi_ddiv
 1426              	.LVL253:
 1427 02ee 0246     		mov	r2, r0
 1428 02f0 0B46     		mov	r3, r1
 1429 02f2 4046     		mov	r0, r8
 1430 02f4 4946     		mov	r1, r9
 1431 02f6 FFF7FEFF 		bl	__aeabi_dadd
 1432              	.LVL254:
 369:main.c        ****         {
 1433              		.loc 1 369 0 discriminator 3
 1434 02fa 013C     		subs	r4, r4, #1
 1435              		.loc 1 371 0 discriminator 3
 1436 02fc 8046     		mov	r8, r0
 1437              	.LVL255:
 1438 02fe 8946     		mov	r9, r1
 1439              	.LVL256:
 369:main.c        ****         {
 1440              		.loc 1 369 0 discriminator 3
 1441 0300 D9D1     		bne	.L109
 1442              	.LVL257:
 372:main.c        ****         }
 373:main.c        ****         y_max_mA /= AVG;
 374:main.c        ****         y_max_calc = (int) (y_max_mA);
 1443              		.loc 1 374 0
 1444 0302 0022     		movs	r2, #0
 1445 0304 254B     		ldr	r3, .L133+68
 1446 0306 FFF7FEFF 		bl	__aeabi_ddiv
 1447              	.LVL258:
 1448 030a FFF7FEFF 		bl	__aeabi_d2iz
 1449              	.LVL259:
 375:main.c        ****         y_max_calc = (y_max_calc - (y_max_calc % 5) + 5);
ARM GAS  C:\Users\legoc\AppData\Local\Temp\ccGdwsaw.s 			page 35


 1450              		.loc 1 375 0
 1451 030e 244F     		ldr	r7, .L133+72
 1452 0310 C317     		asrs	r3, r0, #31
 1453 0312 87FB0027 		smull	r2, r7, r7, r0
 1454 0316 C3EB6707 		rsb	r7, r3, r7, asr #1
 1455 031a 07EB8707 		add	r7, r7, r7, lsl #2
 1456 031e 0537     		adds	r7, r7, #5
 1457              	.LVL260:
 376:main.c        ****         ADC_SAR_1_Sleep(); //Reset SAR from previous tests
 1458              		.loc 1 376 0
 1459 0320 FFF7FEFF 		bl	ADC_SAR_1_Sleep
 1460              	.LVL261:
 377:main.c        ****         draw_coordinates(y_max_calc,device_selection);
 1461              		.loc 1 377 0
 1462 0324 2968     		ldr	r1, [r5]
 1463 0326 3846     		mov	r0, r7
 1464 0328 FFF7FEFF 		bl	draw_coordinates
 1465              	.LVL262:
 378:main.c        ****         run_test(y_max_calc,Vgs_test_points,Vgs_points_double,device_selection);
 1466              		.loc 1 378 0
 1467 032c 2B78     		ldrb	r3, [r5]	@ zero_extendqisi2
 1468 032e 06AA     		add	r2, sp, #24
 1469 0330 02A9     		add	r1, sp, #8
 1470 0332 3846     		mov	r0, r7
 1471 0334 FFF7FEFF 		bl	run_test
 1472              	.LVL263:
 379:main.c        ****         
 380:main.c        ****         
 381:main.c        ****         ADC_SAR_1_Sleep();
 1473              		.loc 1 381 0
 1474 0338 FFF7FEFF 		bl	ADC_SAR_1_Sleep
 1475              	.LVL264:
 382:main.c        ****         VDAC8_DS_SetValue(0);
 1476              		.loc 1 382 0
 1477 033c 2046     		mov	r0, r4
 1478 033e FFF7FEFF 		bl	VDAC8_DS_SetValue
 1479              	.LVL265:
 383:main.c        ****         VDAC8_GS_SetValue(0);
 1480              		.loc 1 383 0
 1481 0342 2046     		mov	r0, r4
 1482 0344 FFF7FEFF 		bl	VDAC8_GS_SetValue
 1483              	.LVL266:
 1484 0348 3368     		ldr	r3, [r6]
 1485 034a 002B     		cmp	r3, #0
 1486 034c 3FF49DAE 		beq	.L110
 1487              	.L126:
 1488 0350 FEE7     		b	.L126
 1489              	.L134:
 1490 0352 00BFAFF3 		.align	3
 1490      0080
 1491              	.L133:
 1492 0358 FCA9F1D2 		.word	-755914244
 1493 035c 4D621040 		.word	1074815565
 1494 0360 34000000 		.word	.LC6
 1495 0364 3C000000 		.word	.LC7
 1496 0368 40000000 		.word	.LC8
 1497 036c 9C000000 		.word	.LC9
ARM GAS  C:\Users\legoc\AppData\Local\Temp\ccGdwsaw.s 			page 36


 1498 0370 00000000 		.word	device_selection
 1499 0374 00000000 		.word	screen_state
 1500 0378 00004A40 		.word	1078591488
 1501 037c 0000F03F 		.word	1072693248
 1502 0380 4C000000 		.word	.LC10
 1503 0384 60000000 		.word	.LC11
 1504 0388 94000000 		.word	.LC12
 1505 038c 00003440 		.word	1077149696
 1506 0390 ABAAAAAA 		.word	-1431655765
 1507 0394 0000703F 		.word	1064304640
 1508 0398 00002E40 		.word	1076756480
 1509 039c 00002440 		.word	1076101120
 1510 03a0 67666666 		.word	1717986919
 1511              	.LVL267:
 1512              	.L89:
 330:main.c        ****                 break;
 1513              		.loc 1 330 0
 1514 03a4 4046     		mov	r0, r8
 1515 03a6 FFF7FEFF 		bl	__aeabi_ui2d
 1516              	.LVL268:
 1517 03aa B9A3     		adr	r3, .L135
 1518 03ac D3E90023 		ldrd	r2, [r3]
 1519 03b0 FFF7FEFF 		bl	__aeabi_dmul
 1520              	.LVL269:
 1521 03b4 0022     		movs	r2, #0
 1522 03b6 BA4B     		ldr	r3, .L135+16
 1523 03b8 FFF7FEFF 		bl	__aeabi_dmul
 1524              	.LVL270:
 1525 03bc 0022     		movs	r2, #0
 1526 03be B94B     		ldr	r3, .L135+20
 1527 03c0 FFF7FEFF 		bl	__aeabi_dsub
 1528              	.LVL271:
 339:main.c        ****             switch(device_selection)
 1529              		.loc 1 339 0
 1530 03c4 2744     		add	r7, r7, r4
 330:main.c        ****                 break;
 1531              		.loc 1 330 0
 1532 03c6 CDE90601 		strd	r0, [sp, #24]
 1533              	.LVL272:
 339:main.c        ****             switch(device_selection)
 1534              		.loc 1 339 0
 1535 03ca FFB2     		uxtb	r7, r7
 1536 03cc 8DF80970 		strb	r7, [sp, #9]
 1537              	.L95:
 349:main.c        ****                     break;
 1538              		.loc 1 349 0
 1539 03d0 3846     		mov	r0, r7
 1540 03d2 FFF7FEFF 		bl	__aeabi_i2d
 1541              	.LVL273:
 1542 03d6 AEA3     		adr	r3, .L135
 1543 03d8 D3E90023 		ldrd	r2, [r3]
 1544 03dc FFF7FEFF 		bl	__aeabi_dmul
 1545              	.LVL274:
 1546 03e0 0022     		movs	r2, #0
 1547 03e2 AF4B     		ldr	r3, .L135+16
 1548 03e4 FFF7FEFF 		bl	__aeabi_dmul
 1549              	.LVL275:
ARM GAS  C:\Users\legoc\AppData\Local\Temp\ccGdwsaw.s 			page 37


 1550 03e8 0022     		movs	r2, #0
 1551 03ea AE4B     		ldr	r3, .L135+20
 1552 03ec FFF7FEFF 		bl	__aeabi_dsub
 1553              	.LVL276:
 339:main.c        ****             switch(device_selection)
 1554              		.loc 1 339 0
 1555 03f0 2744     		add	r7, r7, r4
 349:main.c        ****                     break;
 1556              		.loc 1 349 0
 1557 03f2 CDE90801 		strd	r0, [sp, #32]
 1558              	.LVL277:
 339:main.c        ****             switch(device_selection)
 1559              		.loc 1 339 0
 1560 03f6 FFB2     		uxtb	r7, r7
 1561 03f8 8DF80A70 		strb	r7, [sp, #10]
 1562              	.L98:
 349:main.c        ****                     break;
 1563              		.loc 1 349 0
 1564 03fc 3846     		mov	r0, r7
 1565 03fe FFF7FEFF 		bl	__aeabi_i2d
 1566              	.LVL278:
 1567 0402 A3A3     		adr	r3, .L135
 1568 0404 D3E90023 		ldrd	r2, [r3]
 1569 0408 FFF7FEFF 		bl	__aeabi_dmul
 1570              	.LVL279:
 1571 040c 0022     		movs	r2, #0
 1572 040e A44B     		ldr	r3, .L135+16
 1573 0410 FFF7FEFF 		bl	__aeabi_dmul
 1574              	.LVL280:
 1575 0414 A34B     		ldr	r3, .L135+20
 1576 0416 0022     		movs	r2, #0
 1577 0418 FFF7FEFF 		bl	__aeabi_dsub
 1578              	.LVL281:
 339:main.c        ****             switch(device_selection)
 1579              		.loc 1 339 0
 1580 041c E319     		adds	r3, r4, r7
 349:main.c        ****                     break;
 1581              		.loc 1 349 0
 1582 041e CDE90A01 		strd	r0, [sp, #40]
 1583              	.LVL282:
 339:main.c        ****             switch(device_selection)
 1584              		.loc 1 339 0
 1585 0422 DBB2     		uxtb	r3, r3
 1586 0424 8DF80B30 		strb	r3, [sp, #11]
 1587              	.L104:
 349:main.c        ****                     break;
 1588              		.loc 1 349 0
 1589 0428 1846     		mov	r0, r3
 1590 042a FFF7FEFF 		bl	__aeabi_i2d
 1591              	.LVL283:
 1592 042e 98A3     		adr	r3, .L135
 1593 0430 D3E90023 		ldrd	r2, [r3]
 1594 0434 FFF7FEFF 		bl	__aeabi_dmul
 1595              	.LVL284:
 1596 0438 0022     		movs	r2, #0
 1597 043a 994B     		ldr	r3, .L135+16
 1598 043c FFF7FEFF 		bl	__aeabi_dmul
ARM GAS  C:\Users\legoc\AppData\Local\Temp\ccGdwsaw.s 			page 38


 1599              	.LVL285:
 1600 0440 0022     		movs	r2, #0
 1601 0442 984B     		ldr	r3, .L135+20
 1602 0444 FFF7FEFF 		bl	__aeabi_dsub
 1603              	.LVL286:
 1604 0448 CDE90C01 		strd	r0, [sp, #48]
 1605 044c 2CE7     		b	.L107
 1606              	.LVL287:
 1607              	.L88:
 327:main.c        ****                 break;
 1608              		.loc 1 327 0
 1609 044e 4046     		mov	r0, r8
 1610 0450 FFF7FEFF 		bl	__aeabi_ui2d
 1611              	.LVL288:
 1612 0454 8EA3     		adr	r3, .L135
 1613 0456 D3E90023 		ldrd	r2, [r3]
 1614 045a FFF7FEFF 		bl	__aeabi_dmul
 1615              	.LVL289:
 1616 045e 0022     		movs	r2, #0
 1617 0460 8F4B     		ldr	r3, .L135+16
 1618 0462 FFF7FEFF 		bl	__aeabi_dmul
 1619              	.LVL290:
 1620 0466 8CA3     		adr	r3, .L135+8
 1621 0468 D3E90023 		ldrd	r2, [r3]
 1622 046c FFF7FEFF 		bl	__aeabi_dsub
 1623              	.LVL291:
 1624 0470 0022     		movs	r2, #0
 1625 0472 8D4B     		ldr	r3, .L135+24
 1626 0474 FFF7FEFF 		bl	__aeabi_ddiv
 1627              	.LVL292:
 339:main.c        ****             switch(device_selection)
 1628              		.loc 1 339 0
 1629 0478 2744     		add	r7, r7, r4
 327:main.c        ****                 break;
 1630              		.loc 1 327 0
 1631 047a CDE90601 		strd	r0, [sp, #24]
 1632              	.LVL293:
 339:main.c        ****             switch(device_selection)
 1633              		.loc 1 339 0
 1634 047e FFB2     		uxtb	r7, r7
 1635 0480 8DF80970 		strb	r7, [sp, #9]
 1636              	.L92:
 346:main.c        ****                     break;
 1637              		.loc 1 346 0
 1638 0484 3846     		mov	r0, r7
 1639 0486 FFF7FEFF 		bl	__aeabi_i2d
 1640              	.LVL294:
 1641 048a 81A3     		adr	r3, .L135
 1642 048c D3E90023 		ldrd	r2, [r3]
 1643 0490 FFF7FEFF 		bl	__aeabi_dmul
 1644              	.LVL295:
 1645 0494 0022     		movs	r2, #0
 1646 0496 824B     		ldr	r3, .L135+16
 1647 0498 FFF7FEFF 		bl	__aeabi_dmul
 1648              	.LVL296:
 1649 049c 7EA3     		adr	r3, .L135+8
 1650 049e D3E90023 		ldrd	r2, [r3]
ARM GAS  C:\Users\legoc\AppData\Local\Temp\ccGdwsaw.s 			page 39


 1651 04a2 FFF7FEFF 		bl	__aeabi_dsub
 1652              	.LVL297:
 1653 04a6 0022     		movs	r2, #0
 1654 04a8 7F4B     		ldr	r3, .L135+24
 1655 04aa FFF7FEFF 		bl	__aeabi_ddiv
 1656              	.LVL298:
 339:main.c        ****             switch(device_selection)
 1657              		.loc 1 339 0
 1658 04ae 2744     		add	r7, r7, r4
 346:main.c        ****                     break;
 1659              		.loc 1 346 0
 1660 04b0 CDE90801 		strd	r0, [sp, #32]
 1661              	.LVL299:
 339:main.c        ****             switch(device_selection)
 1662              		.loc 1 339 0
 1663 04b4 FFB2     		uxtb	r7, r7
 1664 04b6 8DF80A70 		strb	r7, [sp, #10]
 1665              	.L99:
 346:main.c        ****                     break;
 1666              		.loc 1 346 0
 1667 04ba 3846     		mov	r0, r7
 1668 04bc FFF7FEFF 		bl	__aeabi_i2d
 1669              	.LVL300:
 1670 04c0 73A3     		adr	r3, .L135
 1671 04c2 D3E90023 		ldrd	r2, [r3]
 1672 04c6 FFF7FEFF 		bl	__aeabi_dmul
 1673              	.LVL301:
 1674 04ca 0022     		movs	r2, #0
 1675 04cc 744B     		ldr	r3, .L135+16
 1676 04ce FFF7FEFF 		bl	__aeabi_dmul
 1677              	.LVL302:
 1678 04d2 71A3     		adr	r3, .L135+8
 1679 04d4 D3E90023 		ldrd	r2, [r3]
 1680 04d8 FFF7FEFF 		bl	__aeabi_dsub
 1681              	.LVL303:
 1682 04dc 724B     		ldr	r3, .L135+24
 1683 04de 0022     		movs	r2, #0
 1684 04e0 FFF7FEFF 		bl	__aeabi_ddiv
 1685              	.LVL304:
 339:main.c        ****             switch(device_selection)
 1686              		.loc 1 339 0
 1687 04e4 E319     		adds	r3, r4, r7
 346:main.c        ****                     break;
 1688              		.loc 1 346 0
 1689 04e6 CDE90A01 		strd	r0, [sp, #40]
 1690              	.LVL305:
 339:main.c        ****             switch(device_selection)
 1691              		.loc 1 339 0
 1692 04ea DBB2     		uxtb	r3, r3
 1693 04ec 8DF80B30 		strb	r3, [sp, #11]
 1694              	.L105:
 346:main.c        ****                     break;
 1695              		.loc 1 346 0
 1696 04f0 1846     		mov	r0, r3
 1697 04f2 FFF7FEFF 		bl	__aeabi_i2d
 1698              	.LVL306:
 1699 04f6 66A3     		adr	r3, .L135
ARM GAS  C:\Users\legoc\AppData\Local\Temp\ccGdwsaw.s 			page 40


 1700 04f8 D3E90023 		ldrd	r2, [r3]
 1701 04fc FFF7FEFF 		bl	__aeabi_dmul
 1702              	.LVL307:
 1703 0500 0022     		movs	r2, #0
 1704 0502 674B     		ldr	r3, .L135+16
 1705 0504 FFF7FEFF 		bl	__aeabi_dmul
 1706              	.LVL308:
 1707 0508 63A3     		adr	r3, .L135+8
 1708 050a D3E90023 		ldrd	r2, [r3]
 1709 050e C3E6     		b	.L130
 1710              	.LVL309:
 1711              	.L86:
 324:main.c        ****                 break;
 1712              		.loc 1 324 0
 1713 0510 4046     		mov	r0, r8
 1714 0512 FFF7FEFF 		bl	__aeabi_ui2d
 1715              	.LVL310:
 1716 0516 5EA3     		adr	r3, .L135
 1717 0518 D3E90023 		ldrd	r2, [r3]
 1718 051c FFF7FEFF 		bl	__aeabi_dmul
 1719              	.LVL311:
 1720 0520 0022     		movs	r2, #0
 1721 0522 5F4B     		ldr	r3, .L135+16
 1722 0524 FFF7FEFF 		bl	__aeabi_dmul
 1723              	.LVL312:
 339:main.c        ****             switch(device_selection)
 1724              		.loc 1 339 0
 1725 0528 2744     		add	r7, r7, r4
 324:main.c        ****                 break;
 1726              		.loc 1 324 0
 1727 052a CDE90601 		strd	r0, [sp, #24]
 1728              	.LVL313:
 339:main.c        ****             switch(device_selection)
 1729              		.loc 1 339 0
 1730 052e FFB2     		uxtb	r7, r7
 1731 0530 8DF80970 		strb	r7, [sp, #9]
 1732              	.L91:
 343:main.c        ****                     break;
 1733              		.loc 1 343 0
 1734 0534 3846     		mov	r0, r7
 1735 0536 FFF7FEFF 		bl	__aeabi_i2d
 1736              	.LVL314:
 1737 053a 55A3     		adr	r3, .L135
 1738 053c D3E90023 		ldrd	r2, [r3]
 1739 0540 FFF7FEFF 		bl	__aeabi_dmul
 1740              	.LVL315:
 1741 0544 0022     		movs	r2, #0
 1742 0546 564B     		ldr	r3, .L135+16
 1743 0548 FFF7FEFF 		bl	__aeabi_dmul
 1744              	.LVL316:
 339:main.c        ****             switch(device_selection)
 1745              		.loc 1 339 0
 1746 054c 2744     		add	r7, r7, r4
 343:main.c        ****                     break;
 1747              		.loc 1 343 0
 1748 054e CDE90801 		strd	r0, [sp, #32]
 1749              	.LVL317:
ARM GAS  C:\Users\legoc\AppData\Local\Temp\ccGdwsaw.s 			page 41


 339:main.c        ****             switch(device_selection)
 1750              		.loc 1 339 0
 1751 0552 FFB2     		uxtb	r7, r7
 1752 0554 8DF80A70 		strb	r7, [sp, #10]
 1753              	.L100:
 343:main.c        ****                     break;
 1754              		.loc 1 343 0
 1755 0558 3846     		mov	r0, r7
 1756 055a FFF7FEFF 		bl	__aeabi_i2d
 1757              	.LVL318:
 1758 055e 4CA3     		adr	r3, .L135
 1759 0560 D3E90023 		ldrd	r2, [r3]
 1760 0564 FFF7FEFF 		bl	__aeabi_dmul
 1761              	.LVL319:
 1762 0568 4D4B     		ldr	r3, .L135+16
 1763 056a 0022     		movs	r2, #0
 1764 056c FFF7FEFF 		bl	__aeabi_dmul
 1765              	.LVL320:
 339:main.c        ****             switch(device_selection)
 1766              		.loc 1 339 0
 1767 0570 E319     		adds	r3, r4, r7
 343:main.c        ****                     break;
 1768              		.loc 1 343 0
 1769 0572 CDE90A01 		strd	r0, [sp, #40]
 1770              	.LVL321:
 339:main.c        ****             switch(device_selection)
 1771              		.loc 1 339 0
 1772 0576 DBB2     		uxtb	r3, r3
 1773 0578 8DF80B30 		strb	r3, [sp, #11]
 1774              	.L106:
 343:main.c        ****                     break;
 1775              		.loc 1 343 0
 1776 057c 1846     		mov	r0, r3
 1777 057e FFF7FEFF 		bl	__aeabi_i2d
 1778              	.LVL322:
 1779 0582 43A3     		adr	r3, .L135
 1780 0584 D3E90023 		ldrd	r2, [r3]
 1781 0588 FFF7FEFF 		bl	__aeabi_dmul
 1782              	.LVL323:
 1783 058c 0022     		movs	r2, #0
 1784 058e 444B     		ldr	r3, .L135+16
 1785 0590 FFF7FEFF 		bl	__aeabi_dmul
 1786              	.LVL324:
 1787 0594 CDE90C01 		strd	r0, [sp, #48]
 1788 0598 86E6     		b	.L107
 1789              	.LVL325:
 1790              	.L128:
 1791              	.LBB80:
 1792              	.LBB71:
  92:main.c        ****             return Vgs;
 1793              		.loc 1 92 0
 1794 059a FFF7FEFF 		bl	ADC_SAR_1_Sleep
 1795              	.LVL326:
 1796 059e 4746     		mov	r7, r8
 1797              	.LBE71:
 1798              	.LBE80:
 311:main.c        ****         {
ARM GAS  C:\Users\legoc\AppData\Local\Temp\ccGdwsaw.s 			page 42


 1799              		.loc 1 311 0
 1800 05a0 B8F1000F 		cmp	r8, #0
 1801 05a4 3FF4C7AD 		beq	.L74
 1802              	.LVL327:
 1803              	.LBB81:
 1804              	.LBB77:
 109:main.c        ****     VDAC8_DS_SetValue(Vds_max);
 1805              		.loc 1 109 0
 1806 05a8 FFF7FEFF 		bl	ADC_SAR_1_Wakeup
 1807              	.LVL328:
 110:main.c        **** 	//Sets Vds = 188/256 * 4.096 * 3 = 9V (max Vds to test wtih) to find max current
 1808              		.loc 1 110 0
 1809 05ac BC20     		movs	r0, #188
 1810 05ae FFF7FEFF 		bl	VDAC8_DS_SetValue
 1811              	.LVL329:
 112:main.c        ****     {
 1812              		.loc 1 112 0
 1813 05b2 DB2F     		cmp	r7, #219
 1814 05b4 7FF6D4AD 		bls	.L79
 1815 05b8 4446     		mov	r4, r8
 1816              	.LVL330:
 1817              	.L80:
 123:main.c        ****     VDAC8_DS_SetValue(0);
 1818              		.loc 1 123 0
 1819 05ba FFF7FEFF 		bl	ADC_SAR_1_Sleep
 1820              	.LVL331:
 124:main.c        ****     VDAC8_GS_SetValue(0);
 1821              		.loc 1 124 0
 1822 05be 0020     		movs	r0, #0
 1823 05c0 FFF7FEFF 		bl	VDAC8_DS_SetValue
 1824              	.LVL332:
 125:main.c        ****     return Vgs; //Returns the previous Vgs step to avoid going past 20mA
 1825              		.loc 1 125 0
 1826 05c4 0020     		movs	r0, #0
 1827 05c6 FFF7FEFF 		bl	VDAC8_GS_SetValue
 1828              	.LVL333:
 1829 05ca F6E5     		b	.L83
 1830              	.LVL334:
 1831              	.L132:
 1832              	.LBE77:
 1833              	.LBE81:
 1834              	.LBB82:
 1835              	.LBB83:
  83:main.c        ****     VDAC8_DS_SetValue(Vds); //Set Vds to 1 Volt
 1836              		.loc 1 83 0
 1837 05cc FFF7FEFF 		bl	ADC_SAR_1_Wakeup
 1838              	.LVL335:
  84:main.c        ****     VDAC8_GS_SetValue(0);
 1839              		.loc 1 84 0
 1840 05d0 1520     		movs	r0, #21
 1841 05d2 FFF7FEFF 		bl	VDAC8_DS_SetValue
 1842              	.LVL336:
  85:main.c        ****     for(Vgs = 0; Vgs < Vgs_max; Vgs++)
 1843              		.loc 1 85 0
 1844 05d6 0020     		movs	r0, #0
 1845 05d8 FFF7FEFF 		bl	VDAC8_GS_SetValue
 1846              	.LVL337:
ARM GAS  C:\Users\legoc\AppData\Local\Temp\ccGdwsaw.s 			page 43


 1847 05dc 0024     		movs	r4, #0
 1848              	.LVL338:
 1849              	.L73:
 1850 05de 5FFA84F8 		uxtb	r8, r4
 1851              	.LVL339:
 1852              	.LBB84:
 1853              	.LBB85:
  63:main.c        ****     CyDelay(SETTLING_WAIT_TIME);
 1854              		.loc 1 63 0
 1855 05e2 4046     		mov	r0, r8
 1856 05e4 FFF7FEFF 		bl	VDAC8_GS_SetValue
 1857              	.LVL340:
  64:main.c        ****     ADC_SAR_1_StartConvert();
 1858              		.loc 1 64 0
 1859 05e8 0120     		movs	r0, #1
 1860 05ea FFF7FEFF 		bl	CyDelay
 1861              	.LVL341:
  65:main.c        ****     ADC_SAR_1_IsEndConversion(ADC_SAR_1_WAIT_FOR_RESULT);
 1862              		.loc 1 65 0
 1863 05ee FFF7FEFF 		bl	ADC_SAR_1_StartConvert
 1864              	.LVL342:
  66:main.c        **** 	//waiting until conversion is over
 1865              		.loc 1 66 0
 1866 05f2 0020     		movs	r0, #0
 1867 05f4 FFF7FEFF 		bl	ADC_SAR_1_IsEndConversion
 1868              	.LVL343:
  68:main.c        ****     Output = (ADC_SAR_1_CountsTo_mVolts(ADC_SAR_1_GetResult16())/ADC_GAIN);
 1869              		.loc 1 68 0
 1870 05f8 FFF7FEFF 		bl	ADC_SAR_1_StopConvert
 1871              	.LVL344:
  69:main.c        ****     return Output;
 1872              		.loc 1 69 0
 1873 05fc FFF7FEFF 		bl	ADC_SAR_1_GetResult16
 1874              	.LVL345:
 1875 0600 FFF7FEFF 		bl	ADC_SAR_1_CountsTo_mVolts
 1876              	.LVL346:
 1877              	.LBE85:
 1878              	.LBE84:
  89:main.c        ****         {
 1879              		.loc 1 89 0
 1880 0604 FFF7FEFF 		bl	__aeabi_i2d
 1881              	.LVL347:
 1882 0608 0022     		movs	r2, #0
 1883 060a 284B     		ldr	r3, .L135+28
 1884 060c FFF7FEFF 		bl	__aeabi_ddiv
 1885              	.LVL348:
 1886 0610 0022     		movs	r2, #0
 1887 0612 274B     		ldr	r3, .L135+32
 1888 0614 FFF7FEFF 		bl	__aeabi_dcmpgt
 1889              	.LVL349:
 1890 0618 0134     		adds	r4, r4, #1
 1891              	.LVL350:
 1892 061a 0028     		cmp	r0, #0
 1893 061c BDD1     		bne	.L128
  86:main.c        ****     {
 1894              		.loc 1 86 0
 1895 061e FF2C     		cmp	r4, #255
ARM GAS  C:\Users\legoc\AppData\Local\Temp\ccGdwsaw.s 			page 44


 1896 0620 DDD1     		bne	.L73
 1897 0622 83E5     		b	.L129
 1898              	.LVL351:
 1899              	.L85:
 1900              	.LBE83:
 1901              	.LBE82:
 339:main.c        ****             switch(device_selection)
 1902              		.loc 1 339 0 discriminator 1
 1903 0624 2744     		add	r7, r7, r4
 1904 0626 FFB2     		uxtb	r7, r7
 1905 0628 8DF80970 		strb	r7, [sp, #9]
 340:main.c        ****             {
 1906              		.loc 1 340 0 discriminator 1
 1907 062c 032A     		cmp	r2, #3
 1908 062e 0BD8     		bhi	.L93
 1909 0630 01A3     		adr	r3, .L94
 1910 0632 53F822F0 		ldr	pc, [r3, r2, lsl #2]
 1911 0636 00BF     		.p2align 2
 1912              	.L94:
 1913 0638 35050000 		.word	.L91+1
 1914 063c 85040000 		.word	.L92+1
 1915 0640 D1030000 		.word	.L95+1
 1916 0644 15020000 		.word	.L96+1
 1917              		.p2align 1
 1918              	.L93:
 1919              	.LVL352:
 339:main.c        ****             switch(device_selection)
 1920              		.loc 1 339 0
 1921 0648 2744     		add	r7, r7, r4
 1922 064a FFB2     		uxtb	r7, r7
 1923 064c 8DF80A70 		strb	r7, [sp, #10]
 340:main.c        ****             {
 1924              		.loc 1 340 0
 1925 0650 032A     		cmp	r2, #3
 1926 0652 0BD8     		bhi	.L101
 1927 0654 01A3     		adr	r3, .L102
 1928 0656 53F822F0 		ldr	pc, [r3, r2, lsl #2]
 1929 065a 00BF     		.p2align 2
 1930              	.L102:
 1931 065c 59050000 		.word	.L100+1
 1932 0660 BB040000 		.word	.L99+1
 1933 0664 FD030000 		.word	.L98+1
 1934 0668 49020000 		.word	.L97+1
 1935              		.p2align 1
 1936              	.L101:
 1937              	.LVL353:
 339:main.c        ****             switch(device_selection)
 1938              		.loc 1 339 0
 1939 066c E319     		adds	r3, r4, r7
 1940 066e DBB2     		uxtb	r3, r3
 1941 0670 8DF80B30 		strb	r3, [sp, #11]
 340:main.c        ****             {
 1942              		.loc 1 340 0
 1943 0674 032A     		cmp	r2, #3
 1944 0676 3FF617AE 		bhi	.L107
 1945 067a 01A1     		adr	r1, .L108
 1946 067c 51F822F0 		ldr	pc, [r1, r2, lsl #2]
ARM GAS  C:\Users\legoc\AppData\Local\Temp\ccGdwsaw.s 			page 45


 1947              		.p2align 2
 1948              	.L108:
 1949 0680 7D050000 		.word	.L106+1
 1950 0684 F1040000 		.word	.L105+1
 1951 0688 29040000 		.word	.L104+1
 1952 068c 7D020000 		.word	.L103+1
 1953              		.p2align 1
 1954              	.L136:
 1955              		.align	3
 1956              	.L135:
 1957 0690 FCA9F1D2 		.word	-755914244
 1958 0694 4D621040 		.word	1074815565
 1959 0698 66666666 		.word	1717986918
 1960 069c 6666E63F 		.word	1072064102
 1961 06a0 0000703F 		.word	1064304640
 1962 06a4 00002E40 		.word	1076756480
 1963 06a8 00002440 		.word	1076101120
 1964 06ac 00004A40 		.word	1078591488
 1965 06b0 0000F03F 		.word	1072693248
 1966              	.LBE60:
 1967              		.cfi_endproc
 1968              	.LFE7:
 1969              		.size	main, .-main
 1970              		.section	.rodata
 1971              		.align	2
 1972              		.set	.LANCHOR0,. + 0
 1973              	.LC0:
 1974 0000 1F000000 		.word	31
 1975 0004 E0070000 		.word	2016
 1976 0008 00F80000 		.word	63488
 1977 000c 20FD0000 		.word	64800
 1978 0010 FF070000 		.word	2047
 1979 0014 18FC0000 		.word	64536
 1980 0018 18C60000 		.word	50712
 1981 001c E07B0000 		.word	31712
 1982 0020 FFFF0000 		.word	65535
 1983 0024 E5AF0000 		.word	45029
 1984              		.section	.rodata.str1.4,"aMS",%progbits,1
 1985              		.align	2
 1986              	.LC1:
 1987 0000 64617461 		.ascii	"data.txt\000"
 1987      2E747874 
 1987      00
 1988 0009 000000   		.space	3
 1989              	.LC2:
 1990 000c 25352E33 		.ascii	"%5.3f V\000"
 1990      66205600 
 1991              	.LC3:
 1992 0014 252E3366 		.ascii	"%.3f MIL A\000"
 1992      204D494C 
 1992      204100
 1993 001f 00       		.space	1
 1994              	.LC4:
 1995 0020 25362E33 		.ascii	"%6.3f V\000"
 1995      66205600 
 1996              	.LC5:
 1997 0028 25362E33 		.ascii	"%6.3f MIL A\000"
ARM GAS  C:\Users\legoc\AppData\Local\Temp\ccGdwsaw.s 			page 46


 1997      66204D49 
 1997      4C204100 
 1998              	.LC6:
 1999 0034 50534F43 		.ascii	"PSOC\000"
 1999      00
 2000 0039 000000   		.space	3
 2001              	.LC7:
 2002 003c 2B7700   		.ascii	"+w\000"
 2003 003f 00       		.space	1
 2004              	.LC8:
 2005 0040 74657374 		.ascii	"test.txt\000"
 2005      2E747874 
 2005      00
 2006 0049 000000   		.space	3
 2007              	.LC10:
 2008 004c 56544820 		.ascii	"VTH CANNOT BE FOUND\000"
 2008      43414E4E 
 2008      4F542042 
 2008      4520464F 
 2008      554E4400 
 2009              	.LC11:
 2010 0060 4E6F2054 		.ascii	"No Threshold Voltage found, check power supplies\000"
 2010      68726573 
 2010      686F6C64 
 2010      20566F6C 
 2010      74616765 
 2011 0091 000000   		.space	3
 2012              	.LC12:
 2013 0094 6C6F672E 		.ascii	"log.txt\000"
 2013      74787400 
 2014              	.LC9:
 2015 009c 43616E20 		.ascii	"Can Write\000"
 2015      57726974 
 2015      6500
 2016              		.text
 2017              	.Letext0:
 2018              		.file 2 "d:\\psoc\\psoc creator\\4.2\\psoc creator\\import\\gnu\\arm\\5.4.1\\arm-none-eabi\\includ
 2019              		.file 3 "d:\\psoc\\psoc creator\\4.2\\psoc creator\\import\\gnu\\arm\\5.4.1\\arm-none-eabi\\includ
 2020              		.file 4 ".\\emFile_V322c\\Code\\Include\\PSoC5/FS_Types.h"
 2021              		.file 5 "font.h"
 2022              		.file 6 "uifunctions.h"
 2023              		.file 7 "Generated_Source\\PSoC5/AMux_1.h"
 2024              		.file 8 "Generated_Source\\PSoC5/AMux_2.h"
 2025              		.file 9 "Generated_Source\\PSoC5/AMux_3.h"
 2026              		.file 10 "Generated_Source\\PSoC5/VDAC8_DS.h"
 2027              		.file 11 "Generated_Source\\PSoC5/VDAC8_GS.h"
 2028              		.file 12 "Generated_Source\\PSoC5/CyLib.h"
 2029              		.file 13 "Generated_Source\\PSoC5/ADC_SAR_1.h"
 2030              		.file 14 "d:\\psoc\\psoc creator\\4.2\\psoc creator\\import\\gnu\\arm\\5.4.1\\arm-none-eabi\\inclu
 2031              		.file 15 "Generated_Source\\PSoC5/SPIM.h"
 2032              		.file 16 "Generated_Source\\PSoC5/Clock.h"
 2033              		.file 17 "Generated_Source\\PSoC5/Reset.h"
 2034              		.file 18 "Generated_Source\\PSoC5/isr.h"
 2035              		.file 19 ".\\emFile_V322c\\Code\\Include\\PSoC5/FS.h"