ARM GAS  C:\Users\legoc\AppData\Local\Temp\cchaQR7h.s 			page 1


   1              		.syntax unified
   2              		.cpu cortex-m3
   3              		.fpu softvfp
   4              		.eabi_attribute 20, 1
   5              		.eabi_attribute 21, 1
   6              		.eabi_attribute 23, 3
   7              		.eabi_attribute 24, 1
   8              		.eabi_attribute 25, 1
   9              		.eabi_attribute 26, 1
  10              		.eabi_attribute 30, 1
  11              		.eabi_attribute 34, 1
  12              		.eabi_attribute 18, 4
  13              		.thumb
  14              		.syntax unified
  15              		.file	"screen.c"
  16              		.text
  17              	.Ltext0:
  18              		.cfi_sections	.debug_frame
  19              		.section	.text.writecommand,"ax",%progbits
  20              		.align	2
  21              		.global	writecommand
  22              		.thumb
  23              		.thumb_func
  24              		.type	writecommand, %function
  25              	writecommand:
  26              	.LFB1:
  27              		.file 1 "screen.c"
   1:screen.c      **** // Steven Andresen
   2:screen.c      **** // Senior Project Fall 2018
   3:screen.c      **** 
   4:screen.c      **** #include "project.h"
   5:screen.c      **** #include "screen.h"
   6:screen.c      **** #include "font.h"
   7:screen.c      **** #include "strings.h"
   8:screen.c      **** #include "string.h"
   9:screen.c      **** #include "stdio.h"
  10:screen.c      **** #include "stdlib.h"
  11:screen.c      **** #include "math.h"
  12:screen.c      **** #include "font.h"
  13:screen.c      **** #include "uifunctions.h"
  14:screen.c      **** 
  15:screen.c      **** // Initialization command/data
  16:screen.c      **** static const uint8_t initcmd[] = {
  17:screen.c      ****   0xEF, 3, 0x03, 0x80, 0x02,
  18:screen.c      ****   0xCF, 3, 0x00, 0xC1, 0x30,
  19:screen.c      ****   0xED, 4, 0x64, 0x03, 0x12, 0x81,
  20:screen.c      ****   0xE8, 3, 0x85, 0x00, 0x78,
  21:screen.c      ****   0xCB, 5, 0x39, 0x2C, 0x00, 0x34, 0x02,
  22:screen.c      ****   0xF7, 1, 0x20,
  23:screen.c      ****   0xEA, 2, 0x00, 0x00,
  24:screen.c      ****   ILI9341_PWCTR1  , 1, 0x23,             // Power control VRH[5:0]
  25:screen.c      ****   ILI9341_PWCTR2  , 1, 0x10,             // Power control SAP[2:0];BT[3:0]
  26:screen.c      ****   ILI9341_VMCTR1  , 2, 0x3e, 0x28,       // VCM control
  27:screen.c      ****   ILI9341_VMCTR2  , 1, 0x86,             // VCM control2
  28:screen.c      ****   ILI9341_MADCTL  , 1, 0x48,             // Memory Access Control
  29:screen.c      ****   ILI9341_VSCRSADD, 1, 0x00,             // Vertical scroll zero
  30:screen.c      ****   ILI9341_PIXFMT  , 1, 0x55,
ARM GAS  C:\Users\legoc\AppData\Local\Temp\cchaQR7h.s 			page 2


  31:screen.c      ****   ILI9341_FRMCTR1 , 2, 0x00, 0x18,
  32:screen.c      ****   ILI9341_DFUNCTR , 3, 0x08, 0x82, 0x27, // Display Function Control
  33:screen.c      ****   0xF2, 1, 0x00,                         // 3Gamma Function Disable
  34:screen.c      ****   ILI9341_GAMMASET , 1, 0x01,             // Gamma curve selected
  35:screen.c      ****   ILI9341_GMCTRP1 , 15, 0x0F, 0x31, 0x2B, 0x0C, 0x0E, 0x08, // Set Gamma
  36:screen.c      ****     0x4E, 0xF1, 0x37, 0x07, 0x10, 0x03, 0x0E, 0x09, 0x00,
  37:screen.c      ****   ILI9341_GMCTRN1 , 15, 0x00, 0x0E, 0x14, 0x03, 0x11, 0x07, // Set Gamma
  38:screen.c      ****     0x31, 0xC1, 0x48, 0x08, 0x0F, 0x0C, 0x31, 0x36, 0x0F,
  39:screen.c      ****   ILI9341_SLPOUT  , 0x80,                // Exit Sleep
  40:screen.c      ****   ILI9341_DISPON  , 0x80,                // Display on
  41:screen.c      ****   0x00                                   // End of list
  42:screen.c      **** };
  43:screen.c      **** 
  44:screen.c      **** // Write command over SPI buss
  45:screen.c      **** void writecommand(uint8_t command)
  46:screen.c      **** {
  28              		.loc 1 46 0
  29              		.cfi_startproc
  30              		@ args = 0, pretend = 0, frame = 0
  31              		@ frame_needed = 0, uses_anonymous_args = 0
  32              	.LVL0:
  33 0000 10B5     		push	{r4, lr}
  34              		.cfi_def_cfa_offset 8
  35              		.cfi_offset 4, -8
  36              		.cfi_offset 14, -4
  37 0002 0446     		mov	r4, r0
  47:screen.c      ****     // Set D_C to low for command
  48:screen.c      ****     D_C_Write(0);
  38              		.loc 1 48 0
  39 0004 0020     		movs	r0, #0
  40              	.LVL1:
  41 0006 FFF7FEFF 		bl	D_C_Write
  42              	.LVL2:
  49:screen.c      ****     SPIM_WriteTxData(command);
  43              		.loc 1 49 0
  44 000a 2046     		mov	r0, r4
  45 000c FFF7FEFF 		bl	SPIM_WriteTxData
  46              	.LVL3:
  47              	.L2:
  50:screen.c      ****     while(SS_Read() != 0){}
  48              		.loc 1 50 0 discriminator 1
  49 0010 FFF7FEFF 		bl	SS_Read
  50              	.LVL4:
  51 0014 0028     		cmp	r0, #0
  52 0016 FBD1     		bne	.L2
  53              	.L3:
  51:screen.c      ****     while(SS_Read() != 1){}
  54              		.loc 1 51 0 discriminator 1
  55 0018 FFF7FEFF 		bl	SS_Read
  56              	.LVL5:
  57 001c 0128     		cmp	r0, #1
  58 001e FBD1     		bne	.L3
  52:screen.c      **** }
  59              		.loc 1 52 0
  60 0020 10BD     		pop	{r4, pc}
  61              		.cfi_endproc
  62              	.LFE1:
ARM GAS  C:\Users\legoc\AppData\Local\Temp\cchaQR7h.s 			page 3


  63              		.size	writecommand, .-writecommand
  64 0022 00BF     		.section	.text.writedata,"ax",%progbits
  65              		.align	2
  66              		.global	writedata
  67              		.thumb
  68              		.thumb_func
  69              		.type	writedata, %function
  70              	writedata:
  71              	.LFB2:
  53:screen.c      **** 
  54:screen.c      **** // Writes data over SPI bus
  55:screen.c      **** void writedata(uint8_t data)
  56:screen.c      **** {
  72              		.loc 1 56 0
  73              		.cfi_startproc
  74              		@ args = 0, pretend = 0, frame = 0
  75              		@ frame_needed = 0, uses_anonymous_args = 0
  76              	.LVL6:
  77 0000 10B5     		push	{r4, lr}
  78              		.cfi_def_cfa_offset 8
  79              		.cfi_offset 4, -8
  80              		.cfi_offset 14, -4
  81 0002 0446     		mov	r4, r0
  57:screen.c      ****     // Set D_C to high for data
  58:screen.c      ****     D_C_Write(1);
  82              		.loc 1 58 0
  83 0004 0120     		movs	r0, #1
  84              	.LVL7:
  85 0006 FFF7FEFF 		bl	D_C_Write
  86              	.LVL8:
  59:screen.c      ****     SPIM_WriteTxData(data);
  87              		.loc 1 59 0
  88 000a 2046     		mov	r0, r4
  89 000c FFF7FEFF 		bl	SPIM_WriteTxData
  90              	.LVL9:
  91              	.L6:
  60:screen.c      ****     while(SS_Read() != 0){}
  92              		.loc 1 60 0 discriminator 1
  93 0010 FFF7FEFF 		bl	SS_Read
  94              	.LVL10:
  95 0014 0028     		cmp	r0, #0
  96 0016 FBD1     		bne	.L6
  97              	.L7:
  61:screen.c      ****     while(SS_Read() != 1){}
  98              		.loc 1 61 0 discriminator 1
  99 0018 FFF7FEFF 		bl	SS_Read
 100              	.LVL11:
 101 001c 0128     		cmp	r0, #1
 102 001e FBD1     		bne	.L7
  62:screen.c      **** }
 103              		.loc 1 62 0
 104 0020 10BD     		pop	{r4, pc}
 105              		.cfi_endproc
 106              	.LFE2:
 107              		.size	writedata, .-writedata
 108 0022 00BF     		.section	.text.setAddrWindow,"ax",%progbits
 109              		.align	2
ARM GAS  C:\Users\legoc\AppData\Local\Temp\cchaQR7h.s 			page 4


 110              		.global	setAddrWindow
 111              		.thumb
 112              		.thumb_func
 113              		.type	setAddrWindow, %function
 114              	setAddrWindow:
 115              	.LFB3:
  63:screen.c      **** 
  64:screen.c      **** // Sets addresses in memory to write to
  65:screen.c      **** void setAddrWindow(uint16_t x, uint16_t y, uint16_t w, uint16_t h) {
 116              		.loc 1 65 0
 117              		.cfi_startproc
 118              		@ args = 0, pretend = 0, frame = 0
 119              		@ frame_needed = 0, uses_anonymous_args = 0
 120              	.LVL12:
 121 0000 38B5     		push	{r3, r4, r5, lr}
 122              		.cfi_def_cfa_offset 16
 123              		.cfi_offset 3, -16
 124              		.cfi_offset 4, -12
 125              		.cfi_offset 5, -8
 126              		.cfi_offset 14, -4
  66:screen.c      ****     uint32_t xa = ((uint32_t)x << 16) | (x+w-1);
 127              		.loc 1 66 0
 128 0002 0244     		add	r2, r2, r0
 129              	.LVL13:
 130 0004 013A     		subs	r2, r2, #1
 131 0006 42EA0045 		orr	r5, r2, r0, lsl #16
 132              	.LVL14:
  67:screen.c      ****     uint32_t ya = ((uint32_t)y << 16) | (y+h-1);
 133              		.loc 1 67 0
 134 000a 0B44     		add	r3, r3, r1
 135              	.LVL15:
 136 000c 013B     		subs	r3, r3, #1
 137 000e 43EA0144 		orr	r4, r3, r1, lsl #16
 138              	.LVL16:
  68:screen.c      ****     
  69:screen.c      ****     // Column address set
  70:screen.c      ****     writecommand(ILI9341_CASET);
 139              		.loc 1 70 0
 140 0012 2A20     		movs	r0, #42
 141              	.LVL17:
 142 0014 FFF7FEFF 		bl	writecommand
 143              	.LVL18:
  71:screen.c      ****     
  72:screen.c      ****     // Splits 'x' addresses 32-bit into 4 bytes
  73:screen.c      ****     D_C_Write(1);
 144              		.loc 1 73 0
 145 0018 0120     		movs	r0, #1
 146 001a FFF7FEFF 		bl	D_C_Write
 147              	.LVL19:
  74:screen.c      ****     SS_Write(0);
 148              		.loc 1 74 0
 149 001e 0020     		movs	r0, #0
 150 0020 FFF7FEFF 		bl	SS_Write
 151              	.LVL20:
  75:screen.c      ****     SPIM_WriteTxData(xa >> 24);
 152              		.loc 1 75 0
 153 0024 280E     		lsrs	r0, r5, #24
ARM GAS  C:\Users\legoc\AppData\Local\Temp\cchaQR7h.s 			page 5


 154 0026 FFF7FEFF 		bl	SPIM_WriteTxData
 155              	.LVL21:
 156              	.L10:
  76:screen.c      ****     while(SS_Read() != 1){}
 157              		.loc 1 76 0 discriminator 1
 158 002a FFF7FEFF 		bl	SS_Read
 159              	.LVL22:
 160 002e 0128     		cmp	r0, #1
 161 0030 FBD1     		bne	.L10
  77:screen.c      ****     SPIM_WriteTxData(xa >> 16);
 162              		.loc 1 77 0
 163 0032 C5F30740 		ubfx	r0, r5, #16, #8
 164 0036 FFF7FEFF 		bl	SPIM_WriteTxData
 165              	.LVL23:
 166              	.L11:
  78:screen.c      ****     while(SS_Read() != 1){}
 167              		.loc 1 78 0 discriminator 1
 168 003a FFF7FEFF 		bl	SS_Read
 169              	.LVL24:
 170 003e 0128     		cmp	r0, #1
 171 0040 FBD1     		bne	.L11
  79:screen.c      ****     SPIM_WriteTxData(xa >> 8);
 172              		.loc 1 79 0
 173 0042 C5F30720 		ubfx	r0, r5, #8, #8
 174 0046 FFF7FEFF 		bl	SPIM_WriteTxData
 175              	.LVL25:
 176              	.L12:
  80:screen.c      ****     while(SS_Read() != 1){}
 177              		.loc 1 80 0 discriminator 1
 178 004a FFF7FEFF 		bl	SS_Read
 179              	.LVL26:
 180 004e 0128     		cmp	r0, #1
 181 0050 FBD1     		bne	.L12
  81:screen.c      ****     SPIM_WriteTxData(xa >> 0);
 182              		.loc 1 81 0
 183 0052 E8B2     		uxtb	r0, r5
 184 0054 FFF7FEFF 		bl	SPIM_WriteTxData
 185              	.LVL27:
 186              	.L13:
  82:screen.c      ****     while(SS_Read() != 1){}
 187              		.loc 1 82 0 discriminator 1
 188 0058 FFF7FEFF 		bl	SS_Read
 189              	.LVL28:
 190 005c 0128     		cmp	r0, #1
 191 005e FBD1     		bne	.L13
  83:screen.c      ****     SS_Write(1);
 192              		.loc 1 83 0
 193 0060 FFF7FEFF 		bl	SS_Write
 194              	.LVL29:
  84:screen.c      ****     
  85:screen.c      ****     // Page address set
  86:screen.c      ****     writecommand(ILI9341_PASET);
 195              		.loc 1 86 0
 196 0064 2B20     		movs	r0, #43
 197 0066 FFF7FEFF 		bl	writecommand
 198              	.LVL30:
  87:screen.c      ****     
ARM GAS  C:\Users\legoc\AppData\Local\Temp\cchaQR7h.s 			page 6


  88:screen.c      ****     // Splits 'y' addresses 32-bit into 4 bytes
  89:screen.c      ****     D_C_Write(1);
 199              		.loc 1 89 0
 200 006a 0120     		movs	r0, #1
 201 006c FFF7FEFF 		bl	D_C_Write
 202              	.LVL31:
  90:screen.c      ****     SS_Write(0);
 203              		.loc 1 90 0
 204 0070 0020     		movs	r0, #0
 205 0072 FFF7FEFF 		bl	SS_Write
 206              	.LVL32:
  91:screen.c      ****     SPIM_WriteTxData(ya >> 24);
 207              		.loc 1 91 0
 208 0076 200E     		lsrs	r0, r4, #24
 209 0078 FFF7FEFF 		bl	SPIM_WriteTxData
 210              	.LVL33:
 211              	.L14:
  92:screen.c      ****     while(SS_Read() != 1){}
 212              		.loc 1 92 0 discriminator 1
 213 007c FFF7FEFF 		bl	SS_Read
 214              	.LVL34:
 215 0080 0128     		cmp	r0, #1
 216 0082 FBD1     		bne	.L14
  93:screen.c      ****     SPIM_WriteTxData(ya >> 16);
 217              		.loc 1 93 0
 218 0084 C4F30740 		ubfx	r0, r4, #16, #8
 219 0088 FFF7FEFF 		bl	SPIM_WriteTxData
 220              	.LVL35:
 221              	.L15:
  94:screen.c      ****     while(SS_Read() != 1){}
 222              		.loc 1 94 0 discriminator 1
 223 008c FFF7FEFF 		bl	SS_Read
 224              	.LVL36:
 225 0090 0128     		cmp	r0, #1
 226 0092 FBD1     		bne	.L15
  95:screen.c      ****     SPIM_WriteTxData(ya >> 8);
 227              		.loc 1 95 0
 228 0094 C4F30720 		ubfx	r0, r4, #8, #8
 229 0098 FFF7FEFF 		bl	SPIM_WriteTxData
 230              	.LVL37:
 231              	.L16:
  96:screen.c      ****     while(SS_Read() != 1){}
 232              		.loc 1 96 0 discriminator 1
 233 009c FFF7FEFF 		bl	SS_Read
 234              	.LVL38:
 235 00a0 0128     		cmp	r0, #1
 236 00a2 FBD1     		bne	.L16
  97:screen.c      ****     SPIM_WriteTxData(ya >> 0);
 237              		.loc 1 97 0
 238 00a4 E0B2     		uxtb	r0, r4
 239 00a6 FFF7FEFF 		bl	SPIM_WriteTxData
 240              	.LVL39:
 241              	.L17:
  98:screen.c      ****     while(SS_Read() != 1){}
 242              		.loc 1 98 0 discriminator 1
 243 00aa FFF7FEFF 		bl	SS_Read
 244              	.LVL40:
ARM GAS  C:\Users\legoc\AppData\Local\Temp\cchaQR7h.s 			page 7


 245 00ae 0128     		cmp	r0, #1
 246 00b0 FBD1     		bne	.L17
  99:screen.c      ****     SS_Write(1);
 247              		.loc 1 99 0
 248 00b2 FFF7FEFF 		bl	SS_Write
 249              	.LVL41:
 100:screen.c      ****     
 101:screen.c      ****     writecommand(ILI9341_RAMWR);
 250              		.loc 1 101 0
 251 00b6 2C20     		movs	r0, #44
 252 00b8 FFF7FEFF 		bl	writecommand
 253              	.LVL42:
 254 00bc 38BD     		pop	{r3, r4, r5, pc}
 255              		.cfi_endproc
 256              	.LFE3:
 257              		.size	setAddrWindow, .-setAddrWindow
 258 00be 00BF     		.section	.text.draw_rect,"ax",%progbits
 259              		.align	2
 260              		.global	draw_rect
 261              		.thumb
 262              		.thumb_func
 263              		.type	draw_rect, %function
 264              	draw_rect:
 265              	.LFB4:
 102:screen.c      **** }
 103:screen.c      **** 
 104:screen.c      **** // Fills in a rectangle of color on the screen
 105:screen.c      **** void draw_rect(int16_t x, int16_t y, int16_t w, int16_t h,
 106:screen.c      ****   uint16_t color) 
 107:screen.c      **** {
 266              		.loc 1 107 0
 267              		.cfi_startproc
 268              		@ args = 4, pretend = 0, frame = 0
 269              		@ frame_needed = 0, uses_anonymous_args = 0
 270              	.LVL43:
 271 0000 2DE9F041 		push	{r4, r5, r6, r7, r8, lr}
 272              		.cfi_def_cfa_offset 24
 273              		.cfi_offset 4, -24
 274              		.cfi_offset 5, -20
 275              		.cfi_offset 6, -16
 276              		.cfi_offset 7, -12
 277              		.cfi_offset 8, -8
 278              		.cfi_offset 14, -4
 279 0004 BDF81850 		ldrh	r5, [sp, #24]
 108:screen.c      **** 
 109:screen.c      ****     // rudimentary clipping (drawChar w/big text requires this)
 110:screen.c      ****     if((x >= _width) || (y >= _height)) return;
 280              		.loc 1 110 0
 281 0008 EF28     		cmp	r0, #239
 282 000a 3FDC     		bgt	.L19
 283 000c 9046     		mov	r8, r2
 284 000e 1F46     		mov	r7, r3
 285              		.loc 1 110 0 is_stmt 0 discriminator 1
 286 0010 B1F5A07F 		cmp	r1, #320
 287 0014 3ADA     		bge	.L19
 111:screen.c      ****     if((x + w - 1) >= _width)  w = _width  - x;
 288              		.loc 1 111 0 is_stmt 1
ARM GAS  C:\Users\legoc\AppData\Local\Temp\cchaQR7h.s 			page 8


 289 0016 8318     		adds	r3, r0, r2
 290              	.LVL44:
 291 0018 013B     		subs	r3, r3, #1
 292 001a EF2B     		cmp	r3, #239
 293 001c 03DD     		ble	.L21
 294              		.loc 1 111 0 is_stmt 0 discriminator 1
 295 001e C0F1F008 		rsb	r8, r0, #240
 296 0022 0FFA88F8 		sxth	r8, r8
 297              	.LVL45:
 298              	.L21:
 112:screen.c      ****     if((y + h - 1) >= _height) h = _height - y;
 299              		.loc 1 112 0 is_stmt 1
 300 0026 CB19     		adds	r3, r1, r7
 301 0028 013B     		subs	r3, r3, #1
 302 002a B3F5A07F 		cmp	r3, #320
 303 002e 02DB     		blt	.L22
 304              		.loc 1 112 0 is_stmt 0 discriminator 1
 305 0030 C1F5A077 		rsb	r7, r1, #320
 306 0034 3FB2     		sxth	r7, r7
 307              	.LVL46:
 308              	.L22:
 113:screen.c      **** 
 114:screen.c      ****     // Sets addresses in memory to write to
 115:screen.c      ****     setAddrWindow(x, y, w, h);
 309              		.loc 1 115 0 is_stmt 1
 310 0036 BBB2     		uxth	r3, r7
 311 0038 1FFA88F2 		uxth	r2, r8
 312 003c 89B2     		uxth	r1, r1
 313 003e 80B2     		uxth	r0, r0
 314 0040 FFF7FEFF 		bl	setAddrWindow
 315              	.LVL47:
 116:screen.c      **** 
 117:screen.c      ****     // Splits color into two bytes
 118:screen.c      ****     uint8_t hi = color >> 8, lo = color;
 316              		.loc 1 118 0
 317 0044 2E0A     		lsrs	r6, r5, #8
 318              	.LVL48:
 319 0046 EDB2     		uxtb	r5, r5
 320              	.LVL49:
 119:screen.c      ****     
 120:screen.c      ****     #if defined (SPI_HAS_TRANSACTION)
 121:screen.c      ****       if (hwSPI)      SPI.beginTransaction(mySPISettings);
 122:screen.c      ****     #endif
 123:screen.c      **** 
 124:screen.c      ****     D_C_Write(1);
 321              		.loc 1 124 0
 322 0048 0120     		movs	r0, #1
 323 004a FFF7FEFF 		bl	D_C_Write
 324              	.LVL50:
 125:screen.c      ****     SS_Write(0);
 325              		.loc 1 125 0
 326 004e 0020     		movs	r0, #0
 327 0050 FFF7FEFF 		bl	SS_Write
 328              	.LVL51:
 126:screen.c      ****     // Writes color to addresses
 127:screen.c      ****     for(y=h; y>0; y--) 
 329              		.loc 1 127 0
ARM GAS  C:\Users\legoc\AppData\Local\Temp\cchaQR7h.s 			page 9


 330 0054 15E0     		b	.L23
 331              	.LVL52:
 332              	.L26:
 128:screen.c      ****     {
 129:screen.c      ****         for(x=w; x>0; x--) 
 130:screen.c      ****         {
 131:screen.c      ****             SPIM_WriteTxData(hi);
 333              		.loc 1 131 0
 334 0056 3046     		mov	r0, r6
 335 0058 FFF7FEFF 		bl	SPIM_WriteTxData
 336              	.LVL53:
 337              	.L24:
 132:screen.c      ****             while(SS_Read() != 1){}
 338              		.loc 1 132 0 discriminator 1
 339 005c FFF7FEFF 		bl	SS_Read
 340              	.LVL54:
 341 0060 0128     		cmp	r0, #1
 342 0062 FBD1     		bne	.L24
 133:screen.c      ****             SPIM_WriteTxData(lo);
 343              		.loc 1 133 0
 344 0064 2846     		mov	r0, r5
 345 0066 FFF7FEFF 		bl	SPIM_WriteTxData
 346              	.LVL55:
 347              	.L25:
 134:screen.c      ****             while(SS_Read() != 1){}
 348              		.loc 1 134 0 discriminator 1
 349 006a FFF7FEFF 		bl	SS_Read
 350              	.LVL56:
 351 006e 0128     		cmp	r0, #1
 352 0070 FBD1     		bne	.L25
 129:screen.c      ****         {
 353              		.loc 1 129 0 discriminator 2
 354 0072 013C     		subs	r4, r4, #1
 355              	.LVL57:
 356 0074 24B2     		sxth	r4, r4
 357              	.LVL58:
 358 0076 00E0     		b	.L27
 359              	.LVL59:
 360              	.L28:
 361 0078 4446     		mov	r4, r8
 362              	.L27:
 363              	.LVL60:
 129:screen.c      ****         {
 364              		.loc 1 129 0 is_stmt 0 discriminator 1
 365 007a 002C     		cmp	r4, #0
 366 007c EBDC     		bgt	.L26
 127:screen.c      ****     {
 367              		.loc 1 127 0 is_stmt 1 discriminator 2
 368 007e 013F     		subs	r7, r7, #1
 369              	.LVL61:
 370 0080 3FB2     		sxth	r7, r7
 371              	.LVL62:
 372              	.L23:
 127:screen.c      ****     {
 373              		.loc 1 127 0 is_stmt 0 discriminator 1
 374 0082 002F     		cmp	r7, #0
 375 0084 F8DC     		bgt	.L28
ARM GAS  C:\Users\legoc\AppData\Local\Temp\cchaQR7h.s 			page 10


 135:screen.c      ****         }
 136:screen.c      ****     }
 137:screen.c      ****     SS_Write(1);
 376              		.loc 1 137 0 is_stmt 1
 377 0086 0120     		movs	r0, #1
 378 0088 FFF7FEFF 		bl	SS_Write
 379              	.LVL63:
 380              	.L19:
 381 008c BDE8F081 		pop	{r4, r5, r6, r7, r8, pc}
 382              		.cfi_endproc
 383              	.LFE4:
 384              		.size	draw_rect, .-draw_rect
 385              		.section	.text.fill_rect,"ax",%progbits
 386              		.align	2
 387              		.global	fill_rect
 388              		.thumb
 389              		.thumb_func
 390              		.type	fill_rect, %function
 391              	fill_rect:
 392              	.LFB5:
 138:screen.c      **** 
 139:screen.c      ****     #if defined (SPI_HAS_TRANSACTION)
 140:screen.c      ****       if (hwSPI)      SPI.endTransaction();
 141:screen.c      ****     #endif
 142:screen.c      **** }
 143:screen.c      **** 
 144:screen.c      **** 
 145:screen.c      **** 
 146:screen.c      **** void fill_rect(int16_t x, int16_t y, int16_t w, int16_t h,
 147:screen.c      ****   uint16_t color)
 148:screen.c      **** {
 393              		.loc 1 148 0
 394              		.cfi_startproc
 395              		@ args = 4, pretend = 0, frame = 0
 396              		@ frame_needed = 0, uses_anonymous_args = 0
 397              	.LVL64:
 398 0000 30B5     		push	{r4, r5, lr}
 399              		.cfi_def_cfa_offset 12
 400              		.cfi_offset 4, -12
 401              		.cfi_offset 5, -8
 402              		.cfi_offset 14, -4
 403 0002 83B0     		sub	sp, sp, #12
 404              		.cfi_def_cfa_offset 24
 405 0004 1546     		mov	r5, r2
 406 0006 1A46     		mov	r2, r3
 407              	.LVL65:
 149:screen.c      ****     draw_rect((240-y-h), (320-x-w), h, w, color);
 408              		.loc 1 149 0
 409 0008 4042     		negs	r0, r0
 410              	.LVL66:
 411 000a 441B     		subs	r4, r0, r5
 412 000c 04F5A074 		add	r4, r4, #320
 413 0010 4942     		negs	r1, r1
 414              	.LVL67:
 415 0012 C81A     		subs	r0, r1, r3
 416 0014 F030     		adds	r0, r0, #240
 417 0016 BDF81830 		ldrh	r3, [sp, #24]
ARM GAS  C:\Users\legoc\AppData\Local\Temp\cchaQR7h.s 			page 11


 418              	.LVL68:
 419 001a 0093     		str	r3, [sp]
 420 001c 2B46     		mov	r3, r5
 421 001e 21B2     		sxth	r1, r4
 422 0020 00B2     		sxth	r0, r0
 423 0022 FFF7FEFF 		bl	draw_rect
 424              	.LVL69:
 150:screen.c      **** }
 425              		.loc 1 150 0
 426 0026 03B0     		add	sp, sp, #12
 427              		.cfi_def_cfa_offset 12
 428              		@ sp needed
 429 0028 30BD     		pop	{r4, r5, pc}
 430              		.cfi_endproc
 431              	.LFE5:
 432              		.size	fill_rect, .-fill_rect
 433 002a 00BF     		.section	.text.fill_screen,"ax",%progbits
 434              		.align	2
 435              		.global	fill_screen
 436              		.thumb
 437              		.thumb_func
 438              		.type	fill_screen, %function
 439              	fill_screen:
 440              	.LFB6:
 151:screen.c      **** 
 152:screen.c      **** // Fills screen a single color
 153:screen.c      **** void fill_screen(uint16_t color) 
 154:screen.c      **** {
 441              		.loc 1 154 0
 442              		.cfi_startproc
 443              		@ args = 0, pretend = 0, frame = 0
 444              		@ frame_needed = 0, uses_anonymous_args = 0
 445              	.LVL70:
 446 0000 00B5     		push	{lr}
 447              		.cfi_def_cfa_offset 4
 448              		.cfi_offset 14, -4
 449 0002 83B0     		sub	sp, sp, #12
 450              		.cfi_def_cfa_offset 16
 155:screen.c      ****   fill_rect(0, 0,  _height, _width, color);
 451              		.loc 1 155 0
 452 0004 0090     		str	r0, [sp]
 453 0006 F023     		movs	r3, #240
 454 0008 4FF4A072 		mov	r2, #320
 455 000c 0021     		movs	r1, #0
 456 000e 0846     		mov	r0, r1
 457              	.LVL71:
 458 0010 FFF7FEFF 		bl	fill_rect
 459              	.LVL72:
 156:screen.c      **** }
 460              		.loc 1 156 0
 461 0014 03B0     		add	sp, sp, #12
 462              		.cfi_def_cfa_offset 4
 463              		@ sp needed
 464 0016 5DF804FB 		ldr	pc, [sp], #4
 465              		.cfi_endproc
 466              	.LFE6:
 467              		.size	fill_screen, .-fill_screen
ARM GAS  C:\Users\legoc\AppData\Local\Temp\cchaQR7h.s 			page 12


 468 001a 00BF     		.section	.text.StartScreen,"ax",%progbits
 469              		.align	2
 470              		.global	StartScreen
 471              		.thumb
 472              		.thumb_func
 473              		.type	StartScreen, %function
 474              	StartScreen:
 475              	.LFB7:
 157:screen.c      **** 
 158:screen.c      **** // Sends commands and data to configure screen for display
 159:screen.c      **** void StartScreen() 
 160:screen.c      **** {
 476              		.loc 1 160 0
 477              		.cfi_startproc
 478              		@ args = 0, pretend = 0, frame = 0
 479              		@ frame_needed = 0, uses_anonymous_args = 0
 480 0000 F8B5     		push	{r3, r4, r5, r6, r7, lr}
 481              		.cfi_def_cfa_offset 24
 482              		.cfi_offset 3, -24
 483              		.cfi_offset 4, -20
 484              		.cfi_offset 5, -16
 485              		.cfi_offset 6, -12
 486              		.cfi_offset 7, -8
 487              		.cfi_offset 14, -4
 488              	.LVL73:
 161:screen.c      ****     uint8_t        cmd, x, numArgs;
 162:screen.c      ****     const uint8_t *addr = initcmd;
 489              		.loc 1 162 0
 490 0002 0E4D     		ldr	r5, .L41
 163:screen.c      ****     
 164:screen.c      ****     // Iterates through cmd/data array
 165:screen.c      ****     while((cmd = pgm_read_byte(addr++)) > 0) 
 491              		.loc 1 165 0
 492 0004 16E0     		b	.L35
 493              	.LVL74:
 494              	.L39:
 166:screen.c      ****     {
 167:screen.c      ****         writecommand(cmd);
 495              		.loc 1 167 0
 496 0006 FFF7FEFF 		bl	writecommand
 497              	.LVL75:
 168:screen.c      ****         x       = pgm_read_byte(addr++);
 498              		.loc 1 168 0
 499 000a 6F78     		ldrb	r7, [r5, #1]	@ zero_extendqisi2
 500              	.LVL76:
 169:screen.c      ****         numArgs = x & 0x7F;
 501              		.loc 1 169 0
 502 000c 07F07F02 		and	r2, r7, #127
 503              	.LVL77:
 168:screen.c      ****         x       = pgm_read_byte(addr++);
 504              		.loc 1 168 0
 505 0010 0235     		adds	r5, r5, #2
 506              	.LVL78:
 170:screen.c      ****         while(numArgs--)
 507              		.loc 1 170 0
 508 0012 05E0     		b	.L36
 509              	.LVL79:
ARM GAS  C:\Users\legoc\AppData\Local\Temp\cchaQR7h.s 			page 13


 510              	.L37:
 171:screen.c      ****         {
 172:screen.c      ****             writedata(pgm_read_byte(addr++));
 511              		.loc 1 172 0
 512 0014 6E1C     		adds	r6, r5, #1
 513              	.LVL80:
 514 0016 2878     		ldrb	r0, [r5]	@ zero_extendqisi2
 515 0018 FFF7FEFF 		bl	writedata
 516              	.LVL81:
 170:screen.c      ****         while(numArgs--)
 517              		.loc 1 170 0
 518 001c 2246     		mov	r2, r4
 519              		.loc 1 172 0
 520 001e 3546     		mov	r5, r6
 521              	.LVL82:
 522              	.L36:
 170:screen.c      ****         while(numArgs--)
 523              		.loc 1 170 0
 524 0020 531E     		subs	r3, r2, #1
 525 0022 DCB2     		uxtb	r4, r3
 526              	.LVL83:
 527 0024 002A     		cmp	r2, #0
 528 0026 F5D1     		bne	.L37
 173:screen.c      ****         }
 174:screen.c      ****         if(x & 0x80) CyDelay(120);
 529              		.loc 1 174 0
 530 0028 17F0800F 		tst	r7, #128
 531 002c 02D0     		beq	.L35
 532              		.loc 1 174 0 is_stmt 0 discriminator 1
 533 002e 7820     		movs	r0, #120
 534 0030 FFF7FEFF 		bl	CyDelay
 535              	.LVL84:
 536              	.L35:
 165:screen.c      ****     {
 537              		.loc 1 165 0 is_stmt 1
 538 0034 2878     		ldrb	r0, [r5]	@ zero_extendqisi2
 539              	.LVL85:
 540 0036 0028     		cmp	r0, #0
 541 0038 E5D1     		bne	.L39
 175:screen.c      ****     }
 176:screen.c      **** }
 542              		.loc 1 176 0
 543 003a F8BD     		pop	{r3, r4, r5, r6, r7, pc}
 544              	.LVL86:
 545              	.L42:
 546              		.align	2
 547              	.L41:
 548 003c 00000000 		.word	.LANCHOR0
 549              		.cfi_endproc
 550              	.LFE7:
 551              		.size	StartScreen, .-StartScreen
 552              		.section	.text.change_pixel,"ax",%progbits
 553              		.align	2
 554              		.global	change_pixel
 555              		.thumb
 556              		.thumb_func
 557              		.type	change_pixel, %function
ARM GAS  C:\Users\legoc\AppData\Local\Temp\cchaQR7h.s 			page 14


 558              	change_pixel:
 559              	.LFB8:
 177:screen.c      **** 
 178:screen.c      **** void change_pixel(int16_t x, int16_t y, uint16_t color)
 179:screen.c      **** {
 560              		.loc 1 179 0
 561              		.cfi_startproc
 562              		@ args = 0, pretend = 0, frame = 0
 563              		@ frame_needed = 0, uses_anonymous_args = 0
 564              	.LVL87:
 180:screen.c      ****     //Make sure pixel is on screen
 181:screen.c      ****     if((x < 0) ||(x >= _width) || (y < 0) || (y >= _height)) return;
 565              		.loc 1 181 0
 566 0000 80B2     		uxth	r0, r0
 567 0002 EF28     		cmp	r0, #239
 568 0004 22D8     		bhi	.L48
 569              		.loc 1 181 0 is_stmt 0 discriminator 1
 570 0006 0029     		cmp	r1, #0
 571 0008 20DB     		blt	.L48
 572              		.loc 1 181 0 discriminator 2
 573 000a B1F5A07F 		cmp	r1, #320
 574 000e 1DDA     		bge	.L48
 179:screen.c      ****     //Make sure pixel is on screen
 575              		.loc 1 179 0 is_stmt 1
 576 0010 10B5     		push	{r4, lr}
 577              		.cfi_def_cfa_offset 8
 578              		.cfi_offset 4, -8
 579              		.cfi_offset 14, -4
 580 0012 1446     		mov	r4, r2
 182:screen.c      **** 
 183:screen.c      ****     //Sets memory address to write to
 184:screen.c      ****     setAddrWindow(x,y,1,1);
 581              		.loc 1 184 0
 582 0014 0123     		movs	r3, #1
 583 0016 1A46     		mov	r2, r3
 584              	.LVL88:
 585 0018 89B2     		uxth	r1, r1
 586 001a FFF7FEFF 		bl	setAddrWindow
 587              	.LVL89:
 185:screen.c      **** 
 186:screen.c      ****     #if defined (SPI_HAS_TRANSACTION)
 187:screen.c      ****         if (hwSPI)     SPI.beginTransaction(mySPISettings);
 188:screen.c      ****     #endif
 189:screen.c      **** 
 190:screen.c      ****     //Writes 2-byte color to memory
 191:screen.c      ****     D_C_Write(1);
 588              		.loc 1 191 0
 589 001e 0120     		movs	r0, #1
 590 0020 FFF7FEFF 		bl	D_C_Write
 591              	.LVL90:
 192:screen.c      ****     SS_Write(0);
 592              		.loc 1 192 0
 593 0024 0020     		movs	r0, #0
 594 0026 FFF7FEFF 		bl	SS_Write
 595              	.LVL91:
 193:screen.c      ****     SPIM_WriteTxData(color >> 8);
 596              		.loc 1 193 0
ARM GAS  C:\Users\legoc\AppData\Local\Temp\cchaQR7h.s 			page 15


 597 002a 200A     		lsrs	r0, r4, #8
 598 002c FFF7FEFF 		bl	SPIM_WriteTxData
 599              	.LVL92:
 600              	.L45:
 194:screen.c      ****     while(SS_Read() != 1){}
 601              		.loc 1 194 0 discriminator 1
 602 0030 FFF7FEFF 		bl	SS_Read
 603              	.LVL93:
 604 0034 0128     		cmp	r0, #1
 605 0036 FBD1     		bne	.L45
 195:screen.c      ****     SPIM_WriteTxData(color);
 606              		.loc 1 195 0
 607 0038 E0B2     		uxtb	r0, r4
 608 003a FFF7FEFF 		bl	SPIM_WriteTxData
 609              	.LVL94:
 610              	.L46:
 196:screen.c      ****     while(SS_Read() != 1){}
 611              		.loc 1 196 0 discriminator 1
 612 003e FFF7FEFF 		bl	SS_Read
 613              	.LVL95:
 614 0042 0128     		cmp	r0, #1
 615 0044 FBD1     		bne	.L46
 197:screen.c      ****     SS_Write(1);
 616              		.loc 1 197 0
 617 0046 FFF7FEFF 		bl	SS_Write
 618              	.LVL96:
 619 004a 10BD     		pop	{r4, pc}
 620              	.LVL97:
 621              	.L48:
 622              		.cfi_def_cfa_offset 0
 623              		.cfi_restore 4
 624              		.cfi_restore 14
 625 004c 7047     		bx	lr
 626              		.cfi_endproc
 627              	.LFE8:
 628              		.size	change_pixel, .-change_pixel
 629 004e 00BF     		.section	.text.draw_pixel,"ax",%progbits
 630              		.align	2
 631              		.global	draw_pixel
 632              		.thumb
 633              		.thumb_func
 634              		.type	draw_pixel, %function
 635              	draw_pixel:
 636              	.LFB9:
 198:screen.c      **** 
 199:screen.c      ****     #if defined (SPI_HAS_TRANSACTION)
 200:screen.c      ****         if (hwSPI)     SPI.endTransaction();
 201:screen.c      ****     #endif
 202:screen.c      **** }
 203:screen.c      **** 
 204:screen.c      **** // Changes pixel color at specified coordinates
 205:screen.c      **** void draw_pixel(int16_t x, int16_t y, uint16_t color) 
 206:screen.c      **** {    
 637              		.loc 1 206 0
 638              		.cfi_startproc
 639              		@ args = 0, pretend = 0, frame = 0
 640              		@ frame_needed = 0, uses_anonymous_args = 0
ARM GAS  C:\Users\legoc\AppData\Local\Temp\cchaQR7h.s 			page 16


 641              	.LVL98:
 642 0000 08B5     		push	{r3, lr}
 643              		.cfi_def_cfa_offset 8
 644              		.cfi_offset 3, -8
 645              		.cfi_offset 14, -4
 207:screen.c      ****     change_pixel(239-y, 319-x, color);
 646              		.loc 1 207 0
 647 0002 C0F59F73 		rsb	r3, r0, #318
 648 0006 0133     		adds	r3, r3, #1
 649 0008 C1F1EF00 		rsb	r0, r1, #239
 650              	.LVL99:
 651 000c 19B2     		sxth	r1, r3
 652              	.LVL100:
 653 000e 00B2     		sxth	r0, r0
 654 0010 FFF7FEFF 		bl	change_pixel
 655              	.LVL101:
 656 0014 08BD     		pop	{r3, pc}
 657              		.cfi_endproc
 658              	.LFE9:
 659              		.size	draw_pixel, .-draw_pixel
 660 0016 00BF     		.section	.text.write_line,"ax",%progbits
 661              		.align	2
 662              		.global	write_line
 663              		.thumb
 664              		.thumb_func
 665              		.type	write_line, %function
 666              	write_line:
 667              	.LFB10:
 208:screen.c      **** //    change_pixel(y, x, color);
 209:screen.c      **** }
 210:screen.c      **** 
 211:screen.c      **** // Draws 1 pixel lines on the screen from one coordinate to another
 212:screen.c      **** void write_line(int16_t x0, int16_t y0, int16_t x1, int16_t y1,
 213:screen.c      ****         uint16_t color) 
 214:screen.c      **** {
 668              		.loc 1 214 0
 669              		.cfi_startproc
 670              		@ args = 4, pretend = 0, frame = 8
 671              		@ frame_needed = 0, uses_anonymous_args = 0
 672              	.LVL102:
 673 0000 2DE9F04F 		push	{r4, r5, r6, r7, r8, r9, r10, fp, lr}
 674              		.cfi_def_cfa_offset 36
 675              		.cfi_offset 4, -36
 676              		.cfi_offset 5, -32
 677              		.cfi_offset 6, -28
 678              		.cfi_offset 7, -24
 679              		.cfi_offset 8, -20
 680              		.cfi_offset 9, -16
 681              		.cfi_offset 10, -12
 682              		.cfi_offset 11, -8
 683              		.cfi_offset 14, -4
 684 0004 83B0     		sub	sp, sp, #12
 685              		.cfi_def_cfa_offset 48
 686 0006 0546     		mov	r5, r0
 687 0008 0E46     		mov	r6, r1
 688 000a 1746     		mov	r7, r2
 689 000c BDF83020 		ldrh	r2, [sp, #48]
ARM GAS  C:\Users\legoc\AppData\Local\Temp\cchaQR7h.s 			page 17


 690              	.LVL103:
 691 0010 0092     		str	r2, [sp]
 215:screen.c      ****     int16_t steep = abs(y1 - y0) > abs(x1 - x0);
 692              		.loc 1 215 0
 693 0012 C1EB0308 		rsb	r8, r1, r3
 694 0016 B8F1000F 		cmp	r8, #0
 695 001a B8BF     		it	lt
 696 001c C8F10008 		rsblt	r8, r8, #0
 697 0020 C0EB0709 		rsb	r9, r0, r7
 698 0024 B9F1000F 		cmp	r9, #0
 699 0028 B8BF     		it	lt
 700 002a C9F10009 		rsblt	r9, r9, #0
 701              	.LVL104:
 216:screen.c      ****     if (steep) 
 702              		.loc 1 216 0
 703 002e C845     		cmp	r8, r9
 704 0030 04DD     		ble	.L52
 705 0032 3A46     		mov	r2, r7
 706              	.LBB2:
 217:screen.c      ****     {
 218:screen.c      ****         _swap_int16_t(x0, y0);
 219:screen.c      ****         _swap_int16_t(x1, y1);
 707              		.loc 1 219 0
 708 0034 1F46     		mov	r7, r3
 709 0036 1346     		mov	r3, r2
 710              	.LVL105:
 711              	.LBE2:
 712              	.LBB3:
 218:screen.c      ****         _swap_int16_t(x1, y1);
 713              		.loc 1 218 0
 714 0038 0D46     		mov	r5, r1
 715 003a 0646     		mov	r6, r0
 716              	.L52:
 717              	.LVL106:
 718              	.LBE3:
 220:screen.c      ****     }
 221:screen.c      ****     if (x0 > x1)
 719              		.loc 1 221 0
 720 003c BD42     		cmp	r5, r7
 721 003e 05DD     		ble	.L53
 722 0040 3246     		mov	r2, r6
 723              	.LBB4:
 222:screen.c      ****     {
 223:screen.c      ****         _swap_int16_t(x0, x1);
 224:screen.c      ****         _swap_int16_t(y0, y1);
 724              		.loc 1 224 0
 725 0042 1E46     		mov	r6, r3
 726              	.LVL107:
 727 0044 1346     		mov	r3, r2
 728              	.LVL108:
 729              	.LBE4:
 730 0046 2A46     		mov	r2, r5
 731              	.LBB5:
 223:screen.c      ****         _swap_int16_t(y0, y1);
 732              		.loc 1 223 0
 733 0048 3D46     		mov	r5, r7
 734              	.LVL109:
ARM GAS  C:\Users\legoc\AppData\Local\Temp\cchaQR7h.s 			page 18


 735 004a 1746     		mov	r7, r2
 736              	.LVL110:
 737              	.L53:
 738              	.LBE5:
 225:screen.c      ****     }
 226:screen.c      **** 
 227:screen.c      ****     int16_t dx, dy;
 228:screen.c      ****     dx = x1 - x0;
 739              		.loc 1 228 0
 740 004c C5EB070B 		rsb	fp, r5, r7
 741 0050 1FFA8BFB 		uxth	fp, fp
 742 0054 0FFA8BF4 		sxth	r4, fp
 743              	.LVL111:
 229:screen.c      ****     dy = abs(y1 - y0);
 744              		.loc 1 229 0
 745 0058 C6EB030A 		rsb	r10, r6, r3
 746 005c BAF1000F 		cmp	r10, #0
 747 0060 B8BF     		it	lt
 748 0062 CAF1000A 		rsblt	r10, r10, #0
 749              	.LVL112:
 230:screen.c      **** 
 231:screen.c      ****     int16_t err = dx / 2;
 750              		.loc 1 231 0
 751 0066 04EBD474 		add	r4, r4, r4, lsr #31
 752              	.LVL113:
 753 006a 6410     		asrs	r4, r4, #1
 754              	.LVL114:
 232:screen.c      ****     int16_t ystep;
 233:screen.c      **** 
 234:screen.c      ****     if (y0 < y1) 
 755              		.loc 1 234 0
 756 006c 9E42     		cmp	r6, r3
 757 006e 02DA     		bge	.L62
 235:screen.c      ****     {
 236:screen.c      ****         ystep = 1;
 758              		.loc 1 236 0
 759 0070 0123     		movs	r3, #1
 760              	.LVL115:
 761 0072 0193     		str	r3, [sp, #4]
 762 0074 1EE0     		b	.L55
 763              	.LVL116:
 764              	.L62:
 237:screen.c      ****     } else {
 238:screen.c      ****         ystep = -1;
 765              		.loc 1 238 0
 766 0076 4FF0FF33 		mov	r3, #-1
 767              	.LVL117:
 768 007a 0193     		str	r3, [sp, #4]
 769 007c 1AE0     		b	.L55
 770              	.LVL118:
 771              	.L59:
 239:screen.c      ****     }
 240:screen.c      **** 
 241:screen.c      ****     for (; x0<=x1; x0++) 
 242:screen.c      ****     {
 243:screen.c      ****         if (steep) 
 772              		.loc 1 243 0
ARM GAS  C:\Users\legoc\AppData\Local\Temp\cchaQR7h.s 			page 19


 773 007e C845     		cmp	r8, r9
 774 0080 05DD     		ble	.L56
 244:screen.c      ****         {
 245:screen.c      ****             draw_pixel(y0, x0, color);
 775              		.loc 1 245 0
 776 0082 009A     		ldr	r2, [sp]
 777 0084 2946     		mov	r1, r5
 778 0086 3046     		mov	r0, r6
 779 0088 FFF7FEFF 		bl	draw_pixel
 780              	.LVL119:
 781 008c 04E0     		b	.L57
 782              	.L56:
 246:screen.c      ****         } else 
 247:screen.c      ****         {
 248:screen.c      ****             draw_pixel(x0, y0, color);
 783              		.loc 1 248 0
 784 008e 009A     		ldr	r2, [sp]
 785 0090 3146     		mov	r1, r6
 786 0092 2846     		mov	r0, r5
 787 0094 FFF7FEFF 		bl	draw_pixel
 788              	.LVL120:
 789              	.L57:
 249:screen.c      ****         }
 250:screen.c      ****         err -= dy;
 790              		.loc 1 250 0
 791 0098 CAEB0404 		rsb	r4, r10, r4
 792              	.LVL121:
 793 009c A3B2     		uxth	r3, r4
 794 009e 1CB2     		sxth	r4, r3
 795              	.LVL122:
 251:screen.c      ****         if (err < 0) 
 796              		.loc 1 251 0
 797 00a0 002C     		cmp	r4, #0
 798 00a2 05DA     		bge	.L58
 252:screen.c      ****         {
 253:screen.c      ****             y0 += ystep;
 799              		.loc 1 253 0
 800 00a4 019A     		ldr	r2, [sp, #4]
 801 00a6 1644     		add	r6, r6, r2
 802              	.LVL123:
 803 00a8 36B2     		sxth	r6, r6
 804              	.LVL124:
 254:screen.c      ****             err += dx;
 805              		.loc 1 254 0
 806 00aa 0BEB0304 		add	r4, fp, r3
 807              	.LVL125:
 808 00ae 24B2     		sxth	r4, r4
 809              	.LVL126:
 810              	.L58:
 241:screen.c      ****     {
 811              		.loc 1 241 0
 812 00b0 0135     		adds	r5, r5, #1
 813              	.LVL127:
 814 00b2 2DB2     		sxth	r5, r5
 815              	.LVL128:
 816              	.L55:
 241:screen.c      ****     {
ARM GAS  C:\Users\legoc\AppData\Local\Temp\cchaQR7h.s 			page 20


 817              		.loc 1 241 0 is_stmt 0 discriminator 1
 818 00b4 BD42     		cmp	r5, r7
 819 00b6 E2DD     		ble	.L59
 255:screen.c      ****         }
 256:screen.c      ****     }
 257:screen.c      **** }
 820              		.loc 1 257 0 is_stmt 1
 821 00b8 03B0     		add	sp, sp, #12
 822              		.cfi_def_cfa_offset 36
 823              		@ sp needed
 824 00ba BDE8F08F 		pop	{r4, r5, r6, r7, r8, r9, r10, fp, pc}
 825              		.cfi_endproc
 826              	.LFE10:
 827              		.size	write_line, .-write_line
 828 00be 00BF     		.section	.text.drawFastHLine,"ax",%progbits
 829              		.align	2
 830              		.global	drawFastHLine
 831              		.thumb
 832              		.thumb_func
 833              		.type	drawFastHLine, %function
 834              	drawFastHLine:
 835              	.LFB11:
 258:screen.c      ****     
 259:screen.c      **** // Draws horizontal line
 260:screen.c      **** void drawFastHLine(int16_t x, int16_t y,
 261:screen.c      **** int16_t w, uint16_t color)
 262:screen.c      **** {
 836              		.loc 1 262 0
 837              		.cfi_startproc
 838              		@ args = 0, pretend = 0, frame = 0
 839              		@ frame_needed = 0, uses_anonymous_args = 0
 840              	.LVL129:
 841 0000 00B5     		push	{lr}
 842              		.cfi_def_cfa_offset 4
 843              		.cfi_offset 14, -4
 844 0002 83B0     		sub	sp, sp, #12
 845              		.cfi_def_cfa_offset 16
 263:screen.c      ****     // Calls write_line
 264:screen.c      ****     write_line(x, y, x+w-1, y, color);
 846              		.loc 1 264 0
 847 0004 0244     		add	r2, r2, r0
 848              	.LVL130:
 849 0006 013A     		subs	r2, r2, #1
 850 0008 0093     		str	r3, [sp]
 851 000a 0B46     		mov	r3, r1
 852              	.LVL131:
 853 000c 12B2     		sxth	r2, r2
 854 000e FFF7FEFF 		bl	write_line
 855              	.LVL132:
 265:screen.c      **** }
 856              		.loc 1 265 0
 857 0012 03B0     		add	sp, sp, #12
 858              		.cfi_def_cfa_offset 4
 859              		@ sp needed
 860 0014 5DF804FB 		ldr	pc, [sp], #4
 861              		.cfi_endproc
 862              	.LFE11:
ARM GAS  C:\Users\legoc\AppData\Local\Temp\cchaQR7h.s 			page 21


 863              		.size	drawFastHLine, .-drawFastHLine
 864              		.section	.text.drawFastVLine,"ax",%progbits
 865              		.align	2
 866              		.global	drawFastVLine
 867              		.thumb
 868              		.thumb_func
 869              		.type	drawFastVLine, %function
 870              	drawFastVLine:
 871              	.LFB12:
 266:screen.c      **** 
 267:screen.c      **** // Draws vertical line
 268:screen.c      **** void drawFastVLine(int16_t x, int16_t y,
 269:screen.c      ****         int16_t h, uint16_t color) 
 270:screen.c      **** {
 872              		.loc 1 270 0
 873              		.cfi_startproc
 874              		@ args = 0, pretend = 0, frame = 0
 875              		@ frame_needed = 0, uses_anonymous_args = 0
 876              	.LVL133:
 877 0000 00B5     		push	{lr}
 878              		.cfi_def_cfa_offset 4
 879              		.cfi_offset 14, -4
 880 0002 83B0     		sub	sp, sp, #12
 881              		.cfi_def_cfa_offset 16
 271:screen.c      ****     // Calls write_line
 272:screen.c      ****     write_line(x, y, x, y+h-1, color);
 882              		.loc 1 272 0
 883 0004 0A44     		add	r2, r2, r1
 884              	.LVL134:
 885 0006 013A     		subs	r2, r2, #1
 886 0008 0093     		str	r3, [sp]
 887 000a 13B2     		sxth	r3, r2
 888              	.LVL135:
 889 000c 0246     		mov	r2, r0
 890 000e FFF7FEFF 		bl	write_line
 891              	.LVL136:
 273:screen.c      **** }
 892              		.loc 1 273 0
 893 0012 03B0     		add	sp, sp, #12
 894              		.cfi_def_cfa_offset 4
 895              		@ sp needed
 896 0014 5DF804FB 		ldr	pc, [sp], #4
 897              		.cfi_endproc
 898              	.LFE12:
 899              		.size	drawFastVLine, .-drawFastVLine
 900              		.section	.text.draw_line,"ax",%progbits
 901              		.align	2
 902              		.global	draw_line
 903              		.thumb
 904              		.thumb_func
 905              		.type	draw_line, %function
 906              	draw_line:
 907              	.LFB13:
 274:screen.c      **** 
 275:screen.c      **** // Calls proper way to draw a line
 276:screen.c      **** void draw_line(int16_t x0, int16_t y0, int16_t x1, int16_t y1,
 277:screen.c      ****         uint16_t color)
ARM GAS  C:\Users\legoc\AppData\Local\Temp\cchaQR7h.s 			page 22


 278:screen.c      **** {
 908              		.loc 1 278 0
 909              		.cfi_startproc
 910              		@ args = 4, pretend = 0, frame = 0
 911              		@ frame_needed = 0, uses_anonymous_args = 0
 912              	.LVL137:
 913 0000 10B5     		push	{r4, lr}
 914              		.cfi_def_cfa_offset 8
 915              		.cfi_offset 4, -8
 916              		.cfi_offset 14, -4
 917 0002 82B0     		sub	sp, sp, #8
 918              		.cfi_def_cfa_offset 16
 919 0004 BDF81040 		ldrh	r4, [sp, #16]
 279:screen.c      ****     // Checks is line is vertical
 280:screen.c      ****     if(x0 == x1)
 920              		.loc 1 280 0
 921 0008 9042     		cmp	r0, r2
 922 000a 0BD1     		bne	.L69
 281:screen.c      ****     {
 282:screen.c      ****         if(y0 > y1) _swap_int16_t(y0, y1);
 923              		.loc 1 282 0
 924 000c 9942     		cmp	r1, r3
 925 000e 02DD     		ble	.L70
 926 0010 0A46     		mov	r2, r1
 927              	.LVL138:
 928              	.LBB6:
 929 0012 1946     		mov	r1, r3
 930              	.LVL139:
 931 0014 1346     		mov	r3, r2
 932              	.LVL140:
 933              	.L70:
 934              	.LBE6:
 283:screen.c      ****         drawFastVLine(x0, y0, y1 - y0 + 1, color);
 935              		.loc 1 283 0
 936 0016 5A1A     		subs	r2, r3, r1
 937 0018 0132     		adds	r2, r2, #1
 938 001a 2346     		mov	r3, r4
 939              	.LVL141:
 940 001c 12B2     		sxth	r2, r2
 941 001e FFF7FEFF 		bl	drawFastVLine
 942              	.LVL142:
 943 0022 10E0     		b	.L68
 944              	.LVL143:
 945              	.L69:
 284:screen.c      ****     } 
 285:screen.c      ****     // Checks if line is horizontal
 286:screen.c      ****     else if(y0 == y1)
 946              		.loc 1 286 0
 947 0024 9942     		cmp	r1, r3
 948 0026 0BD1     		bne	.L72
 287:screen.c      ****     {
 288:screen.c      ****         if(x0 > x1) _swap_int16_t(x0, x1);
 949              		.loc 1 288 0
 950 0028 9042     		cmp	r0, r2
 951 002a 02DD     		ble	.L73
 952 002c 0346     		mov	r3, r0
 953              	.LVL144:
ARM GAS  C:\Users\legoc\AppData\Local\Temp\cchaQR7h.s 			page 23


 954              	.LBB7:
 955 002e 1046     		mov	r0, r2
 956              	.LVL145:
 957 0030 1A46     		mov	r2, r3
 958              	.LVL146:
 959              	.L73:
 960              	.LBE7:
 289:screen.c      ****         drawFastHLine(x0, y0, x1 - x0 + 1, color);
 961              		.loc 1 289 0
 962 0032 121A     		subs	r2, r2, r0
 963              	.LVL147:
 964 0034 0132     		adds	r2, r2, #1
 965 0036 2346     		mov	r3, r4
 966 0038 12B2     		sxth	r2, r2
 967 003a FFF7FEFF 		bl	drawFastHLine
 968              	.LVL148:
 969 003e 02E0     		b	.L68
 970              	.LVL149:
 971              	.L72:
 290:screen.c      ****     } 
 291:screen.c      ****     else 
 292:screen.c      ****     {
 293:screen.c      ****         write_line(x0, y0, x1, y1, color);
 972              		.loc 1 293 0
 973 0040 0094     		str	r4, [sp]
 974 0042 FFF7FEFF 		bl	write_line
 975              	.LVL150:
 976              	.L68:
 294:screen.c      ****     }
 295:screen.c      **** }
 977              		.loc 1 295 0
 978 0046 02B0     		add	sp, sp, #8
 979              		.cfi_def_cfa_offset 8
 980              		@ sp needed
 981 0048 10BD     		pop	{r4, pc}
 982              		.cfi_endproc
 983              	.LFE13:
 984              		.size	draw_line, .-draw_line
 985 004a 00BF     		.section	.text.draw_button,"ax",%progbits
 986              		.align	2
 987              		.global	draw_button
 988              		.thumb
 989              		.thumb_func
 990              		.type	draw_button, %function
 991              	draw_button:
 992              	.LFB14:
 296:screen.c      **** 
 297:screen.c      **** void draw_button(int16_t x, int16_t y, int16_t w, int16_t h, 
 298:screen.c      ****         uint16_t button_color, uint16_t text_color, char string[])
 299:screen.c      **** {
 993              		.loc 1 299 0
 994              		.cfi_startproc
 995              		@ args = 12, pretend = 0, frame = 8
 996              		@ frame_needed = 1, uses_anonymous_args = 0
 997              	.LVL151:
 998 0000 2DE9F04F 		push	{r4, r5, r6, r7, r8, r9, r10, fp, lr}
 999              		.cfi_def_cfa_offset 36
ARM GAS  C:\Users\legoc\AppData\Local\Temp\cchaQR7h.s 			page 24


 1000              		.cfi_offset 4, -36
 1001              		.cfi_offset 5, -32
 1002              		.cfi_offset 6, -28
 1003              		.cfi_offset 7, -24
 1004              		.cfi_offset 8, -20
 1005              		.cfi_offset 9, -16
 1006              		.cfi_offset 10, -12
 1007              		.cfi_offset 11, -8
 1008              		.cfi_offset 14, -4
 1009 0004 85B0     		sub	sp, sp, #20
 1010              		.cfi_def_cfa_offset 56
 1011 0006 02AF     		add	r7, sp, #8
 1012              		.cfi_def_cfa 7, 48
 1013 0008 8246     		mov	r10, r0
 1014 000a 8846     		mov	r8, r1
 1015 000c 1646     		mov	r6, r2
 1016 000e 1D46     		mov	r5, r3
 1017 0010 B7F83490 		ldrh	r9, [r7, #52]
 1018 0014 BC6B     		ldr	r4, [r7, #56]
 300:screen.c      ****     //fills in the rectangle on the screen for the button
 301:screen.c      ****     fill_rect(x,y,w,h,button_color);
 1019              		.loc 1 301 0
 1020 0016 B7F830E0 		ldrh	lr, [r7, #48]
 1021 001a CDF800E0 		str	lr, [sp]
 1022 001e FFF7FEFF 		bl	fill_rect
 1023              	.LVL152:
 302:screen.c      ****     
 303:screen.c      ****     //defines needed variables
 304:screen.c      ****     int rect_center_x = x+(w/2);
 1024              		.loc 1 304 0
 1025 0022 06EBD67E 		add	lr, r6, r6, lsr #31
 1026 0026 0AEB6E0E 		add	lr, r10, lr, asr #1
 1027              	.LVL153:
 305:screen.c      ****     int rect_center_y = y+(h/2);
 1028              		.loc 1 305 0
 1029 002a 05EBD575 		add	r5, r5, r5, lsr #31
 1030 002e 08EB6508 		add	r8, r8, r5, asr #1
 1031              	.LVL154:
 306:screen.c      ****     int string_length = 0;
 1032              		.loc 1 306 0
 1033 0032 0022     		movs	r2, #0
 307:screen.c      ****     
 308:screen.c      ****     //gets the length of the string
 309:screen.c      ****     while(*string != 0)
 1034              		.loc 1 309 0
 1035 0034 01E0     		b	.L78
 1036              	.LVL155:
 1037              	.L79:
 310:screen.c      ****     {
 311:screen.c      ****         string_length++;
 1038              		.loc 1 311 0
 1039 0036 0132     		adds	r2, r2, #1
 1040              	.LVL156:
 312:screen.c      ****         string++;
 1041              		.loc 1 312 0
 1042 0038 0134     		adds	r4, r4, #1
 1043              	.LVL157:
ARM GAS  C:\Users\legoc\AppData\Local\Temp\cchaQR7h.s 			page 25


 1044              	.L78:
 309:screen.c      ****     {
 1045              		.loc 1 309 0
 1046 003a 2378     		ldrb	r3, [r4]	@ zero_extendqisi2
 1047 003c 002B     		cmp	r3, #0
 1048 003e FAD1     		bne	.L79
 1049              	.LVL158:
 313:screen.c      ****     }
 314:screen.c      ****     
 315:screen.c      ****     char the_string[string_length+1];
 1050              		.loc 1 315 0
 1051 0040 02F10803 		add	r3, r2, #8
 1052 0044 23F00703 		bic	r3, r3, #7
 1053 0048 ADEB030D 		sub	sp, sp, r3
 1054 004c 02AB     		add	r3, sp, #8
 1055 004e 1D46     		mov	r5, r3
 1056              	.LVL159:
 316:screen.c      ****     
 317:screen.c      ****     string = string-string_length; //resets string pointer
 1057              		.loc 1 317 0
 1058 0050 A41A     		subs	r4, r4, r2
 1059              	.LVL160:
 1060              	.LBB8:
 318:screen.c      ****     
 319:screen.c      ****     //recreates the string as a character array
 320:screen.c      ****     for(int i = 0;i<string_length;i++)
 1061              		.loc 1 320 0
 1062 0052 0021     		movs	r1, #0
 1063 0054 03E0     		b	.L80
 1064              	.LVL161:
 1065              	.L81:
 321:screen.c      ****     {
 322:screen.c      ****         the_string[i] = *string;
 1066              		.loc 1 322 0 discriminator 3
 1067 0056 14F8010B 		ldrb	r0, [r4], #1	@ zero_extendqisi2
 1068              	.LVL162:
 1069 005a 6854     		strb	r0, [r5, r1]
 1070              	.LVL163:
 320:screen.c      ****     {
 1071              		.loc 1 320 0 discriminator 3
 1072 005c 0131     		adds	r1, r1, #1
 1073              	.LVL164:
 1074              	.L80:
 320:screen.c      ****     {
 1075              		.loc 1 320 0 is_stmt 0 discriminator 1
 1076 005e 8A42     		cmp	r2, r1
 1077 0060 F9DC     		bgt	.L81
 1078              	.LBE8:
 323:screen.c      ****         string++;
 324:screen.c      ****     }
 325:screen.c      ****     
 326:screen.c      ****     //adds null character to end of string
 327:screen.c      ****     the_string[string_length] = 0;
 1079              		.loc 1 327 0 is_stmt 1
 1080 0062 0021     		movs	r1, #0
 1081              	.LVL165:
 1082 0064 9954     		strb	r1, [r3, r2]
ARM GAS  C:\Users\legoc\AppData\Local\Temp\cchaQR7h.s 			page 26


 328:screen.c      ****     
 329:screen.c      ****     if(string_length*7<w)
 1083              		.loc 1 329 0
 1084 0066 C2EBC201 		rsb	r1, r2, r2, lsl #3
 1085 006a B142     		cmp	r1, r6
 1086 006c 0CDA     		bge	.L82
 1087              	.LBB9:
 330:screen.c      ****     {
 331:screen.c      ****         //gets starting x-coord. of string
 332:screen.c      ****         int pixel_start = rect_center_x - string_length*7/2 + 3;
 1088              		.loc 1 332 0
 1089 006e 01EBD171 		add	r1, r1, r1, lsr #31
 1090 0072 AEEB6100 		sub	r0, lr, r1, asr #1
 1091              	.LVL166:
 333:screen.c      ****         
 334:screen.c      ****         //prints string to center of button rectangle
 335:screen.c      ****         draw_string(pixel_start,rect_center_y-1,text_color,the_string,1);
 1092              		.loc 1 335 0
 1093 0076 0122     		movs	r2, #1
 1094              	.LVL167:
 1095 0078 0092     		str	r2, [sp]
 1096 007a 4A46     		mov	r2, r9
 1097 007c 08F1FF31 		add	r1, r8, #-1
 1098 0080 0330     		adds	r0, r0, #3
 1099              	.LVL168:
 1100 0082 FFF7FEFF 		bl	draw_string
 1101              	.LVL169:
 1102              	.LBE9:
 1103 0086 5DE0     		b	.L77
 1104              	.LVL170:
 1105              	.L82:
 336:screen.c      ****     }
 337:screen.c      ****     else if(string_length*7>w)
 1106              		.loc 1 337 0
 1107 0088 B142     		cmp	r1, r6
 1108 008a 5BDD     		ble	.L77
 1109              	.LBB10:
 338:screen.c      ****     {
 339:screen.c      ****         int button_character_width = w/7-1;
 1110              		.loc 1 339 0
 1111 008c 2F4C     		ldr	r4, .L91
 1112              	.LVL171:
 1113 008e 84FB0634 		smull	r3, r4, r4, r6
 1114              	.LVL172:
 1115 0092 3444     		add	r4, r4, r6
 1116 0094 F617     		asrs	r6, r6, #31
 1117 0096 C6EBA404 		rsb	r4, r6, r4, asr #2
 1118 009a 24B2     		sxth	r4, r4
 1119 009c 013C     		subs	r4, r4, #1
 1120              	.LVL173:
 340:screen.c      ****         
 341:screen.c      ****         while(the_string[button_character_width] != 32)
 1121              		.loc 1 341 0
 1122 009e 00E0     		b	.L84
 1123              	.L85:
 342:screen.c      ****         {
 343:screen.c      ****             button_character_width--;
ARM GAS  C:\Users\legoc\AppData\Local\Temp\cchaQR7h.s 			page 27


 1124              		.loc 1 343 0
 1125 00a0 013C     		subs	r4, r4, #1
 1126              	.LVL174:
 1127              	.L84:
 341:screen.c      ****         {
 1128              		.loc 1 341 0
 1129 00a2 2B5D     		ldrb	r3, [r5, r4]	@ zero_extendqisi2
 1130 00a4 202B     		cmp	r3, #32
 1131 00a6 FBD1     		bne	.L85
 344:screen.c      ****         }
 345:screen.c      ****         
 346:screen.c      ****         char new_string_1[button_character_width+1];
 1132              		.loc 1 346 0
 1133 00a8 04F1010B 		add	fp, r4, #1
 1134 00ac C7F804D0 		str	sp, [r7, #4]
 1135              	.LVL175:
 1136 00b0 04F10803 		add	r3, r4, #8
 1137 00b4 23F00703 		bic	r3, r3, #7
 1138 00b8 ADEB030D 		sub	sp, sp, r3
 1139 00bc 02AB     		add	r3, sp, #8
 1140 00be 9C46     		mov	ip, r3
 1141              	.LVL176:
 347:screen.c      ****         char new_string_2[string_length-button_character_width+1];
 1142              		.loc 1 347 0
 1143 00c0 121B     		subs	r2, r2, r4
 1144              	.LVL177:
 1145 00c2 511C     		adds	r1, r2, #1
 1146 00c4 3960     		str	r1, [r7]
 1147              	.LVL178:
 1148 00c6 02F10801 		add	r1, r2, #8
 1149 00ca 21F00701 		bic	r1, r1, #7
 1150 00ce ADEB010D 		sub	sp, sp, r1
 1151 00d2 0DF1080A 		add	r10, sp, #8
 1152 00d6 5046     		mov	r0, r10
 1153              	.LVL179:
 1154              	.LBB11:
 348:screen.c      ****         
 349:screen.c      ****         for(int i = 0; i<button_character_width; i++)
 1155              		.loc 1 349 0
 1156 00d8 0026     		movs	r6, #0
 1157 00da 03E0     		b	.L86
 1158              	.LVL180:
 1159              	.L87:
 350:screen.c      ****         {
 351:screen.c      ****             new_string_1[i] = the_string[i];
 1160              		.loc 1 351 0 discriminator 3
 1161 00dc A95D     		ldrb	r1, [r5, r6]	@ zero_extendqisi2
 1162 00de 0CF80610 		strb	r1, [ip, r6]
 349:screen.c      ****         {
 1163              		.loc 1 349 0 discriminator 3
 1164 00e2 0136     		adds	r6, r6, #1
 1165              	.LVL181:
 1166              	.L86:
 349:screen.c      ****         {
 1167              		.loc 1 349 0 is_stmt 0 discriminator 1
 1168 00e4 B442     		cmp	r4, r6
 1169 00e6 F9DC     		bgt	.L87
ARM GAS  C:\Users\legoc\AppData\Local\Temp\cchaQR7h.s 			page 28


 1170 00e8 0021     		movs	r1, #0
 1171 00ea 04E0     		b	.L88
 1172              	.LVL182:
 1173              	.L89:
 1174              	.LBE11:
 1175              	.LBB12:
 352:screen.c      ****         }
 353:screen.c      ****         for(int i = 0; i<string_length-button_character_width; i++)
 354:screen.c      ****         {
 355:screen.c      ****             new_string_2[i] = the_string[button_character_width+i+1];
 1176              		.loc 1 355 0 is_stmt 1 discriminator 3
 1177 00ec 6618     		adds	r6, r4, r1
 1178 00ee 0136     		adds	r6, r6, #1
 1179 00f0 AE5D     		ldrb	r6, [r5, r6]	@ zero_extendqisi2
 1180 00f2 4654     		strb	r6, [r0, r1]
 353:screen.c      ****         {
 1181              		.loc 1 353 0 discriminator 3
 1182 00f4 0131     		adds	r1, r1, #1
 1183              	.LVL183:
 1184              	.L88:
 353:screen.c      ****         {
 1185              		.loc 1 353 0 is_stmt 0 discriminator 1
 1186 00f6 9142     		cmp	r1, r2
 1187 00f8 F8DB     		blt	.L89
 1188              	.LBE12:
 356:screen.c      ****         }
 357:screen.c      ****         
 358:screen.c      ****         new_string_1[button_character_width] = 0;
 1189              		.loc 1 358 0 is_stmt 1
 1190 00fa 0021     		movs	r1, #0
 1191              	.LVL184:
 1192 00fc 1955     		strb	r1, [r3, r4]
 359:screen.c      ****         new_string_2[string_length-button_character_width] = 0;
 1193              		.loc 1 359 0
 1194 00fe 0AF80210 		strb	r1, [r10, r2]
 1195              	.LVL185:
 360:screen.c      ****         
 361:screen.c      ****         int new_string_1_length = sizeof(new_string_1)/sizeof(new_string_1[0]);
 362:screen.c      ****         int new_string_2_length = sizeof(new_string_2)/sizeof(new_string_2[0])-1;
 1196              		.loc 1 362 0
 1197 0102 3A68     		ldr	r2, [r7]
 1198              	.LVL186:
 1199 0104 541E     		subs	r4, r2, #1
 1200              	.LVL187:
 363:screen.c      ****         
 364:screen.c      ****         //gets starting x-coord. of string
 365:screen.c      ****         int pixel_start_1 = rect_center_x - new_string_1_length*7/2 + 5;
 1201              		.loc 1 365 0
 1202 0106 CBEBCB0B 		rsb	fp, fp, fp, lsl #3
 1203              	.LVL188:
 1204 010a 0BEBDB7B 		add	fp, fp, fp, lsr #31
 1205 010e AEEB6B00 		sub	r0, lr, fp, asr #1
 1206              	.LVL189:
 366:screen.c      ****         int pixel_start_2 = rect_center_x - new_string_2_length*7/2 + 4;
 1207              		.loc 1 366 0
 1208 0112 C4EBC404 		rsb	r4, r4, r4, lsl #3
 1209              	.LVL190:
ARM GAS  C:\Users\legoc\AppData\Local\Temp\cchaQR7h.s 			page 29


 1210 0116 04EBD474 		add	r4, r4, r4, lsr #31
 1211 011a AEEB6404 		sub	r4, lr, r4, asr #1
 1212 011e 0434     		adds	r4, r4, #4
 1213              	.LVL191:
 367:screen.c      ****         
 368:screen.c      ****         //prints string to center of button rectangle
 369:screen.c      ****         draw_string(pixel_start_1,rect_center_y+3,text_color,new_string_1,1);
 1214              		.loc 1 369 0
 1215 0120 0125     		movs	r5, #1
 1216              	.LVL192:
 1217 0122 0095     		str	r5, [sp]
 1218 0124 4A46     		mov	r2, r9
 1219              	.LVL193:
 1220 0126 08F10301 		add	r1, r8, #3
 1221 012a 0530     		adds	r0, r0, #5
 1222              	.LVL194:
 1223 012c FFF7FEFF 		bl	draw_string
 1224              	.LVL195:
 370:screen.c      ****         draw_string(pixel_start_2,rect_center_y-5,text_color,new_string_2,1);
 1225              		.loc 1 370 0
 1226 0130 0095     		str	r5, [sp]
 1227 0132 5346     		mov	r3, r10
 1228 0134 4A46     		mov	r2, r9
 1229 0136 A8F10501 		sub	r1, r8, #5
 1230 013a 2046     		mov	r0, r4
 1231 013c FFF7FEFF 		bl	draw_string
 1232              	.LVL196:
 1233 0140 D7F804D0 		ldr	sp, [r7, #4]
 1234              	.LVL197:
 1235              	.L77:
 1236              	.LBE10:
 371:screen.c      ****     }
 372:screen.c      **** }
 1237              		.loc 1 372 0
 1238 0144 0C37     		adds	r7, r7, #12
 1239              		.cfi_def_cfa_offset 36
 1240              	.LVL198:
 1241 0146 BD46     		mov	sp, r7
 1242              		.cfi_def_cfa_register 13
 1243              		@ sp needed
 1244 0148 BDE8F08F 		pop	{r4, r5, r6, r7, r8, r9, r10, fp, pc}
 1245              	.LVL199:
 1246              	.L92:
 1247              		.align	2
 1248              	.L91:
 1249 014c 93244992 		.word	-1840700269
 1250              		.cfi_endproc
 1251              	.LFE14:
 1252              		.size	draw_button, .-draw_button
 1253              		.global	__aeabi_i2d
 1254              		.global	__aeabi_ddiv
 1255              		.global	__aeabi_d2iz
 1256              		.section	.text.draw_coordinates,"ax",%progbits
 1257              		.align	2
 1258              		.global	draw_coordinates
 1259              		.thumb
 1260              		.thumb_func
ARM GAS  C:\Users\legoc\AppData\Local\Temp\cchaQR7h.s 			page 30


 1261              		.type	draw_coordinates, %function
 1262              	draw_coordinates:
 1263              	.LFB15:
 373:screen.c      **** 
 374:screen.c      **** void draw_coordinates(int y_max, unsigned int device_selection)
 375:screen.c      **** {
 1264              		.loc 1 375 0
 1265              		.cfi_startproc
 1266              		@ args = 0, pretend = 0, frame = 24
 1267              		@ frame_needed = 0, uses_anonymous_args = 0
 1268              	.LVL200:
 1269 0000 2DE9F041 		push	{r4, r5, r6, r7, r8, lr}
 1270              		.cfi_def_cfa_offset 24
 1271              		.cfi_offset 4, -24
 1272              		.cfi_offset 5, -20
 1273              		.cfi_offset 6, -16
 1274              		.cfi_offset 7, -12
 1275              		.cfi_offset 8, -8
 1276              		.cfi_offset 14, -4
 1277 0004 8AB0     		sub	sp, sp, #40
 1278              		.cfi_def_cfa_offset 64
 1279 0006 0746     		mov	r7, r0
 1280 0008 0C46     		mov	r4, r1
 376:screen.c      ****     fill_screen(BLACK);
 1281              		.loc 1 376 0
 1282 000a 0020     		movs	r0, #0
 1283              	.LVL201:
 1284 000c FFF7FEFF 		bl	fill_screen
 1285              	.LVL202:
 377:screen.c      ****     
 378:screen.c      ****     int y_max_pixel = (int) ((0.8)*240);
 379:screen.c      ****     int five_mA_pixel = (int) (y_max_pixel*5.0/y_max);
 1286              		.loc 1 379 0
 1287 0010 3846     		mov	r0, r7
 1288 0012 FFF7FEFF 		bl	__aeabi_i2d
 1289              	.LVL203:
 1290 0016 0246     		mov	r2, r0
 1291 0018 0B46     		mov	r3, r1
 1292 001a 0020     		movs	r0, #0
 1293 001c 4F49     		ldr	r1, .L103
 1294 001e FFF7FEFF 		bl	__aeabi_ddiv
 1295              	.LVL204:
 1296 0022 FFF7FEFF 		bl	__aeabi_d2iz
 1297              	.LVL205:
 1298 0026 0646     		mov	r6, r0
 1299              	.LVL206:
 380:screen.c      ****     int y_label;
 381:screen.c      ****     int x_label;
 382:screen.c      ****     char string_throwaway_y[10];
 383:screen.c      ****     char string_throwaway_x[4]; //= NULL;
 384:screen.c      ****     //string_print = malloc(sizeof(**string_print)*3);
 385:screen.c      ****     int x_max_step;
 386:screen.c      ****     int i;
 387:screen.c      ****     int k;
 388:screen.c      ****     draw_line(30,10,220,10,WHITE); //draw x axis line
 1300              		.loc 1 388 0
 1301 0028 4FF6FF75 		movw	r5, #65535
ARM GAS  C:\Users\legoc\AppData\Local\Temp\cchaQR7h.s 			page 31


 1302 002c 0095     		str	r5, [sp]
 1303 002e 0A23     		movs	r3, #10
 1304 0030 DC22     		movs	r2, #220
 1305 0032 1946     		mov	r1, r3
 1306 0034 1E20     		movs	r0, #30
 1307              	.LVL207:
 1308 0036 FFF7FEFF 		bl	draw_line
 1309              	.LVL208:
 389:screen.c      ****     draw_line(30,10,30,y_max_pixel+9,WHITE);//draw y axis line
 1310              		.loc 1 389 0
 1311 003a 0095     		str	r5, [sp]
 1312 003c C923     		movs	r3, #201
 1313 003e 1E22     		movs	r2, #30
 1314 0040 0A21     		movs	r1, #10
 1315 0042 1046     		mov	r0, r2
 1316 0044 FFF7FEFF 		bl	draw_line
 1317              	.LVL209:
 390:screen.c      ****     
 391:screen.c      ****     if(device_selection < 2)
 1318              		.loc 1 391 0
 1319 0048 012C     		cmp	r4, #1
 1320 004a 01D8     		bhi	.L101
 392:screen.c      ****     {
 393:screen.c      ****         x_max_step = 189/9;
 1321              		.loc 1 393 0
 1322 004c 1525     		movs	r5, #21
 1323 004e 00E0     		b	.L94
 1324              	.L101:
 394:screen.c      ****     }
 395:screen.c      ****     else
 396:screen.c      ****     {
 397:screen.c      ****         x_max_step = 189/15;
 1325              		.loc 1 397 0
 1326 0050 0C25     		movs	r5, #12
 1327              	.L94:
 1328              	.LVL210:
 398:screen.c      ****     }
 399:screen.c      ****     
 400:screen.c      ****     if((device_selection%2) == 0)
 1329              		.loc 1 400 0
 1330 0052 14F0010F 		tst	r4, #1
 1331 0056 12D1     		bne	.L95
 1332              	.LBB13:
 401:screen.c      ****     {
 402:screen.c      ****         draw_string(230,4,WHITE,"VDS V",1);
 1333              		.loc 1 402 0
 1334 0058 0124     		movs	r4, #1
 1335              	.LVL211:
 1336 005a 0094     		str	r4, [sp]
 1337 005c 404B     		ldr	r3, .L103+4
 1338 005e 4FF6FF72 		movw	r2, #65535
 1339 0062 0421     		movs	r1, #4
 1340 0064 E620     		movs	r0, #230
 1341 0066 FFF7FEFF 		bl	draw_string
 1342              	.LVL212:
 403:screen.c      ****         draw_string(3,y_max_pixel + 25,WHITE,"ID MIL A",1);
 1343              		.loc 1 403 0
ARM GAS  C:\Users\legoc\AppData\Local\Temp\cchaQR7h.s 			page 32


 1344 006a 0094     		str	r4, [sp]
 1345 006c 3D4B     		ldr	r3, .L103+8
 1346 006e 4FF6FF72 		movw	r2, #65535
 1347 0072 D921     		movs	r1, #217
 1348 0074 0320     		movs	r0, #3
 1349 0076 FFF7FEFF 		bl	draw_string
 1350              	.LVL213:
 1351              	.L97:
 1352              	.LBE13:
 397:screen.c      ****     }
 1353              		.loc 1 397 0 discriminator 1
 1354 007a 0124     		movs	r4, #1
 1355 007c 2DE0     		b	.L96
 1356              	.LVL214:
 1357              	.L95:
 1358              	.LBB14:
 404:screen.c      ****     }
 405:screen.c      ****     else
 406:screen.c      ****     {
 407:screen.c      ****         draw_string(230,4,WHITE,"VCE V",1);
 1359              		.loc 1 407 0
 1360 007e 0124     		movs	r4, #1
 1361              	.LVL215:
 1362 0080 0094     		str	r4, [sp]
 1363 0082 394B     		ldr	r3, .L103+12
 1364 0084 4FF6FF72 		movw	r2, #65535
 1365 0088 0421     		movs	r1, #4
 1366 008a E620     		movs	r0, #230
 1367 008c FFF7FEFF 		bl	draw_string
 1368              	.LVL216:
 408:screen.c      ****         draw_string(3,y_max_pixel+ 25,WHITE,"IC MIL A",1);
 1369              		.loc 1 408 0
 1370 0090 0094     		str	r4, [sp]
 1371 0092 364B     		ldr	r3, .L103+16
 1372 0094 4FF6FF72 		movw	r2, #65535
 1373 0098 D921     		movs	r1, #217
 1374 009a 0320     		movs	r0, #3
 1375 009c FFF7FEFF 		bl	draw_string
 1376              	.LVL217:
 1377 00a0 EBE7     		b	.L97
 1378              	.LVL218:
 1379              	.L98:
 1380              	.LBE14:
 1381              	.LBB15:
 409:screen.c      ****     }
 410:screen.c      ****     
 411:screen.c      ****     for(i=1; 5*i <= y_max ;i++)
 412:screen.c      ****     {
 413:screen.c      ****         y_label =  5 * i;
 414:screen.c      ****         sprintf(string_throwaway_y,"%d", y_label);
 1382              		.loc 1 414 0 discriminator 3
 1383 00a2 3349     		ldr	r1, .L103+20
 1384 00a4 07A8     		add	r0, sp, #28
 1385 00a6 FFF7FEFF 		bl	sprintf
 1386              	.LVL219:
 415:screen.c      ****         
 416:screen.c      ****         draw_line(30,i*five_mA_pixel+10,220,i*five_mA_pixel+10,WHITE);//draw y major 
ARM GAS  C:\Users\legoc\AppData\Local\Temp\cchaQR7h.s 			page 33


 1387              		.loc 1 416 0 discriminator 3
 1388 00aa 04FB06F1 		mul	r1, r4, r6
 1389 00ae 0A31     		adds	r1, r1, #10
 1390 00b0 09B2     		sxth	r1, r1
 1391 00b2 4FF6FF78 		movw	r8, #65535
 1392 00b6 CDF80080 		str	r8, [sp]
 1393 00ba 0B46     		mov	r3, r1
 1394 00bc DC22     		movs	r2, #220
 1395 00be 1E20     		movs	r0, #30
 1396 00c0 FFF7FEFF 		bl	draw_line
 1397              	.LVL220:
 417:screen.c      ****         draw_string(3,i*five_mA_pixel+10,WHITE,string_throwaway_y,1);//draw y major label
 1398              		.loc 1 417 0 discriminator 3
 1399 00c4 06FB04F1 		mul	r1, r6, r4
 1400 00c8 0123     		movs	r3, #1
 1401 00ca 0093     		str	r3, [sp]
 1402 00cc 07AB     		add	r3, sp, #28
 1403 00ce 4246     		mov	r2, r8
 1404 00d0 0A31     		adds	r1, r1, #10
 1405 00d2 0320     		movs	r0, #3
 1406 00d4 FFF7FEFF 		bl	draw_string
 1407              	.LVL221:
 1408              	.LBE15:
 411:screen.c      ****     {
 1409              		.loc 1 411 0 discriminator 3
 1410 00d8 0134     		adds	r4, r4, #1
 1411              	.LVL222:
 1412              	.L96:
 411:screen.c      ****     {
 1413              		.loc 1 411 0 is_stmt 0 discriminator 1
 1414 00da 04EB8402 		add	r2, r4, r4, lsl #2
 1415 00de 9742     		cmp	r7, r2
 1416 00e0 DFDA     		bge	.L98
 1417 00e2 0124     		movs	r4, #1
 1418              	.LVL223:
 1419 00e4 1BE0     		b	.L99
 1420              	.LVL224:
 1421              	.L100:
 1422              	.LBB16:
 418:screen.c      ****         
 419:screen.c      ****     }
 420:screen.c      ****     
 421:screen.c      ****     for(i = 1; i <= 189/x_max_step; i++)
 422:screen.c      ****     {
 423:screen.c      ****         sprintf(string_throwaway_x,"%i", i);
 1423              		.loc 1 423 0 is_stmt 1 discriminator 3
 1424 00e6 2246     		mov	r2, r4
 1425 00e8 2249     		ldr	r1, .L103+24
 1426 00ea 06A8     		add	r0, sp, #24
 1427 00ec FFF7FEFF 		bl	sprintf
 1428              	.LVL225:
 424:screen.c      ****         draw_line(i*x_max_step+30,10,i*x_max_step+30,y_max_pixel+10,WHITE);//draw x major
 1429              		.loc 1 424 0 discriminator 3
 1430 00f0 04FB05F0 		mul	r0, r4, r5
 1431 00f4 1E30     		adds	r0, r0, #30
 1432 00f6 00B2     		sxth	r0, r0
 1433 00f8 4FF6FF76 		movw	r6, #65535
ARM GAS  C:\Users\legoc\AppData\Local\Temp\cchaQR7h.s 			page 34


 1434 00fc 0096     		str	r6, [sp]
 1435 00fe CA23     		movs	r3, #202
 1436 0100 0246     		mov	r2, r0
 1437 0102 0A21     		movs	r1, #10
 1438 0104 FFF7FEFF 		bl	draw_line
 1439              	.LVL226:
 425:screen.c      ****         draw_string(i*x_max_step+30,4,WHITE,string_throwaway_x,1);//draw x major label
 1440              		.loc 1 425 0 discriminator 3
 1441 0108 04FB05F0 		mul	r0, r4, r5
 1442 010c 0123     		movs	r3, #1
 1443 010e 0093     		str	r3, [sp]
 1444 0110 06AB     		add	r3, sp, #24
 1445 0112 3246     		mov	r2, r6
 1446 0114 0421     		movs	r1, #4
 1447 0116 1E30     		adds	r0, r0, #30
 1448 0118 FFF7FEFF 		bl	draw_string
 1449              	.LVL227:
 1450              	.LBE16:
 421:screen.c      ****     {
 1451              		.loc 1 421 0 discriminator 3
 1452 011c 0134     		adds	r4, r4, #1
 1453              	.LVL228:
 1454              	.L99:
 421:screen.c      ****     {
 1455              		.loc 1 421 0 is_stmt 0 discriminator 1
 1456 011e BD23     		movs	r3, #189
 1457 0120 93FBF5F3 		sdiv	r3, r3, r5
 1458 0124 9C42     		cmp	r4, r3
 1459 0126 DEDD     		ble	.L100
 426:screen.c      ****     }
 427:screen.c      ****     
 428:screen.c      ****     //DO NOT TOUCH! without having the string be separate from
 429:screen.c      ****     //the draw_button function, it will write "STOPH"
 430:screen.c      ****     char temp[] = "STOP";
 1460              		.loc 1 430 0 is_stmt 1
 1461 0128 134B     		ldr	r3, .L103+28
 1462 012a 93E80300 		ldmia	r3, {r0, r1}
 1463 012e 0490     		str	r0, [sp, #16]
 1464 0130 8DF81410 		strb	r1, [sp, #20]
 431:screen.c      ****     
 432:screen.c      ****     draw_button(130,209,60,30,RED,BLACK,temp);
 1465              		.loc 1 432 0
 1466 0134 04AB     		add	r3, sp, #16
 1467 0136 0293     		str	r3, [sp, #8]
 1468 0138 0023     		movs	r3, #0
 1469 013a 0193     		str	r3, [sp, #4]
 1470 013c 4FF47843 		mov	r3, #63488
 1471 0140 0093     		str	r3, [sp]
 1472 0142 1E23     		movs	r3, #30
 1473 0144 3C22     		movs	r2, #60
 1474 0146 D121     		movs	r1, #209
 1475 0148 8220     		movs	r0, #130
 1476 014a FFF7FEFF 		bl	draw_button
 1477              	.LVL229:
 433:screen.c      ****         
 434:screen.c      ****     screen_state = PLOT_SCREEN;   //sets screen state to graph screen
 1478              		.loc 1 434 0
ARM GAS  C:\Users\legoc\AppData\Local\Temp\cchaQR7h.s 			page 35


 1479 014e 0222     		movs	r2, #2
 1480 0150 0A4B     		ldr	r3, .L103+32
 1481 0152 1A60     		str	r2, [r3]
 435:screen.c      **** }
 1482              		.loc 1 435 0
 1483 0154 0AB0     		add	sp, sp, #40
 1484              		.cfi_def_cfa_offset 24
 1485              		@ sp needed
 1486 0156 BDE8F081 		pop	{r4, r5, r6, r7, r8, pc}
 1487              	.LVL230:
 1488              	.L104:
 1489 015a 00BF     		.align	2
 1490              	.L103:
 1491 015c 00008E40 		.word	1083047936
 1492 0160 00000000 		.word	.LC0
 1493 0164 08000000 		.word	.LC1
 1494 0168 14000000 		.word	.LC2
 1495 016c 1C000000 		.word	.LC3
 1496 0170 28000000 		.word	.LC4
 1497 0174 2C000000 		.word	.LC5
 1498 0178 30000000 		.word	.LC6
 1499 017c 00000000 		.word	screen_state
 1500              		.cfi_endproc
 1501              	.LFE15:
 1502              		.size	draw_coordinates, .-draw_coordinates
 1503              		.section	.text.draw_choose_screen,"ax",%progbits
 1504              		.align	2
 1505              		.global	draw_choose_screen
 1506              		.thumb
 1507              		.thumb_func
 1508              		.type	draw_choose_screen, %function
 1509              	draw_choose_screen:
 1510              	.LFB16:
 436:screen.c      **** 
 437:screen.c      **** void draw_choose_screen()
 438:screen.c      **** {
 1511              		.loc 1 438 0
 1512              		.cfi_startproc
 1513              		@ args = 0, pretend = 0, frame = 0
 1514              		@ frame_needed = 0, uses_anonymous_args = 0
 1515 0000 30B5     		push	{r4, r5, lr}
 1516              		.cfi_def_cfa_offset 12
 1517              		.cfi_offset 4, -12
 1518              		.cfi_offset 5, -8
 1519              		.cfi_offset 14, -4
 1520 0002 85B0     		sub	sp, sp, #20
 1521              		.cfi_def_cfa_offset 32
 439:screen.c      ****     screen_state = DEVICE_SELECTION_SCREEN;
 1522              		.loc 1 439 0
 1523 0004 0024     		movs	r4, #0
 1524 0006 314B     		ldr	r3, .L107
 1525 0008 1C60     		str	r4, [r3]
 440:screen.c      ****     
 441:screen.c      ****     //fills in background color
 442:screen.c      ****     fill_rect(0,0,160,240,BLUE);
 1526              		.loc 1 442 0
 1527 000a 1F23     		movs	r3, #31
ARM GAS  C:\Users\legoc\AppData\Local\Temp\cchaQR7h.s 			page 36


 1528 000c 0093     		str	r3, [sp]
 1529 000e F023     		movs	r3, #240
 1530 0010 A022     		movs	r2, #160
 1531 0012 2146     		mov	r1, r4
 1532 0014 2046     		mov	r0, r4
 1533 0016 FFF7FEFF 		bl	fill_rect
 1534              	.LVL231:
 443:screen.c      ****     fill_rect(160,0,160,240,RED);
 1535              		.loc 1 443 0
 1536 001a 4FF47843 		mov	r3, #63488
 1537 001e 0093     		str	r3, [sp]
 1538 0020 F023     		movs	r3, #240
 1539 0022 A022     		movs	r2, #160
 1540 0024 2146     		mov	r1, r4
 1541 0026 1046     		mov	r0, r2
 1542 0028 FFF7FEFF 		bl	fill_rect
 1543              	.LVL232:
 444:screen.c      ****     
 445:screen.c      ****     //creates lines to separate buttons
 446:screen.c      ****     fill_rect(159,0,2,240,BLACK);
 1544              		.loc 1 446 0
 1545 002c 0094     		str	r4, [sp]
 1546 002e F023     		movs	r3, #240
 1547 0030 0222     		movs	r2, #2
 1548 0032 2146     		mov	r1, r4
 1549 0034 9F20     		movs	r0, #159
 1550 0036 FFF7FEFF 		bl	fill_rect
 1551              	.LVL233:
 447:screen.c      ****     fill_rect(0,119,320,2,BLACK);
 1552              		.loc 1 447 0
 1553 003a 0094     		str	r4, [sp]
 1554 003c 0223     		movs	r3, #2
 1555 003e 4FF4A072 		mov	r2, #320
 1556 0042 7721     		movs	r1, #119
 1557 0044 2046     		mov	r0, r4
 1558 0046 FFF7FEFF 		bl	fill_rect
 1559              	.LVL234:
 448:screen.c      ****     
 449:screen.c      ****     //center background colors
 450:screen.c      ****     fill_rect(33,109,252,22,BLACK);
 1560              		.loc 1 450 0
 1561 004a 0094     		str	r4, [sp]
 1562 004c 1623     		movs	r3, #22
 1563 004e FC22     		movs	r2, #252
 1564 0050 6D21     		movs	r1, #109
 1565 0052 2120     		movs	r0, #33
 1566 0054 FFF7FEFF 		bl	fill_rect
 1567              	.LVL235:
 451:screen.c      ****     
 452:screen.c      ****     //draws buttons
 453:screen.c      ****     draw_button(35,111,248,18,WHITE,BLACK,"CHOOSE A SEMICONDUCTOR TYPE");
 1568              		.loc 1 453 0
 1569 0058 1D4B     		ldr	r3, .L107+4
 1570 005a 0293     		str	r3, [sp, #8]
 1571 005c 0194     		str	r4, [sp, #4]
 1572 005e 4FF6FF73 		movw	r3, #65535
 1573 0062 0093     		str	r3, [sp]
ARM GAS  C:\Users\legoc\AppData\Local\Temp\cchaQR7h.s 			page 37


 1574 0064 1223     		movs	r3, #18
 1575 0066 F822     		movs	r2, #248
 1576 0068 6F21     		movs	r1, #111
 1577 006a 2320     		movs	r0, #35
 1578 006c FFF7FEFF 		bl	draw_button
 1579              	.LVL236:
 454:screen.c      ****     draw_button(10,10,139,99,LIGHTBLUE,BLACK,"N TYPE FET");
 1580              		.loc 1 454 0
 1581 0070 184B     		ldr	r3, .L107+8
 1582 0072 0293     		str	r3, [sp, #8]
 1583 0074 0194     		str	r4, [sp, #4]
 1584 0076 49F69F65 		movw	r5, #40607
 1585 007a 0095     		str	r5, [sp]
 1586 007c 6323     		movs	r3, #99
 1587 007e 8B22     		movs	r2, #139
 1588 0080 0A21     		movs	r1, #10
 1589 0082 0846     		mov	r0, r1
 1590 0084 FFF7FEFF 		bl	draw_button
 1591              	.LVL237:
 455:screen.c      ****     draw_button(10,131,139,99,LIGHTBLUE,BLACK,"NPN BJT");
 1592              		.loc 1 455 0
 1593 0088 134B     		ldr	r3, .L107+12
 1594 008a 0293     		str	r3, [sp, #8]
 1595 008c 0194     		str	r4, [sp, #4]
 1596 008e 0095     		str	r5, [sp]
 1597 0090 6323     		movs	r3, #99
 1598 0092 8B22     		movs	r2, #139
 1599 0094 8321     		movs	r1, #131
 1600 0096 0A20     		movs	r0, #10
 1601 0098 FFF7FEFF 		bl	draw_button
 1602              	.LVL238:
 456:screen.c      ****     draw_button(171,10,139,99,LIGHTRED,BLACK,"P TYPE FET");
 1603              		.loc 1 456 0
 1604 009c 0F4B     		ldr	r3, .L107+16
 1605 009e 0293     		str	r3, [sp, #8]
 1606 00a0 0194     		str	r4, [sp, #4]
 1607 00a2 4FF6F345 		movw	r5, #64755
 1608 00a6 0095     		str	r5, [sp]
 1609 00a8 6323     		movs	r3, #99
 1610 00aa 8B22     		movs	r2, #139
 1611 00ac 0A21     		movs	r1, #10
 1612 00ae AB20     		movs	r0, #171
 1613 00b0 FFF7FEFF 		bl	draw_button
 1614              	.LVL239:
 457:screen.c      ****     draw_button(171,131,139,99,LIGHTRED,BLACK,"PNP BJT");
 1615              		.loc 1 457 0
 1616 00b4 0A4B     		ldr	r3, .L107+20
 1617 00b6 0293     		str	r3, [sp, #8]
 1618 00b8 0194     		str	r4, [sp, #4]
 1619 00ba 0095     		str	r5, [sp]
 1620 00bc 6323     		movs	r3, #99
 1621 00be 8B22     		movs	r2, #139
 1622 00c0 8321     		movs	r1, #131
 1623 00c2 AB20     		movs	r0, #171
 1624 00c4 FFF7FEFF 		bl	draw_button
 1625              	.LVL240:
 458:screen.c      **** }
ARM GAS  C:\Users\legoc\AppData\Local\Temp\cchaQR7h.s 			page 38


 1626              		.loc 1 458 0
 1627 00c8 05B0     		add	sp, sp, #20
 1628              		.cfi_def_cfa_offset 12
 1629              		@ sp needed
 1630 00ca 30BD     		pop	{r4, r5, pc}
 1631              	.L108:
 1632              		.align	2
 1633              	.L107:
 1634 00cc 00000000 		.word	screen_state
 1635 00d0 38000000 		.word	.LC7
 1636 00d4 54000000 		.word	.LC8
 1637 00d8 60000000 		.word	.LC9
 1638 00dc 68000000 		.word	.LC10
 1639 00e0 74000000 		.word	.LC11
 1640              		.cfi_endproc
 1641              	.LFE16:
 1642              		.size	draw_choose_screen, .-draw_choose_screen
 1643              		.section	.text.draw_options_screen,"ax",%progbits
 1644              		.align	2
 1645              		.global	draw_options_screen
 1646              		.thumb
 1647              		.thumb_func
 1648              		.type	draw_options_screen, %function
 1649              	draw_options_screen:
 1650              	.LFB17:
 459:screen.c      **** 
 460:screen.c      **** void draw_options_screen()
 461:screen.c      **** {
 1651              		.loc 1 461 0
 1652              		.cfi_startproc
 1653              		@ args = 0, pretend = 0, frame = 104
 1654              		@ frame_needed = 0, uses_anonymous_args = 0
 1655 0000 70B5     		push	{r4, r5, r6, lr}
 1656              		.cfi_def_cfa_offset 16
 1657              		.cfi_offset 4, -16
 1658              		.cfi_offset 5, -12
 1659              		.cfi_offset 6, -8
 1660              		.cfi_offset 14, -4
 1661 0002 9EB0     		sub	sp, sp, #120
 1662              		.cfi_def_cfa_offset 136
 462:screen.c      ****     screen_state = OPTIONS_SCREEN;
 1663              		.loc 1 462 0
 1664 0004 0122     		movs	r2, #1
 1665 0006 434B     		ldr	r3, .L111
 1666 0008 1A60     		str	r2, [r3]
 463:screen.c      ****     
 464:screen.c      ****     //need temp variables for strings otherwise it reads
 465:screen.c      ****     //into the next string upon returning from an option screen
 466:screen.c      ****     char temp1[] = "NUMBER OF AVERAGES";
 1667              		.loc 1 466 0
 1668 000a 19AC     		add	r4, sp, #100
 1669 000c 424D     		ldr	r5, .L111+4
 1670 000e 0FCD     		ldmia	r5!, {r0, r1, r2, r3}
 1671 0010 0FC4     		stmia	r4!, {r0, r1, r2, r3}
 1672 0012 2B68     		ldr	r3, [r5]
 1673 0014 24F8023B 		strh	r3, [r4], #2	@ movhi
 1674 0018 1B0C     		lsrs	r3, r3, #16
ARM GAS  C:\Users\legoc\AppData\Local\Temp\cchaQR7h.s 			page 39


 1675 001a 2370     		strb	r3, [r4]
 467:screen.c      ****     char temp2[] = "SD CARD OPTIONS";
 1676              		.loc 1 467 0
 1677 001c 3F4B     		ldr	r3, .L111+8
 1678 001e 15AE     		add	r6, sp, #84
 1679 0020 0FCB     		ldmia	r3, {r0, r1, r2, r3}
 1680 0022 86E80F00 		stmia	r6, {r0, r1, r2, r3}
 468:screen.c      ****     char temp3[] = "NUMBER OF CURVES";
 1681              		.loc 1 468 0
 1682 0026 10AC     		add	r4, sp, #64
 1683 0028 3D4D     		ldr	r5, .L111+12
 1684 002a 0FCD     		ldmia	r5!, {r0, r1, r2, r3}
 1685 002c 0FC4     		stmia	r4!, {r0, r1, r2, r3}
 1686 002e 2B68     		ldr	r3, [r5]
 1687 0030 2370     		strb	r3, [r4]
 469:screen.c      ****     char temp4[] = "SETTLING TIME OPTIONS";
 1688              		.loc 1 469 0
 1689 0032 0AAC     		add	r4, sp, #40
 1690 0034 3B4D     		ldr	r5, .L111+16
 1691 0036 0FCD     		ldmia	r5!, {r0, r1, r2, r3}
 1692 0038 0FC4     		stmia	r4!, {r0, r1, r2, r3}
 1693 003a 95E80300 		ldmia	r5, {r0, r1}
 1694 003e 44F8040B 		str	r0, [r4], #4
 1695 0042 2180     		strh	r1, [r4]	@ movhi
 470:screen.c      ****     char temp5[] = "RETURN";
 1696              		.loc 1 470 0
 1697 0044 384B     		ldr	r3, .L111+20
 1698 0046 93E80300 		ldmia	r3, {r0, r1}
 1699 004a 0890     		str	r0, [sp, #32]
 1700 004c ADF82410 		strh	r1, [sp, #36]	@ movhi
 1701 0050 090C     		lsrs	r1, r1, #16
 1702 0052 8DF82610 		strb	r1, [sp, #38]
 471:screen.c      ****     char temp6[] = "RUN TEST";
 1703              		.loc 1 471 0
 1704 0056 354A     		ldr	r2, .L111+24
 1705 0058 05AB     		add	r3, sp, #20
 1706 005a 07CA     		ldmia	r2, {r0, r1, r2}
 1707 005c 03C3     		stmia	r3!, {r0, r1}
 1708 005e 1A70     		strb	r2, [r3]
 472:screen.c      ****     
 473:screen.c      ****     //draws buttons
 474:screen.c      ****     draw_button(0,0,119,119,LIGHTBLUE,BLACK,temp1);
 1709              		.loc 1 474 0
 1710 0060 19AB     		add	r3, sp, #100
 1711 0062 0293     		str	r3, [sp, #8]
 1712 0064 0024     		movs	r4, #0
 1713 0066 0194     		str	r4, [sp, #4]
 1714 0068 49F69F65 		movw	r5, #40607
 1715 006c 0095     		str	r5, [sp]
 1716 006e 7723     		movs	r3, #119
 1717 0070 1A46     		mov	r2, r3
 1718 0072 2146     		mov	r1, r4
 1719 0074 2046     		mov	r0, r4
 1720 0076 FFF7FEFF 		bl	draw_button
 1721              	.LVL241:
 475:screen.c      ****     draw_button(0,121,119,119,LIGHTRED,BLACK,temp2);
 1722              		.loc 1 475 0
ARM GAS  C:\Users\legoc\AppData\Local\Temp\cchaQR7h.s 			page 40


 1723 007a 0296     		str	r6, [sp, #8]
 1724 007c 0194     		str	r4, [sp, #4]
 1725 007e 4FF6F346 		movw	r6, #64755
 1726 0082 0096     		str	r6, [sp]
 1727 0084 7723     		movs	r3, #119
 1728 0086 1A46     		mov	r2, r3
 1729 0088 7921     		movs	r1, #121
 1730 008a 2046     		mov	r0, r4
 1731 008c FFF7FEFF 		bl	draw_button
 1732              	.LVL242:
 476:screen.c      ****     draw_button(121,0,119,119,LIGHTRED,BLACK,temp3);
 1733              		.loc 1 476 0
 1734 0090 10AB     		add	r3, sp, #64
 1735 0092 0293     		str	r3, [sp, #8]
 1736 0094 0194     		str	r4, [sp, #4]
 1737 0096 0096     		str	r6, [sp]
 1738 0098 7723     		movs	r3, #119
 1739 009a 1A46     		mov	r2, r3
 1740 009c 2146     		mov	r1, r4
 1741 009e 7920     		movs	r0, #121
 1742 00a0 FFF7FEFF 		bl	draw_button
 1743              	.LVL243:
 477:screen.c      ****     draw_button(121,121,119,119,LIGHTBLUE,BLACK,temp4);
 1744              		.loc 1 477 0
 1745 00a4 0AAB     		add	r3, sp, #40
 1746 00a6 0293     		str	r3, [sp, #8]
 1747 00a8 0194     		str	r4, [sp, #4]
 1748 00aa 0095     		str	r5, [sp]
 1749 00ac 7723     		movs	r3, #119
 1750 00ae 1A46     		mov	r2, r3
 1751 00b0 7921     		movs	r1, #121
 1752 00b2 0846     		mov	r0, r1
 1753 00b4 FFF7FEFF 		bl	draw_button
 1754              	.LVL244:
 478:screen.c      ****     
 479:screen.c      ****     draw_button(241,0,79,119,WHITE,BLACK,temp5);
 1755              		.loc 1 479 0
 1756 00b8 08AB     		add	r3, sp, #32
 1757 00ba 0293     		str	r3, [sp, #8]
 1758 00bc 0194     		str	r4, [sp, #4]
 1759 00be 4FF6FF75 		movw	r5, #65535
 1760 00c2 0095     		str	r5, [sp]
 1761 00c4 7723     		movs	r3, #119
 1762 00c6 4F22     		movs	r2, #79
 1763 00c8 2146     		mov	r1, r4
 1764 00ca F120     		movs	r0, #241
 1765 00cc FFF7FEFF 		bl	draw_button
 1766              	.LVL245:
 480:screen.c      ****     draw_button(241,121,79,119,WHITE,BLACK,temp6);
 1767              		.loc 1 480 0
 1768 00d0 05AB     		add	r3, sp, #20
 1769 00d2 0293     		str	r3, [sp, #8]
 1770 00d4 0194     		str	r4, [sp, #4]
 1771 00d6 0095     		str	r5, [sp]
 1772 00d8 7723     		movs	r3, #119
 1773 00da 4F22     		movs	r2, #79
 1774 00dc 7921     		movs	r1, #121
ARM GAS  C:\Users\legoc\AppData\Local\Temp\cchaQR7h.s 			page 41


 1775 00de F120     		movs	r0, #241
 1776 00e0 FFF7FEFF 		bl	draw_button
 1777              	.LVL246:
 481:screen.c      ****     
 482:screen.c      ****     //creates lines to separate buttons
 483:screen.c      ****     fill_rect(119,0,2,240,BLACK);
 1778              		.loc 1 483 0
 1779 00e4 0094     		str	r4, [sp]
 1780 00e6 F023     		movs	r3, #240
 1781 00e8 0222     		movs	r2, #2
 1782 00ea 2146     		mov	r1, r4
 1783 00ec 7720     		movs	r0, #119
 1784 00ee FFF7FEFF 		bl	fill_rect
 1785              	.LVL247:
 484:screen.c      ****     fill_rect(0,119,320,2,BLACK);
 1786              		.loc 1 484 0
 1787 00f2 0094     		str	r4, [sp]
 1788 00f4 0223     		movs	r3, #2
 1789 00f6 4FF4A072 		mov	r2, #320
 1790 00fa 7721     		movs	r1, #119
 1791 00fc 2046     		mov	r0, r4
 1792 00fe FFF7FEFF 		bl	fill_rect
 1793              	.LVL248:
 485:screen.c      ****     fill_rect(239,0,2,240,BLACK);
 1794              		.loc 1 485 0
 1795 0102 0094     		str	r4, [sp]
 1796 0104 F023     		movs	r3, #240
 1797 0106 0222     		movs	r2, #2
 1798 0108 2146     		mov	r1, r4
 1799 010a EF20     		movs	r0, #239
 1800 010c FFF7FEFF 		bl	fill_rect
 1801              	.LVL249:
 486:screen.c      **** }
 1802              		.loc 1 486 0
 1803 0110 1EB0     		add	sp, sp, #120
 1804              		.cfi_def_cfa_offset 16
 1805              		@ sp needed
 1806 0112 70BD     		pop	{r4, r5, r6, pc}
 1807              	.L112:
 1808              		.align	2
 1809              	.L111:
 1810 0114 00000000 		.word	screen_state
 1811 0118 7C000000 		.word	.LC12
 1812 011c 90000000 		.word	.LC13
 1813 0120 A0000000 		.word	.LC14
 1814 0124 B4000000 		.word	.LC15
 1815 0128 CC000000 		.word	.LC16
 1816 012c D4000000 		.word	.LC17
 1817              		.cfi_endproc
 1818              	.LFE17:
 1819              		.size	draw_options_screen, .-draw_options_screen
 1820              		.section	.text.draw_options_averages_screen,"ax",%progbits
 1821              		.align	2
 1822              		.global	draw_options_averages_screen
 1823              		.thumb
 1824              		.thumb_func
 1825              		.type	draw_options_averages_screen, %function
ARM GAS  C:\Users\legoc\AppData\Local\Temp\cchaQR7h.s 			page 42


 1826              	draw_options_averages_screen:
 1827              	.LFB18:
 487:screen.c      **** 
 488:screen.c      **** void draw_options_averages_screen()
 489:screen.c      **** {
 1828              		.loc 1 489 0
 1829              		.cfi_startproc
 1830              		@ args = 0, pretend = 0, frame = 8
 1831              		@ frame_needed = 0, uses_anonymous_args = 0
 1832 0000 70B5     		push	{r4, r5, r6, lr}
 1833              		.cfi_def_cfa_offset 16
 1834              		.cfi_offset 4, -16
 1835              		.cfi_offset 5, -12
 1836              		.cfi_offset 6, -8
 1837              		.cfi_offset 14, -4
 1838 0002 86B0     		sub	sp, sp, #24
 1839              		.cfi_def_cfa_offset 40
 490:screen.c      ****     screen_state = OPTION_AVERAGES_SCREEN;
 1840              		.loc 1 490 0
 1841 0004 0322     		movs	r2, #3
 1842 0006 374B     		ldr	r3, .L115
 1843 0008 1A60     		str	r2, [r3]
 491:screen.c      ****     
 492:screen.c      ****     fill_screen(BLACK);
 1844              		.loc 1 492 0
 1845 000a 0020     		movs	r0, #0
 1846 000c FFF7FEFF 		bl	fill_screen
 1847              	.LVL250:
 493:screen.c      ****     
 494:screen.c      ****     draw_button(0,219,239,20,WHITE,BLACK,"NUMBER OF AVERAGES TO TAKE");
 1848              		.loc 1 494 0
 1849 0010 354B     		ldr	r3, .L115+4
 1850 0012 0293     		str	r3, [sp, #8]
 1851 0014 0024     		movs	r4, #0
 1852 0016 0194     		str	r4, [sp, #4]
 1853 0018 4FF6FF75 		movw	r5, #65535
 1854 001c 0095     		str	r5, [sp]
 1855 001e 1423     		movs	r3, #20
 1856 0020 EF22     		movs	r2, #239
 1857 0022 DB21     		movs	r1, #219
 1858 0024 2046     		mov	r0, r4
 1859 0026 FFF7FEFF 		bl	draw_button
 1860              	.LVL251:
 495:screen.c      ****     
 496:screen.c      ****     draw_button(80,150,70,50,WHITE,BLACK,"PLUS 1");
 1861              		.loc 1 496 0
 1862 002a 304B     		ldr	r3, .L115+8
 1863 002c 0293     		str	r3, [sp, #8]
 1864 002e 0194     		str	r4, [sp, #4]
 1865 0030 0095     		str	r5, [sp]
 1866 0032 3223     		movs	r3, #50
 1867 0034 4622     		movs	r2, #70
 1868 0036 9621     		movs	r1, #150
 1869 0038 5020     		movs	r0, #80
 1870 003a FFF7FEFF 		bl	draw_button
 1871              	.LVL252:
 497:screen.c      ****     draw_button(80,80,70,50,WHITE,BLACK,"PLUS 10");
ARM GAS  C:\Users\legoc\AppData\Local\Temp\cchaQR7h.s 			page 43


 1872              		.loc 1 497 0
 1873 003e 2C4B     		ldr	r3, .L115+12
 1874 0040 0293     		str	r3, [sp, #8]
 1875 0042 0194     		str	r4, [sp, #4]
 1876 0044 0095     		str	r5, [sp]
 1877 0046 3223     		movs	r3, #50
 1878 0048 4622     		movs	r2, #70
 1879 004a 5021     		movs	r1, #80
 1880 004c 0846     		mov	r0, r1
 1881 004e FFF7FEFF 		bl	draw_button
 1882              	.LVL253:
 498:screen.c      ****     draw_button(80,10,70,50,WHITE,BLACK,"PLUS 100");
 1883              		.loc 1 498 0
 1884 0052 284B     		ldr	r3, .L115+16
 1885 0054 0293     		str	r3, [sp, #8]
 1886 0056 0194     		str	r4, [sp, #4]
 1887 0058 0095     		str	r5, [sp]
 1888 005a 3223     		movs	r3, #50
 1889 005c 4622     		movs	r2, #70
 1890 005e 0A21     		movs	r1, #10
 1891 0060 5020     		movs	r0, #80
 1892 0062 FFF7FEFF 		bl	draw_button
 1893              	.LVL254:
 499:screen.c      ****     
 500:screen.c      ****     draw_button(160,150,70,50,WHITE,BLACK,"MINUS 1");
 1894              		.loc 1 500 0
 1895 0066 244B     		ldr	r3, .L115+20
 1896 0068 0293     		str	r3, [sp, #8]
 1897 006a 0194     		str	r4, [sp, #4]
 1898 006c 0095     		str	r5, [sp]
 1899 006e 3223     		movs	r3, #50
 1900 0070 4622     		movs	r2, #70
 1901 0072 9621     		movs	r1, #150
 1902 0074 A020     		movs	r0, #160
 1903 0076 FFF7FEFF 		bl	draw_button
 1904              	.LVL255:
 501:screen.c      ****     draw_button(160,80,70,50,WHITE,BLACK,"MINUS 10");
 1905              		.loc 1 501 0
 1906 007a 204B     		ldr	r3, .L115+24
 1907 007c 0293     		str	r3, [sp, #8]
 1908 007e 0194     		str	r4, [sp, #4]
 1909 0080 0095     		str	r5, [sp]
 1910 0082 3223     		movs	r3, #50
 1911 0084 4622     		movs	r2, #70
 1912 0086 5021     		movs	r1, #80
 1913 0088 A020     		movs	r0, #160
 1914 008a FFF7FEFF 		bl	draw_button
 1915              	.LVL256:
 502:screen.c      ****     draw_button(160,10,70,50,WHITE,BLACK,"MINUS 100");
 1916              		.loc 1 502 0
 1917 008e 1C4B     		ldr	r3, .L115+28
 1918 0090 0293     		str	r3, [sp, #8]
 1919 0092 0194     		str	r4, [sp, #4]
 1920 0094 0095     		str	r5, [sp]
 1921 0096 3223     		movs	r3, #50
 1922 0098 4622     		movs	r2, #70
 1923 009a 0A21     		movs	r1, #10
ARM GAS  C:\Users\legoc\AppData\Local\Temp\cchaQR7h.s 			page 44


 1924 009c A020     		movs	r0, #160
 1925 009e FFF7FEFF 		bl	draw_button
 1926              	.LVL257:
 503:screen.c      ****     
 504:screen.c      ****     char avg_num[4];
 505:screen.c      ****     itoa(num_avg, avg_num, 10);
 1927              		.loc 1 505 0
 1928 00a2 0A22     		movs	r2, #10
 1929 00a4 05A9     		add	r1, sp, #20
 1930 00a6 174B     		ldr	r3, .L115+32
 1931 00a8 1868     		ldr	r0, [r3]
 1932 00aa FFF7FEFF 		bl	itoa
 1933              	.LVL258:
 506:screen.c      ****     
 507:screen.c      ****     draw_string(20,105,WHITE,avg_num,2);
 1934              		.loc 1 507 0
 1935 00ae 0226     		movs	r6, #2
 1936 00b0 0096     		str	r6, [sp]
 1937 00b2 05AB     		add	r3, sp, #20
 1938 00b4 2A46     		mov	r2, r5
 1939 00b6 6921     		movs	r1, #105
 1940 00b8 1420     		movs	r0, #20
 1941 00ba FFF7FEFF 		bl	draw_string
 1942              	.LVL259:
 508:screen.c      ****     
 509:screen.c      ****     //Return button with boundary
 510:screen.c      ****     draw_button(241,0,79,240,WHITE,BLACK,"RETURN");
 1943              		.loc 1 510 0
 1944 00be 124B     		ldr	r3, .L115+36
 1945 00c0 0293     		str	r3, [sp, #8]
 1946 00c2 0194     		str	r4, [sp, #4]
 1947 00c4 0095     		str	r5, [sp]
 1948 00c6 F023     		movs	r3, #240
 1949 00c8 4F22     		movs	r2, #79
 1950 00ca 2146     		mov	r1, r4
 1951 00cc F120     		movs	r0, #241
 1952 00ce FFF7FEFF 		bl	draw_button
 1953              	.LVL260:
 511:screen.c      ****     fill_rect(239,0,2,240,BLACK);
 1954              		.loc 1 511 0
 1955 00d2 0094     		str	r4, [sp]
 1956 00d4 F023     		movs	r3, #240
 1957 00d6 3246     		mov	r2, r6
 1958 00d8 2146     		mov	r1, r4
 1959 00da EF20     		movs	r0, #239
 1960 00dc FFF7FEFF 		bl	fill_rect
 1961              	.LVL261:
 512:screen.c      **** }
 1962              		.loc 1 512 0
 1963 00e0 06B0     		add	sp, sp, #24
 1964              		.cfi_def_cfa_offset 16
 1965              		@ sp needed
 1966 00e2 70BD     		pop	{r4, r5, r6, pc}
 1967              	.L116:
 1968              		.align	2
 1969              	.L115:
 1970 00e4 00000000 		.word	screen_state
ARM GAS  C:\Users\legoc\AppData\Local\Temp\cchaQR7h.s 			page 45


 1971 00e8 E0000000 		.word	.LC18
 1972 00ec FC000000 		.word	.LC19
 1973 00f0 04010000 		.word	.LC20
 1974 00f4 0C010000 		.word	.LC21
 1975 00f8 18010000 		.word	.LC22
 1976 00fc 20010000 		.word	.LC23
 1977 0100 2C010000 		.word	.LC24
 1978 0104 00000000 		.word	num_avg
 1979 0108 CC000000 		.word	.LC16
 1980              		.cfi_endproc
 1981              	.LFE18:
 1982              		.size	draw_options_averages_screen, .-draw_options_averages_screen
 1983              		.section	.text.draw_options_sd_screen,"ax",%progbits
 1984              		.align	2
 1985              		.global	draw_options_sd_screen
 1986              		.thumb
 1987              		.thumb_func
 1988              		.type	draw_options_sd_screen, %function
 1989              	draw_options_sd_screen:
 1990              	.LFB19:
 513:screen.c      **** 
 514:screen.c      **** void draw_options_sd_screen()
 515:screen.c      **** {
 1991              		.loc 1 515 0
 1992              		.cfi_startproc
 1993              		@ args = 0, pretend = 0, frame = 32
 1994              		@ frame_needed = 0, uses_anonymous_args = 0
 1995 0000 F0B5     		push	{r4, r5, r6, r7, lr}
 1996              		.cfi_def_cfa_offset 20
 1997              		.cfi_offset 4, -20
 1998              		.cfi_offset 5, -16
 1999              		.cfi_offset 6, -12
 2000              		.cfi_offset 7, -8
 2001              		.cfi_offset 14, -4
 2002 0002 8DB0     		sub	sp, sp, #52
 2003              		.cfi_def_cfa_offset 72
 516:screen.c      ****     screen_state = OPTION_SD_SCREEN;
 2004              		.loc 1 516 0
 2005 0004 0422     		movs	r2, #4
 2006 0006 434B     		ldr	r3, .L122
 2007 0008 1A60     		str	r2, [r3]
 517:screen.c      ****     
 518:screen.c      ****     fill_screen(BLACK);
 2008              		.loc 1 518 0
 2009 000a 0020     		movs	r0, #0
 2010 000c FFF7FEFF 		bl	fill_screen
 2011              	.LVL262:
 519:screen.c      ****     
 520:screen.c      ****     draw_button(0,219,239,20,WHITE,BLACK,"SD CARD OPTIONS");
 2012              		.loc 1 520 0
 2013 0010 414B     		ldr	r3, .L122+4
 2014 0012 0293     		str	r3, [sp, #8]
 2015 0014 0026     		movs	r6, #0
 2016 0016 0196     		str	r6, [sp, #4]
 2017 0018 4FF6FF77 		movw	r7, #65535
 2018 001c 0097     		str	r7, [sp]
 2019 001e 1423     		movs	r3, #20
ARM GAS  C:\Users\legoc\AppData\Local\Temp\cchaQR7h.s 			page 46


 2020 0020 EF22     		movs	r2, #239
 2021 0022 DB21     		movs	r1, #219
 2022 0024 3046     		mov	r0, r6
 2023 0026 FFF7FEFF 		bl	draw_button
 2024              	.LVL263:
 521:screen.c      ****     char temp[] = "WRITE RESULTS TO SD CARD";
 2025              		.loc 1 521 0
 2026 002a 05AC     		add	r4, sp, #20
 2027 002c 3B4D     		ldr	r5, .L122+8
 2028 002e 0FCD     		ldmia	r5!, {r0, r1, r2, r3}
 2029 0030 0FC4     		stmia	r4!, {r0, r1, r2, r3}
 2030 0032 95E80700 		ldmia	r5, {r0, r1, r2}
 2031 0036 03C4     		stmia	r4!, {r0, r1}
 2032 0038 2270     		strb	r2, [r4]
 522:screen.c      ****     draw_button(0,170,239,10,WHITE,BLACK,temp);
 2033              		.loc 1 522 0
 2034 003a 05AB     		add	r3, sp, #20
 2035 003c 0293     		str	r3, [sp, #8]
 2036 003e 0196     		str	r6, [sp, #4]
 2037 0040 0097     		str	r7, [sp]
 2038 0042 0A23     		movs	r3, #10
 2039 0044 EF22     		movs	r2, #239
 2040 0046 AA21     		movs	r1, #170
 2041 0048 3046     		mov	r0, r6
 2042 004a FFF7FEFF 		bl	draw_button
 2043              	.LVL264:
 523:screen.c      ****     
 524:screen.c      ****     if(write_sd == 1)
 2044              		.loc 1 524 0
 2045 004e 344B     		ldr	r3, .L122+12
 2046 0050 1B68     		ldr	r3, [r3]
 2047 0052 012B     		cmp	r3, #1
 2048 0054 16D1     		bne	.L118
 525:screen.c      ****     {
 526:screen.c      ****         draw_button(30,100,80,50,LIGHTBLUE,BLACK,"YES");
 2049              		.loc 1 526 0
 2050 0056 334B     		ldr	r3, .L122+16
 2051 0058 0293     		str	r3, [sp, #8]
 2052 005a 0196     		str	r6, [sp, #4]
 2053 005c 49F69F63 		movw	r3, #40607
 2054 0060 0093     		str	r3, [sp]
 2055 0062 3223     		movs	r3, #50
 2056 0064 5022     		movs	r2, #80
 2057 0066 6421     		movs	r1, #100
 2058 0068 1E20     		movs	r0, #30
 2059 006a FFF7FEFF 		bl	draw_button
 2060              	.LVL265:
 527:screen.c      ****         draw_button(130,100,80,50,WHITE,BLACK,"NO");
 2061              		.loc 1 527 0
 2062 006e 2E4B     		ldr	r3, .L122+20
 2063 0070 0293     		str	r3, [sp, #8]
 2064 0072 0196     		str	r6, [sp, #4]
 2065 0074 0097     		str	r7, [sp]
 2066 0076 3223     		movs	r3, #50
 2067 0078 5022     		movs	r2, #80
 2068 007a 6421     		movs	r1, #100
 2069 007c 8220     		movs	r0, #130
ARM GAS  C:\Users\legoc\AppData\Local\Temp\cchaQR7h.s 			page 47


 2070 007e FFF7FEFF 		bl	draw_button
 2071              	.LVL266:
 2072 0082 31E0     		b	.L119
 2073              	.L118:
 528:screen.c      ****     }
 529:screen.c      ****     else if(write_sd == 0)
 2074              		.loc 1 529 0
 2075 0084 CBB9     		cbnz	r3, .L120
 530:screen.c      ****     {
 531:screen.c      ****         draw_button(30,100,80,50,WHITE,BLACK,"YES");
 2076              		.loc 1 531 0
 2077 0086 274B     		ldr	r3, .L122+16
 2078 0088 0293     		str	r3, [sp, #8]
 2079 008a 0024     		movs	r4, #0
 2080 008c 0194     		str	r4, [sp, #4]
 2081 008e 4FF6FF73 		movw	r3, #65535
 2082 0092 0093     		str	r3, [sp]
 2083 0094 3223     		movs	r3, #50
 2084 0096 5022     		movs	r2, #80
 2085 0098 6421     		movs	r1, #100
 2086 009a 1E20     		movs	r0, #30
 2087 009c FFF7FEFF 		bl	draw_button
 2088              	.LVL267:
 532:screen.c      ****         draw_button(130,100,80,50,LIGHTBLUE,BLACK,"NO");
 2089              		.loc 1 532 0
 2090 00a0 214B     		ldr	r3, .L122+20
 2091 00a2 0293     		str	r3, [sp, #8]
 2092 00a4 0194     		str	r4, [sp, #4]
 2093 00a6 49F69F63 		movw	r3, #40607
 2094 00aa 0093     		str	r3, [sp]
 2095 00ac 3223     		movs	r3, #50
 2096 00ae 5022     		movs	r2, #80
 2097 00b0 6421     		movs	r1, #100
 2098 00b2 8220     		movs	r0, #130
 2099 00b4 FFF7FEFF 		bl	draw_button
 2100              	.LVL268:
 2101 00b8 16E0     		b	.L119
 2102              	.L120:
 533:screen.c      ****     }
 534:screen.c      ****     else
 535:screen.c      ****     {
 536:screen.c      ****         draw_button(80,100,80,50,WHITE,BLACK,"YES");
 2103              		.loc 1 536 0
 2104 00ba 1A4B     		ldr	r3, .L122+16
 2105 00bc 0293     		str	r3, [sp, #8]
 2106 00be 0025     		movs	r5, #0
 2107 00c0 0195     		str	r5, [sp, #4]
 2108 00c2 4FF6FF74 		movw	r4, #65535
 2109 00c6 0094     		str	r4, [sp]
 2110 00c8 3223     		movs	r3, #50
 2111 00ca 5022     		movs	r2, #80
 2112 00cc 6421     		movs	r1, #100
 2113 00ce 1046     		mov	r0, r2
 2114 00d0 FFF7FEFF 		bl	draw_button
 2115              	.LVL269:
 537:screen.c      ****         draw_button(130,100,80,50,WHITE,BLACK,"NO");
 2116              		.loc 1 537 0
ARM GAS  C:\Users\legoc\AppData\Local\Temp\cchaQR7h.s 			page 48


 2117 00d4 144B     		ldr	r3, .L122+20
 2118 00d6 0293     		str	r3, [sp, #8]
 2119 00d8 0195     		str	r5, [sp, #4]
 2120 00da 0094     		str	r4, [sp]
 2121 00dc 3223     		movs	r3, #50
 2122 00de 5022     		movs	r2, #80
 2123 00e0 6421     		movs	r1, #100
 2124 00e2 8220     		movs	r0, #130
 2125 00e4 FFF7FEFF 		bl	draw_button
 2126              	.LVL270:
 2127              	.L119:
 538:screen.c      ****     }
 539:screen.c      ****     
 540:screen.c      ****     //Return button with boundary
 541:screen.c      ****     draw_button(241,0,79,240,WHITE,BLACK,"RETURN");
 2128              		.loc 1 541 0
 2129 00e8 104B     		ldr	r3, .L122+24
 2130 00ea 0293     		str	r3, [sp, #8]
 2131 00ec 0024     		movs	r4, #0
 2132 00ee 0194     		str	r4, [sp, #4]
 2133 00f0 4FF6FF73 		movw	r3, #65535
 2134 00f4 0093     		str	r3, [sp]
 2135 00f6 F023     		movs	r3, #240
 2136 00f8 4F22     		movs	r2, #79
 2137 00fa 2146     		mov	r1, r4
 2138 00fc F120     		movs	r0, #241
 2139 00fe FFF7FEFF 		bl	draw_button
 2140              	.LVL271:
 542:screen.c      ****     fill_rect(239,0,2,240,BLACK);
 2141              		.loc 1 542 0
 2142 0102 0094     		str	r4, [sp]
 2143 0104 F023     		movs	r3, #240
 2144 0106 0222     		movs	r2, #2
 2145 0108 2146     		mov	r1, r4
 2146 010a EF20     		movs	r0, #239
 2147 010c FFF7FEFF 		bl	fill_rect
 2148              	.LVL272:
 543:screen.c      **** }
 2149              		.loc 1 543 0
 2150 0110 0DB0     		add	sp, sp, #52
 2151              		.cfi_def_cfa_offset 20
 2152              		@ sp needed
 2153 0112 F0BD     		pop	{r4, r5, r6, r7, pc}
 2154              	.L123:
 2155              		.align	2
 2156              	.L122:
 2157 0114 00000000 		.word	screen_state
 2158 0118 90000000 		.word	.LC13
 2159 011c 40010000 		.word	.LC25
 2160 0120 00000000 		.word	write_sd
 2161 0124 38010000 		.word	.LC26
 2162 0128 3C010000 		.word	.LC27
 2163 012c CC000000 		.word	.LC16
 2164              		.cfi_endproc
 2165              	.LFE19:
 2166              		.size	draw_options_sd_screen, .-draw_options_sd_screen
 2167              		.section	.text.draw_options_curves_screen,"ax",%progbits
ARM GAS  C:\Users\legoc\AppData\Local\Temp\cchaQR7h.s 			page 49


 2168              		.align	2
 2169              		.global	draw_options_curves_screen
 2170              		.thumb
 2171              		.thumb_func
 2172              		.type	draw_options_curves_screen, %function
 2173              	draw_options_curves_screen:
 2174              	.LFB20:
 544:screen.c      **** 
 545:screen.c      **** void draw_options_curves_screen()
 546:screen.c      **** {
 2175              		.loc 1 546 0
 2176              		.cfi_startproc
 2177              		@ args = 0, pretend = 0, frame = 8
 2178              		@ frame_needed = 0, uses_anonymous_args = 0
 2179 0000 30B5     		push	{r4, r5, lr}
 2180              		.cfi_def_cfa_offset 12
 2181              		.cfi_offset 4, -12
 2182              		.cfi_offset 5, -8
 2183              		.cfi_offset 14, -4
 2184 0002 87B0     		sub	sp, sp, #28
 2185              		.cfi_def_cfa_offset 40
 547:screen.c      ****     screen_state = OPTION_CURVES_SCREEN;
 2186              		.loc 1 547 0
 2187 0004 0522     		movs	r2, #5
 2188 0006 234B     		ldr	r3, .L126
 2189 0008 1A60     		str	r2, [r3]
 548:screen.c      ****     
 549:screen.c      ****     fill_screen(BLACK);
 2190              		.loc 1 549 0
 2191 000a 0020     		movs	r0, #0
 2192 000c FFF7FEFF 		bl	fill_screen
 2193              	.LVL273:
 550:screen.c      ****     
 551:screen.c      ****     draw_button(0,219,239,20,WHITE,BLACK,"NUMBER OF CURVES TO DRAW");
 2194              		.loc 1 551 0
 2195 0010 214B     		ldr	r3, .L126+4
 2196 0012 0293     		str	r3, [sp, #8]
 2197 0014 0024     		movs	r4, #0
 2198 0016 0194     		str	r4, [sp, #4]
 2199 0018 4FF6FF75 		movw	r5, #65535
 2200 001c 0095     		str	r5, [sp]
 2201 001e 1423     		movs	r3, #20
 2202 0020 EF22     		movs	r2, #239
 2203 0022 DB21     		movs	r1, #219
 2204 0024 2046     		mov	r0, r4
 2205 0026 FFF7FEFF 		bl	draw_button
 2206              	.LVL274:
 552:screen.c      ****     
 553:screen.c      ****     draw_button(130,30,70,70,WHITE,BLACK,"DECREASE");
 2207              		.loc 1 553 0
 2208 002a 1C4B     		ldr	r3, .L126+8
 2209 002c 0293     		str	r3, [sp, #8]
 2210 002e 0194     		str	r4, [sp, #4]
 2211 0030 0095     		str	r5, [sp]
 2212 0032 4623     		movs	r3, #70
 2213 0034 1A46     		mov	r2, r3
 2214 0036 1E21     		movs	r1, #30
ARM GAS  C:\Users\legoc\AppData\Local\Temp\cchaQR7h.s 			page 50


 2215 0038 8220     		movs	r0, #130
 2216 003a FFF7FEFF 		bl	draw_button
 2217              	.LVL275:
 554:screen.c      ****     draw_button(130,120,70,70,WHITE,BLACK,"INCREASE");
 2218              		.loc 1 554 0
 2219 003e 184B     		ldr	r3, .L126+12
 2220 0040 0293     		str	r3, [sp, #8]
 2221 0042 0194     		str	r4, [sp, #4]
 2222 0044 0095     		str	r5, [sp]
 2223 0046 4623     		movs	r3, #70
 2224 0048 1A46     		mov	r2, r3
 2225 004a 7821     		movs	r1, #120
 2226 004c 8220     		movs	r0, #130
 2227 004e FFF7FEFF 		bl	draw_button
 2228              	.LVL276:
 555:screen.c      ****     
 556:screen.c      ****     char num_curve[2];
 557:screen.c      ****     itoa(curve_nums, num_curve, 10);
 2229              		.loc 1 557 0
 2230 0052 0A22     		movs	r2, #10
 2231 0054 05A9     		add	r1, sp, #20
 2232 0056 134B     		ldr	r3, .L126+16
 2233 0058 1868     		ldr	r0, [r3]
 2234 005a FFF7FEFF 		bl	itoa
 2235              	.LVL277:
 558:screen.c      ****     
 559:screen.c      ****     draw_string(50,105,WHITE,num_curve,3);
 2236              		.loc 1 559 0
 2237 005e 0323     		movs	r3, #3
 2238 0060 0093     		str	r3, [sp]
 2239 0062 05AB     		add	r3, sp, #20
 2240 0064 2A46     		mov	r2, r5
 2241 0066 6921     		movs	r1, #105
 2242 0068 3220     		movs	r0, #50
 2243 006a FFF7FEFF 		bl	draw_string
 2244              	.LVL278:
 560:screen.c      ****     
 561:screen.c      ****     //Return button with boundary
 562:screen.c      ****     draw_button(241,0,79,240,WHITE,BLACK,"RETURN");
 2245              		.loc 1 562 0
 2246 006e 0E4B     		ldr	r3, .L126+20
 2247 0070 0293     		str	r3, [sp, #8]
 2248 0072 0194     		str	r4, [sp, #4]
 2249 0074 0095     		str	r5, [sp]
 2250 0076 F023     		movs	r3, #240
 2251 0078 4F22     		movs	r2, #79
 2252 007a 2146     		mov	r1, r4
 2253 007c F120     		movs	r0, #241
 2254 007e FFF7FEFF 		bl	draw_button
 2255              	.LVL279:
 563:screen.c      ****     fill_rect(239,0,2,240,BLACK);
 2256              		.loc 1 563 0
 2257 0082 0094     		str	r4, [sp]
 2258 0084 F023     		movs	r3, #240
 2259 0086 0222     		movs	r2, #2
 2260 0088 2146     		mov	r1, r4
 2261 008a EF20     		movs	r0, #239
ARM GAS  C:\Users\legoc\AppData\Local\Temp\cchaQR7h.s 			page 51


 2262 008c FFF7FEFF 		bl	fill_rect
 2263              	.LVL280:
 564:screen.c      **** }
 2264              		.loc 1 564 0
 2265 0090 07B0     		add	sp, sp, #28
 2266              		.cfi_def_cfa_offset 12
 2267              		@ sp needed
 2268 0092 30BD     		pop	{r4, r5, pc}
 2269              	.L127:
 2270              		.align	2
 2271              	.L126:
 2272 0094 00000000 		.word	screen_state
 2273 0098 5C010000 		.word	.LC28
 2274 009c 78010000 		.word	.LC29
 2275 00a0 84010000 		.word	.LC30
 2276 00a4 00000000 		.word	curve_nums
 2277 00a8 CC000000 		.word	.LC16
 2278              		.cfi_endproc
 2279              	.LFE20:
 2280              		.size	draw_options_curves_screen, .-draw_options_curves_screen
 2281              		.section	.text.draw_options_settling_screen,"ax",%progbits
 2282              		.align	2
 2283              		.global	draw_options_settling_screen
 2284              		.thumb
 2285              		.thumb_func
 2286              		.type	draw_options_settling_screen, %function
 2287              	draw_options_settling_screen:
 2288              	.LFB21:
 565:screen.c      **** 
 566:screen.c      **** void draw_options_settling_screen()
 567:screen.c      **** {
 2289              		.loc 1 567 0
 2290              		.cfi_startproc
 2291              		@ args = 0, pretend = 0, frame = 0
 2292              		@ frame_needed = 0, uses_anonymous_args = 0
 2293 0000 30B5     		push	{r4, r5, lr}
 2294              		.cfi_def_cfa_offset 12
 2295              		.cfi_offset 4, -12
 2296              		.cfi_offset 5, -8
 2297              		.cfi_offset 14, -4
 2298 0002 85B0     		sub	sp, sp, #20
 2299              		.cfi_def_cfa_offset 32
 568:screen.c      ****     screen_state = OPTION_SETTLING_SCREEN;
 2300              		.loc 1 568 0
 2301 0004 0622     		movs	r2, #6
 2302 0006 124B     		ldr	r3, .L130
 2303 0008 1A60     		str	r2, [r3]
 569:screen.c      ****     
 570:screen.c      ****     fill_screen(BLACK);
 2304              		.loc 1 570 0
 2305 000a 0020     		movs	r0, #0
 2306 000c FFF7FEFF 		bl	fill_screen
 2307              	.LVL281:
 571:screen.c      ****     
 572:screen.c      ****     draw_button(0,219,239,20,WHITE,BLACK,"SETTLING TIME OPTIONS SCREEN");
 2308              		.loc 1 572 0
 2309 0010 104B     		ldr	r3, .L130+4
ARM GAS  C:\Users\legoc\AppData\Local\Temp\cchaQR7h.s 			page 52


 2310 0012 0293     		str	r3, [sp, #8]
 2311 0014 0024     		movs	r4, #0
 2312 0016 0194     		str	r4, [sp, #4]
 2313 0018 4FF6FF75 		movw	r5, #65535
 2314 001c 0095     		str	r5, [sp]
 2315 001e 1423     		movs	r3, #20
 2316 0020 EF22     		movs	r2, #239
 2317 0022 DB21     		movs	r1, #219
 2318 0024 2046     		mov	r0, r4
 2319 0026 FFF7FEFF 		bl	draw_button
 2320              	.LVL282:
 573:screen.c      ****     
 574:screen.c      ****     //Return button with boundary
 575:screen.c      ****     draw_button(241,0,79,240,WHITE,BLACK,"RETURN");
 2321              		.loc 1 575 0
 2322 002a 0B4B     		ldr	r3, .L130+8
 2323 002c 0293     		str	r3, [sp, #8]
 2324 002e 0194     		str	r4, [sp, #4]
 2325 0030 0095     		str	r5, [sp]
 2326 0032 F023     		movs	r3, #240
 2327 0034 4F22     		movs	r2, #79
 2328 0036 2146     		mov	r1, r4
 2329 0038 F120     		movs	r0, #241
 2330 003a FFF7FEFF 		bl	draw_button
 2331              	.LVL283:
 576:screen.c      ****     fill_rect(239,0,2,240,BLACK);
 2332              		.loc 1 576 0
 2333 003e 0094     		str	r4, [sp]
 2334 0040 F023     		movs	r3, #240
 2335 0042 0222     		movs	r2, #2
 2336 0044 2146     		mov	r1, r4
 2337 0046 EF20     		movs	r0, #239
 2338 0048 FFF7FEFF 		bl	fill_rect
 2339              	.LVL284:
 577:screen.c      **** }
 2340              		.loc 1 577 0
 2341 004c 05B0     		add	sp, sp, #20
 2342              		.cfi_def_cfa_offset 12
 2343              		@ sp needed
 2344 004e 30BD     		pop	{r4, r5, pc}
 2345              	.L131:
 2346              		.align	2
 2347              	.L130:
 2348 0050 00000000 		.word	screen_state
 2349 0054 90010000 		.word	.LC31
 2350 0058 CC000000 		.word	.LC16
 2351              		.cfi_endproc
 2352              	.LFE21:
 2353              		.size	draw_options_settling_screen, .-draw_options_settling_screen
 2354              		.section	.text.draw_debug_screen,"ax",%progbits
 2355              		.align	2
 2356              		.global	draw_debug_screen
 2357              		.thumb
 2358              		.thumb_func
 2359              		.type	draw_debug_screen, %function
 2360              	draw_debug_screen:
 2361              	.LFB22:
ARM GAS  C:\Users\legoc\AppData\Local\Temp\cchaQR7h.s 			page 53


 578:screen.c      **** 
 579:screen.c      **** //screen used for debugging. Feel free to change as needed, keep return button
 580:screen.c      **** void draw_debug_screen(uint16_t x, uint16_t y)
 581:screen.c      **** {
 2362              		.loc 1 581 0
 2363              		.cfi_startproc
 2364              		@ args = 0, pretend = 0, frame = 24
 2365              		@ frame_needed = 0, uses_anonymous_args = 0
 2366              	.LVL285:
 2367 0000 30B5     		push	{r4, r5, lr}
 2368              		.cfi_def_cfa_offset 12
 2369              		.cfi_offset 4, -12
 2370              		.cfi_offset 5, -8
 2371              		.cfi_offset 14, -4
 2372 0002 8BB0     		sub	sp, sp, #44
 2373              		.cfi_def_cfa_offset 56
 2374 0004 0546     		mov	r5, r0
 2375 0006 0C46     		mov	r4, r1
 582:screen.c      ****     fill_screen(BLACK);
 2376              		.loc 1 582 0
 2377 0008 0020     		movs	r0, #0
 2378              	.LVL286:
 2379 000a FFF7FEFF 		bl	fill_screen
 2380              	.LVL287:
 583:screen.c      ****     
 584:screen.c      ****     screen_state = DEBUG_SCREEN;
 2381              		.loc 1 584 0
 2382 000e 0722     		movs	r2, #7
 2383 0010 234B     		ldr	r3, .L134
 2384 0012 1A60     		str	r2, [r3]
 585:screen.c      ****     
 586:screen.c      ****     char x_touch[10];
 587:screen.c      ****     char y_touch[10];
 588:screen.c      **** 
 589:screen.c      ****     itoa(x, x_touch, 10);
 2385              		.loc 1 589 0
 2386 0014 0A22     		movs	r2, #10
 2387 0016 07A9     		add	r1, sp, #28
 2388 0018 2846     		mov	r0, r5
 2389 001a FFF7FEFF 		bl	itoa
 2390              	.LVL288:
 590:screen.c      ****     itoa(y, y_touch, 10);
 2391              		.loc 1 590 0
 2392 001e 0A22     		movs	r2, #10
 2393 0020 04A9     		add	r1, sp, #16
 2394 0022 2046     		mov	r0, r4
 2395 0024 FFF7FEFF 		bl	itoa
 2396              	.LVL289:
 591:screen.c      ****     
 592:screen.c      ****     draw_string(100,110,WHITE,x_touch,1);
 2397              		.loc 1 592 0
 2398 0028 0124     		movs	r4, #1
 2399 002a 0094     		str	r4, [sp]
 2400 002c 07AB     		add	r3, sp, #28
 2401 002e 4FF6FF72 		movw	r2, #65535
 2402 0032 6E21     		movs	r1, #110
 2403 0034 6420     		movs	r0, #100
ARM GAS  C:\Users\legoc\AppData\Local\Temp\cchaQR7h.s 			page 54


 2404 0036 FFF7FEFF 		bl	draw_string
 2405              	.LVL290:
 593:screen.c      ****     draw_string(100,100,WHITE,y_touch,1);
 2406              		.loc 1 593 0
 2407 003a 0094     		str	r4, [sp]
 2408 003c 04AB     		add	r3, sp, #16
 2409 003e 4FF6FF72 		movw	r2, #65535
 2410 0042 6421     		movs	r1, #100
 2411 0044 0846     		mov	r0, r1
 2412 0046 FFF7FEFF 		bl	draw_string
 2413              	.LVL291:
 594:screen.c      ****     
 595:screen.c      ****     draw_string(100,200,WHITE,"TOUCH COORDINATES",1);
 2414              		.loc 1 595 0
 2415 004a 0094     		str	r4, [sp]
 2416 004c 154B     		ldr	r3, .L134+4
 2417 004e 4FF6FF72 		movw	r2, #65535
 2418 0052 C821     		movs	r1, #200
 2419 0054 6420     		movs	r0, #100
 2420 0056 FFF7FEFF 		bl	draw_string
 2421              	.LVL292:
 596:screen.c      ****     
 597:screen.c      ****     draw_string(50,150,WHITE,"TEST",6);
 2422              		.loc 1 597 0
 2423 005a 0623     		movs	r3, #6
 2424 005c 0093     		str	r3, [sp]
 2425 005e 124B     		ldr	r3, .L134+8
 2426 0060 4FF6FF72 		movw	r2, #65535
 2427 0064 9621     		movs	r1, #150
 2428 0066 3220     		movs	r0, #50
 2429 0068 FFF7FEFF 		bl	draw_string
 2430              	.LVL293:
 598:screen.c      ****     
 599:screen.c      ****     draw_button(150,40,119,70,WHITE,BLACK,"SETTLING TIME OPTIONS");
 2431              		.loc 1 599 0
 2432 006c 0F4B     		ldr	r3, .L134+12
 2433 006e 0293     		str	r3, [sp, #8]
 2434 0070 0024     		movs	r4, #0
 2435 0072 0194     		str	r4, [sp, #4]
 2436 0074 4FF6FF75 		movw	r5, #65535
 2437 0078 0095     		str	r5, [sp]
 2438 007a 4623     		movs	r3, #70
 2439 007c 7722     		movs	r2, #119
 2440 007e 2821     		movs	r1, #40
 2441 0080 9620     		movs	r0, #150
 2442 0082 FFF7FEFF 		bl	draw_button
 2443              	.LVL294:
 600:screen.c      ****     
 601:screen.c      ****     //return button
 602:screen.c      ****     draw_button(0,0,50,30,WHITE,BLACK,"RETURN");
 2444              		.loc 1 602 0
 2445 0086 0A4B     		ldr	r3, .L134+16
 2446 0088 0293     		str	r3, [sp, #8]
 2447 008a 0194     		str	r4, [sp, #4]
 2448 008c 0095     		str	r5, [sp]
 2449 008e 1E23     		movs	r3, #30
 2450 0090 3222     		movs	r2, #50
ARM GAS  C:\Users\legoc\AppData\Local\Temp\cchaQR7h.s 			page 55


 2451 0092 2146     		mov	r1, r4
 2452 0094 2046     		mov	r0, r4
 2453 0096 FFF7FEFF 		bl	draw_button
 2454              	.LVL295:
 603:screen.c      **** }...
 2455              		.loc 1 603 0
 2456 009a 0BB0     		add	sp, sp, #44
 2457              		.cfi_def_cfa_offset 12
 2458              		@ sp needed
 2459 009c 30BD     		pop	{r4, r5, pc}
 2460              	.L135:
 2461 009e 00BF     		.align	2
 2462              	.L134:
 2463 00a0 00000000 		.word	screen_state
 2464 00a4 B0010000 		.word	.LC32
 2465 00a8 C4010000 		.word	.LC33
 2466 00ac B4000000 		.word	.LC15
 2467 00b0 CC000000 		.word	.LC16
 2468              		.cfi_endproc
 2469              	.LFE22:
 2470              		.size	draw_debug_screen, .-draw_debug_screen
 2471              		.section	.rodata
 2472              		.align	2
 2473              		.set	.LANCHOR0,. + 0
 2474              		.type	initcmd, %object
 2475              		.size	initcmd, 111
 2476              	initcmd:
 2477 0000 EF       		.byte	-17
 2478 0001 03       		.byte	3
 2479 0002 03       		.byte	3
 2480 0003 80       		.byte	-128
 2481 0004 02       		.byte	2
 2482 0005 CF       		.byte	-49
 2483 0006 03       		.byte	3
 2484 0007 00       		.byte	0
 2485 0008 C1       		.byte	-63
 2486 0009 30       		.byte	48
 2487 000a ED       		.byte	-19
 2488 000b 04       		.byte	4
 2489 000c 64       		.byte	100
 2490 000d 03       		.byte	3
 2491 000e 12       		.byte	18
 2492 000f 81       		.byte	-127
 2493 0010 E8       		.byte	-24
 2494 0011 03       		.byte	3
 2495 0012 85       		.byte	-123
 2496 0013 00       		.byte	0
 2497 0014 78       		.byte	120
 2498 0015 CB       		.byte	-53
 2499 0016 05       		.byte	5
 2500 0017 39       		.byte	57
 2501 0018 2C       		.byte	44
 2502 0019 00       		.byte	0
 2503 001a 34       		.byte	52
 2504 001b 02       		.byte	2
 2505 001c F7       		.byte	-9
 2506 001d 01       		.byte	1
ARM GAS  C:\Users\legoc\AppData\Local\Temp\cchaQR7h.s 			page 56


 2507 001e 20       		.byte	32
 2508 001f EA       		.byte	-22
 2509 0020 02       		.byte	2
 2510 0021 00       		.byte	0
 2511 0022 00       		.byte	0
 2512 0023 C0       		.byte	-64
 2513 0024 01       		.byte	1
 2514 0025 23       		.byte	35
 2515 0026 C1       		.byte	-63
 2516 0027 01       		.byte	1
 2517 0028 10       		.byte	16
 2518 0029 C5       		.byte	-59
 2519 002a 02       		.byte	2
 2520 002b 3E       		.byte	62
 2521 002c 28       		.byte	40
 2522 002d C7       		.byte	-57
 2523 002e 01       		.byte	1
 2524 002f 86       		.byte	-122
 2525 0030 36       		.byte	54
 2526 0031 01       		.byte	1
 2527 0032 48       		.byte	72
 2528 0033 37       		.byte	55
 2529 0034 01       		.byte	1
 2530 0035 00       		.byte	0
 2531 0036 3A       		.byte	58
 2532 0037 01       		.byte	1
 2533 0038 55       		.byte	85
 2534 0039 B1       		.byte	-79
 2535 003a 02       		.byte	2
 2536 003b 00       		.byte	0
 2537 003c 18       		.byte	24
 2538 003d B6       		.byte	-74
 2539 003e 03       		.byte	3
 2540 003f 08       		.byte	8
 2541 0040 82       		.byte	-126
 2542 0041 27       		.byte	39
 2543 0042 F2       		.byte	-14
 2544 0043 01       		.byte	1
 2545 0044 00       		.byte	0
 2546 0045 26       		.byte	38
 2547 0046 01       		.byte	1
 2548 0047 01       		.byte	1
 2549 0048 E0       		.byte	-32
 2550 0049 0F       		.byte	15
 2551 004a 0F       		.byte	15
 2552 004b 31       		.byte	49
 2553 004c 2B       		.byte	43
 2554 004d 0C       		.byte	12
 2555 004e 0E       		.byte	14
 2556 004f 08       		.byte	8
 2557 0050 4E       		.byte	78
 2558 0051 F1       		.byte	-15
 2559 0052 37       		.byte	55
 2560 0053 07       		.byte	7
 2561 0054 10       		.byte	16
 2562 0055 03       		.byte	3
 2563 0056 0E       		.byte	14
ARM GAS  C:\Users\legoc\AppData\Local\Temp\cchaQR7h.s 			page 57


 2564 0057 09       		.byte	9
 2565 0058 00       		.byte	0
 2566 0059 E1       		.byte	-31
 2567 005a 0F       		.byte	15
 2568 005b 00       		.byte	0
 2569 005c 0E       		.byte	14
 2570 005d 14       		.byte	20
 2571 005e 03       		.byte	3
 2572 005f 11       		.byte	17
 2573 0060 07       		.byte	7
 2574 0061 31       		.byte	49
 2575 0062 C1       		.byte	-63
 2576 0063 48       		.byte	72
 2577 0064 08       		.byte	8
 2578 0065 0F       		.byte	15
 2579 0066 0C       		.byte	12
 2580 0067 31       		.byte	49
 2581 0068 36       		.byte	54
 2582 0069 0F       		.byte	15
 2583 006a 11       		.byte	17
 2584 006b 80       		.byte	-128
 2585 006c 29       		.byte	41
 2586 006d 80       		.byte	-128
 2587 006e 00       		.byte	0
 2588              		.section	.rodata.str1.4,"aMS",%progbits,1
 2589              		.align	2
 2590              	.LC0:
 2591 0000 56445320 		.ascii	"VDS V\000"
 2591      5600
 2592 0006 0000     		.space	2
 2593              	.LC1:
 2594 0008 4944204D 		.ascii	"ID MIL A\000"
 2594      494C2041 
 2594      00
 2595 0011 000000   		.space	3
 2596              	.LC2:
 2597 0014 56434520 		.ascii	"VCE V\000"
 2597      5600
 2598 001a 0000     		.space	2
 2599              	.LC3:
 2600 001c 4943204D 		.ascii	"IC MIL A\000"
 2600      494C2041 
 2600      00
 2601 0025 000000   		.space	3
 2602              	.LC4:
 2603 0028 256400   		.ascii	"%d\000"
 2604 002b 00       		.space	1
 2605              	.LC5:
 2606 002c 256900   		.ascii	"%i\000"
 2607 002f 00       		.space	1
 2608              	.LC6:
 2609 0030 53544F50 		.ascii	"STOP\000"
 2609      00
 2610 0035 000000   		.space	3
 2611              	.LC7:
 2612 0038 43484F4F 		.ascii	"CHOOSE A SEMICONDUCTOR TYPE\000"
 2612      53452041 
ARM GAS  C:\Users\legoc\AppData\Local\Temp\cchaQR7h.s 			page 58


 2612      2053454D 
 2612      49434F4E 
 2612      44554354 
 2613              	.LC8:
 2614 0054 4E205459 		.ascii	"N TYPE FET\000"
 2614      50452046 
 2614      455400
 2615 005f 00       		.space	1
 2616              	.LC9:
 2617 0060 4E504E20 		.ascii	"NPN BJT\000"
 2617      424A5400 
 2618              	.LC10:
 2619 0068 50205459 		.ascii	"P TYPE FET\000"
 2619      50452046 
 2619      455400
 2620 0073 00       		.space	1
 2621              	.LC11:
 2622 0074 504E5020 		.ascii	"PNP BJT\000"
 2622      424A5400 
 2623              	.LC12:
 2624 007c 4E554D42 		.ascii	"NUMBER OF AVERAGES\000"
 2624      4552204F 
 2624      46204156 
 2624      45524147 
 2624      455300
 2625 008f 00       		.space	1
 2626              	.LC13:
 2627 0090 53442043 		.ascii	"SD CARD OPTIONS\000"
 2627      41524420 
 2627      4F505449 
 2627      4F4E5300 
 2628              	.LC14:
 2629 00a0 4E554D42 		.ascii	"NUMBER OF CURVES\000"
 2629      4552204F 
 2629      46204355 
 2629      52564553 
 2629      00
 2630 00b1 000000   		.space	3
 2631              	.LC15:
 2632 00b4 53455454 		.ascii	"SETTLING TIME OPTIONS\000"
 2632      4C494E47 
 2632      2054494D 
 2632      45204F50 
 2632      54494F4E 
 2633 00ca 0000     		.space	2
 2634              	.LC16:
 2635 00cc 52455455 		.ascii	"RETURN\000"
 2635      524E00
 2636 00d3 00       		.space	1
 2637              	.LC17:
 2638 00d4 52554E20 		.ascii	"RUN TEST\000"
 2638      54455354 
 2638      00
 2639 00dd 000000   		.space	3
 2640              	.LC18:
 2641 00e0 4E554D42 		.ascii	"NUMBER OF AVERAGES TO TAKE\000"
 2641      4552204F 
ARM GAS  C:\Users\legoc\AppData\Local\Temp\cchaQR7h.s 			page 59


 2641      46204156 
 2641      45524147 
 2641      45532054 
 2642 00fb 00       		.space	1
 2643              	.LC19:
 2644 00fc 504C5553 		.ascii	"PLUS 1\000"
 2644      203100
 2645 0103 00       		.space	1
 2646              	.LC20:
 2647 0104 504C5553 		.ascii	"PLUS 10\000"
 2647      20313000 
 2648              	.LC21:
 2649 010c 504C5553 		.ascii	"PLUS 100\000"
 2649      20313030 
 2649      00
 2650 0115 000000   		.space	3
 2651              	.LC22:
 2652 0118 4D494E55 		.ascii	"MINUS 1\000"
 2652      53203100 
 2653              	.LC23:
 2654 0120 4D494E55 		.ascii	"MINUS 10\000"
 2654      53203130 
 2654      00
 2655 0129 000000   		.space	3
 2656              	.LC24:
 2657 012c 4D494E55 		.ascii	"MINUS 100\000"
 2657      53203130 
 2657      3000
 2658 0136 0000     		.space	2
 2659              	.LC26:
 2660 0138 59455300 		.ascii	"YES\000"
 2661              	.LC27:
 2662 013c 4E4F00   		.ascii	"NO\000"
 2663 013f 00       		.space	1
 2664              	.LC25:
 2665 0140 57524954 		.ascii	"WRITE RESULTS TO SD CARD\000"
 2665      45205245 
 2665      53554C54 
 2665      5320544F 
 2665      20534420 
 2666 0159 000000   		.space	3
 2667              	.LC28:
 2668 015c 4E554D42 		.ascii	"NUMBER OF CURVES TO DRAW\000"
 2668      4552204F 
 2668      46204355 
 2668      52564553 
 2668      20544F20 
 2669 0175 000000   		.space	3
 2670              	.LC29:
 2671 0178 44454352 		.ascii	"DECREASE\000"
 2671      45415345 
 2671      00
 2672 0181 000000   		.space	3
 2673              	.LC30:
 2674 0184 494E4352 		.ascii	"INCREASE\000"
 2674      45415345 
 2674      00
ARM GAS  C:\Users\legoc\AppData\Local\Temp\cchaQR7h.s 			page 60


 2675 018d 000000   		.space	3
 2676              	.LC31:
 2677 0190 53455454 		.ascii	"SETTLING TIME OPTIONS SCREEN\000"
 2677      4C494E47 
 2677      2054494D 
 2677      45204F50 
 2677      54494F4E 
 2678 01ad 000000   		.space	3
 2679              	.LC32:
 2680 01b0 544F5543 		.ascii	"TOUCH COORDINATES\000"
 2680      4820434F 
 2680      4F524449 
 2680      4E415445 
 2680      5300
 2681 01c2 0000     		.space	2
 2682              	.LC33:
 2683 01c4 54455354 		.ascii	"TEST\000"
 2683      00
 2684              		.text
 2685              	.Letext0:
 2686              		.file 2 "d:\\psoc\\psoc creator\\4.2\\psoc creator\\import\\gnu\\arm\\5.4.1\\arm-none-eabi\\includ
 2687              		.file 3 "d:\\psoc\\psoc creator\\4.2\\psoc creator\\import\\gnu\\arm\\5.4.1\\arm-none-eabi\\includ
 2688              		.file 4 "font.h"
 2689              		.file 5 "uifunctions.h"
 2690              		.file 6 "Generated_Source\\PSoC5/D_C.h"
 2691              		.file 7 "Generated_Source\\PSoC5/SPIM.h"
 2692              		.file 8 "Generated_Source\\PSoC5/SS.h"
 2693              		.file 9 "Generated_Source\\PSoC5/CyLib.h"
 2694              		.file 10 "d:\\psoc\\psoc creator\\4.2\\psoc creator\\import\\gnu\\arm\\5.4.1\\arm-none-eabi\\inclu
 2695              		.file 11 "d:\\psoc\\psoc creator\\4.2\\psoc creator\\import\\gnu\\arm\\5.4.1\\arm-none-eabi\\inclu
 2696              		.section	.debug_info,"",%progbits
 2697              	.Ldebug_info0:
 2698 0000 B9240000 		.4byte	0x24b9
 2699 0004 0400     		.2byte	0x4
 2700 0006 00000000 		.4byte	.Ldebug_abbrev0
 2701 000a 04       		.byte	0x4
 2702 000b 01       		.uleb128 0x1
 2703 000c FA010000 		.4byte	.LASF128
 2704 0010 0C       		.byte	0xc
 2705 0011 CA010000 		.4byte	.LASF129
 2706 0015 18010000 		.4byte	.LASF130
 2707 0019 00000000 		.4byte	.Ldebug_ranges0+0
 2708 001d 00000000 		.4byte	0
 2709 0021 00000000 		.4byte	.Ldebug_line0
 2710 0025 02       		.uleb128 0x2
 2711 0026 01       		.byte	0x1
 2712 0027 06       		.byte	0x6
 2713 0028 19060000 		.4byte	.LASF0
 2714 002c 03       		.uleb128 0x3
 2715 002d 74050000 		.4byte	.LASF2
 2716 0031 02       		.byte	0x2
 2717 0032 1D       		.byte	0x1d
 2718 0033 37000000 		.4byte	0x37
 2719 0037 02       		.uleb128 0x2
 2720 0038 01       		.byte	0x1
 2721 0039 08       		.byte	0x8
 2722 003a B5050000 		.4byte	.LASF1
ARM GAS  C:\Users\legoc\AppData\Local\Temp\cchaQR7h.s 			page 61


 2723 003e 03       		.uleb128 0x3
 2724 003f 20040000 		.4byte	.LASF3
 2725 0043 02       		.byte	0x2
 2726 0044 29       		.byte	0x29
 2727 0045 49000000 		.4byte	0x49
 2728 0049 02       		.uleb128 0x2
 2729 004a 02       		.byte	0x2
 2730 004b 05       		.byte	0x5
 2731 004c 16050000 		.4byte	.LASF4
 2732 0050 03       		.uleb128 0x3
 2733 0051 D3010000 		.4byte	.LASF5
 2734 0055 02       		.byte	0x2
 2735 0056 2B       		.byte	0x2b
 2736 0057 5B000000 		.4byte	0x5b
 2737 005b 02       		.uleb128 0x2
 2738 005c 02       		.byte	0x2
 2739 005d 07       		.byte	0x7
 2740 005e 25060000 		.4byte	.LASF6
 2741 0062 02       		.uleb128 0x2
 2742 0063 04       		.byte	0x4
 2743 0064 05       		.byte	0x5
 2744 0065 2B050000 		.4byte	.LASF7
 2745 0069 03       		.uleb128 0x3
 2746 006a C3050000 		.4byte	.LASF8
 2747 006e 02       		.byte	0x2
 2748 006f 41       		.byte	0x41
 2749 0070 74000000 		.4byte	0x74
 2750 0074 02       		.uleb128 0x2
 2751 0075 04       		.byte	0x4
 2752 0076 07       		.byte	0x7
 2753 0077 A3050000 		.4byte	.LASF9
 2754 007b 02       		.uleb128 0x2
 2755 007c 08       		.byte	0x8
 2756 007d 05       		.byte	0x5
 2757 007e F5030000 		.4byte	.LASF10
 2758 0082 02       		.uleb128 0x2
 2759 0083 08       		.byte	0x8
 2760 0084 07       		.byte	0x7
 2761 0085 AA010000 		.4byte	.LASF11
 2762 0089 04       		.uleb128 0x4
 2763 008a 04       		.byte	0x4
 2764 008b 05       		.byte	0x5
 2765 008c 696E7400 		.ascii	"int\000"
 2766 0090 02       		.uleb128 0x2
 2767 0091 04       		.byte	0x4
 2768 0092 07       		.byte	0x7
 2769 0093 46000000 		.4byte	.LASF12
 2770 0097 03       		.uleb128 0x3
 2771 0098 D5030000 		.4byte	.LASF13
 2772 009c 03       		.byte	0x3
 2773 009d 18       		.byte	0x18
 2774 009e 2C000000 		.4byte	0x2c
 2775 00a2 03       		.uleb128 0x3
 2776 00a3 A2010000 		.4byte	.LASF14
 2777 00a7 03       		.byte	0x3
 2778 00a8 20       		.byte	0x20
 2779 00a9 3E000000 		.4byte	0x3e
ARM GAS  C:\Users\legoc\AppData\Local\Temp\cchaQR7h.s 			page 62


 2780 00ad 03       		.uleb128 0x3
 2781 00ae F9040000 		.4byte	.LASF15
 2782 00b2 03       		.byte	0x3
 2783 00b3 24       		.byte	0x24
 2784 00b4 50000000 		.4byte	0x50
 2785 00b8 03       		.uleb128 0x3
 2786 00b9 E5000000 		.4byte	.LASF16
 2787 00bd 03       		.byte	0x3
 2788 00be 30       		.byte	0x30
 2789 00bf 69000000 		.4byte	0x69
 2790 00c3 02       		.uleb128 0x2
 2791 00c4 04       		.byte	0x4
 2792 00c5 04       		.byte	0x4
 2793 00c6 12010000 		.4byte	.LASF17
 2794 00ca 02       		.uleb128 0x2
 2795 00cb 08       		.byte	0x8
 2796 00cc 04       		.byte	0x4
 2797 00cd 52060000 		.4byte	.LASF18
 2798 00d1 02       		.uleb128 0x2
 2799 00d2 01       		.byte	0x1
 2800 00d3 08       		.byte	0x8
 2801 00d4 92030000 		.4byte	.LASF19
 2802 00d8 02       		.uleb128 0x2
 2803 00d9 08       		.byte	0x8
 2804 00da 04       		.byte	0x4
 2805 00db DB040000 		.4byte	.LASF20
 2806 00df 02       		.uleb128 0x2
 2807 00e0 04       		.byte	0x4
 2808 00e1 07       		.byte	0x7
 2809 00e2 9A050000 		.4byte	.LASF21
 2810 00e6 05       		.uleb128 0x5
 2811 00e7 04       		.byte	0x4
 2812 00e8 D1000000 		.4byte	0xd1
 2813 00ec 06       		.uleb128 0x6
 2814 00ed D1000000 		.4byte	0xd1
 2815 00f1 FC000000 		.4byte	0xfc
 2816 00f5 07       		.uleb128 0x7
 2817 00f6 DF000000 		.4byte	0xdf
 2818 00fa 18       		.byte	0x18
 2819 00fb 00       		.byte	0
 2820 00fc 08       		.uleb128 0x8
 2821 00fd A7000000 		.4byte	.LASF22
 2822 0101 01       		.byte	0x1
 2823 0102 2D       		.byte	0x2d
 2824 0103 00000000 		.4byte	.LFB1
 2825 0107 22000000 		.4byte	.LFE1-.LFB1
 2826 010b 01       		.uleb128 0x1
 2827 010c 9C       		.byte	0x9c
 2828 010d 5A010000 		.4byte	0x15a
 2829 0111 09       		.uleb128 0x9
 2830 0112 5C040000 		.4byte	.LASF24
 2831 0116 01       		.byte	0x1
 2832 0117 2D       		.byte	0x2d
 2833 0118 97000000 		.4byte	0x97
 2834 011c 00000000 		.4byte	.LLST0
 2835 0120 0A       		.uleb128 0xa
 2836 0121 0A000000 		.4byte	.LVL2
ARM GAS  C:\Users\legoc\AppData\Local\Temp\cchaQR7h.s 			page 63


 2837 0125 63240000 		.4byte	0x2463
 2838 0129 33010000 		.4byte	0x133
 2839 012d 0B       		.uleb128 0xb
 2840 012e 01       		.uleb128 0x1
 2841 012f 50       		.byte	0x50
 2842 0130 01       		.uleb128 0x1
 2843 0131 30       		.byte	0x30
 2844 0132 00       		.byte	0
 2845 0133 0A       		.uleb128 0xa
 2846 0134 10000000 		.4byte	.LVL3
 2847 0138 6E240000 		.4byte	0x246e
 2848 013c 47010000 		.4byte	0x147
 2849 0140 0B       		.uleb128 0xb
 2850 0141 01       		.uleb128 0x1
 2851 0142 50       		.byte	0x50
 2852 0143 02       		.uleb128 0x2
 2853 0144 74       		.byte	0x74
 2854 0145 00       		.sleb128 0
 2855 0146 00       		.byte	0
 2856 0147 0C       		.uleb128 0xc
 2857 0148 14000000 		.4byte	.LVL4
 2858 014c 79240000 		.4byte	0x2479
 2859 0150 0C       		.uleb128 0xc
 2860 0151 1C000000 		.4byte	.LVL5
 2861 0155 79240000 		.4byte	0x2479
 2862 0159 00       		.byte	0
 2863 015a 08       		.uleb128 0x8
 2864 015b 13000000 		.4byte	.LASF23
 2865 015f 01       		.byte	0x1
 2866 0160 37       		.byte	0x37
 2867 0161 00000000 		.4byte	.LFB2
 2868 0165 22000000 		.4byte	.LFE2-.LFB2
 2869 0169 01       		.uleb128 0x1
 2870 016a 9C       		.byte	0x9c
 2871 016b B8010000 		.4byte	0x1b8
 2872 016f 09       		.uleb128 0x9
 2873 0170 D0030000 		.4byte	.LASF25
 2874 0174 01       		.byte	0x1
 2875 0175 37       		.byte	0x37
 2876 0176 97000000 		.4byte	0x97
 2877 017a 21000000 		.4byte	.LLST1
 2878 017e 0A       		.uleb128 0xa
 2879 017f 0A000000 		.4byte	.LVL8
 2880 0183 63240000 		.4byte	0x2463
 2881 0187 91010000 		.4byte	0x191
 2882 018b 0B       		.uleb128 0xb
 2883 018c 01       		.uleb128 0x1
 2884 018d 50       		.byte	0x50
 2885 018e 01       		.uleb128 0x1
 2886 018f 31       		.byte	0x31
 2887 0190 00       		.byte	0
 2888 0191 0A       		.uleb128 0xa
 2889 0192 10000000 		.4byte	.LVL9
 2890 0196 6E240000 		.4byte	0x246e
 2891 019a A5010000 		.4byte	0x1a5
 2892 019e 0B       		.uleb128 0xb
 2893 019f 01       		.uleb128 0x1
ARM GAS  C:\Users\legoc\AppData\Local\Temp\cchaQR7h.s 			page 64


 2894 01a0 50       		.byte	0x50
 2895 01a1 02       		.uleb128 0x2
 2896 01a2 74       		.byte	0x74
 2897 01a3 00       		.sleb128 0
 2898 01a4 00       		.byte	0
 2899 01a5 0C       		.uleb128 0xc
 2900 01a6 14000000 		.4byte	.LVL10
 2901 01aa 79240000 		.4byte	0x2479
 2902 01ae 0C       		.uleb128 0xc
 2903 01af 1C000000 		.4byte	.LVL11
 2904 01b3 79240000 		.4byte	0x2479
 2905 01b7 00       		.byte	0
 2906 01b8 08       		.uleb128 0x8
 2907 01b9 75000000 		.4byte	.LASF26
 2908 01bd 01       		.byte	0x1
 2909 01be 41       		.byte	0x41
 2910 01bf 00000000 		.4byte	.LFB3
 2911 01c3 BE000000 		.4byte	.LFE3-.LFB3
 2912 01c7 01       		.uleb128 0x1
 2913 01c8 9C       		.byte	0x9c
 2914 01c9 B4030000 		.4byte	0x3b4
 2915 01cd 0D       		.uleb128 0xd
 2916 01ce 7800     		.ascii	"x\000"
 2917 01d0 01       		.byte	0x1
 2918 01d1 41       		.byte	0x41
 2919 01d2 AD000000 		.4byte	0xad
 2920 01d6 42000000 		.4byte	.LLST2
 2921 01da 0D       		.uleb128 0xd
 2922 01db 7900     		.ascii	"y\000"
 2923 01dd 01       		.byte	0x1
 2924 01de 41       		.byte	0x41
 2925 01df AD000000 		.4byte	0xad
 2926 01e3 63000000 		.4byte	.LLST3
 2927 01e7 0D       		.uleb128 0xd
 2928 01e8 7700     		.ascii	"w\000"
 2929 01ea 01       		.byte	0x1
 2930 01eb 41       		.byte	0x41
 2931 01ec AD000000 		.4byte	0xad
 2932 01f0 84000000 		.4byte	.LLST4
 2933 01f4 0D       		.uleb128 0xd
 2934 01f5 6800     		.ascii	"h\000"
 2935 01f7 01       		.byte	0x1
 2936 01f8 41       		.byte	0x41
 2937 01f9 AD000000 		.4byte	0xad
 2938 01fd A5000000 		.4byte	.LLST5
 2939 0201 0E       		.uleb128 0xe
 2940 0202 786100   		.ascii	"xa\000"
 2941 0205 01       		.byte	0x1
 2942 0206 42       		.byte	0x42
 2943 0207 B8000000 		.4byte	0xb8
 2944 020b 01       		.uleb128 0x1
 2945 020c 55       		.byte	0x55
 2946 020d 0E       		.uleb128 0xe
 2947 020e 796100   		.ascii	"ya\000"
 2948 0211 01       		.byte	0x1
 2949 0212 43       		.byte	0x43
 2950 0213 B8000000 		.4byte	0xb8
ARM GAS  C:\Users\legoc\AppData\Local\Temp\cchaQR7h.s 			page 65


 2951 0217 01       		.uleb128 0x1
 2952 0218 54       		.byte	0x54
 2953 0219 0A       		.uleb128 0xa
 2954 021a 18000000 		.4byte	.LVL18
 2955 021e FC000000 		.4byte	0xfc
 2956 0222 2D020000 		.4byte	0x22d
 2957 0226 0B       		.uleb128 0xb
 2958 0227 01       		.uleb128 0x1
 2959 0228 50       		.byte	0x50
 2960 0229 02       		.uleb128 0x2
 2961 022a 08       		.byte	0x8
 2962 022b 2A       		.byte	0x2a
 2963 022c 00       		.byte	0
 2964 022d 0A       		.uleb128 0xa
 2965 022e 1E000000 		.4byte	.LVL19
 2966 0232 63240000 		.4byte	0x2463
 2967 0236 40020000 		.4byte	0x240
 2968 023a 0B       		.uleb128 0xb
 2969 023b 01       		.uleb128 0x1
 2970 023c 50       		.byte	0x50
 2971 023d 01       		.uleb128 0x1
 2972 023e 31       		.byte	0x31
 2973 023f 00       		.byte	0
 2974 0240 0A       		.uleb128 0xa
 2975 0241 24000000 		.4byte	.LVL20
 2976 0245 84240000 		.4byte	0x2484
 2977 0249 53020000 		.4byte	0x253
 2978 024d 0B       		.uleb128 0xb
 2979 024e 01       		.uleb128 0x1
 2980 024f 50       		.byte	0x50
 2981 0250 01       		.uleb128 0x1
 2982 0251 30       		.byte	0x30
 2983 0252 00       		.byte	0
 2984 0253 0A       		.uleb128 0xa
 2985 0254 2A000000 		.4byte	.LVL21
 2986 0258 6E240000 		.4byte	0x246e
 2987 025c 69020000 		.4byte	0x269
 2988 0260 0B       		.uleb128 0xb
 2989 0261 01       		.uleb128 0x1
 2990 0262 50       		.byte	0x50
 2991 0263 04       		.uleb128 0x4
 2992 0264 75       		.byte	0x75
 2993 0265 00       		.sleb128 0
 2994 0266 48       		.byte	0x48
 2995 0267 25       		.byte	0x25
 2996 0268 00       		.byte	0
 2997 0269 0C       		.uleb128 0xc
 2998 026a 2E000000 		.4byte	.LVL22
 2999 026e 79240000 		.4byte	0x2479
 3000 0272 0A       		.uleb128 0xa
 3001 0273 3A000000 		.4byte	.LVL23
 3002 0277 6E240000 		.4byte	0x246e
 3003 027b 8C020000 		.4byte	0x28c
 3004 027f 0B       		.uleb128 0xb
 3005 0280 01       		.uleb128 0x1
 3006 0281 50       		.byte	0x50
 3007 0282 08       		.uleb128 0x8
ARM GAS  C:\Users\legoc\AppData\Local\Temp\cchaQR7h.s 			page 66


 3008 0283 75       		.byte	0x75
 3009 0284 00       		.sleb128 0
 3010 0285 09       		.byte	0x9
 3011 0286 EC       		.byte	0xec
 3012 0287 24       		.byte	0x24
 3013 0288 09       		.byte	0x9
 3014 0289 FC       		.byte	0xfc
 3015 028a 25       		.byte	0x25
 3016 028b 00       		.byte	0
 3017 028c 0C       		.uleb128 0xc
 3018 028d 3E000000 		.4byte	.LVL24
 3019 0291 79240000 		.4byte	0x2479
 3020 0295 0A       		.uleb128 0xa
 3021 0296 4A000000 		.4byte	.LVL25
 3022 029a 6E240000 		.4byte	0x246e
 3023 029e AF020000 		.4byte	0x2af
 3024 02a2 0B       		.uleb128 0xb
 3025 02a3 01       		.uleb128 0x1
 3026 02a4 50       		.byte	0x50
 3027 02a5 08       		.uleb128 0x8
 3028 02a6 75       		.byte	0x75
 3029 02a7 00       		.sleb128 0
 3030 02a8 09       		.byte	0x9
 3031 02a9 F4       		.byte	0xf4
 3032 02aa 24       		.byte	0x24
 3033 02ab 09       		.byte	0x9
 3034 02ac FC       		.byte	0xfc
 3035 02ad 25       		.byte	0x25
 3036 02ae 00       		.byte	0
 3037 02af 0C       		.uleb128 0xc
 3038 02b0 4E000000 		.4byte	.LVL26
 3039 02b4 79240000 		.4byte	0x2479
 3040 02b8 0A       		.uleb128 0xa
 3041 02b9 58000000 		.4byte	.LVL27
 3042 02bd 6E240000 		.4byte	0x246e
 3043 02c1 CC020000 		.4byte	0x2cc
 3044 02c5 0B       		.uleb128 0xb
 3045 02c6 01       		.uleb128 0x1
 3046 02c7 50       		.byte	0x50
 3047 02c8 02       		.uleb128 0x2
 3048 02c9 75       		.byte	0x75
 3049 02ca 00       		.sleb128 0
 3050 02cb 00       		.byte	0
 3051 02cc 0C       		.uleb128 0xc
 3052 02cd 5C000000 		.4byte	.LVL28
 3053 02d1 79240000 		.4byte	0x2479
 3054 02d5 0C       		.uleb128 0xc
 3055 02d6 64000000 		.4byte	.LVL29
 3056 02da 84240000 		.4byte	0x2484
 3057 02de 0A       		.uleb128 0xa
 3058 02df 6A000000 		.4byte	.LVL30
 3059 02e3 FC000000 		.4byte	0xfc
 3060 02e7 F2020000 		.4byte	0x2f2
 3061 02eb 0B       		.uleb128 0xb
 3062 02ec 01       		.uleb128 0x1
 3063 02ed 50       		.byte	0x50
 3064 02ee 02       		.uleb128 0x2
ARM GAS  C:\Users\legoc\AppData\Local\Temp\cchaQR7h.s 			page 67


 3065 02ef 08       		.byte	0x8
 3066 02f0 2B       		.byte	0x2b
 3067 02f1 00       		.byte	0
 3068 02f2 0A       		.uleb128 0xa
 3069 02f3 70000000 		.4byte	.LVL31
 3070 02f7 63240000 		.4byte	0x2463
 3071 02fb 05030000 		.4byte	0x305
 3072 02ff 0B       		.uleb128 0xb
 3073 0300 01       		.uleb128 0x1
 3074 0301 50       		.byte	0x50
 3075 0302 01       		.uleb128 0x1
 3076 0303 31       		.byte	0x31
 3077 0304 00       		.byte	0
 3078 0305 0A       		.uleb128 0xa
 3079 0306 76000000 		.4byte	.LVL32
 3080 030a 84240000 		.4byte	0x2484
 3081 030e 18030000 		.4byte	0x318
 3082 0312 0B       		.uleb128 0xb
 3083 0313 01       		.uleb128 0x1
 3084 0314 50       		.byte	0x50
 3085 0315 01       		.uleb128 0x1
 3086 0316 30       		.byte	0x30
 3087 0317 00       		.byte	0
 3088 0318 0A       		.uleb128 0xa
 3089 0319 7C000000 		.4byte	.LVL33
 3090 031d 6E240000 		.4byte	0x246e
 3091 0321 2E030000 		.4byte	0x32e
 3092 0325 0B       		.uleb128 0xb
 3093 0326 01       		.uleb128 0x1
 3094 0327 50       		.byte	0x50
 3095 0328 04       		.uleb128 0x4
 3096 0329 74       		.byte	0x74
 3097 032a 00       		.sleb128 0
 3098 032b 48       		.byte	0x48
 3099 032c 25       		.byte	0x25
 3100 032d 00       		.byte	0
 3101 032e 0C       		.uleb128 0xc
 3102 032f 80000000 		.4byte	.LVL34
 3103 0333 79240000 		.4byte	0x2479
 3104 0337 0A       		.uleb128 0xa
 3105 0338 8C000000 		.4byte	.LVL35
 3106 033c 6E240000 		.4byte	0x246e
 3107 0340 51030000 		.4byte	0x351
 3108 0344 0B       		.uleb128 0xb
 3109 0345 01       		.uleb128 0x1
 3110 0346 50       		.byte	0x50
 3111 0347 08       		.uleb128 0x8
 3112 0348 74       		.byte	0x74
 3113 0349 00       		.sleb128 0
 3114 034a 09       		.byte	0x9
 3115 034b EC       		.byte	0xec
 3116 034c 24       		.byte	0x24
 3117 034d 09       		.byte	0x9
 3118 034e FC       		.byte	0xfc
 3119 034f 25       		.byte	0x25
 3120 0350 00       		.byte	0
 3121 0351 0C       		.uleb128 0xc
ARM GAS  C:\Users\legoc\AppData\Local\Temp\cchaQR7h.s 			page 68


 3122 0352 90000000 		.4byte	.LVL36
 3123 0356 79240000 		.4byte	0x2479
 3124 035a 0A       		.uleb128 0xa
 3125 035b 9C000000 		.4byte	.LVL37
 3126 035f 6E240000 		.4byte	0x246e
 3127 0363 74030000 		.4byte	0x374
 3128 0367 0B       		.uleb128 0xb
 3129 0368 01       		.uleb128 0x1
 3130 0369 50       		.byte	0x50
 3131 036a 08       		.uleb128 0x8
 3132 036b 74       		.byte	0x74
 3133 036c 00       		.sleb128 0
 3134 036d 09       		.byte	0x9
 3135 036e F4       		.byte	0xf4
 3136 036f 24       		.byte	0x24
 3137 0370 09       		.byte	0x9
 3138 0371 FC       		.byte	0xfc
 3139 0372 25       		.byte	0x25
 3140 0373 00       		.byte	0
 3141 0374 0C       		.uleb128 0xc
 3142 0375 A0000000 		.4byte	.LVL38
 3143 0379 79240000 		.4byte	0x2479
 3144 037d 0A       		.uleb128 0xa
 3145 037e AA000000 		.4byte	.LVL39
 3146 0382 6E240000 		.4byte	0x246e
 3147 0386 91030000 		.4byte	0x391
 3148 038a 0B       		.uleb128 0xb
 3149 038b 01       		.uleb128 0x1
 3150 038c 50       		.byte	0x50
 3151 038d 02       		.uleb128 0x2
 3152 038e 74       		.byte	0x74
 3153 038f 00       		.sleb128 0
 3154 0390 00       		.byte	0
 3155 0391 0C       		.uleb128 0xc
 3156 0392 AE000000 		.4byte	.LVL40
 3157 0396 79240000 		.4byte	0x2479
 3158 039a 0C       		.uleb128 0xc
 3159 039b B6000000 		.4byte	.LVL41
 3160 039f 84240000 		.4byte	0x2484
 3161 03a3 0F       		.uleb128 0xf
 3162 03a4 BC000000 		.4byte	.LVL42
 3163 03a8 FC000000 		.4byte	0xfc
 3164 03ac 0B       		.uleb128 0xb
 3165 03ad 01       		.uleb128 0x1
 3166 03ae 50       		.byte	0x50
 3167 03af 02       		.uleb128 0x2
 3168 03b0 08       		.byte	0x8
 3169 03b1 2C       		.byte	0x2c
 3170 03b2 00       		.byte	0
 3171 03b3 00       		.byte	0
 3172 03b4 08       		.uleb128 0x8
 3173 03b5 E7040000 		.4byte	.LASF27
 3174 03b9 01       		.byte	0x1
 3175 03ba 69       		.byte	0x69
 3176 03bb 00000000 		.4byte	.LFB4
 3177 03bf 90000000 		.4byte	.LFE4-.LFB4
 3178 03c3 01       		.uleb128 0x1
ARM GAS  C:\Users\legoc\AppData\Local\Temp\cchaQR7h.s 			page 69


 3179 03c4 9C       		.byte	0x9c
 3180 03c5 BF040000 		.4byte	0x4bf
 3181 03c9 0D       		.uleb128 0xd
 3182 03ca 7800     		.ascii	"x\000"
 3183 03cc 01       		.byte	0x1
 3184 03cd 69       		.byte	0x69
 3185 03ce A2000000 		.4byte	0xa2
 3186 03d2 C6000000 		.4byte	.LLST6
 3187 03d6 0D       		.uleb128 0xd
 3188 03d7 7900     		.ascii	"y\000"
 3189 03d9 01       		.byte	0x1
 3190 03da 69       		.byte	0x69
 3191 03db A2000000 		.4byte	0xa2
 3192 03df 08010000 		.4byte	.LLST7
 3193 03e3 0D       		.uleb128 0xd
 3194 03e4 7700     		.ascii	"w\000"
 3195 03e6 01       		.byte	0x1
 3196 03e7 69       		.byte	0x69
 3197 03e8 A2000000 		.4byte	0xa2
 3198 03ec 3F010000 		.4byte	.LLST8
 3199 03f0 0D       		.uleb128 0xd
 3200 03f1 6800     		.ascii	"h\000"
 3201 03f3 01       		.byte	0x1
 3202 03f4 69       		.byte	0x69
 3203 03f5 A2000000 		.4byte	0xa2
 3204 03f9 5D010000 		.4byte	.LLST9
 3205 03fd 10       		.uleb128 0x10
 3206 03fe 6E050000 		.4byte	.LASF28
 3207 0402 01       		.byte	0x1
 3208 0403 6A       		.byte	0x6a
 3209 0404 AD000000 		.4byte	0xad
 3210 0408 02       		.uleb128 0x2
 3211 0409 91       		.byte	0x91
 3212 040a 00       		.sleb128 0
 3213 040b 11       		.uleb128 0x11
 3214 040c 686900   		.ascii	"hi\000"
 3215 040f 01       		.byte	0x1
 3216 0410 76       		.byte	0x76
 3217 0411 97000000 		.4byte	0x97
 3218 0415 89010000 		.4byte	.LLST10
 3219 0419 11       		.uleb128 0x11
 3220 041a 6C6F00   		.ascii	"lo\000"
 3221 041d 01       		.byte	0x1
 3222 041e 76       		.byte	0x76
 3223 041f 97000000 		.4byte	0x97
 3224 0423 9C010000 		.4byte	.LLST11
 3225 0427 0A       		.uleb128 0xa
 3226 0428 44000000 		.4byte	.LVL47
 3227 042c B8010000 		.4byte	0x1b8
 3228 0430 4F040000 		.4byte	0x44f
 3229 0434 0B       		.uleb128 0xb
 3230 0435 01       		.uleb128 0x1
 3231 0436 50       		.byte	0x50
 3232 0437 03       		.uleb128 0x3
 3233 0438 F3       		.byte	0xf3
 3234 0439 01       		.uleb128 0x1
 3235 043a 50       		.byte	0x50
ARM GAS  C:\Users\legoc\AppData\Local\Temp\cchaQR7h.s 			page 70


 3236 043b 0B       		.uleb128 0xb
 3237 043c 01       		.uleb128 0x1
 3238 043d 51       		.byte	0x51
 3239 043e 03       		.uleb128 0x3
 3240 043f F3       		.byte	0xf3
 3241 0440 01       		.uleb128 0x1
 3242 0441 51       		.byte	0x51
 3243 0442 0B       		.uleb128 0xb
 3244 0443 01       		.uleb128 0x1
 3245 0444 52       		.byte	0x52
 3246 0445 02       		.uleb128 0x2
 3247 0446 78       		.byte	0x78
 3248 0447 00       		.sleb128 0
 3249 0448 0B       		.uleb128 0xb
 3250 0449 01       		.uleb128 0x1
 3251 044a 53       		.byte	0x53
 3252 044b 02       		.uleb128 0x2
 3253 044c 77       		.byte	0x77
 3254 044d 00       		.sleb128 0
 3255 044e 00       		.byte	0
 3256 044f 0A       		.uleb128 0xa
 3257 0450 4E000000 		.4byte	.LVL50
 3258 0454 63240000 		.4byte	0x2463
 3259 0458 62040000 		.4byte	0x462
 3260 045c 0B       		.uleb128 0xb
 3261 045d 01       		.uleb128 0x1
 3262 045e 50       		.byte	0x50
 3263 045f 01       		.uleb128 0x1
 3264 0460 31       		.byte	0x31
 3265 0461 00       		.byte	0
 3266 0462 0A       		.uleb128 0xa
 3267 0463 54000000 		.4byte	.LVL51
 3268 0467 84240000 		.4byte	0x2484
 3269 046b 75040000 		.4byte	0x475
 3270 046f 0B       		.uleb128 0xb
 3271 0470 01       		.uleb128 0x1
 3272 0471 50       		.byte	0x50
 3273 0472 01       		.uleb128 0x1
 3274 0473 30       		.byte	0x30
 3275 0474 00       		.byte	0
 3276 0475 0A       		.uleb128 0xa
 3277 0476 5C000000 		.4byte	.LVL53
 3278 047a 6E240000 		.4byte	0x246e
 3279 047e 89040000 		.4byte	0x489
 3280 0482 0B       		.uleb128 0xb
 3281 0483 01       		.uleb128 0x1
 3282 0484 50       		.byte	0x50
 3283 0485 02       		.uleb128 0x2
 3284 0486 76       		.byte	0x76
 3285 0487 00       		.sleb128 0
 3286 0488 00       		.byte	0
 3287 0489 0C       		.uleb128 0xc
 3288 048a 60000000 		.4byte	.LVL54
 3289 048e 79240000 		.4byte	0x2479
 3290 0492 0A       		.uleb128 0xa
 3291 0493 6A000000 		.4byte	.LVL55
 3292 0497 6E240000 		.4byte	0x246e
ARM GAS  C:\Users\legoc\AppData\Local\Temp\cchaQR7h.s 			page 71


 3293 049b A6040000 		.4byte	0x4a6
 3294 049f 0B       		.uleb128 0xb
 3295 04a0 01       		.uleb128 0x1
 3296 04a1 50       		.byte	0x50
 3297 04a2 02       		.uleb128 0x2
 3298 04a3 75       		.byte	0x75
 3299 04a4 00       		.sleb128 0
 3300 04a5 00       		.byte	0
 3301 04a6 0C       		.uleb128 0xc
 3302 04a7 6E000000 		.4byte	.LVL56
 3303 04ab 79240000 		.4byte	0x2479
 3304 04af 0F       		.uleb128 0xf
 3305 04b0 8C000000 		.4byte	.LVL63
 3306 04b4 84240000 		.4byte	0x2484
 3307 04b8 0B       		.uleb128 0xb
 3308 04b9 01       		.uleb128 0x1
 3309 04ba 50       		.byte	0x50
 3310 04bb 01       		.uleb128 0x1
 3311 04bc 31       		.byte	0x31
 3312 04bd 00       		.byte	0
 3313 04be 00       		.byte	0
 3314 04bf 08       		.uleb128 0x8
 3315 04c0 D6020000 		.4byte	.LASF29
 3316 04c4 01       		.byte	0x1
 3317 04c5 92       		.byte	0x92
 3318 04c6 00000000 		.4byte	.LFB5
 3319 04ca 2A000000 		.4byte	.LFE5-.LFB5
 3320 04ce 01       		.uleb128 0x1
 3321 04cf 9C       		.byte	0x9c
 3322 04d0 36050000 		.4byte	0x536
 3323 04d4 0D       		.uleb128 0xd
 3324 04d5 7800     		.ascii	"x\000"
 3325 04d7 01       		.byte	0x1
 3326 04d8 92       		.byte	0x92
 3327 04d9 A2000000 		.4byte	0xa2
 3328 04dd AF010000 		.4byte	.LLST12
 3329 04e1 0D       		.uleb128 0xd
 3330 04e2 7900     		.ascii	"y\000"
 3331 04e4 01       		.byte	0x1
 3332 04e5 92       		.byte	0x92
 3333 04e6 A2000000 		.4byte	0xa2
 3334 04ea D0010000 		.4byte	.LLST13
 3335 04ee 0D       		.uleb128 0xd
 3336 04ef 7700     		.ascii	"w\000"
 3337 04f1 01       		.byte	0x1
 3338 04f2 92       		.byte	0x92
 3339 04f3 A2000000 		.4byte	0xa2
 3340 04f7 F1010000 		.4byte	.LLST14
 3341 04fb 0D       		.uleb128 0xd
 3342 04fc 6800     		.ascii	"h\000"
 3343 04fe 01       		.byte	0x1
 3344 04ff 92       		.byte	0x92
 3345 0500 A2000000 		.4byte	0xa2
 3346 0504 12020000 		.4byte	.LLST15
 3347 0508 10       		.uleb128 0x10
 3348 0509 6E050000 		.4byte	.LASF28
 3349 050d 01       		.byte	0x1
ARM GAS  C:\Users\legoc\AppData\Local\Temp\cchaQR7h.s 			page 72


 3350 050e 93       		.byte	0x93
 3351 050f AD000000 		.4byte	0xad
 3352 0513 02       		.uleb128 0x2
 3353 0514 91       		.byte	0x91
 3354 0515 00       		.sleb128 0
 3355 0516 0F       		.uleb128 0xf
 3356 0517 26000000 		.4byte	.LVL69
 3357 051b B4030000 		.4byte	0x3b4
 3358 051f 0B       		.uleb128 0xb
 3359 0520 01       		.uleb128 0x1
 3360 0521 51       		.byte	0x51
 3361 0522 02       		.uleb128 0x2
 3362 0523 74       		.byte	0x74
 3363 0524 00       		.sleb128 0
 3364 0525 0B       		.uleb128 0xb
 3365 0526 01       		.uleb128 0x1
 3366 0527 53       		.byte	0x53
 3367 0528 02       		.uleb128 0x2
 3368 0529 75       		.byte	0x75
 3369 052a 00       		.sleb128 0
 3370 052b 0B       		.uleb128 0xb
 3371 052c 02       		.uleb128 0x2
 3372 052d 7D       		.byte	0x7d
 3373 052e 00       		.sleb128 0
 3374 052f 04       		.uleb128 0x4
 3375 0530 91       		.byte	0x91
 3376 0531 00       		.sleb128 0
 3377 0532 94       		.byte	0x94
 3378 0533 02       		.byte	0x2
 3379 0534 00       		.byte	0
 3380 0535 00       		.byte	0
 3381 0536 08       		.uleb128 0x8
 3382 0537 F2050000 		.4byte	.LASF30
 3383 053b 01       		.byte	0x1
 3384 053c 99       		.byte	0x99
 3385 053d 00000000 		.4byte	.LFB6
 3386 0541 1A000000 		.4byte	.LFE6-.LFB6
 3387 0545 01       		.uleb128 0x1
 3388 0546 9C       		.byte	0x9c
 3389 0547 7C050000 		.4byte	0x57c
 3390 054b 09       		.uleb128 0x9
 3391 054c 6E050000 		.4byte	.LASF28
 3392 0550 01       		.byte	0x1
 3393 0551 99       		.byte	0x99
 3394 0552 AD000000 		.4byte	0xad
 3395 0556 33020000 		.4byte	.LLST16
 3396 055a 0F       		.uleb128 0xf
 3397 055b 14000000 		.4byte	.LVL72
 3398 055f BF040000 		.4byte	0x4bf
 3399 0563 0B       		.uleb128 0xb
 3400 0564 01       		.uleb128 0x1
 3401 0565 50       		.byte	0x50
 3402 0566 01       		.uleb128 0x1
 3403 0567 30       		.byte	0x30
 3404 0568 0B       		.uleb128 0xb
 3405 0569 01       		.uleb128 0x1
 3406 056a 51       		.byte	0x51
ARM GAS  C:\Users\legoc\AppData\Local\Temp\cchaQR7h.s 			page 73


 3407 056b 01       		.uleb128 0x1
 3408 056c 30       		.byte	0x30
 3409 056d 0B       		.uleb128 0xb
 3410 056e 01       		.uleb128 0x1
 3411 056f 52       		.byte	0x52
 3412 0570 03       		.uleb128 0x3
 3413 0571 0A       		.byte	0xa
 3414 0572 4001     		.2byte	0x140
 3415 0574 0B       		.uleb128 0xb
 3416 0575 01       		.uleb128 0x1
 3417 0576 53       		.byte	0x53
 3418 0577 02       		.uleb128 0x2
 3419 0578 08       		.byte	0x8
 3420 0579 F0       		.byte	0xf0
 3421 057a 00       		.byte	0
 3422 057b 00       		.byte	0
 3423 057c 12       		.uleb128 0x12
 3424 057d 83000000 		.4byte	.LASF69
 3425 0581 01       		.byte	0x1
 3426 0582 9F       		.byte	0x9f
 3427 0583 00000000 		.4byte	.LFB7
 3428 0587 40000000 		.4byte	.LFE7-.LFB7
 3429 058b 01       		.uleb128 0x1
 3430 058c 9C       		.byte	0x9c
 3431 058d EE050000 		.4byte	0x5ee
 3432 0591 11       		.uleb128 0x11
 3433 0592 636D6400 		.ascii	"cmd\000"
 3434 0596 01       		.byte	0x1
 3435 0597 A1       		.byte	0xa1
 3436 0598 97000000 		.4byte	0x97
 3437 059c 54020000 		.4byte	.LLST17
 3438 05a0 11       		.uleb128 0x11
 3439 05a1 7800     		.ascii	"x\000"
 3440 05a3 01       		.byte	0x1
 3441 05a4 A1       		.byte	0xa1
 3442 05a5 97000000 		.4byte	0x97
 3443 05a9 72020000 		.4byte	.LLST18
 3444 05ad 13       		.uleb128 0x13
 3445 05ae FF000000 		.4byte	.LASF31
 3446 05b2 01       		.byte	0x1
 3447 05b3 A1       		.byte	0xa1
 3448 05b4 97000000 		.4byte	0x97
 3449 05b8 85020000 		.4byte	.LLST19
 3450 05bc 13       		.uleb128 0x13
 3451 05bd ED050000 		.4byte	.LASF32
 3452 05c1 01       		.byte	0x1
 3453 05c2 A2       		.byte	0xa2
 3454 05c3 EE050000 		.4byte	0x5ee
 3455 05c7 B9020000 		.4byte	.LLST20
 3456 05cb 0C       		.uleb128 0xc
 3457 05cc 0A000000 		.4byte	.LVL75
 3458 05d0 FC000000 		.4byte	0xfc
 3459 05d4 0C       		.uleb128 0xc
 3460 05d5 1C000000 		.4byte	.LVL81
 3461 05d9 5A010000 		.4byte	0x15a
 3462 05dd 0F       		.uleb128 0xf
 3463 05de 34000000 		.4byte	.LVL84
ARM GAS  C:\Users\legoc\AppData\Local\Temp\cchaQR7h.s 			page 74


 3464 05e2 8F240000 		.4byte	0x248f
 3465 05e6 0B       		.uleb128 0xb
 3466 05e7 01       		.uleb128 0x1
 3467 05e8 50       		.byte	0x50
 3468 05e9 02       		.uleb128 0x2
 3469 05ea 08       		.byte	0x8
 3470 05eb 78       		.byte	0x78
 3471 05ec 00       		.byte	0
 3472 05ed 00       		.byte	0
 3473 05ee 05       		.uleb128 0x5
 3474 05ef 04       		.byte	0x4
 3475 05f0 F4050000 		.4byte	0x5f4
 3476 05f4 14       		.uleb128 0x14
 3477 05f5 97000000 		.4byte	0x97
 3478 05f9 08       		.uleb128 0x8
 3479 05fa CE040000 		.4byte	.LASF33
 3480 05fe 01       		.byte	0x1
 3481 05ff B2       		.byte	0xb2
 3482 0600 00000000 		.4byte	.LFB8
 3483 0604 4E000000 		.4byte	.LFE8-.LFB8
 3484 0608 01       		.uleb128 0x1
 3485 0609 9C       		.byte	0x9c
 3486 060a C9060000 		.4byte	0x6c9
 3487 060e 0D       		.uleb128 0xd
 3488 060f 7800     		.ascii	"x\000"
 3489 0611 01       		.byte	0x1
 3490 0612 B2       		.byte	0xb2
 3491 0613 A2000000 		.4byte	0xa2
 3492 0617 19030000 		.4byte	.LLST21
 3493 061b 0D       		.uleb128 0xd
 3494 061c 7900     		.ascii	"y\000"
 3495 061e 01       		.byte	0x1
 3496 061f B2       		.byte	0xb2
 3497 0620 A2000000 		.4byte	0xa2
 3498 0624 3A030000 		.4byte	.LLST22
 3499 0628 09       		.uleb128 0x9
 3500 0629 6E050000 		.4byte	.LASF28
 3501 062d 01       		.byte	0x1
 3502 062e B2       		.byte	0xb2
 3503 062f AD000000 		.4byte	0xad
 3504 0633 66030000 		.4byte	.LLST23
 3505 0637 0A       		.uleb128 0xa
 3506 0638 1E000000 		.4byte	.LVL89
 3507 063c B8010000 		.4byte	0x1b8
 3508 0640 5D060000 		.4byte	0x65d
 3509 0644 0B       		.uleb128 0xb
 3510 0645 01       		.uleb128 0x1
 3511 0646 50       		.byte	0x50
 3512 0647 03       		.uleb128 0x3
 3513 0648 F3       		.byte	0xf3
 3514 0649 01       		.uleb128 0x1
 3515 064a 50       		.byte	0x50
 3516 064b 0B       		.uleb128 0xb
 3517 064c 01       		.uleb128 0x1
 3518 064d 51       		.byte	0x51
 3519 064e 03       		.uleb128 0x3
 3520 064f F3       		.byte	0xf3
ARM GAS  C:\Users\legoc\AppData\Local\Temp\cchaQR7h.s 			page 75


 3521 0650 01       		.uleb128 0x1
 3522 0651 51       		.byte	0x51
 3523 0652 0B       		.uleb128 0xb
 3524 0653 01       		.uleb128 0x1
 3525 0654 52       		.byte	0x52
 3526 0655 01       		.uleb128 0x1
 3527 0656 31       		.byte	0x31
 3528 0657 0B       		.uleb128 0xb
 3529 0658 01       		.uleb128 0x1
 3530 0659 53       		.byte	0x53
 3531 065a 01       		.uleb128 0x1
 3532 065b 31       		.byte	0x31
 3533 065c 00       		.byte	0
 3534 065d 0A       		.uleb128 0xa
 3535 065e 24000000 		.4byte	.LVL90
 3536 0662 63240000 		.4byte	0x2463
 3537 0666 70060000 		.4byte	0x670
 3538 066a 0B       		.uleb128 0xb
 3539 066b 01       		.uleb128 0x1
 3540 066c 50       		.byte	0x50
 3541 066d 01       		.uleb128 0x1
 3542 066e 31       		.byte	0x31
 3543 066f 00       		.byte	0
 3544 0670 0A       		.uleb128 0xa
 3545 0671 2A000000 		.4byte	.LVL91
 3546 0675 84240000 		.4byte	0x2484
 3547 0679 83060000 		.4byte	0x683
 3548 067d 0B       		.uleb128 0xb
 3549 067e 01       		.uleb128 0x1
 3550 067f 50       		.byte	0x50
 3551 0680 01       		.uleb128 0x1
 3552 0681 30       		.byte	0x30
 3553 0682 00       		.byte	0
 3554 0683 0A       		.uleb128 0xa
 3555 0684 30000000 		.4byte	.LVL92
 3556 0688 6E240000 		.4byte	0x246e
 3557 068c 99060000 		.4byte	0x699
 3558 0690 0B       		.uleb128 0xb
 3559 0691 01       		.uleb128 0x1
 3560 0692 50       		.byte	0x50
 3561 0693 04       		.uleb128 0x4
 3562 0694 74       		.byte	0x74
 3563 0695 00       		.sleb128 0
 3564 0696 38       		.byte	0x38
 3565 0697 25       		.byte	0x25
 3566 0698 00       		.byte	0
 3567 0699 0C       		.uleb128 0xc
 3568 069a 34000000 		.4byte	.LVL93
 3569 069e 79240000 		.4byte	0x2479
 3570 06a2 0A       		.uleb128 0xa
 3571 06a3 3E000000 		.4byte	.LVL94
 3572 06a7 6E240000 		.4byte	0x246e
 3573 06ab B6060000 		.4byte	0x6b6
 3574 06af 0B       		.uleb128 0xb
 3575 06b0 01       		.uleb128 0x1
 3576 06b1 50       		.byte	0x50
 3577 06b2 02       		.uleb128 0x2
ARM GAS  C:\Users\legoc\AppData\Local\Temp\cchaQR7h.s 			page 76


 3578 06b3 74       		.byte	0x74
 3579 06b4 00       		.sleb128 0
 3580 06b5 00       		.byte	0
 3581 06b6 0C       		.uleb128 0xc
 3582 06b7 42000000 		.4byte	.LVL95
 3583 06bb 79240000 		.4byte	0x2479
 3584 06bf 0C       		.uleb128 0xc
 3585 06c0 4A000000 		.4byte	.LVL96
 3586 06c4 84240000 		.4byte	0x2484
 3587 06c8 00       		.byte	0
 3588 06c9 08       		.uleb128 0x8
 3589 06ca 20050000 		.4byte	.LASF34
 3590 06ce 01       		.byte	0x1
 3591 06cf CD       		.byte	0xcd
 3592 06d0 00000000 		.4byte	.LFB9
 3593 06d4 16000000 		.4byte	.LFE9-.LFB9
 3594 06d8 01       		.uleb128 0x1
 3595 06d9 9C       		.byte	0x9c
 3596 06da 11070000 		.4byte	0x711
 3597 06de 0D       		.uleb128 0xd
 3598 06df 7800     		.ascii	"x\000"
 3599 06e1 01       		.byte	0x1
 3600 06e2 CD       		.byte	0xcd
 3601 06e3 A2000000 		.4byte	0xa2
 3602 06e7 92030000 		.4byte	.LLST24
 3603 06eb 0D       		.uleb128 0xd
 3604 06ec 7900     		.ascii	"y\000"
 3605 06ee 01       		.byte	0x1
 3606 06ef CD       		.byte	0xcd
 3607 06f0 A2000000 		.4byte	0xa2
 3608 06f4 B3030000 		.4byte	.LLST25
 3609 06f8 09       		.uleb128 0x9
 3610 06f9 6E050000 		.4byte	.LASF28
 3611 06fd 01       		.byte	0x1
 3612 06fe CD       		.byte	0xcd
 3613 06ff AD000000 		.4byte	0xad
 3614 0703 D4030000 		.4byte	.LLST26
 3615 0707 0C       		.uleb128 0xc
 3616 0708 14000000 		.4byte	.LVL101
 3617 070c F9050000 		.4byte	0x5f9
 3618 0710 00       		.byte	0
 3619 0711 08       		.uleb128 0x8
 3620 0712 8F000000 		.4byte	.LASF35
 3621 0716 01       		.byte	0x1
 3622 0717 D4       		.byte	0xd4
 3623 0718 00000000 		.4byte	.LFB10
 3624 071c BE000000 		.4byte	.LFE10-.LFB10
 3625 0720 01       		.uleb128 0x1
 3626 0721 9C       		.byte	0x9c
 3627 0722 55080000 		.4byte	0x855
 3628 0726 0D       		.uleb128 0xd
 3629 0727 783000   		.ascii	"x0\000"
 3630 072a 01       		.byte	0x1
 3631 072b D4       		.byte	0xd4
 3632 072c A2000000 		.4byte	0xa2
 3633 0730 F5030000 		.4byte	.LLST27
 3634 0734 0D       		.uleb128 0xd
ARM GAS  C:\Users\legoc\AppData\Local\Temp\cchaQR7h.s 			page 77


 3635 0735 793000   		.ascii	"y0\000"
 3636 0738 01       		.byte	0x1
 3637 0739 D4       		.byte	0xd4
 3638 073a A2000000 		.4byte	0xa2
 3639 073e 29040000 		.4byte	.LLST28
 3640 0742 0D       		.uleb128 0xd
 3641 0743 783100   		.ascii	"x1\000"
 3642 0746 01       		.byte	0x1
 3643 0747 D4       		.byte	0xd4
 3644 0748 A2000000 		.4byte	0xa2
 3645 074c 5D040000 		.4byte	.LLST29
 3646 0750 0D       		.uleb128 0xd
 3647 0751 793100   		.ascii	"y1\000"
 3648 0754 01       		.byte	0x1
 3649 0755 D4       		.byte	0xd4
 3650 0756 A2000000 		.4byte	0xa2
 3651 075a 89040000 		.4byte	.LLST30
 3652 075e 10       		.uleb128 0x10
 3653 075f 6E050000 		.4byte	.LASF28
 3654 0763 01       		.byte	0x1
 3655 0764 D5       		.byte	0xd5
 3656 0765 AD000000 		.4byte	0xad
 3657 0769 02       		.uleb128 0x2
 3658 076a 91       		.byte	0x91
 3659 076b 00       		.sleb128 0
 3660 076c 15       		.uleb128 0x15
 3661 076d EF030000 		.4byte	.LASF36
 3662 0771 01       		.byte	0x1
 3663 0772 D7       		.byte	0xd7
 3664 0773 A2000000 		.4byte	0xa2
 3665 0777 09       		.uleb128 0x9
 3666 0778 78       		.byte	0x78
 3667 0779 00       		.sleb128 0
 3668 077a 79       		.byte	0x79
 3669 077b 00       		.sleb128 0
 3670 077c 2B       		.byte	0x2b
 3671 077d 08       		.byte	0x8
 3672 077e FF       		.byte	0xff
 3673 077f 1A       		.byte	0x1a
 3674 0780 9F       		.byte	0x9f
 3675 0781 11       		.uleb128 0x11
 3676 0782 647800   		.ascii	"dx\000"
 3677 0785 01       		.byte	0x1
 3678 0786 E3       		.byte	0xe3
 3679 0787 A2000000 		.4byte	0xa2
 3680 078b CB040000 		.4byte	.LLST31
 3681 078f 0E       		.uleb128 0xe
 3682 0790 647900   		.ascii	"dy\000"
 3683 0793 01       		.byte	0x1
 3684 0794 E3       		.byte	0xe3
 3685 0795 A2000000 		.4byte	0xa2
 3686 0799 01       		.uleb128 0x1
 3687 079a 5A       		.byte	0x5a
 3688 079b 11       		.uleb128 0x11
 3689 079c 65727200 		.ascii	"err\000"
 3690 07a0 01       		.byte	0x1
 3691 07a1 E7       		.byte	0xe7
ARM GAS  C:\Users\legoc\AppData\Local\Temp\cchaQR7h.s 			page 78


 3692 07a2 A2000000 		.4byte	0xa2
 3693 07a6 E9040000 		.4byte	.LLST32
 3694 07aa 15       		.uleb128 0x15
 3695 07ab 94050000 		.4byte	.LASF37
 3696 07af 01       		.byte	0x1
 3697 07b0 E8       		.byte	0xe8
 3698 07b1 A2000000 		.4byte	0xa2
 3699 07b5 02       		.uleb128 0x2
 3700 07b6 91       		.byte	0x91
 3701 07b7 54       		.sleb128 -44
 3702 07b8 16       		.uleb128 0x16
 3703 07b9 34000000 		.4byte	.LBB2
 3704 07bd 04000000 		.4byte	.LBE2-.LBB2
 3705 07c1 CF070000 		.4byte	0x7cf
 3706 07c5 17       		.uleb128 0x17
 3707 07c6 7400     		.ascii	"t\000"
 3708 07c8 01       		.byte	0x1
 3709 07c9 DB       		.byte	0xdb
 3710 07ca A2000000 		.4byte	0xa2
 3711 07ce 00       		.byte	0
 3712 07cf 16       		.uleb128 0x16
 3713 07d0 38000000 		.4byte	.LBB3
 3714 07d4 04000000 		.4byte	.LBE3-.LBB3
 3715 07d8 E6070000 		.4byte	0x7e6
 3716 07dc 17       		.uleb128 0x17
 3717 07dd 7400     		.ascii	"t\000"
 3718 07df 01       		.byte	0x1
 3719 07e0 DA       		.byte	0xda
 3720 07e1 A2000000 		.4byte	0xa2
 3721 07e5 00       		.byte	0
 3722 07e6 16       		.uleb128 0x16
 3723 07e7 42000000 		.4byte	.LBB4
 3724 07eb 04000000 		.4byte	.LBE4-.LBB4
 3725 07ef FD070000 		.4byte	0x7fd
 3726 07f3 17       		.uleb128 0x17
 3727 07f4 7400     		.ascii	"t\000"
 3728 07f6 01       		.byte	0x1
 3729 07f7 E0       		.byte	0xe0
 3730 07f8 A2000000 		.4byte	0xa2
 3731 07fc 00       		.byte	0
 3732 07fd 16       		.uleb128 0x16
 3733 07fe 48000000 		.4byte	.LBB5
 3734 0802 04000000 		.4byte	.LBE5-.LBB5
 3735 0806 14080000 		.4byte	0x814
 3736 080a 17       		.uleb128 0x17
 3737 080b 7400     		.ascii	"t\000"
 3738 080d 01       		.byte	0x1
 3739 080e DF       		.byte	0xdf
 3740 080f A2000000 		.4byte	0xa2
 3741 0813 00       		.byte	0
 3742 0814 0A       		.uleb128 0xa
 3743 0815 8C000000 		.4byte	.LVL119
 3744 0819 C9060000 		.4byte	0x6c9
 3745 081d 36080000 		.4byte	0x836
 3746 0821 0B       		.uleb128 0xb
 3747 0822 01       		.uleb128 0x1
 3748 0823 50       		.byte	0x50
ARM GAS  C:\Users\legoc\AppData\Local\Temp\cchaQR7h.s 			page 79


 3749 0824 02       		.uleb128 0x2
 3750 0825 76       		.byte	0x76
 3751 0826 00       		.sleb128 0
 3752 0827 0B       		.uleb128 0xb
 3753 0828 01       		.uleb128 0x1
 3754 0829 51       		.byte	0x51
 3755 082a 02       		.uleb128 0x2
 3756 082b 75       		.byte	0x75
 3757 082c 00       		.sleb128 0
 3758 082d 0B       		.uleb128 0xb
 3759 082e 01       		.uleb128 0x1
 3760 082f 52       		.byte	0x52
 3761 0830 04       		.uleb128 0x4
 3762 0831 7D       		.byte	0x7d
 3763 0832 00       		.sleb128 0
 3764 0833 94       		.byte	0x94
 3765 0834 02       		.byte	0x2
 3766 0835 00       		.byte	0
 3767 0836 0F       		.uleb128 0xf
 3768 0837 98000000 		.4byte	.LVL120
 3769 083b C9060000 		.4byte	0x6c9
 3770 083f 0B       		.uleb128 0xb
 3771 0840 01       		.uleb128 0x1
 3772 0841 50       		.byte	0x50
 3773 0842 02       		.uleb128 0x2
 3774 0843 75       		.byte	0x75
 3775 0844 00       		.sleb128 0
 3776 0845 0B       		.uleb128 0xb
 3777 0846 01       		.uleb128 0x1
 3778 0847 51       		.byte	0x51
 3779 0848 02       		.uleb128 0x2
 3780 0849 76       		.byte	0x76
 3781 084a 00       		.sleb128 0
 3782 084b 0B       		.uleb128 0xb
 3783 084c 01       		.uleb128 0x1
 3784 084d 52       		.byte	0x52
 3785 084e 04       		.uleb128 0x4
 3786 084f 7D       		.byte	0x7d
 3787 0850 00       		.sleb128 0
 3788 0851 94       		.byte	0x94
 3789 0852 02       		.byte	0x2
 3790 0853 00       		.byte	0
 3791 0854 00       		.byte	0
 3792 0855 18       		.uleb128 0x18
 3793 0856 9E040000 		.4byte	.LASF38
 3794 085a 01       		.byte	0x1
 3795 085b 0401     		.2byte	0x104
 3796 085d 00000000 		.4byte	.LFB11
 3797 0861 18000000 		.4byte	.LFE11-.LFB11
 3798 0865 01       		.uleb128 0x1
 3799 0866 9C       		.byte	0x9c
 3800 0867 AF080000 		.4byte	0x8af
 3801 086b 19       		.uleb128 0x19
 3802 086c 7800     		.ascii	"x\000"
 3803 086e 01       		.byte	0x1
 3804 086f 0401     		.2byte	0x104
 3805 0871 A2000000 		.4byte	0xa2
ARM GAS  C:\Users\legoc\AppData\Local\Temp\cchaQR7h.s 			page 80


 3806 0875 1D050000 		.4byte	.LLST33
 3807 0879 19       		.uleb128 0x19
 3808 087a 7900     		.ascii	"y\000"
 3809 087c 01       		.byte	0x1
 3810 087d 0401     		.2byte	0x104
 3811 087f A2000000 		.4byte	0xa2
 3812 0883 3E050000 		.4byte	.LLST34
 3813 0887 19       		.uleb128 0x19
 3814 0888 7700     		.ascii	"w\000"
 3815 088a 01       		.byte	0x1
 3816 088b 0501     		.2byte	0x105
 3817 088d A2000000 		.4byte	0xa2
 3818 0891 5F050000 		.4byte	.LLST35
 3819 0895 1A       		.uleb128 0x1a
 3820 0896 6E050000 		.4byte	.LASF28
 3821 089a 01       		.byte	0x1
 3822 089b 0501     		.2byte	0x105
 3823 089d AD000000 		.4byte	0xad
 3824 08a1 80050000 		.4byte	.LLST36
 3825 08a5 0C       		.uleb128 0xc
 3826 08a6 12000000 		.4byte	.LVL132
 3827 08aa 11070000 		.4byte	0x711
 3828 08ae 00       		.byte	0
 3829 08af 18       		.uleb128 0x18
 3830 08b0 51050000 		.4byte	.LASF39
 3831 08b4 01       		.byte	0x1
 3832 08b5 0C01     		.2byte	0x10c
 3833 08b7 00000000 		.4byte	.LFB12
 3834 08bb 18000000 		.4byte	.LFE12-.LFB12
 3835 08bf 01       		.uleb128 0x1
 3836 08c0 9C       		.byte	0x9c
 3837 08c1 09090000 		.4byte	0x909
 3838 08c5 19       		.uleb128 0x19
 3839 08c6 7800     		.ascii	"x\000"
 3840 08c8 01       		.byte	0x1
 3841 08c9 0C01     		.2byte	0x10c
 3842 08cb A2000000 		.4byte	0xa2
 3843 08cf A1050000 		.4byte	.LLST37
 3844 08d3 19       		.uleb128 0x19
 3845 08d4 7900     		.ascii	"y\000"
 3846 08d6 01       		.byte	0x1
 3847 08d7 0C01     		.2byte	0x10c
 3848 08d9 A2000000 		.4byte	0xa2
 3849 08dd C2050000 		.4byte	.LLST38
 3850 08e1 19       		.uleb128 0x19
 3851 08e2 6800     		.ascii	"h\000"
 3852 08e4 01       		.byte	0x1
 3853 08e5 0D01     		.2byte	0x10d
 3854 08e7 A2000000 		.4byte	0xa2
 3855 08eb E3050000 		.4byte	.LLST39
 3856 08ef 1A       		.uleb128 0x1a
 3857 08f0 6E050000 		.4byte	.LASF28
 3858 08f4 01       		.byte	0x1
 3859 08f5 0D01     		.2byte	0x10d
 3860 08f7 AD000000 		.4byte	0xad
 3861 08fb 04060000 		.4byte	.LLST40
 3862 08ff 0C       		.uleb128 0xc
ARM GAS  C:\Users\legoc\AppData\Local\Temp\cchaQR7h.s 			page 81


 3863 0900 12000000 		.4byte	.LVL136
 3864 0904 11070000 		.4byte	0x711
 3865 0908 00       		.byte	0
 3866 0909 18       		.uleb128 0x18
 3867 090a DD030000 		.4byte	.LASF40
 3868 090e 01       		.byte	0x1
 3869 090f 1401     		.2byte	0x114
 3870 0911 00000000 		.4byte	.LFB13
 3871 0915 4A000000 		.4byte	.LFE13-.LFB13
 3872 0919 01       		.uleb128 0x1
 3873 091a 9C       		.byte	0x9c
 3874 091b D4090000 		.4byte	0x9d4
 3875 091f 19       		.uleb128 0x19
 3876 0920 783000   		.ascii	"x0\000"
 3877 0923 01       		.byte	0x1
 3878 0924 1401     		.2byte	0x114
 3879 0926 A2000000 		.4byte	0xa2
 3880 092a 25060000 		.4byte	.LLST41
 3881 092e 19       		.uleb128 0x19
 3882 092f 793000   		.ascii	"y0\000"
 3883 0932 01       		.byte	0x1
 3884 0933 1401     		.2byte	0x114
 3885 0935 A2000000 		.4byte	0xa2
 3886 0939 83060000 		.4byte	.LLST42
 3887 093d 19       		.uleb128 0x19
 3888 093e 783100   		.ascii	"x1\000"
 3889 0941 01       		.byte	0x1
 3890 0942 1401     		.2byte	0x114
 3891 0944 A2000000 		.4byte	0xa2
 3892 0948 E1060000 		.4byte	.LLST43
 3893 094c 19       		.uleb128 0x19
 3894 094d 793100   		.ascii	"y1\000"
 3895 0950 01       		.byte	0x1
 3896 0951 1401     		.2byte	0x114
 3897 0953 A2000000 		.4byte	0xa2
 3898 0957 26070000 		.4byte	.LLST44
 3899 095b 1B       		.uleb128 0x1b
 3900 095c 6E050000 		.4byte	.LASF28
 3901 0960 01       		.byte	0x1
 3902 0961 1501     		.2byte	0x115
 3903 0963 AD000000 		.4byte	0xad
 3904 0967 02       		.uleb128 0x2
 3905 0968 91       		.byte	0x91
 3906 0969 00       		.sleb128 0
 3907 096a 16       		.uleb128 0x16
 3908 096b 12000000 		.4byte	.LBB6
 3909 096f 04000000 		.4byte	.LBE6-.LBB6
 3910 0973 82090000 		.4byte	0x982
 3911 0977 1C       		.uleb128 0x1c
 3912 0978 7400     		.ascii	"t\000"
 3913 097a 01       		.byte	0x1
 3914 097b 1A01     		.2byte	0x11a
 3915 097d A2000000 		.4byte	0xa2
 3916 0981 00       		.byte	0
 3917 0982 16       		.uleb128 0x16
 3918 0983 2E000000 		.4byte	.LBB7
 3919 0987 04000000 		.4byte	.LBE7-.LBB7
ARM GAS  C:\Users\legoc\AppData\Local\Temp\cchaQR7h.s 			page 82


 3920 098b 9A090000 		.4byte	0x99a
 3921 098f 1C       		.uleb128 0x1c
 3922 0990 7400     		.ascii	"t\000"
 3923 0992 01       		.byte	0x1
 3924 0993 2001     		.2byte	0x120
 3925 0995 A2000000 		.4byte	0xa2
 3926 0999 00       		.byte	0
 3927 099a 0A       		.uleb128 0xa
 3928 099b 22000000 		.4byte	.LVL142
 3929 099f AF080000 		.4byte	0x8af
 3930 09a3 AE090000 		.4byte	0x9ae
 3931 09a7 0B       		.uleb128 0xb
 3932 09a8 01       		.uleb128 0x1
 3933 09a9 53       		.byte	0x53
 3934 09aa 02       		.uleb128 0x2
 3935 09ab 74       		.byte	0x74
 3936 09ac 00       		.sleb128 0
 3937 09ad 00       		.byte	0
 3938 09ae 0A       		.uleb128 0xa
 3939 09af 3E000000 		.4byte	.LVL148
 3940 09b3 55080000 		.4byte	0x855
 3941 09b7 C2090000 		.4byte	0x9c2
 3942 09bb 0B       		.uleb128 0xb
 3943 09bc 01       		.uleb128 0x1
 3944 09bd 53       		.byte	0x53
 3945 09be 02       		.uleb128 0x2
 3946 09bf 74       		.byte	0x74
 3947 09c0 00       		.sleb128 0
 3948 09c1 00       		.byte	0
 3949 09c2 0F       		.uleb128 0xf
 3950 09c3 46000000 		.4byte	.LVL150
 3951 09c7 11070000 		.4byte	0x711
 3952 09cb 0B       		.uleb128 0xb
 3953 09cc 02       		.uleb128 0x2
 3954 09cd 7D       		.byte	0x7d
 3955 09ce 00       		.sleb128 0
 3956 09cf 02       		.uleb128 0x2
 3957 09d0 74       		.byte	0x74
 3958 09d1 00       		.sleb128 0
 3959 09d2 00       		.byte	0
 3960 09d3 00       		.byte	0
 3961 09d4 18       		.uleb128 0x18
 3962 09d5 BC030000 		.4byte	.LASF41
 3963 09d9 01       		.byte	0x1
 3964 09da 2901     		.2byte	0x129
 3965 09dc 00000000 		.4byte	.LFB14
 3966 09e0 50010000 		.4byte	.LFE14-.LFB14
 3967 09e4 01       		.uleb128 0x1
 3968 09e5 9C       		.byte	0x9c
 3969 09e6 580C0000 		.4byte	0xc58
 3970 09ea 19       		.uleb128 0x19
 3971 09eb 7800     		.ascii	"x\000"
 3972 09ed 01       		.byte	0x1
 3973 09ee 2901     		.2byte	0x129
 3974 09f0 A2000000 		.4byte	0xa2
 3975 09f4 76070000 		.4byte	.LLST45
 3976 09f8 19       		.uleb128 0x19
ARM GAS  C:\Users\legoc\AppData\Local\Temp\cchaQR7h.s 			page 83


 3977 09f9 7900     		.ascii	"y\000"
 3978 09fb 01       		.byte	0x1
 3979 09fc 2901     		.2byte	0x129
 3980 09fe A2000000 		.4byte	0xa2
 3981 0a02 97070000 		.4byte	.LLST46
 3982 0a06 19       		.uleb128 0x19
 3983 0a07 7700     		.ascii	"w\000"
 3984 0a09 01       		.byte	0x1
 3985 0a0a 2901     		.2byte	0x129
 3986 0a0c A2000000 		.4byte	0xa2
 3987 0a10 B8070000 		.4byte	.LLST47
 3988 0a14 19       		.uleb128 0x19
 3989 0a15 6800     		.ascii	"h\000"
 3990 0a17 01       		.byte	0x1
 3991 0a18 2901     		.2byte	0x129
 3992 0a1a A2000000 		.4byte	0xa2
 3993 0a1e D9070000 		.4byte	.LLST48
 3994 0a22 1B       		.uleb128 0x1b
 3995 0a23 39000000 		.4byte	.LASF42
 3996 0a27 01       		.byte	0x1
 3997 0a28 2A01     		.2byte	0x12a
 3998 0a2a AD000000 		.4byte	0xad
 3999 0a2e 02       		.uleb128 0x2
 4000 0a2f 91       		.byte	0x91
 4001 0a30 00       		.sleb128 0
 4002 0a31 1A       		.uleb128 0x1a
 4003 0a32 07010000 		.4byte	.LASF43
 4004 0a36 01       		.byte	0x1
 4005 0a37 2A01     		.2byte	0x12a
 4006 0a39 AD000000 		.4byte	0xad
 4007 0a3d FA070000 		.4byte	.LLST49
 4008 0a41 1A       		.uleb128 0x1a
 4009 0a42 B5030000 		.4byte	.LASF44
 4010 0a46 01       		.byte	0x1
 4011 0a47 2A01     		.2byte	0x12a
 4012 0a49 E6000000 		.4byte	0xe6
 4013 0a4d 26080000 		.4byte	.LLST50
 4014 0a51 1D       		.uleb128 0x1d
 4015 0a52 1D000000 		.4byte	.LASF45
 4016 0a56 01       		.byte	0x1
 4017 0a57 3001     		.2byte	0x130
 4018 0a59 89000000 		.4byte	0x89
 4019 0a5d 5D080000 		.4byte	.LLST51
 4020 0a61 1D       		.uleb128 0x1d
 4021 0a62 2B000000 		.4byte	.LASF46
 4022 0a66 01       		.byte	0x1
 4023 0a67 3101     		.2byte	0x131
 4024 0a69 89000000 		.4byte	0x89
 4025 0a6d 92080000 		.4byte	.LLST52
 4026 0a71 1D       		.uleb128 0x1d
 4027 0a72 67000000 		.4byte	.LASF47
 4028 0a76 01       		.byte	0x1
 4029 0a77 3201     		.2byte	0x132
 4030 0a79 89000000 		.4byte	0x89
 4031 0a7d A5080000 		.4byte	.LLST53
 4032 0a81 1E       		.uleb128 0x1e
 4033 0a82 6B0C0000 		.4byte	0xc6b
ARM GAS  C:\Users\legoc\AppData\Local\Temp\cchaQR7h.s 			page 84


 4034 0a86 CF080000 		.4byte	.LLST54
 4035 0a8a 1D       		.uleb128 0x1d
 4036 0a8b DA000000 		.4byte	.LASF48
 4037 0a8f 01       		.byte	0x1
 4038 0a90 3B01     		.2byte	0x13b
 4039 0a92 580C0000 		.4byte	0xc58
 4040 0a96 ED080000 		.4byte	.LLST55
 4041 0a9a 16       		.uleb128 0x16
 4042 0a9b 52000000 		.4byte	.LBB8
 4043 0a9f 10000000 		.4byte	.LBE8-.LBB8
 4044 0aa3 B60A0000 		.4byte	0xab6
 4045 0aa7 1F       		.uleb128 0x1f
 4046 0aa8 6900     		.ascii	"i\000"
 4047 0aaa 01       		.byte	0x1
 4048 0aab 4001     		.2byte	0x140
 4049 0aad 89000000 		.4byte	0x89
 4050 0ab1 34090000 		.4byte	.LLST56
 4051 0ab5 00       		.byte	0
 4052 0ab6 16       		.uleb128 0x16
 4053 0ab7 6E000000 		.4byte	.LBB9
 4054 0abb 18000000 		.4byte	.LBE9-.LBB9
 4055 0abf 080B0000 		.4byte	0xb08
 4056 0ac3 1D       		.uleb128 0x1d
 4057 0ac4 5B000000 		.4byte	.LASF49
 4058 0ac8 01       		.byte	0x1
 4059 0ac9 4C01     		.2byte	0x14c
 4060 0acb 89000000 		.4byte	0x89
 4061 0acf 53090000 		.4byte	.LLST57
 4062 0ad3 20       		.uleb128 0x20
 4063 0ad4 97030000 		.4byte	.LASF57
 4064 0ad8 01       		.byte	0x1
 4065 0ad9 4F01     		.2byte	0x14f
 4066 0adb 89000000 		.4byte	0x89
 4067 0adf E50A0000 		.4byte	0xae5
 4068 0ae3 21       		.uleb128 0x21
 4069 0ae4 00       		.byte	0
 4070 0ae5 0F       		.uleb128 0xf
 4071 0ae6 86000000 		.4byte	.LVL169
 4072 0aea 9A240000 		.4byte	0x249a
 4073 0aee 0B       		.uleb128 0xb
 4074 0aef 01       		.uleb128 0x1
 4075 0af0 51       		.byte	0x51
 4076 0af1 02       		.uleb128 0x2
 4077 0af2 78       		.byte	0x78
 4078 0af3 7F       		.sleb128 -1
 4079 0af4 0B       		.uleb128 0xb
 4080 0af5 01       		.uleb128 0x1
 4081 0af6 52       		.byte	0x52
 4082 0af7 02       		.uleb128 0x2
 4083 0af8 79       		.byte	0x79
 4084 0af9 00       		.sleb128 0
 4085 0afa 0B       		.uleb128 0xb
 4086 0afb 01       		.uleb128 0x1
 4087 0afc 53       		.byte	0x53
 4088 0afd 02       		.uleb128 0x2
 4089 0afe 75       		.byte	0x75
 4090 0aff 00       		.sleb128 0
ARM GAS  C:\Users\legoc\AppData\Local\Temp\cchaQR7h.s 			page 85


 4091 0b00 0B       		.uleb128 0xb
 4092 0b01 02       		.uleb128 0x2
 4093 0b02 7D       		.byte	0x7d
 4094 0b03 00       		.sleb128 0
 4095 0b04 01       		.uleb128 0x1
 4096 0b05 31       		.byte	0x31
 4097 0b06 00       		.byte	0
 4098 0b07 00       		.byte	0
 4099 0b08 16       		.uleb128 0x16
 4100 0b09 8C000000 		.4byte	.LBB10
 4101 0b0d B8000000 		.4byte	.LBE10-.LBB10
 4102 0b11 1A0C0000 		.4byte	0xc1a
 4103 0b15 1D       		.uleb128 0x1d
 4104 0b16 87040000 		.4byte	.LASF50
 4105 0b1a 01       		.byte	0x1
 4106 0b1b 5301     		.2byte	0x153
 4107 0b1d 89000000 		.4byte	0x89
 4108 0b21 73090000 		.4byte	.LLST58
 4109 0b25 1D       		.uleb128 0x1d
 4110 0b26 B3040000 		.4byte	.LASF51
 4111 0b2a 01       		.byte	0x1
 4112 0b2b 5A01     		.2byte	0x15a
 4113 0b2d 700C0000 		.4byte	0xc70
 4114 0b31 93090000 		.4byte	.LLST60
 4115 0b35 1D       		.uleb128 0x1d
 4116 0b36 9A000000 		.4byte	.LASF52
 4117 0b3a 01       		.byte	0x1
 4118 0b3b 5B01     		.2byte	0x15b
 4119 0b3d 880C0000 		.4byte	0xc88
 4120 0b41 A7090000 		.4byte	.LLST62
 4121 0b45 1D       		.uleb128 0x1d
 4122 0b46 FE050000 		.4byte	.LASF53
 4123 0b4a 01       		.byte	0x1
 4124 0b4b 6901     		.2byte	0x169
 4125 0b4d 89000000 		.4byte	0x89
 4126 0b51 C7090000 		.4byte	.LLST63
 4127 0b55 1D       		.uleb128 0x1d
 4128 0b56 DE010000 		.4byte	.LASF54
 4129 0b5a 01       		.byte	0x1
 4130 0b5b 6A01     		.2byte	0x16a
 4131 0b5d 89000000 		.4byte	0x89
 4132 0b61 DA090000 		.4byte	.LLST64
 4133 0b65 1D       		.uleb128 0x1d
 4134 0b66 86050000 		.4byte	.LASF55
 4135 0b6a 01       		.byte	0x1
 4136 0b6b 6D01     		.2byte	0x16d
 4137 0b6d 89000000 		.4byte	0x89
 4138 0b71 0A0A0000 		.4byte	.LLST65
 4139 0b75 1D       		.uleb128 0x1d
 4140 0b76 84030000 		.4byte	.LASF56
 4141 0b7a 01       		.byte	0x1
 4142 0b7b 6E01     		.2byte	0x16e
 4143 0b7d 89000000 		.4byte	0x89
 4144 0b81 2A0A0000 		.4byte	.LLST66
 4145 0b85 20       		.uleb128 0x20
 4146 0b86 97030000 		.4byte	.LASF57
 4147 0b8a 01       		.byte	0x1
ARM GAS  C:\Users\legoc\AppData\Local\Temp\cchaQR7h.s 			page 86


 4148 0b8b 4F01     		.2byte	0x14f
 4149 0b8d 89000000 		.4byte	0x89
 4150 0b91 970B0000 		.4byte	0xb97
 4151 0b95 21       		.uleb128 0x21
 4152 0b96 00       		.byte	0
 4153 0b97 16       		.uleb128 0x16
 4154 0b98 D8000000 		.4byte	.LBB11
 4155 0b9c 14000000 		.4byte	.LBE11-.LBB11
 4156 0ba0 B30B0000 		.4byte	0xbb3
 4157 0ba4 1F       		.uleb128 0x1f
 4158 0ba5 6900     		.ascii	"i\000"
 4159 0ba7 01       		.byte	0x1
 4160 0ba8 5D01     		.2byte	0x15d
 4161 0baa 89000000 		.4byte	0x89
 4162 0bae 3D0A0000 		.4byte	.LLST67
 4163 0bb2 00       		.byte	0
 4164 0bb3 16       		.uleb128 0x16
 4165 0bb4 EC000000 		.4byte	.LBB12
 4166 0bb8 0E000000 		.4byte	.LBE12-.LBB12
 4167 0bbc CF0B0000 		.4byte	0xbcf
 4168 0bc0 1F       		.uleb128 0x1f
 4169 0bc1 6900     		.ascii	"i\000"
 4170 0bc3 01       		.byte	0x1
 4171 0bc4 6101     		.2byte	0x161
 4172 0bc6 89000000 		.4byte	0x89
 4173 0bca 5C0A0000 		.4byte	.LLST68
 4174 0bce 00       		.byte	0
 4175 0bcf 0A       		.uleb128 0xa
 4176 0bd0 30010000 		.4byte	.LVL195
 4177 0bd4 9A240000 		.4byte	0x249a
 4178 0bd8 F00B0000 		.4byte	0xbf0
 4179 0bdc 0B       		.uleb128 0xb
 4180 0bdd 01       		.uleb128 0x1
 4181 0bde 51       		.byte	0x51
 4182 0bdf 02       		.uleb128 0x2
 4183 0be0 78       		.byte	0x78
 4184 0be1 03       		.sleb128 3
 4185 0be2 0B       		.uleb128 0xb
 4186 0be3 01       		.uleb128 0x1
 4187 0be4 52       		.byte	0x52
 4188 0be5 02       		.uleb128 0x2
 4189 0be6 79       		.byte	0x79
 4190 0be7 00       		.sleb128 0
 4191 0be8 0B       		.uleb128 0xb
 4192 0be9 02       		.uleb128 0x2
 4193 0bea 7D       		.byte	0x7d
 4194 0beb 00       		.sleb128 0
 4195 0bec 02       		.uleb128 0x2
 4196 0bed 75       		.byte	0x75
 4197 0bee 00       		.sleb128 0
 4198 0bef 00       		.byte	0
 4199 0bf0 0F       		.uleb128 0xf
 4200 0bf1 40010000 		.4byte	.LVL196
 4201 0bf5 9A240000 		.4byte	0x249a
 4202 0bf9 0B       		.uleb128 0xb
 4203 0bfa 01       		.uleb128 0x1
 4204 0bfb 50       		.byte	0x50
ARM GAS  C:\Users\legoc\AppData\Local\Temp\cchaQR7h.s 			page 87


 4205 0bfc 02       		.uleb128 0x2
 4206 0bfd 74       		.byte	0x74
 4207 0bfe 00       		.sleb128 0
 4208 0bff 0B       		.uleb128 0xb
 4209 0c00 01       		.uleb128 0x1
 4210 0c01 51       		.byte	0x51
 4211 0c02 02       		.uleb128 0x2
 4212 0c03 78       		.byte	0x78
 4213 0c04 7B       		.sleb128 -5
 4214 0c05 0B       		.uleb128 0xb
 4215 0c06 01       		.uleb128 0x1
 4216 0c07 52       		.byte	0x52
 4217 0c08 02       		.uleb128 0x2
 4218 0c09 79       		.byte	0x79
 4219 0c0a 00       		.sleb128 0
 4220 0c0b 0B       		.uleb128 0xb
 4221 0c0c 01       		.uleb128 0x1
 4222 0c0d 53       		.byte	0x53
 4223 0c0e 02       		.uleb128 0x2
 4224 0c0f 7A       		.byte	0x7a
 4225 0c10 00       		.sleb128 0
 4226 0c11 0B       		.uleb128 0xb
 4227 0c12 02       		.uleb128 0x2
 4228 0c13 7D       		.byte	0x7d
 4229 0c14 00       		.sleb128 0
 4230 0c15 02       		.uleb128 0x2
 4231 0c16 75       		.byte	0x75
 4232 0c17 00       		.sleb128 0
 4233 0c18 00       		.byte	0
 4234 0c19 00       		.byte	0
 4235 0c1a 1E       		.uleb128 0x1e
 4236 0c1b 830C0000 		.4byte	0xc83
 4237 0c1f 6F0A0000 		.4byte	.LLST59
 4238 0c23 1E       		.uleb128 0x1e
 4239 0c24 9B0C0000 		.4byte	0xc9b
 4240 0c28 8F0A0000 		.4byte	.LLST61
 4241 0c2c 0F       		.uleb128 0xf
 4242 0c2d 22000000 		.4byte	.LVL152
 4243 0c31 BF040000 		.4byte	0x4bf
 4244 0c35 0B       		.uleb128 0xb
 4245 0c36 01       		.uleb128 0x1
 4246 0c37 50       		.byte	0x50
 4247 0c38 02       		.uleb128 0x2
 4248 0c39 7A       		.byte	0x7a
 4249 0c3a 00       		.sleb128 0
 4250 0c3b 0B       		.uleb128 0xb
 4251 0c3c 01       		.uleb128 0x1
 4252 0c3d 51       		.byte	0x51
 4253 0c3e 02       		.uleb128 0x2
 4254 0c3f 78       		.byte	0x78
 4255 0c40 00       		.sleb128 0
 4256 0c41 0B       		.uleb128 0xb
 4257 0c42 01       		.uleb128 0x1
 4258 0c43 52       		.byte	0x52
 4259 0c44 02       		.uleb128 0x2
 4260 0c45 76       		.byte	0x76
 4261 0c46 00       		.sleb128 0
ARM GAS  C:\Users\legoc\AppData\Local\Temp\cchaQR7h.s 			page 88


 4262 0c47 0B       		.uleb128 0xb
 4263 0c48 01       		.uleb128 0x1
 4264 0c49 53       		.byte	0x53
 4265 0c4a 02       		.uleb128 0x2
 4266 0c4b 75       		.byte	0x75
 4267 0c4c 00       		.sleb128 0
 4268 0c4d 0B       		.uleb128 0xb
 4269 0c4e 02       		.uleb128 0x2
 4270 0c4f 7D       		.byte	0x7d
 4271 0c50 00       		.sleb128 0
 4272 0c51 04       		.uleb128 0x4
 4273 0c52 91       		.byte	0x91
 4274 0c53 28       		.sleb128 40
 4275 0c54 94       		.byte	0x94
 4276 0c55 02       		.byte	0x2
 4277 0c56 00       		.byte	0
 4278 0c57 00       		.byte	0
 4279 0c58 06       		.uleb128 0x6
 4280 0c59 D1000000 		.4byte	0xd1
 4281 0c5d 6B0C0000 		.4byte	0xc6b
 4282 0c61 22       		.uleb128 0x22
 4283 0c62 DF000000 		.4byte	0xdf
 4284 0c66 810A0000 		.4byte	0xa81
 4285 0c6a 00       		.byte	0
 4286 0c6b 14       		.uleb128 0x14
 4287 0c6c DF000000 		.4byte	0xdf
 4288 0c70 06       		.uleb128 0x6
 4289 0c71 D1000000 		.4byte	0xd1
 4290 0c75 830C0000 		.4byte	0xc83
 4291 0c79 22       		.uleb128 0x22
 4292 0c7a DF000000 		.4byte	0xdf
 4293 0c7e 1A0C0000 		.4byte	0xc1a
 4294 0c82 00       		.byte	0
 4295 0c83 14       		.uleb128 0x14
 4296 0c84 DF000000 		.4byte	0xdf
 4297 0c88 06       		.uleb128 0x6
 4298 0c89 D1000000 		.4byte	0xd1
 4299 0c8d 9B0C0000 		.4byte	0xc9b
 4300 0c91 22       		.uleb128 0x22
 4301 0c92 DF000000 		.4byte	0xdf
 4302 0c96 230C0000 		.4byte	0xc23
 4303 0c9a 00       		.byte	0
 4304 0c9b 14       		.uleb128 0x14
 4305 0c9c DF000000 		.4byte	0xdf
 4306 0ca0 23       		.uleb128 0x23
 4307 0ca1 64040000 		.4byte	.LASF58
 4308 0ca5 01       		.byte	0x1
 4309 0ca6 7601     		.2byte	0x176
 4310 0ca8 00000000 		.4byte	.LFB15
 4311 0cac 80010000 		.4byte	.LFE15-.LFB15
 4312 0cb0 01       		.uleb128 0x1
 4313 0cb1 9C       		.byte	0x9c
 4314 0cb2 49100000 		.4byte	0x1049
 4315 0cb6 1A       		.uleb128 0x1a
 4316 0cb7 EE000000 		.4byte	.LASF59
 4317 0cbb 01       		.byte	0x1
 4318 0cbc 7601     		.2byte	0x176
ARM GAS  C:\Users\legoc\AppData\Local\Temp\cchaQR7h.s 			page 89


 4319 0cbe 89000000 		.4byte	0x89
 4320 0cc2 B20A0000 		.4byte	.LLST69
 4321 0cc6 1A       		.uleb128 0x1a
 4322 0cc7 59060000 		.4byte	.LASF60
 4323 0ccb 01       		.byte	0x1
 4324 0ccc 7601     		.2byte	0x176
 4325 0cce 90000000 		.4byte	0x90
 4326 0cd2 DE0A0000 		.4byte	.LLST70
 4327 0cd6 24       		.uleb128 0x24
 4328 0cd7 96010000 		.4byte	.LASF61
 4329 0cdb 01       		.byte	0x1
 4330 0cdc 7A01     		.2byte	0x17a
 4331 0cde 89000000 		.4byte	0x89
 4332 0ce2 C0       		.byte	0xc0
 4333 0ce3 1D       		.uleb128 0x1d
 4334 0ce4 2F040000 		.4byte	.LASF62
 4335 0ce8 01       		.byte	0x1
 4336 0ce9 7B01     		.2byte	0x17b
 4337 0ceb 89000000 		.4byte	0x89
 4338 0cef 230B0000 		.4byte	.LLST71
 4339 0cf3 1D       		.uleb128 0x1d
 4340 0cf4 A3030000 		.4byte	.LASF63
 4341 0cf8 01       		.byte	0x1
 4342 0cf9 7C01     		.2byte	0x17c
 4343 0cfb 89000000 		.4byte	0x89
 4344 0cff 410B0000 		.4byte	.LLST72
 4345 0d03 25       		.uleb128 0x25
 4346 0d04 E5050000 		.4byte	.LASF64
 4347 0d08 01       		.byte	0x1
 4348 0d09 7D01     		.2byte	0x17d
 4349 0d0b 89000000 		.4byte	0x89
 4350 0d0f 26       		.uleb128 0x26
 4351 0d10 C7000000 		.4byte	.LASF65
 4352 0d14 01       		.byte	0x1
 4353 0d15 7E01     		.2byte	0x17e
 4354 0d17 49100000 		.4byte	0x1049
 4355 0d1b 02       		.uleb128 0x2
 4356 0d1c 91       		.byte	0x91
 4357 0d1d 5C       		.sleb128 -36
 4358 0d1e 26       		.uleb128 0x26
 4359 0d1f B4000000 		.4byte	.LASF66
 4360 0d23 01       		.byte	0x1
 4361 0d24 7F01     		.2byte	0x17f
 4362 0d26 59100000 		.4byte	0x1059
 4363 0d2a 02       		.uleb128 0x2
 4364 0d2b 91       		.byte	0x91
 4365 0d2c 58       		.sleb128 -40
 4366 0d2d 1D       		.uleb128 0x1d
 4367 0d2e F4000000 		.4byte	.LASF67
 4368 0d32 01       		.byte	0x1
 4369 0d33 8101     		.2byte	0x181
 4370 0d35 89000000 		.4byte	0x89
 4371 0d39 660B0000 		.4byte	.LLST73
 4372 0d3d 1F       		.uleb128 0x1f
 4373 0d3e 6900     		.ascii	"i\000"
 4374 0d40 01       		.byte	0x1
 4375 0d41 8201     		.2byte	0x182
ARM GAS  C:\Users\legoc\AppData\Local\Temp\cchaQR7h.s 			page 90


 4376 0d43 89000000 		.4byte	0x89
 4377 0d47 790B0000 		.4byte	.LLST74
 4378 0d4b 1C       		.uleb128 0x1c
 4379 0d4c 6B00     		.ascii	"k\000"
 4380 0d4e 01       		.byte	0x1
 4381 0d4f 8301     		.2byte	0x183
 4382 0d51 89000000 		.4byte	0x89
 4383 0d55 26       		.uleb128 0x26
 4384 0d56 69050000 		.4byte	.LASF68
 4385 0d5a 01       		.byte	0x1
 4386 0d5b AE01     		.2byte	0x1ae
 4387 0d5d 69100000 		.4byte	0x1069
 4388 0d61 02       		.uleb128 0x2
 4389 0d62 91       		.byte	0x91
 4390 0d63 50       		.sleb128 -48
 4391 0d64 16       		.uleb128 0x16
 4392 0d65 58000000 		.4byte	.LBB13
 4393 0d69 22000000 		.4byte	.LBE13-.LBB13
 4394 0d6d E00D0000 		.4byte	0xde0
 4395 0d71 20       		.uleb128 0x20
 4396 0d72 97030000 		.4byte	.LASF57
 4397 0d76 01       		.byte	0x1
 4398 0d77 4F01     		.2byte	0x14f
 4399 0d79 89000000 		.4byte	0x89
 4400 0d7d 830D0000 		.4byte	0xd83
 4401 0d81 21       		.uleb128 0x21
 4402 0d82 00       		.byte	0
 4403 0d83 0A       		.uleb128 0xa
 4404 0d84 6A000000 		.4byte	.LVL212
 4405 0d88 9A240000 		.4byte	0x249a
 4406 0d8c B30D0000 		.4byte	0xdb3
 4407 0d90 0B       		.uleb128 0xb
 4408 0d91 01       		.uleb128 0x1
 4409 0d92 50       		.byte	0x50
 4410 0d93 02       		.uleb128 0x2
 4411 0d94 08       		.byte	0x8
 4412 0d95 E6       		.byte	0xe6
 4413 0d96 0B       		.uleb128 0xb
 4414 0d97 01       		.uleb128 0x1
 4415 0d98 51       		.byte	0x51
 4416 0d99 01       		.uleb128 0x1
 4417 0d9a 34       		.byte	0x34
 4418 0d9b 0B       		.uleb128 0xb
 4419 0d9c 01       		.uleb128 0x1
 4420 0d9d 52       		.byte	0x52
 4421 0d9e 03       		.uleb128 0x3
 4422 0d9f 0A       		.byte	0xa
 4423 0da0 FFFF     		.2byte	0xffff
 4424 0da2 0B       		.uleb128 0xb
 4425 0da3 01       		.uleb128 0x1
 4426 0da4 53       		.byte	0x53
 4427 0da5 05       		.uleb128 0x5
 4428 0da6 03       		.byte	0x3
 4429 0da7 00000000 		.4byte	.LC0
 4430 0dab 0B       		.uleb128 0xb
 4431 0dac 02       		.uleb128 0x2
 4432 0dad 7D       		.byte	0x7d
ARM GAS  C:\Users\legoc\AppData\Local\Temp\cchaQR7h.s 			page 91


 4433 0dae 00       		.sleb128 0
 4434 0daf 02       		.uleb128 0x2
 4435 0db0 74       		.byte	0x74
 4436 0db1 00       		.sleb128 0
 4437 0db2 00       		.byte	0
 4438 0db3 0F       		.uleb128 0xf
 4439 0db4 7A000000 		.4byte	.LVL213
 4440 0db8 9A240000 		.4byte	0x249a
 4441 0dbc 0B       		.uleb128 0xb
 4442 0dbd 01       		.uleb128 0x1
 4443 0dbe 50       		.byte	0x50
 4444 0dbf 01       		.uleb128 0x1
 4445 0dc0 33       		.byte	0x33
 4446 0dc1 0B       		.uleb128 0xb
 4447 0dc2 01       		.uleb128 0x1
 4448 0dc3 51       		.byte	0x51
 4449 0dc4 02       		.uleb128 0x2
 4450 0dc5 08       		.byte	0x8
 4451 0dc6 D9       		.byte	0xd9
 4452 0dc7 0B       		.uleb128 0xb
 4453 0dc8 01       		.uleb128 0x1
 4454 0dc9 52       		.byte	0x52
 4455 0dca 03       		.uleb128 0x3
 4456 0dcb 0A       		.byte	0xa
 4457 0dcc FFFF     		.2byte	0xffff
 4458 0dce 0B       		.uleb128 0xb
 4459 0dcf 01       		.uleb128 0x1
 4460 0dd0 53       		.byte	0x53
 4461 0dd1 05       		.uleb128 0x5
 4462 0dd2 03       		.byte	0x3
 4463 0dd3 08000000 		.4byte	.LC1
 4464 0dd7 0B       		.uleb128 0xb
 4465 0dd8 02       		.uleb128 0x2
 4466 0dd9 7D       		.byte	0x7d
 4467 0dda 00       		.sleb128 0
 4468 0ddb 02       		.uleb128 0x2
 4469 0ddc 74       		.byte	0x74
 4470 0ddd 00       		.sleb128 0
 4471 0dde 00       		.byte	0
 4472 0ddf 00       		.byte	0
 4473 0de0 16       		.uleb128 0x16
 4474 0de1 7E000000 		.4byte	.LBB14
 4475 0de5 24000000 		.4byte	.LBE14-.LBB14
 4476 0de9 5C0E0000 		.4byte	0xe5c
 4477 0ded 20       		.uleb128 0x20
 4478 0dee 97030000 		.4byte	.LASF57
 4479 0df2 01       		.byte	0x1
 4480 0df3 4F01     		.2byte	0x14f
 4481 0df5 89000000 		.4byte	0x89
 4482 0df9 FF0D0000 		.4byte	0xdff
 4483 0dfd 21       		.uleb128 0x21
 4484 0dfe 00       		.byte	0
 4485 0dff 0A       		.uleb128 0xa
 4486 0e00 90000000 		.4byte	.LVL216
 4487 0e04 9A240000 		.4byte	0x249a
 4488 0e08 2F0E0000 		.4byte	0xe2f
 4489 0e0c 0B       		.uleb128 0xb
ARM GAS  C:\Users\legoc\AppData\Local\Temp\cchaQR7h.s 			page 92


 4490 0e0d 01       		.uleb128 0x1
 4491 0e0e 50       		.byte	0x50
 4492 0e0f 02       		.uleb128 0x2
 4493 0e10 08       		.byte	0x8
 4494 0e11 E6       		.byte	0xe6
 4495 0e12 0B       		.uleb128 0xb
 4496 0e13 01       		.uleb128 0x1
 4497 0e14 51       		.byte	0x51
 4498 0e15 01       		.uleb128 0x1
 4499 0e16 34       		.byte	0x34
 4500 0e17 0B       		.uleb128 0xb
 4501 0e18 01       		.uleb128 0x1
 4502 0e19 52       		.byte	0x52
 4503 0e1a 03       		.uleb128 0x3
 4504 0e1b 0A       		.byte	0xa
 4505 0e1c FFFF     		.2byte	0xffff
 4506 0e1e 0B       		.uleb128 0xb
 4507 0e1f 01       		.uleb128 0x1
 4508 0e20 53       		.byte	0x53
 4509 0e21 05       		.uleb128 0x5
 4510 0e22 03       		.byte	0x3
 4511 0e23 14000000 		.4byte	.LC2
 4512 0e27 0B       		.uleb128 0xb
 4513 0e28 02       		.uleb128 0x2
 4514 0e29 7D       		.byte	0x7d
 4515 0e2a 00       		.sleb128 0
 4516 0e2b 02       		.uleb128 0x2
 4517 0e2c 74       		.byte	0x74
 4518 0e2d 00       		.sleb128 0
 4519 0e2e 00       		.byte	0
 4520 0e2f 0F       		.uleb128 0xf
 4521 0e30 A0000000 		.4byte	.LVL217
 4522 0e34 9A240000 		.4byte	0x249a
 4523 0e38 0B       		.uleb128 0xb
 4524 0e39 01       		.uleb128 0x1
 4525 0e3a 50       		.byte	0x50
 4526 0e3b 01       		.uleb128 0x1
 4527 0e3c 33       		.byte	0x33
 4528 0e3d 0B       		.uleb128 0xb
 4529 0e3e 01       		.uleb128 0x1
 4530 0e3f 51       		.byte	0x51
 4531 0e40 02       		.uleb128 0x2
 4532 0e41 08       		.byte	0x8
 4533 0e42 D9       		.byte	0xd9
 4534 0e43 0B       		.uleb128 0xb
 4535 0e44 01       		.uleb128 0x1
 4536 0e45 52       		.byte	0x52
 4537 0e46 03       		.uleb128 0x3
 4538 0e47 0A       		.byte	0xa
 4539 0e48 FFFF     		.2byte	0xffff
 4540 0e4a 0B       		.uleb128 0xb
 4541 0e4b 01       		.uleb128 0x1
 4542 0e4c 53       		.byte	0x53
 4543 0e4d 05       		.uleb128 0x5
 4544 0e4e 03       		.byte	0x3
 4545 0e4f 1C000000 		.4byte	.LC3
 4546 0e53 0B       		.uleb128 0xb
ARM GAS  C:\Users\legoc\AppData\Local\Temp\cchaQR7h.s 			page 93


 4547 0e54 02       		.uleb128 0x2
 4548 0e55 7D       		.byte	0x7d
 4549 0e56 00       		.sleb128 0
 4550 0e57 02       		.uleb128 0x2
 4551 0e58 74       		.byte	0x74
 4552 0e59 00       		.sleb128 0
 4553 0e5a 00       		.byte	0
 4554 0e5b 00       		.byte	0
 4555 0e5c 16       		.uleb128 0x16
 4556 0e5d A2000000 		.4byte	.LBB15
 4557 0e61 36000000 		.4byte	.LBE15-.LBB15
 4558 0e65 060F0000 		.4byte	0xf06
 4559 0e69 20       		.uleb128 0x20
 4560 0e6a 97030000 		.4byte	.LASF57
 4561 0e6e 01       		.byte	0x1
 4562 0e6f 4F01     		.2byte	0x14f
 4563 0e71 89000000 		.4byte	0x89
 4564 0e75 7B0E0000 		.4byte	0xe7b
 4565 0e79 21       		.uleb128 0x21
 4566 0e7a 00       		.byte	0
 4567 0e7b 0A       		.uleb128 0xa
 4568 0e7c AA000000 		.4byte	.LVL219
 4569 0e80 A6240000 		.4byte	0x24a6
 4570 0e84 A30E0000 		.4byte	0xea3
 4571 0e88 0B       		.uleb128 0xb
 4572 0e89 01       		.uleb128 0x1
 4573 0e8a 50       		.byte	0x50
 4574 0e8b 02       		.uleb128 0x2
 4575 0e8c 91       		.byte	0x91
 4576 0e8d 5C       		.sleb128 -36
 4577 0e8e 0B       		.uleb128 0xb
 4578 0e8f 01       		.uleb128 0x1
 4579 0e90 51       		.byte	0x51
 4580 0e91 05       		.uleb128 0x5
 4581 0e92 03       		.byte	0x3
 4582 0e93 28000000 		.4byte	.LC4
 4583 0e97 0B       		.uleb128 0xb
 4584 0e98 01       		.uleb128 0x1
 4585 0e99 52       		.byte	0x52
 4586 0e9a 07       		.uleb128 0x7
 4587 0e9b 74       		.byte	0x74
 4588 0e9c 00       		.sleb128 0
 4589 0e9d 32       		.byte	0x32
 4590 0e9e 24       		.byte	0x24
 4591 0e9f 74       		.byte	0x74
 4592 0ea0 00       		.sleb128 0
 4593 0ea1 22       		.byte	0x22
 4594 0ea2 00       		.byte	0
 4595 0ea3 0A       		.uleb128 0xa
 4596 0ea4 C4000000 		.4byte	.LVL220
 4597 0ea8 09090000 		.4byte	0x909
 4598 0eac D90E0000 		.4byte	0xed9
 4599 0eb0 0B       		.uleb128 0xb
 4600 0eb1 01       		.uleb128 0x1
 4601 0eb2 50       		.byte	0x50
 4602 0eb3 01       		.uleb128 0x1
 4603 0eb4 4E       		.byte	0x4e
ARM GAS  C:\Users\legoc\AppData\Local\Temp\cchaQR7h.s 			page 94


 4604 0eb5 0B       		.uleb128 0xb
 4605 0eb6 01       		.uleb128 0x1
 4606 0eb7 51       		.byte	0x51
 4607 0eb8 07       		.uleb128 0x7
 4608 0eb9 74       		.byte	0x74
 4609 0eba 00       		.sleb128 0
 4610 0ebb 76       		.byte	0x76
 4611 0ebc 00       		.sleb128 0
 4612 0ebd 1E       		.byte	0x1e
 4613 0ebe 23       		.byte	0x23
 4614 0ebf 0A       		.uleb128 0xa
 4615 0ec0 0B       		.uleb128 0xb
 4616 0ec1 01       		.uleb128 0x1
 4617 0ec2 52       		.byte	0x52
 4618 0ec3 02       		.uleb128 0x2
 4619 0ec4 08       		.byte	0x8
 4620 0ec5 DC       		.byte	0xdc
 4621 0ec6 0B       		.uleb128 0xb
 4622 0ec7 01       		.uleb128 0x1
 4623 0ec8 53       		.byte	0x53
 4624 0ec9 07       		.uleb128 0x7
 4625 0eca 74       		.byte	0x74
 4626 0ecb 00       		.sleb128 0
 4627 0ecc 76       		.byte	0x76
 4628 0ecd 00       		.sleb128 0
 4629 0ece 1E       		.byte	0x1e
 4630 0ecf 23       		.byte	0x23
 4631 0ed0 0A       		.uleb128 0xa
 4632 0ed1 0B       		.uleb128 0xb
 4633 0ed2 02       		.uleb128 0x2
 4634 0ed3 7D       		.byte	0x7d
 4635 0ed4 00       		.sleb128 0
 4636 0ed5 02       		.uleb128 0x2
 4637 0ed6 78       		.byte	0x78
 4638 0ed7 00       		.sleb128 0
 4639 0ed8 00       		.byte	0
 4640 0ed9 0F       		.uleb128 0xf
 4641 0eda D8000000 		.4byte	.LVL221
 4642 0ede 9A240000 		.4byte	0x249a
 4643 0ee2 0B       		.uleb128 0xb
 4644 0ee3 01       		.uleb128 0x1
 4645 0ee4 50       		.byte	0x50
 4646 0ee5 01       		.uleb128 0x1
 4647 0ee6 33       		.byte	0x33
 4648 0ee7 0B       		.uleb128 0xb
 4649 0ee8 01       		.uleb128 0x1
 4650 0ee9 51       		.byte	0x51
 4651 0eea 07       		.uleb128 0x7
 4652 0eeb 74       		.byte	0x74
 4653 0eec 00       		.sleb128 0
 4654 0eed 76       		.byte	0x76
 4655 0eee 00       		.sleb128 0
 4656 0eef 1E       		.byte	0x1e
 4657 0ef0 23       		.byte	0x23
 4658 0ef1 0A       		.uleb128 0xa
 4659 0ef2 0B       		.uleb128 0xb
 4660 0ef3 01       		.uleb128 0x1
ARM GAS  C:\Users\legoc\AppData\Local\Temp\cchaQR7h.s 			page 95


 4661 0ef4 52       		.byte	0x52
 4662 0ef5 02       		.uleb128 0x2
 4663 0ef6 78       		.byte	0x78
 4664 0ef7 00       		.sleb128 0
 4665 0ef8 0B       		.uleb128 0xb
 4666 0ef9 01       		.uleb128 0x1
 4667 0efa 53       		.byte	0x53
 4668 0efb 02       		.uleb128 0x2
 4669 0efc 91       		.byte	0x91
 4670 0efd 5C       		.sleb128 -36
 4671 0efe 0B       		.uleb128 0xb
 4672 0eff 02       		.uleb128 0x2
 4673 0f00 7D       		.byte	0x7d
 4674 0f01 00       		.sleb128 0
 4675 0f02 01       		.uleb128 0x1
 4676 0f03 31       		.byte	0x31
 4677 0f04 00       		.byte	0
 4678 0f05 00       		.byte	0
 4679 0f06 16       		.uleb128 0x16
 4680 0f07 E6000000 		.4byte	.LBB16
 4681 0f0b 36000000 		.4byte	.LBE16-.LBB16
 4682 0f0f AB0F0000 		.4byte	0xfab
 4683 0f13 20       		.uleb128 0x20
 4684 0f14 97030000 		.4byte	.LASF57
 4685 0f18 01       		.byte	0x1
 4686 0f19 4F01     		.2byte	0x14f
 4687 0f1b 89000000 		.4byte	0x89
 4688 0f1f 250F0000 		.4byte	0xf25
 4689 0f23 21       		.uleb128 0x21
 4690 0f24 00       		.byte	0
 4691 0f25 0A       		.uleb128 0xa
 4692 0f26 F0000000 		.4byte	.LVL225
 4693 0f2a A6240000 		.4byte	0x24a6
 4694 0f2e 480F0000 		.4byte	0xf48
 4695 0f32 0B       		.uleb128 0xb
 4696 0f33 01       		.uleb128 0x1
 4697 0f34 50       		.byte	0x50
 4698 0f35 02       		.uleb128 0x2
 4699 0f36 91       		.byte	0x91
 4700 0f37 58       		.sleb128 -40
 4701 0f38 0B       		.uleb128 0xb
 4702 0f39 01       		.uleb128 0x1
 4703 0f3a 51       		.byte	0x51
 4704 0f3b 05       		.uleb128 0x5
 4705 0f3c 03       		.byte	0x3
 4706 0f3d 2C000000 		.4byte	.LC5
 4707 0f41 0B       		.uleb128 0xb
 4708 0f42 01       		.uleb128 0x1
 4709 0f43 52       		.byte	0x52
 4710 0f44 02       		.uleb128 0x2
 4711 0f45 74       		.byte	0x74
 4712 0f46 00       		.sleb128 0
 4713 0f47 00       		.byte	0
 4714 0f48 0A       		.uleb128 0xa
 4715 0f49 08010000 		.4byte	.LVL226
 4716 0f4d 09090000 		.4byte	0x909
 4717 0f51 7E0F0000 		.4byte	0xf7e
ARM GAS  C:\Users\legoc\AppData\Local\Temp\cchaQR7h.s 			page 96


 4718 0f55 0B       		.uleb128 0xb
 4719 0f56 01       		.uleb128 0x1
 4720 0f57 50       		.byte	0x50
 4721 0f58 07       		.uleb128 0x7
 4722 0f59 74       		.byte	0x74
 4723 0f5a 00       		.sleb128 0
 4724 0f5b 75       		.byte	0x75
 4725 0f5c 00       		.sleb128 0
 4726 0f5d 1E       		.byte	0x1e
 4727 0f5e 23       		.byte	0x23
 4728 0f5f 1E       		.uleb128 0x1e
 4729 0f60 0B       		.uleb128 0xb
 4730 0f61 01       		.uleb128 0x1
 4731 0f62 51       		.byte	0x51
 4732 0f63 01       		.uleb128 0x1
 4733 0f64 3A       		.byte	0x3a
 4734 0f65 0B       		.uleb128 0xb
 4735 0f66 01       		.uleb128 0x1
 4736 0f67 52       		.byte	0x52
 4737 0f68 07       		.uleb128 0x7
 4738 0f69 74       		.byte	0x74
 4739 0f6a 00       		.sleb128 0
 4740 0f6b 75       		.byte	0x75
 4741 0f6c 00       		.sleb128 0
 4742 0f6d 1E       		.byte	0x1e
 4743 0f6e 23       		.byte	0x23
 4744 0f6f 1E       		.uleb128 0x1e
 4745 0f70 0B       		.uleb128 0xb
 4746 0f71 01       		.uleb128 0x1
 4747 0f72 53       		.byte	0x53
 4748 0f73 02       		.uleb128 0x2
 4749 0f74 08       		.byte	0x8
 4750 0f75 CA       		.byte	0xca
 4751 0f76 0B       		.uleb128 0xb
 4752 0f77 02       		.uleb128 0x2
 4753 0f78 7D       		.byte	0x7d
 4754 0f79 00       		.sleb128 0
 4755 0f7a 02       		.uleb128 0x2
 4756 0f7b 76       		.byte	0x76
 4757 0f7c 00       		.sleb128 0
 4758 0f7d 00       		.byte	0
 4759 0f7e 0F       		.uleb128 0xf
 4760 0f7f 1C010000 		.4byte	.LVL227
 4761 0f83 9A240000 		.4byte	0x249a
 4762 0f87 0B       		.uleb128 0xb
 4763 0f88 01       		.uleb128 0x1
 4764 0f89 50       		.byte	0x50
 4765 0f8a 07       		.uleb128 0x7
 4766 0f8b 74       		.byte	0x74
 4767 0f8c 00       		.sleb128 0
 4768 0f8d 75       		.byte	0x75
 4769 0f8e 00       		.sleb128 0
 4770 0f8f 1E       		.byte	0x1e
 4771 0f90 23       		.byte	0x23
 4772 0f91 1E       		.uleb128 0x1e
 4773 0f92 0B       		.uleb128 0xb
 4774 0f93 01       		.uleb128 0x1
ARM GAS  C:\Users\legoc\AppData\Local\Temp\cchaQR7h.s 			page 97


 4775 0f94 51       		.byte	0x51
 4776 0f95 01       		.uleb128 0x1
 4777 0f96 34       		.byte	0x34
 4778 0f97 0B       		.uleb128 0xb
 4779 0f98 01       		.uleb128 0x1
 4780 0f99 52       		.byte	0x52
 4781 0f9a 02       		.uleb128 0x2
 4782 0f9b 76       		.byte	0x76
 4783 0f9c 00       		.sleb128 0
 4784 0f9d 0B       		.uleb128 0xb
 4785 0f9e 01       		.uleb128 0x1
 4786 0f9f 53       		.byte	0x53
 4787 0fa0 02       		.uleb128 0x2
 4788 0fa1 91       		.byte	0x91
 4789 0fa2 58       		.sleb128 -40
 4790 0fa3 0B       		.uleb128 0xb
 4791 0fa4 02       		.uleb128 0x2
 4792 0fa5 7D       		.byte	0x7d
 4793 0fa6 00       		.sleb128 0
 4794 0fa7 01       		.uleb128 0x1
 4795 0fa8 31       		.byte	0x31
 4796 0fa9 00       		.byte	0
 4797 0faa 00       		.byte	0
 4798 0fab 0A       		.uleb128 0xa
 4799 0fac 10000000 		.4byte	.LVL202
 4800 0fb0 36050000 		.4byte	0x536
 4801 0fb4 BE0F0000 		.4byte	0xfbe
 4802 0fb8 0B       		.uleb128 0xb
 4803 0fb9 01       		.uleb128 0x1
 4804 0fba 50       		.byte	0x50
 4805 0fbb 01       		.uleb128 0x1
 4806 0fbc 30       		.byte	0x30
 4807 0fbd 00       		.byte	0
 4808 0fbe 0A       		.uleb128 0xa
 4809 0fbf 3A000000 		.4byte	.LVL208
 4810 0fc3 09090000 		.4byte	0x909
 4811 0fc7 E80F0000 		.4byte	0xfe8
 4812 0fcb 0B       		.uleb128 0xb
 4813 0fcc 01       		.uleb128 0x1
 4814 0fcd 50       		.byte	0x50
 4815 0fce 01       		.uleb128 0x1
 4816 0fcf 4E       		.byte	0x4e
 4817 0fd0 0B       		.uleb128 0xb
 4818 0fd1 01       		.uleb128 0x1
 4819 0fd2 51       		.byte	0x51
 4820 0fd3 01       		.uleb128 0x1
 4821 0fd4 3A       		.byte	0x3a
 4822 0fd5 0B       		.uleb128 0xb
 4823 0fd6 01       		.uleb128 0x1
 4824 0fd7 52       		.byte	0x52
 4825 0fd8 02       		.uleb128 0x2
 4826 0fd9 08       		.byte	0x8
 4827 0fda DC       		.byte	0xdc
 4828 0fdb 0B       		.uleb128 0xb
 4829 0fdc 01       		.uleb128 0x1
 4830 0fdd 53       		.byte	0x53
 4831 0fde 01       		.uleb128 0x1
ARM GAS  C:\Users\legoc\AppData\Local\Temp\cchaQR7h.s 			page 98


 4832 0fdf 3A       		.byte	0x3a
 4833 0fe0 0B       		.uleb128 0xb
 4834 0fe1 02       		.uleb128 0x2
 4835 0fe2 7D       		.byte	0x7d
 4836 0fe3 00       		.sleb128 0
 4837 0fe4 02       		.uleb128 0x2
 4838 0fe5 75       		.byte	0x75
 4839 0fe6 00       		.sleb128 0
 4840 0fe7 00       		.byte	0
 4841 0fe8 0A       		.uleb128 0xa
 4842 0fe9 48000000 		.4byte	.LVL209
 4843 0fed 09090000 		.4byte	0x909
 4844 0ff1 12100000 		.4byte	0x1012
 4845 0ff5 0B       		.uleb128 0xb
 4846 0ff6 01       		.uleb128 0x1
 4847 0ff7 50       		.byte	0x50
 4848 0ff8 01       		.uleb128 0x1
 4849 0ff9 4E       		.byte	0x4e
 4850 0ffa 0B       		.uleb128 0xb
 4851 0ffb 01       		.uleb128 0x1
 4852 0ffc 51       		.byte	0x51
 4853 0ffd 01       		.uleb128 0x1
 4854 0ffe 3A       		.byte	0x3a
 4855 0fff 0B       		.uleb128 0xb
 4856 1000 01       		.uleb128 0x1
 4857 1001 52       		.byte	0x52
 4858 1002 01       		.uleb128 0x1
 4859 1003 4E       		.byte	0x4e
 4860 1004 0B       		.uleb128 0xb
 4861 1005 01       		.uleb128 0x1
 4862 1006 53       		.byte	0x53
 4863 1007 02       		.uleb128 0x2
 4864 1008 08       		.byte	0x8
 4865 1009 C9       		.byte	0xc9
 4866 100a 0B       		.uleb128 0xb
 4867 100b 02       		.uleb128 0x2
 4868 100c 7D       		.byte	0x7d
 4869 100d 00       		.sleb128 0
 4870 100e 02       		.uleb128 0x2
 4871 100f 75       		.byte	0x75
 4872 1010 00       		.sleb128 0
 4873 1011 00       		.byte	0
 4874 1012 0F       		.uleb128 0xf
 4875 1013 4E010000 		.4byte	.LVL229
 4876 1017 D4090000 		.4byte	0x9d4
 4877 101b 0B       		.uleb128 0xb
 4878 101c 01       		.uleb128 0x1
 4879 101d 50       		.byte	0x50
 4880 101e 02       		.uleb128 0x2
 4881 101f 08       		.byte	0x8
 4882 1020 82       		.byte	0x82
 4883 1021 0B       		.uleb128 0xb
 4884 1022 01       		.uleb128 0x1
 4885 1023 51       		.byte	0x51
 4886 1024 02       		.uleb128 0x2
 4887 1025 08       		.byte	0x8
 4888 1026 D1       		.byte	0xd1
ARM GAS  C:\Users\legoc\AppData\Local\Temp\cchaQR7h.s 			page 99


 4889 1027 0B       		.uleb128 0xb
 4890 1028 01       		.uleb128 0x1
 4891 1029 52       		.byte	0x52
 4892 102a 02       		.uleb128 0x2
 4893 102b 08       		.byte	0x8
 4894 102c 3C       		.byte	0x3c
 4895 102d 0B       		.uleb128 0xb
 4896 102e 01       		.uleb128 0x1
 4897 102f 53       		.byte	0x53
 4898 1030 01       		.uleb128 0x1
 4899 1031 4E       		.byte	0x4e
 4900 1032 0B       		.uleb128 0xb
 4901 1033 02       		.uleb128 0x2
 4902 1034 7D       		.byte	0x7d
 4903 1035 00       		.sleb128 0
 4904 1036 03       		.uleb128 0x3
 4905 1037 0B       		.byte	0xb
 4906 1038 00F8     		.2byte	0xf800
 4907 103a 0B       		.uleb128 0xb
 4908 103b 02       		.uleb128 0x2
 4909 103c 7D       		.byte	0x7d
 4910 103d 04       		.sleb128 4
 4911 103e 01       		.uleb128 0x1
 4912 103f 30       		.byte	0x30
 4913 1040 0B       		.uleb128 0xb
 4914 1041 02       		.uleb128 0x2
 4915 1042 7D       		.byte	0x7d
 4916 1043 08       		.sleb128 8
 4917 1044 02       		.uleb128 0x2
 4918 1045 91       		.byte	0x91
 4919 1046 50       		.sleb128 -48
 4920 1047 00       		.byte	0
 4921 1048 00       		.byte	0
 4922 1049 06       		.uleb128 0x6
 4923 104a D1000000 		.4byte	0xd1
 4924 104e 59100000 		.4byte	0x1059
 4925 1052 07       		.uleb128 0x7
 4926 1053 DF000000 		.4byte	0xdf
 4927 1057 09       		.byte	0x9
 4928 1058 00       		.byte	0
 4929 1059 06       		.uleb128 0x6
 4930 105a D1000000 		.4byte	0xd1
 4931 105e 69100000 		.4byte	0x1069
 4932 1062 07       		.uleb128 0x7
 4933 1063 DF000000 		.4byte	0xdf
 4934 1067 03       		.byte	0x3
 4935 1068 00       		.byte	0
 4936 1069 06       		.uleb128 0x6
 4937 106a D1000000 		.4byte	0xd1
 4938 106e 79100000 		.4byte	0x1079
 4939 1072 07       		.uleb128 0x7
 4940 1073 DF000000 		.4byte	0xdf
 4941 1077 04       		.byte	0x4
 4942 1078 00       		.byte	0
 4943 1079 27       		.uleb128 0x27
 4944 107a 00000000 		.4byte	.LASF70
 4945 107e 01       		.byte	0x1
ARM GAS  C:\Users\legoc\AppData\Local\Temp\cchaQR7h.s 			page 100


 4946 107f B501     		.2byte	0x1b5
 4947 1081 00000000 		.4byte	.LFB16
 4948 1085 E4000000 		.4byte	.LFE16-.LFB16
 4949 1089 01       		.uleb128 0x1
 4950 108a 9C       		.byte	0x9c
 4951 108b 9C120000 		.4byte	0x129c
 4952 108f 0A       		.uleb128 0xa
 4953 1090 1A000000 		.4byte	.LVL231
 4954 1094 BF040000 		.4byte	0x4bf
 4955 1098 BB100000 		.4byte	0x10bb
 4956 109c 0B       		.uleb128 0xb
 4957 109d 01       		.uleb128 0x1
 4958 109e 50       		.byte	0x50
 4959 109f 02       		.uleb128 0x2
 4960 10a0 74       		.byte	0x74
 4961 10a1 00       		.sleb128 0
 4962 10a2 0B       		.uleb128 0xb
 4963 10a3 01       		.uleb128 0x1
 4964 10a4 51       		.byte	0x51
 4965 10a5 02       		.uleb128 0x2
 4966 10a6 74       		.byte	0x74
 4967 10a7 00       		.sleb128 0
 4968 10a8 0B       		.uleb128 0xb
 4969 10a9 01       		.uleb128 0x1
 4970 10aa 52       		.byte	0x52
 4971 10ab 02       		.uleb128 0x2
 4972 10ac 08       		.byte	0x8
 4973 10ad A0       		.byte	0xa0
 4974 10ae 0B       		.uleb128 0xb
 4975 10af 01       		.uleb128 0x1
 4976 10b0 53       		.byte	0x53
 4977 10b1 02       		.uleb128 0x2
 4978 10b2 08       		.byte	0x8
 4979 10b3 F0       		.byte	0xf0
 4980 10b4 0B       		.uleb128 0xb
 4981 10b5 02       		.uleb128 0x2
 4982 10b6 7D       		.byte	0x7d
 4983 10b7 00       		.sleb128 0
 4984 10b8 01       		.uleb128 0x1
 4985 10b9 4F       		.byte	0x4f
 4986 10ba 00       		.byte	0
 4987 10bb 0A       		.uleb128 0xa
 4988 10bc 2C000000 		.4byte	.LVL232
 4989 10c0 BF040000 		.4byte	0x4bf
 4990 10c4 E9100000 		.4byte	0x10e9
 4991 10c8 0B       		.uleb128 0xb
 4992 10c9 01       		.uleb128 0x1
 4993 10ca 50       		.byte	0x50
 4994 10cb 02       		.uleb128 0x2
 4995 10cc 08       		.byte	0x8
 4996 10cd A0       		.byte	0xa0
 4997 10ce 0B       		.uleb128 0xb
 4998 10cf 01       		.uleb128 0x1
 4999 10d0 51       		.byte	0x51
 5000 10d1 02       		.uleb128 0x2
 5001 10d2 74       		.byte	0x74
 5002 10d3 00       		.sleb128 0
ARM GAS  C:\Users\legoc\AppData\Local\Temp\cchaQR7h.s 			page 101


 5003 10d4 0B       		.uleb128 0xb
 5004 10d5 01       		.uleb128 0x1
 5005 10d6 52       		.byte	0x52
 5006 10d7 02       		.uleb128 0x2
 5007 10d8 08       		.byte	0x8
 5008 10d9 A0       		.byte	0xa0
 5009 10da 0B       		.uleb128 0xb
 5010 10db 01       		.uleb128 0x1
 5011 10dc 53       		.byte	0x53
 5012 10dd 02       		.uleb128 0x2
 5013 10de 08       		.byte	0x8
 5014 10df F0       		.byte	0xf0
 5015 10e0 0B       		.uleb128 0xb
 5016 10e1 02       		.uleb128 0x2
 5017 10e2 7D       		.byte	0x7d
 5018 10e3 00       		.sleb128 0
 5019 10e4 03       		.uleb128 0x3
 5020 10e5 0B       		.byte	0xb
 5021 10e6 00F8     		.2byte	0xf800
 5022 10e8 00       		.byte	0
 5023 10e9 0A       		.uleb128 0xa
 5024 10ea 3A000000 		.4byte	.LVL233
 5025 10ee BF040000 		.4byte	0x4bf
 5026 10f2 15110000 		.4byte	0x1115
 5027 10f6 0B       		.uleb128 0xb
 5028 10f7 01       		.uleb128 0x1
 5029 10f8 50       		.byte	0x50
 5030 10f9 02       		.uleb128 0x2
 5031 10fa 08       		.byte	0x8
 5032 10fb 9F       		.byte	0x9f
 5033 10fc 0B       		.uleb128 0xb
 5034 10fd 01       		.uleb128 0x1
 5035 10fe 51       		.byte	0x51
 5036 10ff 02       		.uleb128 0x2
 5037 1100 74       		.byte	0x74
 5038 1101 00       		.sleb128 0
 5039 1102 0B       		.uleb128 0xb
 5040 1103 01       		.uleb128 0x1
 5041 1104 52       		.byte	0x52
 5042 1105 01       		.uleb128 0x1
 5043 1106 32       		.byte	0x32
 5044 1107 0B       		.uleb128 0xb
 5045 1108 01       		.uleb128 0x1
 5046 1109 53       		.byte	0x53
 5047 110a 02       		.uleb128 0x2
 5048 110b 08       		.byte	0x8
 5049 110c F0       		.byte	0xf0
 5050 110d 0B       		.uleb128 0xb
 5051 110e 02       		.uleb128 0x2
 5052 110f 7D       		.byte	0x7d
 5053 1110 00       		.sleb128 0
 5054 1111 02       		.uleb128 0x2
 5055 1112 74       		.byte	0x74
 5056 1113 00       		.sleb128 0
 5057 1114 00       		.byte	0
 5058 1115 0A       		.uleb128 0xa
 5059 1116 4A000000 		.4byte	.LVL234
ARM GAS  C:\Users\legoc\AppData\Local\Temp\cchaQR7h.s 			page 102


 5060 111a BF040000 		.4byte	0x4bf
 5061 111e 42110000 		.4byte	0x1142
 5062 1122 0B       		.uleb128 0xb
 5063 1123 01       		.uleb128 0x1
 5064 1124 50       		.byte	0x50
 5065 1125 02       		.uleb128 0x2
 5066 1126 74       		.byte	0x74
 5067 1127 00       		.sleb128 0
 5068 1128 0B       		.uleb128 0xb
 5069 1129 01       		.uleb128 0x1
 5070 112a 51       		.byte	0x51
 5071 112b 02       		.uleb128 0x2
 5072 112c 08       		.byte	0x8
 5073 112d 77       		.byte	0x77
 5074 112e 0B       		.uleb128 0xb
 5075 112f 01       		.uleb128 0x1
 5076 1130 52       		.byte	0x52
 5077 1131 03       		.uleb128 0x3
 5078 1132 0A       		.byte	0xa
 5079 1133 4001     		.2byte	0x140
 5080 1135 0B       		.uleb128 0xb
 5081 1136 01       		.uleb128 0x1
 5082 1137 53       		.byte	0x53
 5083 1138 01       		.uleb128 0x1
 5084 1139 32       		.byte	0x32
 5085 113a 0B       		.uleb128 0xb
 5086 113b 02       		.uleb128 0x2
 5087 113c 7D       		.byte	0x7d
 5088 113d 00       		.sleb128 0
 5089 113e 02       		.uleb128 0x2
 5090 113f 74       		.byte	0x74
 5091 1140 00       		.sleb128 0
 5092 1141 00       		.byte	0
 5093 1142 0A       		.uleb128 0xa
 5094 1143 58000000 		.4byte	.LVL235
 5095 1147 BF040000 		.4byte	0x4bf
 5096 114b 6E110000 		.4byte	0x116e
 5097 114f 0B       		.uleb128 0xb
 5098 1150 01       		.uleb128 0x1
 5099 1151 50       		.byte	0x50
 5100 1152 02       		.uleb128 0x2
 5101 1153 08       		.byte	0x8
 5102 1154 21       		.byte	0x21
 5103 1155 0B       		.uleb128 0xb
 5104 1156 01       		.uleb128 0x1
 5105 1157 51       		.byte	0x51
 5106 1158 02       		.uleb128 0x2
 5107 1159 08       		.byte	0x8
 5108 115a 6D       		.byte	0x6d
 5109 115b 0B       		.uleb128 0xb
 5110 115c 01       		.uleb128 0x1
 5111 115d 52       		.byte	0x52
 5112 115e 02       		.uleb128 0x2
 5113 115f 08       		.byte	0x8
 5114 1160 FC       		.byte	0xfc
 5115 1161 0B       		.uleb128 0xb
 5116 1162 01       		.uleb128 0x1
ARM GAS  C:\Users\legoc\AppData\Local\Temp\cchaQR7h.s 			page 103


 5117 1163 53       		.byte	0x53
 5118 1164 01       		.uleb128 0x1
 5119 1165 46       		.byte	0x46
 5120 1166 0B       		.uleb128 0xb
 5121 1167 02       		.uleb128 0x2
 5122 1168 7D       		.byte	0x7d
 5123 1169 00       		.sleb128 0
 5124 116a 02       		.uleb128 0x2
 5125 116b 74       		.byte	0x74
 5126 116c 00       		.sleb128 0
 5127 116d 00       		.byte	0
 5128 116e 0A       		.uleb128 0xa
 5129 116f 70000000 		.4byte	.LVL236
 5130 1173 D4090000 		.4byte	0x9d4
 5131 1177 AB110000 		.4byte	0x11ab
 5132 117b 0B       		.uleb128 0xb
 5133 117c 01       		.uleb128 0x1
 5134 117d 50       		.byte	0x50
 5135 117e 02       		.uleb128 0x2
 5136 117f 08       		.byte	0x8
 5137 1180 23       		.byte	0x23
 5138 1181 0B       		.uleb128 0xb
 5139 1182 01       		.uleb128 0x1
 5140 1183 51       		.byte	0x51
 5141 1184 02       		.uleb128 0x2
 5142 1185 08       		.byte	0x8
 5143 1186 6F       		.byte	0x6f
 5144 1187 0B       		.uleb128 0xb
 5145 1188 01       		.uleb128 0x1
 5146 1189 52       		.byte	0x52
 5147 118a 02       		.uleb128 0x2
 5148 118b 08       		.byte	0x8
 5149 118c F8       		.byte	0xf8
 5150 118d 0B       		.uleb128 0xb
 5151 118e 01       		.uleb128 0x1
 5152 118f 53       		.byte	0x53
 5153 1190 01       		.uleb128 0x1
 5154 1191 42       		.byte	0x42
 5155 1192 0B       		.uleb128 0xb
 5156 1193 02       		.uleb128 0x2
 5157 1194 7D       		.byte	0x7d
 5158 1195 00       		.sleb128 0
 5159 1196 02       		.uleb128 0x2
 5160 1197 09       		.byte	0x9
 5161 1198 FF       		.byte	0xff
 5162 1199 0B       		.uleb128 0xb
 5163 119a 02       		.uleb128 0x2
 5164 119b 7D       		.byte	0x7d
 5165 119c 04       		.sleb128 4
 5166 119d 02       		.uleb128 0x2
 5167 119e 74       		.byte	0x74
 5168 119f 00       		.sleb128 0
 5169 11a0 0B       		.uleb128 0xb
 5170 11a1 02       		.uleb128 0x2
 5171 11a2 7D       		.byte	0x7d
 5172 11a3 08       		.sleb128 8
 5173 11a4 05       		.uleb128 0x5
ARM GAS  C:\Users\legoc\AppData\Local\Temp\cchaQR7h.s 			page 104


 5174 11a5 03       		.byte	0x3
 5175 11a6 38000000 		.4byte	.LC7
 5176 11aa 00       		.byte	0
 5177 11ab 0A       		.uleb128 0xa
 5178 11ac 88000000 		.4byte	.LVL237
 5179 11b0 D4090000 		.4byte	0x9d4
 5180 11b4 E7110000 		.4byte	0x11e7
 5181 11b8 0B       		.uleb128 0xb
 5182 11b9 01       		.uleb128 0x1
 5183 11ba 50       		.byte	0x50
 5184 11bb 01       		.uleb128 0x1
 5185 11bc 3A       		.byte	0x3a
 5186 11bd 0B       		.uleb128 0xb
 5187 11be 01       		.uleb128 0x1
 5188 11bf 51       		.byte	0x51
 5189 11c0 01       		.uleb128 0x1
 5190 11c1 3A       		.byte	0x3a
 5191 11c2 0B       		.uleb128 0xb
 5192 11c3 01       		.uleb128 0x1
 5193 11c4 52       		.byte	0x52
 5194 11c5 02       		.uleb128 0x2
 5195 11c6 08       		.byte	0x8
 5196 11c7 8B       		.byte	0x8b
 5197 11c8 0B       		.uleb128 0xb
 5198 11c9 01       		.uleb128 0x1
 5199 11ca 53       		.byte	0x53
 5200 11cb 02       		.uleb128 0x2
 5201 11cc 08       		.byte	0x8
 5202 11cd 63       		.byte	0x63
 5203 11ce 0B       		.uleb128 0xb
 5204 11cf 02       		.uleb128 0x2
 5205 11d0 7D       		.byte	0x7d
 5206 11d1 00       		.sleb128 0
 5207 11d2 02       		.uleb128 0x2
 5208 11d3 75       		.byte	0x75
 5209 11d4 00       		.sleb128 0
 5210 11d5 0B       		.uleb128 0xb
 5211 11d6 02       		.uleb128 0x2
 5212 11d7 7D       		.byte	0x7d
 5213 11d8 04       		.sleb128 4
 5214 11d9 02       		.uleb128 0x2
 5215 11da 74       		.byte	0x74
 5216 11db 00       		.sleb128 0
 5217 11dc 0B       		.uleb128 0xb
 5218 11dd 02       		.uleb128 0x2
 5219 11de 7D       		.byte	0x7d
 5220 11df 08       		.sleb128 8
 5221 11e0 05       		.uleb128 0x5
 5222 11e1 03       		.byte	0x3
 5223 11e2 54000000 		.4byte	.LC8
 5224 11e6 00       		.byte	0
 5225 11e7 0A       		.uleb128 0xa
 5226 11e8 9C000000 		.4byte	.LVL238
 5227 11ec D4090000 		.4byte	0x9d4
 5228 11f0 24120000 		.4byte	0x1224
 5229 11f4 0B       		.uleb128 0xb
 5230 11f5 01       		.uleb128 0x1
ARM GAS  C:\Users\legoc\AppData\Local\Temp\cchaQR7h.s 			page 105


 5231 11f6 50       		.byte	0x50
 5232 11f7 01       		.uleb128 0x1
 5233 11f8 3A       		.byte	0x3a
 5234 11f9 0B       		.uleb128 0xb
 5235 11fa 01       		.uleb128 0x1
 5236 11fb 51       		.byte	0x51
 5237 11fc 02       		.uleb128 0x2
 5238 11fd 08       		.byte	0x8
 5239 11fe 83       		.byte	0x83
 5240 11ff 0B       		.uleb128 0xb
 5241 1200 01       		.uleb128 0x1
 5242 1201 52       		.byte	0x52
 5243 1202 02       		.uleb128 0x2
 5244 1203 08       		.byte	0x8
 5245 1204 8B       		.byte	0x8b
 5246 1205 0B       		.uleb128 0xb
 5247 1206 01       		.uleb128 0x1
 5248 1207 53       		.byte	0x53
 5249 1208 02       		.uleb128 0x2
 5250 1209 08       		.byte	0x8
 5251 120a 63       		.byte	0x63
 5252 120b 0B       		.uleb128 0xb
 5253 120c 02       		.uleb128 0x2
 5254 120d 7D       		.byte	0x7d
 5255 120e 00       		.sleb128 0
 5256 120f 02       		.uleb128 0x2
 5257 1210 75       		.byte	0x75
 5258 1211 00       		.sleb128 0
 5259 1212 0B       		.uleb128 0xb
 5260 1213 02       		.uleb128 0x2
 5261 1214 7D       		.byte	0x7d
 5262 1215 04       		.sleb128 4
 5263 1216 02       		.uleb128 0x2
 5264 1217 74       		.byte	0x74
 5265 1218 00       		.sleb128 0
 5266 1219 0B       		.uleb128 0xb
 5267 121a 02       		.uleb128 0x2
 5268 121b 7D       		.byte	0x7d
 5269 121c 08       		.sleb128 8
 5270 121d 05       		.uleb128 0x5
 5271 121e 03       		.byte	0x3
 5272 121f 60000000 		.4byte	.LC9
 5273 1223 00       		.byte	0
 5274 1224 0A       		.uleb128 0xa
 5275 1225 B4000000 		.4byte	.LVL239
 5276 1229 D4090000 		.4byte	0x9d4
 5277 122d 61120000 		.4byte	0x1261
 5278 1231 0B       		.uleb128 0xb
 5279 1232 01       		.uleb128 0x1
 5280 1233 50       		.byte	0x50
 5281 1234 02       		.uleb128 0x2
 5282 1235 08       		.byte	0x8
 5283 1236 AB       		.byte	0xab
 5284 1237 0B       		.uleb128 0xb
 5285 1238 01       		.uleb128 0x1
 5286 1239 51       		.byte	0x51
 5287 123a 01       		.uleb128 0x1
ARM GAS  C:\Users\legoc\AppData\Local\Temp\cchaQR7h.s 			page 106


 5288 123b 3A       		.byte	0x3a
 5289 123c 0B       		.uleb128 0xb
 5290 123d 01       		.uleb128 0x1
 5291 123e 52       		.byte	0x52
 5292 123f 02       		.uleb128 0x2
 5293 1240 08       		.byte	0x8
 5294 1241 8B       		.byte	0x8b
 5295 1242 0B       		.uleb128 0xb
 5296 1243 01       		.uleb128 0x1
 5297 1244 53       		.byte	0x53
 5298 1245 02       		.uleb128 0x2
 5299 1246 08       		.byte	0x8
 5300 1247 63       		.byte	0x63
 5301 1248 0B       		.uleb128 0xb
 5302 1249 02       		.uleb128 0x2
 5303 124a 7D       		.byte	0x7d
 5304 124b 00       		.sleb128 0
 5305 124c 02       		.uleb128 0x2
 5306 124d 75       		.byte	0x75
 5307 124e 00       		.sleb128 0
 5308 124f 0B       		.uleb128 0xb
 5309 1250 02       		.uleb128 0x2
 5310 1251 7D       		.byte	0x7d
 5311 1252 04       		.sleb128 4
 5312 1253 02       		.uleb128 0x2
 5313 1254 74       		.byte	0x74
 5314 1255 00       		.sleb128 0
 5315 1256 0B       		.uleb128 0xb
 5316 1257 02       		.uleb128 0x2
 5317 1258 7D       		.byte	0x7d
 5318 1259 08       		.sleb128 8
 5319 125a 05       		.uleb128 0x5
 5320 125b 03       		.byte	0x3
 5321 125c 68000000 		.4byte	.LC10
 5322 1260 00       		.byte	0
 5323 1261 0F       		.uleb128 0xf
 5324 1262 C8000000 		.4byte	.LVL240
 5325 1266 D4090000 		.4byte	0x9d4
 5326 126a 0B       		.uleb128 0xb
 5327 126b 01       		.uleb128 0x1
 5328 126c 50       		.byte	0x50
 5329 126d 02       		.uleb128 0x2
 5330 126e 08       		.byte	0x8
 5331 126f AB       		.byte	0xab
 5332 1270 0B       		.uleb128 0xb
 5333 1271 01       		.uleb128 0x1
 5334 1272 51       		.byte	0x51
 5335 1273 02       		.uleb128 0x2
 5336 1274 08       		.byte	0x8
 5337 1275 83       		.byte	0x83
 5338 1276 0B       		.uleb128 0xb
 5339 1277 01       		.uleb128 0x1
 5340 1278 52       		.byte	0x52
 5341 1279 02       		.uleb128 0x2
 5342 127a 08       		.byte	0x8
 5343 127b 8B       		.byte	0x8b
 5344 127c 0B       		.uleb128 0xb
ARM GAS  C:\Users\legoc\AppData\Local\Temp\cchaQR7h.s 			page 107


 5345 127d 01       		.uleb128 0x1
 5346 127e 53       		.byte	0x53
 5347 127f 02       		.uleb128 0x2
 5348 1280 08       		.byte	0x8
 5349 1281 63       		.byte	0x63
 5350 1282 0B       		.uleb128 0xb
 5351 1283 02       		.uleb128 0x2
 5352 1284 7D       		.byte	0x7d
 5353 1285 00       		.sleb128 0
 5354 1286 02       		.uleb128 0x2
 5355 1287 75       		.byte	0x75
 5356 1288 00       		.sleb128 0
 5357 1289 0B       		.uleb128 0xb
 5358 128a 02       		.uleb128 0x2
 5359 128b 7D       		.byte	0x7d
 5360 128c 04       		.sleb128 4
 5361 128d 02       		.uleb128 0x2
 5362 128e 74       		.byte	0x74
 5363 128f 00       		.sleb128 0
 5364 1290 0B       		.uleb128 0xb
 5365 1291 02       		.uleb128 0x2
 5366 1292 7D       		.byte	0x7d
 5367 1293 08       		.sleb128 8
 5368 1294 05       		.uleb128 0x5
 5369 1295 03       		.byte	0x3
 5370 1296 74000000 		.4byte	.LC11
 5371 129a 00       		.byte	0
 5372 129b 00       		.byte	0
 5373 129c 27       		.uleb128 0x27
 5374 129d 02050000 		.4byte	.LASF71
 5375 12a1 01       		.byte	0x1
 5376 12a2 CC01     		.2byte	0x1cc
 5377 12a4 00000000 		.4byte	.LFB17
 5378 12a8 30010000 		.4byte	.LFE17-.LFB17
 5379 12ac 01       		.uleb128 0x1
 5380 12ad 9C       		.byte	0x9c
 5381 12ae F8140000 		.4byte	0x14f8
 5382 12b2 26       		.uleb128 0x26
 5383 12b3 B2020000 		.4byte	.LASF72
 5384 12b7 01       		.byte	0x1
 5385 12b8 D201     		.2byte	0x1d2
 5386 12ba F8140000 		.4byte	0x14f8
 5387 12be 02       		.uleb128 0x2
 5388 12bf 91       		.byte	0x91
 5389 12c0 5C       		.sleb128 -36
 5390 12c1 26       		.uleb128 0x26
 5391 12c2 B8020000 		.4byte	.LASF73
 5392 12c6 01       		.byte	0x1
 5393 12c7 D301     		.2byte	0x1d3
 5394 12c9 08150000 		.4byte	0x1508
 5395 12cd 02       		.uleb128 0x2
 5396 12ce 91       		.byte	0x91
 5397 12cf 4C       		.sleb128 -52
 5398 12d0 26       		.uleb128 0x26
 5399 12d1 BE020000 		.4byte	.LASF74
 5400 12d5 01       		.byte	0x1
 5401 12d6 D401     		.2byte	0x1d4
ARM GAS  C:\Users\legoc\AppData\Local\Temp\cchaQR7h.s 			page 108


 5402 12d8 18150000 		.4byte	0x1518
 5403 12dc 03       		.uleb128 0x3
 5404 12dd 91       		.byte	0x91
 5405 12de B87F     		.sleb128 -72
 5406 12e0 26       		.uleb128 0x26
 5407 12e1 C4020000 		.4byte	.LASF75
 5408 12e5 01       		.byte	0x1
 5409 12e6 D501     		.2byte	0x1d5
 5410 12e8 28150000 		.4byte	0x1528
 5411 12ec 03       		.uleb128 0x3
 5412 12ed 91       		.byte	0x91
 5413 12ee A07F     		.sleb128 -96
 5414 12f0 26       		.uleb128 0x26
 5415 12f1 CA020000 		.4byte	.LASF76
 5416 12f5 01       		.byte	0x1
 5417 12f6 D601     		.2byte	0x1d6
 5418 12f8 38150000 		.4byte	0x1538
 5419 12fc 03       		.uleb128 0x3
 5420 12fd 91       		.byte	0x91
 5421 12fe 987F     		.sleb128 -104
 5422 1300 26       		.uleb128 0x26
 5423 1301 D0020000 		.4byte	.LASF77
 5424 1305 01       		.byte	0x1
 5425 1306 D701     		.2byte	0x1d7
 5426 1308 48150000 		.4byte	0x1548
 5427 130c 03       		.uleb128 0x3
 5428 130d 91       		.byte	0x91
 5429 130e 8C7F     		.sleb128 -116
 5430 1310 0A       		.uleb128 0xa
 5431 1311 7A000000 		.4byte	.LVL241
 5432 1315 D4090000 		.4byte	0x9d4
 5433 1319 4B130000 		.4byte	0x134b
 5434 131d 0B       		.uleb128 0xb
 5435 131e 01       		.uleb128 0x1
 5436 131f 50       		.byte	0x50
 5437 1320 02       		.uleb128 0x2
 5438 1321 74       		.byte	0x74
 5439 1322 00       		.sleb128 0
 5440 1323 0B       		.uleb128 0xb
 5441 1324 01       		.uleb128 0x1
 5442 1325 51       		.byte	0x51
 5443 1326 02       		.uleb128 0x2
 5444 1327 74       		.byte	0x74
 5445 1328 00       		.sleb128 0
 5446 1329 0B       		.uleb128 0xb
 5447 132a 01       		.uleb128 0x1
 5448 132b 52       		.byte	0x52
 5449 132c 02       		.uleb128 0x2
 5450 132d 08       		.byte	0x8
 5451 132e 77       		.byte	0x77
 5452 132f 0B       		.uleb128 0xb
 5453 1330 01       		.uleb128 0x1
 5454 1331 53       		.byte	0x53
 5455 1332 02       		.uleb128 0x2
 5456 1333 08       		.byte	0x8
 5457 1334 77       		.byte	0x77
 5458 1335 0B       		.uleb128 0xb
ARM GAS  C:\Users\legoc\AppData\Local\Temp\cchaQR7h.s 			page 109


 5459 1336 02       		.uleb128 0x2
 5460 1337 7D       		.byte	0x7d
 5461 1338 00       		.sleb128 0
 5462 1339 02       		.uleb128 0x2
 5463 133a 75       		.byte	0x75
 5464 133b 00       		.sleb128 0
 5465 133c 0B       		.uleb128 0xb
 5466 133d 02       		.uleb128 0x2
 5467 133e 7D       		.byte	0x7d
 5468 133f 04       		.sleb128 4
 5469 1340 02       		.uleb128 0x2
 5470 1341 74       		.byte	0x74
 5471 1342 00       		.sleb128 0
 5472 1343 0B       		.uleb128 0xb
 5473 1344 02       		.uleb128 0x2
 5474 1345 7D       		.byte	0x7d
 5475 1346 08       		.sleb128 8
 5476 1347 02       		.uleb128 0x2
 5477 1348 91       		.byte	0x91
 5478 1349 5C       		.sleb128 -36
 5479 134a 00       		.byte	0
 5480 134b 0A       		.uleb128 0xa
 5481 134c 90000000 		.4byte	.LVL242
 5482 1350 D4090000 		.4byte	0x9d4
 5483 1354 86130000 		.4byte	0x1386
 5484 1358 0B       		.uleb128 0xb
 5485 1359 01       		.uleb128 0x1
 5486 135a 50       		.byte	0x50
 5487 135b 02       		.uleb128 0x2
 5488 135c 74       		.byte	0x74
 5489 135d 00       		.sleb128 0
 5490 135e 0B       		.uleb128 0xb
 5491 135f 01       		.uleb128 0x1
 5492 1360 51       		.byte	0x51
 5493 1361 02       		.uleb128 0x2
 5494 1362 08       		.byte	0x8
 5495 1363 79       		.byte	0x79
 5496 1364 0B       		.uleb128 0xb
 5497 1365 01       		.uleb128 0x1
 5498 1366 52       		.byte	0x52
 5499 1367 02       		.uleb128 0x2
 5500 1368 08       		.byte	0x8
 5501 1369 77       		.byte	0x77
 5502 136a 0B       		.uleb128 0xb
 5503 136b 01       		.uleb128 0x1
 5504 136c 53       		.byte	0x53
 5505 136d 02       		.uleb128 0x2
 5506 136e 08       		.byte	0x8
 5507 136f 77       		.byte	0x77
 5508 1370 0B       		.uleb128 0xb
 5509 1371 02       		.uleb128 0x2
 5510 1372 7D       		.byte	0x7d
 5511 1373 00       		.sleb128 0
 5512 1374 02       		.uleb128 0x2
 5513 1375 76       		.byte	0x76
 5514 1376 00       		.sleb128 0
 5515 1377 0B       		.uleb128 0xb
ARM GAS  C:\Users\legoc\AppData\Local\Temp\cchaQR7h.s 			page 110


 5516 1378 02       		.uleb128 0x2
 5517 1379 7D       		.byte	0x7d
 5518 137a 04       		.sleb128 4
 5519 137b 02       		.uleb128 0x2
 5520 137c 74       		.byte	0x74
 5521 137d 00       		.sleb128 0
 5522 137e 0B       		.uleb128 0xb
 5523 137f 02       		.uleb128 0x2
 5524 1380 7D       		.byte	0x7d
 5525 1381 08       		.sleb128 8
 5526 1382 02       		.uleb128 0x2
 5527 1383 91       		.byte	0x91
 5528 1384 4C       		.sleb128 -52
 5529 1385 00       		.byte	0
 5530 1386 0A       		.uleb128 0xa
 5531 1387 A4000000 		.4byte	.LVL243
 5532 138b D4090000 		.4byte	0x9d4
 5533 138f C2130000 		.4byte	0x13c2
 5534 1393 0B       		.uleb128 0xb
 5535 1394 01       		.uleb128 0x1
 5536 1395 50       		.byte	0x50
 5537 1396 02       		.uleb128 0x2
 5538 1397 08       		.byte	0x8
 5539 1398 79       		.byte	0x79
 5540 1399 0B       		.uleb128 0xb
 5541 139a 01       		.uleb128 0x1
 5542 139b 51       		.byte	0x51
 5543 139c 02       		.uleb128 0x2
 5544 139d 74       		.byte	0x74
 5545 139e 00       		.sleb128 0
 5546 139f 0B       		.uleb128 0xb
 5547 13a0 01       		.uleb128 0x1
 5548 13a1 52       		.byte	0x52
 5549 13a2 02       		.uleb128 0x2
 5550 13a3 08       		.byte	0x8
 5551 13a4 77       		.byte	0x77
 5552 13a5 0B       		.uleb128 0xb
 5553 13a6 01       		.uleb128 0x1
 5554 13a7 53       		.byte	0x53
 5555 13a8 02       		.uleb128 0x2
 5556 13a9 08       		.byte	0x8
 5557 13aa 77       		.byte	0x77
 5558 13ab 0B       		.uleb128 0xb
 5559 13ac 02       		.uleb128 0x2
 5560 13ad 7D       		.byte	0x7d
 5561 13ae 00       		.sleb128 0
 5562 13af 02       		.uleb128 0x2
 5563 13b0 76       		.byte	0x76
 5564 13b1 00       		.sleb128 0
 5565 13b2 0B       		.uleb128 0xb
 5566 13b3 02       		.uleb128 0x2
 5567 13b4 7D       		.byte	0x7d
 5568 13b5 04       		.sleb128 4
 5569 13b6 02       		.uleb128 0x2
 5570 13b7 74       		.byte	0x74
 5571 13b8 00       		.sleb128 0
 5572 13b9 0B       		.uleb128 0xb
ARM GAS  C:\Users\legoc\AppData\Local\Temp\cchaQR7h.s 			page 111


 5573 13ba 02       		.uleb128 0x2
 5574 13bb 7D       		.byte	0x7d
 5575 13bc 08       		.sleb128 8
 5576 13bd 03       		.uleb128 0x3
 5577 13be 91       		.byte	0x91
 5578 13bf B87F     		.sleb128 -72
 5579 13c1 00       		.byte	0
 5580 13c2 0A       		.uleb128 0xa
 5581 13c3 B8000000 		.4byte	.LVL244
 5582 13c7 D4090000 		.4byte	0x9d4
 5583 13cb FE130000 		.4byte	0x13fe
 5584 13cf 0B       		.uleb128 0xb
 5585 13d0 01       		.uleb128 0x1
 5586 13d1 50       		.byte	0x50
 5587 13d2 02       		.uleb128 0x2
 5588 13d3 08       		.byte	0x8
 5589 13d4 79       		.byte	0x79
 5590 13d5 0B       		.uleb128 0xb
 5591 13d6 01       		.uleb128 0x1
 5592 13d7 51       		.byte	0x51
 5593 13d8 02       		.uleb128 0x2
 5594 13d9 08       		.byte	0x8
 5595 13da 79       		.byte	0x79
 5596 13db 0B       		.uleb128 0xb
 5597 13dc 01       		.uleb128 0x1
 5598 13dd 52       		.byte	0x52
 5599 13de 02       		.uleb128 0x2
 5600 13df 08       		.byte	0x8
 5601 13e0 77       		.byte	0x77
 5602 13e1 0B       		.uleb128 0xb
 5603 13e2 01       		.uleb128 0x1
 5604 13e3 53       		.byte	0x53
 5605 13e4 02       		.uleb128 0x2
 5606 13e5 08       		.byte	0x8
 5607 13e6 77       		.byte	0x77
 5608 13e7 0B       		.uleb128 0xb
 5609 13e8 02       		.uleb128 0x2
 5610 13e9 7D       		.byte	0x7d
 5611 13ea 00       		.sleb128 0
 5612 13eb 02       		.uleb128 0x2
 5613 13ec 75       		.byte	0x75
 5614 13ed 00       		.sleb128 0
 5615 13ee 0B       		.uleb128 0xb
 5616 13ef 02       		.uleb128 0x2
 5617 13f0 7D       		.byte	0x7d
 5618 13f1 04       		.sleb128 4
 5619 13f2 02       		.uleb128 0x2
 5620 13f3 74       		.byte	0x74
 5621 13f4 00       		.sleb128 0
 5622 13f5 0B       		.uleb128 0xb
 5623 13f6 02       		.uleb128 0x2
 5624 13f7 7D       		.byte	0x7d
 5625 13f8 08       		.sleb128 8
 5626 13f9 03       		.uleb128 0x3
 5627 13fa 91       		.byte	0x91
 5628 13fb A07F     		.sleb128 -96
 5629 13fd 00       		.byte	0
ARM GAS  C:\Users\legoc\AppData\Local\Temp\cchaQR7h.s 			page 112


 5630 13fe 0A       		.uleb128 0xa
 5631 13ff D0000000 		.4byte	.LVL245
 5632 1403 D4090000 		.4byte	0x9d4
 5633 1407 3A140000 		.4byte	0x143a
 5634 140b 0B       		.uleb128 0xb
 5635 140c 01       		.uleb128 0x1
 5636 140d 50       		.byte	0x50
 5637 140e 02       		.uleb128 0x2
 5638 140f 08       		.byte	0x8
 5639 1410 F1       		.byte	0xf1
 5640 1411 0B       		.uleb128 0xb
 5641 1412 01       		.uleb128 0x1
 5642 1413 51       		.byte	0x51
 5643 1414 02       		.uleb128 0x2
 5644 1415 74       		.byte	0x74
 5645 1416 00       		.sleb128 0
 5646 1417 0B       		.uleb128 0xb
 5647 1418 01       		.uleb128 0x1
 5648 1419 52       		.byte	0x52
 5649 141a 02       		.uleb128 0x2
 5650 141b 08       		.byte	0x8
 5651 141c 4F       		.byte	0x4f
 5652 141d 0B       		.uleb128 0xb
 5653 141e 01       		.uleb128 0x1
 5654 141f 53       		.byte	0x53
 5655 1420 02       		.uleb128 0x2
 5656 1421 08       		.byte	0x8
 5657 1422 77       		.byte	0x77
 5658 1423 0B       		.uleb128 0xb
 5659 1424 02       		.uleb128 0x2
 5660 1425 7D       		.byte	0x7d
 5661 1426 00       		.sleb128 0
 5662 1427 02       		.uleb128 0x2
 5663 1428 75       		.byte	0x75
 5664 1429 00       		.sleb128 0
 5665 142a 0B       		.uleb128 0xb
 5666 142b 02       		.uleb128 0x2
 5667 142c 7D       		.byte	0x7d
 5668 142d 04       		.sleb128 4
 5669 142e 02       		.uleb128 0x2
 5670 142f 74       		.byte	0x74
 5671 1430 00       		.sleb128 0
 5672 1431 0B       		.uleb128 0xb
 5673 1432 02       		.uleb128 0x2
 5674 1433 7D       		.byte	0x7d
 5675 1434 08       		.sleb128 8
 5676 1435 03       		.uleb128 0x3
 5677 1436 91       		.byte	0x91
 5678 1437 987F     		.sleb128 -104
 5679 1439 00       		.byte	0
 5680 143a 0A       		.uleb128 0xa
 5681 143b E4000000 		.4byte	.LVL246
 5682 143f D4090000 		.4byte	0x9d4
 5683 1443 76140000 		.4byte	0x1476
 5684 1447 0B       		.uleb128 0xb
 5685 1448 01       		.uleb128 0x1
 5686 1449 50       		.byte	0x50
ARM GAS  C:\Users\legoc\AppData\Local\Temp\cchaQR7h.s 			page 113


 5687 144a 02       		.uleb128 0x2
 5688 144b 08       		.byte	0x8
 5689 144c F1       		.byte	0xf1
 5690 144d 0B       		.uleb128 0xb
 5691 144e 01       		.uleb128 0x1
 5692 144f 51       		.byte	0x51
 5693 1450 02       		.uleb128 0x2
 5694 1451 08       		.byte	0x8
 5695 1452 79       		.byte	0x79
 5696 1453 0B       		.uleb128 0xb
 5697 1454 01       		.uleb128 0x1
 5698 1455 52       		.byte	0x52
 5699 1456 02       		.uleb128 0x2
 5700 1457 08       		.byte	0x8
 5701 1458 4F       		.byte	0x4f
 5702 1459 0B       		.uleb128 0xb
 5703 145a 01       		.uleb128 0x1
 5704 145b 53       		.byte	0x53
 5705 145c 02       		.uleb128 0x2
 5706 145d 08       		.byte	0x8
 5707 145e 77       		.byte	0x77
 5708 145f 0B       		.uleb128 0xb
 5709 1460 02       		.uleb128 0x2
 5710 1461 7D       		.byte	0x7d
 5711 1462 00       		.sleb128 0
 5712 1463 02       		.uleb128 0x2
 5713 1464 75       		.byte	0x75
 5714 1465 00       		.sleb128 0
 5715 1466 0B       		.uleb128 0xb
 5716 1467 02       		.uleb128 0x2
 5717 1468 7D       		.byte	0x7d
 5718 1469 04       		.sleb128 4
 5719 146a 02       		.uleb128 0x2
 5720 146b 74       		.byte	0x74
 5721 146c 00       		.sleb128 0
 5722 146d 0B       		.uleb128 0xb
 5723 146e 02       		.uleb128 0x2
 5724 146f 7D       		.byte	0x7d
 5725 1470 08       		.sleb128 8
 5726 1471 03       		.uleb128 0x3
 5727 1472 91       		.byte	0x91
 5728 1473 8C7F     		.sleb128 -116
 5729 1475 00       		.byte	0
 5730 1476 0A       		.uleb128 0xa
 5731 1477 F2000000 		.4byte	.LVL247
 5732 147b BF040000 		.4byte	0x4bf
 5733 147f A2140000 		.4byte	0x14a2
 5734 1483 0B       		.uleb128 0xb
 5735 1484 01       		.uleb128 0x1
 5736 1485 50       		.byte	0x50
 5737 1486 02       		.uleb128 0x2
 5738 1487 08       		.byte	0x8
 5739 1488 77       		.byte	0x77
 5740 1489 0B       		.uleb128 0xb
 5741 148a 01       		.uleb128 0x1
 5742 148b 51       		.byte	0x51
 5743 148c 02       		.uleb128 0x2
ARM GAS  C:\Users\legoc\AppData\Local\Temp\cchaQR7h.s 			page 114


 5744 148d 74       		.byte	0x74
 5745 148e 00       		.sleb128 0
 5746 148f 0B       		.uleb128 0xb
 5747 1490 01       		.uleb128 0x1
 5748 1491 52       		.byte	0x52
 5749 1492 01       		.uleb128 0x1
 5750 1493 32       		.byte	0x32
 5751 1494 0B       		.uleb128 0xb
 5752 1495 01       		.uleb128 0x1
 5753 1496 53       		.byte	0x53
 5754 1497 02       		.uleb128 0x2
 5755 1498 08       		.byte	0x8
 5756 1499 F0       		.byte	0xf0
 5757 149a 0B       		.uleb128 0xb
 5758 149b 02       		.uleb128 0x2
 5759 149c 7D       		.byte	0x7d
 5760 149d 00       		.sleb128 0
 5761 149e 02       		.uleb128 0x2
 5762 149f 74       		.byte	0x74
 5763 14a0 00       		.sleb128 0
 5764 14a1 00       		.byte	0
 5765 14a2 0A       		.uleb128 0xa
 5766 14a3 02010000 		.4byte	.LVL248
 5767 14a7 BF040000 		.4byte	0x4bf
 5768 14ab CF140000 		.4byte	0x14cf
 5769 14af 0B       		.uleb128 0xb
 5770 14b0 01       		.uleb128 0x1
 5771 14b1 50       		.byte	0x50
 5772 14b2 02       		.uleb128 0x2
 5773 14b3 74       		.byte	0x74
 5774 14b4 00       		.sleb128 0
 5775 14b5 0B       		.uleb128 0xb
 5776 14b6 01       		.uleb128 0x1
 5777 14b7 51       		.byte	0x51
 5778 14b8 02       		.uleb128 0x2
 5779 14b9 08       		.byte	0x8
 5780 14ba 77       		.byte	0x77
 5781 14bb 0B       		.uleb128 0xb
 5782 14bc 01       		.uleb128 0x1
 5783 14bd 52       		.byte	0x52
 5784 14be 03       		.uleb128 0x3
 5785 14bf 0A       		.byte	0xa
 5786 14c0 4001     		.2byte	0x140
 5787 14c2 0B       		.uleb128 0xb
 5788 14c3 01       		.uleb128 0x1
 5789 14c4 53       		.byte	0x53
 5790 14c5 01       		.uleb128 0x1
 5791 14c6 32       		.byte	0x32
 5792 14c7 0B       		.uleb128 0xb
 5793 14c8 02       		.uleb128 0x2
 5794 14c9 7D       		.byte	0x7d
 5795 14ca 00       		.sleb128 0
 5796 14cb 02       		.uleb128 0x2
 5797 14cc 74       		.byte	0x74
 5798 14cd 00       		.sleb128 0
 5799 14ce 00       		.byte	0
 5800 14cf 0F       		.uleb128 0xf
ARM GAS  C:\Users\legoc\AppData\Local\Temp\cchaQR7h.s 			page 115


 5801 14d0 10010000 		.4byte	.LVL249
 5802 14d4 BF040000 		.4byte	0x4bf
 5803 14d8 0B       		.uleb128 0xb
 5804 14d9 01       		.uleb128 0x1
 5805 14da 50       		.byte	0x50
 5806 14db 02       		.uleb128 0x2
 5807 14dc 08       		.byte	0x8
 5808 14dd EF       		.byte	0xef
 5809 14de 0B       		.uleb128 0xb
 5810 14df 01       		.uleb128 0x1
 5811 14e0 51       		.byte	0x51
 5812 14e1 02       		.uleb128 0x2
 5813 14e2 74       		.byte	0x74
 5814 14e3 00       		.sleb128 0
 5815 14e4 0B       		.uleb128 0xb
 5816 14e5 01       		.uleb128 0x1
 5817 14e6 52       		.byte	0x52
 5818 14e7 01       		.uleb128 0x1
 5819 14e8 32       		.byte	0x32
 5820 14e9 0B       		.uleb128 0xb
 5821 14ea 01       		.uleb128 0x1
 5822 14eb 53       		.byte	0x53
 5823 14ec 02       		.uleb128 0x2
 5824 14ed 08       		.byte	0x8
 5825 14ee F0       		.byte	0xf0
 5826 14ef 0B       		.uleb128 0xb
 5827 14f0 02       		.uleb128 0x2
 5828 14f1 7D       		.byte	0x7d
 5829 14f2 00       		.sleb128 0
 5830 14f3 02       		.uleb128 0x2
 5831 14f4 74       		.byte	0x74
 5832 14f5 00       		.sleb128 0
 5833 14f6 00       		.byte	0
 5834 14f7 00       		.byte	0
 5835 14f8 06       		.uleb128 0x6
 5836 14f9 D1000000 		.4byte	0xd1
 5837 14fd 08150000 		.4byte	0x1508
 5838 1501 07       		.uleb128 0x7
 5839 1502 DF000000 		.4byte	0xdf
 5840 1506 12       		.byte	0x12
 5841 1507 00       		.byte	0
 5842 1508 06       		.uleb128 0x6
 5843 1509 D1000000 		.4byte	0xd1
 5844 150d 18150000 		.4byte	0x1518
 5845 1511 07       		.uleb128 0x7
 5846 1512 DF000000 		.4byte	0xdf
 5847 1516 0F       		.byte	0xf
 5848 1517 00       		.byte	0
 5849 1518 06       		.uleb128 0x6
 5850 1519 D1000000 		.4byte	0xd1
 5851 151d 28150000 		.4byte	0x1528
 5852 1521 07       		.uleb128 0x7
 5853 1522 DF000000 		.4byte	0xdf
 5854 1526 10       		.byte	0x10
 5855 1527 00       		.byte	0
 5856 1528 06       		.uleb128 0x6
 5857 1529 D1000000 		.4byte	0xd1
ARM GAS  C:\Users\legoc\AppData\Local\Temp\cchaQR7h.s 			page 116


 5858 152d 38150000 		.4byte	0x1538
 5859 1531 07       		.uleb128 0x7
 5860 1532 DF000000 		.4byte	0xdf
 5861 1536 15       		.byte	0x15
 5862 1537 00       		.byte	0
 5863 1538 06       		.uleb128 0x6
 5864 1539 D1000000 		.4byte	0xd1
 5865 153d 48150000 		.4byte	0x1548
 5866 1541 07       		.uleb128 0x7
 5867 1542 DF000000 		.4byte	0xdf
 5868 1546 06       		.byte	0x6
 5869 1547 00       		.byte	0
 5870 1548 06       		.uleb128 0x6
 5871 1549 D1000000 		.4byte	0xd1
 5872 154d 58150000 		.4byte	0x1558
 5873 1551 07       		.uleb128 0x7
 5874 1552 DF000000 		.4byte	0xdf
 5875 1556 08       		.byte	0x8
 5876 1557 00       		.byte	0
 5877 1558 27       		.uleb128 0x27
 5878 1559 34050000 		.4byte	.LASF78
 5879 155d 01       		.byte	0x1
 5880 155e E801     		.2byte	0x1e8
 5881 1560 00000000 		.4byte	.LFB18
 5882 1564 0C010000 		.4byte	.LFE18-.LFB18
 5883 1568 01       		.uleb128 0x1
 5884 1569 9C       		.byte	0x9c
 5885 156a FE170000 		.4byte	0x17fe
 5886 156e 26       		.uleb128 0x26
 5887 156f 2C030000 		.4byte	.LASF79
 5888 1573 01       		.byte	0x1
 5889 1574 F801     		.2byte	0x1f8
 5890 1576 59100000 		.4byte	0x1059
 5891 157a 02       		.uleb128 0x2
 5892 157b 91       		.byte	0x91
 5893 157c 6C       		.sleb128 -20
 5894 157d 20       		.uleb128 0x20
 5895 157e 97030000 		.4byte	.LASF57
 5896 1582 01       		.byte	0x1
 5897 1583 4F01     		.2byte	0x14f
 5898 1585 89000000 		.4byte	0x89
 5899 1589 8F150000 		.4byte	0x158f
 5900 158d 21       		.uleb128 0x21
 5901 158e 00       		.byte	0
 5902 158f 0A       		.uleb128 0xa
 5903 1590 10000000 		.4byte	.LVL250
 5904 1594 36050000 		.4byte	0x536
 5905 1598 A2150000 		.4byte	0x15a2
 5906 159c 0B       		.uleb128 0xb
 5907 159d 01       		.uleb128 0x1
 5908 159e 50       		.byte	0x50
 5909 159f 01       		.uleb128 0x1
 5910 15a0 30       		.byte	0x30
 5911 15a1 00       		.byte	0
 5912 15a2 0A       		.uleb128 0xa
 5913 15a3 2A000000 		.4byte	.LVL251
 5914 15a7 D4090000 		.4byte	0x9d4
ARM GAS  C:\Users\legoc\AppData\Local\Temp\cchaQR7h.s 			page 117


 5915 15ab DF150000 		.4byte	0x15df
 5916 15af 0B       		.uleb128 0xb
 5917 15b0 01       		.uleb128 0x1
 5918 15b1 50       		.byte	0x50
 5919 15b2 02       		.uleb128 0x2
 5920 15b3 74       		.byte	0x74
 5921 15b4 00       		.sleb128 0
 5922 15b5 0B       		.uleb128 0xb
 5923 15b6 01       		.uleb128 0x1
 5924 15b7 51       		.byte	0x51
 5925 15b8 02       		.uleb128 0x2
 5926 15b9 08       		.byte	0x8
 5927 15ba DB       		.byte	0xdb
 5928 15bb 0B       		.uleb128 0xb
 5929 15bc 01       		.uleb128 0x1
 5930 15bd 52       		.byte	0x52
 5931 15be 02       		.uleb128 0x2
 5932 15bf 08       		.byte	0x8
 5933 15c0 EF       		.byte	0xef
 5934 15c1 0B       		.uleb128 0xb
 5935 15c2 01       		.uleb128 0x1
 5936 15c3 53       		.byte	0x53
 5937 15c4 01       		.uleb128 0x1
 5938 15c5 44       		.byte	0x44
 5939 15c6 0B       		.uleb128 0xb
 5940 15c7 02       		.uleb128 0x2
 5941 15c8 7D       		.byte	0x7d
 5942 15c9 00       		.sleb128 0
 5943 15ca 02       		.uleb128 0x2
 5944 15cb 75       		.byte	0x75
 5945 15cc 00       		.sleb128 0
 5946 15cd 0B       		.uleb128 0xb
 5947 15ce 02       		.uleb128 0x2
 5948 15cf 7D       		.byte	0x7d
 5949 15d0 04       		.sleb128 4
 5950 15d1 02       		.uleb128 0x2
 5951 15d2 74       		.byte	0x74
 5952 15d3 00       		.sleb128 0
 5953 15d4 0B       		.uleb128 0xb
 5954 15d5 02       		.uleb128 0x2
 5955 15d6 7D       		.byte	0x7d
 5956 15d7 08       		.sleb128 8
 5957 15d8 05       		.uleb128 0x5
 5958 15d9 03       		.byte	0x3
 5959 15da E0000000 		.4byte	.LC18
 5960 15de 00       		.byte	0
 5961 15df 0A       		.uleb128 0xa
 5962 15e0 3E000000 		.4byte	.LVL252
 5963 15e4 D4090000 		.4byte	0x9d4
 5964 15e8 1D160000 		.4byte	0x161d
 5965 15ec 0B       		.uleb128 0xb
 5966 15ed 01       		.uleb128 0x1
 5967 15ee 50       		.byte	0x50
 5968 15ef 02       		.uleb128 0x2
 5969 15f0 08       		.byte	0x8
 5970 15f1 50       		.byte	0x50
 5971 15f2 0B       		.uleb128 0xb
ARM GAS  C:\Users\legoc\AppData\Local\Temp\cchaQR7h.s 			page 118


 5972 15f3 01       		.uleb128 0x1
 5973 15f4 51       		.byte	0x51
 5974 15f5 02       		.uleb128 0x2
 5975 15f6 08       		.byte	0x8
 5976 15f7 96       		.byte	0x96
 5977 15f8 0B       		.uleb128 0xb
 5978 15f9 01       		.uleb128 0x1
 5979 15fa 52       		.byte	0x52
 5980 15fb 02       		.uleb128 0x2
 5981 15fc 08       		.byte	0x8
 5982 15fd 46       		.byte	0x46
 5983 15fe 0B       		.uleb128 0xb
 5984 15ff 01       		.uleb128 0x1
 5985 1600 53       		.byte	0x53
 5986 1601 02       		.uleb128 0x2
 5987 1602 08       		.byte	0x8
 5988 1603 32       		.byte	0x32
 5989 1604 0B       		.uleb128 0xb
 5990 1605 02       		.uleb128 0x2
 5991 1606 7D       		.byte	0x7d
 5992 1607 00       		.sleb128 0
 5993 1608 02       		.uleb128 0x2
 5994 1609 75       		.byte	0x75
 5995 160a 00       		.sleb128 0
 5996 160b 0B       		.uleb128 0xb
 5997 160c 02       		.uleb128 0x2
 5998 160d 7D       		.byte	0x7d
 5999 160e 04       		.sleb128 4
 6000 160f 02       		.uleb128 0x2
 6001 1610 74       		.byte	0x74
 6002 1611 00       		.sleb128 0
 6003 1612 0B       		.uleb128 0xb
 6004 1613 02       		.uleb128 0x2
 6005 1614 7D       		.byte	0x7d
 6006 1615 08       		.sleb128 8
 6007 1616 05       		.uleb128 0x5
 6008 1617 03       		.byte	0x3
 6009 1618 FC000000 		.4byte	.LC19
 6010 161c 00       		.byte	0
 6011 161d 0A       		.uleb128 0xa
 6012 161e 52000000 		.4byte	.LVL253
 6013 1622 D4090000 		.4byte	0x9d4
 6014 1626 5B160000 		.4byte	0x165b
 6015 162a 0B       		.uleb128 0xb
 6016 162b 01       		.uleb128 0x1
 6017 162c 50       		.byte	0x50
 6018 162d 02       		.uleb128 0x2
 6019 162e 08       		.byte	0x8
 6020 162f 50       		.byte	0x50
 6021 1630 0B       		.uleb128 0xb
 6022 1631 01       		.uleb128 0x1
 6023 1632 51       		.byte	0x51
 6024 1633 02       		.uleb128 0x2
 6025 1634 08       		.byte	0x8
 6026 1635 50       		.byte	0x50
 6027 1636 0B       		.uleb128 0xb
 6028 1637 01       		.uleb128 0x1
ARM GAS  C:\Users\legoc\AppData\Local\Temp\cchaQR7h.s 			page 119


 6029 1638 52       		.byte	0x52
 6030 1639 02       		.uleb128 0x2
 6031 163a 08       		.byte	0x8
 6032 163b 46       		.byte	0x46
 6033 163c 0B       		.uleb128 0xb
 6034 163d 01       		.uleb128 0x1
 6035 163e 53       		.byte	0x53
 6036 163f 02       		.uleb128 0x2
 6037 1640 08       		.byte	0x8
 6038 1641 32       		.byte	0x32
 6039 1642 0B       		.uleb128 0xb
 6040 1643 02       		.uleb128 0x2
 6041 1644 7D       		.byte	0x7d
 6042 1645 00       		.sleb128 0
 6043 1646 02       		.uleb128 0x2
 6044 1647 75       		.byte	0x75
 6045 1648 00       		.sleb128 0
 6046 1649 0B       		.uleb128 0xb
 6047 164a 02       		.uleb128 0x2
 6048 164b 7D       		.byte	0x7d
 6049 164c 04       		.sleb128 4
 6050 164d 02       		.uleb128 0x2
 6051 164e 74       		.byte	0x74
 6052 164f 00       		.sleb128 0
 6053 1650 0B       		.uleb128 0xb
 6054 1651 02       		.uleb128 0x2
 6055 1652 7D       		.byte	0x7d
 6056 1653 08       		.sleb128 8
 6057 1654 05       		.uleb128 0x5
 6058 1655 03       		.byte	0x3
 6059 1656 04010000 		.4byte	.LC20
 6060 165a 00       		.byte	0
 6061 165b 0A       		.uleb128 0xa
 6062 165c 66000000 		.4byte	.LVL254
 6063 1660 D4090000 		.4byte	0x9d4
 6064 1664 98160000 		.4byte	0x1698
 6065 1668 0B       		.uleb128 0xb
 6066 1669 01       		.uleb128 0x1
 6067 166a 50       		.byte	0x50
 6068 166b 02       		.uleb128 0x2
 6069 166c 08       		.byte	0x8
 6070 166d 50       		.byte	0x50
 6071 166e 0B       		.uleb128 0xb
 6072 166f 01       		.uleb128 0x1
 6073 1670 51       		.byte	0x51
 6074 1671 01       		.uleb128 0x1
 6075 1672 3A       		.byte	0x3a
 6076 1673 0B       		.uleb128 0xb
 6077 1674 01       		.uleb128 0x1
 6078 1675 52       		.byte	0x52
 6079 1676 02       		.uleb128 0x2
 6080 1677 08       		.byte	0x8
 6081 1678 46       		.byte	0x46
 6082 1679 0B       		.uleb128 0xb
 6083 167a 01       		.uleb128 0x1
 6084 167b 53       		.byte	0x53
 6085 167c 02       		.uleb128 0x2
ARM GAS  C:\Users\legoc\AppData\Local\Temp\cchaQR7h.s 			page 120


 6086 167d 08       		.byte	0x8
 6087 167e 32       		.byte	0x32
 6088 167f 0B       		.uleb128 0xb
 6089 1680 02       		.uleb128 0x2
 6090 1681 7D       		.byte	0x7d
 6091 1682 00       		.sleb128 0
 6092 1683 02       		.uleb128 0x2
 6093 1684 75       		.byte	0x75
 6094 1685 00       		.sleb128 0
 6095 1686 0B       		.uleb128 0xb
 6096 1687 02       		.uleb128 0x2
 6097 1688 7D       		.byte	0x7d
 6098 1689 04       		.sleb128 4
 6099 168a 02       		.uleb128 0x2
 6100 168b 74       		.byte	0x74
 6101 168c 00       		.sleb128 0
 6102 168d 0B       		.uleb128 0xb
 6103 168e 02       		.uleb128 0x2
 6104 168f 7D       		.byte	0x7d
 6105 1690 08       		.sleb128 8
 6106 1691 05       		.uleb128 0x5
 6107 1692 03       		.byte	0x3
 6108 1693 0C010000 		.4byte	.LC21
 6109 1697 00       		.byte	0
 6110 1698 0A       		.uleb128 0xa
 6111 1699 7A000000 		.4byte	.LVL255
 6112 169d D4090000 		.4byte	0x9d4
 6113 16a1 D6160000 		.4byte	0x16d6
 6114 16a5 0B       		.uleb128 0xb
 6115 16a6 01       		.uleb128 0x1
 6116 16a7 50       		.byte	0x50
 6117 16a8 02       		.uleb128 0x2
 6118 16a9 08       		.byte	0x8
 6119 16aa A0       		.byte	0xa0
 6120 16ab 0B       		.uleb128 0xb
 6121 16ac 01       		.uleb128 0x1
 6122 16ad 51       		.byte	0x51
 6123 16ae 02       		.uleb128 0x2
 6124 16af 08       		.byte	0x8
 6125 16b0 96       		.byte	0x96
 6126 16b1 0B       		.uleb128 0xb
 6127 16b2 01       		.uleb128 0x1
 6128 16b3 52       		.byte	0x52
 6129 16b4 02       		.uleb128 0x2
 6130 16b5 08       		.byte	0x8
 6131 16b6 46       		.byte	0x46
 6132 16b7 0B       		.uleb128 0xb
 6133 16b8 01       		.uleb128 0x1
 6134 16b9 53       		.byte	0x53
 6135 16ba 02       		.uleb128 0x2
 6136 16bb 08       		.byte	0x8
 6137 16bc 32       		.byte	0x32
 6138 16bd 0B       		.uleb128 0xb
 6139 16be 02       		.uleb128 0x2
 6140 16bf 7D       		.byte	0x7d
 6141 16c0 00       		.sleb128 0
 6142 16c1 02       		.uleb128 0x2
ARM GAS  C:\Users\legoc\AppData\Local\Temp\cchaQR7h.s 			page 121


 6143 16c2 75       		.byte	0x75
 6144 16c3 00       		.sleb128 0
 6145 16c4 0B       		.uleb128 0xb
 6146 16c5 02       		.uleb128 0x2
 6147 16c6 7D       		.byte	0x7d
 6148 16c7 04       		.sleb128 4
 6149 16c8 02       		.uleb128 0x2
 6150 16c9 74       		.byte	0x74
 6151 16ca 00       		.sleb128 0
 6152 16cb 0B       		.uleb128 0xb
 6153 16cc 02       		.uleb128 0x2
 6154 16cd 7D       		.byte	0x7d
 6155 16ce 08       		.sleb128 8
 6156 16cf 05       		.uleb128 0x5
 6157 16d0 03       		.byte	0x3
 6158 16d1 18010000 		.4byte	.LC22
 6159 16d5 00       		.byte	0
 6160 16d6 0A       		.uleb128 0xa
 6161 16d7 8E000000 		.4byte	.LVL256
 6162 16db D4090000 		.4byte	0x9d4
 6163 16df 14170000 		.4byte	0x1714
 6164 16e3 0B       		.uleb128 0xb
 6165 16e4 01       		.uleb128 0x1
 6166 16e5 50       		.byte	0x50
 6167 16e6 02       		.uleb128 0x2
 6168 16e7 08       		.byte	0x8
 6169 16e8 A0       		.byte	0xa0
 6170 16e9 0B       		.uleb128 0xb
 6171 16ea 01       		.uleb128 0x1
 6172 16eb 51       		.byte	0x51
 6173 16ec 02       		.uleb128 0x2
 6174 16ed 08       		.byte	0x8
 6175 16ee 50       		.byte	0x50
 6176 16ef 0B       		.uleb128 0xb
 6177 16f0 01       		.uleb128 0x1
 6178 16f1 52       		.byte	0x52
 6179 16f2 02       		.uleb128 0x2
 6180 16f3 08       		.byte	0x8
 6181 16f4 46       		.byte	0x46
 6182 16f5 0B       		.uleb128 0xb
 6183 16f6 01       		.uleb128 0x1
 6184 16f7 53       		.byte	0x53
 6185 16f8 02       		.uleb128 0x2
 6186 16f9 08       		.byte	0x8
 6187 16fa 32       		.byte	0x32
 6188 16fb 0B       		.uleb128 0xb
 6189 16fc 02       		.uleb128 0x2
 6190 16fd 7D       		.byte	0x7d
 6191 16fe 00       		.sleb128 0
 6192 16ff 02       		.uleb128 0x2
 6193 1700 75       		.byte	0x75
 6194 1701 00       		.sleb128 0
 6195 1702 0B       		.uleb128 0xb
 6196 1703 02       		.uleb128 0x2
 6197 1704 7D       		.byte	0x7d
 6198 1705 04       		.sleb128 4
 6199 1706 02       		.uleb128 0x2
ARM GAS  C:\Users\legoc\AppData\Local\Temp\cchaQR7h.s 			page 122


 6200 1707 74       		.byte	0x74
 6201 1708 00       		.sleb128 0
 6202 1709 0B       		.uleb128 0xb
 6203 170a 02       		.uleb128 0x2
 6204 170b 7D       		.byte	0x7d
 6205 170c 08       		.sleb128 8
 6206 170d 05       		.uleb128 0x5
 6207 170e 03       		.byte	0x3
 6208 170f 20010000 		.4byte	.LC23
 6209 1713 00       		.byte	0
 6210 1714 0A       		.uleb128 0xa
 6211 1715 A2000000 		.4byte	.LVL257
 6212 1719 D4090000 		.4byte	0x9d4
 6213 171d 51170000 		.4byte	0x1751
 6214 1721 0B       		.uleb128 0xb
 6215 1722 01       		.uleb128 0x1
 6216 1723 50       		.byte	0x50
 6217 1724 02       		.uleb128 0x2
 6218 1725 08       		.byte	0x8
 6219 1726 A0       		.byte	0xa0
 6220 1727 0B       		.uleb128 0xb
 6221 1728 01       		.uleb128 0x1
 6222 1729 51       		.byte	0x51
 6223 172a 01       		.uleb128 0x1
 6224 172b 3A       		.byte	0x3a
 6225 172c 0B       		.uleb128 0xb
 6226 172d 01       		.uleb128 0x1
 6227 172e 52       		.byte	0x52
 6228 172f 02       		.uleb128 0x2
 6229 1730 08       		.byte	0x8
 6230 1731 46       		.byte	0x46
 6231 1732 0B       		.uleb128 0xb
 6232 1733 01       		.uleb128 0x1
 6233 1734 53       		.byte	0x53
 6234 1735 02       		.uleb128 0x2
 6235 1736 08       		.byte	0x8
 6236 1737 32       		.byte	0x32
 6237 1738 0B       		.uleb128 0xb
 6238 1739 02       		.uleb128 0x2
 6239 173a 7D       		.byte	0x7d
 6240 173b 00       		.sleb128 0
 6241 173c 02       		.uleb128 0x2
 6242 173d 75       		.byte	0x75
 6243 173e 00       		.sleb128 0
 6244 173f 0B       		.uleb128 0xb
 6245 1740 02       		.uleb128 0x2
 6246 1741 7D       		.byte	0x7d
 6247 1742 04       		.sleb128 4
 6248 1743 02       		.uleb128 0x2
 6249 1744 74       		.byte	0x74
 6250 1745 00       		.sleb128 0
 6251 1746 0B       		.uleb128 0xb
 6252 1747 02       		.uleb128 0x2
 6253 1748 7D       		.byte	0x7d
 6254 1749 08       		.sleb128 8
 6255 174a 05       		.uleb128 0x5
 6256 174b 03       		.byte	0x3
ARM GAS  C:\Users\legoc\AppData\Local\Temp\cchaQR7h.s 			page 123


 6257 174c 2C010000 		.4byte	.LC24
 6258 1750 00       		.byte	0
 6259 1751 0A       		.uleb128 0xa
 6260 1752 AE000000 		.4byte	.LVL258
 6261 1756 B1240000 		.4byte	0x24b1
 6262 175a 6A170000 		.4byte	0x176a
 6263 175e 0B       		.uleb128 0xb
 6264 175f 01       		.uleb128 0x1
 6265 1760 51       		.byte	0x51
 6266 1761 02       		.uleb128 0x2
 6267 1762 91       		.byte	0x91
 6268 1763 6C       		.sleb128 -20
 6269 1764 0B       		.uleb128 0xb
 6270 1765 01       		.uleb128 0x1
 6271 1766 52       		.byte	0x52
 6272 1767 01       		.uleb128 0x1
 6273 1768 3A       		.byte	0x3a
 6274 1769 00       		.byte	0
 6275 176a 0A       		.uleb128 0xa
 6276 176b BE000000 		.4byte	.LVL259
 6277 176f 9A240000 		.4byte	0x249a
 6278 1773 96170000 		.4byte	0x1796
 6279 1777 0B       		.uleb128 0xb
 6280 1778 01       		.uleb128 0x1
 6281 1779 50       		.byte	0x50
 6282 177a 01       		.uleb128 0x1
 6283 177b 44       		.byte	0x44
 6284 177c 0B       		.uleb128 0xb
 6285 177d 01       		.uleb128 0x1
 6286 177e 51       		.byte	0x51
 6287 177f 02       		.uleb128 0x2
 6288 1780 08       		.byte	0x8
 6289 1781 69       		.byte	0x69
 6290 1782 0B       		.uleb128 0xb
 6291 1783 01       		.uleb128 0x1
 6292 1784 52       		.byte	0x52
 6293 1785 02       		.uleb128 0x2
 6294 1786 75       		.byte	0x75
 6295 1787 00       		.sleb128 0
 6296 1788 0B       		.uleb128 0xb
 6297 1789 01       		.uleb128 0x1
 6298 178a 53       		.byte	0x53
 6299 178b 02       		.uleb128 0x2
 6300 178c 91       		.byte	0x91
 6301 178d 6C       		.sleb128 -20
 6302 178e 0B       		.uleb128 0xb
 6303 178f 02       		.uleb128 0x2
 6304 1790 7D       		.byte	0x7d
 6305 1791 00       		.sleb128 0
 6306 1792 02       		.uleb128 0x2
 6307 1793 76       		.byte	0x76
 6308 1794 00       		.sleb128 0
 6309 1795 00       		.byte	0
 6310 1796 0A       		.uleb128 0xa
 6311 1797 D2000000 		.4byte	.LVL260
 6312 179b D4090000 		.4byte	0x9d4
 6313 179f D4170000 		.4byte	0x17d4
ARM GAS  C:\Users\legoc\AppData\Local\Temp\cchaQR7h.s 			page 124


 6314 17a3 0B       		.uleb128 0xb
 6315 17a4 01       		.uleb128 0x1
 6316 17a5 50       		.byte	0x50
 6317 17a6 02       		.uleb128 0x2
 6318 17a7 08       		.byte	0x8
 6319 17a8 F1       		.byte	0xf1
 6320 17a9 0B       		.uleb128 0xb
 6321 17aa 01       		.uleb128 0x1
 6322 17ab 51       		.byte	0x51
 6323 17ac 02       		.uleb128 0x2
 6324 17ad 74       		.byte	0x74
 6325 17ae 00       		.sleb128 0
 6326 17af 0B       		.uleb128 0xb
 6327 17b0 01       		.uleb128 0x1
 6328 17b1 52       		.byte	0x52
 6329 17b2 02       		.uleb128 0x2
 6330 17b3 08       		.byte	0x8
 6331 17b4 4F       		.byte	0x4f
 6332 17b5 0B       		.uleb128 0xb
 6333 17b6 01       		.uleb128 0x1
 6334 17b7 53       		.byte	0x53
 6335 17b8 02       		.uleb128 0x2
 6336 17b9 08       		.byte	0x8
 6337 17ba F0       		.byte	0xf0
 6338 17bb 0B       		.uleb128 0xb
 6339 17bc 02       		.uleb128 0x2
 6340 17bd 7D       		.byte	0x7d
 6341 17be 00       		.sleb128 0
 6342 17bf 02       		.uleb128 0x2
 6343 17c0 75       		.byte	0x75
 6344 17c1 00       		.sleb128 0
 6345 17c2 0B       		.uleb128 0xb
 6346 17c3 02       		.uleb128 0x2
 6347 17c4 7D       		.byte	0x7d
 6348 17c5 04       		.sleb128 4
 6349 17c6 02       		.uleb128 0x2
 6350 17c7 74       		.byte	0x74
 6351 17c8 00       		.sleb128 0
 6352 17c9 0B       		.uleb128 0xb
 6353 17ca 02       		.uleb128 0x2
 6354 17cb 7D       		.byte	0x7d
 6355 17cc 08       		.sleb128 8
 6356 17cd 05       		.uleb128 0x5
 6357 17ce 03       		.byte	0x3
 6358 17cf CC000000 		.4byte	.LC16
 6359 17d3 00       		.byte	0
 6360 17d4 0F       		.uleb128 0xf
 6361 17d5 E0000000 		.4byte	.LVL261
 6362 17d9 BF040000 		.4byte	0x4bf
 6363 17dd 0B       		.uleb128 0xb
 6364 17de 01       		.uleb128 0x1
 6365 17df 50       		.byte	0x50
 6366 17e0 02       		.uleb128 0x2
 6367 17e1 08       		.byte	0x8
 6368 17e2 EF       		.byte	0xef
 6369 17e3 0B       		.uleb128 0xb
 6370 17e4 01       		.uleb128 0x1
ARM GAS  C:\Users\legoc\AppData\Local\Temp\cchaQR7h.s 			page 125


 6371 17e5 51       		.byte	0x51
 6372 17e6 02       		.uleb128 0x2
 6373 17e7 74       		.byte	0x74
 6374 17e8 00       		.sleb128 0
 6375 17e9 0B       		.uleb128 0xb
 6376 17ea 01       		.uleb128 0x1
 6377 17eb 52       		.byte	0x52
 6378 17ec 02       		.uleb128 0x2
 6379 17ed 76       		.byte	0x76
 6380 17ee 00       		.sleb128 0
 6381 17ef 0B       		.uleb128 0xb
 6382 17f0 01       		.uleb128 0x1
 6383 17f1 53       		.byte	0x53
 6384 17f2 02       		.uleb128 0x2
 6385 17f3 08       		.byte	0x8
 6386 17f4 F0       		.byte	0xf0
 6387 17f5 0B       		.uleb128 0xb
 6388 17f6 02       		.uleb128 0x2
 6389 17f7 7D       		.byte	0x7d
 6390 17f8 00       		.sleb128 0
 6391 17f9 02       		.uleb128 0x2
 6392 17fa 74       		.byte	0x74
 6393 17fb 00       		.sleb128 0
 6394 17fc 00       		.byte	0
 6395 17fd 00       		.byte	0
 6396 17fe 27       		.uleb128 0x27
 6397 17ff CE050000 		.4byte	.LASF80
 6398 1803 01       		.byte	0x1
 6399 1804 0202     		.2byte	0x202
 6400 1806 00000000 		.4byte	.LFB19
 6401 180a 30010000 		.4byte	.LFE19-.LFB19
 6402 180e 01       		.uleb128 0x1
 6403 180f 9C       		.byte	0x9c
 6404 1810 881A0000 		.4byte	0x1a88
 6405 1814 26       		.uleb128 0x26
 6406 1815 69050000 		.4byte	.LASF68
 6407 1819 01       		.byte	0x1
 6408 181a 0902     		.2byte	0x209
 6409 181c EC000000 		.4byte	0xec
 6410 1820 02       		.uleb128 0x2
 6411 1821 91       		.byte	0x91
 6412 1822 4C       		.sleb128 -52
 6413 1823 0A       		.uleb128 0xa
 6414 1824 10000000 		.4byte	.LVL262
 6415 1828 36050000 		.4byte	0x536
 6416 182c 36180000 		.4byte	0x1836
 6417 1830 0B       		.uleb128 0xb
 6418 1831 01       		.uleb128 0x1
 6419 1832 50       		.byte	0x50
 6420 1833 01       		.uleb128 0x1
 6421 1834 30       		.byte	0x30
 6422 1835 00       		.byte	0
 6423 1836 0A       		.uleb128 0xa
 6424 1837 2A000000 		.4byte	.LVL263
 6425 183b D4090000 		.4byte	0x9d4
 6426 183f 73180000 		.4byte	0x1873
 6427 1843 0B       		.uleb128 0xb
ARM GAS  C:\Users\legoc\AppData\Local\Temp\cchaQR7h.s 			page 126


 6428 1844 01       		.uleb128 0x1
 6429 1845 50       		.byte	0x50
 6430 1846 02       		.uleb128 0x2
 6431 1847 76       		.byte	0x76
 6432 1848 00       		.sleb128 0
 6433 1849 0B       		.uleb128 0xb
 6434 184a 01       		.uleb128 0x1
 6435 184b 51       		.byte	0x51
 6436 184c 02       		.uleb128 0x2
 6437 184d 08       		.byte	0x8
 6438 184e DB       		.byte	0xdb
 6439 184f 0B       		.uleb128 0xb
 6440 1850 01       		.uleb128 0x1
 6441 1851 52       		.byte	0x52
 6442 1852 02       		.uleb128 0x2
 6443 1853 08       		.byte	0x8
 6444 1854 EF       		.byte	0xef
 6445 1855 0B       		.uleb128 0xb
 6446 1856 01       		.uleb128 0x1
 6447 1857 53       		.byte	0x53
 6448 1858 01       		.uleb128 0x1
 6449 1859 44       		.byte	0x44
 6450 185a 0B       		.uleb128 0xb
 6451 185b 02       		.uleb128 0x2
 6452 185c 7D       		.byte	0x7d
 6453 185d 00       		.sleb128 0
 6454 185e 02       		.uleb128 0x2
 6455 185f 77       		.byte	0x77
 6456 1860 00       		.sleb128 0
 6457 1861 0B       		.uleb128 0xb
 6458 1862 02       		.uleb128 0x2
 6459 1863 7D       		.byte	0x7d
 6460 1864 04       		.sleb128 4
 6461 1865 02       		.uleb128 0x2
 6462 1866 76       		.byte	0x76
 6463 1867 00       		.sleb128 0
 6464 1868 0B       		.uleb128 0xb
 6465 1869 02       		.uleb128 0x2
 6466 186a 7D       		.byte	0x7d
 6467 186b 08       		.sleb128 8
 6468 186c 05       		.uleb128 0x5
 6469 186d 03       		.byte	0x3
 6470 186e 90000000 		.4byte	.LC13
 6471 1872 00       		.byte	0
 6472 1873 0A       		.uleb128 0xa
 6473 1874 4E000000 		.4byte	.LVL264
 6474 1878 D4090000 		.4byte	0x9d4
 6475 187c AD180000 		.4byte	0x18ad
 6476 1880 0B       		.uleb128 0xb
 6477 1881 01       		.uleb128 0x1
 6478 1882 50       		.byte	0x50
 6479 1883 02       		.uleb128 0x2
 6480 1884 76       		.byte	0x76
 6481 1885 00       		.sleb128 0
 6482 1886 0B       		.uleb128 0xb
 6483 1887 01       		.uleb128 0x1
 6484 1888 51       		.byte	0x51
ARM GAS  C:\Users\legoc\AppData\Local\Temp\cchaQR7h.s 			page 127


 6485 1889 02       		.uleb128 0x2
 6486 188a 08       		.byte	0x8
 6487 188b AA       		.byte	0xaa
 6488 188c 0B       		.uleb128 0xb
 6489 188d 01       		.uleb128 0x1
 6490 188e 52       		.byte	0x52
 6491 188f 02       		.uleb128 0x2
 6492 1890 08       		.byte	0x8
 6493 1891 EF       		.byte	0xef
 6494 1892 0B       		.uleb128 0xb
 6495 1893 01       		.uleb128 0x1
 6496 1894 53       		.byte	0x53
 6497 1895 01       		.uleb128 0x1
 6498 1896 3A       		.byte	0x3a
 6499 1897 0B       		.uleb128 0xb
 6500 1898 02       		.uleb128 0x2
 6501 1899 7D       		.byte	0x7d
 6502 189a 00       		.sleb128 0
 6503 189b 02       		.uleb128 0x2
 6504 189c 77       		.byte	0x77
 6505 189d 00       		.sleb128 0
 6506 189e 0B       		.uleb128 0xb
 6507 189f 02       		.uleb128 0x2
 6508 18a0 7D       		.byte	0x7d
 6509 18a1 04       		.sleb128 4
 6510 18a2 02       		.uleb128 0x2
 6511 18a3 76       		.byte	0x76
 6512 18a4 00       		.sleb128 0
 6513 18a5 0B       		.uleb128 0xb
 6514 18a6 02       		.uleb128 0x2
 6515 18a7 7D       		.byte	0x7d
 6516 18a8 08       		.sleb128 8
 6517 18a9 02       		.uleb128 0x2
 6518 18aa 74       		.byte	0x74
 6519 18ab 68       		.sleb128 -24
 6520 18ac 00       		.byte	0
 6521 18ad 0A       		.uleb128 0xa
 6522 18ae 6E000000 		.4byte	.LVL265
 6523 18b2 D4090000 		.4byte	0x9d4
 6524 18b6 EB180000 		.4byte	0x18eb
 6525 18ba 0B       		.uleb128 0xb
 6526 18bb 01       		.uleb128 0x1
 6527 18bc 50       		.byte	0x50
 6528 18bd 01       		.uleb128 0x1
 6529 18be 4E       		.byte	0x4e
 6530 18bf 0B       		.uleb128 0xb
 6531 18c0 01       		.uleb128 0x1
 6532 18c1 51       		.byte	0x51
 6533 18c2 02       		.uleb128 0x2
 6534 18c3 08       		.byte	0x8
 6535 18c4 64       		.byte	0x64
 6536 18c5 0B       		.uleb128 0xb
 6537 18c6 01       		.uleb128 0x1
 6538 18c7 52       		.byte	0x52
 6539 18c8 02       		.uleb128 0x2
 6540 18c9 08       		.byte	0x8
 6541 18ca 50       		.byte	0x50
ARM GAS  C:\Users\legoc\AppData\Local\Temp\cchaQR7h.s 			page 128


 6542 18cb 0B       		.uleb128 0xb
 6543 18cc 01       		.uleb128 0x1
 6544 18cd 53       		.byte	0x53
 6545 18ce 02       		.uleb128 0x2
 6546 18cf 08       		.byte	0x8
 6547 18d0 32       		.byte	0x32
 6548 18d1 0B       		.uleb128 0xb
 6549 18d2 02       		.uleb128 0x2
 6550 18d3 7D       		.byte	0x7d
 6551 18d4 00       		.sleb128 0
 6552 18d5 03       		.uleb128 0x3
 6553 18d6 0B       		.byte	0xb
 6554 18d7 9F9E     		.2byte	0x9e9f
 6555 18d9 0B       		.uleb128 0xb
 6556 18da 02       		.uleb128 0x2
 6557 18db 7D       		.byte	0x7d
 6558 18dc 04       		.sleb128 4
 6559 18dd 02       		.uleb128 0x2
 6560 18de 76       		.byte	0x76
 6561 18df 00       		.sleb128 0
 6562 18e0 0B       		.uleb128 0xb
 6563 18e1 02       		.uleb128 0x2
 6564 18e2 7D       		.byte	0x7d
 6565 18e3 08       		.sleb128 8
 6566 18e4 05       		.uleb128 0x5
 6567 18e5 03       		.byte	0x3
 6568 18e6 38010000 		.4byte	.LC26
 6569 18ea 00       		.byte	0
 6570 18eb 0A       		.uleb128 0xa
 6571 18ec 82000000 		.4byte	.LVL266
 6572 18f0 D4090000 		.4byte	0x9d4
 6573 18f4 29190000 		.4byte	0x1929
 6574 18f8 0B       		.uleb128 0xb
 6575 18f9 01       		.uleb128 0x1
 6576 18fa 50       		.byte	0x50
 6577 18fb 02       		.uleb128 0x2
 6578 18fc 08       		.byte	0x8
 6579 18fd 82       		.byte	0x82
 6580 18fe 0B       		.uleb128 0xb
 6581 18ff 01       		.uleb128 0x1
 6582 1900 51       		.byte	0x51
 6583 1901 02       		.uleb128 0x2
 6584 1902 08       		.byte	0x8
 6585 1903 64       		.byte	0x64
 6586 1904 0B       		.uleb128 0xb
 6587 1905 01       		.uleb128 0x1
 6588 1906 52       		.byte	0x52
 6589 1907 02       		.uleb128 0x2
 6590 1908 08       		.byte	0x8
 6591 1909 50       		.byte	0x50
 6592 190a 0B       		.uleb128 0xb
 6593 190b 01       		.uleb128 0x1
 6594 190c 53       		.byte	0x53
 6595 190d 02       		.uleb128 0x2
 6596 190e 08       		.byte	0x8
 6597 190f 32       		.byte	0x32
 6598 1910 0B       		.uleb128 0xb
ARM GAS  C:\Users\legoc\AppData\Local\Temp\cchaQR7h.s 			page 129


 6599 1911 02       		.uleb128 0x2
 6600 1912 7D       		.byte	0x7d
 6601 1913 00       		.sleb128 0
 6602 1914 02       		.uleb128 0x2
 6603 1915 77       		.byte	0x77
 6604 1916 00       		.sleb128 0
 6605 1917 0B       		.uleb128 0xb
 6606 1918 02       		.uleb128 0x2
 6607 1919 7D       		.byte	0x7d
 6608 191a 04       		.sleb128 4
 6609 191b 02       		.uleb128 0x2
 6610 191c 76       		.byte	0x76
 6611 191d 00       		.sleb128 0
 6612 191e 0B       		.uleb128 0xb
 6613 191f 02       		.uleb128 0x2
 6614 1920 7D       		.byte	0x7d
 6615 1921 08       		.sleb128 8
 6616 1922 05       		.uleb128 0x5
 6617 1923 03       		.byte	0x3
 6618 1924 3C010000 		.4byte	.LC27
 6619 1928 00       		.byte	0
 6620 1929 0A       		.uleb128 0xa
 6621 192a A0000000 		.4byte	.LVL267
 6622 192e D4090000 		.4byte	0x9d4
 6623 1932 66190000 		.4byte	0x1966
 6624 1936 0B       		.uleb128 0xb
 6625 1937 01       		.uleb128 0x1
 6626 1938 50       		.byte	0x50
 6627 1939 01       		.uleb128 0x1
 6628 193a 4E       		.byte	0x4e
 6629 193b 0B       		.uleb128 0xb
 6630 193c 01       		.uleb128 0x1
 6631 193d 51       		.byte	0x51
 6632 193e 02       		.uleb128 0x2
 6633 193f 08       		.byte	0x8
 6634 1940 64       		.byte	0x64
 6635 1941 0B       		.uleb128 0xb
 6636 1942 01       		.uleb128 0x1
 6637 1943 52       		.byte	0x52
 6638 1944 02       		.uleb128 0x2
 6639 1945 08       		.byte	0x8
 6640 1946 50       		.byte	0x50
 6641 1947 0B       		.uleb128 0xb
 6642 1948 01       		.uleb128 0x1
 6643 1949 53       		.byte	0x53
 6644 194a 02       		.uleb128 0x2
 6645 194b 08       		.byte	0x8
 6646 194c 32       		.byte	0x32
 6647 194d 0B       		.uleb128 0xb
 6648 194e 02       		.uleb128 0x2
 6649 194f 7D       		.byte	0x7d
 6650 1950 00       		.sleb128 0
 6651 1951 02       		.uleb128 0x2
 6652 1952 77       		.byte	0x77
 6653 1953 00       		.sleb128 0
 6654 1954 0B       		.uleb128 0xb
 6655 1955 02       		.uleb128 0x2
ARM GAS  C:\Users\legoc\AppData\Local\Temp\cchaQR7h.s 			page 130


 6656 1956 7D       		.byte	0x7d
 6657 1957 04       		.sleb128 4
 6658 1958 02       		.uleb128 0x2
 6659 1959 76       		.byte	0x76
 6660 195a 00       		.sleb128 0
 6661 195b 0B       		.uleb128 0xb
 6662 195c 02       		.uleb128 0x2
 6663 195d 7D       		.byte	0x7d
 6664 195e 08       		.sleb128 8
 6665 195f 05       		.uleb128 0x5
 6666 1960 03       		.byte	0x3
 6667 1961 38010000 		.4byte	.LC26
 6668 1965 00       		.byte	0
 6669 1966 0A       		.uleb128 0xa
 6670 1967 B8000000 		.4byte	.LVL268
 6671 196b D4090000 		.4byte	0x9d4
 6672 196f A5190000 		.4byte	0x19a5
 6673 1973 0B       		.uleb128 0xb
 6674 1974 01       		.uleb128 0x1
 6675 1975 50       		.byte	0x50
 6676 1976 02       		.uleb128 0x2
 6677 1977 08       		.byte	0x8
 6678 1978 82       		.byte	0x82
 6679 1979 0B       		.uleb128 0xb
 6680 197a 01       		.uleb128 0x1
 6681 197b 51       		.byte	0x51
 6682 197c 02       		.uleb128 0x2
 6683 197d 08       		.byte	0x8
 6684 197e 64       		.byte	0x64
 6685 197f 0B       		.uleb128 0xb
 6686 1980 01       		.uleb128 0x1
 6687 1981 52       		.byte	0x52
 6688 1982 02       		.uleb128 0x2
 6689 1983 08       		.byte	0x8
 6690 1984 50       		.byte	0x50
 6691 1985 0B       		.uleb128 0xb
 6692 1986 01       		.uleb128 0x1
 6693 1987 53       		.byte	0x53
 6694 1988 02       		.uleb128 0x2
 6695 1989 08       		.byte	0x8
 6696 198a 32       		.byte	0x32
 6697 198b 0B       		.uleb128 0xb
 6698 198c 02       		.uleb128 0x2
 6699 198d 7D       		.byte	0x7d
 6700 198e 00       		.sleb128 0
 6701 198f 03       		.uleb128 0x3
 6702 1990 0B       		.byte	0xb
 6703 1991 9F9E     		.2byte	0x9e9f
 6704 1993 0B       		.uleb128 0xb
 6705 1994 02       		.uleb128 0x2
 6706 1995 7D       		.byte	0x7d
 6707 1996 04       		.sleb128 4
 6708 1997 02       		.uleb128 0x2
 6709 1998 76       		.byte	0x76
 6710 1999 00       		.sleb128 0
 6711 199a 0B       		.uleb128 0xb
 6712 199b 02       		.uleb128 0x2
ARM GAS  C:\Users\legoc\AppData\Local\Temp\cchaQR7h.s 			page 131


 6713 199c 7D       		.byte	0x7d
 6714 199d 08       		.sleb128 8
 6715 199e 05       		.uleb128 0x5
 6716 199f 03       		.byte	0x3
 6717 19a0 3C010000 		.4byte	.LC27
 6718 19a4 00       		.byte	0
 6719 19a5 0A       		.uleb128 0xa
 6720 19a6 D4000000 		.4byte	.LVL269
 6721 19aa D4090000 		.4byte	0x9d4
 6722 19ae E3190000 		.4byte	0x19e3
 6723 19b2 0B       		.uleb128 0xb
 6724 19b3 01       		.uleb128 0x1
 6725 19b4 50       		.byte	0x50
 6726 19b5 02       		.uleb128 0x2
 6727 19b6 08       		.byte	0x8
 6728 19b7 50       		.byte	0x50
 6729 19b8 0B       		.uleb128 0xb
 6730 19b9 01       		.uleb128 0x1
 6731 19ba 51       		.byte	0x51
 6732 19bb 02       		.uleb128 0x2
 6733 19bc 08       		.byte	0x8
 6734 19bd 64       		.byte	0x64
 6735 19be 0B       		.uleb128 0xb
 6736 19bf 01       		.uleb128 0x1
 6737 19c0 52       		.byte	0x52
 6738 19c1 02       		.uleb128 0x2
 6739 19c2 08       		.byte	0x8
 6740 19c3 50       		.byte	0x50
 6741 19c4 0B       		.uleb128 0xb
 6742 19c5 01       		.uleb128 0x1
 6743 19c6 53       		.byte	0x53
 6744 19c7 02       		.uleb128 0x2
 6745 19c8 08       		.byte	0x8
 6746 19c9 32       		.byte	0x32
 6747 19ca 0B       		.uleb128 0xb
 6748 19cb 02       		.uleb128 0x2
 6749 19cc 7D       		.byte	0x7d
 6750 19cd 00       		.sleb128 0
 6751 19ce 02       		.uleb128 0x2
 6752 19cf 77       		.byte	0x77
 6753 19d0 00       		.sleb128 0
 6754 19d1 0B       		.uleb128 0xb
 6755 19d2 02       		.uleb128 0x2
 6756 19d3 7D       		.byte	0x7d
 6757 19d4 04       		.sleb128 4
 6758 19d5 02       		.uleb128 0x2
 6759 19d6 75       		.byte	0x75
 6760 19d7 00       		.sleb128 0
 6761 19d8 0B       		.uleb128 0xb
 6762 19d9 02       		.uleb128 0x2
 6763 19da 7D       		.byte	0x7d
 6764 19db 08       		.sleb128 8
 6765 19dc 05       		.uleb128 0x5
 6766 19dd 03       		.byte	0x3
 6767 19de 38010000 		.4byte	.LC26
 6768 19e2 00       		.byte	0
 6769 19e3 0A       		.uleb128 0xa
ARM GAS  C:\Users\legoc\AppData\Local\Temp\cchaQR7h.s 			page 132


 6770 19e4 E8000000 		.4byte	.LVL270
 6771 19e8 D4090000 		.4byte	0x9d4
 6772 19ec 211A0000 		.4byte	0x1a21
 6773 19f0 0B       		.uleb128 0xb
 6774 19f1 01       		.uleb128 0x1
 6775 19f2 50       		.byte	0x50
 6776 19f3 02       		.uleb128 0x2
 6777 19f4 08       		.byte	0x8
 6778 19f5 82       		.byte	0x82
 6779 19f6 0B       		.uleb128 0xb
 6780 19f7 01       		.uleb128 0x1
 6781 19f8 51       		.byte	0x51
 6782 19f9 02       		.uleb128 0x2
 6783 19fa 08       		.byte	0x8
 6784 19fb 64       		.byte	0x64
 6785 19fc 0B       		.uleb128 0xb
 6786 19fd 01       		.uleb128 0x1
 6787 19fe 52       		.byte	0x52
 6788 19ff 02       		.uleb128 0x2
 6789 1a00 08       		.byte	0x8
 6790 1a01 50       		.byte	0x50
 6791 1a02 0B       		.uleb128 0xb
 6792 1a03 01       		.uleb128 0x1
 6793 1a04 53       		.byte	0x53
 6794 1a05 02       		.uleb128 0x2
 6795 1a06 08       		.byte	0x8
 6796 1a07 32       		.byte	0x32
 6797 1a08 0B       		.uleb128 0xb
 6798 1a09 02       		.uleb128 0x2
 6799 1a0a 7D       		.byte	0x7d
 6800 1a0b 00       		.sleb128 0
 6801 1a0c 02       		.uleb128 0x2
 6802 1a0d 77       		.byte	0x77
 6803 1a0e 00       		.sleb128 0
 6804 1a0f 0B       		.uleb128 0xb
 6805 1a10 02       		.uleb128 0x2
 6806 1a11 7D       		.byte	0x7d
 6807 1a12 04       		.sleb128 4
 6808 1a13 02       		.uleb128 0x2
 6809 1a14 75       		.byte	0x75
 6810 1a15 00       		.sleb128 0
 6811 1a16 0B       		.uleb128 0xb
 6812 1a17 02       		.uleb128 0x2
 6813 1a18 7D       		.byte	0x7d
 6814 1a19 08       		.sleb128 8
 6815 1a1a 05       		.uleb128 0x5
 6816 1a1b 03       		.byte	0x3
 6817 1a1c 3C010000 		.4byte	.LC27
 6818 1a20 00       		.byte	0
 6819 1a21 0A       		.uleb128 0xa
 6820 1a22 02010000 		.4byte	.LVL271
 6821 1a26 D4090000 		.4byte	0x9d4
 6822 1a2a 5F1A0000 		.4byte	0x1a5f
 6823 1a2e 0B       		.uleb128 0xb
 6824 1a2f 01       		.uleb128 0x1
 6825 1a30 50       		.byte	0x50
 6826 1a31 02       		.uleb128 0x2
ARM GAS  C:\Users\legoc\AppData\Local\Temp\cchaQR7h.s 			page 133


 6827 1a32 08       		.byte	0x8
 6828 1a33 F1       		.byte	0xf1
 6829 1a34 0B       		.uleb128 0xb
 6830 1a35 01       		.uleb128 0x1
 6831 1a36 51       		.byte	0x51
 6832 1a37 02       		.uleb128 0x2
 6833 1a38 74       		.byte	0x74
 6834 1a39 00       		.sleb128 0
 6835 1a3a 0B       		.uleb128 0xb
 6836 1a3b 01       		.uleb128 0x1
 6837 1a3c 52       		.byte	0x52
 6838 1a3d 02       		.uleb128 0x2
 6839 1a3e 08       		.byte	0x8
 6840 1a3f 4F       		.byte	0x4f
 6841 1a40 0B       		.uleb128 0xb
 6842 1a41 01       		.uleb128 0x1
 6843 1a42 53       		.byte	0x53
 6844 1a43 02       		.uleb128 0x2
 6845 1a44 08       		.byte	0x8
 6846 1a45 F0       		.byte	0xf0
 6847 1a46 0B       		.uleb128 0xb
 6848 1a47 02       		.uleb128 0x2
 6849 1a48 7D       		.byte	0x7d
 6850 1a49 00       		.sleb128 0
 6851 1a4a 02       		.uleb128 0x2
 6852 1a4b 77       		.byte	0x77
 6853 1a4c 00       		.sleb128 0
 6854 1a4d 0B       		.uleb128 0xb
 6855 1a4e 02       		.uleb128 0x2
 6856 1a4f 7D       		.byte	0x7d
 6857 1a50 04       		.sleb128 4
 6858 1a51 02       		.uleb128 0x2
 6859 1a52 74       		.byte	0x74
 6860 1a53 00       		.sleb128 0
 6861 1a54 0B       		.uleb128 0xb
 6862 1a55 02       		.uleb128 0x2
 6863 1a56 7D       		.byte	0x7d
 6864 1a57 08       		.sleb128 8
 6865 1a58 05       		.uleb128 0x5
 6866 1a59 03       		.byte	0x3
 6867 1a5a CC000000 		.4byte	.LC16
 6868 1a5e 00       		.byte	0
 6869 1a5f 0F       		.uleb128 0xf
 6870 1a60 10010000 		.4byte	.LVL272
 6871 1a64 BF040000 		.4byte	0x4bf
 6872 1a68 0B       		.uleb128 0xb
 6873 1a69 01       		.uleb128 0x1
 6874 1a6a 50       		.byte	0x50
 6875 1a6b 02       		.uleb128 0x2
 6876 1a6c 08       		.byte	0x8
 6877 1a6d EF       		.byte	0xef
 6878 1a6e 0B       		.uleb128 0xb
 6879 1a6f 01       		.uleb128 0x1
 6880 1a70 51       		.byte	0x51
 6881 1a71 02       		.uleb128 0x2
 6882 1a72 74       		.byte	0x74
 6883 1a73 00       		.sleb128 0
ARM GAS  C:\Users\legoc\AppData\Local\Temp\cchaQR7h.s 			page 134


 6884 1a74 0B       		.uleb128 0xb
 6885 1a75 01       		.uleb128 0x1
 6886 1a76 52       		.byte	0x52
 6887 1a77 01       		.uleb128 0x1
 6888 1a78 32       		.byte	0x32
 6889 1a79 0B       		.uleb128 0xb
 6890 1a7a 01       		.uleb128 0x1
 6891 1a7b 53       		.byte	0x53
 6892 1a7c 02       		.uleb128 0x2
 6893 1a7d 08       		.byte	0x8
 6894 1a7e F0       		.byte	0xf0
 6895 1a7f 0B       		.uleb128 0xb
 6896 1a80 02       		.uleb128 0x2
 6897 1a81 7D       		.byte	0x7d
 6898 1a82 00       		.sleb128 0
 6899 1a83 02       		.uleb128 0x2
 6900 1a84 74       		.byte	0x74
 6901 1a85 00       		.sleb128 0
 6902 1a86 00       		.byte	0
 6903 1a87 00       		.byte	0
 6904 1a88 27       		.uleb128 0x27
 6905 1a89 11030000 		.4byte	.LASF81
 6906 1a8d 01       		.byte	0x1
 6907 1a8e 2102     		.2byte	0x221
 6908 1a90 00000000 		.4byte	.LFB20
 6909 1a94 AC000000 		.4byte	.LFE20-.LFB20
 6910 1a98 01       		.uleb128 0x1
 6911 1a99 9C       		.byte	0x9c
 6912 1a9a 361C0000 		.4byte	0x1c36
 6913 1a9e 26       		.uleb128 0x26
 6914 1a9f AB030000 		.4byte	.LASF82
 6915 1aa3 01       		.byte	0x1
 6916 1aa4 2C02     		.2byte	0x22c
 6917 1aa6 361C0000 		.4byte	0x1c36
 6918 1aaa 02       		.uleb128 0x2
 6919 1aab 91       		.byte	0x91
 6920 1aac 6C       		.sleb128 -20
 6921 1aad 20       		.uleb128 0x20
 6922 1aae 97030000 		.4byte	.LASF57
 6923 1ab2 01       		.byte	0x1
 6924 1ab3 4F01     		.2byte	0x14f
 6925 1ab5 89000000 		.4byte	0x89
 6926 1ab9 BF1A0000 		.4byte	0x1abf
 6927 1abd 21       		.uleb128 0x21
 6928 1abe 00       		.byte	0
 6929 1abf 0A       		.uleb128 0xa
 6930 1ac0 10000000 		.4byte	.LVL273
 6931 1ac4 36050000 		.4byte	0x536
 6932 1ac8 D21A0000 		.4byte	0x1ad2
 6933 1acc 0B       		.uleb128 0xb
 6934 1acd 01       		.uleb128 0x1
 6935 1ace 50       		.byte	0x50
 6936 1acf 01       		.uleb128 0x1
 6937 1ad0 30       		.byte	0x30
 6938 1ad1 00       		.byte	0
 6939 1ad2 0A       		.uleb128 0xa
 6940 1ad3 2A000000 		.4byte	.LVL274
ARM GAS  C:\Users\legoc\AppData\Local\Temp\cchaQR7h.s 			page 135


 6941 1ad7 D4090000 		.4byte	0x9d4
 6942 1adb 0F1B0000 		.4byte	0x1b0f
 6943 1adf 0B       		.uleb128 0xb
 6944 1ae0 01       		.uleb128 0x1
 6945 1ae1 50       		.byte	0x50
 6946 1ae2 02       		.uleb128 0x2
 6947 1ae3 74       		.byte	0x74
 6948 1ae4 00       		.sleb128 0
 6949 1ae5 0B       		.uleb128 0xb
 6950 1ae6 01       		.uleb128 0x1
 6951 1ae7 51       		.byte	0x51
 6952 1ae8 02       		.uleb128 0x2
 6953 1ae9 08       		.byte	0x8
 6954 1aea DB       		.byte	0xdb
 6955 1aeb 0B       		.uleb128 0xb
 6956 1aec 01       		.uleb128 0x1
 6957 1aed 52       		.byte	0x52
 6958 1aee 02       		.uleb128 0x2
 6959 1aef 08       		.byte	0x8
 6960 1af0 EF       		.byte	0xef
 6961 1af1 0B       		.uleb128 0xb
 6962 1af2 01       		.uleb128 0x1
 6963 1af3 53       		.byte	0x53
 6964 1af4 01       		.uleb128 0x1
 6965 1af5 44       		.byte	0x44
 6966 1af6 0B       		.uleb128 0xb
 6967 1af7 02       		.uleb128 0x2
 6968 1af8 7D       		.byte	0x7d
 6969 1af9 00       		.sleb128 0
 6970 1afa 02       		.uleb128 0x2
 6971 1afb 75       		.byte	0x75
 6972 1afc 00       		.sleb128 0
 6973 1afd 0B       		.uleb128 0xb
 6974 1afe 02       		.uleb128 0x2
 6975 1aff 7D       		.byte	0x7d
 6976 1b00 04       		.sleb128 4
 6977 1b01 02       		.uleb128 0x2
 6978 1b02 74       		.byte	0x74
 6979 1b03 00       		.sleb128 0
 6980 1b04 0B       		.uleb128 0xb
 6981 1b05 02       		.uleb128 0x2
 6982 1b06 7D       		.byte	0x7d
 6983 1b07 08       		.sleb128 8
 6984 1b08 05       		.uleb128 0x5
 6985 1b09 03       		.byte	0x3
 6986 1b0a 5C010000 		.4byte	.LC28
 6987 1b0e 00       		.byte	0
 6988 1b0f 0A       		.uleb128 0xa
 6989 1b10 3E000000 		.4byte	.LVL275
 6990 1b14 D4090000 		.4byte	0x9d4
 6991 1b18 4C1B0000 		.4byte	0x1b4c
 6992 1b1c 0B       		.uleb128 0xb
 6993 1b1d 01       		.uleb128 0x1
 6994 1b1e 50       		.byte	0x50
 6995 1b1f 02       		.uleb128 0x2
 6996 1b20 08       		.byte	0x8
 6997 1b21 82       		.byte	0x82
ARM GAS  C:\Users\legoc\AppData\Local\Temp\cchaQR7h.s 			page 136


 6998 1b22 0B       		.uleb128 0xb
 6999 1b23 01       		.uleb128 0x1
 7000 1b24 51       		.byte	0x51
 7001 1b25 01       		.uleb128 0x1
 7002 1b26 4E       		.byte	0x4e
 7003 1b27 0B       		.uleb128 0xb
 7004 1b28 01       		.uleb128 0x1
 7005 1b29 52       		.byte	0x52
 7006 1b2a 02       		.uleb128 0x2
 7007 1b2b 08       		.byte	0x8
 7008 1b2c 46       		.byte	0x46
 7009 1b2d 0B       		.uleb128 0xb
 7010 1b2e 01       		.uleb128 0x1
 7011 1b2f 53       		.byte	0x53
 7012 1b30 02       		.uleb128 0x2
 7013 1b31 08       		.byte	0x8
 7014 1b32 46       		.byte	0x46
 7015 1b33 0B       		.uleb128 0xb
 7016 1b34 02       		.uleb128 0x2
 7017 1b35 7D       		.byte	0x7d
 7018 1b36 00       		.sleb128 0
 7019 1b37 02       		.uleb128 0x2
 7020 1b38 75       		.byte	0x75
 7021 1b39 00       		.sleb128 0
 7022 1b3a 0B       		.uleb128 0xb
 7023 1b3b 02       		.uleb128 0x2
 7024 1b3c 7D       		.byte	0x7d
 7025 1b3d 04       		.sleb128 4
 7026 1b3e 02       		.uleb128 0x2
 7027 1b3f 74       		.byte	0x74
 7028 1b40 00       		.sleb128 0
 7029 1b41 0B       		.uleb128 0xb
 7030 1b42 02       		.uleb128 0x2
 7031 1b43 7D       		.byte	0x7d
 7032 1b44 08       		.sleb128 8
 7033 1b45 05       		.uleb128 0x5
 7034 1b46 03       		.byte	0x3
 7035 1b47 78010000 		.4byte	.LC29
 7036 1b4b 00       		.byte	0
 7037 1b4c 0A       		.uleb128 0xa
 7038 1b4d 52000000 		.4byte	.LVL276
 7039 1b51 D4090000 		.4byte	0x9d4
 7040 1b55 8A1B0000 		.4byte	0x1b8a
 7041 1b59 0B       		.uleb128 0xb
 7042 1b5a 01       		.uleb128 0x1
 7043 1b5b 50       		.byte	0x50
 7044 1b5c 02       		.uleb128 0x2
 7045 1b5d 08       		.byte	0x8
 7046 1b5e 82       		.byte	0x82
 7047 1b5f 0B       		.uleb128 0xb
 7048 1b60 01       		.uleb128 0x1
 7049 1b61 51       		.byte	0x51
 7050 1b62 02       		.uleb128 0x2
 7051 1b63 08       		.byte	0x8
 7052 1b64 78       		.byte	0x78
 7053 1b65 0B       		.uleb128 0xb
 7054 1b66 01       		.uleb128 0x1
ARM GAS  C:\Users\legoc\AppData\Local\Temp\cchaQR7h.s 			page 137


 7055 1b67 52       		.byte	0x52
 7056 1b68 02       		.uleb128 0x2
 7057 1b69 08       		.byte	0x8
 7058 1b6a 46       		.byte	0x46
 7059 1b6b 0B       		.uleb128 0xb
 7060 1b6c 01       		.uleb128 0x1
 7061 1b6d 53       		.byte	0x53
 7062 1b6e 02       		.uleb128 0x2
 7063 1b6f 08       		.byte	0x8
 7064 1b70 46       		.byte	0x46
 7065 1b71 0B       		.uleb128 0xb
 7066 1b72 02       		.uleb128 0x2
 7067 1b73 7D       		.byte	0x7d
 7068 1b74 00       		.sleb128 0
 7069 1b75 02       		.uleb128 0x2
 7070 1b76 75       		.byte	0x75
 7071 1b77 00       		.sleb128 0
 7072 1b78 0B       		.uleb128 0xb
 7073 1b79 02       		.uleb128 0x2
 7074 1b7a 7D       		.byte	0x7d
 7075 1b7b 04       		.sleb128 4
 7076 1b7c 02       		.uleb128 0x2
 7077 1b7d 74       		.byte	0x74
 7078 1b7e 00       		.sleb128 0
 7079 1b7f 0B       		.uleb128 0xb
 7080 1b80 02       		.uleb128 0x2
 7081 1b81 7D       		.byte	0x7d
 7082 1b82 08       		.sleb128 8
 7083 1b83 05       		.uleb128 0x5
 7084 1b84 03       		.byte	0x3
 7085 1b85 84010000 		.4byte	.LC30
 7086 1b89 00       		.byte	0
 7087 1b8a 0A       		.uleb128 0xa
 7088 1b8b 5E000000 		.4byte	.LVL277
 7089 1b8f B1240000 		.4byte	0x24b1
 7090 1b93 A31B0000 		.4byte	0x1ba3
 7091 1b97 0B       		.uleb128 0xb
 7092 1b98 01       		.uleb128 0x1
 7093 1b99 51       		.byte	0x51
 7094 1b9a 02       		.uleb128 0x2
 7095 1b9b 91       		.byte	0x91
 7096 1b9c 6C       		.sleb128 -20
 7097 1b9d 0B       		.uleb128 0xb
 7098 1b9e 01       		.uleb128 0x1
 7099 1b9f 52       		.byte	0x52
 7100 1ba0 01       		.uleb128 0x1
 7101 1ba1 3A       		.byte	0x3a
 7102 1ba2 00       		.byte	0
 7103 1ba3 0A       		.uleb128 0xa
 7104 1ba4 6E000000 		.4byte	.LVL278
 7105 1ba8 9A240000 		.4byte	0x249a
 7106 1bac CF1B0000 		.4byte	0x1bcf
 7107 1bb0 0B       		.uleb128 0xb
 7108 1bb1 01       		.uleb128 0x1
 7109 1bb2 50       		.byte	0x50
 7110 1bb3 02       		.uleb128 0x2
 7111 1bb4 08       		.byte	0x8
ARM GAS  C:\Users\legoc\AppData\Local\Temp\cchaQR7h.s 			page 138


 7112 1bb5 32       		.byte	0x32
 7113 1bb6 0B       		.uleb128 0xb
 7114 1bb7 01       		.uleb128 0x1
 7115 1bb8 51       		.byte	0x51
 7116 1bb9 02       		.uleb128 0x2
 7117 1bba 08       		.byte	0x8
 7118 1bbb 69       		.byte	0x69
 7119 1bbc 0B       		.uleb128 0xb
 7120 1bbd 01       		.uleb128 0x1
 7121 1bbe 52       		.byte	0x52
 7122 1bbf 02       		.uleb128 0x2
 7123 1bc0 75       		.byte	0x75
 7124 1bc1 00       		.sleb128 0
 7125 1bc2 0B       		.uleb128 0xb
 7126 1bc3 01       		.uleb128 0x1
 7127 1bc4 53       		.byte	0x53
 7128 1bc5 02       		.uleb128 0x2
 7129 1bc6 91       		.byte	0x91
 7130 1bc7 6C       		.sleb128 -20
 7131 1bc8 0B       		.uleb128 0xb
 7132 1bc9 02       		.uleb128 0x2
 7133 1bca 7D       		.byte	0x7d
 7134 1bcb 00       		.sleb128 0
 7135 1bcc 01       		.uleb128 0x1
 7136 1bcd 33       		.byte	0x33
 7137 1bce 00       		.byte	0
 7138 1bcf 0A       		.uleb128 0xa
 7139 1bd0 82000000 		.4byte	.LVL279
 7140 1bd4 D4090000 		.4byte	0x9d4
 7141 1bd8 0D1C0000 		.4byte	0x1c0d
 7142 1bdc 0B       		.uleb128 0xb
 7143 1bdd 01       		.uleb128 0x1
 7144 1bde 50       		.byte	0x50
 7145 1bdf 02       		.uleb128 0x2
 7146 1be0 08       		.byte	0x8
 7147 1be1 F1       		.byte	0xf1
 7148 1be2 0B       		.uleb128 0xb
 7149 1be3 01       		.uleb128 0x1
 7150 1be4 51       		.byte	0x51
 7151 1be5 02       		.uleb128 0x2
 7152 1be6 74       		.byte	0x74
 7153 1be7 00       		.sleb128 0
 7154 1be8 0B       		.uleb128 0xb
 7155 1be9 01       		.uleb128 0x1
 7156 1bea 52       		.byte	0x52
 7157 1beb 02       		.uleb128 0x2
 7158 1bec 08       		.byte	0x8
 7159 1bed 4F       		.byte	0x4f
 7160 1bee 0B       		.uleb128 0xb
 7161 1bef 01       		.uleb128 0x1
 7162 1bf0 53       		.byte	0x53
 7163 1bf1 02       		.uleb128 0x2
 7164 1bf2 08       		.byte	0x8
 7165 1bf3 F0       		.byte	0xf0
 7166 1bf4 0B       		.uleb128 0xb
 7167 1bf5 02       		.uleb128 0x2
 7168 1bf6 7D       		.byte	0x7d
ARM GAS  C:\Users\legoc\AppData\Local\Temp\cchaQR7h.s 			page 139


 7169 1bf7 00       		.sleb128 0
 7170 1bf8 02       		.uleb128 0x2
 7171 1bf9 75       		.byte	0x75
 7172 1bfa 00       		.sleb128 0
 7173 1bfb 0B       		.uleb128 0xb
 7174 1bfc 02       		.uleb128 0x2
 7175 1bfd 7D       		.byte	0x7d
 7176 1bfe 04       		.sleb128 4
 7177 1bff 02       		.uleb128 0x2
 7178 1c00 74       		.byte	0x74
 7179 1c01 00       		.sleb128 0
 7180 1c02 0B       		.uleb128 0xb
 7181 1c03 02       		.uleb128 0x2
 7182 1c04 7D       		.byte	0x7d
 7183 1c05 08       		.sleb128 8
 7184 1c06 05       		.uleb128 0x5
 7185 1c07 03       		.byte	0x3
 7186 1c08 CC000000 		.4byte	.LC16
 7187 1c0c 00       		.byte	0
 7188 1c0d 0F       		.uleb128 0xf
 7189 1c0e 90000000 		.4byte	.LVL280
 7190 1c12 BF040000 		.4byte	0x4bf
 7191 1c16 0B       		.uleb128 0xb
 7192 1c17 01       		.uleb128 0x1
 7193 1c18 50       		.byte	0x50
 7194 1c19 02       		.uleb128 0x2
 7195 1c1a 08       		.byte	0x8
 7196 1c1b EF       		.byte	0xef
 7197 1c1c 0B       		.uleb128 0xb
 7198 1c1d 01       		.uleb128 0x1
 7199 1c1e 51       		.byte	0x51
 7200 1c1f 02       		.uleb128 0x2
 7201 1c20 74       		.byte	0x74
 7202 1c21 00       		.sleb128 0
 7203 1c22 0B       		.uleb128 0xb
 7204 1c23 01       		.uleb128 0x1
 7205 1c24 52       		.byte	0x52
 7206 1c25 01       		.uleb128 0x1
 7207 1c26 32       		.byte	0x32
 7208 1c27 0B       		.uleb128 0xb
 7209 1c28 01       		.uleb128 0x1
 7210 1c29 53       		.byte	0x53
 7211 1c2a 02       		.uleb128 0x2
 7212 1c2b 08       		.byte	0x8
 7213 1c2c F0       		.byte	0xf0
 7214 1c2d 0B       		.uleb128 0xb
 7215 1c2e 02       		.uleb128 0x2
 7216 1c2f 7D       		.byte	0x7d
 7217 1c30 00       		.sleb128 0
 7218 1c31 02       		.uleb128 0x2
 7219 1c32 74       		.byte	0x74
 7220 1c33 00       		.sleb128 0
 7221 1c34 00       		.byte	0
 7222 1c35 00       		.byte	0
 7223 1c36 06       		.uleb128 0x6
 7224 1c37 D1000000 		.4byte	0xd1
 7225 1c3b 461C0000 		.4byte	0x1c46
ARM GAS  C:\Users\legoc\AppData\Local\Temp\cchaQR7h.s 			page 140


 7226 1c3f 07       		.uleb128 0x7
 7227 1c40 DF000000 		.4byte	0xdf
 7228 1c44 01       		.byte	0x1
 7229 1c45 00       		.byte	0
 7230 1c46 27       		.uleb128 0x27
 7231 1c47 03040000 		.4byte	.LASF83
 7232 1c4b 01       		.byte	0x1
 7233 1c4c 3602     		.2byte	0x236
 7234 1c4e 00000000 		.4byte	.LFB21
 7235 1c52 5C000000 		.4byte	.LFE21-.LFB21
 7236 1c56 01       		.uleb128 0x1
 7237 1c57 9C       		.byte	0x9c
 7238 1c58 131D0000 		.4byte	0x1d13
 7239 1c5c 0A       		.uleb128 0xa
 7240 1c5d 10000000 		.4byte	.LVL281
 7241 1c61 36050000 		.4byte	0x536
 7242 1c65 6F1C0000 		.4byte	0x1c6f
 7243 1c69 0B       		.uleb128 0xb
 7244 1c6a 01       		.uleb128 0x1
 7245 1c6b 50       		.byte	0x50
 7246 1c6c 01       		.uleb128 0x1
 7247 1c6d 30       		.byte	0x30
 7248 1c6e 00       		.byte	0
 7249 1c6f 0A       		.uleb128 0xa
 7250 1c70 2A000000 		.4byte	.LVL282
 7251 1c74 D4090000 		.4byte	0x9d4
 7252 1c78 AC1C0000 		.4byte	0x1cac
 7253 1c7c 0B       		.uleb128 0xb
 7254 1c7d 01       		.uleb128 0x1
 7255 1c7e 50       		.byte	0x50
 7256 1c7f 02       		.uleb128 0x2
 7257 1c80 74       		.byte	0x74
 7258 1c81 00       		.sleb128 0
 7259 1c82 0B       		.uleb128 0xb
 7260 1c83 01       		.uleb128 0x1
 7261 1c84 51       		.byte	0x51
 7262 1c85 02       		.uleb128 0x2
 7263 1c86 08       		.byte	0x8
 7264 1c87 DB       		.byte	0xdb
 7265 1c88 0B       		.uleb128 0xb
 7266 1c89 01       		.uleb128 0x1
 7267 1c8a 52       		.byte	0x52
 7268 1c8b 02       		.uleb128 0x2
 7269 1c8c 08       		.byte	0x8
 7270 1c8d EF       		.byte	0xef
 7271 1c8e 0B       		.uleb128 0xb
 7272 1c8f 01       		.uleb128 0x1
 7273 1c90 53       		.byte	0x53
 7274 1c91 01       		.uleb128 0x1
 7275 1c92 44       		.byte	0x44
 7276 1c93 0B       		.uleb128 0xb
 7277 1c94 02       		.uleb128 0x2
 7278 1c95 7D       		.byte	0x7d
 7279 1c96 00       		.sleb128 0
 7280 1c97 02       		.uleb128 0x2
 7281 1c98 75       		.byte	0x75
 7282 1c99 00       		.sleb128 0
ARM GAS  C:\Users\legoc\AppData\Local\Temp\cchaQR7h.s 			page 141


 7283 1c9a 0B       		.uleb128 0xb
 7284 1c9b 02       		.uleb128 0x2
 7285 1c9c 7D       		.byte	0x7d
 7286 1c9d 04       		.sleb128 4
 7287 1c9e 02       		.uleb128 0x2
 7288 1c9f 74       		.byte	0x74
 7289 1ca0 00       		.sleb128 0
 7290 1ca1 0B       		.uleb128 0xb
 7291 1ca2 02       		.uleb128 0x2
 7292 1ca3 7D       		.byte	0x7d
 7293 1ca4 08       		.sleb128 8
 7294 1ca5 05       		.uleb128 0x5
 7295 1ca6 03       		.byte	0x3
 7296 1ca7 90010000 		.4byte	.LC31
 7297 1cab 00       		.byte	0
 7298 1cac 0A       		.uleb128 0xa
 7299 1cad 3E000000 		.4byte	.LVL283
 7300 1cb1 D4090000 		.4byte	0x9d4
 7301 1cb5 EA1C0000 		.4byte	0x1cea
 7302 1cb9 0B       		.uleb128 0xb
 7303 1cba 01       		.uleb128 0x1
 7304 1cbb 50       		.byte	0x50
 7305 1cbc 02       		.uleb128 0x2
 7306 1cbd 08       		.byte	0x8
 7307 1cbe F1       		.byte	0xf1
 7308 1cbf 0B       		.uleb128 0xb
 7309 1cc0 01       		.uleb128 0x1
 7310 1cc1 51       		.byte	0x51
 7311 1cc2 02       		.uleb128 0x2
 7312 1cc3 74       		.byte	0x74
 7313 1cc4 00       		.sleb128 0
 7314 1cc5 0B       		.uleb128 0xb
 7315 1cc6 01       		.uleb128 0x1
 7316 1cc7 52       		.byte	0x52
 7317 1cc8 02       		.uleb128 0x2
 7318 1cc9 08       		.byte	0x8
 7319 1cca 4F       		.byte	0x4f
 7320 1ccb 0B       		.uleb128 0xb
 7321 1ccc 01       		.uleb128 0x1
 7322 1ccd 53       		.byte	0x53
 7323 1cce 02       		.uleb128 0x2
 7324 1ccf 08       		.byte	0x8
 7325 1cd0 F0       		.byte	0xf0
 7326 1cd1 0B       		.uleb128 0xb
 7327 1cd2 02       		.uleb128 0x2
 7328 1cd3 7D       		.byte	0x7d
 7329 1cd4 00       		.sleb128 0
 7330 1cd5 02       		.uleb128 0x2
 7331 1cd6 75       		.byte	0x75
 7332 1cd7 00       		.sleb128 0
 7333 1cd8 0B       		.uleb128 0xb
 7334 1cd9 02       		.uleb128 0x2
 7335 1cda 7D       		.byte	0x7d
 7336 1cdb 04       		.sleb128 4
 7337 1cdc 02       		.uleb128 0x2
 7338 1cdd 74       		.byte	0x74
 7339 1cde 00       		.sleb128 0
ARM GAS  C:\Users\legoc\AppData\Local\Temp\cchaQR7h.s 			page 142


 7340 1cdf 0B       		.uleb128 0xb
 7341 1ce0 02       		.uleb128 0x2
 7342 1ce1 7D       		.byte	0x7d
 7343 1ce2 08       		.sleb128 8
 7344 1ce3 05       		.uleb128 0x5
 7345 1ce4 03       		.byte	0x3
 7346 1ce5 CC000000 		.4byte	.LC16
 7347 1ce9 00       		.byte	0
 7348 1cea 0F       		.uleb128 0xf
 7349 1ceb 4C000000 		.4byte	.LVL284
 7350 1cef BF040000 		.4byte	0x4bf
 7351 1cf3 0B       		.uleb128 0xb
 7352 1cf4 01       		.uleb128 0x1
 7353 1cf5 50       		.byte	0x50
 7354 1cf6 02       		.uleb128 0x2
 7355 1cf7 08       		.byte	0x8
 7356 1cf8 EF       		.byte	0xef
 7357 1cf9 0B       		.uleb128 0xb
 7358 1cfa 01       		.uleb128 0x1
 7359 1cfb 51       		.byte	0x51
 7360 1cfc 02       		.uleb128 0x2
 7361 1cfd 74       		.byte	0x74
 7362 1cfe 00       		.sleb128 0
 7363 1cff 0B       		.uleb128 0xb
 7364 1d00 01       		.uleb128 0x1
 7365 1d01 52       		.byte	0x52
 7366 1d02 01       		.uleb128 0x1
 7367 1d03 32       		.byte	0x32
 7368 1d04 0B       		.uleb128 0xb
 7369 1d05 01       		.uleb128 0x1
 7370 1d06 53       		.byte	0x53
 7371 1d07 02       		.uleb128 0x2
 7372 1d08 08       		.byte	0x8
 7373 1d09 F0       		.byte	0xf0
 7374 1d0a 0B       		.uleb128 0xb
 7375 1d0b 02       		.uleb128 0x2
 7376 1d0c 7D       		.byte	0x7d
 7377 1d0d 00       		.sleb128 0
 7378 1d0e 02       		.uleb128 0x2
 7379 1d0f 74       		.byte	0x74
 7380 1d10 00       		.sleb128 0
 7381 1d11 00       		.byte	0
 7382 1d12 00       		.byte	0
 7383 1d13 18       		.uleb128 0x18
 7384 1d14 75040000 		.4byte	.LASF84
 7385 1d18 01       		.byte	0x1
 7386 1d19 4402     		.2byte	0x244
 7387 1d1b 00000000 		.4byte	.LFB22
 7388 1d1f B4000000 		.4byte	.LFE22-.LFB22
 7389 1d23 01       		.uleb128 0x1
 7390 1d24 9C       		.byte	0x9c
 7391 1d25 FB1E0000 		.4byte	0x1efb
 7392 1d29 19       		.uleb128 0x19
 7393 1d2a 7800     		.ascii	"x\000"
 7394 1d2c 01       		.byte	0x1
 7395 1d2d 4402     		.2byte	0x244
 7396 1d2f AD000000 		.4byte	0xad
ARM GAS  C:\Users\legoc\AppData\Local\Temp\cchaQR7h.s 			page 143


 7397 1d33 970B0000 		.4byte	.LLST75
 7398 1d37 19       		.uleb128 0x19
 7399 1d38 7900     		.ascii	"y\000"
 7400 1d3a 01       		.byte	0x1
 7401 1d3b 4402     		.2byte	0x244
 7402 1d3d AD000000 		.4byte	0xad
 7403 1d41 B80B0000 		.4byte	.LLST76
 7404 1d45 26       		.uleb128 0x26
 7405 1d46 54040000 		.4byte	.LASF85
 7406 1d4a 01       		.byte	0x1
 7407 1d4b 4A02     		.2byte	0x24a
 7408 1d4d 49100000 		.4byte	0x1049
 7409 1d51 02       		.uleb128 0x2
 7410 1d52 91       		.byte	0x91
 7411 1d53 64       		.sleb128 -28
 7412 1d54 26       		.uleb128 0x26
 7413 1d55 53000000 		.4byte	.LASF86
 7414 1d59 01       		.byte	0x1
 7415 1d5a 4B02     		.2byte	0x24b
 7416 1d5c 49100000 		.4byte	0x1049
 7417 1d60 02       		.uleb128 0x2
 7418 1d61 91       		.byte	0x91
 7419 1d62 58       		.sleb128 -40
 7420 1d63 20       		.uleb128 0x20
 7421 1d64 97030000 		.4byte	.LASF57
 7422 1d68 01       		.byte	0x1
 7423 1d69 4F01     		.2byte	0x14f
 7424 1d6b 89000000 		.4byte	0x89
 7425 1d6f 751D0000 		.4byte	0x1d75
 7426 1d73 21       		.uleb128 0x21
 7427 1d74 00       		.byte	0
 7428 1d75 0A       		.uleb128 0xa
 7429 1d76 0E000000 		.4byte	.LVL287
 7430 1d7a 36050000 		.4byte	0x536
 7431 1d7e 881D0000 		.4byte	0x1d88
 7432 1d82 0B       		.uleb128 0xb
 7433 1d83 01       		.uleb128 0x1
 7434 1d84 50       		.byte	0x50
 7435 1d85 01       		.uleb128 0x1
 7436 1d86 30       		.byte	0x30
 7437 1d87 00       		.byte	0
 7438 1d88 0A       		.uleb128 0xa
 7439 1d89 1E000000 		.4byte	.LVL288
 7440 1d8d B1240000 		.4byte	0x24b1
 7441 1d91 A71D0000 		.4byte	0x1da7
 7442 1d95 0B       		.uleb128 0xb
 7443 1d96 01       		.uleb128 0x1
 7444 1d97 50       		.byte	0x50
 7445 1d98 02       		.uleb128 0x2
 7446 1d99 75       		.byte	0x75
 7447 1d9a 00       		.sleb128 0
 7448 1d9b 0B       		.uleb128 0xb
 7449 1d9c 01       		.uleb128 0x1
 7450 1d9d 51       		.byte	0x51
 7451 1d9e 02       		.uleb128 0x2
 7452 1d9f 91       		.byte	0x91
 7453 1da0 64       		.sleb128 -28
ARM GAS  C:\Users\legoc\AppData\Local\Temp\cchaQR7h.s 			page 144


 7454 1da1 0B       		.uleb128 0xb
 7455 1da2 01       		.uleb128 0x1
 7456 1da3 52       		.byte	0x52
 7457 1da4 01       		.uleb128 0x1
 7458 1da5 3A       		.byte	0x3a
 7459 1da6 00       		.byte	0
 7460 1da7 0A       		.uleb128 0xa
 7461 1da8 28000000 		.4byte	.LVL289
 7462 1dac B1240000 		.4byte	0x24b1
 7463 1db0 C61D0000 		.4byte	0x1dc6
 7464 1db4 0B       		.uleb128 0xb
 7465 1db5 01       		.uleb128 0x1
 7466 1db6 50       		.byte	0x50
 7467 1db7 02       		.uleb128 0x2
 7468 1db8 74       		.byte	0x74
 7469 1db9 00       		.sleb128 0
 7470 1dba 0B       		.uleb128 0xb
 7471 1dbb 01       		.uleb128 0x1
 7472 1dbc 51       		.byte	0x51
 7473 1dbd 02       		.uleb128 0x2
 7474 1dbe 91       		.byte	0x91
 7475 1dbf 58       		.sleb128 -40
 7476 1dc0 0B       		.uleb128 0xb
 7477 1dc1 01       		.uleb128 0x1
 7478 1dc2 52       		.byte	0x52
 7479 1dc3 01       		.uleb128 0x1
 7480 1dc4 3A       		.byte	0x3a
 7481 1dc5 00       		.byte	0
 7482 1dc6 0A       		.uleb128 0xa
 7483 1dc7 3A000000 		.4byte	.LVL290
 7484 1dcb 9A240000 		.4byte	0x249a
 7485 1dcf F41D0000 		.4byte	0x1df4
 7486 1dd3 0B       		.uleb128 0xb
 7487 1dd4 01       		.uleb128 0x1
 7488 1dd5 50       		.byte	0x50
 7489 1dd6 02       		.uleb128 0x2
 7490 1dd7 08       		.byte	0x8
 7491 1dd8 64       		.byte	0x64
 7492 1dd9 0B       		.uleb128 0xb
 7493 1dda 01       		.uleb128 0x1
 7494 1ddb 51       		.byte	0x51
 7495 1ddc 02       		.uleb128 0x2
 7496 1ddd 08       		.byte	0x8
 7497 1dde 6E       		.byte	0x6e
 7498 1ddf 0B       		.uleb128 0xb
 7499 1de0 01       		.uleb128 0x1
 7500 1de1 52       		.byte	0x52
 7501 1de2 03       		.uleb128 0x3
 7502 1de3 0A       		.byte	0xa
 7503 1de4 FFFF     		.2byte	0xffff
 7504 1de6 0B       		.uleb128 0xb
 7505 1de7 01       		.uleb128 0x1
 7506 1de8 53       		.byte	0x53
 7507 1de9 02       		.uleb128 0x2
 7508 1dea 91       		.byte	0x91
 7509 1deb 64       		.sleb128 -28
 7510 1dec 0B       		.uleb128 0xb
ARM GAS  C:\Users\legoc\AppData\Local\Temp\cchaQR7h.s 			page 145


 7511 1ded 02       		.uleb128 0x2
 7512 1dee 7D       		.byte	0x7d
 7513 1def 00       		.sleb128 0
 7514 1df0 02       		.uleb128 0x2
 7515 1df1 74       		.byte	0x74
 7516 1df2 00       		.sleb128 0
 7517 1df3 00       		.byte	0
 7518 1df4 0A       		.uleb128 0xa
 7519 1df5 4A000000 		.4byte	.LVL291
 7520 1df9 9A240000 		.4byte	0x249a
 7521 1dfd 221E0000 		.4byte	0x1e22
 7522 1e01 0B       		.uleb128 0xb
 7523 1e02 01       		.uleb128 0x1
 7524 1e03 50       		.byte	0x50
 7525 1e04 02       		.uleb128 0x2
 7526 1e05 08       		.byte	0x8
 7527 1e06 64       		.byte	0x64
 7528 1e07 0B       		.uleb128 0xb
 7529 1e08 01       		.uleb128 0x1
 7530 1e09 51       		.byte	0x51
 7531 1e0a 02       		.uleb128 0x2
 7532 1e0b 08       		.byte	0x8
 7533 1e0c 64       		.byte	0x64
 7534 1e0d 0B       		.uleb128 0xb
 7535 1e0e 01       		.uleb128 0x1
 7536 1e0f 52       		.byte	0x52
 7537 1e10 03       		.uleb128 0x3
 7538 1e11 0A       		.byte	0xa
 7539 1e12 FFFF     		.2byte	0xffff
 7540 1e14 0B       		.uleb128 0xb
 7541 1e15 01       		.uleb128 0x1
 7542 1e16 53       		.byte	0x53
 7543 1e17 02       		.uleb128 0x2
 7544 1e18 91       		.byte	0x91
 7545 1e19 58       		.sleb128 -40
 7546 1e1a 0B       		.uleb128 0xb
 7547 1e1b 02       		.uleb128 0x2
 7548 1e1c 7D       		.byte	0x7d
 7549 1e1d 00       		.sleb128 0
 7550 1e1e 02       		.uleb128 0x2
 7551 1e1f 74       		.byte	0x74
 7552 1e20 00       		.sleb128 0
 7553 1e21 00       		.byte	0
 7554 1e22 0A       		.uleb128 0xa
 7555 1e23 5A000000 		.4byte	.LVL292
 7556 1e27 9A240000 		.4byte	0x249a
 7557 1e2b 531E0000 		.4byte	0x1e53
 7558 1e2f 0B       		.uleb128 0xb
 7559 1e30 01       		.uleb128 0x1
 7560 1e31 50       		.byte	0x50
 7561 1e32 02       		.uleb128 0x2
 7562 1e33 08       		.byte	0x8
 7563 1e34 64       		.byte	0x64
 7564 1e35 0B       		.uleb128 0xb
 7565 1e36 01       		.uleb128 0x1
 7566 1e37 51       		.byte	0x51
 7567 1e38 02       		.uleb128 0x2
ARM GAS  C:\Users\legoc\AppData\Local\Temp\cchaQR7h.s 			page 146


 7568 1e39 08       		.byte	0x8
 7569 1e3a C8       		.byte	0xc8
 7570 1e3b 0B       		.uleb128 0xb
 7571 1e3c 01       		.uleb128 0x1
 7572 1e3d 52       		.byte	0x52
 7573 1e3e 03       		.uleb128 0x3
 7574 1e3f 0A       		.byte	0xa
 7575 1e40 FFFF     		.2byte	0xffff
 7576 1e42 0B       		.uleb128 0xb
 7577 1e43 01       		.uleb128 0x1
 7578 1e44 53       		.byte	0x53
 7579 1e45 05       		.uleb128 0x5
 7580 1e46 03       		.byte	0x3
 7581 1e47 B0010000 		.4byte	.LC32
 7582 1e4b 0B       		.uleb128 0xb
 7583 1e4c 02       		.uleb128 0x2
 7584 1e4d 7D       		.byte	0x7d
 7585 1e4e 00       		.sleb128 0
 7586 1e4f 02       		.uleb128 0x2
 7587 1e50 74       		.byte	0x74
 7588 1e51 00       		.sleb128 0
 7589 1e52 00       		.byte	0
 7590 1e53 0A       		.uleb128 0xa
 7591 1e54 6C000000 		.4byte	.LVL293
 7592 1e58 9A240000 		.4byte	0x249a
 7593 1e5c 831E0000 		.4byte	0x1e83
 7594 1e60 0B       		.uleb128 0xb
 7595 1e61 01       		.uleb128 0x1
 7596 1e62 50       		.byte	0x50
 7597 1e63 02       		.uleb128 0x2
 7598 1e64 08       		.byte	0x8
 7599 1e65 32       		.byte	0x32
 7600 1e66 0B       		.uleb128 0xb
 7601 1e67 01       		.uleb128 0x1
 7602 1e68 51       		.byte	0x51
 7603 1e69 02       		.uleb128 0x2
 7604 1e6a 08       		.byte	0x8
 7605 1e6b 96       		.byte	0x96
 7606 1e6c 0B       		.uleb128 0xb
 7607 1e6d 01       		.uleb128 0x1
 7608 1e6e 52       		.byte	0x52
 7609 1e6f 03       		.uleb128 0x3
 7610 1e70 0A       		.byte	0xa
 7611 1e71 FFFF     		.2byte	0xffff
 7612 1e73 0B       		.uleb128 0xb
 7613 1e74 01       		.uleb128 0x1
 7614 1e75 53       		.byte	0x53
 7615 1e76 05       		.uleb128 0x5
 7616 1e77 03       		.byte	0x3
 7617 1e78 C4010000 		.4byte	.LC33
 7618 1e7c 0B       		.uleb128 0xb
 7619 1e7d 02       		.uleb128 0x2
 7620 1e7e 7D       		.byte	0x7d
 7621 1e7f 00       		.sleb128 0
 7622 1e80 01       		.uleb128 0x1
 7623 1e81 36       		.byte	0x36
 7624 1e82 00       		.byte	0
ARM GAS  C:\Users\legoc\AppData\Local\Temp\cchaQR7h.s 			page 147


 7625 1e83 0A       		.uleb128 0xa
 7626 1e84 86000000 		.4byte	.LVL294
 7627 1e88 D4090000 		.4byte	0x9d4
 7628 1e8c C11E0000 		.4byte	0x1ec1
 7629 1e90 0B       		.uleb128 0xb
 7630 1e91 01       		.uleb128 0x1
 7631 1e92 50       		.byte	0x50
 7632 1e93 02       		.uleb128 0x2
 7633 1e94 08       		.byte	0x8
 7634 1e95 96       		.byte	0x96
 7635 1e96 0B       		.uleb128 0xb
 7636 1e97 01       		.uleb128 0x1
 7637 1e98 51       		.byte	0x51
 7638 1e99 02       		.uleb128 0x2
 7639 1e9a 08       		.byte	0x8
 7640 1e9b 28       		.byte	0x28
 7641 1e9c 0B       		.uleb128 0xb
 7642 1e9d 01       		.uleb128 0x1
 7643 1e9e 52       		.byte	0x52
 7644 1e9f 02       		.uleb128 0x2
 7645 1ea0 08       		.byte	0x8
 7646 1ea1 77       		.byte	0x77
 7647 1ea2 0B       		.uleb128 0xb
 7648 1ea3 01       		.uleb128 0x1
 7649 1ea4 53       		.byte	0x53
 7650 1ea5 02       		.uleb128 0x2
 7651 1ea6 08       		.byte	0x8
 7652 1ea7 46       		.byte	0x46
 7653 1ea8 0B       		.uleb128 0xb
 7654 1ea9 02       		.uleb128 0x2
 7655 1eaa 7D       		.byte	0x7d
 7656 1eab 00       		.sleb128 0
 7657 1eac 02       		.uleb128 0x2
 7658 1ead 75       		.byte	0x75
 7659 1eae 00       		.sleb128 0
 7660 1eaf 0B       		.uleb128 0xb
 7661 1eb0 02       		.uleb128 0x2
 7662 1eb1 7D       		.byte	0x7d
 7663 1eb2 04       		.sleb128 4
 7664 1eb3 02       		.uleb128 0x2
 7665 1eb4 74       		.byte	0x74
 7666 1eb5 00       		.sleb128 0
 7667 1eb6 0B       		.uleb128 0xb
 7668 1eb7 02       		.uleb128 0x2
 7669 1eb8 7D       		.byte	0x7d
 7670 1eb9 08       		.sleb128 8
 7671 1eba 05       		.uleb128 0x5
 7672 1ebb 03       		.byte	0x3
 7673 1ebc B4000000 		.4byte	.LC15
 7674 1ec0 00       		.byte	0
 7675 1ec1 0F       		.uleb128 0xf
 7676 1ec2 9A000000 		.4byte	.LVL295
 7677 1ec6 D4090000 		.4byte	0x9d4
 7678 1eca 0B       		.uleb128 0xb
 7679 1ecb 01       		.uleb128 0x1
 7680 1ecc 50       		.byte	0x50
 7681 1ecd 02       		.uleb128 0x2
ARM GAS  C:\Users\legoc\AppData\Local\Temp\cchaQR7h.s 			page 148


 7682 1ece 74       		.byte	0x74
 7683 1ecf 00       		.sleb128 0
 7684 1ed0 0B       		.uleb128 0xb
 7685 1ed1 01       		.uleb128 0x1
 7686 1ed2 51       		.byte	0x51
 7687 1ed3 02       		.uleb128 0x2
 7688 1ed4 74       		.byte	0x74
 7689 1ed5 00       		.sleb128 0
 7690 1ed6 0B       		.uleb128 0xb
 7691 1ed7 01       		.uleb128 0x1
 7692 1ed8 52       		.byte	0x52
 7693 1ed9 02       		.uleb128 0x2
 7694 1eda 08       		.byte	0x8
 7695 1edb 32       		.byte	0x32
 7696 1edc 0B       		.uleb128 0xb
 7697 1edd 01       		.uleb128 0x1
 7698 1ede 53       		.byte	0x53
 7699 1edf 01       		.uleb128 0x1
 7700 1ee0 4E       		.byte	0x4e
 7701 1ee1 0B       		.uleb128 0xb
 7702 1ee2 02       		.uleb128 0x2
 7703 1ee3 7D       		.byte	0x7d
 7704 1ee4 00       		.sleb128 0
 7705 1ee5 02       		.uleb128 0x2
 7706 1ee6 75       		.byte	0x75
 7707 1ee7 00       		.sleb128 0
 7708 1ee8 0B       		.uleb128 0xb
 7709 1ee9 02       		.uleb128 0x2
 7710 1eea 7D       		.byte	0x7d
 7711 1eeb 04       		.sleb128 4
 7712 1eec 02       		.uleb128 0x2
 7713 1eed 74       		.byte	0x74
 7714 1eee 00       		.sleb128 0
 7715 1eef 0B       		.uleb128 0xb
 7716 1ef0 02       		.uleb128 0x2
 7717 1ef1 7D       		.byte	0x7d
 7718 1ef2 08       		.sleb128 8
 7719 1ef3 05       		.uleb128 0x5
 7720 1ef4 03       		.byte	0x3
 7721 1ef5 CC000000 		.4byte	.LC16
 7722 1ef9 00       		.byte	0
 7723 1efa 00       		.byte	0
 7724 1efb 06       		.uleb128 0x6
 7725 1efc F4050000 		.4byte	0x5f4
 7726 1f00 0B1F0000 		.4byte	0x1f0b
 7727 1f04 07       		.uleb128 0x7
 7728 1f05 DF000000 		.4byte	0xdf
 7729 1f09 19       		.byte	0x19
 7730 1f0a 00       		.byte	0
 7731 1f0b 28       		.uleb128 0x28
 7732 1f0c 88020000 		.4byte	.LASF87
 7733 1f10 04       		.byte	0x4
 7734 1f11 0F       		.byte	0xf
 7735 1f12 311F0000 		.4byte	0x1f31
 7736 1f16 1A       		.byte	0x1a
 7737 1f17 03       		.byte	0x3
 7738 1f18 01       		.byte	0x1
ARM GAS  C:\Users\legoc\AppData\Local\Temp\cchaQR7h.s 			page 149


 7739 1f19 02       		.byte	0x2
 7740 1f1a 03       		.byte	0x3
 7741 1f1b 02       		.byte	0x2
 7742 1f1c 00       		.byte	0
 7743 1f1d 04       		.byte	0x4
 7744 1f1e 03       		.byte	0x3
 7745 1f1f 00       		.byte	0
 7746 1f20 01       		.byte	0x1
 7747 1f21 04       		.byte	0x4
 7748 1f22 03       		.byte	0x3
 7749 1f23 00       		.byte	0
 7750 1f24 02       		.byte	0x2
 7751 1f25 04       		.byte	0x4
 7752 1f26 03       		.byte	0x3
 7753 1f27 00       		.byte	0
 7754 1f28 03       		.byte	0x3
 7755 1f29 04       		.byte	0x4
 7756 1f2a 02       		.byte	0x2
 7757 1f2b 00       		.byte	0
 7758 1f2c 04       		.byte	0x4
 7759 1f2d 03       		.byte	0x3
 7760 1f2e 01       		.byte	0x1
 7761 1f2f 02       		.byte	0x2
 7762 1f30 03       		.byte	0x3
 7763 1f31 14       		.uleb128 0x14
 7764 1f32 FB1E0000 		.4byte	0x1efb
 7765 1f36 06       		.uleb128 0x6
 7766 1f37 F4050000 		.4byte	0x5f4
 7767 1f3b 461F0000 		.4byte	0x1f46
 7768 1f3f 07       		.uleb128 0x7
 7769 1f40 DF000000 		.4byte	0xdf
 7770 1f44 12       		.byte	0x12
 7771 1f45 00       		.byte	0
 7772 1f46 28       		.uleb128 0x28
 7773 1f47 8F020000 		.4byte	.LASF88
 7774 1f4b 04       		.byte	0x4
 7775 1f4c 21       		.byte	0x21
 7776 1f4d 651F0000 		.4byte	0x1f65
 7777 1f51 13       		.byte	0x13
 7778 1f52 05       		.byte	0x5
 7779 1f53 00       		.byte	0
 7780 1f54 01       		.byte	0x1
 7781 1f55 02       		.byte	0x2
 7782 1f56 03       		.byte	0x3
 7783 1f57 04       		.byte	0x4
 7784 1f58 01       		.byte	0x1
 7785 1f59 02       		.byte	0x2
 7786 1f5a 01       		.byte	0x1
 7787 1f5b 02       		.byte	0x2
 7788 1f5c 01       		.byte	0x1
 7789 1f5d 02       		.byte	0x2
 7790 1f5e 01       		.byte	0x1
 7791 1f5f 02       		.byte	0x2
 7792 1f60 02       		.byte	0x2
 7793 1f61 01       		.byte	0x1
 7794 1f62 02       		.byte	0x2
 7795 1f63 01       		.byte	0x1
ARM GAS  C:\Users\legoc\AppData\Local\Temp\cchaQR7h.s 			page 150


 7796 1f64 02       		.byte	0x2
 7797 1f65 14       		.uleb128 0x14
 7798 1f66 361F0000 		.4byte	0x1f36
 7799 1f6a 06       		.uleb128 0x6
 7800 1f6b F4050000 		.4byte	0x5f4
 7801 1f6f 7A1F0000 		.4byte	0x1f7a
 7802 1f73 07       		.uleb128 0x7
 7803 1f74 DF000000 		.4byte	0xdf
 7804 1f78 16       		.byte	0x16
 7805 1f79 00       		.byte	0
 7806 1f7a 28       		.uleb128 0x28
 7807 1f7b 96020000 		.4byte	.LASF89
 7808 1f7f 04       		.byte	0x4
 7809 1f80 33       		.byte	0x33
 7810 1f81 9D1F0000 		.4byte	0x1f9d
 7811 1f85 17       		.byte	0x17
 7812 1f86 05       		.byte	0x5
 7813 1f87 00       		.byte	0
 7814 1f88 01       		.byte	0x1
 7815 1f89 02       		.byte	0x2
 7816 1f8a 03       		.byte	0x3
 7817 1f8b 04       		.byte	0x4
 7818 1f8c 02       		.byte	0x2
 7819 1f8d 00       		.byte	0
 7820 1f8e 04       		.byte	0x4
 7821 1f8f 01       		.byte	0x1
 7822 1f90 01       		.byte	0x1
 7823 1f91 02       		.byte	0x2
 7824 1f92 02       		.byte	0x2
 7825 1f93 03       		.byte	0x3
 7826 1f94 01       		.byte	0x1
 7827 1f95 04       		.byte	0x4
 7828 1f96 02       		.byte	0x2
 7829 1f97 00       		.byte	0
 7830 1f98 04       		.byte	0x4
 7831 1f99 03       		.byte	0x3
 7832 1f9a 01       		.byte	0x1
 7833 1f9b 02       		.byte	0x2
 7834 1f9c 03       		.byte	0x3
 7835 1f9d 14       		.uleb128 0x14
 7836 1f9e 6A1F0000 		.4byte	0x1f6a
 7837 1fa2 06       		.uleb128 0x6
 7838 1fa3 F4050000 		.4byte	0x5f4
 7839 1fa7 B21F0000 		.4byte	0x1fb2
 7840 1fab 07       		.uleb128 0x7
 7841 1fac DF000000 		.4byte	0xdf
 7842 1fb0 14       		.byte	0x14
 7843 1fb1 00       		.byte	0
 7844 1fb2 28       		.uleb128 0x28
 7845 1fb3 9D020000 		.4byte	.LASF90
 7846 1fb7 04       		.byte	0x4
 7847 1fb8 45       		.byte	0x45
 7848 1fb9 D31F0000 		.4byte	0x1fd3
 7849 1fbd 15       		.byte	0x15
 7850 1fbe 03       		.byte	0x3
 7851 1fbf 01       		.byte	0x1
 7852 1fc0 02       		.byte	0x2
ARM GAS  C:\Users\legoc\AppData\Local\Temp\cchaQR7h.s 			page 151


 7853 1fc1 03       		.byte	0x3
 7854 1fc2 02       		.byte	0x2
 7855 1fc3 00       		.byte	0
 7856 1fc4 04       		.byte	0x4
 7857 1fc5 01       		.byte	0x1
 7858 1fc6 04       		.byte	0x4
 7859 1fc7 02       		.byte	0x2
 7860 1fc8 02       		.byte	0x2
 7861 1fc9 03       		.byte	0x3
 7862 1fca 01       		.byte	0x1
 7863 1fcb 04       		.byte	0x4
 7864 1fcc 02       		.byte	0x2
 7865 1fcd 00       		.byte	0
 7866 1fce 04       		.byte	0x4
 7867 1fcf 03       		.byte	0x3
 7868 1fd0 01       		.byte	0x1
 7869 1fd1 02       		.byte	0x2
 7870 1fd2 03       		.byte	0x3
 7871 1fd3 14       		.uleb128 0x14
 7872 1fd4 A21F0000 		.4byte	0x1fa2
 7873 1fd8 06       		.uleb128 0x6
 7874 1fd9 F4050000 		.4byte	0x5f4
 7875 1fdd E81F0000 		.4byte	0x1fe8
 7876 1fe1 07       		.uleb128 0x7
 7877 1fe2 DF000000 		.4byte	0xdf
 7878 1fe6 15       		.byte	0x15
 7879 1fe7 00       		.byte	0
 7880 1fe8 28       		.uleb128 0x28
 7881 1fe9 A4020000 		.4byte	.LASF91
 7882 1fed 04       		.byte	0x4
 7883 1fee 57       		.byte	0x57
 7884 1fef 0A200000 		.4byte	0x200a
 7885 1ff3 16       		.byte	0x16
 7886 1ff4 01       		.byte	0x1
 7887 1ff5 04       		.byte	0x4
 7888 1ff6 01       		.byte	0x1
 7889 1ff7 04       		.byte	0x4
 7890 1ff8 05       		.byte	0x5
 7891 1ff9 00       		.byte	0
 7892 1ffa 01       		.byte	0x1
 7893 1ffb 02       		.byte	0x2
 7894 1ffc 03       		.byte	0x3
 7895 1ffd 04       		.byte	0x4
 7896 1ffe 02       		.byte	0x2
 7897 1fff 00       		.byte	0
 7898 2000 04       		.byte	0x4
 7899 2001 02       		.byte	0x2
 7900 2002 01       		.byte	0x1
 7901 2003 04       		.byte	0x4
 7902 2004 02       		.byte	0x2
 7903 2005 02       		.byte	0x2
 7904 2006 04       		.byte	0x4
 7905 2007 02       		.byte	0x2
 7906 2008 03       		.byte	0x3
 7907 2009 04       		.byte	0x4
 7908 200a 14       		.uleb128 0x14
 7909 200b D81F0000 		.4byte	0x1fd8
ARM GAS  C:\Users\legoc\AppData\Local\Temp\cchaQR7h.s 			page 152


 7910 200f 06       		.uleb128 0x6
 7911 2010 F4050000 		.4byte	0x5f4
 7912 2014 1F200000 		.4byte	0x201f
 7913 2018 07       		.uleb128 0x7
 7914 2019 DF000000 		.4byte	0xdf
 7915 201d 17       		.byte	0x17
 7916 201e 00       		.byte	0
 7917 201f 28       		.uleb128 0x28
 7918 2020 AB020000 		.4byte	.LASF92
 7919 2024 04       		.byte	0x4
 7920 2025 69       		.byte	0x69
 7921 2026 43200000 		.4byte	0x2043
 7922 202a 18       		.byte	0x18
 7923 202b 03       		.byte	0x3
 7924 202c 01       		.byte	0x1
 7925 202d 02       		.byte	0x2
 7926 202e 03       		.byte	0x3
 7927 202f 02       		.byte	0x2
 7928 2030 00       		.byte	0
 7929 2031 04       		.byte	0x4
 7930 2032 01       		.byte	0x1
 7931 2033 04       		.byte	0x4
 7932 2034 01       		.byte	0x1
 7933 2035 04       		.byte	0x4
 7934 2036 04       		.byte	0x4
 7935 2037 00       		.byte	0
 7936 2038 01       		.byte	0x1
 7937 2039 02       		.byte	0x2
 7938 203a 03       		.byte	0x3
 7939 203b 01       		.byte	0x1
 7940 203c 00       		.byte	0
 7941 203d 05       		.byte	0x5
 7942 203e 00       		.byte	0
 7943 203f 01       		.byte	0x1
 7944 2040 02       		.byte	0x2
 7945 2041 03       		.byte	0x3
 7946 2042 04       		.byte	0x4
 7947 2043 14       		.uleb128 0x14
 7948 2044 0F200000 		.4byte	0x200f
 7949 2048 28       		.uleb128 0x28
 7950 2049 12060000 		.4byte	.LASF93
 7951 204d 04       		.byte	0x4
 7952 204e 7B       		.byte	0x7b
 7953 204f 6A200000 		.4byte	0x206a
 7954 2053 16       		.byte	0x16
 7955 2054 03       		.byte	0x3
 7956 2055 01       		.byte	0x1
 7957 2056 02       		.byte	0x2
 7958 2057 03       		.byte	0x3
 7959 2058 02       		.byte	0x2
 7960 2059 00       		.byte	0
 7961 205a 04       		.byte	0x4
 7962 205b 02       		.byte	0x2
 7963 205c 00       		.byte	0
 7964 205d 04       		.byte	0x4
 7965 205e 04       		.byte	0x4
 7966 205f 00       		.byte	0
ARM GAS  C:\Users\legoc\AppData\Local\Temp\cchaQR7h.s 			page 153


 7967 2060 01       		.byte	0x1
 7968 2061 02       		.byte	0x2
 7969 2062 03       		.byte	0x3
 7970 2063 01       		.byte	0x1
 7971 2064 00       		.byte	0
 7972 2065 01       		.byte	0x1
 7973 2066 01       		.byte	0x1
 7974 2067 02       		.byte	0x2
 7975 2068 02       		.byte	0x2
 7976 2069 03       		.byte	0x3
 7977 206a 14       		.uleb128 0x14
 7978 206b D81F0000 		.4byte	0x1fd8
 7979 206f 28       		.uleb128 0x28
 7980 2070 AC040000 		.4byte	.LASF94
 7981 2074 04       		.byte	0x4
 7982 2075 8D       		.byte	0x8d
 7983 2076 8E200000 		.4byte	0x208e
 7984 207a 13       		.byte	0x13
 7985 207b 01       		.byte	0x1
 7986 207c 02       		.byte	0x2
 7987 207d 01       		.byte	0x1
 7988 207e 02       		.byte	0x2
 7989 207f 01       		.byte	0x1
 7990 2080 02       		.byte	0x2
 7991 2081 01       		.byte	0x1
 7992 2082 03       		.byte	0x3
 7993 2083 01       		.byte	0x1
 7994 2084 04       		.byte	0x4
 7995 2085 02       		.byte	0x2
 7996 2086 00       		.byte	0
 7997 2087 04       		.byte	0x4
 7998 2088 05       		.byte	0x5
 7999 2089 00       		.byte	0
 8000 208a 01       		.byte	0x1
 8001 208b 02       		.byte	0x2
 8002 208c 03       		.byte	0x3
 8003 208d 04       		.byte	0x4
 8004 208e 14       		.uleb128 0x14
 8005 208f 361F0000 		.4byte	0x1f36
 8006 2093 28       		.uleb128 0x28
 8007 2094 C0040000 		.4byte	.LASF95
 8008 2098 04       		.byte	0x4
 8009 2099 9F       		.byte	0x9f
 8010 209a B7200000 		.4byte	0x20b7
 8011 209e 18       		.byte	0x18
 8012 209f 03       		.byte	0x3
 8013 20a0 01       		.byte	0x1
 8014 20a1 02       		.byte	0x2
 8015 20a2 03       		.byte	0x3
 8016 20a3 02       		.byte	0x2
 8017 20a4 00       		.byte	0
 8018 20a5 04       		.byte	0x4
 8019 20a6 02       		.byte	0x2
 8020 20a7 00       		.byte	0
 8021 20a8 04       		.byte	0x4
 8022 20a9 03       		.byte	0x3
 8023 20aa 01       		.byte	0x1
ARM GAS  C:\Users\legoc\AppData\Local\Temp\cchaQR7h.s 			page 154


 8024 20ab 02       		.byte	0x2
 8025 20ac 03       		.byte	0x3
 8026 20ad 02       		.byte	0x2
 8027 20ae 00       		.byte	0
 8028 20af 04       		.byte	0x4
 8029 20b0 02       		.byte	0x2
 8030 20b1 00       		.byte	0
 8031 20b2 04       		.byte	0x4
 8032 20b3 03       		.byte	0x3
 8033 20b4 01       		.byte	0x1
 8034 20b5 02       		.byte	0x2
 8035 20b6 03       		.byte	0x3
 8036 20b7 14       		.uleb128 0x14
 8037 20b8 0F200000 		.4byte	0x200f
 8038 20bc 28       		.uleb128 0x28
 8039 20bd C7040000 		.4byte	.LASF96
 8040 20c1 04       		.byte	0x4
 8041 20c2 B1       		.byte	0xb1
 8042 20c3 DE200000 		.4byte	0x20de
 8043 20c7 16       		.byte	0x16
 8044 20c8 02       		.byte	0x2
 8045 20c9 01       		.byte	0x1
 8046 20ca 02       		.byte	0x2
 8047 20cb 01       		.byte	0x1
 8048 20cc 03       		.byte	0x3
 8049 20cd 01       		.byte	0x1
 8050 20ce 04       		.byte	0x4
 8051 20cf 04       		.byte	0x4
 8052 20d0 01       		.byte	0x1
 8053 20d1 02       		.byte	0x2
 8054 20d2 03       		.byte	0x3
 8055 20d3 04       		.byte	0x4
 8056 20d4 02       		.byte	0x2
 8057 20d5 00       		.byte	0
 8058 20d6 04       		.byte	0x4
 8059 20d7 02       		.byte	0x2
 8060 20d8 00       		.byte	0
 8061 20d9 04       		.byte	0x4
 8062 20da 03       		.byte	0x3
 8063 20db 01       		.byte	0x1
 8064 20dc 02       		.byte	0x2
 8065 20dd 03       		.byte	0x3
 8066 20de 14       		.uleb128 0x14
 8067 20df D81F0000 		.4byte	0x1fd8
 8068 20e3 06       		.uleb128 0x6
 8069 20e4 F4050000 		.4byte	0x5f4
 8070 20e8 F3200000 		.4byte	0x20f3
 8071 20ec 07       		.uleb128 0x7
 8072 20ed DF000000 		.4byte	0xdf
 8073 20f1 07       		.byte	0x7
 8074 20f2 00       		.byte	0
 8075 20f3 28       		.uleb128 0x28
 8076 20f4 3D040000 		.4byte	.LASF97
 8077 20f8 04       		.byte	0x4
 8078 20f9 C3       		.byte	0xc3
 8079 20fa 07210000 		.4byte	0x2107
 8080 20fe 08       		.byte	0x8
ARM GAS  C:\Users\legoc\AppData\Local\Temp\cchaQR7h.s 			page 155


 8081 20ff 01       		.byte	0x1
 8082 2100 02       		.byte	0x2
 8083 2101 00       		.byte	0
 8084 2102 00       		.byte	0
 8085 2103 00       		.byte	0
 8086 2104 00       		.byte	0
 8087 2105 00       		.byte	0
 8088 2106 00       		.byte	0
 8089 2107 14       		.uleb128 0x14
 8090 2108 E3200000 		.4byte	0x20e3
 8091 210c 28       		.uleb128 0x28
 8092 210d 3E030000 		.4byte	.LASF98
 8093 2111 04       		.byte	0x4
 8094 2112 D4       		.byte	0xd4
 8095 2113 2D210000 		.4byte	0x212d
 8096 2117 15       		.byte	0x15
 8097 2118 04       		.byte	0x4
 8098 2119 01       		.byte	0x1
 8099 211a 02       		.byte	0x2
 8100 211b 03       		.byte	0x3
 8101 211c 04       		.byte	0x4
 8102 211d 01       		.byte	0x1
 8103 211e 00       		.byte	0
 8104 211f 04       		.byte	0x4
 8105 2120 04       		.byte	0x4
 8106 2121 01       		.byte	0x1
 8107 2122 02       		.byte	0x2
 8108 2123 03       		.byte	0x3
 8109 2124 04       		.byte	0x4
 8110 2125 01       		.byte	0x1
 8111 2126 04       		.byte	0x4
 8112 2127 03       		.byte	0x3
 8113 2128 02       		.byte	0x2
 8114 2129 03       		.byte	0x3
 8115 212a 04       		.byte	0x4
 8116 212b 00       		.byte	0
 8117 212c 00       		.byte	0
 8118 212d 14       		.uleb128 0x14
 8119 212e A21F0000 		.4byte	0x1fa2
 8120 2132 28       		.uleb128 0x28
 8121 2133 45030000 		.4byte	.LASF99
 8122 2137 04       		.byte	0x4
 8123 2138 E5       		.byte	0xe5
 8124 2139 55210000 		.4byte	0x2155
 8125 213d 17       		.byte	0x17
 8126 213e 04       		.byte	0x4
 8127 213f 00       		.byte	0
 8128 2140 01       		.byte	0x1
 8129 2141 02       		.byte	0x2
 8130 2142 03       		.byte	0x3
 8131 2143 02       		.byte	0x2
 8132 2144 00       		.byte	0
 8133 2145 04       		.byte	0x4
 8134 2146 02       		.byte	0x2
 8135 2147 00       		.byte	0
 8136 2148 04       		.byte	0x4
 8137 2149 03       		.byte	0x3
ARM GAS  C:\Users\legoc\AppData\Local\Temp\cchaQR7h.s 			page 156


 8138 214a 00       		.byte	0
 8139 214b 01       		.byte	0x1
 8140 214c 04       		.byte	0x4
 8141 214d 03       		.byte	0x3
 8142 214e 00       		.byte	0
 8143 214f 02       		.byte	0x2
 8144 2150 03       		.byte	0x3
 8145 2151 01       		.byte	0x1
 8146 2152 00       		.byte	0
 8147 2153 01       		.byte	0x1
 8148 2154 00       		.byte	0
 8149 2155 14       		.uleb128 0x14
 8150 2156 6A1F0000 		.4byte	0x1f6a
 8151 215a 06       		.uleb128 0x6
 8152 215b F4050000 		.4byte	0x5f4
 8153 215f 6A210000 		.4byte	0x216a
 8154 2163 07       		.uleb128 0x7
 8155 2164 DF000000 		.4byte	0xdf
 8156 2168 11       		.byte	0x11
 8157 2169 00       		.byte	0
 8158 216a 28       		.uleb128 0x28
 8159 216b 4C030000 		.4byte	.LASF100
 8160 216f 04       		.byte	0x4
 8161 2170 F7       		.byte	0xf7
 8162 2171 88210000 		.4byte	0x2188
 8163 2175 12       		.byte	0x12
 8164 2176 03       		.byte	0x3
 8165 2177 01       		.byte	0x1
 8166 2178 02       		.byte	0x2
 8167 2179 03       		.byte	0x3
 8168 217a 02       		.byte	0x2
 8169 217b 00       		.byte	0
 8170 217c 04       		.byte	0x4
 8171 217d 01       		.byte	0x1
 8172 217e 00       		.byte	0
 8173 217f 02       		.byte	0x2
 8174 2180 00       		.byte	0
 8175 2181 04       		.byte	0x4
 8176 2182 03       		.byte	0x3
 8177 2183 01       		.byte	0x1
 8178 2184 02       		.byte	0x2
 8179 2185 03       		.byte	0x3
 8180 2186 00       		.byte	0
 8181 2187 00       		.byte	0
 8182 2188 14       		.uleb128 0x14
 8183 2189 5A210000 		.4byte	0x215a
 8184 218d 29       		.uleb128 0x29
 8185 218e 53030000 		.4byte	.LASF101
 8186 2192 04       		.byte	0x4
 8187 2193 0801     		.2byte	0x108
 8188 2195 B1210000 		.4byte	0x21b1
 8189 2199 17       		.byte	0x17
 8190 219a 04       		.byte	0x4
 8191 219b 01       		.byte	0x1
 8192 219c 02       		.byte	0x2
 8193 219d 03       		.byte	0x3
 8194 219e 04       		.byte	0x4
ARM GAS  C:\Users\legoc\AppData\Local\Temp\cchaQR7h.s 			page 157


 8195 219f 02       		.byte	0x2
 8196 21a0 00       		.byte	0
 8197 21a1 04       		.byte	0x4
 8198 21a2 02       		.byte	0x2
 8199 21a3 00       		.byte	0
 8200 21a4 04       		.byte	0x4
 8201 21a5 03       		.byte	0x3
 8202 21a6 00       		.byte	0
 8203 21a7 03       		.byte	0x3
 8204 21a8 04       		.byte	0x4
 8205 21a9 03       		.byte	0x3
 8206 21aa 01       		.byte	0x1
 8207 21ab 02       		.byte	0x2
 8208 21ac 04       		.byte	0x4
 8209 21ad 01       		.byte	0x1
 8210 21ae 04       		.byte	0x4
 8211 21af 01       		.byte	0x1
 8212 21b0 04       		.byte	0x4
 8213 21b1 14       		.uleb128 0x14
 8214 21b2 6A1F0000 		.4byte	0x1f6a
 8215 21b6 29       		.uleb128 0x29
 8216 21b7 5A030000 		.4byte	.LASF102
 8217 21bb 04       		.byte	0x4
 8218 21bc 1A01     		.2byte	0x11a
 8219 21be D9210000 		.4byte	0x21d9
 8220 21c2 16       		.byte	0x16
 8221 21c3 04       		.byte	0x4
 8222 21c4 01       		.byte	0x1
 8223 21c5 02       		.byte	0x2
 8224 21c6 03       		.byte	0x3
 8225 21c7 04       		.byte	0x4
 8226 21c8 01       		.byte	0x1
 8227 21c9 00       		.byte	0
 8228 21ca 05       		.byte	0x5
 8229 21cb 00       		.byte	0
 8230 21cc 01       		.byte	0x1
 8231 21cd 02       		.byte	0x2
 8232 21ce 03       		.byte	0x3
 8233 21cf 04       		.byte	0x4
 8234 21d0 02       		.byte	0x2
 8235 21d1 00       		.byte	0
 8236 21d2 04       		.byte	0x4
 8237 21d3 03       		.byte	0x3
 8238 21d4 01       		.byte	0x1
 8239 21d5 02       		.byte	0x2
 8240 21d6 03       		.byte	0x3
 8241 21d7 00       		.byte	0
 8242 21d8 00       		.byte	0
 8243 21d9 14       		.uleb128 0x14
 8244 21da D81F0000 		.4byte	0x1fd8
 8245 21de 29       		.uleb128 0x29
 8246 21df 61030000 		.4byte	.LASF103
 8247 21e3 04       		.byte	0x4
 8248 21e4 2B01     		.2byte	0x12b
 8249 21e6 FD210000 		.4byte	0x21fd
 8250 21ea 12       		.byte	0x12
 8251 21eb 01       		.byte	0x1
ARM GAS  C:\Users\legoc\AppData\Local\Temp\cchaQR7h.s 			page 158


 8252 21ec 02       		.byte	0x2
 8253 21ed 01       		.byte	0x1
 8254 21ee 02       		.byte	0x2
 8255 21ef 01       		.byte	0x1
 8256 21f0 02       		.byte	0x2
 8257 21f1 01       		.byte	0x1
 8258 21f2 02       		.byte	0x2
 8259 21f3 04       		.byte	0x4
 8260 21f4 01       		.byte	0x1
 8261 21f5 02       		.byte	0x2
 8262 21f6 03       		.byte	0x3
 8263 21f7 04       		.byte	0x4
 8264 21f8 01       		.byte	0x1
 8265 21f9 02       		.byte	0x2
 8266 21fa 02       		.byte	0x2
 8267 21fb 03       		.byte	0x3
 8268 21fc 04       		.byte	0x4
 8269 21fd 14       		.uleb128 0x14
 8270 21fe 5A210000 		.4byte	0x215a
 8271 2202 29       		.uleb128 0x29
 8272 2203 68030000 		.4byte	.LASF104
 8273 2207 04       		.byte	0x4
 8274 2208 3F01     		.2byte	0x13f
 8275 220a 27220000 		.4byte	0x2227
 8276 220e 18       		.byte	0x18
 8277 220f 04       		.byte	0x4
 8278 2210 00       		.byte	0
 8279 2211 01       		.byte	0x1
 8280 2212 02       		.byte	0x2
 8281 2213 03       		.byte	0x3
 8282 2214 01       		.byte	0x1
 8283 2215 04       		.byte	0x4
 8284 2216 04       		.byte	0x4
 8285 2217 01       		.byte	0x1
 8286 2218 02       		.byte	0x2
 8287 2219 03       		.byte	0x3
 8288 221a 04       		.byte	0x4
 8289 221b 02       		.byte	0x2
 8290 221c 00       		.byte	0
 8291 221d 04       		.byte	0x4
 8292 221e 02       		.byte	0x2
 8293 221f 00       		.byte	0
 8294 2220 04       		.byte	0x4
 8295 2221 04       		.byte	0x4
 8296 2222 01       		.byte	0x1
 8297 2223 02       		.byte	0x2
 8298 2224 03       		.byte	0x3
 8299 2225 04       		.byte	0x4
 8300 2226 00       		.byte	0
 8301 2227 14       		.uleb128 0x14
 8302 2228 0F200000 		.4byte	0x200f
 8303 222c 29       		.uleb128 0x29
 8304 222d 6F030000 		.4byte	.LASF105
 8305 2231 04       		.byte	0x4
 8306 2232 5001     		.2byte	0x150
 8307 2234 4E220000 		.4byte	0x224e
 8308 2238 15       		.byte	0x15
ARM GAS  C:\Users\legoc\AppData\Local\Temp\cchaQR7h.s 			page 159


 8309 2239 02       		.byte	0x2
 8310 223a 00       		.byte	0
 8311 223b 04       		.byte	0x4
 8312 223c 02       		.byte	0x2
 8313 223d 00       		.byte	0
 8314 223e 04       		.byte	0x4
 8315 223f 02       		.byte	0x2
 8316 2240 00       		.byte	0
 8317 2241 04       		.byte	0x4
 8318 2242 03       		.byte	0x3
 8319 2243 00       		.byte	0
 8320 2244 01       		.byte	0x1
 8321 2245 04       		.byte	0x4
 8322 2246 03       		.byte	0x3
 8323 2247 00       		.byte	0
 8324 2248 02       		.byte	0x2
 8325 2249 03       		.byte	0x3
 8326 224a 01       		.byte	0x1
 8327 224b 00       		.byte	0
 8328 224c 01       		.byte	0x1
 8329 224d 00       		.byte	0
 8330 224e 14       		.uleb128 0x14
 8331 224f A21F0000 		.4byte	0x1fa2
 8332 2253 06       		.uleb128 0x6
 8333 2254 F4050000 		.4byte	0x5f4
 8334 2258 63220000 		.4byte	0x2263
 8335 225c 07       		.uleb128 0x7
 8336 225d DF000000 		.4byte	0xdf
 8337 2261 0C       		.byte	0xc
 8338 2262 00       		.byte	0
 8339 2263 29       		.uleb128 0x29
 8340 2264 76030000 		.4byte	.LASF106
 8341 2268 04       		.byte	0x4
 8342 2269 6201     		.2byte	0x162
 8343 226b 7D220000 		.4byte	0x227d
 8344 226f 0D       		.byte	0xd
 8345 2270 01       		.byte	0x1
 8346 2271 02       		.byte	0x2
 8347 2272 01       		.byte	0x1
 8348 2273 02       		.byte	0x2
 8349 2274 01       		.byte	0x1
 8350 2275 02       		.byte	0x2
 8351 2276 01       		.byte	0x1
 8352 2277 02       		.byte	0x2
 8353 2278 01       		.byte	0x1
 8354 2279 02       		.byte	0x2
 8355 227a 00       		.byte	0
 8356 227b 01       		.byte	0x1
 8357 227c 02       		.byte	0x2
 8358 227d 14       		.uleb128 0x14
 8359 227e 53220000 		.4byte	0x2253
 8360 2282 06       		.uleb128 0x6
 8361 2283 F4050000 		.4byte	0x5f4
 8362 2287 92220000 		.4byte	0x2292
 8363 228b 2A       		.uleb128 0x2a
 8364 228c 92220000 		.4byte	0x2292
 8365 2290 7F       		.sleb128 -1
ARM GAS  C:\Users\legoc\AppData\Local\Temp\cchaQR7h.s 			page 160


 8366 2291 00       		.byte	0
 8367 2292 02       		.uleb128 0x2
 8368 2293 04       		.byte	0x4
 8369 2294 05       		.byte	0x5
 8370 2295 34030000 		.4byte	.LASF107
 8371 2299 25       		.uleb128 0x25
 8372 229a 7D030000 		.4byte	.LASF108
 8373 229e 04       		.byte	0x4
 8374 229f 7501     		.2byte	0x175
 8375 22a1 A5220000 		.4byte	0x22a5
 8376 22a5 14       		.uleb128 0x14
 8377 22a6 82220000 		.4byte	0x2282
 8378 22aa 06       		.uleb128 0x6
 8379 22ab F4050000 		.4byte	0x5f4
 8380 22af BA220000 		.4byte	0x22ba
 8381 22b3 07       		.uleb128 0x7
 8382 22b4 DF000000 		.4byte	0xdf
 8383 22b8 1B       		.byte	0x1b
 8384 22b9 00       		.byte	0
 8385 22ba 29       		.uleb128 0x29
 8386 22bb E0020000 		.4byte	.LASF109
 8387 22bf 04       		.byte	0x4
 8388 22c0 7C01     		.2byte	0x17c
 8389 22c2 E3220000 		.4byte	0x22e3
 8390 22c6 1C       		.byte	0x1c
 8391 22c7 02       		.byte	0x2
 8392 22c8 00       		.byte	0
 8393 22c9 04       		.byte	0x4
 8394 22ca 02       		.byte	0x2
 8395 22cb 00       		.byte	0
 8396 22cc 04       		.byte	0x4
 8397 22cd 02       		.byte	0x2
 8398 22ce 00       		.byte	0
 8399 22cf 04       		.byte	0x4
 8400 22d0 02       		.byte	0x2
 8401 22d1 00       		.byte	0
 8402 22d2 04       		.byte	0x4
 8403 22d3 02       		.byte	0x2
 8404 22d4 00       		.byte	0
 8405 22d5 04       		.byte	0x4
 8406 22d6 05       		.byte	0x5
 8407 22d7 00       		.byte	0
 8408 22d8 01       		.byte	0x1
 8409 22d9 02       		.byte	0x2
 8410 22da 03       		.byte	0x3
 8411 22db 04       		.byte	0x4
 8412 22dc 02       		.byte	0x2
 8413 22dd 00       		.byte	0
 8414 22de 04       		.byte	0x4
 8415 22df 03       		.byte	0x3
 8416 22e0 01       		.byte	0x1
 8417 22e1 02       		.byte	0x2
 8418 22e2 03       		.byte	0x3
 8419 22e3 14       		.uleb128 0x14
 8420 22e4 AA220000 		.4byte	0x22aa
 8421 22e8 06       		.uleb128 0x6
 8422 22e9 F4050000 		.4byte	0x5f4
ARM GAS  C:\Users\legoc\AppData\Local\Temp\cchaQR7h.s 			page 161


 8423 22ed F8220000 		.4byte	0x22f8
 8424 22f1 07       		.uleb128 0x7
 8425 22f2 DF000000 		.4byte	0xdf
 8426 22f6 1A       		.byte	0x1a
 8427 22f7 00       		.byte	0
 8428 22f8 29       		.uleb128 0x29
 8429 22f9 E7020000 		.4byte	.LASF110
 8430 22fd 04       		.byte	0x4
 8431 22fe 9001     		.2byte	0x190
 8432 2300 20230000 		.4byte	0x2320
 8433 2304 1B       		.byte	0x1b
 8434 2305 04       		.byte	0x4
 8435 2306 00       		.byte	0
 8436 2307 01       		.byte	0x1
 8437 2308 02       		.byte	0x2
 8438 2309 03       		.byte	0x3
 8439 230a 02       		.byte	0x2
 8440 230b 00       		.byte	0
 8441 230c 04       		.byte	0x4
 8442 230d 02       		.byte	0x2
 8443 230e 00       		.byte	0
 8444 230f 04       		.byte	0x4
 8445 2310 02       		.byte	0x2
 8446 2311 00       		.byte	0
 8447 2312 04       		.byte	0x4
 8448 2313 04       		.byte	0x4
 8449 2314 00       		.byte	0
 8450 2315 01       		.byte	0x1
 8451 2316 02       		.byte	0x2
 8452 2317 03       		.byte	0x3
 8453 2318 02       		.byte	0x2
 8454 2319 00       		.byte	0
 8455 231a 04       		.byte	0x4
 8456 231b 04       		.byte	0x4
 8457 231c 00       		.byte	0
 8458 231d 01       		.byte	0x1
 8459 231e 02       		.byte	0x2
 8460 231f 03       		.byte	0x3
 8461 2320 14       		.uleb128 0x14
 8462 2321 E8220000 		.4byte	0x22e8
 8463 2325 06       		.uleb128 0x6
 8464 2326 F4050000 		.4byte	0x5f4
 8465 232a 35230000 		.4byte	0x2335
 8466 232e 07       		.uleb128 0x7
 8467 232f DF000000 		.4byte	0xdf
 8468 2333 13       		.byte	0x13
 8469 2334 00       		.byte	0
 8470 2335 29       		.uleb128 0x29
 8471 2336 EE020000 		.4byte	.LASF111
 8472 233a 04       		.byte	0x4
 8473 233b A201     		.2byte	0x1a2
 8474 233d 56230000 		.4byte	0x2356
 8475 2341 14       		.byte	0x14
 8476 2342 03       		.byte	0x3
 8477 2343 01       		.byte	0x1
 8478 2344 02       		.byte	0x2
 8479 2345 03       		.byte	0x3
ARM GAS  C:\Users\legoc\AppData\Local\Temp\cchaQR7h.s 			page 162


 8480 2346 02       		.byte	0x2
 8481 2347 00       		.byte	0
 8482 2348 04       		.byte	0x4
 8483 2349 01       		.byte	0x1
 8484 234a 00       		.byte	0
 8485 234b 01       		.byte	0x1
 8486 234c 00       		.byte	0
 8487 234d 01       		.byte	0x1
 8488 234e 00       		.byte	0
 8489 234f 02       		.byte	0x2
 8490 2350 00       		.byte	0
 8491 2351 04       		.byte	0x4
 8492 2352 03       		.byte	0x3
 8493 2353 01       		.byte	0x1
 8494 2354 02       		.byte	0x2
 8495 2355 03       		.byte	0x3
 8496 2356 14       		.uleb128 0x14
 8497 2357 25230000 		.4byte	0x2325
 8498 235b 06       		.uleb128 0x6
 8499 235c F4050000 		.4byte	0x5f4
 8500 2360 6B230000 		.4byte	0x236b
 8501 2364 07       		.uleb128 0x7
 8502 2365 DF000000 		.4byte	0xdf
 8503 2369 18       		.byte	0x18
 8504 236a 00       		.byte	0
 8505 236b 29       		.uleb128 0x29
 8506 236c F5020000 		.4byte	.LASF112
 8507 2370 04       		.byte	0x4
 8508 2371 B401     		.2byte	0x1b4
 8509 2373 91230000 		.4byte	0x2391
 8510 2377 19       		.byte	0x19
 8511 2378 04       		.byte	0x4
 8512 2379 00       		.byte	0
 8513 237a 01       		.byte	0x1
 8514 237b 02       		.byte	0x2
 8515 237c 03       		.byte	0x3
 8516 237d 02       		.byte	0x2
 8517 237e 00       		.byte	0
 8518 237f 04       		.byte	0x4
 8519 2380 02       		.byte	0x2
 8520 2381 00       		.byte	0
 8521 2382 04       		.byte	0x4
 8522 2383 02       		.byte	0x2
 8523 2384 00       		.byte	0
 8524 2385 04       		.byte	0x4
 8525 2386 02       		.byte	0x2
 8526 2387 00       		.byte	0
 8527 2388 04       		.byte	0x4
 8528 2389 02       		.byte	0x2
 8529 238a 00       		.byte	0
 8530 238b 04       		.byte	0x4
 8531 238c 04       		.byte	0x4
 8532 238d 00       		.byte	0
 8533 238e 01       		.byte	0x1
 8534 238f 02       		.byte	0x2
 8535 2390 03       		.byte	0x3
 8536 2391 14       		.uleb128 0x14
ARM GAS  C:\Users\legoc\AppData\Local\Temp\cchaQR7h.s 			page 163


 8537 2392 5B230000 		.4byte	0x235b
 8538 2396 29       		.uleb128 0x29
 8539 2397 FC020000 		.4byte	.LASF113
 8540 239b 04       		.byte	0x4
 8541 239c C701     		.2byte	0x1c7
 8542 239e BC230000 		.4byte	0x23bc
 8543 23a2 19       		.byte	0x19
 8544 23a3 05       		.byte	0x5
 8545 23a4 00       		.byte	0
 8546 23a5 01       		.byte	0x1
 8547 23a6 02       		.byte	0x2
 8548 23a7 03       		.byte	0x3
 8549 23a8 04       		.byte	0x4
 8550 23a9 01       		.byte	0x1
 8551 23aa 00       		.byte	0
 8552 23ab 01       		.byte	0x1
 8553 23ac 00       		.byte	0
 8554 23ad 04       		.byte	0x4
 8555 23ae 00       		.byte	0
 8556 23af 01       		.byte	0x1
 8557 23b0 02       		.byte	0x2
 8558 23b1 03       		.byte	0x3
 8559 23b2 01       		.byte	0x1
 8560 23b3 00       		.byte	0
 8561 23b4 01       		.byte	0x1
 8562 23b5 00       		.byte	0
 8563 23b6 05       		.byte	0x5
 8564 23b7 00       		.byte	0
 8565 23b8 01       		.byte	0x1
 8566 23b9 02       		.byte	0x2
 8567 23ba 03       		.byte	0x3
 8568 23bb 04       		.byte	0x4
 8569 23bc 14       		.uleb128 0x14
 8570 23bd 5B230000 		.4byte	0x235b
 8571 23c1 29       		.uleb128 0x29
 8572 23c2 03030000 		.4byte	.LASF114
 8573 23c6 04       		.byte	0x4
 8574 23c7 D901     		.2byte	0x1d9
 8575 23c9 E2230000 		.4byte	0x23e2
 8576 23cd 14       		.byte	0x14
 8577 23ce 01       		.byte	0x1
 8578 23cf 00       		.byte	0
 8579 23d0 01       		.byte	0x1
 8580 23d1 00       		.byte	0
 8581 23d2 01       		.byte	0x1
 8582 23d3 00       		.byte	0
 8583 23d4 01       		.byte	0x1
 8584 23d5 00       		.byte	0
 8585 23d6 03       		.byte	0x3
 8586 23d7 00       		.byte	0
 8587 23d8 01       		.byte	0x1
 8588 23d9 02       		.byte	0x2
 8589 23da 01       		.byte	0x1
 8590 23db 00       		.byte	0
 8591 23dc 05       		.byte	0x5
 8592 23dd 00       		.byte	0
 8593 23de 01       		.byte	0x1
ARM GAS  C:\Users\legoc\AppData\Local\Temp\cchaQR7h.s 			page 164


 8594 23df 02       		.byte	0x2
 8595 23e0 03       		.byte	0x3
 8596 23e1 04       		.byte	0x4
 8597 23e2 14       		.uleb128 0x14
 8598 23e3 25230000 		.4byte	0x2325
 8599 23e7 29       		.uleb128 0x29
 8600 23e8 0A030000 		.4byte	.LASF115
 8601 23ec 04       		.byte	0x4
 8602 23ed EB01     		.2byte	0x1eb
 8603 23ef 0C240000 		.4byte	0x240c
 8604 23f3 18       		.byte	0x18
 8605 23f4 03       		.byte	0x3
 8606 23f5 01       		.byte	0x1
 8607 23f6 02       		.byte	0x2
 8608 23f7 03       		.byte	0x3
 8609 23f8 02       		.byte	0x2
 8610 23f9 00       		.byte	0
 8611 23fa 04       		.byte	0x4
 8612 23fb 02       		.byte	0x2
 8613 23fc 00       		.byte	0
 8614 23fd 04       		.byte	0x4
 8615 23fe 02       		.byte	0x2
 8616 23ff 00       		.byte	0
 8617 2400 04       		.byte	0x4
 8618 2401 03       		.byte	0x3
 8619 2402 00       		.byte	0
 8620 2403 03       		.byte	0x3
 8621 2404 04       		.byte	0x4
 8622 2405 01       		.byte	0x1
 8623 2406 00       		.byte	0
 8624 2407 04       		.byte	0x4
 8625 2408 01       		.byte	0x1
 8626 2409 02       		.byte	0x2
 8627 240a 03       		.byte	0x3
 8628 240b 04       		.byte	0x4
 8629 240c 14       		.uleb128 0x14
 8630 240d 0F200000 		.4byte	0x200f
 8631 2411 06       		.uleb128 0x6
 8632 2412 F4050000 		.4byte	0x5f4
 8633 2416 21240000 		.4byte	0x2421
 8634 241a 07       		.uleb128 0x7
 8635 241b DF000000 		.4byte	0xdf
 8636 241f 6E       		.byte	0x6e
 8637 2420 00       		.byte	0
 8638 2421 15       		.uleb128 0x15
 8639 2422 E7030000 		.4byte	.LASF116
 8640 2426 01       		.byte	0x1
 8641 2427 10       		.byte	0x10
 8642 2428 32240000 		.4byte	0x2432
 8643 242c 05       		.uleb128 0x5
 8644 242d 03       		.byte	0x3
 8645 242e 00000000 		.4byte	initcmd
 8646 2432 14       		.uleb128 0x14
 8647 2433 11240000 		.4byte	0x2411
 8648 2437 2B       		.uleb128 0x2b
 8649 2438 6A060000 		.4byte	.LASF117
 8650 243c 05       		.byte	0x5
ARM GAS  C:\Users\legoc\AppData\Local\Temp\cchaQR7h.s 			page 165


 8651 243d 07       		.byte	0x7
 8652 243e 89000000 		.4byte	0x89
 8653 2442 2B       		.uleb128 0x2b
 8654 2443 49040000 		.4byte	.LASF118
 8655 2447 05       		.byte	0x5
 8656 2448 09       		.byte	0x9
 8657 2449 89000000 		.4byte	0x89
 8658 244d 2B       		.uleb128 0x2b
 8659 244e 49060000 		.4byte	.LASF119
 8660 2452 05       		.byte	0x5
 8661 2453 0A       		.byte	0xa
 8662 2454 89000000 		.4byte	0x89
 8663 2458 2B       		.uleb128 0x2b
 8664 2459 F2010000 		.4byte	.LASF120
 8665 245d 05       		.byte	0x5
 8666 245e 0B       		.byte	0xb
 8667 245f 89000000 		.4byte	0x89
 8668 2463 2C       		.uleb128 0x2c
 8669 2464 5F050000 		.4byte	.LASF121
 8670 2468 5F050000 		.4byte	.LASF121
 8671 246c 06       		.byte	0x6
 8672 246d 26       		.byte	0x26
 8673 246e 2C       		.uleb128 0x2c
 8674 246f 38060000 		.4byte	.LASF122
 8675 2473 38060000 		.4byte	.LASF122
 8676 2477 07       		.byte	0x7
 8677 2478 5E       		.byte	0x5e
 8678 2479 2C       		.uleb128 0x2c
 8679 247a 7E050000 		.4byte	.LASF123
 8680 247e 7E050000 		.4byte	.LASF123
 8681 2482 08       		.byte	0x8
 8682 2483 29       		.byte	0x29
 8683 2484 2C       		.uleb128 0x2c
 8684 2485 C1010000 		.4byte	.LASF124
 8685 2489 C1010000 		.4byte	.LASF124
 8686 248d 08       		.byte	0x8
 8687 248e 26       		.byte	0x26
 8688 248f 2C       		.uleb128 0x2c
 8689 2490 C8030000 		.4byte	.LASF125
 8690 2494 C8030000 		.4byte	.LASF125
 8691 2498 09       		.byte	0x9
 8692 2499 76       		.byte	0x76
 8693 249a 2D       		.uleb128 0x2d
 8694 249b 97030000 		.4byte	.LASF57
 8695 249f 97030000 		.4byte	.LASF57
 8696 24a3 01       		.byte	0x1
 8697 24a4 4F01     		.2byte	0x14f
 8698 24a6 2C       		.uleb128 0x2c
 8699 24a7 F1040000 		.4byte	.LASF126
 8700 24ab F1040000 		.4byte	.LASF126
 8701 24af 0A       		.byte	0xa
 8702 24b0 E7       		.byte	0xe7
 8703 24b1 2C       		.uleb128 0x2c
 8704 24b2 2A040000 		.4byte	.LASF127
 8705 24b6 2A040000 		.4byte	.LASF127
 8706 24ba 0B       		.byte	0xb
 8707 24bb CB       		.byte	0xcb
ARM GAS  C:\Users\legoc\AppData\Local\Temp\cchaQR7h.s 			page 166


 8708 24bc 00       		.byte	0
 8709              		.section	.debug_abbrev,"",%progbits
 8710              	.Ldebug_abbrev0:
 8711 0000 01       		.uleb128 0x1
 8712 0001 11       		.uleb128 0x11
 8713 0002 01       		.byte	0x1
 8714 0003 25       		.uleb128 0x25
 8715 0004 0E       		.uleb128 0xe
 8716 0005 13       		.uleb128 0x13
 8717 0006 0B       		.uleb128 0xb
 8718 0007 03       		.uleb128 0x3
 8719 0008 0E       		.uleb128 0xe
 8720 0009 1B       		.uleb128 0x1b
 8721 000a 0E       		.uleb128 0xe
 8722 000b 55       		.uleb128 0x55
 8723 000c 17       		.uleb128 0x17
 8724 000d 11       		.uleb128 0x11
 8725 000e 01       		.uleb128 0x1
 8726 000f 10       		.uleb128 0x10
 8727 0010 17       		.uleb128 0x17
 8728 0011 00       		.byte	0
 8729 0012 00       		.byte	0
 8730 0013 02       		.uleb128 0x2
 8731 0014 24       		.uleb128 0x24
 8732 0015 00       		.byte	0
 8733 0016 0B       		.uleb128 0xb
 8734 0017 0B       		.uleb128 0xb
 8735 0018 3E       		.uleb128 0x3e
 8736 0019 0B       		.uleb128 0xb
 8737 001a 03       		.uleb128 0x3
 8738 001b 0E       		.uleb128 0xe
 8739 001c 00       		.byte	0
 8740 001d 00       		.byte	0
 8741 001e 03       		.uleb128 0x3
 8742 001f 16       		.uleb128 0x16
 8743 0020 00       		.byte	0
 8744 0021 03       		.uleb128 0x3
 8745 0022 0E       		.uleb128 0xe
 8746 0023 3A       		.uleb128 0x3a
 8747 0024 0B       		.uleb128 0xb
 8748 0025 3B       		.uleb128 0x3b
 8749 0026 0B       		.uleb128 0xb
 8750 0027 49       		.uleb128 0x49
 8751 0028 13       		.uleb128 0x13
 8752 0029 00       		.byte	0
 8753 002a 00       		.byte	0
 8754 002b 04       		.uleb128 0x4
 8755 002c 24       		.uleb128 0x24
 8756 002d 00       		.byte	0
 8757 002e 0B       		.uleb128 0xb
 8758 002f 0B       		.uleb128 0xb
 8759 0030 3E       		.uleb128 0x3e
 8760 0031 0B       		.uleb128 0xb
 8761 0032 03       		.uleb128 0x3
 8762 0033 08       		.uleb128 0x8
 8763 0034 00       		.byte	0
 8764 0035 00       		.byte	0
ARM GAS  C:\Users\legoc\AppData\Local\Temp\cchaQR7h.s 			page 167


 8765 0036 05       		.uleb128 0x5
 8766 0037 0F       		.uleb128 0xf
 8767 0038 00       		.byte	0
 8768 0039 0B       		.uleb128 0xb
 8769 003a 0B       		.uleb128 0xb
 8770 003b 49       		.uleb128 0x49
 8771 003c 13       		.uleb128 0x13
 8772 003d 00       		.byte	0
 8773 003e 00       		.byte	0
 8774 003f 06       		.uleb128 0x6
 8775 0040 01       		.uleb128 0x1
 8776 0041 01       		.byte	0x1
 8777 0042 49       		.uleb128 0x49
 8778 0043 13       		.uleb128 0x13
 8779 0044 01       		.uleb128 0x1
 8780 0045 13       		.uleb128 0x13
 8781 0046 00       		.byte	0
 8782 0047 00       		.byte	0
 8783 0048 07       		.uleb128 0x7
 8784 0049 21       		.uleb128 0x21
 8785 004a 00       		.byte	0
 8786 004b 49       		.uleb128 0x49
 8787 004c 13       		.uleb128 0x13
 8788 004d 2F       		.uleb128 0x2f
 8789 004e 0B       		.uleb128 0xb
 8790 004f 00       		.byte	0
 8791 0050 00       		.byte	0
 8792 0051 08       		.uleb128 0x8
 8793 0052 2E       		.uleb128 0x2e
 8794 0053 01       		.byte	0x1
 8795 0054 3F       		.uleb128 0x3f
 8796 0055 19       		.uleb128 0x19
 8797 0056 03       		.uleb128 0x3
 8798 0057 0E       		.uleb128 0xe
 8799 0058 3A       		.uleb128 0x3a
 8800 0059 0B       		.uleb128 0xb
 8801 005a 3B       		.uleb128 0x3b
 8802 005b 0B       		.uleb128 0xb
 8803 005c 27       		.uleb128 0x27
 8804 005d 19       		.uleb128 0x19
 8805 005e 11       		.uleb128 0x11
 8806 005f 01       		.uleb128 0x1
 8807 0060 12       		.uleb128 0x12
 8808 0061 06       		.uleb128 0x6
 8809 0062 40       		.uleb128 0x40
 8810 0063 18       		.uleb128 0x18
 8811 0064 9742     		.uleb128 0x2117
 8812 0066 19       		.uleb128 0x19
 8813 0067 01       		.uleb128 0x1
 8814 0068 13       		.uleb128 0x13
 8815 0069 00       		.byte	0
 8816 006a 00       		.byte	0
 8817 006b 09       		.uleb128 0x9
 8818 006c 05       		.uleb128 0x5
 8819 006d 00       		.byte	0
 8820 006e 03       		.uleb128 0x3
 8821 006f 0E       		.uleb128 0xe
ARM GAS  C:\Users\legoc\AppData\Local\Temp\cchaQR7h.s 			page 168


 8822 0070 3A       		.uleb128 0x3a
 8823 0071 0B       		.uleb128 0xb
 8824 0072 3B       		.uleb128 0x3b
 8825 0073 0B       		.uleb128 0xb
 8826 0074 49       		.uleb128 0x49
 8827 0075 13       		.uleb128 0x13
 8828 0076 02       		.uleb128 0x2
 8829 0077 17       		.uleb128 0x17
 8830 0078 00       		.byte	0
 8831 0079 00       		.byte	0
 8832 007a 0A       		.uleb128 0xa
 8833 007b 898201   		.uleb128 0x4109
 8834 007e 01       		.byte	0x1
 8835 007f 11       		.uleb128 0x11
 8836 0080 01       		.uleb128 0x1
 8837 0081 31       		.uleb128 0x31
 8838 0082 13       		.uleb128 0x13
 8839 0083 01       		.uleb128 0x1
 8840 0084 13       		.uleb128 0x13
 8841 0085 00       		.byte	0
 8842 0086 00       		.byte	0
 8843 0087 0B       		.uleb128 0xb
 8844 0088 8A8201   		.uleb128 0x410a
 8845 008b 00       		.byte	0
 8846 008c 02       		.uleb128 0x2
 8847 008d 18       		.uleb128 0x18
 8848 008e 9142     		.uleb128 0x2111
 8849 0090 18       		.uleb128 0x18
 8850 0091 00       		.byte	0
 8851 0092 00       		.byte	0
 8852 0093 0C       		.uleb128 0xc
 8853 0094 898201   		.uleb128 0x4109
 8854 0097 00       		.byte	0
 8855 0098 11       		.uleb128 0x11
 8856 0099 01       		.uleb128 0x1
 8857 009a 31       		.uleb128 0x31
 8858 009b 13       		.uleb128 0x13
 8859 009c 00       		.byte	0
 8860 009d 00       		.byte	0
 8861 009e 0D       		.uleb128 0xd
 8862 009f 05       		.uleb128 0x5
 8863 00a0 00       		.byte	0
 8864 00a1 03       		.uleb128 0x3
 8865 00a2 08       		.uleb128 0x8
 8866 00a3 3A       		.uleb128 0x3a
 8867 00a4 0B       		.uleb128 0xb
 8868 00a5 3B       		.uleb128 0x3b
 8869 00a6 0B       		.uleb128 0xb
 8870 00a7 49       		.uleb128 0x49
 8871 00a8 13       		.uleb128 0x13
 8872 00a9 02       		.uleb128 0x2
 8873 00aa 17       		.uleb128 0x17
 8874 00ab 00       		.byte	0
 8875 00ac 00       		.byte	0
 8876 00ad 0E       		.uleb128 0xe
 8877 00ae 34       		.uleb128 0x34
 8878 00af 00       		.byte	0
ARM GAS  C:\Users\legoc\AppData\Local\Temp\cchaQR7h.s 			page 169


 8879 00b0 03       		.uleb128 0x3
 8880 00b1 08       		.uleb128 0x8
 8881 00b2 3A       		.uleb128 0x3a
 8882 00b3 0B       		.uleb128 0xb
 8883 00b4 3B       		.uleb128 0x3b
 8884 00b5 0B       		.uleb128 0xb
 8885 00b6 49       		.uleb128 0x49
 8886 00b7 13       		.uleb128 0x13
 8887 00b8 02       		.uleb128 0x2
 8888 00b9 18       		.uleb128 0x18
 8889 00ba 00       		.byte	0
 8890 00bb 00       		.byte	0
 8891 00bc 0F       		.uleb128 0xf
 8892 00bd 898201   		.uleb128 0x4109
 8893 00c0 01       		.byte	0x1
 8894 00c1 11       		.uleb128 0x11
 8895 00c2 01       		.uleb128 0x1
 8896 00c3 31       		.uleb128 0x31
 8897 00c4 13       		.uleb128 0x13
 8898 00c5 00       		.byte	0
 8899 00c6 00       		.byte	0
 8900 00c7 10       		.uleb128 0x10
 8901 00c8 05       		.uleb128 0x5
 8902 00c9 00       		.byte	0
 8903 00ca 03       		.uleb128 0x3
 8904 00cb 0E       		.uleb128 0xe
 8905 00cc 3A       		.uleb128 0x3a
 8906 00cd 0B       		.uleb128 0xb
 8907 00ce 3B       		.uleb128 0x3b
 8908 00cf 0B       		.uleb128 0xb
 8909 00d0 49       		.uleb128 0x49
 8910 00d1 13       		.uleb128 0x13
 8911 00d2 02       		.uleb128 0x2
 8912 00d3 18       		.uleb128 0x18
 8913 00d4 00       		.byte	0
 8914 00d5 00       		.byte	0
 8915 00d6 11       		.uleb128 0x11
 8916 00d7 34       		.uleb128 0x34
 8917 00d8 00       		.byte	0
 8918 00d9 03       		.uleb128 0x3
 8919 00da 08       		.uleb128 0x8
 8920 00db 3A       		.uleb128 0x3a
 8921 00dc 0B       		.uleb128 0xb
 8922 00dd 3B       		.uleb128 0x3b
 8923 00de 0B       		.uleb128 0xb
 8924 00df 49       		.uleb128 0x49
 8925 00e0 13       		.uleb128 0x13
 8926 00e1 02       		.uleb128 0x2
 8927 00e2 17       		.uleb128 0x17
 8928 00e3 00       		.byte	0
 8929 00e4 00       		.byte	0
 8930 00e5 12       		.uleb128 0x12
 8931 00e6 2E       		.uleb128 0x2e
 8932 00e7 01       		.byte	0x1
 8933 00e8 3F       		.uleb128 0x3f
 8934 00e9 19       		.uleb128 0x19
 8935 00ea 03       		.uleb128 0x3
ARM GAS  C:\Users\legoc\AppData\Local\Temp\cchaQR7h.s 			page 170


 8936 00eb 0E       		.uleb128 0xe
 8937 00ec 3A       		.uleb128 0x3a
 8938 00ed 0B       		.uleb128 0xb
 8939 00ee 3B       		.uleb128 0x3b
 8940 00ef 0B       		.uleb128 0xb
 8941 00f0 11       		.uleb128 0x11
 8942 00f1 01       		.uleb128 0x1
 8943 00f2 12       		.uleb128 0x12
 8944 00f3 06       		.uleb128 0x6
 8945 00f4 40       		.uleb128 0x40
 8946 00f5 18       		.uleb128 0x18
 8947 00f6 9742     		.uleb128 0x2117
 8948 00f8 19       		.uleb128 0x19
 8949 00f9 01       		.uleb128 0x1
 8950 00fa 13       		.uleb128 0x13
 8951 00fb 00       		.byte	0
 8952 00fc 00       		.byte	0
 8953 00fd 13       		.uleb128 0x13
 8954 00fe 34       		.uleb128 0x34
 8955 00ff 00       		.byte	0
 8956 0100 03       		.uleb128 0x3
 8957 0101 0E       		.uleb128 0xe
 8958 0102 3A       		.uleb128 0x3a
 8959 0103 0B       		.uleb128 0xb
 8960 0104 3B       		.uleb128 0x3b
 8961 0105 0B       		.uleb128 0xb
 8962 0106 49       		.uleb128 0x49
 8963 0107 13       		.uleb128 0x13
 8964 0108 02       		.uleb128 0x2
 8965 0109 17       		.uleb128 0x17
 8966 010a 00       		.byte	0
 8967 010b 00       		.byte	0
 8968 010c 14       		.uleb128 0x14
 8969 010d 26       		.uleb128 0x26
 8970 010e 00       		.byte	0
 8971 010f 49       		.uleb128 0x49
 8972 0110 13       		.uleb128 0x13
 8973 0111 00       		.byte	0
 8974 0112 00       		.byte	0
 8975 0113 15       		.uleb128 0x15
 8976 0114 34       		.uleb128 0x34
 8977 0115 00       		.byte	0
 8978 0116 03       		.uleb128 0x3
 8979 0117 0E       		.uleb128 0xe
 8980 0118 3A       		.uleb128 0x3a
 8981 0119 0B       		.uleb128 0xb
 8982 011a 3B       		.uleb128 0x3b
 8983 011b 0B       		.uleb128 0xb
 8984 011c 49       		.uleb128 0x49
 8985 011d 13       		.uleb128 0x13
 8986 011e 02       		.uleb128 0x2
 8987 011f 18       		.uleb128 0x18
 8988 0120 00       		.byte	0
 8989 0121 00       		.byte	0
 8990 0122 16       		.uleb128 0x16
 8991 0123 0B       		.uleb128 0xb
 8992 0124 01       		.byte	0x1
ARM GAS  C:\Users\legoc\AppData\Local\Temp\cchaQR7h.s 			page 171


 8993 0125 11       		.uleb128 0x11
 8994 0126 01       		.uleb128 0x1
 8995 0127 12       		.uleb128 0x12
 8996 0128 06       		.uleb128 0x6
 8997 0129 01       		.uleb128 0x1
 8998 012a 13       		.uleb128 0x13
 8999 012b 00       		.byte	0
 9000 012c 00       		.byte	0
 9001 012d 17       		.uleb128 0x17
 9002 012e 34       		.uleb128 0x34
 9003 012f 00       		.byte	0
 9004 0130 03       		.uleb128 0x3
 9005 0131 08       		.uleb128 0x8
 9006 0132 3A       		.uleb128 0x3a
 9007 0133 0B       		.uleb128 0xb
 9008 0134 3B       		.uleb128 0x3b
 9009 0135 0B       		.uleb128 0xb
 9010 0136 49       		.uleb128 0x49
 9011 0137 13       		.uleb128 0x13
 9012 0138 00       		.byte	0
 9013 0139 00       		.byte	0
 9014 013a 18       		.uleb128 0x18
 9015 013b 2E       		.uleb128 0x2e
 9016 013c 01       		.byte	0x1
 9017 013d 3F       		.uleb128 0x3f
 9018 013e 19       		.uleb128 0x19
 9019 013f 03       		.uleb128 0x3
 9020 0140 0E       		.uleb128 0xe
 9021 0141 3A       		.uleb128 0x3a
 9022 0142 0B       		.uleb128 0xb
 9023 0143 3B       		.uleb128 0x3b
 9024 0144 05       		.uleb128 0x5
 9025 0145 27       		.uleb128 0x27
 9026 0146 19       		.uleb128 0x19
 9027 0147 11       		.uleb128 0x11
 9028 0148 01       		.uleb128 0x1
 9029 0149 12       		.uleb128 0x12
 9030 014a 06       		.uleb128 0x6
 9031 014b 40       		.uleb128 0x40
 9032 014c 18       		.uleb128 0x18
 9033 014d 9742     		.uleb128 0x2117
 9034 014f 19       		.uleb128 0x19
 9035 0150 01       		.uleb128 0x1
 9036 0151 13       		.uleb128 0x13
 9037 0152 00       		.byte	0
 9038 0153 00       		.byte	0
 9039 0154 19       		.uleb128 0x19
 9040 0155 05       		.uleb128 0x5
 9041 0156 00       		.byte	0
 9042 0157 03       		.uleb128 0x3
 9043 0158 08       		.uleb128 0x8
 9044 0159 3A       		.uleb128 0x3a
 9045 015a 0B       		.uleb128 0xb
 9046 015b 3B       		.uleb128 0x3b
 9047 015c 05       		.uleb128 0x5
 9048 015d 49       		.uleb128 0x49
 9049 015e 13       		.uleb128 0x13
ARM GAS  C:\Users\legoc\AppData\Local\Temp\cchaQR7h.s 			page 172


 9050 015f 02       		.uleb128 0x2
 9051 0160 17       		.uleb128 0x17
 9052 0161 00       		.byte	0
 9053 0162 00       		.byte	0
 9054 0163 1A       		.uleb128 0x1a
 9055 0164 05       		.uleb128 0x5
 9056 0165 00       		.byte	0
 9057 0166 03       		.uleb128 0x3
 9058 0167 0E       		.uleb128 0xe
 9059 0168 3A       		.uleb128 0x3a
 9060 0169 0B       		.uleb128 0xb
 9061 016a 3B       		.uleb128 0x3b
 9062 016b 05       		.uleb128 0x5
 9063 016c 49       		.uleb128 0x49
 9064 016d 13       		.uleb128 0x13
 9065 016e 02       		.uleb128 0x2
 9066 016f 17       		.uleb128 0x17
 9067 0170 00       		.byte	0
 9068 0171 00       		.byte	0
 9069 0172 1B       		.uleb128 0x1b
 9070 0173 05       		.uleb128 0x5
 9071 0174 00       		.byte	0
 9072 0175 03       		.uleb128 0x3
 9073 0176 0E       		.uleb128 0xe
 9074 0177 3A       		.uleb128 0x3a
 9075 0178 0B       		.uleb128 0xb
 9076 0179 3B       		.uleb128 0x3b
 9077 017a 05       		.uleb128 0x5
 9078 017b 49       		.uleb128 0x49
 9079 017c 13       		.uleb128 0x13
 9080 017d 02       		.uleb128 0x2
 9081 017e 18       		.uleb128 0x18
 9082 017f 00       		.byte	0
 9083 0180 00       		.byte	0
 9084 0181 1C       		.uleb128 0x1c
 9085 0182 34       		.uleb128 0x34
 9086 0183 00       		.byte	0
 9087 0184 03       		.uleb128 0x3
 9088 0185 08       		.uleb128 0x8
 9089 0186 3A       		.uleb128 0x3a
 9090 0187 0B       		.uleb128 0xb
 9091 0188 3B       		.uleb128 0x3b
 9092 0189 05       		.uleb128 0x5
 9093 018a 49       		.uleb128 0x49
 9094 018b 13       		.uleb128 0x13
 9095 018c 00       		.byte	0
 9096 018d 00       		.byte	0
 9097 018e 1D       		.uleb128 0x1d
 9098 018f 34       		.uleb128 0x34
 9099 0190 00       		.byte	0
 9100 0191 03       		.uleb128 0x3
 9101 0192 0E       		.uleb128 0xe
 9102 0193 3A       		.uleb128 0x3a
 9103 0194 0B       		.uleb128 0xb
 9104 0195 3B       		.uleb128 0x3b
 9105 0196 05       		.uleb128 0x5
 9106 0197 49       		.uleb128 0x49
ARM GAS  C:\Users\legoc\AppData\Local\Temp\cchaQR7h.s 			page 173


 9107 0198 13       		.uleb128 0x13
 9108 0199 02       		.uleb128 0x2
 9109 019a 17       		.uleb128 0x17
 9110 019b 00       		.byte	0
 9111 019c 00       		.byte	0
 9112 019d 1E       		.uleb128 0x1e
 9113 019e 34       		.uleb128 0x34
 9114 019f 00       		.byte	0
 9115 01a0 34       		.uleb128 0x34
 9116 01a1 19       		.uleb128 0x19
 9117 01a2 49       		.uleb128 0x49
 9118 01a3 13       		.uleb128 0x13
 9119 01a4 02       		.uleb128 0x2
 9120 01a5 17       		.uleb128 0x17
 9121 01a6 00       		.byte	0
 9122 01a7 00       		.byte	0
 9123 01a8 1F       		.uleb128 0x1f
 9124 01a9 34       		.uleb128 0x34
 9125 01aa 00       		.byte	0
 9126 01ab 03       		.uleb128 0x3
 9127 01ac 08       		.uleb128 0x8
 9128 01ad 3A       		.uleb128 0x3a
 9129 01ae 0B       		.uleb128 0xb
 9130 01af 3B       		.uleb128 0x3b
 9131 01b0 05       		.uleb128 0x5
 9132 01b1 49       		.uleb128 0x49
 9133 01b2 13       		.uleb128 0x13
 9134 01b3 02       		.uleb128 0x2
 9135 01b4 17       		.uleb128 0x17
 9136 01b5 00       		.byte	0
 9137 01b6 00       		.byte	0
 9138 01b7 20       		.uleb128 0x20
 9139 01b8 2E       		.uleb128 0x2e
 9140 01b9 01       		.byte	0x1
 9141 01ba 3F       		.uleb128 0x3f
 9142 01bb 19       		.uleb128 0x19
 9143 01bc 03       		.uleb128 0x3
 9144 01bd 0E       		.uleb128 0xe
 9145 01be 3A       		.uleb128 0x3a
 9146 01bf 0B       		.uleb128 0xb
 9147 01c0 3B       		.uleb128 0x3b
 9148 01c1 05       		.uleb128 0x5
 9149 01c2 49       		.uleb128 0x49
 9150 01c3 13       		.uleb128 0x13
 9151 01c4 3C       		.uleb128 0x3c
 9152 01c5 19       		.uleb128 0x19
 9153 01c6 01       		.uleb128 0x1
 9154 01c7 13       		.uleb128 0x13
 9155 01c8 00       		.byte	0
 9156 01c9 00       		.byte	0
 9157 01ca 21       		.uleb128 0x21
 9158 01cb 18       		.uleb128 0x18
 9159 01cc 00       		.byte	0
 9160 01cd 00       		.byte	0
 9161 01ce 00       		.byte	0
 9162 01cf 22       		.uleb128 0x22
 9163 01d0 21       		.uleb128 0x21
ARM GAS  C:\Users\legoc\AppData\Local\Temp\cchaQR7h.s 			page 174


 9164 01d1 00       		.byte	0
 9165 01d2 49       		.uleb128 0x49
 9166 01d3 13       		.uleb128 0x13
 9167 01d4 2F       		.uleb128 0x2f
 9168 01d5 13       		.uleb128 0x13
 9169 01d6 00       		.byte	0
 9170 01d7 00       		.byte	0
 9171 01d8 23       		.uleb128 0x23
 9172 01d9 2E       		.uleb128 0x2e
 9173 01da 01       		.byte	0x1
 9174 01db 3F       		.uleb128 0x3f
 9175 01dc 19       		.uleb128 0x19
 9176 01dd 03       		.uleb128 0x3
 9177 01de 0E       		.uleb128 0xe
 9178 01df 3A       		.uleb128 0x3a
 9179 01e0 0B       		.uleb128 0xb
 9180 01e1 3B       		.uleb128 0x3b
 9181 01e2 05       		.uleb128 0x5
 9182 01e3 27       		.uleb128 0x27
 9183 01e4 19       		.uleb128 0x19
 9184 01e5 11       		.uleb128 0x11
 9185 01e6 01       		.uleb128 0x1
 9186 01e7 12       		.uleb128 0x12
 9187 01e8 06       		.uleb128 0x6
 9188 01e9 40       		.uleb128 0x40
 9189 01ea 18       		.uleb128 0x18
 9190 01eb 9642     		.uleb128 0x2116
 9191 01ed 19       		.uleb128 0x19
 9192 01ee 01       		.uleb128 0x1
 9193 01ef 13       		.uleb128 0x13
 9194 01f0 00       		.byte	0
 9195 01f1 00       		.byte	0
 9196 01f2 24       		.uleb128 0x24
 9197 01f3 34       		.uleb128 0x34
 9198 01f4 00       		.byte	0
 9199 01f5 03       		.uleb128 0x3
 9200 01f6 0E       		.uleb128 0xe
 9201 01f7 3A       		.uleb128 0x3a
 9202 01f8 0B       		.uleb128 0xb
 9203 01f9 3B       		.uleb128 0x3b
 9204 01fa 05       		.uleb128 0x5
 9205 01fb 49       		.uleb128 0x49
 9206 01fc 13       		.uleb128 0x13
 9207 01fd 1C       		.uleb128 0x1c
 9208 01fe 0B       		.uleb128 0xb
 9209 01ff 00       		.byte	0
 9210 0200 00       		.byte	0
 9211 0201 25       		.uleb128 0x25
 9212 0202 34       		.uleb128 0x34
 9213 0203 00       		.byte	0
 9214 0204 03       		.uleb128 0x3
 9215 0205 0E       		.uleb128 0xe
 9216 0206 3A       		.uleb128 0x3a
 9217 0207 0B       		.uleb128 0xb
 9218 0208 3B       		.uleb128 0x3b
 9219 0209 05       		.uleb128 0x5
 9220 020a 49       		.uleb128 0x49
ARM GAS  C:\Users\legoc\AppData\Local\Temp\cchaQR7h.s 			page 175


 9221 020b 13       		.uleb128 0x13
 9222 020c 00       		.byte	0
 9223 020d 00       		.byte	0
 9224 020e 26       		.uleb128 0x26
 9225 020f 34       		.uleb128 0x34
 9226 0210 00       		.byte	0
 9227 0211 03       		.uleb128 0x3
 9228 0212 0E       		.uleb128 0xe
 9229 0213 3A       		.uleb128 0x3a
 9230 0214 0B       		.uleb128 0xb
 9231 0215 3B       		.uleb128 0x3b
 9232 0216 05       		.uleb128 0x5
 9233 0217 49       		.uleb128 0x49
 9234 0218 13       		.uleb128 0x13
 9235 0219 02       		.uleb128 0x2
 9236 021a 18       		.uleb128 0x18
 9237 021b 00       		.byte	0
 9238 021c 00       		.byte	0
 9239 021d 27       		.uleb128 0x27
 9240 021e 2E       		.uleb128 0x2e
 9241 021f 01       		.byte	0x1
 9242 0220 3F       		.uleb128 0x3f
 9243 0221 19       		.uleb128 0x19
 9244 0222 03       		.uleb128 0x3
 9245 0223 0E       		.uleb128 0xe
 9246 0224 3A       		.uleb128 0x3a
 9247 0225 0B       		.uleb128 0xb
 9248 0226 3B       		.uleb128 0x3b
 9249 0227 05       		.uleb128 0x5
 9250 0228 11       		.uleb128 0x11
 9251 0229 01       		.uleb128 0x1
 9252 022a 12       		.uleb128 0x12
 9253 022b 06       		.uleb128 0x6
 9254 022c 40       		.uleb128 0x40
 9255 022d 18       		.uleb128 0x18
 9256 022e 9742     		.uleb128 0x2117
 9257 0230 19       		.uleb128 0x19
 9258 0231 01       		.uleb128 0x1
 9259 0232 13       		.uleb128 0x13
 9260 0233 00       		.byte	0
 9261 0234 00       		.byte	0
 9262 0235 28       		.uleb128 0x28
 9263 0236 34       		.uleb128 0x34
 9264 0237 00       		.byte	0
 9265 0238 03       		.uleb128 0x3
 9266 0239 0E       		.uleb128 0xe
 9267 023a 3A       		.uleb128 0x3a
 9268 023b 0B       		.uleb128 0xb
 9269 023c 3B       		.uleb128 0x3b
 9270 023d 0B       		.uleb128 0xb
 9271 023e 49       		.uleb128 0x49
 9272 023f 13       		.uleb128 0x13
 9273 0240 1C       		.uleb128 0x1c
 9274 0241 0A       		.uleb128 0xa
 9275 0242 00       		.byte	0
 9276 0243 00       		.byte	0
 9277 0244 29       		.uleb128 0x29
ARM GAS  C:\Users\legoc\AppData\Local\Temp\cchaQR7h.s 			page 176


 9278 0245 34       		.uleb128 0x34
 9279 0246 00       		.byte	0
 9280 0247 03       		.uleb128 0x3
 9281 0248 0E       		.uleb128 0xe
 9282 0249 3A       		.uleb128 0x3a
 9283 024a 0B       		.uleb128 0xb
 9284 024b 3B       		.uleb128 0x3b
 9285 024c 05       		.uleb128 0x5
 9286 024d 49       		.uleb128 0x49
 9287 024e 13       		.uleb128 0x13
 9288 024f 1C       		.uleb128 0x1c
 9289 0250 0A       		.uleb128 0xa
 9290 0251 00       		.byte	0
 9291 0252 00       		.byte	0
 9292 0253 2A       		.uleb128 0x2a
 9293 0254 21       		.uleb128 0x21
 9294 0255 00       		.byte	0
 9295 0256 49       		.uleb128 0x49
 9296 0257 13       		.uleb128 0x13
 9297 0258 2F       		.uleb128 0x2f
 9298 0259 0D       		.uleb128 0xd
 9299 025a 00       		.byte	0
 9300 025b 00       		.byte	0
 9301 025c 2B       		.uleb128 0x2b
 9302 025d 34       		.uleb128 0x34
 9303 025e 00       		.byte	0
 9304 025f 03       		.uleb128 0x3
 9305 0260 0E       		.uleb128 0xe
 9306 0261 3A       		.uleb128 0x3a
 9307 0262 0B       		.uleb128 0xb
 9308 0263 3B       		.uleb128 0x3b
 9309 0264 0B       		.uleb128 0xb
 9310 0265 49       		.uleb128 0x49
 9311 0266 13       		.uleb128 0x13
 9312 0267 3F       		.uleb128 0x3f
 9313 0268 19       		.uleb128 0x19
 9314 0269 3C       		.uleb128 0x3c
 9315 026a 19       		.uleb128 0x19
 9316 026b 00       		.byte	0
 9317 026c 00       		.byte	0
 9318 026d 2C       		.uleb128 0x2c
 9319 026e 2E       		.uleb128 0x2e
 9320 026f 00       		.byte	0
 9321 0270 3F       		.uleb128 0x3f
 9322 0271 19       		.uleb128 0x19
 9323 0272 3C       		.uleb128 0x3c
 9324 0273 19       		.uleb128 0x19
 9325 0274 6E       		.uleb128 0x6e
 9326 0275 0E       		.uleb128 0xe
 9327 0276 03       		.uleb128 0x3
 9328 0277 0E       		.uleb128 0xe
 9329 0278 3A       		.uleb128 0x3a
 9330 0279 0B       		.uleb128 0xb
 9331 027a 3B       		.uleb128 0x3b
 9332 027b 0B       		.uleb128 0xb
 9333 027c 00       		.byte	0
 9334 027d 00       		.byte	0
ARM GAS  C:\Users\legoc\AppData\Local\Temp\cchaQR7h.s 			page 177


 9335 027e 2D       		.uleb128 0x2d
 9336 027f 2E       		.uleb128 0x2e
 9337 0280 00       		.byte	0
 9338 0281 3F       		.uleb128 0x3f
 9339 0282 19       		.uleb128 0x19
 9340 0283 3C       		.uleb128 0x3c
 9341 0284 19       		.uleb128 0x19
 9342 0285 6E       		.uleb128 0x6e
 9343 0286 0E       		.uleb128 0xe
 9344 0287 03       		.uleb128 0x3
 9345 0288 0E       		.uleb128 0xe
 9346 0289 3A       		.uleb128 0x3a
 9347 028a 0B       		.uleb128 0xb
 9348 028b 3B       		.uleb128 0x3b
 9349 028c 05       		.uleb128 0x5
 9350 028d 00       		.byte	0
 9351 028e 00       		.byte	0
 9352 028f 00       		.byte	0
 9353              		.section	.debug_loc,"",%progbits
 9354              	.Ldebug_loc0:
 9355              	.LLST0:
 9356 0000 00000000 		.4byte	.LVL0
 9357 0004 06000000 		.4byte	.LVL1
 9358 0008 0100     		.2byte	0x1
 9359 000a 50       		.byte	0x50
 9360 000b 06000000 		.4byte	.LVL1
 9361 000f 22000000 		.4byte	.LFE1
 9362 0013 0400     		.2byte	0x4
 9363 0015 F3       		.byte	0xf3
 9364 0016 01       		.uleb128 0x1
 9365 0017 50       		.byte	0x50
 9366 0018 9F       		.byte	0x9f
 9367 0019 00000000 		.4byte	0
 9368 001d 00000000 		.4byte	0
 9369              	.LLST1:
 9370 0021 00000000 		.4byte	.LVL6
 9371 0025 06000000 		.4byte	.LVL7
 9372 0029 0100     		.2byte	0x1
 9373 002b 50       		.byte	0x50
 9374 002c 06000000 		.4byte	.LVL7
 9375 0030 22000000 		.4byte	.LFE2
 9376 0034 0400     		.2byte	0x4
 9377 0036 F3       		.byte	0xf3
 9378 0037 01       		.uleb128 0x1
 9379 0038 50       		.byte	0x50
 9380 0039 9F       		.byte	0x9f
 9381 003a 00000000 		.4byte	0
 9382 003e 00000000 		.4byte	0
 9383              	.LLST2:
 9384 0042 00000000 		.4byte	.LVL12
 9385 0046 14000000 		.4byte	.LVL17
 9386 004a 0100     		.2byte	0x1
 9387 004c 50       		.byte	0x50
 9388 004d 14000000 		.4byte	.LVL17
 9389 0051 BE000000 		.4byte	.LFE3
 9390 0055 0400     		.2byte	0x4
 9391 0057 F3       		.byte	0xf3
ARM GAS  C:\Users\legoc\AppData\Local\Temp\cchaQR7h.s 			page 178


 9392 0058 01       		.uleb128 0x1
 9393 0059 50       		.byte	0x50
 9394 005a 9F       		.byte	0x9f
 9395 005b 00000000 		.4byte	0
 9396 005f 00000000 		.4byte	0
 9397              	.LLST3:
 9398 0063 00000000 		.4byte	.LVL12
 9399 0067 17000000 		.4byte	.LVL18-1
 9400 006b 0100     		.2byte	0x1
 9401 006d 51       		.byte	0x51
 9402 006e 17000000 		.4byte	.LVL18-1
 9403 0072 BE000000 		.4byte	.LFE3
 9404 0076 0400     		.2byte	0x4
 9405 0078 F3       		.byte	0xf3
 9406 0079 01       		.uleb128 0x1
 9407 007a 51       		.byte	0x51
 9408 007b 9F       		.byte	0x9f
 9409 007c 00000000 		.4byte	0
 9410 0080 00000000 		.4byte	0
 9411              	.LLST4:
 9412 0084 00000000 		.4byte	.LVL12
 9413 0088 04000000 		.4byte	.LVL13
 9414 008c 0100     		.2byte	0x1
 9415 008e 52       		.byte	0x52
 9416 008f 04000000 		.4byte	.LVL13
 9417 0093 BE000000 		.4byte	.LFE3
 9418 0097 0400     		.2byte	0x4
 9419 0099 F3       		.byte	0xf3
 9420 009a 01       		.uleb128 0x1
 9421 009b 52       		.byte	0x52
 9422 009c 9F       		.byte	0x9f
 9423 009d 00000000 		.4byte	0
 9424 00a1 00000000 		.4byte	0
 9425              	.LLST5:
 9426 00a5 00000000 		.4byte	.LVL12
 9427 00a9 0C000000 		.4byte	.LVL15
 9428 00ad 0100     		.2byte	0x1
 9429 00af 53       		.byte	0x53
 9430 00b0 0C000000 		.4byte	.LVL15
 9431 00b4 BE000000 		.4byte	.LFE3
 9432 00b8 0400     		.2byte	0x4
 9433 00ba F3       		.byte	0xf3
 9434 00bb 01       		.uleb128 0x1
 9435 00bc 53       		.byte	0x53
 9436 00bd 9F       		.byte	0x9f
 9437 00be 00000000 		.4byte	0
 9438 00c2 00000000 		.4byte	0
 9439              	.LLST6:
 9440 00c6 00000000 		.4byte	.LVL43
 9441 00ca 43000000 		.4byte	.LVL47-1
 9442 00ce 0100     		.2byte	0x1
 9443 00d0 50       		.byte	0x50
 9444 00d1 43000000 		.4byte	.LVL47-1
 9445 00d5 56000000 		.4byte	.LVL52
 9446 00d9 0400     		.2byte	0x4
 9447 00db F3       		.byte	0xf3
 9448 00dc 01       		.uleb128 0x1
ARM GAS  C:\Users\legoc\AppData\Local\Temp\cchaQR7h.s 			page 179


 9449 00dd 50       		.byte	0x50
 9450 00de 9F       		.byte	0x9f
 9451 00df 56000000 		.4byte	.LVL52
 9452 00e3 74000000 		.4byte	.LVL57
 9453 00e7 0100     		.2byte	0x1
 9454 00e9 54       		.byte	0x54
 9455 00ea 76000000 		.4byte	.LVL58
 9456 00ee 78000000 		.4byte	.LVL59
 9457 00f2 0100     		.2byte	0x1
 9458 00f4 54       		.byte	0x54
 9459 00f5 7A000000 		.4byte	.LVL60
 9460 00f9 82000000 		.4byte	.LVL62
 9461 00fd 0100     		.2byte	0x1
 9462 00ff 54       		.byte	0x54
 9463 0100 00000000 		.4byte	0
 9464 0104 00000000 		.4byte	0
 9465              	.LLST7:
 9466 0108 00000000 		.4byte	.LVL43
 9467 010c 43000000 		.4byte	.LVL47-1
 9468 0110 0100     		.2byte	0x1
 9469 0112 51       		.byte	0x51
 9470 0113 43000000 		.4byte	.LVL47-1
 9471 0117 54000000 		.4byte	.LVL51
 9472 011b 0400     		.2byte	0x4
 9473 011d F3       		.byte	0xf3
 9474 011e 01       		.uleb128 0x1
 9475 011f 51       		.byte	0x51
 9476 0120 9F       		.byte	0x9f
 9477 0121 54000000 		.4byte	.LVL51
 9478 0125 80000000 		.4byte	.LVL61
 9479 0129 0100     		.2byte	0x1
 9480 012b 57       		.byte	0x57
 9481 012c 82000000 		.4byte	.LVL62
 9482 0130 8C000000 		.4byte	.LVL63
 9483 0134 0100     		.2byte	0x1
 9484 0136 57       		.byte	0x57
 9485 0137 00000000 		.4byte	0
 9486 013b 00000000 		.4byte	0
 9487              	.LLST8:
 9488 013f 00000000 		.4byte	.LVL43
 9489 0143 26000000 		.4byte	.LVL45
 9490 0147 0100     		.2byte	0x1
 9491 0149 52       		.byte	0x52
 9492 014a 26000000 		.4byte	.LVL45
 9493 014e 8C000000 		.4byte	.LVL63
 9494 0152 0100     		.2byte	0x1
 9495 0154 58       		.byte	0x58
 9496 0155 00000000 		.4byte	0
 9497 0159 00000000 		.4byte	0
 9498              	.LLST9:
 9499 015d 00000000 		.4byte	.LVL43
 9500 0161 18000000 		.4byte	.LVL44
 9501 0165 0100     		.2byte	0x1
 9502 0167 53       		.byte	0x53
 9503 0168 18000000 		.4byte	.LVL44
 9504 016c 36000000 		.4byte	.LVL46
 9505 0170 0400     		.2byte	0x4
ARM GAS  C:\Users\legoc\AppData\Local\Temp\cchaQR7h.s 			page 180


 9506 0172 F3       		.byte	0xf3
 9507 0173 01       		.uleb128 0x1
 9508 0174 53       		.byte	0x53
 9509 0175 9F       		.byte	0x9f
 9510 0176 36000000 		.4byte	.LVL46
 9511 017a 56000000 		.4byte	.LVL52
 9512 017e 0100     		.2byte	0x1
 9513 0180 57       		.byte	0x57
 9514 0181 00000000 		.4byte	0
 9515 0185 00000000 		.4byte	0
 9516              	.LLST10:
 9517 0189 46000000 		.4byte	.LVL48
 9518 018d 8C000000 		.4byte	.LVL63
 9519 0191 0100     		.2byte	0x1
 9520 0193 56       		.byte	0x56
 9521 0194 00000000 		.4byte	0
 9522 0198 00000000 		.4byte	0
 9523              	.LLST11:
 9524 019c 48000000 		.4byte	.LVL49
 9525 01a0 8C000000 		.4byte	.LVL63
 9526 01a4 0100     		.2byte	0x1
 9527 01a6 55       		.byte	0x55
 9528 01a7 00000000 		.4byte	0
 9529 01ab 00000000 		.4byte	0
 9530              	.LLST12:
 9531 01af 00000000 		.4byte	.LVL64
 9532 01b3 0A000000 		.4byte	.LVL66
 9533 01b7 0100     		.2byte	0x1
 9534 01b9 50       		.byte	0x50
 9535 01ba 0A000000 		.4byte	.LVL66
 9536 01be 2A000000 		.4byte	.LFE5
 9537 01c2 0400     		.2byte	0x4
 9538 01c4 F3       		.byte	0xf3
 9539 01c5 01       		.uleb128 0x1
 9540 01c6 50       		.byte	0x50
 9541 01c7 9F       		.byte	0x9f
 9542 01c8 00000000 		.4byte	0
 9543 01cc 00000000 		.4byte	0
 9544              	.LLST13:
 9545 01d0 00000000 		.4byte	.LVL64
 9546 01d4 12000000 		.4byte	.LVL67
 9547 01d8 0100     		.2byte	0x1
 9548 01da 51       		.byte	0x51
 9549 01db 12000000 		.4byte	.LVL67
 9550 01df 2A000000 		.4byte	.LFE5
 9551 01e3 0400     		.2byte	0x4
 9552 01e5 F3       		.byte	0xf3
 9553 01e6 01       		.uleb128 0x1
 9554 01e7 51       		.byte	0x51
 9555 01e8 9F       		.byte	0x9f
 9556 01e9 00000000 		.4byte	0
 9557 01ed 00000000 		.4byte	0
 9558              	.LLST14:
 9559 01f1 00000000 		.4byte	.LVL64
 9560 01f5 08000000 		.4byte	.LVL65
 9561 01f9 0100     		.2byte	0x1
 9562 01fb 52       		.byte	0x52
ARM GAS  C:\Users\legoc\AppData\Local\Temp\cchaQR7h.s 			page 181


 9563 01fc 08000000 		.4byte	.LVL65
 9564 0200 2A000000 		.4byte	.LFE5
 9565 0204 0400     		.2byte	0x4
 9566 0206 F3       		.byte	0xf3
 9567 0207 01       		.uleb128 0x1
 9568 0208 52       		.byte	0x52
 9569 0209 9F       		.byte	0x9f
 9570 020a 00000000 		.4byte	0
 9571 020e 00000000 		.4byte	0
 9572              	.LLST15:
 9573 0212 00000000 		.4byte	.LVL64
 9574 0216 1A000000 		.4byte	.LVL68
 9575 021a 0100     		.2byte	0x1
 9576 021c 53       		.byte	0x53
 9577 021d 1A000000 		.4byte	.LVL68
 9578 0221 2A000000 		.4byte	.LFE5
 9579 0225 0400     		.2byte	0x4
 9580 0227 F3       		.byte	0xf3
 9581 0228 01       		.uleb128 0x1
 9582 0229 53       		.byte	0x53
 9583 022a 9F       		.byte	0x9f
 9584 022b 00000000 		.4byte	0
 9585 022f 00000000 		.4byte	0
 9586              	.LLST16:
 9587 0233 00000000 		.4byte	.LVL70
 9588 0237 10000000 		.4byte	.LVL71
 9589 023b 0100     		.2byte	0x1
 9590 023d 50       		.byte	0x50
 9591 023e 10000000 		.4byte	.LVL71
 9592 0242 1A000000 		.4byte	.LFE6
 9593 0246 0400     		.2byte	0x4
 9594 0248 F3       		.byte	0xf3
 9595 0249 01       		.uleb128 0x1
 9596 024a 50       		.byte	0x50
 9597 024b 9F       		.byte	0x9f
 9598 024c 00000000 		.4byte	0
 9599 0250 00000000 		.4byte	0
 9600              	.LLST17:
 9601 0254 06000000 		.4byte	.LVL74
 9602 0258 09000000 		.4byte	.LVL75-1
 9603 025c 0100     		.2byte	0x1
 9604 025e 50       		.byte	0x50
 9605 025f 36000000 		.4byte	.LVL85
 9606 0263 40000000 		.4byte	.LFE7
 9607 0267 0100     		.2byte	0x1
 9608 0269 50       		.byte	0x50
 9609 026a 00000000 		.4byte	0
 9610 026e 00000000 		.4byte	0
 9611              	.LLST18:
 9612 0272 0C000000 		.4byte	.LVL76
 9613 0276 34000000 		.4byte	.LVL84
 9614 027a 0100     		.2byte	0x1
 9615 027c 57       		.byte	0x57
 9616 027d 00000000 		.4byte	0
 9617 0281 00000000 		.4byte	0
 9618              	.LLST19:
 9619 0285 10000000 		.4byte	.LVL77
ARM GAS  C:\Users\legoc\AppData\Local\Temp\cchaQR7h.s 			page 182


 9620 0289 14000000 		.4byte	.LVL79
 9621 028d 0100     		.2byte	0x1
 9622 028f 52       		.byte	0x52
 9623 0290 14000000 		.4byte	.LVL79
 9624 0294 20000000 		.4byte	.LVL82
 9625 0298 0100     		.2byte	0x1
 9626 029a 54       		.byte	0x54
 9627 029b 20000000 		.4byte	.LVL82
 9628 029f 24000000 		.4byte	.LVL83
 9629 02a3 0100     		.2byte	0x1
 9630 02a5 52       		.byte	0x52
 9631 02a6 24000000 		.4byte	.LVL83
 9632 02aa 34000000 		.4byte	.LVL84
 9633 02ae 0100     		.2byte	0x1
 9634 02b0 54       		.byte	0x54
 9635 02b1 00000000 		.4byte	0
 9636 02b5 00000000 		.4byte	0
 9637              	.LLST20:
 9638 02b9 02000000 		.4byte	.LVL73
 9639 02bd 06000000 		.4byte	.LVL74
 9640 02c1 0600     		.2byte	0x6
 9641 02c3 03       		.byte	0x3
 9642 02c4 00000000 		.4byte	initcmd
 9643 02c8 9F       		.byte	0x9f
 9644 02c9 06000000 		.4byte	.LVL74
 9645 02cd 0A000000 		.4byte	.LVL75
 9646 02d1 0300     		.2byte	0x3
 9647 02d3 75       		.byte	0x75
 9648 02d4 01       		.sleb128 1
 9649 02d5 9F       		.byte	0x9f
 9650 02d6 0A000000 		.4byte	.LVL75
 9651 02da 12000000 		.4byte	.LVL78
 9652 02de 0300     		.2byte	0x3
 9653 02e0 75       		.byte	0x75
 9654 02e1 02       		.sleb128 2
 9655 02e2 9F       		.byte	0x9f
 9656 02e3 12000000 		.4byte	.LVL78
 9657 02e7 16000000 		.4byte	.LVL80
 9658 02eb 0100     		.2byte	0x1
 9659 02ed 55       		.byte	0x55
 9660 02ee 16000000 		.4byte	.LVL80
 9661 02f2 20000000 		.4byte	.LVL82
 9662 02f6 0100     		.2byte	0x1
 9663 02f8 56       		.byte	0x56
 9664 02f9 20000000 		.4byte	.LVL82
 9665 02fd 34000000 		.4byte	.LVL84
 9666 0301 0100     		.2byte	0x1
 9667 0303 55       		.byte	0x55
 9668 0304 34000000 		.4byte	.LVL84
 9669 0308 3C000000 		.4byte	.LVL86
 9670 030c 0300     		.2byte	0x3
 9671 030e 75       		.byte	0x75
 9672 030f 01       		.sleb128 1
 9673 0310 9F       		.byte	0x9f
 9674 0311 00000000 		.4byte	0
 9675 0315 00000000 		.4byte	0
 9676              	.LLST21:
ARM GAS  C:\Users\legoc\AppData\Local\Temp\cchaQR7h.s 			page 183


 9677 0319 00000000 		.4byte	.LVL87
 9678 031d 1D000000 		.4byte	.LVL89-1
 9679 0321 0100     		.2byte	0x1
 9680 0323 50       		.byte	0x50
 9681 0324 1D000000 		.4byte	.LVL89-1
 9682 0328 4E000000 		.4byte	.LFE8
 9683 032c 0400     		.2byte	0x4
 9684 032e F3       		.byte	0xf3
 9685 032f 01       		.uleb128 0x1
 9686 0330 50       		.byte	0x50
 9687 0331 9F       		.byte	0x9f
 9688 0332 00000000 		.4byte	0
 9689 0336 00000000 		.4byte	0
 9690              	.LLST22:
 9691 033a 00000000 		.4byte	.LVL87
 9692 033e 1D000000 		.4byte	.LVL89-1
 9693 0342 0100     		.2byte	0x1
 9694 0344 51       		.byte	0x51
 9695 0345 1D000000 		.4byte	.LVL89-1
 9696 0349 4C000000 		.4byte	.LVL97
 9697 034d 0400     		.2byte	0x4
 9698 034f F3       		.byte	0xf3
 9699 0350 01       		.uleb128 0x1
 9700 0351 51       		.byte	0x51
 9701 0352 9F       		.byte	0x9f
 9702 0353 4C000000 		.4byte	.LVL97
 9703 0357 4E000000 		.4byte	.LFE8
 9704 035b 0100     		.2byte	0x1
 9705 035d 51       		.byte	0x51
 9706 035e 00000000 		.4byte	0
 9707 0362 00000000 		.4byte	0
 9708              	.LLST23:
 9709 0366 00000000 		.4byte	.LVL87
 9710 036a 18000000 		.4byte	.LVL88
 9711 036e 0100     		.2byte	0x1
 9712 0370 52       		.byte	0x52
 9713 0371 18000000 		.4byte	.LVL88
 9714 0375 4C000000 		.4byte	.LVL97
 9715 0379 0400     		.2byte	0x4
 9716 037b F3       		.byte	0xf3
 9717 037c 01       		.uleb128 0x1
 9718 037d 52       		.byte	0x52
 9719 037e 9F       		.byte	0x9f
 9720 037f 4C000000 		.4byte	.LVL97
 9721 0383 4E000000 		.4byte	.LFE8
 9722 0387 0100     		.2byte	0x1
 9723 0389 52       		.byte	0x52
 9724 038a 00000000 		.4byte	0
 9725 038e 00000000 		.4byte	0
 9726              	.LLST24:
 9727 0392 00000000 		.4byte	.LVL98
 9728 0396 0C000000 		.4byte	.LVL99
 9729 039a 0100     		.2byte	0x1
 9730 039c 50       		.byte	0x50
 9731 039d 0C000000 		.4byte	.LVL99
 9732 03a1 16000000 		.4byte	.LFE9
 9733 03a5 0400     		.2byte	0x4
ARM GAS  C:\Users\legoc\AppData\Local\Temp\cchaQR7h.s 			page 184


 9734 03a7 F3       		.byte	0xf3
 9735 03a8 01       		.uleb128 0x1
 9736 03a9 50       		.byte	0x50
 9737 03aa 9F       		.byte	0x9f
 9738 03ab 00000000 		.4byte	0
 9739 03af 00000000 		.4byte	0
 9740              	.LLST25:
 9741 03b3 00000000 		.4byte	.LVL98
 9742 03b7 0E000000 		.4byte	.LVL100
 9743 03bb 0100     		.2byte	0x1
 9744 03bd 51       		.byte	0x51
 9745 03be 0E000000 		.4byte	.LVL100
 9746 03c2 16000000 		.4byte	.LFE9
 9747 03c6 0400     		.2byte	0x4
 9748 03c8 F3       		.byte	0xf3
 9749 03c9 01       		.uleb128 0x1
 9750 03ca 51       		.byte	0x51
 9751 03cb 9F       		.byte	0x9f
 9752 03cc 00000000 		.4byte	0
 9753 03d0 00000000 		.4byte	0
 9754              	.LLST26:
 9755 03d4 00000000 		.4byte	.LVL98
 9756 03d8 13000000 		.4byte	.LVL101-1
 9757 03dc 0100     		.2byte	0x1
 9758 03de 52       		.byte	0x52
 9759 03df 13000000 		.4byte	.LVL101-1
 9760 03e3 16000000 		.4byte	.LFE9
 9761 03e7 0400     		.2byte	0x4
 9762 03e9 F3       		.byte	0xf3
 9763 03ea 01       		.uleb128 0x1
 9764 03eb 52       		.byte	0x52
 9765 03ec 9F       		.byte	0x9f
 9766 03ed 00000000 		.4byte	0
 9767 03f1 00000000 		.4byte	0
 9768              	.LLST27:
 9769 03f5 00000000 		.4byte	.LVL102
 9770 03f9 3C000000 		.4byte	.LVL106
 9771 03fd 0100     		.2byte	0x1
 9772 03ff 50       		.byte	0x50
 9773 0400 3C000000 		.4byte	.LVL106
 9774 0404 4A000000 		.4byte	.LVL109
 9775 0408 0100     		.2byte	0x1
 9776 040a 55       		.byte	0x55
 9777 040b 4C000000 		.4byte	.LVL110
 9778 040f B2000000 		.4byte	.LVL127
 9779 0413 0100     		.2byte	0x1
 9780 0415 55       		.byte	0x55
 9781 0416 B4000000 		.4byte	.LVL128
 9782 041a BE000000 		.4byte	.LFE10
 9783 041e 0100     		.2byte	0x1
 9784 0420 55       		.byte	0x55
 9785 0421 00000000 		.4byte	0
 9786 0425 00000000 		.4byte	0
 9787              	.LLST28:
 9788 0429 00000000 		.4byte	.LVL102
 9789 042d 3C000000 		.4byte	.LVL106
 9790 0431 0100     		.2byte	0x1
ARM GAS  C:\Users\legoc\AppData\Local\Temp\cchaQR7h.s 			page 185


 9791 0433 51       		.byte	0x51
 9792 0434 3C000000 		.4byte	.LVL106
 9793 0438 44000000 		.4byte	.LVL107
 9794 043c 0100     		.2byte	0x1
 9795 043e 56       		.byte	0x56
 9796 043f 4C000000 		.4byte	.LVL110
 9797 0443 A8000000 		.4byte	.LVL123
 9798 0447 0100     		.2byte	0x1
 9799 0449 56       		.byte	0x56
 9800 044a AA000000 		.4byte	.LVL124
 9801 044e BE000000 		.4byte	.LFE10
 9802 0452 0100     		.2byte	0x1
 9803 0454 56       		.byte	0x56
 9804 0455 00000000 		.4byte	0
 9805 0459 00000000 		.4byte	0
 9806              	.LLST29:
 9807 045d 00000000 		.4byte	.LVL102
 9808 0461 10000000 		.4byte	.LVL103
 9809 0465 0100     		.2byte	0x1
 9810 0467 52       		.byte	0x52
 9811 0468 10000000 		.4byte	.LVL103
 9812 046c 3C000000 		.4byte	.LVL106
 9813 0470 0400     		.2byte	0x4
 9814 0472 F3       		.byte	0xf3
 9815 0473 01       		.uleb128 0x1
 9816 0474 52       		.byte	0x52
 9817 0475 9F       		.byte	0x9f
 9818 0476 3C000000 		.4byte	.LVL106
 9819 047a BE000000 		.4byte	.LFE10
 9820 047e 0100     		.2byte	0x1
 9821 0480 57       		.byte	0x57
 9822 0481 00000000 		.4byte	0
 9823 0485 00000000 		.4byte	0
 9824              	.LLST30:
 9825 0489 00000000 		.4byte	.LVL102
 9826 048d 38000000 		.4byte	.LVL105
 9827 0491 0100     		.2byte	0x1
 9828 0493 53       		.byte	0x53
 9829 0494 38000000 		.4byte	.LVL105
 9830 0498 3C000000 		.4byte	.LVL106
 9831 049c 0400     		.2byte	0x4
 9832 049e F3       		.byte	0xf3
 9833 049f 01       		.uleb128 0x1
 9834 04a0 53       		.byte	0x53
 9835 04a1 9F       		.byte	0x9f
 9836 04a2 3C000000 		.4byte	.LVL106
 9837 04a6 46000000 		.4byte	.LVL108
 9838 04aa 0100     		.2byte	0x1
 9839 04ac 53       		.byte	0x53
 9840 04ad 4C000000 		.4byte	.LVL110
 9841 04b1 72000000 		.4byte	.LVL115
 9842 04b5 0100     		.2byte	0x1
 9843 04b7 53       		.byte	0x53
 9844 04b8 76000000 		.4byte	.LVL116
 9845 04bc 7A000000 		.4byte	.LVL117
 9846 04c0 0100     		.2byte	0x1
 9847 04c2 53       		.byte	0x53
ARM GAS  C:\Users\legoc\AppData\Local\Temp\cchaQR7h.s 			page 186


 9848 04c3 00000000 		.4byte	0
 9849 04c7 00000000 		.4byte	0
 9850              	.LLST31:
 9851 04cb 58000000 		.4byte	.LVL111
 9852 04cf 6A000000 		.4byte	.LVL113
 9853 04d3 0100     		.2byte	0x1
 9854 04d5 54       		.byte	0x54
 9855 04d6 6A000000 		.4byte	.LVL113
 9856 04da BE000000 		.4byte	.LFE10
 9857 04de 0100     		.2byte	0x1
 9858 04e0 5B       		.byte	0x5b
 9859 04e1 00000000 		.4byte	0
 9860 04e5 00000000 		.4byte	0
 9861              	.LLST32:
 9862 04e9 6C000000 		.4byte	.LVL114
 9863 04ed 9C000000 		.4byte	.LVL121
 9864 04f1 0100     		.2byte	0x1
 9865 04f3 54       		.byte	0x54
 9866 04f4 A0000000 		.4byte	.LVL122
 9867 04f8 AE000000 		.4byte	.LVL125
 9868 04fc 0100     		.2byte	0x1
 9869 04fe 54       		.byte	0x54
 9870 04ff AE000000 		.4byte	.LVL125
 9871 0503 B0000000 		.4byte	.LVL126
 9872 0507 0100     		.2byte	0x1
 9873 0509 53       		.byte	0x53
 9874 050a B0000000 		.4byte	.LVL126
 9875 050e BE000000 		.4byte	.LFE10
 9876 0512 0100     		.2byte	0x1
 9877 0514 54       		.byte	0x54
 9878 0515 00000000 		.4byte	0
 9879 0519 00000000 		.4byte	0
 9880              	.LLST33:
 9881 051d 00000000 		.4byte	.LVL129
 9882 0521 11000000 		.4byte	.LVL132-1
 9883 0525 0100     		.2byte	0x1
 9884 0527 50       		.byte	0x50
 9885 0528 11000000 		.4byte	.LVL132-1
 9886 052c 18000000 		.4byte	.LFE11
 9887 0530 0400     		.2byte	0x4
 9888 0532 F3       		.byte	0xf3
 9889 0533 01       		.uleb128 0x1
 9890 0534 50       		.byte	0x50
 9891 0535 9F       		.byte	0x9f
 9892 0536 00000000 		.4byte	0
 9893 053a 00000000 		.4byte	0
 9894              	.LLST34:
 9895 053e 00000000 		.4byte	.LVL129
 9896 0542 11000000 		.4byte	.LVL132-1
 9897 0546 0100     		.2byte	0x1
 9898 0548 51       		.byte	0x51
 9899 0549 11000000 		.4byte	.LVL132-1
 9900 054d 18000000 		.4byte	.LFE11
 9901 0551 0400     		.2byte	0x4
 9902 0553 F3       		.byte	0xf3
 9903 0554 01       		.uleb128 0x1
 9904 0555 51       		.byte	0x51
ARM GAS  C:\Users\legoc\AppData\Local\Temp\cchaQR7h.s 			page 187


 9905 0556 9F       		.byte	0x9f
 9906 0557 00000000 		.4byte	0
 9907 055b 00000000 		.4byte	0
 9908              	.LLST35:
 9909 055f 00000000 		.4byte	.LVL129
 9910 0563 06000000 		.4byte	.LVL130
 9911 0567 0100     		.2byte	0x1
 9912 0569 52       		.byte	0x52
 9913 056a 06000000 		.4byte	.LVL130
 9914 056e 18000000 		.4byte	.LFE11
 9915 0572 0400     		.2byte	0x4
 9916 0574 F3       		.byte	0xf3
 9917 0575 01       		.uleb128 0x1
 9918 0576 52       		.byte	0x52
 9919 0577 9F       		.byte	0x9f
 9920 0578 00000000 		.4byte	0
 9921 057c 00000000 		.4byte	0
 9922              	.LLST36:
 9923 0580 00000000 		.4byte	.LVL129
 9924 0584 0C000000 		.4byte	.LVL131
 9925 0588 0100     		.2byte	0x1
 9926 058a 53       		.byte	0x53
 9927 058b 0C000000 		.4byte	.LVL131
 9928 058f 18000000 		.4byte	.LFE11
 9929 0593 0400     		.2byte	0x4
 9930 0595 F3       		.byte	0xf3
 9931 0596 01       		.uleb128 0x1
 9932 0597 53       		.byte	0x53
 9933 0598 9F       		.byte	0x9f
 9934 0599 00000000 		.4byte	0
 9935 059d 00000000 		.4byte	0
 9936              	.LLST37:
 9937 05a1 00000000 		.4byte	.LVL133
 9938 05a5 11000000 		.4byte	.LVL136-1
 9939 05a9 0100     		.2byte	0x1
 9940 05ab 50       		.byte	0x50
 9941 05ac 11000000 		.4byte	.LVL136-1
 9942 05b0 18000000 		.4byte	.LFE12
 9943 05b4 0400     		.2byte	0x4
 9944 05b6 F3       		.byte	0xf3
 9945 05b7 01       		.uleb128 0x1
 9946 05b8 50       		.byte	0x50
 9947 05b9 9F       		.byte	0x9f
 9948 05ba 00000000 		.4byte	0
 9949 05be 00000000 		.4byte	0
 9950              	.LLST38:
 9951 05c2 00000000 		.4byte	.LVL133
 9952 05c6 11000000 		.4byte	.LVL136-1
 9953 05ca 0100     		.2byte	0x1
 9954 05cc 51       		.byte	0x51
 9955 05cd 11000000 		.4byte	.LVL136-1
 9956 05d1 18000000 		.4byte	.LFE12
 9957 05d5 0400     		.2byte	0x4
 9958 05d7 F3       		.byte	0xf3
 9959 05d8 01       		.uleb128 0x1
 9960 05d9 51       		.byte	0x51
 9961 05da 9F       		.byte	0x9f
ARM GAS  C:\Users\legoc\AppData\Local\Temp\cchaQR7h.s 			page 188


 9962 05db 00000000 		.4byte	0
 9963 05df 00000000 		.4byte	0
 9964              	.LLST39:
 9965 05e3 00000000 		.4byte	.LVL133
 9966 05e7 06000000 		.4byte	.LVL134
 9967 05eb 0100     		.2byte	0x1
 9968 05ed 52       		.byte	0x52
 9969 05ee 06000000 		.4byte	.LVL134
 9970 05f2 18000000 		.4byte	.LFE12
 9971 05f6 0400     		.2byte	0x4
 9972 05f8 F3       		.byte	0xf3
 9973 05f9 01       		.uleb128 0x1
 9974 05fa 52       		.byte	0x52
 9975 05fb 9F       		.byte	0x9f
 9976 05fc 00000000 		.4byte	0
 9977 0600 00000000 		.4byte	0
 9978              	.LLST40:
 9979 0604 00000000 		.4byte	.LVL133
 9980 0608 0C000000 		.4byte	.LVL135
 9981 060c 0100     		.2byte	0x1
 9982 060e 53       		.byte	0x53
 9983 060f 0C000000 		.4byte	.LVL135
 9984 0613 18000000 		.4byte	.LFE12
 9985 0617 0400     		.2byte	0x4
 9986 0619 F3       		.byte	0xf3
 9987 061a 01       		.uleb128 0x1
 9988 061b 53       		.byte	0x53
 9989 061c 9F       		.byte	0x9f
 9990 061d 00000000 		.4byte	0
 9991 0621 00000000 		.4byte	0
 9992              	.LLST41:
 9993 0625 00000000 		.4byte	.LVL137
 9994 0629 21000000 		.4byte	.LVL142-1
 9995 062d 0100     		.2byte	0x1
 9996 062f 50       		.byte	0x50
 9997 0630 21000000 		.4byte	.LVL142-1
 9998 0634 24000000 		.4byte	.LVL143
 9999 0638 0400     		.2byte	0x4
 10000 063a F3       		.byte	0xf3
 10001 063b 01       		.uleb128 0x1
 10002 063c 50       		.byte	0x50
 10003 063d 9F       		.byte	0x9f
 10004 063e 24000000 		.4byte	.LVL143
 10005 0642 30000000 		.4byte	.LVL145
 10006 0646 0100     		.2byte	0x1
 10007 0648 50       		.byte	0x50
 10008 0649 30000000 		.4byte	.LVL145
 10009 064d 32000000 		.4byte	.LVL146
 10010 0651 0400     		.2byte	0x4
 10011 0653 F3       		.byte	0xf3
 10012 0654 01       		.uleb128 0x1
 10013 0655 50       		.byte	0x50
 10014 0656 9F       		.byte	0x9f
 10015 0657 32000000 		.4byte	.LVL146
 10016 065b 3D000000 		.4byte	.LVL148-1
 10017 065f 0100     		.2byte	0x1
 10018 0661 50       		.byte	0x50
ARM GAS  C:\Users\legoc\AppData\Local\Temp\cchaQR7h.s 			page 189


 10019 0662 40000000 		.4byte	.LVL149
 10020 0666 45000000 		.4byte	.LVL150-1
 10021 066a 0100     		.2byte	0x1
 10022 066c 50       		.byte	0x50
 10023 066d 45000000 		.4byte	.LVL150-1
 10024 0671 46000000 		.4byte	.LVL150
 10025 0675 0400     		.2byte	0x4
 10026 0677 F3       		.byte	0xf3
 10027 0678 01       		.uleb128 0x1
 10028 0679 50       		.byte	0x50
 10029 067a 9F       		.byte	0x9f
 10030 067b 00000000 		.4byte	0
 10031 067f 00000000 		.4byte	0
 10032              	.LLST42:
 10033 0683 00000000 		.4byte	.LVL137
 10034 0687 14000000 		.4byte	.LVL139
 10035 068b 0100     		.2byte	0x1
 10036 068d 51       		.byte	0x51
 10037 068e 14000000 		.4byte	.LVL139
 10038 0692 16000000 		.4byte	.LVL140
 10039 0696 0400     		.2byte	0x4
 10040 0698 F3       		.byte	0xf3
 10041 0699 01       		.uleb128 0x1
 10042 069a 51       		.byte	0x51
 10043 069b 9F       		.byte	0x9f
 10044 069c 16000000 		.4byte	.LVL140
 10045 06a0 21000000 		.4byte	.LVL142-1
 10046 06a4 0100     		.2byte	0x1
 10047 06a6 51       		.byte	0x51
 10048 06a7 24000000 		.4byte	.LVL143
 10049 06ab 3D000000 		.4byte	.LVL148-1
 10050 06af 0100     		.2byte	0x1
 10051 06b1 51       		.byte	0x51
 10052 06b2 3D000000 		.4byte	.LVL148-1
 10053 06b6 40000000 		.4byte	.LVL149
 10054 06ba 0400     		.2byte	0x4
 10055 06bc F3       		.byte	0xf3
 10056 06bd 01       		.uleb128 0x1
 10057 06be 51       		.byte	0x51
 10058 06bf 9F       		.byte	0x9f
 10059 06c0 40000000 		.4byte	.LVL149
 10060 06c4 45000000 		.4byte	.LVL150-1
 10061 06c8 0100     		.2byte	0x1
 10062 06ca 51       		.byte	0x51
 10063 06cb 45000000 		.4byte	.LVL150-1
 10064 06cf 46000000 		.4byte	.LVL150
 10065 06d3 0400     		.2byte	0x4
 10066 06d5 F3       		.byte	0xf3
 10067 06d6 01       		.uleb128 0x1
 10068 06d7 51       		.byte	0x51
 10069 06d8 9F       		.byte	0x9f
 10070 06d9 00000000 		.4byte	0
 10071 06dd 00000000 		.4byte	0
 10072              	.LLST43:
 10073 06e1 00000000 		.4byte	.LVL137
 10074 06e5 12000000 		.4byte	.LVL138
 10075 06e9 0100     		.2byte	0x1
ARM GAS  C:\Users\legoc\AppData\Local\Temp\cchaQR7h.s 			page 190


 10076 06eb 52       		.byte	0x52
 10077 06ec 12000000 		.4byte	.LVL138
 10078 06f0 24000000 		.4byte	.LVL143
 10079 06f4 0400     		.2byte	0x4
 10080 06f6 F3       		.byte	0xf3
 10081 06f7 01       		.uleb128 0x1
 10082 06f8 52       		.byte	0x52
 10083 06f9 9F       		.byte	0x9f
 10084 06fa 24000000 		.4byte	.LVL143
 10085 06fe 34000000 		.4byte	.LVL147
 10086 0702 0100     		.2byte	0x1
 10087 0704 52       		.byte	0x52
 10088 0705 40000000 		.4byte	.LVL149
 10089 0709 45000000 		.4byte	.LVL150-1
 10090 070d 0100     		.2byte	0x1
 10091 070f 52       		.byte	0x52
 10092 0710 45000000 		.4byte	.LVL150-1
 10093 0714 46000000 		.4byte	.LVL150
 10094 0718 0400     		.2byte	0x4
 10095 071a F3       		.byte	0xf3
 10096 071b 01       		.uleb128 0x1
 10097 071c 52       		.byte	0x52
 10098 071d 9F       		.byte	0x9f
 10099 071e 00000000 		.4byte	0
 10100 0722 00000000 		.4byte	0
 10101              	.LLST44:
 10102 0726 00000000 		.4byte	.LVL137
 10103 072a 16000000 		.4byte	.LVL140
 10104 072e 0100     		.2byte	0x1
 10105 0730 53       		.byte	0x53
 10106 0731 16000000 		.4byte	.LVL140
 10107 0735 1C000000 		.4byte	.LVL141
 10108 0739 0100     		.2byte	0x1
 10109 073b 53       		.byte	0x53
 10110 073c 24000000 		.4byte	.LVL143
 10111 0740 2E000000 		.4byte	.LVL144
 10112 0744 0100     		.2byte	0x1
 10113 0746 53       		.byte	0x53
 10114 0747 2E000000 		.4byte	.LVL144
 10115 074b 40000000 		.4byte	.LVL149
 10116 074f 0400     		.2byte	0x4
 10117 0751 F3       		.byte	0xf3
 10118 0752 01       		.uleb128 0x1
 10119 0753 53       		.byte	0x53
 10120 0754 9F       		.byte	0x9f
 10121 0755 40000000 		.4byte	.LVL149
 10122 0759 45000000 		.4byte	.LVL150-1
 10123 075d 0100     		.2byte	0x1
 10124 075f 53       		.byte	0x53
 10125 0760 45000000 		.4byte	.LVL150-1
 10126 0764 46000000 		.4byte	.LVL150
 10127 0768 0400     		.2byte	0x4
 10128 076a F3       		.byte	0xf3
 10129 076b 01       		.uleb128 0x1
 10130 076c 53       		.byte	0x53
 10131 076d 9F       		.byte	0x9f
 10132 076e 00000000 		.4byte	0
ARM GAS  C:\Users\legoc\AppData\Local\Temp\cchaQR7h.s 			page 191


 10133 0772 00000000 		.4byte	0
 10134              	.LLST45:
 10135 0776 00000000 		.4byte	.LVL151
 10136 077a 21000000 		.4byte	.LVL152-1
 10137 077e 0100     		.2byte	0x1
 10138 0780 50       		.byte	0x50
 10139 0781 21000000 		.4byte	.LVL152-1
 10140 0785 50010000 		.4byte	.LFE14
 10141 0789 0400     		.2byte	0x4
 10142 078b F3       		.byte	0xf3
 10143 078c 01       		.uleb128 0x1
 10144 078d 50       		.byte	0x50
 10145 078e 9F       		.byte	0x9f
 10146 078f 00000000 		.4byte	0
 10147 0793 00000000 		.4byte	0
 10148              	.LLST46:
 10149 0797 00000000 		.4byte	.LVL151
 10150 079b 21000000 		.4byte	.LVL152-1
 10151 079f 0100     		.2byte	0x1
 10152 07a1 51       		.byte	0x51
 10153 07a2 21000000 		.4byte	.LVL152-1
 10154 07a6 50010000 		.4byte	.LFE14
 10155 07aa 0400     		.2byte	0x4
 10156 07ac F3       		.byte	0xf3
 10157 07ad 01       		.uleb128 0x1
 10158 07ae 51       		.byte	0x51
 10159 07af 9F       		.byte	0x9f
 10160 07b0 00000000 		.4byte	0
 10161 07b4 00000000 		.4byte	0
 10162              	.LLST47:
 10163 07b8 00000000 		.4byte	.LVL151
 10164 07bc 21000000 		.4byte	.LVL152-1
 10165 07c0 0100     		.2byte	0x1
 10166 07c2 52       		.byte	0x52
 10167 07c3 21000000 		.4byte	.LVL152-1
 10168 07c7 50010000 		.4byte	.LFE14
 10169 07cb 0400     		.2byte	0x4
 10170 07cd F3       		.byte	0xf3
 10171 07ce 01       		.uleb128 0x1
 10172 07cf 52       		.byte	0x52
 10173 07d0 9F       		.byte	0x9f
 10174 07d1 00000000 		.4byte	0
 10175 07d5 00000000 		.4byte	0
 10176              	.LLST48:
 10177 07d9 00000000 		.4byte	.LVL151
 10178 07dd 21000000 		.4byte	.LVL152-1
 10179 07e1 0100     		.2byte	0x1
 10180 07e3 53       		.byte	0x53
 10181 07e4 21000000 		.4byte	.LVL152-1
 10182 07e8 50010000 		.4byte	.LFE14
 10183 07ec 0400     		.2byte	0x4
 10184 07ee F3       		.byte	0xf3
 10185 07ef 01       		.uleb128 0x1
 10186 07f0 53       		.byte	0x53
 10187 07f1 9F       		.byte	0x9f
 10188 07f2 00000000 		.4byte	0
 10189 07f6 00000000 		.4byte	0
ARM GAS  C:\Users\legoc\AppData\Local\Temp\cchaQR7h.s 			page 192


 10190              	.LLST49:
 10191 07fa 00000000 		.4byte	.LVL151
 10192 07fe 46010000 		.4byte	.LVL198
 10193 0802 0200     		.2byte	0x2
 10194 0804 91       		.byte	0x91
 10195 0805 04       		.sleb128 4
 10196 0806 46010000 		.4byte	.LVL198
 10197 080a 4C010000 		.4byte	.LVL199
 10198 080e 0200     		.2byte	0x2
 10199 0810 77       		.byte	0x77
 10200 0811 00       		.sleb128 0
 10201 0812 4C010000 		.4byte	.LVL199
 10202 0816 50010000 		.4byte	.LFE14
 10203 081a 0200     		.2byte	0x2
 10204 081c 91       		.byte	0x91
 10205 081d 04       		.sleb128 4
 10206 081e 00000000 		.4byte	0
 10207 0822 00000000 		.4byte	0
 10208              	.LLST50:
 10209 0826 00000000 		.4byte	.LVL151
 10210 082a 36000000 		.4byte	.LVL155
 10211 082e 0200     		.2byte	0x2
 10212 0830 91       		.byte	0x91
 10213 0831 08       		.sleb128 8
 10214 0832 36000000 		.4byte	.LVL155
 10215 0836 5A000000 		.4byte	.LVL162
 10216 083a 0100     		.2byte	0x1
 10217 083c 54       		.byte	0x54
 10218 083d 5A000000 		.4byte	.LVL162
 10219 0841 5C000000 		.4byte	.LVL163
 10220 0845 0300     		.2byte	0x3
 10221 0847 74       		.byte	0x74
 10222 0848 7F       		.sleb128 -1
 10223 0849 9F       		.byte	0x9f
 10224 084a 5C000000 		.4byte	.LVL163
 10225 084e 8E000000 		.4byte	.LVL171
 10226 0852 0100     		.2byte	0x1
 10227 0854 54       		.byte	0x54
 10228 0855 00000000 		.4byte	0
 10229 0859 00000000 		.4byte	0
 10230              	.LLST51:
 10231 085d 2A000000 		.4byte	.LVL153
 10232 0861 85000000 		.4byte	.LVL169-1
 10233 0865 0100     		.2byte	0x1
 10234 0867 5E       		.byte	0x5e
 10235 0868 85000000 		.4byte	.LVL169-1
 10236 086c 88000000 		.4byte	.LVL170
 10237 0870 0D00     		.2byte	0xd
 10238 0872 76       		.byte	0x76
 10239 0873 00       		.sleb128 0
 10240 0874 4F       		.byte	0x4f
 10241 0875 25       		.byte	0x25
 10242 0876 76       		.byte	0x76
 10243 0877 00       		.sleb128 0
 10244 0878 22       		.byte	0x22
 10245 0879 31       		.byte	0x31
 10246 087a 26       		.byte	0x26
ARM GAS  C:\Users\legoc\AppData\Local\Temp\cchaQR7h.s 			page 193


 10247 087b 7A       		.byte	0x7a
 10248 087c 00       		.sleb128 0
 10249 087d 22       		.byte	0x22
 10250 087e 9F       		.byte	0x9f
 10251 087f 88000000 		.4byte	.LVL170
 10252 0883 2F010000 		.4byte	.LVL195-1
 10253 0887 0100     		.2byte	0x1
 10254 0889 5E       		.byte	0x5e
 10255 088a 00000000 		.4byte	0
 10256 088e 00000000 		.4byte	0
 10257              	.LLST52:
 10258 0892 32000000 		.4byte	.LVL154
 10259 0896 4C010000 		.4byte	.LVL199
 10260 089a 0100     		.2byte	0x1
 10261 089c 58       		.byte	0x58
 10262 089d 00000000 		.4byte	0
 10263 08a1 00000000 		.4byte	0
 10264              	.LLST53:
 10265 08a5 32000000 		.4byte	.LVL154
 10266 08a9 36000000 		.4byte	.LVL155
 10267 08ad 0200     		.2byte	0x2
 10268 08af 30       		.byte	0x30
 10269 08b0 9F       		.byte	0x9f
 10270 08b1 36000000 		.4byte	.LVL155
 10271 08b5 78000000 		.4byte	.LVL167
 10272 08b9 0100     		.2byte	0x1
 10273 08bb 52       		.byte	0x52
 10274 08bc 88000000 		.4byte	.LVL170
 10275 08c0 C2000000 		.4byte	.LVL177
 10276 08c4 0100     		.2byte	0x1
 10277 08c6 52       		.byte	0x52
 10278 08c7 00000000 		.4byte	0
 10279 08cb 00000000 		.4byte	0
 10280              	.LLST54:
 10281 08cf 40000000 		.4byte	.LVL158
 10282 08d3 78000000 		.4byte	.LVL167
 10283 08d7 0100     		.2byte	0x1
 10284 08d9 52       		.byte	0x52
 10285 08da 88000000 		.4byte	.LVL170
 10286 08de C2000000 		.4byte	.LVL177
 10287 08e2 0100     		.2byte	0x1
 10288 08e4 52       		.byte	0x52
 10289 08e5 00000000 		.4byte	0
 10290 08e9 00000000 		.4byte	0
 10291              	.LLST55:
 10292 08ed 50000000 		.4byte	.LVL159
 10293 08f1 85000000 		.4byte	.LVL169-1
 10294 08f5 0200     		.2byte	0x2
 10295 08f7 73       		.byte	0x73
 10296 08f8 00       		.sleb128 0
 10297 08f9 85000000 		.4byte	.LVL169-1
 10298 08fd 88000000 		.4byte	.LVL170
 10299 0901 0200     		.2byte	0x2
 10300 0903 75       		.byte	0x75
 10301 0904 00       		.sleb128 0
 10302 0905 88000000 		.4byte	.LVL170
 10303 0909 92000000 		.4byte	.LVL172
ARM GAS  C:\Users\legoc\AppData\Local\Temp\cchaQR7h.s 			page 194


 10304 090d 0200     		.2byte	0x2
 10305 090f 73       		.byte	0x73
 10306 0910 00       		.sleb128 0
 10307 0911 92000000 		.4byte	.LVL172
 10308 0915 22010000 		.4byte	.LVL192
 10309 0919 0200     		.2byte	0x2
 10310 091b 75       		.byte	0x75
 10311 091c 00       		.sleb128 0
 10312 091d 22010000 		.4byte	.LVL192
 10313 0921 44010000 		.4byte	.LVL197
 10314 0925 0500     		.2byte	0x5
 10315 0927 91       		.byte	0x91
 10316 0928 7C       		.sleb128 -4
 10317 0929 06       		.byte	0x6
 10318 092a 23       		.byte	0x23
 10319 092b 08       		.uleb128 0x8
 10320 092c 00000000 		.4byte	0
 10321 0930 00000000 		.4byte	0
 10322              	.LLST56:
 10323 0934 52000000 		.4byte	.LVL160
 10324 0938 56000000 		.4byte	.LVL161
 10325 093c 0200     		.2byte	0x2
 10326 093e 30       		.byte	0x30
 10327 093f 9F       		.byte	0x9f
 10328 0940 56000000 		.4byte	.LVL161
 10329 0944 64000000 		.4byte	.LVL165
 10330 0948 0100     		.2byte	0x1
 10331 094a 51       		.byte	0x51
 10332 094b 00000000 		.4byte	0
 10333 094f 00000000 		.4byte	0
 10334              	.LLST57:
 10335 0953 76000000 		.4byte	.LVL166
 10336 0957 82000000 		.4byte	.LVL168
 10337 095b 0300     		.2byte	0x3
 10338 095d 70       		.byte	0x70
 10339 095e 03       		.sleb128 3
 10340 095f 9F       		.byte	0x9f
 10341 0960 82000000 		.4byte	.LVL168
 10342 0964 85000000 		.4byte	.LVL169-1
 10343 0968 0100     		.2byte	0x1
 10344 096a 50       		.byte	0x50
 10345 096b 00000000 		.4byte	0
 10346 096f 00000000 		.4byte	0
 10347              	.LLST58:
 10348 0973 9E000000 		.4byte	.LVL173
 10349 0977 06010000 		.4byte	.LVL187
 10350 097b 0100     		.2byte	0x1
 10351 097d 54       		.byte	0x54
 10352 097e 06010000 		.4byte	.LVL187
 10353 0982 0A010000 		.4byte	.LVL188
 10354 0986 0300     		.2byte	0x3
 10355 0988 7B       		.byte	0x7b
 10356 0989 7F       		.sleb128 -1
 10357 098a 9F       		.byte	0x9f
 10358 098b 00000000 		.4byte	0
 10359 098f 00000000 		.4byte	0
 10360              	.LLST60:
ARM GAS  C:\Users\legoc\AppData\Local\Temp\cchaQR7h.s 			page 195


 10361 0993 C0000000 		.4byte	.LVL176
 10362 0997 2F010000 		.4byte	.LVL195-1
 10363 099b 0200     		.2byte	0x2
 10364 099d 73       		.byte	0x73
 10365 099e 00       		.sleb128 0
 10366 099f 00000000 		.4byte	0
 10367 09a3 00000000 		.4byte	0
 10368              	.LLST62:
 10369 09a7 D8000000 		.4byte	.LVL179
 10370 09ab 12010000 		.4byte	.LVL189
 10371 09af 0200     		.2byte	0x2
 10372 09b1 70       		.byte	0x70
 10373 09b2 00       		.sleb128 0
 10374 09b3 12010000 		.4byte	.LVL189
 10375 09b7 44010000 		.4byte	.LVL197
 10376 09bb 0200     		.2byte	0x2
 10377 09bd 7A       		.byte	0x7a
 10378 09be 00       		.sleb128 0
 10379 09bf 00000000 		.4byte	0
 10380 09c3 00000000 		.4byte	0
 10381              	.LLST63:
 10382 09c7 02010000 		.4byte	.LVL185
 10383 09cb 0A010000 		.4byte	.LVL188
 10384 09cf 0100     		.2byte	0x1
 10385 09d1 5B       		.byte	0x5b
 10386 09d2 00000000 		.4byte	0
 10387 09d6 00000000 		.4byte	0
 10388              	.LLST64:
 10389 09da 06010000 		.4byte	.LVL187
 10390 09de 16010000 		.4byte	.LVL190
 10391 09e2 0100     		.2byte	0x1
 10392 09e4 54       		.byte	0x54
 10393 09e5 16010000 		.4byte	.LVL190
 10394 09e9 26010000 		.4byte	.LVL193
 10395 09ed 0300     		.2byte	0x3
 10396 09ef 72       		.byte	0x72
 10397 09f0 7F       		.sleb128 -1
 10398 09f1 9F       		.byte	0x9f
 10399 09f2 26010000 		.4byte	.LVL193
 10400 09f6 44010000 		.4byte	.LVL197
 10401 09fa 0600     		.2byte	0x6
 10402 09fc 91       		.byte	0x91
 10403 09fd 78       		.sleb128 -8
 10404 09fe 06       		.byte	0x6
 10405 09ff 31       		.byte	0x31
 10406 0a00 1C       		.byte	0x1c
 10407 0a01 9F       		.byte	0x9f
 10408 0a02 00000000 		.4byte	0
 10409 0a06 00000000 		.4byte	0
 10410              	.LLST65:
 10411 0a0a 12010000 		.4byte	.LVL189
 10412 0a0e 2C010000 		.4byte	.LVL194
 10413 0a12 0300     		.2byte	0x3
 10414 0a14 70       		.byte	0x70
 10415 0a15 05       		.sleb128 5
 10416 0a16 9F       		.byte	0x9f
 10417 0a17 2C010000 		.4byte	.LVL194
ARM GAS  C:\Users\legoc\AppData\Local\Temp\cchaQR7h.s 			page 196


 10418 0a1b 2F010000 		.4byte	.LVL195-1
 10419 0a1f 0100     		.2byte	0x1
 10420 0a21 50       		.byte	0x50
 10421 0a22 00000000 		.4byte	0
 10422 0a26 00000000 		.4byte	0
 10423              	.LLST66:
 10424 0a2a 20010000 		.4byte	.LVL191
 10425 0a2e 44010000 		.4byte	.LVL197
 10426 0a32 0100     		.2byte	0x1
 10427 0a34 54       		.byte	0x54
 10428 0a35 00000000 		.4byte	0
 10429 0a39 00000000 		.4byte	0
 10430              	.LLST67:
 10431 0a3d D8000000 		.4byte	.LVL179
 10432 0a41 DC000000 		.4byte	.LVL180
 10433 0a45 0200     		.2byte	0x2
 10434 0a47 30       		.byte	0x30
 10435 0a48 9F       		.byte	0x9f
 10436 0a49 DC000000 		.4byte	.LVL180
 10437 0a4d EC000000 		.4byte	.LVL182
 10438 0a51 0100     		.2byte	0x1
 10439 0a53 56       		.byte	0x56
 10440 0a54 00000000 		.4byte	0
 10441 0a58 00000000 		.4byte	0
 10442              	.LLST68:
 10443 0a5c EC000000 		.4byte	.LVL182
 10444 0a60 FC000000 		.4byte	.LVL184
 10445 0a64 0100     		.2byte	0x1
 10446 0a66 51       		.byte	0x51
 10447 0a67 00000000 		.4byte	0
 10448 0a6b 00000000 		.4byte	0
 10449              	.LLST59:
 10450 0a6f B0000000 		.4byte	.LVL175
 10451 0a73 06010000 		.4byte	.LVL187
 10452 0a77 0100     		.2byte	0x1
 10453 0a79 54       		.byte	0x54
 10454 0a7a 06010000 		.4byte	.LVL187
 10455 0a7e 0A010000 		.4byte	.LVL188
 10456 0a82 0300     		.2byte	0x3
 10457 0a84 7B       		.byte	0x7b
 10458 0a85 7F       		.sleb128 -1
 10459 0a86 9F       		.byte	0x9f
 10460 0a87 00000000 		.4byte	0
 10461 0a8b 00000000 		.4byte	0
 10462              	.LLST61:
 10463 0a8f C6000000 		.4byte	.LVL178
 10464 0a93 04010000 		.4byte	.LVL186
 10465 0a97 0100     		.2byte	0x1
 10466 0a99 52       		.byte	0x52
 10467 0a9a 04010000 		.4byte	.LVL186
 10468 0a9e 44010000 		.4byte	.LVL197
 10469 0aa2 0600     		.2byte	0x6
 10470 0aa4 91       		.byte	0x91
 10471 0aa5 78       		.sleb128 -8
 10472 0aa6 06       		.byte	0x6
 10473 0aa7 31       		.byte	0x31
 10474 0aa8 1C       		.byte	0x1c
ARM GAS  C:\Users\legoc\AppData\Local\Temp\cchaQR7h.s 			page 197


 10475 0aa9 9F       		.byte	0x9f
 10476 0aaa 00000000 		.4byte	0
 10477 0aae 00000000 		.4byte	0
 10478              	.LLST69:
 10479 0ab2 00000000 		.4byte	.LVL200
 10480 0ab6 0C000000 		.4byte	.LVL201
 10481 0aba 0100     		.2byte	0x1
 10482 0abc 50       		.byte	0x50
 10483 0abd 0C000000 		.4byte	.LVL201
 10484 0ac1 5A010000 		.4byte	.LVL230
 10485 0ac5 0100     		.2byte	0x1
 10486 0ac7 57       		.byte	0x57
 10487 0ac8 5A010000 		.4byte	.LVL230
 10488 0acc 80010000 		.4byte	.LFE15
 10489 0ad0 0400     		.2byte	0x4
 10490 0ad2 F3       		.byte	0xf3
 10491 0ad3 01       		.uleb128 0x1
 10492 0ad4 50       		.byte	0x50
 10493 0ad5 9F       		.byte	0x9f
 10494 0ad6 00000000 		.4byte	0
 10495 0ada 00000000 		.4byte	0
 10496              	.LLST70:
 10497 0ade 00000000 		.4byte	.LVL200
 10498 0ae2 0F000000 		.4byte	.LVL202-1
 10499 0ae6 0100     		.2byte	0x1
 10500 0ae8 51       		.byte	0x51
 10501 0ae9 0F000000 		.4byte	.LVL202-1
 10502 0aed 5A000000 		.4byte	.LVL211
 10503 0af1 0100     		.2byte	0x1
 10504 0af3 54       		.byte	0x54
 10505 0af4 5A000000 		.4byte	.LVL211
 10506 0af8 7E000000 		.4byte	.LVL214
 10507 0afc 0400     		.2byte	0x4
 10508 0afe F3       		.byte	0xf3
 10509 0aff 01       		.uleb128 0x1
 10510 0b00 51       		.byte	0x51
 10511 0b01 9F       		.byte	0x9f
 10512 0b02 7E000000 		.4byte	.LVL214
 10513 0b06 80000000 		.4byte	.LVL215
 10514 0b0a 0100     		.2byte	0x1
 10515 0b0c 54       		.byte	0x54
 10516 0b0d 80000000 		.4byte	.LVL215
 10517 0b11 80010000 		.4byte	.LFE15
 10518 0b15 0400     		.2byte	0x4
 10519 0b17 F3       		.byte	0xf3
 10520 0b18 01       		.uleb128 0x1
 10521 0b19 51       		.byte	0x51
 10522 0b1a 9F       		.byte	0x9f
 10523 0b1b 00000000 		.4byte	0
 10524 0b1f 00000000 		.4byte	0
 10525              	.LLST71:
 10526 0b23 28000000 		.4byte	.LVL206
 10527 0b27 36000000 		.4byte	.LVL207
 10528 0b2b 0100     		.2byte	0x1
 10529 0b2d 50       		.byte	0x50
 10530 0b2e 36000000 		.4byte	.LVL207
 10531 0b32 E6000000 		.4byte	.LVL224
ARM GAS  C:\Users\legoc\AppData\Local\Temp\cchaQR7h.s 			page 198


 10532 0b36 0100     		.2byte	0x1
 10533 0b38 56       		.byte	0x56
 10534 0b39 00000000 		.4byte	0
 10535 0b3d 00000000 		.4byte	0
 10536              	.LLST72:
 10537 0b41 A2000000 		.4byte	.LVL218
 10538 0b45 A9000000 		.4byte	.LVL219-1
 10539 0b49 0100     		.2byte	0x1
 10540 0b4b 52       		.byte	0x52
 10541 0b4c A9000000 		.4byte	.LVL219-1
 10542 0b50 DA000000 		.4byte	.LVL222
 10543 0b54 0800     		.2byte	0x8
 10544 0b56 74       		.byte	0x74
 10545 0b57 00       		.sleb128 0
 10546 0b58 32       		.byte	0x32
 10547 0b59 24       		.byte	0x24
 10548 0b5a 74       		.byte	0x74
 10549 0b5b 00       		.sleb128 0
 10550 0b5c 22       		.byte	0x22
 10551 0b5d 9F       		.byte	0x9f
 10552 0b5e 00000000 		.4byte	0
 10553 0b62 00000000 		.4byte	0
 10554              	.LLST73:
 10555 0b66 52000000 		.4byte	.LVL210
 10556 0b6a 5A010000 		.4byte	.LVL230
 10557 0b6e 0100     		.2byte	0x1
 10558 0b70 55       		.byte	0x55
 10559 0b71 00000000 		.4byte	0
 10560 0b75 00000000 		.4byte	0
 10561              	.LLST74:
 10562 0b79 A2000000 		.4byte	.LVL218
 10563 0b7d E4000000 		.4byte	.LVL223
 10564 0b81 0100     		.2byte	0x1
 10565 0b83 54       		.byte	0x54
 10566 0b84 E6000000 		.4byte	.LVL224
 10567 0b88 5A010000 		.4byte	.LVL230
 10568 0b8c 0100     		.2byte	0x1
 10569 0b8e 54       		.byte	0x54
 10570 0b8f 00000000 		.4byte	0
 10571 0b93 00000000 		.4byte	0
 10572              	.LLST75:
 10573 0b97 00000000 		.4byte	.LVL285
 10574 0b9b 0A000000 		.4byte	.LVL286
 10575 0b9f 0100     		.2byte	0x1
 10576 0ba1 50       		.byte	0x50
 10577 0ba2 0A000000 		.4byte	.LVL286
 10578 0ba6 B4000000 		.4byte	.LFE22
 10579 0baa 0400     		.2byte	0x4
 10580 0bac F3       		.byte	0xf3
 10581 0bad 01       		.uleb128 0x1
 10582 0bae 50       		.byte	0x50
 10583 0baf 9F       		.byte	0x9f
 10584 0bb0 00000000 		.4byte	0
 10585 0bb4 00000000 		.4byte	0
 10586              	.LLST76:
 10587 0bb8 00000000 		.4byte	.LVL285
 10588 0bbc 0D000000 		.4byte	.LVL287-1
ARM GAS  C:\Users\legoc\AppData\Local\Temp\cchaQR7h.s 			page 199


 10589 0bc0 0100     		.2byte	0x1
 10590 0bc2 51       		.byte	0x51
 10591 0bc3 0D000000 		.4byte	.LVL287-1
 10592 0bc7 B4000000 		.4byte	.LFE22
 10593 0bcb 0400     		.2byte	0x4
 10594 0bcd F3       		.byte	0xf3
 10595 0bce 01       		.uleb128 0x1
 10596 0bcf 51       		.byte	0x51
 10597 0bd0 9F       		.byte	0x9f
 10598 0bd1 00000000 		.4byte	0
 10599 0bd5 00000000 		.4byte	0
 10600              		.section	.debug_aranges,"",%progbits
 10601 0000 C4000000 		.4byte	0xc4
 10602 0004 0200     		.2byte	0x2
 10603 0006 00000000 		.4byte	.Ldebug_info0
 10604 000a 04       		.byte	0x4
 10605 000b 00       		.byte	0
 10606 000c 0000     		.2byte	0
 10607 000e 0000     		.2byte	0
 10608 0010 00000000 		.4byte	.LFB1
 10609 0014 22000000 		.4byte	.LFE1-.LFB1
 10610 0018 00000000 		.4byte	.LFB2
 10611 001c 22000000 		.4byte	.LFE2-.LFB2
 10612 0020 00000000 		.4byte	.LFB3
 10613 0024 BE000000 		.4byte	.LFE3-.LFB3
 10614 0028 00000000 		.4byte	.LFB4
 10615 002c 90000000 		.4byte	.LFE4-.LFB4
 10616 0030 00000000 		.4byte	.LFB5
 10617 0034 2A000000 		.4byte	.LFE5-.LFB5
 10618 0038 00000000 		.4byte	.LFB6
 10619 003c 1A000000 		.4byte	.LFE6-.LFB6
 10620 0040 00000000 		.4byte	.LFB7
 10621 0044 40000000 		.4byte	.LFE7-.LFB7
 10622 0048 00000000 		.4byte	.LFB8
 10623 004c 4E000000 		.4byte	.LFE8-.LFB8
 10624 0050 00000000 		.4byte	.LFB9
 10625 0054 16000000 		.4byte	.LFE9-.LFB9
 10626 0058 00000000 		.4byte	.LFB10
 10627 005c BE000000 		.4byte	.LFE10-.LFB10
 10628 0060 00000000 		.4byte	.LFB11
 10629 0064 18000000 		.4byte	.LFE11-.LFB11
 10630 0068 00000000 		.4byte	.LFB12
 10631 006c 18000000 		.4byte	.LFE12-.LFB12
 10632 0070 00000000 		.4byte	.LFB13
 10633 0074 4A000000 		.4byte	.LFE13-.LFB13
 10634 0078 00000000 		.4byte	.LFB14
 10635 007c 50010000 		.4byte	.LFE14-.LFB14
 10636 0080 00000000 		.4byte	.LFB15
 10637 0084 80010000 		.4byte	.LFE15-.LFB15
 10638 0088 00000000 		.4byte	.LFB16
 10639 008c E4000000 		.4byte	.LFE16-.LFB16
 10640 0090 00000000 		.4byte	.LFB17
 10641 0094 30010000 		.4byte	.LFE17-.LFB17
 10642 0098 00000000 		.4byte	.LFB18
 10643 009c 0C010000 		.4byte	.LFE18-.LFB18
 10644 00a0 00000000 		.4byte	.LFB19
 10645 00a4 30010000 		.4byte	.LFE19-.LFB19
ARM GAS  C:\Users\legoc\AppData\Local\Temp\cchaQR7h.s 			page 200


 10646 00a8 00000000 		.4byte	.LFB20
 10647 00ac AC000000 		.4byte	.LFE20-.LFB20
 10648 00b0 00000000 		.4byte	.LFB21
 10649 00b4 5C000000 		.4byte	.LFE21-.LFB21
 10650 00b8 00000000 		.4byte	.LFB22
 10651 00bc B4000000 		.4byte	.LFE22-.LFB22
 10652 00c0 00000000 		.4byte	0
 10653 00c4 00000000 		.4byte	0
 10654              		.section	.debug_ranges,"",%progbits
 10655              	.Ldebug_ranges0:
 10656 0000 00000000 		.4byte	.LFB1
 10657 0004 22000000 		.4byte	.LFE1
 10658 0008 00000000 		.4byte	.LFB2
 10659 000c 22000000 		.4byte	.LFE2
 10660 0010 00000000 		.4byte	.LFB3
 10661 0014 BE000000 		.4byte	.LFE3
 10662 0018 00000000 		.4byte	.LFB4
 10663 001c 90000000 		.4byte	.LFE4
 10664 0020 00000000 		.4byte	.LFB5
 10665 0024 2A000000 		.4byte	.LFE5
 10666 0028 00000000 		.4byte	.LFB6
 10667 002c 1A000000 		.4byte	.LFE6
 10668 0030 00000000 		.4byte	.LFB7
 10669 0034 40000000 		.4byte	.LFE7
 10670 0038 00000000 		.4byte	.LFB8
 10671 003c 4E000000 		.4byte	.LFE8
 10672 0040 00000000 		.4byte	.LFB9
 10673 0044 16000000 		.4byte	.LFE9
 10674 0048 00000000 		.4byte	.LFB10
 10675 004c BE000000 		.4byte	.LFE10
 10676 0050 00000000 		.4byte	.LFB11
 10677 0054 18000000 		.4byte	.LFE11
 10678 0058 00000000 		.4byte	.LFB12
 10679 005c 18000000 		.4byte	.LFE12
 10680 0060 00000000 		.4byte	.LFB13
 10681 0064 4A000000 		.4byte	.LFE13
 10682 0068 00000000 		.4byte	.LFB14
 10683 006c 50010000 		.4byte	.LFE14
 10684 0070 00000000 		.4byte	.LFB15
 10685 0074 80010000 		.4byte	.LFE15
 10686 0078 00000000 		.4byte	.LFB16
 10687 007c E4000000 		.4byte	.LFE16
 10688 0080 00000000 		.4byte	.LFB17
 10689 0084 30010000 		.4byte	.LFE17
 10690 0088 00000000 		.4byte	.LFB18
 10691 008c 0C010000 		.4byte	.LFE18
 10692 0090 00000000 		.4byte	.LFB19
 10693 0094 30010000 		.4byte	.LFE19
 10694 0098 00000000 		.4byte	.LFB20
 10695 009c AC000000 		.4byte	.LFE20
 10696 00a0 00000000 		.4byte	.LFB21
 10697 00a4 5C000000 		.4byte	.LFE21
 10698 00a8 00000000 		.4byte	.LFB22
 10699 00ac B4000000 		.4byte	.LFE22
 10700 00b0 00000000 		.4byte	0
 10701 00b4 00000000 		.4byte	0
 10702              		.section	.debug_line,"",%progbits
ARM GAS  C:\Users\legoc\AppData\Local\Temp\cchaQR7h.s 			page 201


 10703              	.Ldebug_line0:
 10704 0000 13050000 		.section	.debug_str,"MS",%progbits,1
 10704      0200AE01 
 10704      00000201 
 10704      FB0E0D00 
 10704      01010101 
 10705              	.LASF70:
 10706 0000 64726177 		.ascii	"draw_choose_screen\000"
 10706      5F63686F 
 10706      6F73655F 
 10706      73637265 
 10706      656E00
 10707              	.LASF23:
 10708 0013 77726974 		.ascii	"writedata\000"
 10708      65646174 
 10708      6100
 10709              	.LASF45:
 10710 001d 72656374 		.ascii	"rect_center_x\000"
 10710      5F63656E 
 10710      7465725F 
 10710      7800
 10711              	.LASF46:
 10712 002b 72656374 		.ascii	"rect_center_y\000"
 10712      5F63656E 
 10712      7465725F 
 10712      7900
 10713              	.LASF42:
 10714 0039 62757474 		.ascii	"button_color\000"
 10714      6F6E5F63 
 10714      6F6C6F72 
 10714      00
 10715              	.LASF12:
 10716 0046 756E7369 		.ascii	"unsigned int\000"
 10716      676E6564 
 10716      20696E74 
 10716      00
 10717              	.LASF86:
 10718 0053 795F746F 		.ascii	"y_touch\000"
 10718      75636800 
 10719              	.LASF49:
 10720 005b 70697865 		.ascii	"pixel_start\000"
 10720      6C5F7374 
 10720      61727400 
 10721              	.LASF47:
 10722 0067 73747269 		.ascii	"string_length\000"
 10722      6E675F6C 
 10722      656E6774 
 10722      6800
 10723              	.LASF26:
 10724 0075 73657441 		.ascii	"setAddrWindow\000"
 10724      64647257 
 10724      696E646F 
 10724      7700
 10725              	.LASF69:
 10726 0083 53746172 		.ascii	"StartScreen\000"
 10726      74536372 
 10726      65656E00 
ARM GAS  C:\Users\legoc\AppData\Local\Temp\cchaQR7h.s 			page 202


 10727              	.LASF35:
 10728 008f 77726974 		.ascii	"write_line\000"
 10728      655F6C69 
 10728      6E6500
 10729              	.LASF52:
 10730 009a 6E65775F 		.ascii	"new_string_2\000"
 10730      73747269 
 10730      6E675F32 
 10730      00
 10731              	.LASF22:
 10732 00a7 77726974 		.ascii	"writecommand\000"
 10732      65636F6D 
 10732      6D616E64 
 10732      00
 10733              	.LASF66:
 10734 00b4 73747269 		.ascii	"string_throwaway_x\000"
 10734      6E675F74 
 10734      68726F77 
 10734      61776179 
 10734      5F7800
 10735              	.LASF65:
 10736 00c7 73747269 		.ascii	"string_throwaway_y\000"
 10736      6E675F74 
 10736      68726F77 
 10736      61776179 
 10736      5F7900
 10737              	.LASF48:
 10738 00da 7468655F 		.ascii	"the_string\000"
 10738      73747269 
 10738      6E6700
 10739              	.LASF16:
 10740 00e5 75696E74 		.ascii	"uint32_t\000"
 10740      33325F74 
 10740      00
 10741              	.LASF59:
 10742 00ee 795F6D61 		.ascii	"y_max\000"
 10742      7800
 10743              	.LASF67:
 10744 00f4 785F6D61 		.ascii	"x_max_step\000"
 10744      785F7374 
 10744      657000
 10745              	.LASF31:
 10746 00ff 6E756D41 		.ascii	"numArgs\000"
 10746      72677300 
 10747              	.LASF43:
 10748 0107 74657874 		.ascii	"text_color\000"
 10748      5F636F6C 
 10748      6F7200
 10749              	.LASF17:
 10750 0112 666C6F61 		.ascii	"float\000"
 10750      7400
 10751              	.LASF130:
 10752 0118 433A5C55 		.ascii	"C:\\Users\\legoc\\Documents\\School\\Senior Year\\S"
 10752      73657273 
 10752      5C6C6567 
 10752      6F635C44 
 10752      6F63756D 
ARM GAS  C:\Users\legoc\AppData\Local\Temp\cchaQR7h.s 			page 203


 10753 0145 656E696F 		.ascii	"enior Project\\Senior Project Integrated\\Senior Pr"
 10753      72205072 
 10753      6F6A6563 
 10753      745C5365 
 10753      6E696F72 
 10754 0176 6F6A6563 		.ascii	"oject Integrated\\Design01.cydsn\000"
 10754      7420496E 
 10754      74656772 
 10754      61746564 
 10754      5C446573 
 10755              	.LASF61:
 10756 0196 795F6D61 		.ascii	"y_max_pixel\000"
 10756      785F7069 
 10756      78656C00 
 10757              	.LASF14:
 10758 01a2 696E7431 		.ascii	"int16_t\000"
 10758      365F7400 
 10759              	.LASF11:
 10760 01aa 6C6F6E67 		.ascii	"long long unsigned int\000"
 10760      206C6F6E 
 10760      6720756E 
 10760      7369676E 
 10760      65642069 
 10761              	.LASF124:
 10762 01c1 53535F57 		.ascii	"SS_Write\000"
 10762      72697465 
 10762      00
 10763              	.LASF129:
 10764 01ca 73637265 		.ascii	"screen.c\000"
 10764      656E2E63 
 10764      00
 10765              	.LASF5:
 10766 01d3 5F5F7569 		.ascii	"__uint16_t\000"
 10766      6E743136 
 10766      5F7400
 10767              	.LASF54:
 10768 01de 6E65775F 		.ascii	"new_string_2_length\000"
 10768      73747269 
 10768      6E675F32 
 10768      5F6C656E 
 10768      67746800 
 10769              	.LASF120:
 10770 01f2 6E756D5F 		.ascii	"num_avg\000"
 10770      61766700 
 10771              	.LASF128:
 10772 01fa 474E5520 		.ascii	"GNU C11 5.4.1 20160609 (release) [ARM/embedded-5-br"
 10772      43313120 
 10772      352E342E 
 10772      31203230 
 10772      31363036 
 10773 022d 616E6368 		.ascii	"anch revision 237715] -mcpu=cortex-m3 -mthumb -g -O"
 10773      20726576 
 10773      6973696F 
 10773      6E203233 
 10773      37373135 
 10774 0260 67202D66 		.ascii	"g -ffunction-sections -ffat-lto-objects\000"
 10774      66756E63 
ARM GAS  C:\Users\legoc\AppData\Local\Temp\cchaQR7h.s 			page 204


 10774      74696F6E 
 10774      2D736563 
 10774      74696F6E 
 10775              	.LASF87:
 10776 0288 666F6E74 		.ascii	"font_0\000"
 10776      5F3000
 10777              	.LASF88:
 10778 028f 666F6E74 		.ascii	"font_1\000"
 10778      5F3100
 10779              	.LASF89:
 10780 0296 666F6E74 		.ascii	"font_2\000"
 10780      5F3200
 10781              	.LASF90:
 10782 029d 666F6E74 		.ascii	"font_3\000"
 10782      5F3300
 10783              	.LASF91:
 10784 02a4 666F6E74 		.ascii	"font_4\000"
 10784      5F3400
 10785              	.LASF92:
 10786 02ab 666F6E74 		.ascii	"font_5\000"
 10786      5F3500
 10787              	.LASF72:
 10788 02b2 74656D70 		.ascii	"temp1\000"
 10788      3100
 10789              	.LASF73:
 10790 02b8 74656D70 		.ascii	"temp2\000"
 10790      3200
 10791              	.LASF74:
 10792 02be 74656D70 		.ascii	"temp3\000"
 10792      3300
 10793              	.LASF75:
 10794 02c4 74656D70 		.ascii	"temp4\000"
 10794      3400
 10795              	.LASF76:
 10796 02ca 74656D70 		.ascii	"temp5\000"
 10796      3500
 10797              	.LASF77:
 10798 02d0 74656D70 		.ascii	"temp6\000"
 10798      3600
 10799              	.LASF29:
 10800 02d6 66696C6C 		.ascii	"fill_rect\000"
 10800      5F726563 
 10800      7400
 10801              	.LASF109:
 10802 02e0 666F6E74 		.ascii	"font_A\000"
 10802      5F4100
 10803              	.LASF110:
 10804 02e7 666F6E74 		.ascii	"font_B\000"
 10804      5F4200
 10805              	.LASF111:
 10806 02ee 666F6E74 		.ascii	"font_C\000"
 10806      5F4300
 10807              	.LASF112:
 10808 02f5 666F6E74 		.ascii	"font_D\000"
 10808      5F4400
 10809              	.LASF113:
 10810 02fc 666F6E74 		.ascii	"font_E\000"
ARM GAS  C:\Users\legoc\AppData\Local\Temp\cchaQR7h.s 			page 205


 10810      5F4500
 10811              	.LASF114:
 10812 0303 666F6E74 		.ascii	"font_F\000"
 10812      5F4600
 10813              	.LASF115:
 10814 030a 666F6E74 		.ascii	"font_G\000"
 10814      5F4700
 10815              	.LASF81:
 10816 0311 64726177 		.ascii	"draw_options_curves_screen\000"
 10816      5F6F7074 
 10816      696F6E73 
 10816      5F637572 
 10816      7665735F 
 10817              	.LASF79:
 10818 032c 6176675F 		.ascii	"avg_num\000"
 10818      6E756D00 
 10819              	.LASF107:
 10820 0334 7373697A 		.ascii	"ssizetype\000"
 10820      65747970 
 10820      6500
 10821              	.LASF98:
 10822 033e 666F6E74 		.ascii	"font_a\000"
 10822      5F6100
 10823              	.LASF99:
 10824 0345 666F6E74 		.ascii	"font_b\000"
 10824      5F6200
 10825              	.LASF100:
 10826 034c 666F6E74 		.ascii	"font_c\000"
 10826      5F6300
 10827              	.LASF101:
 10828 0353 666F6E74 		.ascii	"font_d\000"
 10828      5F6400
 10829              	.LASF102:
 10830 035a 666F6E74 		.ascii	"font_e\000"
 10830      5F6500
 10831              	.LASF103:
 10832 0361 666F6E74 		.ascii	"font_f\000"
 10832      5F6600
 10833              	.LASF104:
 10834 0368 666F6E74 		.ascii	"font_g\000"
 10834      5F6700
 10835              	.LASF105:
 10836 036f 666F6E74 		.ascii	"font_h\000"
 10836      5F6800
 10837              	.LASF106:
 10838 0376 666F6E74 		.ascii	"font_i\000"
 10838      5F6900
 10839              	.LASF108:
 10840 037d 666F6E74 		.ascii	"font_j\000"
 10840      5F6A00
 10841              	.LASF56:
 10842 0384 70697865 		.ascii	"pixel_start_2\000"
 10842      6C5F7374 
 10842      6172745F 
 10842      3200
 10843              	.LASF19:
 10844 0392 63686172 		.ascii	"char\000"
ARM GAS  C:\Users\legoc\AppData\Local\Temp\cchaQR7h.s 			page 206


 10844      00
 10845              	.LASF57:
 10846 0397 64726177 		.ascii	"draw_string\000"
 10846      5F737472 
 10846      696E6700 
 10847              	.LASF63:
 10848 03a3 795F6C61 		.ascii	"y_label\000"
 10848      62656C00 
 10849              	.LASF82:
 10850 03ab 6E756D5F 		.ascii	"num_curve\000"
 10850      63757276 
 10850      6500
 10851              	.LASF44:
 10852 03b5 73747269 		.ascii	"string\000"
 10852      6E6700
 10853              	.LASF41:
 10854 03bc 64726177 		.ascii	"draw_button\000"
 10854      5F627574 
 10854      746F6E00 
 10855              	.LASF125:
 10856 03c8 43794465 		.ascii	"CyDelay\000"
 10856      6C617900 
 10857              	.LASF25:
 10858 03d0 64617461 		.ascii	"data\000"
 10858      00
 10859              	.LASF13:
 10860 03d5 75696E74 		.ascii	"uint8_t\000"
 10860      385F7400 
 10861              	.LASF40:
 10862 03dd 64726177 		.ascii	"draw_line\000"
 10862      5F6C696E 
 10862      6500
 10863              	.LASF116:
 10864 03e7 696E6974 		.ascii	"initcmd\000"
 10864      636D6400 
 10865              	.LASF36:
 10866 03ef 73746565 		.ascii	"steep\000"
 10866      7000
 10867              	.LASF10:
 10868 03f5 6C6F6E67 		.ascii	"long long int\000"
 10868      206C6F6E 
 10868      6720696E 
 10868      7400
 10869              	.LASF83:
 10870 0403 64726177 		.ascii	"draw_options_settling_screen\000"
 10870      5F6F7074 
 10870      696F6E73 
 10870      5F736574 
 10870      746C696E 
 10871              	.LASF3:
 10872 0420 5F5F696E 		.ascii	"__int16_t\000"
 10872      7431365F 
 10872      7400
 10873              	.LASF127:
 10874 042a 69746F61 		.ascii	"itoa\000"
 10874      00
 10875              	.LASF62:
ARM GAS  C:\Users\legoc\AppData\Local\Temp\cchaQR7h.s 			page 207


 10876 042f 66697665 		.ascii	"five_mA_pixel\000"
 10876      5F6D415F 
 10876      70697865 
 10876      6C00
 10877              	.LASF97:
 10878 043d 666F6E74 		.ascii	"font_period\000"
 10878      5F706572 
 10878      696F6400 
 10879              	.LASF118:
 10880 0449 63757276 		.ascii	"curve_nums\000"
 10880      655F6E75 
 10880      6D7300
 10881              	.LASF85:
 10882 0454 785F746F 		.ascii	"x_touch\000"
 10882      75636800 
 10883              	.LASF24:
 10884 045c 636F6D6D 		.ascii	"command\000"
 10884      616E6400 
 10885              	.LASF58:
 10886 0464 64726177 		.ascii	"draw_coordinates\000"
 10886      5F636F6F 
 10886      7264696E 
 10886      61746573 
 10886      00
 10887              	.LASF84:
 10888 0475 64726177 		.ascii	"draw_debug_screen\000"
 10888      5F646562 
 10888      75675F73 
 10888      63726565 
 10888      6E00
 10889              	.LASF50:
 10890 0487 62757474 		.ascii	"button_character_width\000"
 10890      6F6E5F63 
 10890      68617261 
 10890      63746572 
 10890      5F776964 
 10891              	.LASF38:
 10892 049e 64726177 		.ascii	"drawFastHLine\000"
 10892      46617374 
 10892      484C696E 
 10892      6500
 10893              	.LASF94:
 10894 04ac 666F6E74 		.ascii	"font_7\000"
 10894      5F3700
 10895              	.LASF51:
 10896 04b3 6E65775F 		.ascii	"new_string_1\000"
 10896      73747269 
 10896      6E675F31 
 10896      00
 10897              	.LASF95:
 10898 04c0 666F6E74 		.ascii	"font_8\000"
 10898      5F3800
 10899              	.LASF96:
 10900 04c7 666F6E74 		.ascii	"font_9\000"
 10900      5F3900
 10901              	.LASF33:
 10902 04ce 6368616E 		.ascii	"change_pixel\000"
ARM GAS  C:\Users\legoc\AppData\Local\Temp\cchaQR7h.s 			page 208


 10902      67655F70 
 10902      6978656C 
 10902      00
 10903              	.LASF20:
 10904 04db 6C6F6E67 		.ascii	"long double\000"
 10904      20646F75 
 10904      626C6500 
 10905              	.LASF27:
 10906 04e7 64726177 		.ascii	"draw_rect\000"
 10906      5F726563 
 10906      7400
 10907              	.LASF126:
 10908 04f1 73707269 		.ascii	"sprintf\000"
 10908      6E746600 
 10909              	.LASF15:
 10910 04f9 75696E74 		.ascii	"uint16_t\000"
 10910      31365F74 
 10910      00
 10911              	.LASF71:
 10912 0502 64726177 		.ascii	"draw_options_screen\000"
 10912      5F6F7074 
 10912      696F6E73 
 10912      5F736372 
 10912      65656E00 
 10913              	.LASF4:
 10914 0516 73686F72 		.ascii	"short int\000"
 10914      7420696E 
 10914      7400
 10915              	.LASF34:
 10916 0520 64726177 		.ascii	"draw_pixel\000"
 10916      5F706978 
 10916      656C00
 10917              	.LASF7:
 10918 052b 6C6F6E67 		.ascii	"long int\000"
 10918      20696E74 
 10918      00
 10919              	.LASF78:
 10920 0534 64726177 		.ascii	"draw_options_averages_screen\000"
 10920      5F6F7074 
 10920      696F6E73 
 10920      5F617665 
 10920      72616765 
 10921              	.LASF39:
 10922 0551 64726177 		.ascii	"drawFastVLine\000"
 10922      46617374 
 10922      564C696E 
 10922      6500
 10923              	.LASF121:
 10924 055f 445F435F 		.ascii	"D_C_Write\000"
 10924      57726974 
 10924      6500
 10925              	.LASF68:
 10926 0569 74656D70 		.ascii	"temp\000"
 10926      00
 10927              	.LASF28:
 10928 056e 636F6C6F 		.ascii	"color\000"
 10928      7200
ARM GAS  C:\Users\legoc\AppData\Local\Temp\cchaQR7h.s 			page 209


 10929              	.LASF2:
 10930 0574 5F5F7569 		.ascii	"__uint8_t\000"
 10930      6E74385F 
 10930      7400
 10931              	.LASF123:
 10932 057e 53535F52 		.ascii	"SS_Read\000"
 10932      65616400 
 10933              	.LASF55:
 10934 0586 70697865 		.ascii	"pixel_start_1\000"
 10934      6C5F7374 
 10934      6172745F 
 10934      3100
 10935              	.LASF37:
 10936 0594 79737465 		.ascii	"ystep\000"
 10936      7000
 10937              	.LASF21:
 10938 059a 73697A65 		.ascii	"sizetype\000"
 10938      74797065 
 10938      00
 10939              	.LASF9:
 10940 05a3 6C6F6E67 		.ascii	"long unsigned int\000"
 10940      20756E73 
 10940      69676E65 
 10940      6420696E 
 10940      7400
 10941              	.LASF1:
 10942 05b5 756E7369 		.ascii	"unsigned char\000"
 10942      676E6564 
 10942      20636861 
 10942      7200
 10943              	.LASF8:
 10944 05c3 5F5F7569 		.ascii	"__uint32_t\000"
 10944      6E743332 
 10944      5F7400
 10945              	.LASF80:
 10946 05ce 64726177 		.ascii	"draw_options_sd_screen\000"
 10946      5F6F7074 
 10946      696F6E73 
 10946      5F73645F 
 10946      73637265 
 10947              	.LASF64:
 10948 05e5 785F6C61 		.ascii	"x_label\000"
 10948      62656C00 
 10949              	.LASF32:
 10950 05ed 61646472 		.ascii	"addr\000"
 10950      00
 10951              	.LASF30:
 10952 05f2 66696C6C 		.ascii	"fill_screen\000"
 10952      5F736372 
 10952      65656E00 
 10953              	.LASF53:
 10954 05fe 6E65775F 		.ascii	"new_string_1_length\000"
 10954      73747269 
 10954      6E675F31 
 10954      5F6C656E 
 10954      67746800 
 10955              	.LASF93:
ARM GAS  C:\Users\legoc\AppData\Local\Temp\cchaQR7h.s 			page 210


 10956 0612 666F6E74 		.ascii	"font_6\000"
 10956      5F3600
 10957              	.LASF0:
 10958 0619 7369676E 		.ascii	"signed char\000"
 10958      65642063 
 10958      68617200 
 10959              	.LASF6:
 10960 0625 73686F72 		.ascii	"short unsigned int\000"
 10960      7420756E 
 10960      7369676E 
 10960      65642069 
 10960      6E7400
 10961              	.LASF122:
 10962 0638 5350494D 		.ascii	"SPIM_WriteTxData\000"
 10962      5F577269 
 10962      74655478 
 10962      44617461 
 10962      00
 10963              	.LASF119:
 10964 0649 77726974 		.ascii	"write_sd\000"
 10964      655F7364 
 10964      00
 10965              	.LASF18:
 10966 0652 646F7562 		.ascii	"double\000"
 10966      6C6500
 10967              	.LASF60:
 10968 0659 64657669 		.ascii	"device_selection\000"
 10968      63655F73 
 10968      656C6563 
 10968      74696F6E 
 10968      00
 10969              	.LASF117:
 10970 066a 73637265 		.ascii	"screen_state\000"
 10970      656E5F73 
 10970      74617465 
 10970      00
 10971              		.ident	"GCC: (GNU Tools for ARM Embedded Processors) 5.4.1 20160609 (release) [ARM/embedded-5-bran
