ARM GAS  C:\Users\legoc\AppData\Local\Temp\ccaO6McM.s 			page 1


   1              		.syntax unified
   2              		.cpu cortex-m3
   3              		.fpu softvfp
   4              		.eabi_attribute 20, 1
   5              		.eabi_attribute 21, 1
   6              		.eabi_attribute 23, 3
   7              		.eabi_attribute 24, 1
   8              		.eabi_attribute 25, 1
   9              		.eabi_attribute 26, 1
  10              		.eabi_attribute 30, 2
  11              		.eabi_attribute 34, 1
  12              		.eabi_attribute 18, 4
  13              		.thumb
  14              		.syntax unified
  15              		.file	"screen.c"
  16              		.text
  17              	.Ltext0:
  18              		.cfi_sections	.debug_frame
  19              		.section	.text.writecommand,"ax",%progbits
  20              		.align	2
  21              		.global	writecommand
  22              		.thumb
  23              		.thumb_func
  24              		.type	writecommand, %function
  25              	writecommand:
  26              	.LFB1:
  27              		.file 1 "screen.c"
   1:screen.c      **** // Steven Andresen
   2:screen.c      **** // Senior Project Fall 2018
   3:screen.c      **** 
   4:screen.c      **** #include "project.h"
   5:screen.c      **** #include "screen.h"
   6:screen.c      **** #include "font.h"
   7:screen.c      **** #include "strings.h"
   8:screen.c      **** #include "string.h"
   9:screen.c      **** #include "stdio.h"
  10:screen.c      **** #include "stdlib.h"
  11:screen.c      **** #include "math.h"
  12:screen.c      **** 
  13:screen.c      **** // Initialization command/data
  14:screen.c      **** static const uint8_t initcmd[] = {
  15:screen.c      ****   0xEF, 3, 0x03, 0x80, 0x02,
  16:screen.c      ****   0xCF, 3, 0x00, 0xC1, 0x30,
  17:screen.c      ****   0xED, 4, 0x64, 0x03, 0x12, 0x81,
  18:screen.c      ****   0xE8, 3, 0x85, 0x00, 0x78,
  19:screen.c      ****   0xCB, 5, 0x39, 0x2C, 0x00, 0x34, 0x02,
  20:screen.c      ****   0xF7, 1, 0x20,
  21:screen.c      ****   0xEA, 2, 0x00, 0x00,
  22:screen.c      ****   ILI9341_PWCTR1  , 1, 0x23,             // Power control VRH[5:0]
  23:screen.c      ****   ILI9341_PWCTR2  , 1, 0x10,             // Power control SAP[2:0];BT[3:0]
  24:screen.c      ****   ILI9341_VMCTR1  , 2, 0x3e, 0x28,       // VCM control
  25:screen.c      ****   ILI9341_VMCTR2  , 1, 0x86,             // VCM control2
  26:screen.c      ****   ILI9341_MADCTL  , 1, 0x48,             // Memory Access Control
  27:screen.c      ****   ILI9341_VSCRSADD, 1, 0x00,             // Vertical scroll zero
  28:screen.c      ****   ILI9341_PIXFMT  , 1, 0x55,
  29:screen.c      ****   ILI9341_FRMCTR1 , 2, 0x00, 0x18,
  30:screen.c      ****   ILI9341_DFUNCTR , 3, 0x08, 0x82, 0x27, // Display Function Control
ARM GAS  C:\Users\legoc\AppData\Local\Temp\ccaO6McM.s 			page 2


  31:screen.c      ****   0xF2, 1, 0x00,                         // 3Gamma Function Disable
  32:screen.c      ****   ILI9341_GAMMASET , 1, 0x01,             // Gamma curve selected
  33:screen.c      ****   ILI9341_GMCTRP1 , 15, 0x0F, 0x31, 0x2B, 0x0C, 0x0E, 0x08, // Set Gamma
  34:screen.c      ****     0x4E, 0xF1, 0x37, 0x07, 0x10, 0x03, 0x0E, 0x09, 0x00,
  35:screen.c      ****   ILI9341_GMCTRN1 , 15, 0x00, 0x0E, 0x14, 0x03, 0x11, 0x07, // Set Gamma
  36:screen.c      ****     0x31, 0xC1, 0x48, 0x08, 0x0F, 0x0C, 0x31, 0x36, 0x0F,
  37:screen.c      ****   ILI9341_SLPOUT  , 0x80,                // Exit Sleep
  38:screen.c      ****   ILI9341_DISPON  , 0x80,                // Display on
  39:screen.c      ****   0x00                                   // End of list
  40:screen.c      **** };
  41:screen.c      **** 
  42:screen.c      **** // Write command over SPI buss
  43:screen.c      **** void writecommand(uint8_t command)
  44:screen.c      **** {
  28              		.loc 1 44 0
  29              		.cfi_startproc
  30              		@ args = 0, pretend = 0, frame = 0
  31              		@ frame_needed = 0, uses_anonymous_args = 0
  32              	.LVL0:
  33 0000 10B5     		push	{r4, lr}
  34              		.cfi_def_cfa_offset 8
  35              		.cfi_offset 4, -8
  36              		.cfi_offset 14, -4
  37              		.loc 1 44 0
  38 0002 0446     		mov	r4, r0
  45:screen.c      ****     // Set D_C to low for command
  46:screen.c      ****     D_C_Write(0);
  39              		.loc 1 46 0
  40 0004 0020     		movs	r0, #0
  41              	.LVL1:
  42 0006 FFF7FEFF 		bl	D_C_Write
  43              	.LVL2:
  47:screen.c      ****     SPIM_WriteTxData(command);
  44              		.loc 1 47 0
  45 000a 2046     		mov	r0, r4
  46 000c FFF7FEFF 		bl	SPIM_WriteTxData
  47              	.LVL3:
  48              	.L2:
  48:screen.c      ****     while(SS_Read() != 0){}
  49              		.loc 1 48 0 discriminator 1
  50 0010 FFF7FEFF 		bl	SS_Read
  51              	.LVL4:
  52 0014 0028     		cmp	r0, #0
  53 0016 FBD1     		bne	.L2
  54              	.L3:
  49:screen.c      ****     while(SS_Read() != 1){}
  55              		.loc 1 49 0 discriminator 1
  56 0018 FFF7FEFF 		bl	SS_Read
  57              	.LVL5:
  58 001c 0128     		cmp	r0, #1
  59 001e FBD1     		bne	.L3
  50:screen.c      **** }
  60              		.loc 1 50 0
  61 0020 10BD     		pop	{r4, pc}
  62              		.cfi_endproc
  63              	.LFE1:
  64              		.size	writecommand, .-writecommand
ARM GAS  C:\Users\legoc\AppData\Local\Temp\ccaO6McM.s 			page 3


  65 0022 00BF     		.section	.text.writedata,"ax",%progbits
  66              		.align	2
  67              		.global	writedata
  68              		.thumb
  69              		.thumb_func
  70              		.type	writedata, %function
  71              	writedata:
  72              	.LFB2:
  51:screen.c      **** 
  52:screen.c      **** // Writes data over SPI bus
  53:screen.c      **** void writedata(uint8_t data)
  54:screen.c      **** {
  73              		.loc 1 54 0
  74              		.cfi_startproc
  75              		@ args = 0, pretend = 0, frame = 0
  76              		@ frame_needed = 0, uses_anonymous_args = 0
  77              	.LVL6:
  78 0000 10B5     		push	{r4, lr}
  79              		.cfi_def_cfa_offset 8
  80              		.cfi_offset 4, -8
  81              		.cfi_offset 14, -4
  82              		.loc 1 54 0
  83 0002 0446     		mov	r4, r0
  55:screen.c      ****     // Set D_C to high for data
  56:screen.c      ****     D_C_Write(1);
  84              		.loc 1 56 0
  85 0004 0120     		movs	r0, #1
  86              	.LVL7:
  87 0006 FFF7FEFF 		bl	D_C_Write
  88              	.LVL8:
  57:screen.c      ****     SPIM_WriteTxData(data);
  89              		.loc 1 57 0
  90 000a 2046     		mov	r0, r4
  91 000c FFF7FEFF 		bl	SPIM_WriteTxData
  92              	.LVL9:
  93              	.L9:
  58:screen.c      ****     while(SS_Read() != 0){}
  94              		.loc 1 58 0 discriminator 1
  95 0010 FFF7FEFF 		bl	SS_Read
  96              	.LVL10:
  97 0014 0028     		cmp	r0, #0
  98 0016 FBD1     		bne	.L9
  99              	.L10:
  59:screen.c      ****     while(SS_Read() != 1){}
 100              		.loc 1 59 0 discriminator 1
 101 0018 FFF7FEFF 		bl	SS_Read
 102              	.LVL11:
 103 001c 0128     		cmp	r0, #1
 104 001e FBD1     		bne	.L10
  60:screen.c      **** }
 105              		.loc 1 60 0
 106 0020 10BD     		pop	{r4, pc}
 107              		.cfi_endproc
 108              	.LFE2:
 109              		.size	writedata, .-writedata
 110 0022 00BF     		.section	.text.setAddrWindow,"ax",%progbits
 111              		.align	2
ARM GAS  C:\Users\legoc\AppData\Local\Temp\ccaO6McM.s 			page 4


 112              		.global	setAddrWindow
 113              		.thumb
 114              		.thumb_func
 115              		.type	setAddrWindow, %function
 116              	setAddrWindow:
 117              	.LFB3:
  61:screen.c      **** 
  62:screen.c      **** // Sets addresses in memory to write to
  63:screen.c      **** void setAddrWindow(uint16_t x, uint16_t y, uint16_t w, uint16_t h) {
 118              		.loc 1 63 0
 119              		.cfi_startproc
 120              		@ args = 0, pretend = 0, frame = 0
 121              		@ frame_needed = 0, uses_anonymous_args = 0
 122              	.LVL12:
 123 0000 38B5     		push	{r3, r4, r5, lr}
 124              		.cfi_def_cfa_offset 16
 125              		.cfi_offset 3, -16
 126              		.cfi_offset 4, -12
 127              		.cfi_offset 5, -8
 128              		.cfi_offset 14, -4
 129              		.loc 1 63 0
 130 0002 0546     		mov	r5, r0
  64:screen.c      ****     uint32_t xa = ((uint32_t)x << 16) | (x+w-1);
 131              		.loc 1 64 0
 132 0004 0244     		add	r2, r2, r0
 133              	.LVL13:
  65:screen.c      ****     uint32_t ya = ((uint32_t)y << 16) | (y+h-1);
 134              		.loc 1 65 0
 135 0006 0B44     		add	r3, r3, r1
 136              	.LVL14:
  64:screen.c      ****     uint32_t xa = ((uint32_t)x << 16) | (x+w-1);
 137              		.loc 1 64 0
 138 0008 013A     		subs	r2, r2, #1
 139              		.loc 1 65 0
 140 000a 013B     		subs	r3, r3, #1
 141              	.LBB33:
 142              	.LBB34:
  46:screen.c      ****     SPIM_WriteTxData(command);
 143              		.loc 1 46 0
 144 000c 0020     		movs	r0, #0
 145              	.LVL15:
 146              	.LBE34:
 147              	.LBE33:
  64:screen.c      ****     uint32_t xa = ((uint32_t)x << 16) | (x+w-1);
 148              		.loc 1 64 0
 149 000e 42EA0545 		orr	r5, r2, r5, lsl #16
 150              	.LVL16:
 151              		.loc 1 65 0
 152 0012 43EA0144 		orr	r4, r3, r1, lsl #16
 153              	.LVL17:
 154              	.LBB36:
 155              	.LBB35:
  46:screen.c      ****     SPIM_WriteTxData(command);
 156              		.loc 1 46 0
 157 0016 FFF7FEFF 		bl	D_C_Write
 158              	.LVL18:
  47:screen.c      ****     while(SS_Read() != 0){}
ARM GAS  C:\Users\legoc\AppData\Local\Temp\ccaO6McM.s 			page 5


 159              		.loc 1 47 0
 160 001a 2A20     		movs	r0, #42
 161 001c FFF7FEFF 		bl	SPIM_WriteTxData
 162              	.LVL19:
 163              	.L15:
  48:screen.c      ****     while(SS_Read() != 1){}
 164              		.loc 1 48 0
 165 0020 FFF7FEFF 		bl	SS_Read
 166              	.LVL20:
 167 0024 0028     		cmp	r0, #0
 168 0026 FBD1     		bne	.L15
 169              	.L16:
  49:screen.c      **** }
 170              		.loc 1 49 0
 171 0028 FFF7FEFF 		bl	SS_Read
 172              	.LVL21:
 173 002c 0128     		cmp	r0, #1
 174 002e FBD1     		bne	.L16
 175              	.LVL22:
 176              	.LBE35:
 177              	.LBE36:
  66:screen.c      ****     
  67:screen.c      ****     // Column address set
  68:screen.c      ****     writecommand(ILI9341_CASET);
  69:screen.c      ****     
  70:screen.c      ****     // Splits 'x' addresses 32-bit into 4 bytes
  71:screen.c      ****     D_C_Write(1);
 178              		.loc 1 71 0
 179 0030 FFF7FEFF 		bl	D_C_Write
 180              	.LVL23:
  72:screen.c      ****     SS_Write(0);
 181              		.loc 1 72 0
 182 0034 0020     		movs	r0, #0
 183 0036 FFF7FEFF 		bl	SS_Write
 184              	.LVL24:
  73:screen.c      ****     SPIM_WriteTxData(xa >> 24);
 185              		.loc 1 73 0
 186 003a 280E     		lsrs	r0, r5, #24
 187 003c FFF7FEFF 		bl	SPIM_WriteTxData
 188              	.LVL25:
 189              	.L17:
  74:screen.c      ****     while(SS_Read() != 1){}
 190              		.loc 1 74 0 discriminator 1
 191 0040 FFF7FEFF 		bl	SS_Read
 192              	.LVL26:
 193 0044 0128     		cmp	r0, #1
 194 0046 FBD1     		bne	.L17
  75:screen.c      ****     SPIM_WriteTxData(xa >> 16);
 195              		.loc 1 75 0
 196 0048 C5F30740 		ubfx	r0, r5, #16, #8
 197 004c FFF7FEFF 		bl	SPIM_WriteTxData
 198              	.LVL27:
 199              	.L18:
  76:screen.c      ****     while(SS_Read() != 1){}
 200              		.loc 1 76 0 discriminator 1
 201 0050 FFF7FEFF 		bl	SS_Read
 202              	.LVL28:
ARM GAS  C:\Users\legoc\AppData\Local\Temp\ccaO6McM.s 			page 6


 203 0054 0128     		cmp	r0, #1
 204 0056 FBD1     		bne	.L18
  77:screen.c      ****     SPIM_WriteTxData(xa >> 8);
 205              		.loc 1 77 0
 206 0058 C5F30720 		ubfx	r0, r5, #8, #8
 207 005c FFF7FEFF 		bl	SPIM_WriteTxData
 208              	.LVL29:
 209              	.L19:
  78:screen.c      ****     while(SS_Read() != 1){}
 210              		.loc 1 78 0 discriminator 1
 211 0060 FFF7FEFF 		bl	SS_Read
 212              	.LVL30:
 213 0064 0128     		cmp	r0, #1
 214 0066 FBD1     		bne	.L19
  79:screen.c      ****     SPIM_WriteTxData(xa >> 0);
 215              		.loc 1 79 0
 216 0068 E8B2     		uxtb	r0, r5
 217 006a FFF7FEFF 		bl	SPIM_WriteTxData
 218              	.LVL31:
 219              	.L20:
  80:screen.c      ****     while(SS_Read() != 1){}
 220              		.loc 1 80 0 discriminator 1
 221 006e FFF7FEFF 		bl	SS_Read
 222              	.LVL32:
 223 0072 0128     		cmp	r0, #1
 224 0074 FBD1     		bne	.L20
  81:screen.c      ****     SS_Write(1);
 225              		.loc 1 81 0
 226 0076 FFF7FEFF 		bl	SS_Write
 227              	.LVL33:
 228              	.LBB37:
 229              	.LBB38:
  46:screen.c      ****     SPIM_WriteTxData(command);
 230              		.loc 1 46 0
 231 007a 0020     		movs	r0, #0
 232 007c FFF7FEFF 		bl	D_C_Write
 233              	.LVL34:
  47:screen.c      ****     while(SS_Read() != 0){}
 234              		.loc 1 47 0
 235 0080 2B20     		movs	r0, #43
 236 0082 FFF7FEFF 		bl	SPIM_WriteTxData
 237              	.LVL35:
 238              	.L21:
  48:screen.c      ****     while(SS_Read() != 1){}
 239              		.loc 1 48 0
 240 0086 FFF7FEFF 		bl	SS_Read
 241              	.LVL36:
 242 008a 0028     		cmp	r0, #0
 243 008c FBD1     		bne	.L21
 244              	.L22:
  49:screen.c      **** }
 245              		.loc 1 49 0
 246 008e FFF7FEFF 		bl	SS_Read
 247              	.LVL37:
 248 0092 0128     		cmp	r0, #1
 249 0094 FBD1     		bne	.L22
 250              	.LVL38:
ARM GAS  C:\Users\legoc\AppData\Local\Temp\ccaO6McM.s 			page 7


 251              	.LBE38:
 252              	.LBE37:
  82:screen.c      ****     
  83:screen.c      ****     // Page address set
  84:screen.c      ****     writecommand(ILI9341_PASET);
  85:screen.c      ****     
  86:screen.c      ****     // Splits 'y' addresses 32-bit into 4 bytes
  87:screen.c      ****     D_C_Write(1);
 253              		.loc 1 87 0
 254 0096 FFF7FEFF 		bl	D_C_Write
 255              	.LVL39:
  88:screen.c      ****     SS_Write(0);
 256              		.loc 1 88 0
 257 009a 0020     		movs	r0, #0
 258 009c FFF7FEFF 		bl	SS_Write
 259              	.LVL40:
  89:screen.c      ****     SPIM_WriteTxData(ya >> 24);
 260              		.loc 1 89 0
 261 00a0 200E     		lsrs	r0, r4, #24
 262 00a2 FFF7FEFF 		bl	SPIM_WriteTxData
 263              	.LVL41:
 264              	.L23:
  90:screen.c      ****     while(SS_Read() != 1){}
 265              		.loc 1 90 0 discriminator 1
 266 00a6 FFF7FEFF 		bl	SS_Read
 267              	.LVL42:
 268 00aa 0128     		cmp	r0, #1
 269 00ac FBD1     		bne	.L23
  91:screen.c      ****     SPIM_WriteTxData(ya >> 16);
 270              		.loc 1 91 0
 271 00ae C4F30740 		ubfx	r0, r4, #16, #8
 272 00b2 FFF7FEFF 		bl	SPIM_WriteTxData
 273              	.LVL43:
 274              	.L24:
  92:screen.c      ****     while(SS_Read() != 1){}
 275              		.loc 1 92 0 discriminator 1
 276 00b6 FFF7FEFF 		bl	SS_Read
 277              	.LVL44:
 278 00ba 0128     		cmp	r0, #1
 279 00bc FBD1     		bne	.L24
  93:screen.c      ****     SPIM_WriteTxData(ya >> 8);
 280              		.loc 1 93 0
 281 00be C4F30720 		ubfx	r0, r4, #8, #8
 282 00c2 FFF7FEFF 		bl	SPIM_WriteTxData
 283              	.LVL45:
 284              	.L25:
  94:screen.c      ****     while(SS_Read() != 1){}
 285              		.loc 1 94 0 discriminator 1
 286 00c6 FFF7FEFF 		bl	SS_Read
 287              	.LVL46:
 288 00ca 0128     		cmp	r0, #1
 289 00cc FBD1     		bne	.L25
  95:screen.c      ****     SPIM_WriteTxData(ya >> 0);
 290              		.loc 1 95 0
 291 00ce E0B2     		uxtb	r0, r4
 292 00d0 FFF7FEFF 		bl	SPIM_WriteTxData
 293              	.LVL47:
ARM GAS  C:\Users\legoc\AppData\Local\Temp\ccaO6McM.s 			page 8


 294              	.L26:
  96:screen.c      ****     while(SS_Read() != 1){}
 295              		.loc 1 96 0 discriminator 1
 296 00d4 FFF7FEFF 		bl	SS_Read
 297              	.LVL48:
 298 00d8 0128     		cmp	r0, #1
 299 00da FBD1     		bne	.L26
  97:screen.c      ****     SS_Write(1);
 300              		.loc 1 97 0
 301 00dc FFF7FEFF 		bl	SS_Write
 302              	.LVL49:
 303              	.LBB39:
 304              	.LBB40:
  46:screen.c      ****     SPIM_WriteTxData(command);
 305              		.loc 1 46 0
 306 00e0 0020     		movs	r0, #0
 307 00e2 FFF7FEFF 		bl	D_C_Write
 308              	.LVL50:
  47:screen.c      ****     while(SS_Read() != 0){}
 309              		.loc 1 47 0
 310 00e6 2C20     		movs	r0, #44
 311 00e8 FFF7FEFF 		bl	SPIM_WriteTxData
 312              	.LVL51:
 313              	.L27:
  48:screen.c      ****     while(SS_Read() != 1){}
 314              		.loc 1 48 0
 315 00ec FFF7FEFF 		bl	SS_Read
 316              	.LVL52:
 317 00f0 0028     		cmp	r0, #0
 318 00f2 FBD1     		bne	.L27
 319              	.L28:
  49:screen.c      **** }
 320              		.loc 1 49 0
 321 00f4 FFF7FEFF 		bl	SS_Read
 322              	.LVL53:
 323 00f8 0128     		cmp	r0, #1
 324 00fa FBD1     		bne	.L28
 325              	.LBE40:
 326              	.LBE39:
  98:screen.c      ****     
  99:screen.c      ****     writecommand(ILI9341_RAMWR);
 100:screen.c      **** }
 327              		.loc 1 100 0
 328 00fc 38BD     		pop	{r3, r4, r5, pc}
 329              		.cfi_endproc
 330              	.LFE3:
 331              		.size	setAddrWindow, .-setAddrWindow
 332 00fe 00BF     		.section	.text.fillRect,"ax",%progbits
 333              		.align	2
 334              		.global	fillRect
 335              		.thumb
 336              		.thumb_func
 337              		.type	fillRect, %function
 338              	fillRect:
 339              	.LFB4:
 101:screen.c      **** 
 102:screen.c      **** // Fills in a rectangle of color on the screen
ARM GAS  C:\Users\legoc\AppData\Local\Temp\ccaO6McM.s 			page 9


 103:screen.c      **** void fillRect(int16_t x, int16_t y, int16_t w, int16_t h,
 104:screen.c      ****   uint16_t color) 
 105:screen.c      **** {
 340              		.loc 1 105 0
 341              		.cfi_startproc
 342              		@ args = 4, pretend = 0, frame = 0
 343              		@ frame_needed = 0, uses_anonymous_args = 0
 344              	.LVL54:
 345 0000 2DE9F041 		push	{r4, r5, r6, r7, r8, lr}
 346              		.cfi_def_cfa_offset 24
 347              		.cfi_offset 4, -24
 348              		.cfi_offset 5, -20
 349              		.cfi_offset 6, -16
 350              		.cfi_offset 7, -12
 351              		.cfi_offset 8, -8
 352              		.cfi_offset 14, -4
 106:screen.c      **** 
 107:screen.c      ****     // rudimentary clipping (drawChar w/big text requires this)
 108:screen.c      ****     if((x >= _width) || (y >= _height)) return;
 353              		.loc 1 108 0
 354 0004 EF28     		cmp	r0, #239
 105:screen.c      **** 
 355              		.loc 1 105 0
 356 0006 BDF81850 		ldrh	r5, [sp, #24]
 357              		.loc 1 108 0
 358 000a 4ADC     		bgt	.L44
 359              		.loc 1 108 0 is_stmt 0 discriminator 1
 360 000c B1F5A07F 		cmp	r1, #320
 361 0010 47DA     		bge	.L44
 362 0012 9846     		mov	r8, r3
 363              	.LVL55:
 364 0014 1746     		mov	r7, r2
 365              	.LBB43:
 366              	.LBB44:
 109:screen.c      ****     if((x + w - 1) >= _width)  w = _width  - x;
 367              		.loc 1 109 0 is_stmt 1
 368 0016 8318     		adds	r3, r0, r2
 369              	.LVL56:
 370 0018 F02B     		cmp	r3, #240
 371 001a 80B2     		uxth	r0, r0
 372 001c C8BF     		it	gt
 373 001e C0F1F007 		rsbgt	r7, r0, #240
 110:screen.c      ****     if((y + h - 1) >= _height) h = _height - y;
 374              		.loc 1 110 0
 375 0022 01EB0803 		add	r3, r1, r8
 109:screen.c      ****     if((x + w - 1) >= _width)  w = _width  - x;
 376              		.loc 1 109 0
 377 0026 C8BF     		it	gt
 378 0028 3FB2     		sxthgt	r7, r7
 379              	.LVL57:
 380              		.loc 1 110 0
 381 002a 89B2     		uxth	r1, r1
 382 002c B3F5A07F 		cmp	r3, #320
 383 0030 C4BF     		itt	gt
 384 0032 C1F5A073 		rsbgt	r3, r1, #320
 385 0036 0FFA83F8 		sxthgt	r8, r3
 386              	.LVL58:
ARM GAS  C:\Users\legoc\AppData\Local\Temp\ccaO6McM.s 			page 10


 111:screen.c      **** 
 112:screen.c      ****     // Sets addresses in memory to write to
 113:screen.c      ****     setAddrWindow(x, y, w, h);
 387              		.loc 1 113 0
 388 003a 1FFA88F3 		uxth	r3, r8
 389 003e BAB2     		uxth	r2, r7
 390              	.LVL59:
 391 0040 FFF7FEFF 		bl	setAddrWindow
 392              	.LVL60:
 114:screen.c      **** 
 115:screen.c      ****     // Splits color into two bytes
 116:screen.c      ****     uint8_t hi = color >> 8, lo = color;
 117:screen.c      ****     
 118:screen.c      ****     #if defined (SPI_HAS_TRANSACTION)
 119:screen.c      ****       if (hwSPI)      SPI.beginTransaction(mySPISettings);
 120:screen.c      ****     #endif
 121:screen.c      **** 
 122:screen.c      ****     D_C_Write(1);
 393              		.loc 1 122 0
 394 0044 0120     		movs	r0, #1
 395 0046 FFF7FEFF 		bl	D_C_Write
 396              	.LVL61:
 123:screen.c      ****     SS_Write(0);
 397              		.loc 1 123 0
 398 004a 0020     		movs	r0, #0
 399 004c FFF7FEFF 		bl	SS_Write
 400              	.LVL62:
 124:screen.c      ****     // Writes color to addresses
 125:screen.c      ****     for(y=h; y>0; y--) 
 401              		.loc 1 125 0
 402 0050 B8F1000F 		cmp	r8, #0
 116:screen.c      ****     
 403              		.loc 1 116 0
 404 0054 4FEA1526 		lsr	r6, r5, #8
 405              	.LVL63:
 406 0058 EDB2     		uxtb	r5, r5
 407              	.LVL64:
 408              		.loc 1 125 0
 409 005a 1DDD     		ble	.L51
 410              	.LVL65:
 411              	.L55:
 126:screen.c      ****     {
 127:screen.c      ****         for(x=w; x>0; x--) 
 412              		.loc 1 127 0
 413 005c 002F     		cmp	r7, #0
 414 005e C8BF     		it	gt
 415 0060 3C46     		movgt	r4, r7
 416 0062 12DD     		ble	.L57
 417              	.LVL66:
 418              	.L54:
 128:screen.c      ****         {
 129:screen.c      ****             SPIM_WriteTxData(hi);
 419              		.loc 1 129 0
 420 0064 3046     		mov	r0, r6
 421 0066 FFF7FEFF 		bl	SPIM_WriteTxData
 422              	.LVL67:
 423              	.L52:
ARM GAS  C:\Users\legoc\AppData\Local\Temp\ccaO6McM.s 			page 11


 130:screen.c      ****             while(SS_Read() != 1){}
 424              		.loc 1 130 0
 425 006a FFF7FEFF 		bl	SS_Read
 426              	.LVL68:
 427 006e 0128     		cmp	r0, #1
 428 0070 FBD1     		bne	.L52
 131:screen.c      ****             SPIM_WriteTxData(lo);
 429              		.loc 1 131 0
 430 0072 2846     		mov	r0, r5
 431 0074 FFF7FEFF 		bl	SPIM_WriteTxData
 432              	.LVL69:
 433              	.L53:
 132:screen.c      ****             while(SS_Read() != 1){}
 434              		.loc 1 132 0
 435 0078 FFF7FEFF 		bl	SS_Read
 436              	.LVL70:
 437 007c 0128     		cmp	r0, #1
 438 007e FBD1     		bne	.L53
 439 0080 013C     		subs	r4, r4, #1
 440              	.LVL71:
 441 0082 A3B2     		uxth	r3, r4
 442 0084 1CB2     		sxth	r4, r3
 443              	.LVL72:
 127:screen.c      ****         {
 444              		.loc 1 127 0
 445 0086 002B     		cmp	r3, #0
 446 0088 ECD1     		bne	.L54
 447              	.LVL73:
 448              	.L57:
 449 008a 08F1FF33 		add	r3, r8, #-1
 450 008e 9BB2     		uxth	r3, r3
 451 0090 0FFA83F8 		sxth	r8, r3
 452              	.LVL74:
 125:screen.c      ****     {
 453              		.loc 1 125 0
 454 0094 002B     		cmp	r3, #0
 455 0096 E1D1     		bne	.L55
 456              	.L51:
 133:screen.c      ****         }
 134:screen.c      ****     }
 135:screen.c      ****     SS_Write(1);
 457              		.loc 1 135 0
 458 0098 0120     		movs	r0, #1
 459              	.LBE44:
 460              	.LBE43:
 136:screen.c      **** 
 137:screen.c      ****     #if defined (SPI_HAS_TRANSACTION)
 138:screen.c      ****       if (hwSPI)      SPI.endTransaction();
 139:screen.c      ****     #endif
 140:screen.c      **** }
 461              		.loc 1 140 0
 462 009a BDE8F041 		pop	{r4, r5, r6, r7, r8, lr}
 463              		.cfi_remember_state
 464              		.cfi_restore 14
 465              		.cfi_restore 8
 466              		.cfi_restore 7
 467              		.cfi_restore 6
ARM GAS  C:\Users\legoc\AppData\Local\Temp\ccaO6McM.s 			page 12


 468              		.cfi_restore 5
 469              		.cfi_restore 4
 470              		.cfi_def_cfa_offset 0
 471              	.LVL75:
 472              	.LBB46:
 473              	.LBB45:
 135:screen.c      **** 
 474              		.loc 1 135 0
 475 009e FFF7FEBF 		b	SS_Write
 476              	.LVL76:
 477              	.L44:
 478              		.cfi_restore_state
 479 00a2 BDE8F081 		pop	{r4, r5, r6, r7, r8, pc}
 480              	.LBE45:
 481              	.LBE46:
 482              		.cfi_endproc
 483              	.LFE4:
 484              		.size	fillRect, .-fillRect
 485 00a6 00BF     		.section	.text.fill_screen,"ax",%progbits
 486              		.align	2
 487              		.global	fill_screen
 488              		.thumb
 489              		.thumb_func
 490              		.type	fill_screen, %function
 491              	fill_screen:
 492              	.LFB5:
 141:screen.c      **** 
 142:screen.c      **** // Fills screen a single color
 143:screen.c      **** void fill_screen(uint16_t color) 
 144:screen.c      **** {
 493              		.loc 1 144 0
 494              		.cfi_startproc
 495              		@ args = 0, pretend = 0, frame = 0
 496              		@ frame_needed = 0, uses_anonymous_args = 0
 497              	.LVL77:
 498              	.LBB51:
 499              	.LBB52:
 500              	.LBB53:
 501              	.LBB54:
 113:screen.c      **** 
 502              		.loc 1 113 0
 503 0000 0021     		movs	r1, #0
 504              	.LBE54:
 505              	.LBE53:
 506              	.LBE52:
 507              	.LBE51:
 508              		.loc 1 144 0
 509 0002 F8B5     		push	{r3, r4, r5, r6, r7, lr}
 510              		.cfi_def_cfa_offset 24
 511              		.cfi_offset 3, -24
 512              		.cfi_offset 4, -20
 513              		.cfi_offset 5, -16
 514              		.cfi_offset 6, -12
 515              		.cfi_offset 7, -8
 516              		.cfi_offset 14, -4
 517              	.LBB67:
 518              	.LBB63:
ARM GAS  C:\Users\legoc\AppData\Local\Temp\ccaO6McM.s 			page 13


 519              	.LBB59:
 520              	.LBB55:
 113:screen.c      **** 
 521              		.loc 1 113 0
 522 0004 F022     		movs	r2, #240
 523              	.LBE55:
 524              	.LBE59:
 525              	.LBE63:
 526              	.LBE67:
 527              		.loc 1 144 0
 528 0006 0546     		mov	r5, r0
 529              	.LVL78:
 530              	.LBB68:
 531              	.LBB64:
 532              	.LBB60:
 533              	.LBB56:
 113:screen.c      **** 
 534              		.loc 1 113 0
 535 0008 4FF4A073 		mov	r3, #320
 536 000c 0846     		mov	r0, r1
 537              	.LVL79:
 538 000e FFF7FEFF 		bl	setAddrWindow
 539              	.LVL80:
 122:screen.c      ****     SS_Write(0);
 540              		.loc 1 122 0
 541 0012 0120     		movs	r0, #1
 542 0014 FFF7FEFF 		bl	D_C_Write
 543              	.LVL81:
 123:screen.c      ****     // Writes color to addresses
 544              		.loc 1 123 0
 545 0018 0020     		movs	r0, #0
 546 001a FFF7FEFF 		bl	SS_Write
 547              	.LVL82:
 116:screen.c      ****     
 548              		.loc 1 116 0
 549 001e 2E0A     		lsrs	r6, r5, #8
 550              	.LVL83:
 123:screen.c      ****     // Writes color to addresses
 551              		.loc 1 123 0
 552 0020 4FF4A077 		mov	r7, #320
 116:screen.c      ****     
 553              		.loc 1 116 0
 554 0024 EDB2     		uxtb	r5, r5
 555              	.LVL84:
 556              	.L64:
 557              	.LBE56:
 558              	.LBE60:
 559              	.LBE64:
 560              	.LBE68:
 561              		.loc 1 144 0
 562 0026 F024     		movs	r4, #240
 563              	.LVL85:
 564              	.L67:
 565              	.LBB69:
 566              	.LBB65:
 567              	.LBB61:
 568              	.LBB57:
ARM GAS  C:\Users\legoc\AppData\Local\Temp\ccaO6McM.s 			page 14


 129:screen.c      ****             while(SS_Read() != 1){}
 569              		.loc 1 129 0
 570 0028 3046     		mov	r0, r6
 571 002a FFF7FEFF 		bl	SPIM_WriteTxData
 572              	.LVL86:
 573              	.L65:
 130:screen.c      ****             SPIM_WriteTxData(lo);
 574              		.loc 1 130 0
 575 002e FFF7FEFF 		bl	SS_Read
 576              	.LVL87:
 577 0032 0128     		cmp	r0, #1
 578 0034 FBD1     		bne	.L65
 131:screen.c      ****             while(SS_Read() != 1){}
 579              		.loc 1 131 0
 580 0036 2846     		mov	r0, r5
 581 0038 FFF7FEFF 		bl	SPIM_WriteTxData
 582              	.LVL88:
 583              	.L66:
 132:screen.c      ****         }
 584              		.loc 1 132 0
 585 003c FFF7FEFF 		bl	SS_Read
 586              	.LVL89:
 587 0040 0128     		cmp	r0, #1
 588 0042 FBD1     		bne	.L66
 589 0044 013C     		subs	r4, r4, #1
 590 0046 A4B2     		uxth	r4, r4
 127:screen.c      ****         {
 591              		.loc 1 127 0
 592 0048 002C     		cmp	r4, #0
 593 004a EDD1     		bne	.L67
 594 004c 013F     		subs	r7, r7, #1
 595 004e BFB2     		uxth	r7, r7
 125:screen.c      ****     {
 596              		.loc 1 125 0
 597 0050 002F     		cmp	r7, #0
 598 0052 E8D1     		bne	.L64
 599              	.LBE57:
 600              	.LBE61:
 601              	.LBE65:
 602              	.LBE69:
 145:screen.c      ****   fillRect(0, 0,  _width, _height, color);
 146:screen.c      **** }
 603              		.loc 1 146 0
 604 0054 BDE8F840 		pop	{r3, r4, r5, r6, r7, lr}
 605              		.cfi_restore 14
 606              		.cfi_restore 7
 607              		.cfi_restore 6
 608              		.cfi_restore 5
 609              		.cfi_restore 4
 610              		.cfi_restore 3
 611              		.cfi_def_cfa_offset 0
 612              	.LVL90:
 613              	.LBB70:
 614              	.LBB66:
 615              	.LBB62:
 616              	.LBB58:
 135:screen.c      **** 
ARM GAS  C:\Users\legoc\AppData\Local\Temp\ccaO6McM.s 			page 15


 617              		.loc 1 135 0
 618 0058 FFF7FEBF 		b	SS_Write
 619              	.LVL91:
 620              	.LBE58:
 621              	.LBE62:
 622              	.LBE66:
 623              	.LBE70:
 624              		.cfi_endproc
 625              	.LFE5:
 626              		.size	fill_screen, .-fill_screen
 627              		.section	.text.StartScreen,"ax",%progbits
 628              		.align	2
 629              		.global	StartScreen
 630              		.thumb
 631              		.thumb_func
 632              		.type	StartScreen, %function
 633              	StartScreen:
 634              	.LFB6:
 147:screen.c      **** 
 148:screen.c      **** // Sends commands and data to configure screen for display
 149:screen.c      **** void StartScreen() 
 150:screen.c      **** {
 635              		.loc 1 150 0
 636              		.cfi_startproc
 637              		@ args = 0, pretend = 0, frame = 0
 638              		@ frame_needed = 0, uses_anonymous_args = 0
 639              	.LVL92:
 640 0000 2DE9F843 		push	{r3, r4, r5, r6, r7, r8, r9, lr}
 641              		.cfi_def_cfa_offset 32
 642              		.cfi_offset 3, -32
 643              		.cfi_offset 4, -28
 644              		.cfi_offset 5, -24
 645              		.cfi_offset 6, -20
 646              		.cfi_offset 7, -16
 647              		.cfi_offset 8, -12
 648              		.cfi_offset 9, -8
 649              		.cfi_offset 14, -4
 151:screen.c      ****     uint8_t        cmd, x, numArgs;
 152:screen.c      ****     const uint8_t *addr = initcmd;
 650              		.loc 1 152 0
 651 0004 1F4E     		ldr	r6, .L91
 150:screen.c      ****     uint8_t        cmd, x, numArgs;
 652              		.loc 1 150 0
 653 0006 EF24     		movs	r4, #239
 654              	.LVL93:
 655              	.L81:
 656              	.LBB75:
 657              	.LBB76:
  46:screen.c      ****     SPIM_WriteTxData(command);
 658              		.loc 1 46 0
 659 0008 0020     		movs	r0, #0
 660 000a FFF7FEFF 		bl	D_C_Write
 661              	.LVL94:
  47:screen.c      ****     while(SS_Read() != 0){}
 662              		.loc 1 47 0
 663 000e 2046     		mov	r0, r4
 664 0010 FFF7FEFF 		bl	SPIM_WriteTxData
ARM GAS  C:\Users\legoc\AppData\Local\Temp\ccaO6McM.s 			page 16


 665              	.LVL95:
 666              	.L74:
  48:screen.c      ****     while(SS_Read() != 1){}
 667              		.loc 1 48 0
 668 0014 FFF7FEFF 		bl	SS_Read
 669              	.LVL96:
 670 0018 0028     		cmp	r0, #0
 671 001a FBD1     		bne	.L74
 672              	.L75:
  49:screen.c      **** }
 673              		.loc 1 49 0
 674 001c FFF7FEFF 		bl	SS_Read
 675              	.LVL97:
 676 0020 0128     		cmp	r0, #1
 677 0022 FBD1     		bne	.L75
 678              	.LBE76:
 679              	.LBE75:
 153:screen.c      ****     
 154:screen.c      ****     // Iterates through cmd/data array
 155:screen.c      ****     while((cmd = pgm_read_byte(addr++)) > 0) 
 156:screen.c      ****     {
 157:screen.c      ****         writecommand(cmd);
 158:screen.c      ****         x       = pgm_read_byte(addr++);
 680              		.loc 1 158 0
 681 0024 06F10208 		add	r8, r6, #2
 682              	.LVL98:
 683 0028 4446     		mov	r4, r8
 684 002a 96F80190 		ldrb	r9, [r6, #1]	@ zero_extendqisi2
 685              	.LVL99:
 686 002e 09F07F07 		and	r7, r9, #127
 687 0032 BB1C     		adds	r3, r7, #2
 688 0034 1E44     		add	r6, r6, r3
 689              	.LVL100:
 690              	.L76:
 159:screen.c      ****         numArgs = x & 0x7F;
 160:screen.c      ****         while(numArgs--)
 691              		.loc 1 160 0
 692 0036 B442     		cmp	r4, r6
 693 0038 14D0     		beq	.L89
 161:screen.c      ****         {
 162:screen.c      ****             writedata(pgm_read_byte(addr++));
 694              		.loc 1 162 0
 695 003a 14F8015B 		ldrb	r5, [r4], #1	@ zero_extendqisi2
 696              	.LVL101:
 697              	.LBB77:
 698              	.LBB78:
  56:screen.c      ****     SPIM_WriteTxData(data);
 699              		.loc 1 56 0
 700 003e 0120     		movs	r0, #1
 701 0040 FFF7FEFF 		bl	D_C_Write
 702              	.LVL102:
  57:screen.c      ****     while(SS_Read() != 0){}
 703              		.loc 1 57 0
 704 0044 2846     		mov	r0, r5
 705 0046 FFF7FEFF 		bl	SPIM_WriteTxData
 706              	.LVL103:
 707              	.L77:
ARM GAS  C:\Users\legoc\AppData\Local\Temp\ccaO6McM.s 			page 17


  58:screen.c      ****     while(SS_Read() != 1){}
 708              		.loc 1 58 0
 709 004a FFF7FEFF 		bl	SS_Read
 710              	.LVL104:
 711 004e 0028     		cmp	r0, #0
 712 0050 FBD1     		bne	.L77
 713              	.L78:
  59:screen.c      **** }
 714              		.loc 1 59 0
 715 0052 FFF7FEFF 		bl	SS_Read
 716              	.LVL105:
 717 0056 0128     		cmp	r0, #1
 718 0058 EDD0     		beq	.L76
 719 005a FFF7FEFF 		bl	SS_Read
 720              	.LVL106:
 721 005e 0128     		cmp	r0, #1
 722 0060 F7D1     		bne	.L78
 723 0062 E8E7     		b	.L76
 724              	.LVL107:
 725              	.L89:
 726              	.LBE78:
 727              	.LBE77:
 163:screen.c      ****         }
 164:screen.c      ****         if(x & 0x80) CyDelay(120);
 728              		.loc 1 164 0
 729 0064 19F0800F 		tst	r9, #128
 730 0068 08EB0706 		add	r6, r8, r7
 731              	.LVL108:
 732 006c 05D1     		bne	.L90
 733              	.L80:
 734 006e 18F80740 		ldrb	r4, [r8, r7]	@ zero_extendqisi2
 735              	.LVL109:
 155:screen.c      ****     {
 736              		.loc 1 155 0
 737 0072 002C     		cmp	r4, #0
 738 0074 C8D1     		bne	.L81
 165:screen.c      ****     }
 166:screen.c      **** }
 739              		.loc 1 166 0
 740 0076 BDE8F883 		pop	{r3, r4, r5, r6, r7, r8, r9, pc}
 741              	.LVL110:
 742              	.L90:
 164:screen.c      ****     }
 743              		.loc 1 164 0 discriminator 1
 744 007a 7820     		movs	r0, #120
 745 007c FFF7FEFF 		bl	CyDelay
 746              	.LVL111:
 747 0080 F5E7     		b	.L80
 748              	.L92:
 749 0082 00BF     		.align	2
 750              	.L91:
 751 0084 00000000 		.word	.LANCHOR0
 752              		.cfi_endproc
 753              	.LFE6:
 754              		.size	StartScreen, .-StartScreen
 755              		.section	.text.change_pixel,"ax",%progbits
 756              		.align	2
ARM GAS  C:\Users\legoc\AppData\Local\Temp\ccaO6McM.s 			page 18


 757              		.global	change_pixel
 758              		.thumb
 759              		.thumb_func
 760              		.type	change_pixel, %function
 761              	change_pixel:
 762              	.LFB7:
 167:screen.c      **** 
 168:screen.c      **** void change_pixel(int16_t x, int16_t y, uint16_t color)
 169:screen.c      **** {
 763              		.loc 1 169 0
 764              		.cfi_startproc
 765              		@ args = 0, pretend = 0, frame = 0
 766              		@ frame_needed = 0, uses_anonymous_args = 0
 767              	.LVL112:
 170:screen.c      ****     //Make sure pixel is on screen
 171:screen.c      ****     if((x < 0) ||(x >= _width) || (y < 0) || (y >= _height)) return;
 768              		.loc 1 171 0
 769 0000 80B2     		uxth	r0, r0
 770 0002 EF28     		cmp	r0, #239
 771 0004 03D8     		bhi	.L100
 772              		.loc 1 171 0 is_stmt 0 discriminator 2
 773 0006 89B2     		uxth	r1, r1
 774 0008 B1F5A07F 		cmp	r1, #320
 775 000c 00D3     		bcc	.L101
 776              	.LVL113:
 777              	.L100:
 778 000e 7047     		bx	lr
 779              	.L101:
 169:screen.c      ****     //Make sure pixel is on screen
 780              		.loc 1 169 0 is_stmt 1
 781 0010 10B5     		push	{r4, lr}
 782              		.cfi_def_cfa_offset 8
 783              		.cfi_offset 4, -8
 784              		.cfi_offset 14, -4
 785 0012 1446     		mov	r4, r2
 172:screen.c      **** 
 173:screen.c      ****     //Sets memory address to write to
 174:screen.c      ****     setAddrWindow(x,y,1,1);
 786              		.loc 1 174 0
 787 0014 0123     		movs	r3, #1
 788 0016 1A46     		mov	r2, r3
 789              	.LVL114:
 790 0018 FFF7FEFF 		bl	setAddrWindow
 791              	.LVL115:
 175:screen.c      **** 
 176:screen.c      ****     #if defined (SPI_HAS_TRANSACTION)
 177:screen.c      ****         if (hwSPI)     SPI.beginTransaction(mySPISettings);
 178:screen.c      ****     #endif
 179:screen.c      **** 
 180:screen.c      ****     //Writes 2-byte color to memory
 181:screen.c      ****     D_C_Write(1);
 792              		.loc 1 181 0
 793 001c 0120     		movs	r0, #1
 794 001e FFF7FEFF 		bl	D_C_Write
 795              	.LVL116:
 182:screen.c      ****     SS_Write(0);
 796              		.loc 1 182 0
ARM GAS  C:\Users\legoc\AppData\Local\Temp\ccaO6McM.s 			page 19


 797 0022 0020     		movs	r0, #0
 798 0024 FFF7FEFF 		bl	SS_Write
 799              	.LVL117:
 183:screen.c      ****     SPIM_WriteTxData(color >> 8);
 800              		.loc 1 183 0
 801 0028 200A     		lsrs	r0, r4, #8
 802 002a FFF7FEFF 		bl	SPIM_WriteTxData
 803              	.LVL118:
 804              	.L95:
 184:screen.c      ****     while(SS_Read() != 1){}
 805              		.loc 1 184 0 discriminator 1
 806 002e FFF7FEFF 		bl	SS_Read
 807              	.LVL119:
 808 0032 0128     		cmp	r0, #1
 809 0034 FBD1     		bne	.L95
 810              	.LVL120:
 811              	.LBB81:
 812              	.LBB82:
 185:screen.c      ****     SPIM_WriteTxData(color);
 813              		.loc 1 185 0
 814 0036 E0B2     		uxtb	r0, r4
 815 0038 FFF7FEFF 		bl	SPIM_WriteTxData
 816              	.LVL121:
 817              	.L96:
 186:screen.c      ****     while(SS_Read() != 1){}
 818              		.loc 1 186 0
 819 003c FFF7FEFF 		bl	SS_Read
 820              	.LVL122:
 821 0040 0128     		cmp	r0, #1
 822 0042 FBD1     		bne	.L96
 823              	.LBE82:
 824              	.LBE81:
 187:screen.c      ****     SS_Write(1);
 188:screen.c      **** 
 189:screen.c      ****     #if defined (SPI_HAS_TRANSACTION)
 190:screen.c      ****         if (hwSPI)     SPI.endTransaction();
 191:screen.c      ****     #endif
 192:screen.c      **** }
 825              		.loc 1 192 0
 826 0044 BDE81040 		pop	{r4, lr}
 827              		.cfi_restore 14
 828              		.cfi_restore 4
 829              		.cfi_def_cfa_offset 0
 830              	.LVL123:
 831              	.LBB84:
 832              	.LBB83:
 187:screen.c      ****     SS_Write(1);
 833              		.loc 1 187 0
 834 0048 FFF7FEBF 		b	SS_Write
 835              	.LVL124:
 836              	.LBE83:
 837              	.LBE84:
 838              		.cfi_endproc
 839              	.LFE7:
 840              		.size	change_pixel, .-change_pixel
 841              		.section	.text.draw_pixel,"ax",%progbits
 842              		.align	2
ARM GAS  C:\Users\legoc\AppData\Local\Temp\ccaO6McM.s 			page 20


 843              		.global	draw_pixel
 844              		.thumb
 845              		.thumb_func
 846              		.type	draw_pixel, %function
 847              	draw_pixel:
 848              	.LFB8:
 193:screen.c      **** 
 194:screen.c      **** // Changes pixel color at specified coordinates
 195:screen.c      **** void draw_pixel(int16_t x, int16_t y, uint16_t color) 
 196:screen.c      **** {    
 849              		.loc 1 196 0
 850              		.cfi_startproc
 851              		@ args = 0, pretend = 0, frame = 0
 852              		@ frame_needed = 0, uses_anonymous_args = 0
 853              	.LVL125:
 197:screen.c      ****     change_pixel(239-y, 319-x, color);
 854              		.loc 1 197 0
 855 0000 C1F1EF01 		rsb	r1, r1, #239
 856              	.LVL126:
 196:screen.c      ****     change_pixel(239-y, 319-x, color);
 857              		.loc 1 196 0
 858 0004 38B5     		push	{r3, r4, r5, lr}
 859              		.cfi_def_cfa_offset 16
 860              		.cfi_offset 3, -16
 861              		.cfi_offset 4, -12
 862              		.cfi_offset 5, -8
 863              		.cfi_offset 14, -4
 864              		.loc 1 197 0
 865 0006 8CB2     		uxth	r4, r1
 866              	.LVL127:
 867              	.LBB89:
 868              	.LBB90:
 171:screen.c      **** 
 869              		.loc 1 171 0
 870 0008 EF2C     		cmp	r4, #239
 871 000a 24D8     		bhi	.L102
 872              	.LBE90:
 873              	.LBE89:
 874              		.loc 1 197 0
 875 000c C0F59F70 		rsb	r0, r0, #318
 876              	.LVL128:
 877 0010 0130     		adds	r0, r0, #1
 878 0012 81B2     		uxth	r1, r0
 879              	.LBB97:
 880              	.LBB95:
 171:screen.c      **** 
 881              		.loc 1 171 0
 882 0014 B1F5A07F 		cmp	r1, #320
 883 0018 1DD2     		bcs	.L102
 884 001a 1546     		mov	r5, r2
 174:screen.c      **** 
 885              		.loc 1 174 0
 886 001c 0123     		movs	r3, #1
 887 001e 1A46     		mov	r2, r3
 888              	.LVL129:
 889 0020 2046     		mov	r0, r4
 890 0022 FFF7FEFF 		bl	setAddrWindow
ARM GAS  C:\Users\legoc\AppData\Local\Temp\ccaO6McM.s 			page 21


 891              	.LVL130:
 181:screen.c      ****     SS_Write(0);
 892              		.loc 1 181 0
 893 0026 0120     		movs	r0, #1
 894 0028 FFF7FEFF 		bl	D_C_Write
 895              	.LVL131:
 182:screen.c      ****     SPIM_WriteTxData(color >> 8);
 896              		.loc 1 182 0
 897 002c 0020     		movs	r0, #0
 898 002e FFF7FEFF 		bl	SS_Write
 899              	.LVL132:
 183:screen.c      ****     while(SS_Read() != 1){}
 900              		.loc 1 183 0
 901 0032 280A     		lsrs	r0, r5, #8
 902 0034 FFF7FEFF 		bl	SPIM_WriteTxData
 903              	.LVL133:
 904              	.L104:
 184:screen.c      ****     SPIM_WriteTxData(color);
 905              		.loc 1 184 0
 906 0038 FFF7FEFF 		bl	SS_Read
 907              	.LVL134:
 908 003c 0128     		cmp	r0, #1
 909 003e FBD1     		bne	.L104
 910              	.LVL135:
 911              	.LBB91:
 912              	.LBB92:
 185:screen.c      ****     while(SS_Read() != 1){}
 913              		.loc 1 185 0
 914 0040 E8B2     		uxtb	r0, r5
 915 0042 FFF7FEFF 		bl	SPIM_WriteTxData
 916              	.LVL136:
 917              	.L105:
 186:screen.c      ****     SS_Write(1);
 918              		.loc 1 186 0
 919 0046 FFF7FEFF 		bl	SS_Read
 920              	.LVL137:
 921 004a 0128     		cmp	r0, #1
 922 004c FBD1     		bne	.L105
 923              	.LBE92:
 924              	.LBE91:
 925              	.LBE95:
 926              	.LBE97:
 198:screen.c      **** //    change_pixel(y, x, color);
 199:screen.c      **** }
 927              		.loc 1 199 0
 928 004e BDE83840 		pop	{r3, r4, r5, lr}
 929              		.cfi_remember_state
 930              		.cfi_restore 14
 931              		.cfi_restore 5
 932              		.cfi_restore 4
 933              		.cfi_restore 3
 934              		.cfi_def_cfa_offset 0
 935              	.LVL138:
 936              	.LBB98:
 937              	.LBB96:
 938              	.LBB94:
 939              	.LBB93:
ARM GAS  C:\Users\legoc\AppData\Local\Temp\ccaO6McM.s 			page 22


 187:screen.c      **** 
 940              		.loc 1 187 0
 941 0052 FFF7FEBF 		b	SS_Write
 942              	.LVL139:
 943              	.L102:
 944              		.cfi_restore_state
 945 0056 38BD     		pop	{r3, r4, r5, pc}
 946              	.LBE93:
 947              	.LBE94:
 948              	.LBE96:
 949              	.LBE98:
 950              		.cfi_endproc
 951              	.LFE8:
 952              		.size	draw_pixel, .-draw_pixel
 953              		.section	.text.write_line,"ax",%progbits
 954              		.align	2
 955              		.global	write_line
 956              		.thumb
 957              		.thumb_func
 958              		.type	write_line, %function
 959              	write_line:
 960              	.LFB9:
 200:screen.c      **** 
 201:screen.c      **** // Draws 1 pixel lines on the screen from one coordinate to another
 202:screen.c      **** void write_line(int16_t x0, int16_t y0, int16_t x1, int16_t y1,
 203:screen.c      ****         uint16_t color) 
 204:screen.c      **** {
 961              		.loc 1 204 0
 962              		.cfi_startproc
 963              		@ args = 4, pretend = 0, frame = 24
 964              		@ frame_needed = 0, uses_anonymous_args = 0
 965              	.LVL140:
 966 0000 2DE9F04F 		push	{r4, r5, r6, r7, r8, r9, r10, fp, lr}
 967              		.cfi_def_cfa_offset 36
 968              		.cfi_offset 4, -36
 969              		.cfi_offset 5, -32
 970              		.cfi_offset 6, -28
 971              		.cfi_offset 7, -24
 972              		.cfi_offset 8, -20
 973              		.cfi_offset 9, -16
 974              		.cfi_offset 10, -12
 975              		.cfi_offset 11, -8
 976              		.cfi_offset 14, -4
 205:screen.c      ****     int16_t steep = abs(y1 - y0) > abs(x1 - x0);
 977              		.loc 1 205 0
 978 0004 C1EB030A 		rsb	r10, r1, r3
 979 0008 C0EB020B 		rsb	fp, r0, r2
 980 000c BAF1000F 		cmp	r10, #0
 981 0010 B8BF     		it	lt
 982 0012 CAF1000A 		rsblt	r10, r10, #0
 983 0016 BBF1000F 		cmp	fp, #0
 984 001a B8BF     		it	lt
 985 001c CBF1000B 		rsblt	fp, fp, #0
 986              	.LVL141:
 204:screen.c      ****     int16_t steep = abs(y1 - y0) > abs(x1 - x0);
 987              		.loc 1 204 0
 988 0020 87B0     		sub	sp, sp, #28
ARM GAS  C:\Users\legoc\AppData\Local\Temp\ccaO6McM.s 			page 23


 989              		.cfi_def_cfa_offset 64
 206:screen.c      ****     if (steep) 
 990              		.loc 1 206 0
 991 0022 DA45     		cmp	r10, fp
 204:screen.c      ****     int16_t steep = abs(y1 - y0) > abs(x1 - x0);
 992              		.loc 1 204 0
 993 0024 9146     		mov	r9, r2
 205:screen.c      ****     int16_t steep = abs(y1 - y0) > abs(x1 - x0);
 994              		.loc 1 205 0
 995 0026 1446     		mov	r4, r2
 204:screen.c      ****     int16_t steep = abs(y1 - y0) > abs(x1 - x0);
 996              		.loc 1 204 0
 997 0028 8846     		mov	r8, r1
 998 002a BDF84020 		ldrh	r2, [sp, #64]
 999              	.LVL142:
 1000              		.loc 1 206 0
 1001 002e 00F39380 		bgt	.L123
 1002 0032 0546     		mov	r5, r0
 1003 0034 5146     		mov	r1, r10
 1004              	.LVL143:
 1005 0036 1C46     		mov	r4, r3
 1006 0038 4046     		mov	r0, r8
 1007              	.LVL144:
 1008              	.L110:
 207:screen.c      ****     {
 208:screen.c      ****         _swap_int16_t(x0, y0);
 209:screen.c      ****         _swap_int16_t(x1, y1);
 210:screen.c      ****     }
 211:screen.c      ****     if (x0 > x1)
 1009              		.loc 1 211 0
 1010 003a 4D45     		cmp	r5, r9
 1011 003c 09DD     		ble	.L111
 1012 003e 4746     		mov	r7, r8
 1013 0040 2E46     		mov	r6, r5
 1014              	.LBB115:
 212:screen.c      ****     {
 213:screen.c      ****         _swap_int16_t(x0, x1);
 214:screen.c      ****         _swap_int16_t(y0, y1);
 1015              		.loc 1 214 0
 1016 0042 9846     		mov	r8, r3
 1017              	.LVL145:
 1018              	.LBE115:
 211:screen.c      ****     {
 1019              		.loc 1 211 0
 1020 0044 4D46     		mov	r5, r9
 1021              	.LVL146:
 1022              	.LBB116:
 1023              		.loc 1 214 0
 1024 0046 3B46     		mov	r3, r7
 1025              	.LVL147:
 1026              	.LBE116:
 211:screen.c      ****     {
 1027              		.loc 1 211 0
 1028 0048 B146     		mov	r9, r6
 1029              	.LVL148:
 1030 004a 011B     		subs	r1, r0, r4
 1031 004c 0029     		cmp	r1, #0
ARM GAS  C:\Users\legoc\AppData\Local\Temp\ccaO6McM.s 			page 24


 1032 004e B8BF     		it	lt
 1033 0050 4942     		rsblt	r1, r1, #0
 1034              	.L111:
 1035              	.LVL149:
 215:screen.c      ****     }
 216:screen.c      **** 
 217:screen.c      ****     int16_t dx, dy;
 218:screen.c      ****     dx = x1 - x0;
 1036              		.loc 1 218 0
 1037 0052 AEB2     		uxth	r6, r5
 1038 0054 C6EB0900 		rsb	r0, r6, r9
 1039 0058 80B2     		uxth	r0, r0
 219:screen.c      ****     dy = abs(y1 - y0);
 220:screen.c      **** 
 221:screen.c      ****     int16_t err = dx / 2;
 1040              		.loc 1 221 0
 1041 005a 04B2     		sxth	r4, r0
 1042 005c 04EBD474 		add	r4, r4, r4, lsr #31
 222:screen.c      ****     int16_t ystep;
 223:screen.c      **** 
 224:screen.c      ****     if (y0 < y1) 
 1043              		.loc 1 224 0
 1044 0060 4345     		cmp	r3, r8
 218:screen.c      ****     dy = abs(y1 - y0);
 1045              		.loc 1 218 0
 1046 0062 0290     		str	r0, [sp, #8]
 1047              	.LVL150:
 221:screen.c      ****     int16_t ystep;
 1048              		.loc 1 221 0
 1049 0064 4FEA6404 		asr	r4, r4, #1
 1050              	.LVL151:
 1051              		.loc 1 224 0
 1052 0068 70DD     		ble	.L135
 1053 006a 0123     		movs	r3, #1
 1054              	.LVL152:
 1055 006c 0393     		str	r3, [sp, #12]
 1056              	.L112:
 1057 006e 8BB2     		uxth	r3, r1
 1058 0070 C6F59F76 		rsb	r6, r6, #318
 1059 0074 0193     		str	r3, [sp, #4]
 1060              	.LBB117:
 1061              	.LBB118:
 1062              	.LBB119:
 1063              	.LBB120:
 183:screen.c      ****     while(SS_Read() != 1){}
 1064              		.loc 1 183 0
 1065 0076 130A     		lsrs	r3, r2, #8
 1066 0078 0136     		adds	r6, r6, #1
 1067 007a 0493     		str	r3, [sp, #16]
 1068              	.LBE120:
 1069              	.LBE119:
 1070              	.LBE118:
 1071              	.LBE117:
 1072              	.LBB130:
 1073              	.LBB131:
 1074              	.LBB132:
 1075              	.LBB133:
ARM GAS  C:\Users\legoc\AppData\Local\Temp\ccaO6McM.s 			page 25


 1076              	.LBB134:
 1077              	.LBB135:
 185:screen.c      ****     while(SS_Read() != 1){}
 1078              		.loc 1 185 0
 1079 007c D3B2     		uxtb	r3, r2
 1080 007e B6B2     		uxth	r6, r6
 1081 0080 0593     		str	r3, [sp, #20]
 1082              	.LVL153:
 1083              	.L120:
 1084              	.LBE135:
 1085              	.LBE134:
 1086              	.LBE133:
 1087              	.LBE132:
 1088              	.LBE131:
 1089              	.LBE130:
 225:screen.c      ****     {
 226:screen.c      ****         ystep = 1;
 227:screen.c      ****     } else {
 228:screen.c      ****         ystep = -1;
 229:screen.c      ****     }
 230:screen.c      **** 
 231:screen.c      ****     for (; x0<=x1; x0++) 
 232:screen.c      ****     {
 233:screen.c      ****         if (steep) 
 1090              		.loc 1 233 0
 1091 0082 DA45     		cmp	r10, fp
 1092 0084 36DD     		ble	.L113
 1093              	.LVL154:
 1094              	.LBB146:
 1095              	.LBB129:
 197:screen.c      **** //    change_pixel(y, x, color);
 1096              		.loc 1 197 0
 1097 0086 A6F15000 		sub	r0, r6, #80
 1098 008a 80B2     		uxth	r0, r0
 1099              	.LBB126:
 1100              	.LBB123:
 171:screen.c      **** 
 1101              		.loc 1 171 0
 1102 008c EF28     		cmp	r0, #239
 1103              	.LBE123:
 1104              	.LBE126:
 197:screen.c      **** //    change_pixel(y, x, color);
 1105              		.loc 1 197 0
 1106 008e 1FFA88F7 		uxth	r7, r8
 1107              	.LVL155:
 1108              	.LBB127:
 1109              	.LBB124:
 171:screen.c      **** 
 1110              		.loc 1 171 0
 1111 0092 20D8     		bhi	.L114
 1112              	.LBE124:
 1113              	.LBE127:
 197:screen.c      **** //    change_pixel(y, x, color);
 1114              		.loc 1 197 0
 1115 0094 C7F59F71 		rsb	r1, r7, #318
 1116 0098 0131     		adds	r1, r1, #1
 1117 009a 89B2     		uxth	r1, r1
ARM GAS  C:\Users\legoc\AppData\Local\Temp\ccaO6McM.s 			page 26


 1118              	.LBB128:
 1119              	.LBB125:
 171:screen.c      **** 
 1120              		.loc 1 171 0
 1121 009c B1F5A07F 		cmp	r1, #320
 1122 00a0 19D2     		bcs	.L114
 174:screen.c      **** 
 1123              		.loc 1 174 0
 1124 00a2 0123     		movs	r3, #1
 1125 00a4 1A46     		mov	r2, r3
 1126 00a6 FFF7FEFF 		bl	setAddrWindow
 1127              	.LVL156:
 181:screen.c      ****     SS_Write(0);
 1128              		.loc 1 181 0
 1129 00aa 0120     		movs	r0, #1
 1130 00ac FFF7FEFF 		bl	D_C_Write
 1131              	.LVL157:
 182:screen.c      ****     SPIM_WriteTxData(color >> 8);
 1132              		.loc 1 182 0
 1133 00b0 0020     		movs	r0, #0
 1134 00b2 FFF7FEFF 		bl	SS_Write
 1135              	.LVL158:
 183:screen.c      ****     while(SS_Read() != 1){}
 1136              		.loc 1 183 0
 1137 00b6 0498     		ldr	r0, [sp, #16]
 1138 00b8 FFF7FEFF 		bl	SPIM_WriteTxData
 1139              	.LVL159:
 1140              	.L115:
 184:screen.c      ****     SPIM_WriteTxData(color);
 1141              		.loc 1 184 0
 1142 00bc FFF7FEFF 		bl	SS_Read
 1143              	.LVL160:
 1144 00c0 0128     		cmp	r0, #1
 1145 00c2 FBD1     		bne	.L115
 1146              	.LVL161:
 1147              	.LBB121:
 1148              	.LBB122:
 185:screen.c      ****     while(SS_Read() != 1){}
 1149              		.loc 1 185 0
 1150 00c4 0598     		ldr	r0, [sp, #20]
 1151 00c6 FFF7FEFF 		bl	SPIM_WriteTxData
 1152              	.LVL162:
 1153              	.L116:
 186:screen.c      ****     SS_Write(1);
 1154              		.loc 1 186 0
 1155 00ca FFF7FEFF 		bl	SS_Read
 1156              	.LVL163:
 1157 00ce 0128     		cmp	r0, #1
 1158 00d0 FBD1     		bne	.L116
 1159              	.LVL164:
 1160              	.L133:
 1161              	.LBE122:
 1162              	.LBE121:
 1163              	.LBE125:
 1164              	.LBE128:
 1165              	.LBE129:
 1166              	.LBE146:
ARM GAS  C:\Users\legoc\AppData\Local\Temp\ccaO6McM.s 			page 27


 1167              	.LBB147:
 1168              	.LBB144:
 1169              	.LBB142:
 1170              	.LBB140:
 1171              	.LBB138:
 1172              	.LBB136:
 187:screen.c      **** 
 1173              		.loc 1 187 0
 1174 00d2 FFF7FEFF 		bl	SS_Write
 1175              	.LVL165:
 1176              	.L114:
 1177              	.LBE136:
 1178              	.LBE138:
 1179              	.LBE140:
 1180              	.LBE142:
 1181              	.LBE144:
 1182              	.LBE147:
 234:screen.c      ****         {
 235:screen.c      ****             draw_pixel(y0, x0, color);
 236:screen.c      ****         } else 
 237:screen.c      ****         {
 238:screen.c      ****             draw_pixel(x0, y0, color);
 239:screen.c      ****         }
 240:screen.c      ****         err -= dy;
 1183              		.loc 1 240 0
 1184 00d6 019B     		ldr	r3, [sp, #4]
 1185 00d8 E41A     		subs	r4, r4, r3
 1186              	.LVL166:
 1187 00da A3B2     		uxth	r3, r4
 1188 00dc 1CB2     		sxth	r4, r3
 1189              	.LVL167:
 241:screen.c      ****         if (err < 0) 
 1190              		.loc 1 241 0
 1191 00de 002C     		cmp	r4, #0
 1192 00e0 2CDB     		blt	.L136
 1193              	.L119:
 1194 00e2 0135     		adds	r5, r5, #1
 1195              	.LVL168:
 1196 00e4 2DB2     		sxth	r5, r5
 1197              	.LVL169:
 1198 00e6 013E     		subs	r6, r6, #1
 231:screen.c      ****     {
 1199              		.loc 1 231 0
 1200 00e8 A945     		cmp	r9, r5
 1201 00ea B6B2     		uxth	r6, r6
 1202 00ec C9DA     		bge	.L120
 1203              	.L109:
 242:screen.c      ****         {
 243:screen.c      ****             y0 += ystep;
 244:screen.c      ****             err += dx;
 245:screen.c      ****         }
 246:screen.c      ****     }
 247:screen.c      **** }
 1204              		.loc 1 247 0
 1205 00ee 07B0     		add	sp, sp, #28
 1206              		.cfi_remember_state
 1207              		.cfi_def_cfa_offset 36
ARM GAS  C:\Users\legoc\AppData\Local\Temp\ccaO6McM.s 			page 28


 1208              		@ sp needed
 1209 00f0 BDE8F08F 		pop	{r4, r5, r6, r7, r8, r9, r10, fp, pc}
 1210              	.LVL170:
 1211              	.L113:
 1212              		.cfi_restore_state
 1213              	.LBB148:
 1214              	.LBB145:
 197:screen.c      **** //    change_pixel(y, x, color);
 1215              		.loc 1 197 0
 1216 00f4 1FFA88F7 		uxth	r7, r8
 1217 00f8 C7F1EF00 		rsb	r0, r7, #239
 1218 00fc 80B2     		uxth	r0, r0
 1219              	.LVL171:
 1220              	.LBB143:
 1221              	.LBB141:
 171:screen.c      **** 
 1222              		.loc 1 171 0
 1223 00fe EF28     		cmp	r0, #239
 1224 0100 E9D8     		bhi	.L114
 1225 0102 B6F5A07F 		cmp	r6, #320
 1226 0106 E6D2     		bcs	.L114
 174:screen.c      **** 
 1227              		.loc 1 174 0
 1228 0108 0123     		movs	r3, #1
 1229 010a 1A46     		mov	r2, r3
 1230 010c 3146     		mov	r1, r6
 1231 010e FFF7FEFF 		bl	setAddrWindow
 1232              	.LVL172:
 181:screen.c      ****     SS_Write(0);
 1233              		.loc 1 181 0
 1234 0112 0120     		movs	r0, #1
 1235 0114 FFF7FEFF 		bl	D_C_Write
 1236              	.LVL173:
 182:screen.c      ****     SPIM_WriteTxData(color >> 8);
 1237              		.loc 1 182 0
 1238 0118 0020     		movs	r0, #0
 1239 011a FFF7FEFF 		bl	SS_Write
 1240              	.LVL174:
 183:screen.c      ****     while(SS_Read() != 1){}
 1241              		.loc 1 183 0
 1242 011e 0498     		ldr	r0, [sp, #16]
 1243 0120 FFF7FEFF 		bl	SPIM_WriteTxData
 1244              	.LVL175:
 1245              	.L117:
 184:screen.c      ****     SPIM_WriteTxData(color);
 1246              		.loc 1 184 0
 1247 0124 FFF7FEFF 		bl	SS_Read
 1248              	.LVL176:
 1249 0128 0128     		cmp	r0, #1
 1250 012a FBD1     		bne	.L117
 1251              	.LVL177:
 1252              	.LBB139:
 1253              	.LBB137:
 185:screen.c      ****     while(SS_Read() != 1){}
 1254              		.loc 1 185 0
 1255 012c 0598     		ldr	r0, [sp, #20]
 1256 012e FFF7FEFF 		bl	SPIM_WriteTxData
ARM GAS  C:\Users\legoc\AppData\Local\Temp\ccaO6McM.s 			page 29


 1257              	.LVL178:
 1258              	.L118:
 186:screen.c      ****     SS_Write(1);
 1259              		.loc 1 186 0
 1260 0132 FFF7FEFF 		bl	SS_Read
 1261              	.LVL179:
 1262 0136 0128     		cmp	r0, #1
 1263 0138 FBD1     		bne	.L118
 1264 013a CAE7     		b	.L133
 1265              	.LVL180:
 1266              	.L136:
 1267              	.LBE137:
 1268              	.LBE139:
 1269              	.LBE141:
 1270              	.LBE143:
 1271              	.LBE145:
 1272              	.LBE148:
 243:screen.c      ****             err += dx;
 1273              		.loc 1 243 0
 1274 013c 039A     		ldr	r2, [sp, #12]
 1275 013e 1744     		add	r7, r7, r2
 244:screen.c      ****         }
 1276              		.loc 1 244 0
 1277 0140 029A     		ldr	r2, [sp, #8]
 243:screen.c      ****             err += dx;
 1278              		.loc 1 243 0
 1279 0142 0FFA87F8 		sxth	r8, r7
 1280              	.LVL181:
 244:screen.c      ****         }
 1281              		.loc 1 244 0
 1282 0146 9C18     		adds	r4, r3, r2
 1283              	.LVL182:
 1284 0148 24B2     		sxth	r4, r4
 1285              	.LVL183:
 1286 014a CAE7     		b	.L119
 1287              	.LVL184:
 1288              	.L135:
 231:screen.c      ****     {
 1289              		.loc 1 231 0 discriminator 1
 1290 014c A945     		cmp	r9, r5
 1291 014e CEDB     		blt	.L109
 231:screen.c      ****     {
 1292              		.loc 1 231 0 is_stmt 0
 1293 0150 4FF6FF73 		movw	r3, #65535
 1294              	.LVL185:
 1295 0154 0393     		str	r3, [sp, #12]
 1296 0156 8AE7     		b	.L112
 1297              	.LVL186:
 1298              	.L123:
 1299              	.LBB149:
 209:screen.c      ****     }
 1300              		.loc 1 209 0 is_stmt 1
 1301 0158 9946     		mov	r9, r3
 1302              	.LBE149:
 1303              	.LBB150:
 208:screen.c      ****         _swap_int16_t(x1, y1);
 1304              		.loc 1 208 0
ARM GAS  C:\Users\legoc\AppData\Local\Temp\ccaO6McM.s 			page 30


 1305 015a 0D46     		mov	r5, r1
 1306              	.LBE150:
 1307              	.LBB151:
 209:screen.c      ****     }
 1308              		.loc 1 209 0
 1309 015c 2346     		mov	r3, r4
 1310              	.LVL187:
 1311              	.LBE151:
 1312 015e 5946     		mov	r1, fp
 1313              	.LVL188:
 1314              	.LBB152:
 208:screen.c      ****         _swap_int16_t(x1, y1);
 1315              		.loc 1 208 0
 1316 0160 8046     		mov	r8, r0
 1317 0162 6AE7     		b	.L110
 1318              	.LBE152:
 1319              		.cfi_endproc
 1320              	.LFE9:
 1321              		.size	write_line, .-write_line
 1322              		.section	.text.drawFastHLine,"ax",%progbits
 1323              		.align	2
 1324              		.global	drawFastHLine
 1325              		.thumb
 1326              		.thumb_func
 1327              		.type	drawFastHLine, %function
 1328              	drawFastHLine:
 1329              	.LFB10:
 248:screen.c      ****     
 249:screen.c      **** // Draws horizontal line
 250:screen.c      **** void drawFastHLine(int16_t x, int16_t y,
 251:screen.c      **** int16_t w, uint16_t color)
 252:screen.c      **** {
 1330              		.loc 1 252 0
 1331              		.cfi_startproc
 1332              		@ args = 0, pretend = 0, frame = 0
 1333              		@ frame_needed = 0, uses_anonymous_args = 0
 1334              	.LVL189:
 1335 0000 00B5     		push	{lr}
 1336              		.cfi_def_cfa_offset 4
 1337              		.cfi_offset 14, -4
 253:screen.c      ****     // Calls write_line
 254:screen.c      ****     write_line(x, y, x+w-1, y, color);
 1338              		.loc 1 254 0
 1339 0002 013A     		subs	r2, r2, #1
 1340              	.LVL190:
 252:screen.c      ****     // Calls write_line
 1341              		.loc 1 252 0
 1342 0004 83B0     		sub	sp, sp, #12
 1343              		.cfi_def_cfa_offset 16
 1344              		.loc 1 254 0
 1345 0006 0244     		add	r2, r2, r0
 1346 0008 0093     		str	r3, [sp]
 1347 000a 12B2     		sxth	r2, r2
 1348 000c 0B46     		mov	r3, r1
 1349              	.LVL191:
 1350 000e FFF7FEFF 		bl	write_line
 1351              	.LVL192:
ARM GAS  C:\Users\legoc\AppData\Local\Temp\ccaO6McM.s 			page 31


 255:screen.c      **** }
 1352              		.loc 1 255 0
 1353 0012 03B0     		add	sp, sp, #12
 1354              		.cfi_def_cfa_offset 4
 1355              		@ sp needed
 1356 0014 5DF804FB 		ldr	pc, [sp], #4
 1357              		.cfi_endproc
 1358              	.LFE10:
 1359              		.size	drawFastHLine, .-drawFastHLine
 1360              		.section	.text.drawFastVLine,"ax",%progbits
 1361              		.align	2
 1362              		.global	drawFastVLine
 1363              		.thumb
 1364              		.thumb_func
 1365              		.type	drawFastVLine, %function
 1366              	drawFastVLine:
 1367              	.LFB11:
 256:screen.c      **** 
 257:screen.c      **** // Draws vertical line
 258:screen.c      **** void drawFastVLine(int16_t x, int16_t y,
 259:screen.c      ****         int16_t h, uint16_t color) 
 260:screen.c      **** {
 1368              		.loc 1 260 0
 1369              		.cfi_startproc
 1370              		@ args = 0, pretend = 0, frame = 0
 1371              		@ frame_needed = 0, uses_anonymous_args = 0
 1372              	.LVL193:
 1373 0000 10B5     		push	{r4, lr}
 1374              		.cfi_def_cfa_offset 8
 1375              		.cfi_offset 4, -8
 1376              		.cfi_offset 14, -4
 261:screen.c      ****     // Calls write_line
 262:screen.c      ****     write_line(x, y, x, y+h-1, color);
 1377              		.loc 1 262 0
 1378 0002 013A     		subs	r2, r2, #1
 1379              	.LVL194:
 1380 0004 5418     		adds	r4, r2, r1
 260:screen.c      ****     // Calls write_line
 1381              		.loc 1 260 0
 1382 0006 82B0     		sub	sp, sp, #8
 1383              		.cfi_def_cfa_offset 16
 1384              		.loc 1 262 0
 1385 0008 0093     		str	r3, [sp]
 1386 000a 0246     		mov	r2, r0
 1387 000c 23B2     		sxth	r3, r4
 1388              	.LVL195:
 1389 000e FFF7FEFF 		bl	write_line
 1390              	.LVL196:
 263:screen.c      **** }
 1391              		.loc 1 263 0
 1392 0012 02B0     		add	sp, sp, #8
 1393              		.cfi_def_cfa_offset 8
 1394              		@ sp needed
 1395 0014 10BD     		pop	{r4, pc}
 1396              		.cfi_endproc
 1397              	.LFE11:
 1398              		.size	drawFastVLine, .-drawFastVLine
ARM GAS  C:\Users\legoc\AppData\Local\Temp\ccaO6McM.s 			page 32


 1399 0016 00BF     		.section	.text.draw_line,"ax",%progbits
 1400              		.align	2
 1401              		.global	draw_line
 1402              		.thumb
 1403              		.thumb_func
 1404              		.type	draw_line, %function
 1405              	draw_line:
 1406              	.LFB12:
 264:screen.c      **** 
 265:screen.c      **** // Calls proper way to draw a line
 266:screen.c      **** void draw_line(int16_t x0, int16_t y0, int16_t x1, int16_t y1,
 267:screen.c      ****         uint16_t color)
 268:screen.c      **** {
 1407              		.loc 1 268 0
 1408              		.cfi_startproc
 1409              		@ args = 4, pretend = 0, frame = 0
 1410              		@ frame_needed = 0, uses_anonymous_args = 0
 1411              	.LVL197:
 1412 0000 F0B5     		push	{r4, r5, r6, r7, lr}
 1413              		.cfi_def_cfa_offset 20
 1414              		.cfi_offset 4, -20
 1415              		.cfi_offset 5, -16
 1416              		.cfi_offset 6, -12
 1417              		.cfi_offset 7, -8
 1418              		.cfi_offset 14, -4
 269:screen.c      ****     // Checks is line is vertical
 270:screen.c      ****     if(x0 == x1)
 1419              		.loc 1 270 0
 1420 0002 9042     		cmp	r0, r2
 268:screen.c      ****     // Checks is line is vertical
 1421              		.loc 1 268 0
 1422 0004 0446     		mov	r4, r0
 1423 0006 0E46     		mov	r6, r1
 1424 0008 1F46     		mov	r7, r3
 1425 000a BDF814E0 		ldrh	lr, [sp, #20]
 1426              		.loc 1 270 0
 1427 000e 16D0     		beq	.L147
 271:screen.c      ****     {
 272:screen.c      ****         if(y0 > y1) _swap_int16_t(y0, y1);
 273:screen.c      ****         drawFastVLine(x0, y0, y1 - y0 + 1, color);
 274:screen.c      ****     } 
 275:screen.c      ****     // Checks if line is horizontal
 276:screen.c      ****     else if(y0 == y1)
 1428              		.loc 1 276 0
 1429 0010 9942     		cmp	r1, r3
 1430 0012 05D0     		beq	.L148
 277:screen.c      ****     {
 278:screen.c      ****         if(x0 > x1) _swap_int16_t(x0, x1);
 279:screen.c      ****         drawFastHLine(x0, y0, x1 - x0 + 1, color);
 280:screen.c      ****     } 
 281:screen.c      ****     else 
 282:screen.c      ****     {
 283:screen.c      ****         write_line(x0, y0, x1, y1, color);
 1431              		.loc 1 283 0
 1432 0014 CDF814E0 		str	lr, [sp, #20]
 1433              	.LVL198:
 284:screen.c      ****     }
ARM GAS  C:\Users\legoc\AppData\Local\Temp\ccaO6McM.s 			page 33


 285:screen.c      **** }
 1434              		.loc 1 285 0
 1435 0018 BDE8F040 		pop	{r4, r5, r6, r7, lr}
 1436              		.cfi_remember_state
 1437              		.cfi_restore 14
 1438              		.cfi_restore 7
 1439              		.cfi_restore 6
 1440              		.cfi_restore 5
 1441              		.cfi_restore 4
 1442              		.cfi_def_cfa_offset 0
 283:screen.c      ****     }
 1443              		.loc 1 283 0
 1444 001c FFF7FEBF 		b	write_line
 1445              	.LVL199:
 1446              	.L148:
 1447              		.cfi_restore_state
 278:screen.c      ****         drawFastHLine(x0, y0, x1 - x0 + 1, color);
 1448              		.loc 1 278 0
 1449 0020 9042     		cmp	r0, r2
 1450 0022 1546     		mov	r5, r2
 1451 0024 01DD     		ble	.L145
 1452 0026 1446     		mov	r4, r2
 1453 0028 0546     		mov	r5, r0
 1454              	.L145:
 1455              	.LVL200:
 1456              	.LBB164:
 1457              	.LBB165:
 254:screen.c      **** }
 1458              		.loc 1 254 0
 1459 002a CDF814E0 		str	lr, [sp, #20]
 1460              	.LVL201:
 1461 002e 2A46     		mov	r2, r5
 1462 0030 2046     		mov	r0, r4
 1463 0032 3346     		mov	r3, r6
 1464              	.LVL202:
 1465 0034 3146     		mov	r1, r6
 1466              	.LVL203:
 1467              	.LBE165:
 1468              	.LBE164:
 1469              		.loc 1 285 0
 1470 0036 BDE8F040 		pop	{r4, r5, r6, r7, lr}
 1471              		.cfi_remember_state
 1472              		.cfi_restore 14
 1473              		.cfi_restore 7
 1474              		.cfi_restore 6
 1475              		.cfi_restore 5
 1476              		.cfi_restore 4
 1477              		.cfi_def_cfa_offset 0
 1478              	.LVL204:
 1479              	.LBB167:
 1480              	.LBB166:
 254:screen.c      **** }
 1481              		.loc 1 254 0
 1482 003a FFF7FEBF 		b	write_line
 1483              	.LVL205:
 1484              	.L147:
 1485              		.cfi_restore_state
ARM GAS  C:\Users\legoc\AppData\Local\Temp\ccaO6McM.s 			page 34


 1486              	.LBE166:
 1487              	.LBE167:
 1488              	.LBB168:
 1489              	.LBB169:
 272:screen.c      ****         drawFastVLine(x0, y0, y1 - y0 + 1, color);
 1490              		.loc 1 272 0
 1491 003e 9942     		cmp	r1, r3
 1492 0040 01DD     		ble	.L143
 1493 0042 3E46     		mov	r6, r7
 1494 0044 0F46     		mov	r7, r1
 1495              	.L143:
 1496              	.LVL206:
 1497              	.LBB170:
 1498              	.LBB171:
 262:screen.c      **** }
 1499              		.loc 1 262 0
 1500 0046 CDF814E0 		str	lr, [sp, #20]
 1501              	.LVL207:
 1502 004a 3B46     		mov	r3, r7
 1503              	.LVL208:
 1504 004c 3146     		mov	r1, r6
 1505              	.LVL209:
 1506 004e 2246     		mov	r2, r4
 1507              	.LVL210:
 1508 0050 2046     		mov	r0, r4
 1509              	.LVL211:
 1510              	.LBE171:
 1511              	.LBE170:
 1512              	.LBE169:
 1513              	.LBE168:
 1514              		.loc 1 285 0
 1515 0052 BDE8F040 		pop	{r4, r5, r6, r7, lr}
 1516              		.cfi_restore 14
 1517              		.cfi_restore 7
 1518              		.cfi_restore 6
 1519              		.cfi_restore 5
 1520              		.cfi_restore 4
 1521              		.cfi_def_cfa_offset 0
 1522              	.LVL212:
 1523              	.LBB175:
 1524              	.LBB174:
 1525              	.LBB173:
 1526              	.LBB172:
 262:screen.c      **** }
 1527              		.loc 1 262 0
 1528 0056 FFF7FEBF 		b	write_line
 1529              	.LVL213:
 1530              	.LBE172:
 1531              	.LBE173:
 1532              	.LBE174:
 1533              	.LBE175:
 1534              		.cfi_endproc
 1535              	.LFE12:
 1536              		.size	draw_line, .-draw_line
 1537              		.global	__aeabi_i2d
 1538              		.global	__aeabi_ddiv
 1539              		.global	__aeabi_d2iz
ARM GAS  C:\Users\legoc\AppData\Local\Temp\ccaO6McM.s 			page 35


 1540 005a 00BF     		.section	.text.draw_coordinates,"ax",%progbits
 1541              		.align	2
 1542              		.global	draw_coordinates
 1543              		.thumb
 1544              		.thumb_func
 1545              		.type	draw_coordinates, %function
 1546              	draw_coordinates:
 1547              	.LFB13:
 286:screen.c      **** 
 287:screen.c      **** void draw_coordinates(int y_max, unsigned int device_selection)
 288:screen.c      **** {
 1548              		.loc 1 288 0
 1549              		.cfi_startproc
 1550              		@ args = 0, pretend = 0, frame = 16
 1551              		@ frame_needed = 0, uses_anonymous_args = 0
 1552              	.LVL214:
 1553 0000 2DE9F04F 		push	{r4, r5, r6, r7, r8, r9, r10, fp, lr}
 1554              		.cfi_def_cfa_offset 36
 1555              		.cfi_offset 4, -36
 1556              		.cfi_offset 5, -32
 1557              		.cfi_offset 6, -28
 1558              		.cfi_offset 7, -24
 1559              		.cfi_offset 8, -20
 1560              		.cfi_offset 9, -16
 1561              		.cfi_offset 10, -12
 1562              		.cfi_offset 11, -8
 1563              		.cfi_offset 14, -4
 1564 0004 87B0     		sub	sp, sp, #28
 1565              		.cfi_def_cfa_offset 64
 1566              		.loc 1 288 0
 1567 0006 0D46     		mov	r5, r1
 1568 0008 8146     		mov	r9, r0
 289:screen.c      ****     
 290:screen.c      ****     int y_max_pixel = (int) 240/(1.25);
 291:screen.c      ****     int five_mA_pixel = (int) (y_max_pixel*5.0/y_max);
 1569              		.loc 1 291 0
 1570 000a FFF7FEFF 		bl	__aeabi_i2d
 1571              	.LVL215:
 1572 000e 0246     		mov	r2, r0
 1573 0010 0B46     		mov	r3, r1
 1574 0012 0020     		movs	r0, #0
 1575 0014 4249     		ldr	r1, .L168
 1576 0016 FFF7FEFF 		bl	__aeabi_ddiv
 1577              	.LVL216:
 1578 001a FFF7FEFF 		bl	__aeabi_d2iz
 1579              	.LVL217:
 1580              	.LBB232:
 1581              	.LBB233:
 1582              	.LBB234:
 254:screen.c      **** }
 1583              		.loc 1 254 0
 1584 001e 4FF6FF74 		movw	r4, #65535
 1585 0022 0A23     		movs	r3, #10
 1586 0024 1946     		mov	r1, r3
 1587 0026 DC22     		movs	r2, #220
 1588              	.LBE234:
 1589              	.LBE233:
ARM GAS  C:\Users\legoc\AppData\Local\Temp\ccaO6McM.s 			page 36


 1590              	.LBE232:
 1591              		.loc 1 291 0
 1592 0028 8046     		mov	r8, r0
 1593              	.LVL218:
 1594              	.LBB237:
 1595              	.LBB236:
 1596              	.LBB235:
 254:screen.c      **** }
 1597              		.loc 1 254 0
 1598 002a 0094     		str	r4, [sp]
 1599 002c 1E20     		movs	r0, #30
 1600              	.LVL219:
 1601 002e FFF7FEFF 		bl	write_line
 1602              	.LVL220:
 1603              	.LBE235:
 1604              	.LBE236:
 1605              	.LBE237:
 1606              	.LBB238:
 1607              	.LBB239:
 1608              	.LBB240:
 1609              	.LBB241:
 262:screen.c      **** }
 1610              		.loc 1 262 0
 1611 0032 1E22     		movs	r2, #30
 1612 0034 C923     		movs	r3, #201
 1613 0036 0094     		str	r4, [sp]
 1614 0038 1046     		mov	r0, r2
 1615 003a 0A21     		movs	r1, #10
 1616 003c FFF7FEFF 		bl	write_line
 1617              	.LVL221:
 1618              	.LBE241:
 1619              	.LBE240:
 1620              	.LBE239:
 1621              	.LBE238:
 292:screen.c      ****     int y_label;
 293:screen.c      ****     int x_label;
 294:screen.c      ****     char string_throwaway_y[10];
 295:screen.c      ****     char string_throwaway_x[4]; //= NULL;
 296:screen.c      ****     //string_print = malloc(sizeof(**string_print)*3);
 297:screen.c      ****     int x_max_step;
 298:screen.c      ****     int i;
 299:screen.c      ****     int k;
 300:screen.c      ****     draw_line(30,10,220,10,WHITE); //draw x axis line
 301:screen.c      ****     draw_line(30,10,30,y_max_pixel+9,WHITE);//draw y axis line
 302:screen.c      ****     
 303:screen.c      ****     if(device_selection < 2)
 304:screen.c      ****     {
 305:screen.c      ****         x_max_step = 189/9;
 1622              		.loc 1 305 0
 1623 0040 012D     		cmp	r5, #1
 1624 0042 8CBF     		ite	hi
 1625 0044 0C27     		movhi	r7, #12
 1626 0046 1527     		movls	r7, #21
 1627              	.LVL222:
 306:screen.c      ****     }
 307:screen.c      ****     else
 308:screen.c      ****     {
ARM GAS  C:\Users\legoc\AppData\Local\Temp\ccaO6McM.s 			page 37


 309:screen.c      ****         x_max_step = 189/15;
 310:screen.c      ****     }
 311:screen.c      ****     
 312:screen.c      ****     if((device_selection)%2 == 0)
 1628              		.loc 1 312 0
 1629 0048 EB07     		lsls	r3, r5, #31
 1630 004a 5CD4     		bmi	.L151
 1631              	.LBB242:
 313:screen.c      ****     {
 314:screen.c      ****         draw_string(230,4,WHITE,"VDS V");
 1632              		.loc 1 314 0
 1633 004c 354B     		ldr	r3, .L168+4
 1634 004e 2246     		mov	r2, r4
 1635 0050 0421     		movs	r1, #4
 1636 0052 E620     		movs	r0, #230
 1637 0054 FFF7FEFF 		bl	draw_string
 1638              	.LVL223:
 315:screen.c      ****         draw_string(3,y_max_pixel + 25,WHITE,"ID MIL A");
 1639              		.loc 1 315 0
 1640 0058 2246     		mov	r2, r4
 1641 005a 334B     		ldr	r3, .L168+8
 1642 005c D921     		movs	r1, #217
 1643 005e 0320     		movs	r0, #3
 1644 0060 FFF7FEFF 		bl	draw_string
 1645              	.LVL224:
 1646              	.L152:
 1647              	.LBE242:
 316:screen.c      ****     }
 317:screen.c      ****     else
 318:screen.c      ****     {
 319:screen.c      ****         draw_string(230,4,WHITE,"VCE V");
 320:screen.c      ****         draw_string(3,y_max_pixel+ 25,WHITE,"IC MIL A");
 321:screen.c      ****     }
 322:screen.c      ****     
 323:screen.c      ****     for(i=1; 5*i <= y_max ;i++)
 1648              		.loc 1 323 0
 1649 0064 B9F1040F 		cmp	r9, #4
 1650 0068 23DD     		ble	.L165
 1651              	.LBB243:
 1652              	.LBB244:
 1653              	.LBB245:
 1654              	.LBB246:
 254:screen.c      **** }
 1655              		.loc 1 254 0
 1656 006a 4FF6FF7B 		movw	fp, #65535
 1657 006e 1FFA88FA 		uxth	r10, r8
 1658 0072 0AF10A04 		add	r4, r10, #10
 1659 0076 A4B2     		uxth	r4, r4
 1660 0078 08F10A06 		add	r6, r8, #10
 1661              	.LBE246:
 1662              	.LBE245:
 1663              	.LBE244:
 1664              	.LBE243:
 1665              		.loc 1 323 0
 1666 007c 0525     		movs	r5, #5
 1667              	.LVL225:
 1668              	.L154:
ARM GAS  C:\Users\legoc\AppData\Local\Temp\ccaO6McM.s 			page 38


 1669              	.LBB250:
 324:screen.c      ****     {
 325:screen.c      ****         y_label =  5 * i;
 326:screen.c      ****         sprintf(string_throwaway_y,"%d", y_label);
 1670              		.loc 1 326 0 discriminator 3
 1671 007e 2A46     		mov	r2, r5
 1672 0080 2A49     		ldr	r1, .L168+12
 1673 0082 03A8     		add	r0, sp, #12
 1674 0084 FFF7FEFF 		bl	sprintf
 1675              	.LVL226:
 327:screen.c      ****         
 328:screen.c      ****         draw_line(30,i*five_mA_pixel+10,220,i*five_mA_pixel+10,WHITE);//draw y major 
 1676              		.loc 1 328 0 discriminator 3
 1677 0088 23B2     		sxth	r3, r4
 1678              	.LVL227:
 1679              	.LBB249:
 1680              	.LBB248:
 1681              	.LBB247:
 254:screen.c      **** }
 1682              		.loc 1 254 0 discriminator 3
 1683 008a 1946     		mov	r1, r3
 1684 008c DC22     		movs	r2, #220
 1685 008e 1E20     		movs	r0, #30
 1686 0090 CDF800B0 		str	fp, [sp]
 1687 0094 FFF7FEFF 		bl	write_line
 1688              	.LVL228:
 1689 0098 0535     		adds	r5, r5, #5
 1690              	.LVL229:
 1691              	.LBE247:
 1692              	.LBE248:
 1693              	.LBE249:
 329:screen.c      ****         draw_string(3,i*five_mA_pixel+10,WHITE,string_throwaway_y);//draw y major label
 1694              		.loc 1 329 0 discriminator 3
 1695 009a 3146     		mov	r1, r6
 1696 009c 03AB     		add	r3, sp, #12
 1697 009e 4FF6FF72 		movw	r2, #65535
 1698 00a2 0320     		movs	r0, #3
 1699 00a4 FFF7FEFF 		bl	draw_string
 1700              	.LVL230:
 1701 00a8 5444     		add	r4, r4, r10
 1702              	.LVL231:
 1703              	.LBE250:
 323:screen.c      ****     {
 1704              		.loc 1 323 0 discriminator 3
 1705 00aa A945     		cmp	r9, r5
 1706 00ac 4644     		add	r6, r6, r8
 1707 00ae A4B2     		uxth	r4, r4
 1708 00b0 E5DA     		bge	.L154
 1709              	.LVL232:
 1710              	.L165:
 330:screen.c      ****         
 331:screen.c      ****     }
 332:screen.c      ****     
 333:screen.c      ****     for(i = 1; i <= 189/x_max_step; i++)
 1711              		.loc 1 333 0
 1712 00b2 4FF0BD08 		mov	r8, #189
 1713              	.LVL233:
ARM GAS  C:\Users\legoc\AppData\Local\Temp\ccaO6McM.s 			page 39


 1714 00b6 98FBF7F8 		sdiv	r8, r8, r7
 1715              	.LBB251:
 1716              	.LBB252:
 1717              	.LBB253:
 1718              	.LBB254:
 1719              	.LBB255:
 262:screen.c      **** }
 1720              		.loc 1 262 0
 1721 00ba 4FF6FF7A 		movw	r10, #65535
 1722 00be 1FFA87F9 		uxth	r9, r7
 1723              	.LVL234:
 1724 00c2 09F11E04 		add	r4, r9, #30
 1725 00c6 07F11E06 		add	r6, r7, #30
 1726              	.LBE255:
 1727              	.LBE254:
 1728              	.LBE253:
 1729              	.LBE252:
 1730              	.LBE251:
 323:screen.c      ****     {
 1731              		.loc 1 323 0
 1732 00ca 0125     		movs	r5, #1
 1733              	.LVL235:
 1734              	.L156:
 1735              	.LBB260:
 334:screen.c      ****     {
 335:screen.c      ****         sprintf(string_throwaway_x,"%i", i);
 1736              		.loc 1 335 0 discriminator 3
 1737 00cc 2A46     		mov	r2, r5
 1738 00ce 1849     		ldr	r1, .L168+16
 1739 00d0 02A8     		add	r0, sp, #8
 1740 00d2 FFF7FEFF 		bl	sprintf
 1741              	.LVL236:
 336:screen.c      ****         draw_line(i*x_max_step+30,10,i*x_max_step+30,y_max_pixel+10,WHITE);//draw x major
 1742              		.loc 1 336 0 discriminator 3
 1743 00d6 22B2     		sxth	r2, r4
 1744              	.LVL237:
 1745              	.LBB259:
 1746              	.LBB258:
 1747              	.LBB257:
 1748              	.LBB256:
 262:screen.c      **** }
 1749              		.loc 1 262 0 discriminator 3
 1750 00d8 1046     		mov	r0, r2
 1751 00da CA23     		movs	r3, #202
 1752 00dc 0A21     		movs	r1, #10
 1753 00de CDF800A0 		str	r10, [sp]
 1754 00e2 FFF7FEFF 		bl	write_line
 1755              	.LVL238:
 1756              	.LBE256:
 1757              	.LBE257:
 1758              	.LBE258:
 1759              	.LBE259:
 1760              	.LBE260:
 333:screen.c      ****     {
 1761              		.loc 1 333 0 discriminator 3
 1762 00e6 0135     		adds	r5, r5, #1
 1763              	.LVL239:
ARM GAS  C:\Users\legoc\AppData\Local\Temp\ccaO6McM.s 			page 40


 1764              	.LBB261:
 337:screen.c      ****         draw_string(i*x_max_step+30,4,WHITE,string_throwaway_x);//draw x major label
 1765              		.loc 1 337 0 discriminator 3
 1766 00e8 3046     		mov	r0, r6
 1767 00ea 02AB     		add	r3, sp, #8
 1768 00ec 4FF6FF72 		movw	r2, #65535
 1769 00f0 0421     		movs	r1, #4
 1770 00f2 FFF7FEFF 		bl	draw_string
 1771              	.LVL240:
 1772 00f6 4C44     		add	r4, r4, r9
 1773              	.LVL241:
 1774              	.LBE261:
 333:screen.c      ****     {
 1775              		.loc 1 333 0 discriminator 3
 1776 00f8 A845     		cmp	r8, r5
 1777 00fa A4B2     		uxth	r4, r4
 1778 00fc 3E44     		add	r6, r6, r7
 1779 00fe E5DA     		bge	.L156
 338:screen.c      ****     }
 339:screen.c      ****         
 340:screen.c      ****     
 341:screen.c      **** }...
 1780              		.loc 1 341 0
 1781 0100 07B0     		add	sp, sp, #28
 1782              		.cfi_remember_state
 1783              		.cfi_def_cfa_offset 36
 1784              		@ sp needed
 1785 0102 BDE8F08F 		pop	{r4, r5, r6, r7, r8, r9, r10, fp, pc}
 1786              	.LVL242:
 1787              	.L151:
 1788              		.cfi_restore_state
 1789              	.LBB262:
 319:screen.c      ****         draw_string(230,4,WHITE,"VCE V");
 1790              		.loc 1 319 0
 1791 0106 2246     		mov	r2, r4
 1792 0108 0A4B     		ldr	r3, .L168+20
 1793 010a 0421     		movs	r1, #4
 1794 010c E620     		movs	r0, #230
 1795 010e FFF7FEFF 		bl	draw_string
 1796              	.LVL243:
 320:screen.c      ****         draw_string(3,y_max_pixel+ 25,WHITE,"IC MIL A");
 1797              		.loc 1 320 0
 1798 0112 2246     		mov	r2, r4
 1799 0114 084B     		ldr	r3, .L168+24
 1800 0116 D921     		movs	r1, #217
 1801 0118 0320     		movs	r0, #3
 1802 011a FFF7FEFF 		bl	draw_string
 1803              	.LVL244:
 1804 011e A1E7     		b	.L152
 1805              	.L169:
 1806              		.align	2
 1807              	.L168:
 1808 0120 00008E40 		.word	1083047936
 1809 0124 00000000 		.word	.LC0
 1810 0128 08000000 		.word	.LC1
 1811 012c 28000000 		.word	.LC4
 1812 0130 2C000000 		.word	.LC5
ARM GAS  C:\Users\legoc\AppData\Local\Temp\ccaO6McM.s 			page 41


 1813 0134 14000000 		.word	.LC2
 1814 0138 1C000000 		.word	.LC3
 1815              	.LBE262:
 1816              		.cfi_endproc
 1817              	.LFE13:
 1818              		.size	draw_coordinates, .-draw_coordinates
 1819              		.section	.rodata
 1820              		.align	2
 1821              		.set	.LANCHOR0,. + 0
 1822              		.type	initcmd, %object
 1823              		.size	initcmd, 111
 1824              	initcmd:
 1825 0000 EF       		.byte	-17
 1826 0001 03       		.byte	3
 1827 0002 03       		.byte	3
 1828 0003 80       		.byte	-128
 1829 0004 02       		.byte	2
 1830 0005 CF       		.byte	-49
 1831 0006 03       		.byte	3
 1832 0007 00       		.byte	0
 1833 0008 C1       		.byte	-63
 1834 0009 30       		.byte	48
 1835 000a ED       		.byte	-19
 1836 000b 04       		.byte	4
 1837 000c 64       		.byte	100
 1838 000d 03       		.byte	3
 1839 000e 12       		.byte	18
 1840 000f 81       		.byte	-127
 1841 0010 E8       		.byte	-24
 1842 0011 03       		.byte	3
 1843 0012 85       		.byte	-123
 1844 0013 00       		.byte	0
 1845 0014 78       		.byte	120
 1846 0015 CB       		.byte	-53
 1847 0016 05       		.byte	5
 1848 0017 39       		.byte	57
 1849 0018 2C       		.byte	44
 1850 0019 00       		.byte	0
 1851 001a 34       		.byte	52
 1852 001b 02       		.byte	2
 1853 001c F7       		.byte	-9
 1854 001d 01       		.byte	1
 1855 001e 20       		.byte	32
 1856 001f EA       		.byte	-22
 1857 0020 02       		.byte	2
 1858 0021 00       		.byte	0
 1859 0022 00       		.byte	0
 1860 0023 C0       		.byte	-64
 1861 0024 01       		.byte	1
 1862 0025 23       		.byte	35
 1863 0026 C1       		.byte	-63
 1864 0027 01       		.byte	1
 1865 0028 10       		.byte	16
 1866 0029 C5       		.byte	-59
 1867 002a 02       		.byte	2
 1868 002b 3E       		.byte	62
 1869 002c 28       		.byte	40
ARM GAS  C:\Users\legoc\AppData\Local\Temp\ccaO6McM.s 			page 42


 1870 002d C7       		.byte	-57
 1871 002e 01       		.byte	1
 1872 002f 86       		.byte	-122
 1873 0030 36       		.byte	54
 1874 0031 01       		.byte	1
 1875 0032 48       		.byte	72
 1876 0033 37       		.byte	55
 1877 0034 01       		.byte	1
 1878 0035 00       		.byte	0
 1879 0036 3A       		.byte	58
 1880 0037 01       		.byte	1
 1881 0038 55       		.byte	85
 1882 0039 B1       		.byte	-79
 1883 003a 02       		.byte	2
 1884 003b 00       		.byte	0
 1885 003c 18       		.byte	24
 1886 003d B6       		.byte	-74
 1887 003e 03       		.byte	3
 1888 003f 08       		.byte	8
 1889 0040 82       		.byte	-126
 1890 0041 27       		.byte	39
 1891 0042 F2       		.byte	-14
 1892 0043 01       		.byte	1
 1893 0044 00       		.byte	0
 1894 0045 26       		.byte	38
 1895 0046 01       		.byte	1
 1896 0047 01       		.byte	1
 1897 0048 E0       		.byte	-32
 1898 0049 0F       		.byte	15
 1899 004a 0F       		.byte	15
 1900 004b 31       		.byte	49
 1901 004c 2B       		.byte	43
 1902 004d 0C       		.byte	12
 1903 004e 0E       		.byte	14
 1904 004f 08       		.byte	8
 1905 0050 4E       		.byte	78
 1906 0051 F1       		.byte	-15
 1907 0052 37       		.byte	55
 1908 0053 07       		.byte	7
 1909 0054 10       		.byte	16
 1910 0055 03       		.byte	3
 1911 0056 0E       		.byte	14
 1912 0057 09       		.byte	9
 1913 0058 00       		.byte	0
 1914 0059 E1       		.byte	-31
 1915 005a 0F       		.byte	15
 1916 005b 00       		.byte	0
 1917 005c 0E       		.byte	14
 1918 005d 14       		.byte	20
 1919 005e 03       		.byte	3
 1920 005f 11       		.byte	17
 1921 0060 07       		.byte	7
 1922 0061 31       		.byte	49
 1923 0062 C1       		.byte	-63
 1924 0063 48       		.byte	72
 1925 0064 08       		.byte	8
 1926 0065 0F       		.byte	15
ARM GAS  C:\Users\legoc\AppData\Local\Temp\ccaO6McM.s 			page 43


 1927 0066 0C       		.byte	12
 1928 0067 31       		.byte	49
 1929 0068 36       		.byte	54
 1930 0069 0F       		.byte	15
 1931 006a 11       		.byte	17
 1932 006b 80       		.byte	-128
 1933 006c 29       		.byte	41
 1934 006d 80       		.byte	-128
 1935 006e 00       		.byte	0
 1936              		.section	.rodata.str1.4,"aMS",%progbits,1
 1937              		.align	2
 1938              	.LC0:
 1939 0000 56445320 		.ascii	"VDS V\000"
 1939      5600
 1940 0006 0000     		.space	2
 1941              	.LC1:
 1942 0008 4944204D 		.ascii	"ID MIL A\000"
 1942      494C2041 
 1942      00
 1943 0011 000000   		.space	3
 1944              	.LC2:
 1945 0014 56434520 		.ascii	"VCE V\000"
 1945      5600
 1946 001a 0000     		.space	2
 1947              	.LC3:
 1948 001c 4943204D 		.ascii	"IC MIL A\000"
 1948      494C2041 
 1948      00
 1949 0025 000000   		.space	3
 1950              	.LC4:
 1951 0028 256400   		.ascii	"%d\000"
 1952 002b 00       		.space	1
 1953              	.LC5:
 1954 002c 256900   		.ascii	"%i\000"
 1955              		.text
 1956              	.Letext0:
 1957              		.file 2 "d:\\psoc\\psoc creator\\4.2\\psoc creator\\import\\gnu\\arm\\5.4.1\\arm-none-eabi\\includ
 1958              		.file 3 "d:\\psoc\\psoc creator\\4.2\\psoc creator\\import\\gnu\\arm\\5.4.1\\arm-none-eabi\\includ
 1959              		.file 4 "font.h"
 1960              		.file 5 "Generated_Source\\PSoC5/D_C.h"
 1961              		.file 6 "Generated_Source\\PSoC5/SPIM.h"
 1962              		.file 7 "Generated_Source\\PSoC5/SS.h"
 1963              		.file 8 "Generated_Source\\PSoC5/CyLib.h"
 1964              		.file 9 "d:\\psoc\\psoc creator\\4.2\\psoc creator\\import\\gnu\\arm\\5.4.1\\arm-none-eabi\\includ