ARM GAS  C:\Users\legoc\AppData\Local\Temp\ccMAvaOS.s 			page 1


   1              		.syntax unified
   2              		.cpu cortex-m3
   3              		.fpu softvfp
   4              		.eabi_attribute 20, 1
   5              		.eabi_attribute 21, 1
   6              		.eabi_attribute 23, 3
   7              		.eabi_attribute 24, 1
   8              		.eabi_attribute 25, 1
   9              		.eabi_attribute 26, 1
  10              		.eabi_attribute 30, 2
  11              		.eabi_attribute 34, 1
  12              		.eabi_attribute 18, 4
  13              		.thumb
  14              		.syntax unified
  15              		.file	"screen.c"
  16              		.text
  17              	.Ltext0:
  18              		.cfi_sections	.debug_frame
  19              		.section	.text.writecommand,"ax",%progbits
  20              		.align	2
  21              		.global	writecommand
  22              		.thumb
  23              		.thumb_func
  24              		.type	writecommand, %function
  25              	writecommand:
  26              	.LFB1:
  27              		.file 1 "screen.c"
   1:screen.c      **** // Steven Andresen
   2:screen.c      **** // Senior Project Fall 2018
   3:screen.c      **** 
   4:screen.c      **** #include "project.h"
   5:screen.c      **** #include "screen.h"
   6:screen.c      **** #include "font.h"
   7:screen.c      **** #include "strings.h"
   8:screen.c      **** #include "string.h"
   9:screen.c      **** #include "stdio.h"
  10:screen.c      **** #include "stdlib.h"
  11:screen.c      **** #include "math.h"
  12:screen.c      **** #include "font.h"
  13:screen.c      **** #include "uifunctions.h"
  14:screen.c      **** 
  15:screen.c      **** // Initialization command/data
  16:screen.c      **** static const uint8_t initcmd[] = {
  17:screen.c      ****   0xEF, 3, 0x03, 0x80, 0x02,
  18:screen.c      ****   0xCF, 3, 0x00, 0xC1, 0x30,
  19:screen.c      ****   0xED, 4, 0x64, 0x03, 0x12, 0x81,
  20:screen.c      ****   0xE8, 3, 0x85, 0x00, 0x78,
  21:screen.c      ****   0xCB, 5, 0x39, 0x2C, 0x00, 0x34, 0x02,
  22:screen.c      ****   0xF7, 1, 0x20,
  23:screen.c      ****   0xEA, 2, 0x00, 0x00,
  24:screen.c      ****   ILI9341_PWCTR1  , 1, 0x23,             // Power control VRH[5:0]
  25:screen.c      ****   ILI9341_PWCTR2  , 1, 0x10,             // Power control SAP[2:0];BT[3:0]
  26:screen.c      ****   ILI9341_VMCTR1  , 2, 0x3e, 0x28,       // VCM control
  27:screen.c      ****   ILI9341_VMCTR2  , 1, 0x86,             // VCM control2
  28:screen.c      ****   ILI9341_MADCTL  , 1, 0x48,             // Memory Access Control
  29:screen.c      ****   ILI9341_VSCRSADD, 1, 0x00,             // Vertical scroll zero
  30:screen.c      ****   ILI9341_PIXFMT  , 1, 0x55,
ARM GAS  C:\Users\legoc\AppData\Local\Temp\ccMAvaOS.s 			page 2


  31:screen.c      ****   ILI9341_FRMCTR1 , 2, 0x00, 0x18,
  32:screen.c      ****   ILI9341_DFUNCTR , 3, 0x08, 0x82, 0x27, // Display Function Control
  33:screen.c      ****   0xF2, 1, 0x00,                         // 3Gamma Function Disable
  34:screen.c      ****   ILI9341_GAMMASET , 1, 0x01,             // Gamma curve selected
  35:screen.c      ****   ILI9341_GMCTRP1 , 15, 0x0F, 0x31, 0x2B, 0x0C, 0x0E, 0x08, // Set Gamma
  36:screen.c      ****     0x4E, 0xF1, 0x37, 0x07, 0x10, 0x03, 0x0E, 0x09, 0x00,
  37:screen.c      ****   ILI9341_GMCTRN1 , 15, 0x00, 0x0E, 0x14, 0x03, 0x11, 0x07, // Set Gamma
  38:screen.c      ****     0x31, 0xC1, 0x48, 0x08, 0x0F, 0x0C, 0x31, 0x36, 0x0F,
  39:screen.c      ****   ILI9341_SLPOUT  , 0x80,                // Exit Sleep
  40:screen.c      ****   ILI9341_DISPON  , 0x80,                // Display on
  41:screen.c      ****   0x00                                   // End of list
  42:screen.c      **** };
  43:screen.c      **** 
  44:screen.c      **** // Write command over SPI buss
  45:screen.c      **** void writecommand(uint8_t command)
  46:screen.c      **** {
  28              		.loc 1 46 0
  29              		.cfi_startproc
  30              		@ args = 0, pretend = 0, frame = 0
  31              		@ frame_needed = 0, uses_anonymous_args = 0
  32              	.LVL0:
  33 0000 10B5     		push	{r4, lr}
  34              		.cfi_def_cfa_offset 8
  35              		.cfi_offset 4, -8
  36              		.cfi_offset 14, -4
  37              		.loc 1 46 0
  38 0002 0446     		mov	r4, r0
  47:screen.c      ****     // Set D_C to low for command
  48:screen.c      ****     D_C_Write(0);
  39              		.loc 1 48 0
  40 0004 0020     		movs	r0, #0
  41              	.LVL1:
  42 0006 FFF7FEFF 		bl	D_C_Write
  43              	.LVL2:
  49:screen.c      ****     SPIM_WriteTxData(command);
  44              		.loc 1 49 0
  45 000a 2046     		mov	r0, r4
  46 000c FFF7FEFF 		bl	SPIM_WriteTxData
  47              	.LVL3:
  48              	.L2:
  50:screen.c      ****     while(SS_Read() != 0){}
  49              		.loc 1 50 0 discriminator 1
  50 0010 FFF7FEFF 		bl	SS_Read
  51              	.LVL4:
  52 0014 0028     		cmp	r0, #0
  53 0016 FBD1     		bne	.L2
  54              	.L3:
  51:screen.c      ****     while(SS_Read() != 1){}
  55              		.loc 1 51 0 discriminator 1
  56 0018 FFF7FEFF 		bl	SS_Read
  57              	.LVL5:
  58 001c 0128     		cmp	r0, #1
  59 001e FBD1     		bne	.L3
  52:screen.c      **** }
  60              		.loc 1 52 0
  61 0020 10BD     		pop	{r4, pc}
  62              		.cfi_endproc
ARM GAS  C:\Users\legoc\AppData\Local\Temp\ccMAvaOS.s 			page 3


  63              	.LFE1:
  64              		.size	writecommand, .-writecommand
  65 0022 00BF     		.section	.text.writedata,"ax",%progbits
  66              		.align	2
  67              		.global	writedata
  68              		.thumb
  69              		.thumb_func
  70              		.type	writedata, %function
  71              	writedata:
  72              	.LFB2:
  53:screen.c      **** 
  54:screen.c      **** // Writes data over SPI bus
  55:screen.c      **** void writedata(uint8_t data)
  56:screen.c      **** {
  73              		.loc 1 56 0
  74              		.cfi_startproc
  75              		@ args = 0, pretend = 0, frame = 0
  76              		@ frame_needed = 0, uses_anonymous_args = 0
  77              	.LVL6:
  78 0000 10B5     		push	{r4, lr}
  79              		.cfi_def_cfa_offset 8
  80              		.cfi_offset 4, -8
  81              		.cfi_offset 14, -4
  82              		.loc 1 56 0
  83 0002 0446     		mov	r4, r0
  57:screen.c      ****     // Set D_C to high for data
  58:screen.c      ****     D_C_Write(1);
  84              		.loc 1 58 0
  85 0004 0120     		movs	r0, #1
  86              	.LVL7:
  87 0006 FFF7FEFF 		bl	D_C_Write
  88              	.LVL8:
  59:screen.c      ****     SPIM_WriteTxData(data);
  89              		.loc 1 59 0
  90 000a 2046     		mov	r0, r4
  91 000c FFF7FEFF 		bl	SPIM_WriteTxData
  92              	.LVL9:
  93              	.L9:
  60:screen.c      ****     while(SS_Read() != 0){}
  94              		.loc 1 60 0 discriminator 1
  95 0010 FFF7FEFF 		bl	SS_Read
  96              	.LVL10:
  97 0014 0028     		cmp	r0, #0
  98 0016 FBD1     		bne	.L9
  99              	.L10:
  61:screen.c      ****     while(SS_Read() != 1){}
 100              		.loc 1 61 0 discriminator 1
 101 0018 FFF7FEFF 		bl	SS_Read
 102              	.LVL11:
 103 001c 0128     		cmp	r0, #1
 104 001e FBD1     		bne	.L10
  62:screen.c      **** }
 105              		.loc 1 62 0
 106 0020 10BD     		pop	{r4, pc}
 107              		.cfi_endproc
 108              	.LFE2:
 109              		.size	writedata, .-writedata
ARM GAS  C:\Users\legoc\AppData\Local\Temp\ccMAvaOS.s 			page 4


 110 0022 00BF     		.section	.text.setAddrWindow,"ax",%progbits
 111              		.align	2
 112              		.global	setAddrWindow
 113              		.thumb
 114              		.thumb_func
 115              		.type	setAddrWindow, %function
 116              	setAddrWindow:
 117              	.LFB3:
  63:screen.c      **** 
  64:screen.c      **** // Sets addresses in memory to write to
  65:screen.c      **** void setAddrWindow(uint16_t x, uint16_t y, uint16_t w, uint16_t h) {
 118              		.loc 1 65 0
 119              		.cfi_startproc
 120              		@ args = 0, pretend = 0, frame = 0
 121              		@ frame_needed = 0, uses_anonymous_args = 0
 122              	.LVL12:
 123 0000 38B5     		push	{r3, r4, r5, lr}
 124              		.cfi_def_cfa_offset 16
 125              		.cfi_offset 3, -16
 126              		.cfi_offset 4, -12
 127              		.cfi_offset 5, -8
 128              		.cfi_offset 14, -4
 129              		.loc 1 65 0
 130 0002 0546     		mov	r5, r0
  66:screen.c      ****     uint32_t xa = ((uint32_t)x << 16) | (x+w-1);
 131              		.loc 1 66 0
 132 0004 0244     		add	r2, r2, r0
 133              	.LVL13:
  67:screen.c      ****     uint32_t ya = ((uint32_t)y << 16) | (y+h-1);
 134              		.loc 1 67 0
 135 0006 0B44     		add	r3, r3, r1
 136              	.LVL14:
  66:screen.c      ****     uint32_t xa = ((uint32_t)x << 16) | (x+w-1);
 137              		.loc 1 66 0
 138 0008 013A     		subs	r2, r2, #1
 139              		.loc 1 67 0
 140 000a 013B     		subs	r3, r3, #1
 141              	.LBB124:
 142              	.LBB125:
  48:screen.c      ****     SPIM_WriteTxData(command);
 143              		.loc 1 48 0
 144 000c 0020     		movs	r0, #0
 145              	.LVL15:
 146              	.LBE125:
 147              	.LBE124:
  66:screen.c      ****     uint32_t xa = ((uint32_t)x << 16) | (x+w-1);
 148              		.loc 1 66 0
 149 000e 42EA0545 		orr	r5, r2, r5, lsl #16
 150              	.LVL16:
 151              		.loc 1 67 0
 152 0012 43EA0144 		orr	r4, r3, r1, lsl #16
 153              	.LVL17:
 154              	.LBB127:
 155              	.LBB126:
  48:screen.c      ****     SPIM_WriteTxData(command);
 156              		.loc 1 48 0
 157 0016 FFF7FEFF 		bl	D_C_Write
ARM GAS  C:\Users\legoc\AppData\Local\Temp\ccMAvaOS.s 			page 5


 158              	.LVL18:
  49:screen.c      ****     while(SS_Read() != 0){}
 159              		.loc 1 49 0
 160 001a 2A20     		movs	r0, #42
 161 001c FFF7FEFF 		bl	SPIM_WriteTxData
 162              	.LVL19:
 163              	.L15:
  50:screen.c      ****     while(SS_Read() != 1){}
 164              		.loc 1 50 0
 165 0020 FFF7FEFF 		bl	SS_Read
 166              	.LVL20:
 167 0024 0028     		cmp	r0, #0
 168 0026 FBD1     		bne	.L15
 169              	.L16:
  51:screen.c      **** }
 170              		.loc 1 51 0
 171 0028 FFF7FEFF 		bl	SS_Read
 172              	.LVL21:
 173 002c 0128     		cmp	r0, #1
 174 002e FBD1     		bne	.L16
 175              	.LVL22:
 176              	.LBE126:
 177              	.LBE127:
  68:screen.c      ****     
  69:screen.c      ****     // Column address set
  70:screen.c      ****     writecommand(ILI9341_CASET);
  71:screen.c      ****     
  72:screen.c      ****     // Splits 'x' addresses 32-bit into 4 bytes
  73:screen.c      ****     D_C_Write(1);
 178              		.loc 1 73 0
 179 0030 FFF7FEFF 		bl	D_C_Write
 180              	.LVL23:
  74:screen.c      ****     SS_Write(0);
 181              		.loc 1 74 0
 182 0034 0020     		movs	r0, #0
 183 0036 FFF7FEFF 		bl	SS_Write
 184              	.LVL24:
  75:screen.c      ****     SPIM_WriteTxData(xa >> 24);
 185              		.loc 1 75 0
 186 003a 280E     		lsrs	r0, r5, #24
 187 003c FFF7FEFF 		bl	SPIM_WriteTxData
 188              	.LVL25:
 189              	.L17:
  76:screen.c      ****     while(SS_Read() != 1){}
 190              		.loc 1 76 0 discriminator 1
 191 0040 FFF7FEFF 		bl	SS_Read
 192              	.LVL26:
 193 0044 0128     		cmp	r0, #1
 194 0046 FBD1     		bne	.L17
  77:screen.c      ****     SPIM_WriteTxData(xa >> 16);
 195              		.loc 1 77 0
 196 0048 C5F30740 		ubfx	r0, r5, #16, #8
 197 004c FFF7FEFF 		bl	SPIM_WriteTxData
 198              	.LVL27:
 199              	.L18:
  78:screen.c      ****     while(SS_Read() != 1){}
 200              		.loc 1 78 0 discriminator 1
ARM GAS  C:\Users\legoc\AppData\Local\Temp\ccMAvaOS.s 			page 6


 201 0050 FFF7FEFF 		bl	SS_Read
 202              	.LVL28:
 203 0054 0128     		cmp	r0, #1
 204 0056 FBD1     		bne	.L18
  79:screen.c      ****     SPIM_WriteTxData(xa >> 8);
 205              		.loc 1 79 0
 206 0058 C5F30720 		ubfx	r0, r5, #8, #8
 207 005c FFF7FEFF 		bl	SPIM_WriteTxData
 208              	.LVL29:
 209              	.L19:
  80:screen.c      ****     while(SS_Read() != 1){}
 210              		.loc 1 80 0 discriminator 1
 211 0060 FFF7FEFF 		bl	SS_Read
 212              	.LVL30:
 213 0064 0128     		cmp	r0, #1
 214 0066 FBD1     		bne	.L19
  81:screen.c      ****     SPIM_WriteTxData(xa >> 0);
 215              		.loc 1 81 0
 216 0068 E8B2     		uxtb	r0, r5
 217 006a FFF7FEFF 		bl	SPIM_WriteTxData
 218              	.LVL31:
 219              	.L20:
  82:screen.c      ****     while(SS_Read() != 1){}
 220              		.loc 1 82 0 discriminator 1
 221 006e FFF7FEFF 		bl	SS_Read
 222              	.LVL32:
 223 0072 0128     		cmp	r0, #1
 224 0074 FBD1     		bne	.L20
  83:screen.c      ****     SS_Write(1);
 225              		.loc 1 83 0
 226 0076 FFF7FEFF 		bl	SS_Write
 227              	.LVL33:
 228              	.LBB128:
 229              	.LBB129:
  48:screen.c      ****     SPIM_WriteTxData(command);
 230              		.loc 1 48 0
 231 007a 0020     		movs	r0, #0
 232 007c FFF7FEFF 		bl	D_C_Write
 233              	.LVL34:
  49:screen.c      ****     while(SS_Read() != 0){}
 234              		.loc 1 49 0
 235 0080 2B20     		movs	r0, #43
 236 0082 FFF7FEFF 		bl	SPIM_WriteTxData
 237              	.LVL35:
 238              	.L21:
  50:screen.c      ****     while(SS_Read() != 1){}
 239              		.loc 1 50 0
 240 0086 FFF7FEFF 		bl	SS_Read
 241              	.LVL36:
 242 008a 0028     		cmp	r0, #0
 243 008c FBD1     		bne	.L21
 244              	.L22:
  51:screen.c      **** }
 245              		.loc 1 51 0
 246 008e FFF7FEFF 		bl	SS_Read
 247              	.LVL37:
 248 0092 0128     		cmp	r0, #1
ARM GAS  C:\Users\legoc\AppData\Local\Temp\ccMAvaOS.s 			page 7


 249 0094 FBD1     		bne	.L22
 250              	.LVL38:
 251              	.LBE129:
 252              	.LBE128:
  84:screen.c      ****     
  85:screen.c      ****     // Page address set
  86:screen.c      ****     writecommand(ILI9341_PASET);
  87:screen.c      ****     
  88:screen.c      ****     // Splits 'y' addresses 32-bit into 4 bytes
  89:screen.c      ****     D_C_Write(1);
 253              		.loc 1 89 0
 254 0096 FFF7FEFF 		bl	D_C_Write
 255              	.LVL39:
  90:screen.c      ****     SS_Write(0);
 256              		.loc 1 90 0
 257 009a 0020     		movs	r0, #0
 258 009c FFF7FEFF 		bl	SS_Write
 259              	.LVL40:
  91:screen.c      ****     SPIM_WriteTxData(ya >> 24);
 260              		.loc 1 91 0
 261 00a0 200E     		lsrs	r0, r4, #24
 262 00a2 FFF7FEFF 		bl	SPIM_WriteTxData
 263              	.LVL41:
 264              	.L23:
  92:screen.c      ****     while(SS_Read() != 1){}
 265              		.loc 1 92 0 discriminator 1
 266 00a6 FFF7FEFF 		bl	SS_Read
 267              	.LVL42:
 268 00aa 0128     		cmp	r0, #1
 269 00ac FBD1     		bne	.L23
  93:screen.c      ****     SPIM_WriteTxData(ya >> 16);
 270              		.loc 1 93 0
 271 00ae C4F30740 		ubfx	r0, r4, #16, #8
 272 00b2 FFF7FEFF 		bl	SPIM_WriteTxData
 273              	.LVL43:
 274              	.L24:
  94:screen.c      ****     while(SS_Read() != 1){}
 275              		.loc 1 94 0 discriminator 1
 276 00b6 FFF7FEFF 		bl	SS_Read
 277              	.LVL44:
 278 00ba 0128     		cmp	r0, #1
 279 00bc FBD1     		bne	.L24
  95:screen.c      ****     SPIM_WriteTxData(ya >> 8);
 280              		.loc 1 95 0
 281 00be C4F30720 		ubfx	r0, r4, #8, #8
 282 00c2 FFF7FEFF 		bl	SPIM_WriteTxData
 283              	.LVL45:
 284              	.L25:
  96:screen.c      ****     while(SS_Read() != 1){}
 285              		.loc 1 96 0 discriminator 1
 286 00c6 FFF7FEFF 		bl	SS_Read
 287              	.LVL46:
 288 00ca 0128     		cmp	r0, #1
 289 00cc FBD1     		bne	.L25
  97:screen.c      ****     SPIM_WriteTxData(ya >> 0);
 290              		.loc 1 97 0
 291 00ce E0B2     		uxtb	r0, r4
ARM GAS  C:\Users\legoc\AppData\Local\Temp\ccMAvaOS.s 			page 8


 292 00d0 FFF7FEFF 		bl	SPIM_WriteTxData
 293              	.LVL47:
 294              	.L26:
  98:screen.c      ****     while(SS_Read() != 1){}
 295              		.loc 1 98 0 discriminator 1
 296 00d4 FFF7FEFF 		bl	SS_Read
 297              	.LVL48:
 298 00d8 0128     		cmp	r0, #1
 299 00da FBD1     		bne	.L26
  99:screen.c      ****     SS_Write(1);
 300              		.loc 1 99 0
 301 00dc FFF7FEFF 		bl	SS_Write
 302              	.LVL49:
 303              	.LBB130:
 304              	.LBB131:
  48:screen.c      ****     SPIM_WriteTxData(command);
 305              		.loc 1 48 0
 306 00e0 0020     		movs	r0, #0
 307 00e2 FFF7FEFF 		bl	D_C_Write
 308              	.LVL50:
  49:screen.c      ****     while(SS_Read() != 0){}
 309              		.loc 1 49 0
 310 00e6 2C20     		movs	r0, #44
 311 00e8 FFF7FEFF 		bl	SPIM_WriteTxData
 312              	.LVL51:
 313              	.L27:
  50:screen.c      ****     while(SS_Read() != 1){}
 314              		.loc 1 50 0
 315 00ec FFF7FEFF 		bl	SS_Read
 316              	.LVL52:
 317 00f0 0028     		cmp	r0, #0
 318 00f2 FBD1     		bne	.L27
 319              	.L28:
  51:screen.c      **** }
 320              		.loc 1 51 0
 321 00f4 FFF7FEFF 		bl	SS_Read
 322              	.LVL53:
 323 00f8 0128     		cmp	r0, #1
 324 00fa FBD1     		bne	.L28
 325              	.LBE131:
 326              	.LBE130:
 100:screen.c      ****     
 101:screen.c      ****     writecommand(ILI9341_RAMWR);
 102:screen.c      **** }
 327              		.loc 1 102 0
 328 00fc 38BD     		pop	{r3, r4, r5, pc}
 329              		.cfi_endproc
 330              	.LFE3:
 331              		.size	setAddrWindow, .-setAddrWindow
 332 00fe 00BF     		.section	.text.draw_button.constprop.3,"ax",%progbits
 333              		.align	2
 334              		.thumb
 335              		.thumb_func
 336              		.type	draw_button.constprop.3, %function
 337              	draw_button.constprop.3:
 338              	.LFB28:
 103:screen.c      **** 
ARM GAS  C:\Users\legoc\AppData\Local\Temp\ccMAvaOS.s 			page 9


 104:screen.c      **** // Fills in a rectangle of color on the screen
 105:screen.c      **** void draw_rect(int16_t x, int16_t y, int16_t w, int16_t h,
 106:screen.c      ****   uint16_t color) 
 107:screen.c      **** {
 108:screen.c      **** 
 109:screen.c      ****     // rudimentary clipping (drawChar w/big text requires this)
 110:screen.c      ****     if((x >= _width) || (y >= _height)) return;
 111:screen.c      ****     if((x + w - 1) >= _width)  w = _width  - x;
 112:screen.c      ****     if((y + h - 1) >= _height) h = _height - y;
 113:screen.c      **** 
 114:screen.c      ****     // Sets addresses in memory to write to
 115:screen.c      ****     setAddrWindow(x, y, w, h);
 116:screen.c      **** 
 117:screen.c      ****     // Splits color into two bytes
 118:screen.c      ****     uint8_t hi = color >> 8, lo = color;
 119:screen.c      ****     
 120:screen.c      ****     #if defined (SPI_HAS_TRANSACTION)
 121:screen.c      ****       if (hwSPI)      SPI.beginTransaction(mySPISettings);
 122:screen.c      ****     #endif
 123:screen.c      **** 
 124:screen.c      ****     D_C_Write(1);
 125:screen.c      ****     SS_Write(0);
 126:screen.c      ****     // Writes color to addresses
 127:screen.c      ****     for(y=h; y>0; y--) 
 128:screen.c      ****     {
 129:screen.c      ****         for(x=w; x>0; x--) 
 130:screen.c      ****         {
 131:screen.c      ****             SPIM_WriteTxData(hi);
 132:screen.c      ****             while(SS_Read() != 1){}
 133:screen.c      ****             SPIM_WriteTxData(lo);
 134:screen.c      ****             while(SS_Read() != 1){}
 135:screen.c      ****         }
 136:screen.c      ****     }
 137:screen.c      ****     SS_Write(1);
 138:screen.c      **** 
 139:screen.c      ****     #if defined (SPI_HAS_TRANSACTION)
 140:screen.c      ****       if (hwSPI)      SPI.endTransaction();
 141:screen.c      ****     #endif
 142:screen.c      **** }
 143:screen.c      **** 
 144:screen.c      **** 
 145:screen.c      **** 
 146:screen.c      **** void fill_rect(int16_t x, int16_t y, int16_t w, int16_t h,
 147:screen.c      ****   uint16_t color)
 148:screen.c      **** {
 149:screen.c      ****     draw_rect((240-y-h), (320-x-w), h, w, color);
 150:screen.c      **** }
 151:screen.c      **** 
 152:screen.c      **** // Fills screen a single color
 153:screen.c      **** void fill_screen(uint16_t color) 
 154:screen.c      **** {
 155:screen.c      ****   fill_rect(0, 0,  _height, _width, color);
 156:screen.c      **** }
 157:screen.c      **** 
 158:screen.c      **** // Sends commands and data to configure screen for display
 159:screen.c      **** void StartScreen() 
 160:screen.c      **** {
ARM GAS  C:\Users\legoc\AppData\Local\Temp\ccMAvaOS.s 			page 10


 161:screen.c      ****     uint8_t        cmd, x, numArgs;
 162:screen.c      ****     const uint8_t *addr = initcmd;
 163:screen.c      ****     
 164:screen.c      ****     // Iterates through cmd/data array
 165:screen.c      ****     while((cmd = pgm_read_byte(addr++)) > 0) 
 166:screen.c      ****     {
 167:screen.c      ****         writecommand(cmd);
 168:screen.c      ****         x       = pgm_read_byte(addr++);
 169:screen.c      ****         numArgs = x & 0x7F;
 170:screen.c      ****         while(numArgs--)
 171:screen.c      ****         {
 172:screen.c      ****             writedata(pgm_read_byte(addr++));
 173:screen.c      ****         }
 174:screen.c      ****         if(x & 0x80) CyDelay(120);
 175:screen.c      ****     }
 176:screen.c      **** }
 177:screen.c      **** 
 178:screen.c      **** void change_pixel(int16_t x, int16_t y, uint16_t color)
 179:screen.c      **** {
 180:screen.c      ****     //Make sure pixel is on screen
 181:screen.c      ****     if((x < 0) ||(x >= _width) || (y < 0) || (y >= _height)) return;
 182:screen.c      **** 
 183:screen.c      ****     //Sets memory address to write to
 184:screen.c      ****     setAddrWindow(x,y,1,1);
 185:screen.c      **** 
 186:screen.c      ****     #if defined (SPI_HAS_TRANSACTION)
 187:screen.c      ****         if (hwSPI)     SPI.beginTransaction(mySPISettings);
 188:screen.c      ****     #endif
 189:screen.c      **** 
 190:screen.c      ****     //Writes 2-byte color to memory
 191:screen.c      ****     D_C_Write(1);
 192:screen.c      ****     SS_Write(0);
 193:screen.c      ****     SPIM_WriteTxData(color >> 8);
 194:screen.c      ****     while(SS_Read() != 1){}
 195:screen.c      ****     SPIM_WriteTxData(color);
 196:screen.c      ****     while(SS_Read() != 1){}
 197:screen.c      ****     SS_Write(1);
 198:screen.c      **** 
 199:screen.c      ****     #if defined (SPI_HAS_TRANSACTION)
 200:screen.c      ****         if (hwSPI)     SPI.endTransaction();
 201:screen.c      ****     #endif
 202:screen.c      **** }
 203:screen.c      **** 
 204:screen.c      **** // Changes pixel color at specified coordinates
 205:screen.c      **** void draw_pixel(int16_t x, int16_t y, uint16_t color) 
 206:screen.c      **** {    
 207:screen.c      ****     change_pixel(239-y, 319-x, color);
 208:screen.c      **** //    change_pixel(y, x, color);
 209:screen.c      **** }
 210:screen.c      **** 
 211:screen.c      **** // Draws 1 pixel lines on the screen from one coordinate to another
 212:screen.c      **** void write_line(int16_t x0, int16_t y0, int16_t x1, int16_t y1,
 213:screen.c      ****         uint16_t color) 
 214:screen.c      **** {
 215:screen.c      ****     int16_t steep = abs(y1 - y0) > abs(x1 - x0);
 216:screen.c      ****     if (steep) 
 217:screen.c      ****     {
ARM GAS  C:\Users\legoc\AppData\Local\Temp\ccMAvaOS.s 			page 11


 218:screen.c      ****         _swap_int16_t(x0, y0);
 219:screen.c      ****         _swap_int16_t(x1, y1);
 220:screen.c      ****     }
 221:screen.c      ****     if (x0 > x1)
 222:screen.c      ****     {
 223:screen.c      ****         _swap_int16_t(x0, x1);
 224:screen.c      ****         _swap_int16_t(y0, y1);
 225:screen.c      ****     }
 226:screen.c      **** 
 227:screen.c      ****     int16_t dx, dy;
 228:screen.c      ****     dx = x1 - x0;
 229:screen.c      ****     dy = abs(y1 - y0);
 230:screen.c      **** 
 231:screen.c      ****     int16_t err = dx / 2;
 232:screen.c      ****     int16_t ystep;
 233:screen.c      **** 
 234:screen.c      ****     if (y0 < y1) 
 235:screen.c      ****     {
 236:screen.c      ****         ystep = 1;
 237:screen.c      ****     } else {
 238:screen.c      ****         ystep = -1;
 239:screen.c      ****     }
 240:screen.c      **** 
 241:screen.c      ****     for (; x0<=x1; x0++) 
 242:screen.c      ****     {
 243:screen.c      ****         if (steep) 
 244:screen.c      ****         {
 245:screen.c      ****             draw_pixel(y0, x0, color);
 246:screen.c      ****         } else 
 247:screen.c      ****         {
 248:screen.c      ****             draw_pixel(x0, y0, color);
 249:screen.c      ****         }
 250:screen.c      ****         err -= dy;
 251:screen.c      ****         if (err < 0) 
 252:screen.c      ****         {
 253:screen.c      ****             y0 += ystep;
 254:screen.c      ****             err += dx;
 255:screen.c      ****         }
 256:screen.c      ****     }
 257:screen.c      **** }
 258:screen.c      ****     
 259:screen.c      **** // Draws horizontal line
 260:screen.c      **** void drawFastHLine(int16_t x, int16_t y,
 261:screen.c      **** int16_t w, uint16_t color)
 262:screen.c      **** {
 263:screen.c      ****     // Calls write_line
 264:screen.c      ****     write_line(x, y, x+w-1, y, color);
 265:screen.c      **** }
 266:screen.c      **** 
 267:screen.c      **** // Draws vertical line
 268:screen.c      **** void drawFastVLine(int16_t x, int16_t y,
 269:screen.c      ****         int16_t h, uint16_t color) 
 270:screen.c      **** {
 271:screen.c      ****     // Calls write_line
 272:screen.c      ****     write_line(x, y, x, y+h-1, color);
 273:screen.c      **** }
 274:screen.c      **** 
ARM GAS  C:\Users\legoc\AppData\Local\Temp\ccMAvaOS.s 			page 12


 275:screen.c      **** // Calls proper way to draw a line
 276:screen.c      **** void draw_line(int16_t x0, int16_t y0, int16_t x1, int16_t y1,
 277:screen.c      ****         uint16_t color)
 278:screen.c      **** {
 279:screen.c      ****     // Checks is line is vertical
 280:screen.c      ****     if(x0 == x1)
 281:screen.c      ****     {
 282:screen.c      ****         if(y0 > y1) _swap_int16_t(y0, y1);
 283:screen.c      ****         drawFastVLine(x0, y0, y1 - y0 + 1, color);
 284:screen.c      ****     } 
 285:screen.c      ****     // Checks if line is horizontal
 286:screen.c      ****     else if(y0 == y1)
 287:screen.c      ****     {
 288:screen.c      ****         if(x0 > x1) _swap_int16_t(x0, x1);
 289:screen.c      ****         drawFastHLine(x0, y0, x1 - x0 + 1, color);
 290:screen.c      ****     } 
 291:screen.c      ****     else 
 292:screen.c      ****     {
 293:screen.c      ****         write_line(x0, y0, x1, y1, color);
 294:screen.c      ****     }
 295:screen.c      **** }
 296:screen.c      **** 
 297:screen.c      **** void draw_button(int16_t x, int16_t y, int16_t w, int16_t h, 
 339              		.loc 1 297 0
 340              		.cfi_startproc
 341              		@ args = 4, pretend = 0, frame = 24
 342              		@ frame_needed = 1, uses_anonymous_args = 0
 343              	.LVL54:
 344 0000 2DE9F04F 		push	{r4, r5, r6, r7, r8, r9, r10, fp, lr}
 345              		.cfi_def_cfa_offset 36
 346              		.cfi_offset 4, -36
 347              		.cfi_offset 5, -32
 348              		.cfi_offset 6, -28
 349              		.cfi_offset 7, -24
 350              		.cfi_offset 8, -20
 351              		.cfi_offset 9, -16
 352              		.cfi_offset 10, -12
 353              		.cfi_offset 11, -8
 354              		.cfi_offset 14, -4
 355 0004 8B46     		mov	fp, r1
 356 0006 9146     		mov	r9, r2
 357 0008 0146     		mov	r1, r0
 358              	.LVL55:
 359              	.LBB143:
 360              	.LBB144:
 149:screen.c      **** }
 361              		.loc 1 149 0
 362 000a 9AB2     		uxth	r2, r3
 363              	.LVL56:
 364              	.LBE144:
 365              	.LBE143:
 366              		.loc 1 297 0
 367 000c 89B0     		sub	sp, sp, #36
 368              		.cfi_def_cfa_offset 72
 369 000e 9846     		mov	r8, r3
 370 0010 02EB0B03 		add	r3, r2, fp
 371              	.LVL57:
ARM GAS  C:\Users\legoc\AppData\Local\Temp\ccMAvaOS.s 			page 13


 372 0014 9BB2     		uxth	r3, r3
 373 0016 02AF     		add	r7, sp, #8
 374              		.cfi_def_cfa 7, 64
 375              	.LVL58:
 376              		.loc 1 297 0
 377 0018 F860     		str	r0, [r7, #12]
 378              	.LVL59:
 379              	.LBB158:
 380              	.LBB155:
 149:screen.c      **** }
 381              		.loc 1 149 0
 382 001a C3F1F000 		rsb	r0, r3, #240
 383              	.LVL60:
 384 001e 80B2     		uxth	r0, r0
 385 0020 0FFA80FC 		sxth	ip, r0
 386 0024 1FFA89F6 		uxth	r6, r9
 387              	.LBB145:
 388              	.LBB146:
 110:screen.c      ****     if((x + w - 1) >= _width)  w = _width  - x;
 389              		.loc 1 110 0
 390 0028 BCF1EF0F 		cmp	ip, #239
 391 002c 06EB0104 		add	r4, r6, r1
 392              	.LVL61:
 393              	.LBE146:
 394              	.LBE145:
 395              	.LBE155:
 396              	.LBE158:
 397              		.loc 1 297 0
 398 0030 3D6C     		ldr	r5, [r7, #64]
 399              	.LBB159:
 400              	.LBB156:
 401              	.LBB152:
 402              	.LBB149:
 110:screen.c      ****     if((x + w - 1) >= _width)  w = _width  - x;
 403              		.loc 1 110 0
 404 0032 09DC     		bgt	.L46
 405 0034 A4B2     		uxth	r4, r4
 406              	.LBE149:
 407              	.LBE152:
 149:screen.c      **** }
 408              		.loc 1 149 0
 409 0036 C4F5A071 		rsb	r1, r4, #320
 410              	.LVL62:
 411 003a 89B2     		uxth	r1, r1
 412 003c 0FFA81FE 		sxth	lr, r1
 413              	.LBB153:
 414              	.LBB150:
 110:screen.c      ****     if((x + w - 1) >= _width)  w = _width  - x;
 415              		.loc 1 110 0
 416 0040 BEF5A07F 		cmp	lr, #320
 417 0044 C0F29180 		blt	.L83
 418              	.LVL63:
 419              	.L46:
 420              	.LBE150:
 421              	.LBE153:
 422              	.LBE156:
 423              	.LBE159:
ARM GAS  C:\Users\legoc\AppData\Local\Temp\ccMAvaOS.s 			page 14


 298:screen.c      ****         uint16_t button_color, uint16_t text_color, char string[])
 299:screen.c      **** {
 300:screen.c      ****     //fills in the rectangle on the screen for the button
 301:screen.c      ****     fill_rect(x,y,w,h,button_color);
 302:screen.c      ****     
 303:screen.c      ****     //defines needed variables
 304:screen.c      ****     int rect_center_x = x+(w/2);
 305:screen.c      ****     int rect_center_y = y+(h/2);
 424              		.loc 1 305 0
 425 0048 08EBD878 		add	r8, r8, r8, lsr #31
 304:screen.c      ****     int rect_center_y = y+(h/2);
 426              		.loc 1 304 0
 427 004c 09EBD972 		add	r2, r9, r9, lsr #31
 428              		.loc 1 305 0
 429 0050 0BEB680B 		add	fp, fp, r8, asr #1
 304:screen.c      ****     int rect_center_y = y+(h/2);
 430              		.loc 1 304 0
 431 0054 9046     		mov	r8, r2
 306:screen.c      ****     int string_length = 0;
 307:screen.c      ****     
 308:screen.c      ****     //gets the length of the string
 309:screen.c      ****     while(*string != 0)
 432              		.loc 1 309 0
 433 0056 2B78     		ldrb	r3, [r5]	@ zero_extendqisi2
 304:screen.c      ****     int rect_center_y = y+(h/2);
 434              		.loc 1 304 0
 435 0058 FA68     		ldr	r2, [r7, #12]
 436 005a 02EB6808 		add	r8, r2, r8, asr #1
 437              	.LVL64:
 438              		.loc 1 309 0
 439 005e 002B     		cmp	r3, #0
 440 0060 00F0CE80 		beq	.L58
 441 0064 0023     		movs	r3, #0
 442 0066 00E0     		b	.L59
 443              	.LVL65:
 444              	.L71:
 310:screen.c      ****     {
 311:screen.c      ****         string_length++;
 445              		.loc 1 311 0
 446 0068 2346     		mov	r3, r4
 447              	.LVL66:
 448              	.L59:
 309:screen.c      ****     {
 449              		.loc 1 309 0
 450 006a 15F8012F 		ldrb	r2, [r5, #1]!	@ zero_extendqisi2
 451              		.loc 1 311 0
 452 006e 5C1C     		adds	r4, r3, #1
 453              	.LVL67:
 309:screen.c      ****     {
 454              		.loc 1 309 0
 455 0070 002A     		cmp	r2, #0
 456 0072 F9D1     		bne	.L71
 457              	.LVL68:
 312:screen.c      ****         string++;
 313:screen.c      ****     }
 314:screen.c      ****     
 315:screen.c      ****     char the_string[string_length+1];
ARM GAS  C:\Users\legoc\AppData\Local\Temp\ccMAvaOS.s 			page 15


 458              		.loc 1 315 0
 459 0074 0933     		adds	r3, r3, #9
 460 0076 23F00703 		bic	r3, r3, #7
 461 007a ADEB030D 		sub	sp, sp, r3
 462 007e 02AE     		add	r6, sp, #8
 463              	.LVL69:
 464 0080 291B     		subs	r1, r5, r4
 465 0082 3046     		mov	r0, r6
 466 0084 2246     		mov	r2, r4
 467 0086 FFF7FEFF 		bl	memcpy
 468              	.LVL70:
 469 008a C4EBC403 		rsb	r3, r4, r4, lsl #3
 470              	.LVL71:
 471              	.L68:
 316:screen.c      ****     
 317:screen.c      ****     string = string-string_length; //resets string pointer
 318:screen.c      ****     
 319:screen.c      ****     //recreates the string as a character array
 320:screen.c      ****     for(int i = 0;i<string_length;i++)
 321:screen.c      ****     {
 322:screen.c      ****         the_string[i] = *string;
 323:screen.c      ****         string++;
 324:screen.c      ****     }
 325:screen.c      ****     
 326:screen.c      ****     //adds null character to end of string
 327:screen.c      ****     the_string[string_length] = 0;
 472              		.loc 1 327 0
 473 008e 0022     		movs	r2, #0
 328:screen.c      ****     
 329:screen.c      ****     if(string_length*7<w)
 474              		.loc 1 329 0
 475 0090 9945     		cmp	r9, r3
 327:screen.c      ****     
 476              		.loc 1 327 0
 477 0092 3255     		strb	r2, [r6, r4]
 478              		.loc 1 329 0
 479 0094 00F3A480 		bgt	.L84
 330:screen.c      ****     {
 331:screen.c      ****         //gets starting x-coord. of string
 332:screen.c      ****         int pixel_start = rect_center_x - string_length*7/2 + 3;
 333:screen.c      ****         
 334:screen.c      ****         //prints string to center of button rectangle
 335:screen.c      ****         draw_string(pixel_start,rect_center_y-1,text_color,the_string,1);
 336:screen.c      ****     }
 337:screen.c      ****     else if(string_length*7>w)
 480              		.loc 1 337 0
 481 0098 63DA     		bge	.L44
 482              	.LBB160:
 338:screen.c      ****     {
 339:screen.c      ****         int button_character_width = w/7-1;
 483              		.loc 1 339 0
 484 009a 5B4A     		ldr	r2, .L85
 485 009c 4FEAE973 		asr	r3, r9, #31
 486 00a0 82FB0912 		smull	r1, r2, r2, r9
 487 00a4 9144     		add	r9, r9, r2
 488 00a6 C3EBA903 		rsb	r3, r3, r9, asr #2
 489 00aa 1BB2     		sxth	r3, r3
ARM GAS  C:\Users\legoc\AppData\Local\Temp\ccMAvaOS.s 			page 16


 490 00ac 5D1E     		subs	r5, r3, #1
 491              	.LVL72:
 340:screen.c      ****         
 341:screen.c      ****         while(the_string[button_character_width] != 32)
 492              		.loc 1 341 0
 493 00ae 725D     		ldrb	r2, [r6, r5]	@ zero_extendqisi2
 494 00b0 202A     		cmp	r2, #32
 495 00b2 06D0     		beq	.L62
 496 00b4 023B     		subs	r3, r3, #2
 497 00b6 3344     		add	r3, r3, r6
 498              	.L63:
 499              	.LVL73:
 500 00b8 9D1B     		subs	r5, r3, r6
 501              	.LVL74:
 502 00ba 13F80129 		ldrb	r2, [r3], #-1	@ zero_extendqisi2
 503 00be 202A     		cmp	r2, #32
 504 00c0 FAD1     		bne	.L63
 505              	.L62:
 342:screen.c      ****         {
 343:screen.c      ****             button_character_width--;
 344:screen.c      ****         }
 345:screen.c      ****         
 346:screen.c      ****         char new_string_1[button_character_width+1];
 347:screen.c      ****         char new_string_2[string_length-button_character_width+1];
 506              		.loc 1 347 0
 507 00c2 641B     		subs	r4, r4, r5
 346:screen.c      ****         char new_string_2[string_length-button_character_width+1];
 508              		.loc 1 346 0
 509 00c4 05F10803 		add	r3, r5, #8
 510 00c8 23F00703 		bic	r3, r3, #7
 511              		.loc 1 347 0
 512 00cc 04F10802 		add	r2, r4, #8
 513 00d0 22F00702 		bic	r2, r2, #7
 346:screen.c      ****         char new_string_2[string_length-button_character_width+1];
 514              		.loc 1 346 0
 515 00d4 C7F80CD0 		str	sp, [r7, #12]
 516              	.LVL75:
 517 00d8 ADEB030D 		sub	sp, sp, r3
 518 00dc 02AB     		add	r3, sp, #8
 519              	.LVL76:
 520              	.LBB161:
 348:screen.c      ****         
 349:screen.c      ****         for(int i = 0; i<button_character_width; i++)
 521              		.loc 1 349 0
 522 00de 002D     		cmp	r5, #0
 523              	.LBE161:
 347:screen.c      ****         
 524              		.loc 1 347 0
 525 00e0 ADEB020D 		sub	sp, sp, r2
 526 00e4 04F10102 		add	r2, r4, #1
 527 00e8 0DF10809 		add	r9, sp, #8
 528              	.LVL77:
 529 00ec BA60     		str	r2, [r7, #8]
 346:screen.c      ****         char new_string_2[string_length-button_character_width+1];
 530              		.loc 1 346 0
 531 00ee 05F1010A 		add	r10, r5, #1
 532              	.LBB162:
ARM GAS  C:\Users\legoc\AppData\Local\Temp\ccMAvaOS.s 			page 17


 533              		.loc 1 349 0
 534 00f2 05DD     		ble	.L67
 535 00f4 1846     		mov	r0, r3
 536 00f6 2A46     		mov	r2, r5
 537 00f8 3146     		mov	r1, r6
 538 00fa FFF7FEFF 		bl	memcpy
 539              	.LVL78:
 540 00fe 0346     		mov	r3, r0
 541              	.L67:
 542              	.LVL79:
 543              	.LBE162:
 544              	.LBB163:
 350:screen.c      ****         {
 351:screen.c      ****             new_string_1[i] = the_string[i];
 352:screen.c      ****         }
 353:screen.c      ****         for(int i = 0; i<string_length-button_character_width; i++)
 545              		.loc 1 353 0
 546 0100 002C     		cmp	r4, #0
 547 0102 07DD     		ble	.L66
 548 0104 06EB0A01 		add	r1, r6, r10
 549 0108 2246     		mov	r2, r4
 550 010a 4846     		mov	r0, r9
 551 010c 7B60     		str	r3, [r7, #4]
 552 010e FFF7FEFF 		bl	memcpy
 553              	.LVL80:
 554 0112 7B68     		ldr	r3, [r7, #4]
 555              	.L66:
 556              	.LBE163:
 354:screen.c      ****         {
 355:screen.c      ****             new_string_2[i] = the_string[button_character_width+i+1];
 356:screen.c      ****         }
 357:screen.c      ****         
 358:screen.c      ****         new_string_1[button_character_width] = 0;
 359:screen.c      ****         new_string_2[string_length-button_character_width] = 0;
 360:screen.c      ****         
 361:screen.c      ****         int new_string_1_length = sizeof(new_string_1)/sizeof(new_string_1[0]);
 362:screen.c      ****         int new_string_2_length = sizeof(new_string_2)/sizeof(new_string_2[0])-1;
 363:screen.c      ****         
 364:screen.c      ****         //gets starting x-coord. of string
 365:screen.c      ****         int pixel_start_1 = rect_center_x - new_string_1_length*7/2 + 5;
 366:screen.c      ****         int pixel_start_2 = rect_center_x - new_string_2_length*7/2 + 4;
 367:screen.c      ****         
 368:screen.c      ****         //prints string to center of button rectangle
 369:screen.c      ****         draw_string(pixel_start_1,rect_center_y+3,text_color,new_string_1,1);
 557              		.loc 1 369 0
 558 0114 CAEBCA0A 		rsb	r10, r10, r10, lsl #3
 559 0118 0AEBDA7A 		add	r10, r10, r10, lsr #31
 358:screen.c      ****         new_string_2[string_length-button_character_width] = 0;
 560              		.loc 1 358 0
 561 011c 0026     		movs	r6, #0
 562              	.LVL81:
 563              		.loc 1 369 0
 564 011e A8EB6A00 		sub	r0, r8, r10, asr #1
 565 0122 4FF0010A 		mov	r10, #1
 358:screen.c      ****         new_string_2[string_length-button_character_width] = 0;
 566              		.loc 1 358 0
 567 0126 5E55     		strb	r6, [r3, r5]
ARM GAS  C:\Users\legoc\AppData\Local\Temp\ccMAvaOS.s 			page 18


 359:screen.c      ****         
 568              		.loc 1 359 0
 569 0128 09F80460 		strb	r6, [r9, r4]
 570              	.LVL82:
 571              		.loc 1 369 0
 572 012c 3246     		mov	r2, r6
 573 012e CDF800A0 		str	r10, [sp]
 574 0132 0BF10301 		add	r1, fp, #3
 575 0136 0530     		adds	r0, r0, #5
 576 0138 FFF7FEFF 		bl	draw_string
 577              	.LVL83:
 370:screen.c      ****         draw_string(pixel_start_2,rect_center_y-5,text_color,new_string_2,1);
 578              		.loc 1 370 0
 579 013c BB68     		ldr	r3, [r7, #8]
 580 013e 3246     		mov	r2, r6
 581 0140 013B     		subs	r3, r3, #1
 582 0142 C3EBC303 		rsb	r3, r3, r3, lsl #3
 583 0146 03EBD373 		add	r3, r3, r3, lsr #31
 584 014a A8EB6300 		sub	r0, r8, r3, asr #1
 585 014e CDF800A0 		str	r10, [sp]
 586 0152 0430     		adds	r0, r0, #4
 587 0154 4B46     		mov	r3, r9
 588 0156 ABF10501 		sub	r1, fp, #5
 589 015a FFF7FEFF 		bl	draw_string
 590              	.LVL84:
 591 015e D7F80CD0 		ldr	sp, [r7, #12]
 592              	.LVL85:
 593              	.L44:
 594              	.LBE160:
 371:screen.c      ****     }
 372:screen.c      **** }
 595              		.loc 1 372 0
 596 0162 1C37     		adds	r7, r7, #28
 597              		.cfi_remember_state
 598              		.cfi_def_cfa_offset 36
 599 0164 BD46     		mov	sp, r7
 600              		.cfi_def_cfa_register 13
 601              		@ sp needed
 602 0166 BDE8F08F 		pop	{r4, r5, r6, r7, r8, r9, r10, fp, pc}
 603              	.LVL86:
 604              	.L83:
 605              		.cfi_restore_state
 606              	.LBB164:
 607              	.LBB157:
 608              	.LBB154:
 609              	.LBB151:
 610              	.LBB147:
 611              	.LBB148:
 111:screen.c      ****     if((y + h - 1) >= _height) h = _height - y;
 612              		.loc 1 111 0
 613 016a C444     		add	ip, ip, r8
 614              	.LVL87:
 615 016c BCF1F00F 		cmp	ip, #240
 112:screen.c      **** 
 616              		.loc 1 112 0
 617 0170 CE44     		add	lr, lr, r9
 111:screen.c      ****     if((y + h - 1) >= _height) h = _height - y;
ARM GAS  C:\Users\legoc\AppData\Local\Temp\ccMAvaOS.s 			page 19


 618              		.loc 1 111 0
 619 0172 C6BF     		itte	gt
 620 0174 0FFA83FA 		sxthgt	r10, r3
 621              	.LVL88:
 622 0178 1A46     		movgt	r2, r3
 623 017a C246     		movle	r10, r8
 624              	.LVL89:
 112:screen.c      **** 
 625              		.loc 1 112 0
 626 017c BEF5A07F 		cmp	lr, #320
 627 0180 D9BF     		ittee	le
 628 0182 3346     		movle	r3, r6
 629 0184 4E46     		movle	r6, r9
 630 0186 2346     		movgt	r3, r4
 631 0188 26B2     		sxthgt	r6, r4
 632              	.LVL90:
 115:screen.c      **** 
 633              		.loc 1 115 0
 634 018a FFF7FEFF 		bl	setAddrWindow
 635              	.LVL91:
 124:screen.c      ****     SS_Write(0);
 636              		.loc 1 124 0
 637 018e 0120     		movs	r0, #1
 638 0190 FFF7FEFF 		bl	D_C_Write
 639              	.LVL92:
 125:screen.c      ****     // Writes color to addresses
 640              		.loc 1 125 0
 641 0194 0020     		movs	r0, #0
 642 0196 FFF7FEFF 		bl	SS_Write
 643              	.LVL93:
 127:screen.c      ****     {
 644              		.loc 1 127 0
 645 019a 002E     		cmp	r6, #0
 646 019c 1CDD     		ble	.L51
 647              	.LVL94:
 648              	.L55:
 129:screen.c      ****         {
 649              		.loc 1 129 0
 650 019e BAF1000F 		cmp	r10, #0
 651 01a2 C8BF     		it	gt
 652 01a4 5446     		movgt	r4, r10
 653 01a6 12DD     		ble	.L57
 654              	.LVL95:
 655              	.L54:
 131:screen.c      ****             while(SS_Read() != 1){}
 656              		.loc 1 131 0
 657 01a8 FF20     		movs	r0, #255
 658 01aa FFF7FEFF 		bl	SPIM_WriteTxData
 659              	.LVL96:
 660              	.L52:
 132:screen.c      ****             SPIM_WriteTxData(lo);
 661              		.loc 1 132 0
 662 01ae FFF7FEFF 		bl	SS_Read
 663              	.LVL97:
 664 01b2 0128     		cmp	r0, #1
 665 01b4 FBD1     		bne	.L52
 133:screen.c      ****             while(SS_Read() != 1){}
ARM GAS  C:\Users\legoc\AppData\Local\Temp\ccMAvaOS.s 			page 20


 666              		.loc 1 133 0
 667 01b6 FF20     		movs	r0, #255
 668 01b8 FFF7FEFF 		bl	SPIM_WriteTxData
 669              	.LVL98:
 670              	.L53:
 134:screen.c      ****         }
 671              		.loc 1 134 0
 672 01bc FFF7FEFF 		bl	SS_Read
 673              	.LVL99:
 674 01c0 0128     		cmp	r0, #1
 675 01c2 FBD1     		bne	.L53
 676 01c4 013C     		subs	r4, r4, #1
 677              	.LVL100:
 678 01c6 A3B2     		uxth	r3, r4
 679 01c8 1CB2     		sxth	r4, r3
 680              	.LVL101:
 129:screen.c      ****         {
 681              		.loc 1 129 0
 682 01ca 002B     		cmp	r3, #0
 683 01cc ECD1     		bne	.L54
 684              	.LVL102:
 685              	.L57:
 686 01ce 731E     		subs	r3, r6, #1
 687 01d0 9BB2     		uxth	r3, r3
 688 01d2 1EB2     		sxth	r6, r3
 689              	.LVL103:
 127:screen.c      ****     {
 690              		.loc 1 127 0
 691 01d4 002B     		cmp	r3, #0
 692 01d6 E2D1     		bne	.L55
 693              	.L51:
 137:screen.c      **** 
 694              		.loc 1 137 0
 695 01d8 0120     		movs	r0, #1
 696 01da FFF7FEFF 		bl	SS_Write
 697              	.LVL104:
 698 01de 33E7     		b	.L46
 699              	.LVL105:
 700              	.L84:
 701              	.LBE148:
 702              	.LBE147:
 703              	.LBE151:
 704              	.LBE154:
 705              	.LBE157:
 706              	.LBE164:
 707              	.LBB165:
 335:screen.c      ****     }
 708              		.loc 1 335 0
 709 01e0 03EBD373 		add	r3, r3, r3, lsr #31
 710              	.LVL106:
 711 01e4 A8EB6300 		sub	r0, r8, r3, asr #1
 712 01e8 0124     		movs	r4, #1
 713 01ea 3346     		mov	r3, r6
 714 01ec 0BF1FF31 		add	r1, fp, #-1
 715 01f0 0094     		str	r4, [sp]
 716 01f2 0330     		adds	r0, r0, #3
 717 01f4 FFF7FEFF 		bl	draw_string
ARM GAS  C:\Users\legoc\AppData\Local\Temp\ccMAvaOS.s 			page 21


 718              	.LVL107:
 719              	.LBE165:
 720              		.loc 1 372 0
 721 01f8 1C37     		adds	r7, r7, #28
 722              		.cfi_remember_state
 723              		.cfi_def_cfa_offset 36
 724 01fa BD46     		mov	sp, r7
 725              		.cfi_def_cfa_register 13
 726              		@ sp needed
 727 01fc BDE8F08F 		pop	{r4, r5, r6, r7, r8, r9, r10, fp, pc}
 728              	.LVL108:
 729              	.L58:
 730              		.cfi_restore_state
 315:screen.c      ****     
 731              		.loc 1 315 0
 732 0200 07F11406 		add	r6, r7, #20
 733              	.LVL109:
 306:screen.c      ****     
 734              		.loc 1 306 0
 735 0204 1C46     		mov	r4, r3
 736 0206 42E7     		b	.L68
 737              	.L86:
 738              		.align	2
 739              	.L85:
 740 0208 93244992 		.word	-1840700269
 741              		.cfi_endproc
 742              	.LFE28:
 743              		.size	draw_button.constprop.3, .-draw_button.constprop.3
 744              		.section	.text.draw_rect,"ax",%progbits
 745              		.align	2
 746              		.global	draw_rect
 747              		.thumb
 748              		.thumb_func
 749              		.type	draw_rect, %function
 750              	draw_rect:
 751              	.LFB4:
 107:screen.c      **** 
 752              		.loc 1 107 0
 753              		.cfi_startproc
 754              		@ args = 4, pretend = 0, frame = 0
 755              		@ frame_needed = 0, uses_anonymous_args = 0
 756              	.LVL110:
 757 0000 2DE9F041 		push	{r4, r5, r6, r7, r8, lr}
 758              		.cfi_def_cfa_offset 24
 759              		.cfi_offset 4, -24
 760              		.cfi_offset 5, -20
 761              		.cfi_offset 6, -16
 762              		.cfi_offset 7, -12
 763              		.cfi_offset 8, -8
 764              		.cfi_offset 14, -4
 110:screen.c      ****     if((x + w - 1) >= _width)  w = _width  - x;
 765              		.loc 1 110 0
 766 0004 EF28     		cmp	r0, #239
 107:screen.c      **** 
 767              		.loc 1 107 0
 768 0006 BDF81850 		ldrh	r5, [sp, #24]
 110:screen.c      ****     if((x + w - 1) >= _width)  w = _width  - x;
ARM GAS  C:\Users\legoc\AppData\Local\Temp\ccMAvaOS.s 			page 22


 769              		.loc 1 110 0
 770 000a 4ADC     		bgt	.L87
 110:screen.c      ****     if((x + w - 1) >= _width)  w = _width  - x;
 771              		.loc 1 110 0 is_stmt 0 discriminator 1
 772 000c B1F5A07F 		cmp	r1, #320
 773 0010 47DA     		bge	.L87
 774 0012 9846     		mov	r8, r3
 775              	.LVL111:
 776 0014 1746     		mov	r7, r2
 777              	.LBB168:
 778              	.LBB169:
 111:screen.c      ****     if((y + h - 1) >= _height) h = _height - y;
 779              		.loc 1 111 0 is_stmt 1
 780 0016 8318     		adds	r3, r0, r2
 781              	.LVL112:
 782 0018 F02B     		cmp	r3, #240
 783 001a 80B2     		uxth	r0, r0
 784 001c C8BF     		it	gt
 785 001e C0F1F007 		rsbgt	r7, r0, #240
 112:screen.c      **** 
 786              		.loc 1 112 0
 787 0022 01EB0803 		add	r3, r1, r8
 111:screen.c      ****     if((y + h - 1) >= _height) h = _height - y;
 788              		.loc 1 111 0
 789 0026 C8BF     		it	gt
 790 0028 3FB2     		sxthgt	r7, r7
 791              	.LVL113:
 112:screen.c      **** 
 792              		.loc 1 112 0
 793 002a 89B2     		uxth	r1, r1
 794 002c B3F5A07F 		cmp	r3, #320
 795 0030 C4BF     		itt	gt
 796 0032 C1F5A073 		rsbgt	r3, r1, #320
 797 0036 0FFA83F8 		sxthgt	r8, r3
 798              	.LVL114:
 115:screen.c      **** 
 799              		.loc 1 115 0
 800 003a 1FFA88F3 		uxth	r3, r8
 801 003e BAB2     		uxth	r2, r7
 802              	.LVL115:
 803 0040 FFF7FEFF 		bl	setAddrWindow
 804              	.LVL116:
 124:screen.c      ****     SS_Write(0);
 805              		.loc 1 124 0
 806 0044 0120     		movs	r0, #1
 807 0046 FFF7FEFF 		bl	D_C_Write
 808              	.LVL117:
 125:screen.c      ****     // Writes color to addresses
 809              		.loc 1 125 0
 810 004a 0020     		movs	r0, #0
 811 004c FFF7FEFF 		bl	SS_Write
 812              	.LVL118:
 127:screen.c      ****     {
 813              		.loc 1 127 0
 814 0050 B8F1000F 		cmp	r8, #0
 118:screen.c      ****     
 815              		.loc 1 118 0
ARM GAS  C:\Users\legoc\AppData\Local\Temp\ccMAvaOS.s 			page 23


 816 0054 4FEA1526 		lsr	r6, r5, #8
 817              	.LVL119:
 818 0058 EDB2     		uxtb	r5, r5
 819              	.LVL120:
 127:screen.c      ****     {
 820              		.loc 1 127 0
 821 005a 1DDD     		ble	.L94
 822              	.LVL121:
 823              	.L98:
 129:screen.c      ****         {
 824              		.loc 1 129 0
 825 005c 002F     		cmp	r7, #0
 826 005e C8BF     		it	gt
 827 0060 3C46     		movgt	r4, r7
 828 0062 12DD     		ble	.L100
 829              	.LVL122:
 830              	.L97:
 131:screen.c      ****             while(SS_Read() != 1){}
 831              		.loc 1 131 0
 832 0064 3046     		mov	r0, r6
 833 0066 FFF7FEFF 		bl	SPIM_WriteTxData
 834              	.LVL123:
 835              	.L95:
 132:screen.c      ****             SPIM_WriteTxData(lo);
 836              		.loc 1 132 0
 837 006a FFF7FEFF 		bl	SS_Read
 838              	.LVL124:
 839 006e 0128     		cmp	r0, #1
 840 0070 FBD1     		bne	.L95
 133:screen.c      ****             while(SS_Read() != 1){}
 841              		.loc 1 133 0
 842 0072 2846     		mov	r0, r5
 843 0074 FFF7FEFF 		bl	SPIM_WriteTxData
 844              	.LVL125:
 845              	.L96:
 134:screen.c      ****         }
 846              		.loc 1 134 0
 847 0078 FFF7FEFF 		bl	SS_Read
 848              	.LVL126:
 849 007c 0128     		cmp	r0, #1
 850 007e FBD1     		bne	.L96
 851 0080 013C     		subs	r4, r4, #1
 852              	.LVL127:
 853 0082 A3B2     		uxth	r3, r4
 854 0084 1CB2     		sxth	r4, r3
 855              	.LVL128:
 129:screen.c      ****         {
 856              		.loc 1 129 0
 857 0086 002B     		cmp	r3, #0
 858 0088 ECD1     		bne	.L97
 859              	.LVL129:
 860              	.L100:
 861 008a 08F1FF33 		add	r3, r8, #-1
 862 008e 9BB2     		uxth	r3, r3
 863 0090 0FFA83F8 		sxth	r8, r3
 864              	.LVL130:
 127:screen.c      ****     {
ARM GAS  C:\Users\legoc\AppData\Local\Temp\ccMAvaOS.s 			page 24


 865              		.loc 1 127 0
 866 0094 002B     		cmp	r3, #0
 867 0096 E1D1     		bne	.L98
 868              	.L94:
 137:screen.c      **** 
 869              		.loc 1 137 0
 870 0098 0120     		movs	r0, #1
 871              	.LBE169:
 872              	.LBE168:
 142:screen.c      **** 
 873              		.loc 1 142 0
 874 009a BDE8F041 		pop	{r4, r5, r6, r7, r8, lr}
 875              		.cfi_remember_state
 876              		.cfi_restore 14
 877              		.cfi_restore 8
 878              		.cfi_restore 7
 879              		.cfi_restore 6
 880              		.cfi_restore 5
 881              		.cfi_restore 4
 882              		.cfi_def_cfa_offset 0
 883              	.LVL131:
 884              	.LBB171:
 885              	.LBB170:
 137:screen.c      **** 
 886              		.loc 1 137 0
 887 009e FFF7FEBF 		b	SS_Write
 888              	.LVL132:
 889              	.L87:
 890              		.cfi_restore_state
 891 00a2 BDE8F081 		pop	{r4, r5, r6, r7, r8, pc}
 892              	.LBE170:
 893              	.LBE171:
 894              		.cfi_endproc
 895              	.LFE4:
 896              		.size	draw_rect, .-draw_rect
 897 00a6 00BF     		.section	.text.fill_rect,"ax",%progbits
 898              		.align	2
 899              		.global	fill_rect
 900              		.thumb
 901              		.thumb_func
 902              		.type	fill_rect, %function
 903              	fill_rect:
 904              	.LFB5:
 148:screen.c      ****     draw_rect((240-y-h), (320-x-w), h, w, color);
 905              		.loc 1 148 0
 906              		.cfi_startproc
 907              		@ args = 4, pretend = 0, frame = 0
 908              		@ frame_needed = 0, uses_anonymous_args = 0
 909              	.LVL133:
 910 0000 2DE9F041 		push	{r4, r5, r6, r7, r8, lr}
 911              		.cfi_def_cfa_offset 24
 912              		.cfi_offset 4, -24
 913              		.cfi_offset 5, -20
 914              		.cfi_offset 6, -16
 915              		.cfi_offset 7, -12
 916              		.cfi_offset 8, -8
 917              		.cfi_offset 14, -4
ARM GAS  C:\Users\legoc\AppData\Local\Temp\ccMAvaOS.s 			page 25


 148:screen.c      ****     draw_rect((240-y-h), (320-x-w), h, w, color);
 918              		.loc 1 148 0
 919 0004 9046     		mov	r8, r2
 149:screen.c      **** }
 920              		.loc 1 149 0
 921 0006 9AB2     		uxth	r2, r3
 922              	.LVL134:
 923 0008 1144     		add	r1, r1, r2
 924              	.LVL135:
 148:screen.c      ****     draw_rect((240-y-h), (320-x-w), h, w, color);
 925              		.loc 1 148 0
 926 000a 1F46     		mov	r7, r3
 927 000c 8BB2     		uxth	r3, r1
 928              	.LVL136:
 149:screen.c      **** }
 929              		.loc 1 149 0
 930 000e C3F1F004 		rsb	r4, r3, #240
 931 0012 A4B2     		uxth	r4, r4
 932 0014 0FFA84FE 		sxth	lr, r4
 933 0018 1FFA88F6 		uxth	r6, r8
 934              	.LBB178:
 935              	.LBB179:
 110:screen.c      ****     if((x + w - 1) >= _width)  w = _width  - x;
 936              		.loc 1 110 0
 937 001c BEF1EF0F 		cmp	lr, #239
 938 0020 3044     		add	r0, r0, r6
 939              	.LVL137:
 940              	.LBE179:
 941              	.LBE178:
 148:screen.c      ****     draw_rect((240-y-h), (320-x-w), h, w, color);
 942              		.loc 1 148 0
 943 0022 BDF81850 		ldrh	r5, [sp, #24]
 944              	.LVL138:
 945              	.LBB187:
 946              	.LBB184:
 110:screen.c      ****     if((x + w - 1) >= _width)  w = _width  - x;
 947              		.loc 1 110 0
 948 0026 08DC     		bgt	.L106
 949 0028 80B2     		uxth	r0, r0
 950              	.LBE184:
 951              	.LBE187:
 149:screen.c      **** }
 952              		.loc 1 149 0
 953 002a C0F5A071 		rsb	r1, r0, #320
 954 002e 89B2     		uxth	r1, r1
 955 0030 0FFA81FC 		sxth	ip, r1
 956              	.LBB188:
 957              	.LBB185:
 110:screen.c      ****     if((x + w - 1) >= _width)  w = _width  - x;
 958              		.loc 1 110 0
 959 0034 BCF5A07F 		cmp	ip, #320
 960 0038 01DB     		blt	.L125
 961              	.LVL139:
 962              	.L106:
 963 003a BDE8F081 		pop	{r4, r5, r6, r7, r8, pc}
 964              	.LVL140:
 965              	.L125:
ARM GAS  C:\Users\legoc\AppData\Local\Temp\ccMAvaOS.s 			page 26


 966              	.LBB180:
 967              	.LBB181:
 111:screen.c      ****     if((y + h - 1) >= _height) h = _height - y;
 968              		.loc 1 111 0
 969 003e BE44     		add	lr, lr, r7
 970              	.LVL141:
 971 0040 BEF1F00F 		cmp	lr, #240
 112:screen.c      **** 
 972              		.loc 1 112 0
 973 0044 C444     		add	ip, ip, r8
 111:screen.c      ****     if((y + h - 1) >= _height) h = _height - y;
 974              		.loc 1 111 0
 975 0046 C4BF     		itt	gt
 976 0048 1FB2     		sxthgt	r7, r3
 977              	.LVL142:
 978 004a 1A46     		movgt	r2, r3
 979              	.LVL143:
 112:screen.c      **** 
 980              		.loc 1 112 0
 981 004c BCF5A07F 		cmp	ip, #320
 982 0050 C6BF     		itte	gt
 983 0052 0FFA80F8 		sxthgt	r8, r0
 984              	.LVL144:
 985 0056 0346     		movgt	r3, r0
 986 0058 3346     		movle	r3, r6
 115:screen.c      **** 
 987              		.loc 1 115 0
 988 005a 2046     		mov	r0, r4
 989              	.LVL145:
 990 005c FFF7FEFF 		bl	setAddrWindow
 991              	.LVL146:
 124:screen.c      ****     SS_Write(0);
 992              		.loc 1 124 0
 993 0060 0120     		movs	r0, #1
 994 0062 FFF7FEFF 		bl	D_C_Write
 995              	.LVL147:
 125:screen.c      ****     // Writes color to addresses
 996              		.loc 1 125 0
 997 0066 0020     		movs	r0, #0
 998 0068 FFF7FEFF 		bl	SS_Write
 999              	.LVL148:
 127:screen.c      ****     {
 1000              		.loc 1 127 0
 1001 006c B8F1000F 		cmp	r8, #0
 118:screen.c      ****     
 1002              		.loc 1 118 0
 1003 0070 4FEA1526 		lsr	r6, r5, #8
 1004              	.LVL149:
 1005 0074 EDB2     		uxtb	r5, r5
 1006              	.LVL150:
 127:screen.c      ****     {
 1007              		.loc 1 127 0
 1008 0076 1DDD     		ble	.L111
 1009              	.LVL151:
 1010              	.L115:
 129:screen.c      ****         {
 1011              		.loc 1 129 0
ARM GAS  C:\Users\legoc\AppData\Local\Temp\ccMAvaOS.s 			page 27


 1012 0078 002F     		cmp	r7, #0
 1013 007a C8BF     		it	gt
 1014 007c 3C46     		movgt	r4, r7
 1015 007e 12DD     		ble	.L117
 1016              	.LVL152:
 1017              	.L114:
 131:screen.c      ****             while(SS_Read() != 1){}
 1018              		.loc 1 131 0
 1019 0080 3046     		mov	r0, r6
 1020 0082 FFF7FEFF 		bl	SPIM_WriteTxData
 1021              	.LVL153:
 1022              	.L112:
 132:screen.c      ****             SPIM_WriteTxData(lo);
 1023              		.loc 1 132 0
 1024 0086 FFF7FEFF 		bl	SS_Read
 1025              	.LVL154:
 1026 008a 0128     		cmp	r0, #1
 1027 008c FBD1     		bne	.L112
 133:screen.c      ****             while(SS_Read() != 1){}
 1028              		.loc 1 133 0
 1029 008e 2846     		mov	r0, r5
 1030 0090 FFF7FEFF 		bl	SPIM_WriteTxData
 1031              	.LVL155:
 1032              	.L113:
 134:screen.c      ****         }
 1033              		.loc 1 134 0
 1034 0094 FFF7FEFF 		bl	SS_Read
 1035              	.LVL156:
 1036 0098 0128     		cmp	r0, #1
 1037 009a FBD1     		bne	.L113
 1038 009c 013C     		subs	r4, r4, #1
 1039              	.LVL157:
 1040 009e A3B2     		uxth	r3, r4
 1041 00a0 1CB2     		sxth	r4, r3
 1042              	.LVL158:
 129:screen.c      ****         {
 1043              		.loc 1 129 0
 1044 00a2 002B     		cmp	r3, #0
 1045 00a4 ECD1     		bne	.L114
 1046              	.LVL159:
 1047              	.L117:
 1048 00a6 08F1FF33 		add	r3, r8, #-1
 1049 00aa 9BB2     		uxth	r3, r3
 1050 00ac 0FFA83F8 		sxth	r8, r3
 1051              	.LVL160:
 127:screen.c      ****     {
 1052              		.loc 1 127 0
 1053 00b0 002B     		cmp	r3, #0
 1054 00b2 E1D1     		bne	.L115
 1055              	.L111:
 137:screen.c      **** 
 1056              		.loc 1 137 0
 1057 00b4 0120     		movs	r0, #1
 1058              	.LBE181:
 1059              	.LBE180:
 1060              	.LBE185:
 1061              	.LBE188:
ARM GAS  C:\Users\legoc\AppData\Local\Temp\ccMAvaOS.s 			page 28


 150:screen.c      **** 
 1062              		.loc 1 150 0
 1063 00b6 BDE8F041 		pop	{r4, r5, r6, r7, r8, lr}
 1064              		.cfi_restore 14
 1065              		.cfi_restore 8
 1066              		.cfi_restore 7
 1067              		.cfi_restore 6
 1068              		.cfi_restore 5
 1069              		.cfi_restore 4
 1070              		.cfi_def_cfa_offset 0
 1071              	.LVL161:
 1072              	.LBB189:
 1073              	.LBB186:
 1074              	.LBB183:
 1075              	.LBB182:
 137:screen.c      **** 
 1076              		.loc 1 137 0
 1077 00ba FFF7FEBF 		b	SS_Write
 1078              	.LVL162:
 1079              	.LBE182:
 1080              	.LBE183:
 1081              	.LBE186:
 1082              	.LBE189:
 1083              		.cfi_endproc
 1084              	.LFE5:
 1085              		.size	fill_rect, .-fill_rect
 1086 00be 00BF     		.section	.text.fill_screen,"ax",%progbits
 1087              		.align	2
 1088              		.global	fill_screen
 1089              		.thumb
 1090              		.thumb_func
 1091              		.type	fill_screen, %function
 1092              	fill_screen:
 1093              	.LFB6:
 154:screen.c      ****   fill_rect(0, 0,  _height, _width, color);
 1094              		.loc 1 154 0
 1095              		.cfi_startproc
 1096              		@ args = 0, pretend = 0, frame = 0
 1097              		@ frame_needed = 0, uses_anonymous_args = 0
 1098              	.LVL163:
 1099              	.LBB195:
 1100              	.LBB196:
 1101              	.LBB197:
 1102              	.LBB198:
 1103              	.LBB199:
 115:screen.c      **** 
 1104              		.loc 1 115 0
 1105 0000 0021     		movs	r1, #0
 1106              	.LBE199:
 1107              	.LBE198:
 1108              	.LBE197:
 1109              	.LBE196:
 1110              	.LBE195:
 154:screen.c      ****   fill_rect(0, 0,  _height, _width, color);
 1111              		.loc 1 154 0
 1112 0002 F8B5     		push	{r3, r4, r5, r6, r7, lr}
 1113              		.cfi_def_cfa_offset 24
ARM GAS  C:\Users\legoc\AppData\Local\Temp\ccMAvaOS.s 			page 29


 1114              		.cfi_offset 3, -24
 1115              		.cfi_offset 4, -20
 1116              		.cfi_offset 5, -16
 1117              		.cfi_offset 6, -12
 1118              		.cfi_offset 7, -8
 1119              		.cfi_offset 14, -4
 1120              	.LBB216:
 1121              	.LBB212:
 1122              	.LBB208:
 1123              	.LBB204:
 1124              	.LBB200:
 115:screen.c      **** 
 1125              		.loc 1 115 0
 1126 0004 F022     		movs	r2, #240
 1127              	.LBE200:
 1128              	.LBE204:
 1129              	.LBE208:
 1130              	.LBE212:
 1131              	.LBE216:
 154:screen.c      ****   fill_rect(0, 0,  _height, _width, color);
 1132              		.loc 1 154 0
 1133 0006 0546     		mov	r5, r0
 1134              	.LVL164:
 1135              	.LBB217:
 1136              	.LBB213:
 1137              	.LBB209:
 1138              	.LBB205:
 1139              	.LBB201:
 115:screen.c      **** 
 1140              		.loc 1 115 0
 1141 0008 4FF4A073 		mov	r3, #320
 1142 000c 0846     		mov	r0, r1
 1143              	.LVL165:
 1144 000e FFF7FEFF 		bl	setAddrWindow
 1145              	.LVL166:
 124:screen.c      ****     SS_Write(0);
 1146              		.loc 1 124 0
 1147 0012 0120     		movs	r0, #1
 1148 0014 FFF7FEFF 		bl	D_C_Write
 1149              	.LVL167:
 125:screen.c      ****     // Writes color to addresses
 1150              		.loc 1 125 0
 1151 0018 0020     		movs	r0, #0
 1152 001a FFF7FEFF 		bl	SS_Write
 1153              	.LVL168:
 118:screen.c      ****     
 1154              		.loc 1 118 0
 1155 001e 2E0A     		lsrs	r6, r5, #8
 1156              	.LVL169:
 125:screen.c      ****     // Writes color to addresses
 1157              		.loc 1 125 0
 1158 0020 4FF4A077 		mov	r7, #320
 118:screen.c      ****     
 1159              		.loc 1 118 0
 1160 0024 EDB2     		uxtb	r5, r5
 1161              	.LVL170:
 1162              	.L127:
ARM GAS  C:\Users\legoc\AppData\Local\Temp\ccMAvaOS.s 			page 30


 1163              	.LBE201:
 1164              	.LBE205:
 1165              	.LBE209:
 1166              	.LBE213:
 1167              	.LBE217:
 154:screen.c      ****   fill_rect(0, 0,  _height, _width, color);
 1168              		.loc 1 154 0
 1169 0026 F024     		movs	r4, #240
 1170              	.LVL171:
 1171              	.L130:
 1172              	.LBB218:
 1173              	.LBB214:
 1174              	.LBB210:
 1175              	.LBB206:
 1176              	.LBB202:
 131:screen.c      ****             while(SS_Read() != 1){}
 1177              		.loc 1 131 0
 1178 0028 3046     		mov	r0, r6
 1179 002a FFF7FEFF 		bl	SPIM_WriteTxData
 1180              	.LVL172:
 1181              	.L128:
 132:screen.c      ****             SPIM_WriteTxData(lo);
 1182              		.loc 1 132 0
 1183 002e FFF7FEFF 		bl	SS_Read
 1184              	.LVL173:
 1185 0032 0128     		cmp	r0, #1
 1186 0034 FBD1     		bne	.L128
 133:screen.c      ****             while(SS_Read() != 1){}
 1187              		.loc 1 133 0
 1188 0036 2846     		mov	r0, r5
 1189 0038 FFF7FEFF 		bl	SPIM_WriteTxData
 1190              	.LVL174:
 1191              	.L129:
 134:screen.c      ****         }
 1192              		.loc 1 134 0
 1193 003c FFF7FEFF 		bl	SS_Read
 1194              	.LVL175:
 1195 0040 0128     		cmp	r0, #1
 1196 0042 FBD1     		bne	.L129
 1197 0044 013C     		subs	r4, r4, #1
 1198 0046 A4B2     		uxth	r4, r4
 129:screen.c      ****         {
 1199              		.loc 1 129 0
 1200 0048 002C     		cmp	r4, #0
 1201 004a EDD1     		bne	.L130
 1202 004c 013F     		subs	r7, r7, #1
 1203 004e BFB2     		uxth	r7, r7
 127:screen.c      ****     {
 1204              		.loc 1 127 0
 1205 0050 002F     		cmp	r7, #0
 1206 0052 E8D1     		bne	.L127
 1207              	.LBE202:
 1208              	.LBE206:
 1209              	.LBE210:
 1210              	.LBE214:
 1211              	.LBE218:
 156:screen.c      **** 
ARM GAS  C:\Users\legoc\AppData\Local\Temp\ccMAvaOS.s 			page 31


 1212              		.loc 1 156 0
 1213 0054 BDE8F840 		pop	{r3, r4, r5, r6, r7, lr}
 1214              		.cfi_restore 14
 1215              		.cfi_restore 7
 1216              		.cfi_restore 6
 1217              		.cfi_restore 5
 1218              		.cfi_restore 4
 1219              		.cfi_restore 3
 1220              		.cfi_def_cfa_offset 0
 1221              	.LVL176:
 1222              	.LBB219:
 1223              	.LBB215:
 1224              	.LBB211:
 1225              	.LBB207:
 1226              	.LBB203:
 137:screen.c      **** 
 1227              		.loc 1 137 0
 1228 0058 FFF7FEBF 		b	SS_Write
 1229              	.LVL177:
 1230              	.LBE203:
 1231              	.LBE207:
 1232              	.LBE211:
 1233              	.LBE215:
 1234              	.LBE219:
 1235              		.cfi_endproc
 1236              	.LFE6:
 1237              		.size	fill_screen, .-fill_screen
 1238              		.section	.text.StartScreen,"ax",%progbits
 1239              		.align	2
 1240              		.global	StartScreen
 1241              		.thumb
 1242              		.thumb_func
 1243              		.type	StartScreen, %function
 1244              	StartScreen:
 1245              	.LFB7:
 160:screen.c      ****     uint8_t        cmd, x, numArgs;
 1246              		.loc 1 160 0
 1247              		.cfi_startproc
 1248              		@ args = 0, pretend = 0, frame = 0
 1249              		@ frame_needed = 0, uses_anonymous_args = 0
 1250              	.LVL178:
 1251 0000 2DE9F843 		push	{r3, r4, r5, r6, r7, r8, r9, lr}
 1252              		.cfi_def_cfa_offset 32
 1253              		.cfi_offset 3, -32
 1254              		.cfi_offset 4, -28
 1255              		.cfi_offset 5, -24
 1256              		.cfi_offset 6, -20
 1257              		.cfi_offset 7, -16
 1258              		.cfi_offset 8, -12
 1259              		.cfi_offset 9, -8
 1260              		.cfi_offset 14, -4
 162:screen.c      ****     
 1261              		.loc 1 162 0
 1262 0004 1F4E     		ldr	r6, .L154
 160:screen.c      ****     uint8_t        cmd, x, numArgs;
 1263              		.loc 1 160 0
 1264 0006 EF24     		movs	r4, #239
ARM GAS  C:\Users\legoc\AppData\Local\Temp\ccMAvaOS.s 			page 32


 1265              	.LVL179:
 1266              	.L144:
 1267              	.LBB224:
 1268              	.LBB225:
  48:screen.c      ****     SPIM_WriteTxData(command);
 1269              		.loc 1 48 0
 1270 0008 0020     		movs	r0, #0
 1271 000a FFF7FEFF 		bl	D_C_Write
 1272              	.LVL180:
  49:screen.c      ****     while(SS_Read() != 0){}
 1273              		.loc 1 49 0
 1274 000e 2046     		mov	r0, r4
 1275 0010 FFF7FEFF 		bl	SPIM_WriteTxData
 1276              	.LVL181:
 1277              	.L137:
  50:screen.c      ****     while(SS_Read() != 1){}
 1278              		.loc 1 50 0
 1279 0014 FFF7FEFF 		bl	SS_Read
 1280              	.LVL182:
 1281 0018 0028     		cmp	r0, #0
 1282 001a FBD1     		bne	.L137
 1283              	.L138:
  51:screen.c      **** }
 1284              		.loc 1 51 0
 1285 001c FFF7FEFF 		bl	SS_Read
 1286              	.LVL183:
 1287 0020 0128     		cmp	r0, #1
 1288 0022 FBD1     		bne	.L138
 1289              	.LBE225:
 1290              	.LBE224:
 168:screen.c      ****         numArgs = x & 0x7F;
 1291              		.loc 1 168 0
 1292 0024 06F10208 		add	r8, r6, #2
 1293              	.LVL184:
 1294 0028 4446     		mov	r4, r8
 1295 002a 96F80190 		ldrb	r9, [r6, #1]	@ zero_extendqisi2
 1296              	.LVL185:
 1297 002e 09F07F07 		and	r7, r9, #127
 1298 0032 BB1C     		adds	r3, r7, #2
 1299 0034 1E44     		add	r6, r6, r3
 1300              	.LVL186:
 1301              	.L139:
 170:screen.c      ****         {
 1302              		.loc 1 170 0
 1303 0036 B442     		cmp	r4, r6
 1304 0038 14D0     		beq	.L152
 172:screen.c      ****         }
 1305              		.loc 1 172 0
 1306 003a 14F8015B 		ldrb	r5, [r4], #1	@ zero_extendqisi2
 1307              	.LVL187:
 1308              	.LBB226:
 1309              	.LBB227:
  58:screen.c      ****     SPIM_WriteTxData(data);
 1310              		.loc 1 58 0
 1311 003e 0120     		movs	r0, #1
 1312 0040 FFF7FEFF 		bl	D_C_Write
 1313              	.LVL188:
ARM GAS  C:\Users\legoc\AppData\Local\Temp\ccMAvaOS.s 			page 33


  59:screen.c      ****     while(SS_Read() != 0){}
 1314              		.loc 1 59 0
 1315 0044 2846     		mov	r0, r5
 1316 0046 FFF7FEFF 		bl	SPIM_WriteTxData
 1317              	.LVL189:
 1318              	.L140:
  60:screen.c      ****     while(SS_Read() != 1){}
 1319              		.loc 1 60 0
 1320 004a FFF7FEFF 		bl	SS_Read
 1321              	.LVL190:
 1322 004e 0028     		cmp	r0, #0
 1323 0050 FBD1     		bne	.L140
 1324              	.L141:
  61:screen.c      **** }
 1325              		.loc 1 61 0
 1326 0052 FFF7FEFF 		bl	SS_Read
 1327              	.LVL191:
 1328 0056 0128     		cmp	r0, #1
 1329 0058 EDD0     		beq	.L139
 1330 005a FFF7FEFF 		bl	SS_Read
 1331              	.LVL192:
 1332 005e 0128     		cmp	r0, #1
 1333 0060 F7D1     		bne	.L141
 1334 0062 E8E7     		b	.L139
 1335              	.LVL193:
 1336              	.L152:
 1337              	.LBE227:
 1338              	.LBE226:
 174:screen.c      ****     }
 1339              		.loc 1 174 0
 1340 0064 19F0800F 		tst	r9, #128
 1341 0068 08EB0706 		add	r6, r8, r7
 1342              	.LVL194:
 1343 006c 05D1     		bne	.L153
 1344              	.L143:
 1345 006e 18F80740 		ldrb	r4, [r8, r7]	@ zero_extendqisi2
 1346              	.LVL195:
 165:screen.c      ****     {
 1347              		.loc 1 165 0
 1348 0072 002C     		cmp	r4, #0
 1349 0074 C8D1     		bne	.L144
 176:screen.c      **** 
 1350              		.loc 1 176 0
 1351 0076 BDE8F883 		pop	{r3, r4, r5, r6, r7, r8, r9, pc}
 1352              	.LVL196:
 1353              	.L153:
 174:screen.c      ****     }
 1354              		.loc 1 174 0 discriminator 1
 1355 007a 7820     		movs	r0, #120
 1356 007c FFF7FEFF 		bl	CyDelay
 1357              	.LVL197:
 1358 0080 F5E7     		b	.L143
 1359              	.L155:
 1360 0082 00BF     		.align	2
 1361              	.L154:
 1362 0084 00000000 		.word	.LANCHOR0
 1363              		.cfi_endproc
ARM GAS  C:\Users\legoc\AppData\Local\Temp\ccMAvaOS.s 			page 34


 1364              	.LFE7:
 1365              		.size	StartScreen, .-StartScreen
 1366              		.section	.text.change_pixel,"ax",%progbits
 1367              		.align	2
 1368              		.global	change_pixel
 1369              		.thumb
 1370              		.thumb_func
 1371              		.type	change_pixel, %function
 1372              	change_pixel:
 1373              	.LFB8:
 179:screen.c      ****     //Make sure pixel is on screen
 1374              		.loc 1 179 0
 1375              		.cfi_startproc
 1376              		@ args = 0, pretend = 0, frame = 0
 1377              		@ frame_needed = 0, uses_anonymous_args = 0
 1378              	.LVL198:
 181:screen.c      **** 
 1379              		.loc 1 181 0
 1380 0000 80B2     		uxth	r0, r0
 1381 0002 EF28     		cmp	r0, #239
 1382 0004 03D8     		bhi	.L163
 181:screen.c      **** 
 1383              		.loc 1 181 0 is_stmt 0 discriminator 2
 1384 0006 89B2     		uxth	r1, r1
 1385 0008 B1F5A07F 		cmp	r1, #320
 1386 000c 00D3     		bcc	.L164
 1387              	.LVL199:
 1388              	.L163:
 1389 000e 7047     		bx	lr
 1390              	.L164:
 179:screen.c      ****     //Make sure pixel is on screen
 1391              		.loc 1 179 0 is_stmt 1
 1392 0010 10B5     		push	{r4, lr}
 1393              		.cfi_def_cfa_offset 8
 1394              		.cfi_offset 4, -8
 1395              		.cfi_offset 14, -4
 1396 0012 1446     		mov	r4, r2
 184:screen.c      **** 
 1397              		.loc 1 184 0
 1398 0014 0123     		movs	r3, #1
 1399 0016 1A46     		mov	r2, r3
 1400              	.LVL200:
 1401 0018 FFF7FEFF 		bl	setAddrWindow
 1402              	.LVL201:
 191:screen.c      ****     SS_Write(0);
 1403              		.loc 1 191 0
 1404 001c 0120     		movs	r0, #1
 1405 001e FFF7FEFF 		bl	D_C_Write
 1406              	.LVL202:
 192:screen.c      ****     SPIM_WriteTxData(color >> 8);
 1407              		.loc 1 192 0
 1408 0022 0020     		movs	r0, #0
 1409 0024 FFF7FEFF 		bl	SS_Write
 1410              	.LVL203:
 193:screen.c      ****     while(SS_Read() != 1){}
 1411              		.loc 1 193 0
 1412 0028 200A     		lsrs	r0, r4, #8
ARM GAS  C:\Users\legoc\AppData\Local\Temp\ccMAvaOS.s 			page 35


 1413 002a FFF7FEFF 		bl	SPIM_WriteTxData
 1414              	.LVL204:
 1415              	.L158:
 194:screen.c      ****     SPIM_WriteTxData(color);
 1416              		.loc 1 194 0 discriminator 1
 1417 002e FFF7FEFF 		bl	SS_Read
 1418              	.LVL205:
 1419 0032 0128     		cmp	r0, #1
 1420 0034 FBD1     		bne	.L158
 1421              	.LVL206:
 1422              	.LBB230:
 1423              	.LBB231:
 195:screen.c      ****     while(SS_Read() != 1){}
 1424              		.loc 1 195 0
 1425 0036 E0B2     		uxtb	r0, r4
 1426 0038 FFF7FEFF 		bl	SPIM_WriteTxData
 1427              	.LVL207:
 1428              	.L159:
 196:screen.c      ****     SS_Write(1);
 1429              		.loc 1 196 0
 1430 003c FFF7FEFF 		bl	SS_Read
 1431              	.LVL208:
 1432 0040 0128     		cmp	r0, #1
 1433 0042 FBD1     		bne	.L159
 1434              	.LBE231:
 1435              	.LBE230:
 202:screen.c      **** 
 1436              		.loc 1 202 0
 1437 0044 BDE81040 		pop	{r4, lr}
 1438              		.cfi_restore 14
 1439              		.cfi_restore 4
 1440              		.cfi_def_cfa_offset 0
 1441              	.LVL209:
 1442              	.LBB233:
 1443              	.LBB232:
 197:screen.c      **** 
 1444              		.loc 1 197 0
 1445 0048 FFF7FEBF 		b	SS_Write
 1446              	.LVL210:
 1447              	.LBE232:
 1448              	.LBE233:
 1449              		.cfi_endproc
 1450              	.LFE8:
 1451              		.size	change_pixel, .-change_pixel
 1452              		.section	.text.draw_pixel,"ax",%progbits
 1453              		.align	2
 1454              		.global	draw_pixel
 1455              		.thumb
 1456              		.thumb_func
 1457              		.type	draw_pixel, %function
 1458              	draw_pixel:
 1459              	.LFB9:
 206:screen.c      ****     change_pixel(239-y, 319-x, color);
 1460              		.loc 1 206 0
 1461              		.cfi_startproc
 1462              		@ args = 0, pretend = 0, frame = 0
 1463              		@ frame_needed = 0, uses_anonymous_args = 0
ARM GAS  C:\Users\legoc\AppData\Local\Temp\ccMAvaOS.s 			page 36


 1464              	.LVL211:
 207:screen.c      **** //    change_pixel(y, x, color);
 1465              		.loc 1 207 0
 1466 0000 C1F1EF01 		rsb	r1, r1, #239
 1467              	.LVL212:
 206:screen.c      ****     change_pixel(239-y, 319-x, color);
 1468              		.loc 1 206 0
 1469 0004 38B5     		push	{r3, r4, r5, lr}
 1470              		.cfi_def_cfa_offset 16
 1471              		.cfi_offset 3, -16
 1472              		.cfi_offset 4, -12
 1473              		.cfi_offset 5, -8
 1474              		.cfi_offset 14, -4
 207:screen.c      **** //    change_pixel(y, x, color);
 1475              		.loc 1 207 0
 1476 0006 8CB2     		uxth	r4, r1
 1477              	.LVL213:
 1478              	.LBB238:
 1479              	.LBB239:
 181:screen.c      **** 
 1480              		.loc 1 181 0
 1481 0008 EF2C     		cmp	r4, #239
 1482 000a 24D8     		bhi	.L165
 1483              	.LBE239:
 1484              	.LBE238:
 207:screen.c      **** //    change_pixel(y, x, color);
 1485              		.loc 1 207 0
 1486 000c C0F59F70 		rsb	r0, r0, #318
 1487              	.LVL214:
 1488 0010 0130     		adds	r0, r0, #1
 1489 0012 81B2     		uxth	r1, r0
 1490              	.LBB246:
 1491              	.LBB244:
 181:screen.c      **** 
 1492              		.loc 1 181 0
 1493 0014 B1F5A07F 		cmp	r1, #320
 1494 0018 1DD2     		bcs	.L165
 1495 001a 1546     		mov	r5, r2
 184:screen.c      **** 
 1496              		.loc 1 184 0
 1497 001c 0123     		movs	r3, #1
 1498 001e 1A46     		mov	r2, r3
 1499              	.LVL215:
 1500 0020 2046     		mov	r0, r4
 1501 0022 FFF7FEFF 		bl	setAddrWindow
 1502              	.LVL216:
 191:screen.c      ****     SS_Write(0);
 1503              		.loc 1 191 0
 1504 0026 0120     		movs	r0, #1
 1505 0028 FFF7FEFF 		bl	D_C_Write
 1506              	.LVL217:
 192:screen.c      ****     SPIM_WriteTxData(color >> 8);
 1507              		.loc 1 192 0
 1508 002c 0020     		movs	r0, #0
 1509 002e FFF7FEFF 		bl	SS_Write
 1510              	.LVL218:
 193:screen.c      ****     while(SS_Read() != 1){}
ARM GAS  C:\Users\legoc\AppData\Local\Temp\ccMAvaOS.s 			page 37


 1511              		.loc 1 193 0
 1512 0032 280A     		lsrs	r0, r5, #8
 1513 0034 FFF7FEFF 		bl	SPIM_WriteTxData
 1514              	.LVL219:
 1515              	.L167:
 194:screen.c      ****     SPIM_WriteTxData(color);
 1516              		.loc 1 194 0
 1517 0038 FFF7FEFF 		bl	SS_Read
 1518              	.LVL220:
 1519 003c 0128     		cmp	r0, #1
 1520 003e FBD1     		bne	.L167
 1521              	.LVL221:
 1522              	.LBB240:
 1523              	.LBB241:
 195:screen.c      ****     while(SS_Read() != 1){}
 1524              		.loc 1 195 0
 1525 0040 E8B2     		uxtb	r0, r5
 1526 0042 FFF7FEFF 		bl	SPIM_WriteTxData
 1527              	.LVL222:
 1528              	.L168:
 196:screen.c      ****     SS_Write(1);
 1529              		.loc 1 196 0
 1530 0046 FFF7FEFF 		bl	SS_Read
 1531              	.LVL223:
 1532 004a 0128     		cmp	r0, #1
 1533 004c FBD1     		bne	.L168
 1534              	.LBE241:
 1535              	.LBE240:
 1536              	.LBE244:
 1537              	.LBE246:
 209:screen.c      **** 
 1538              		.loc 1 209 0
 1539 004e BDE83840 		pop	{r3, r4, r5, lr}
 1540              		.cfi_remember_state
 1541              		.cfi_restore 14
 1542              		.cfi_restore 5
 1543              		.cfi_restore 4
 1544              		.cfi_restore 3
 1545              		.cfi_def_cfa_offset 0
 1546              	.LVL224:
 1547              	.LBB247:
 1548              	.LBB245:
 1549              	.LBB243:
 1550              	.LBB242:
 197:screen.c      **** 
 1551              		.loc 1 197 0
 1552 0052 FFF7FEBF 		b	SS_Write
 1553              	.LVL225:
 1554              	.L165:
 1555              		.cfi_restore_state
 1556 0056 38BD     		pop	{r3, r4, r5, pc}
 1557              	.LBE242:
 1558              	.LBE243:
 1559              	.LBE245:
 1560              	.LBE247:
 1561              		.cfi_endproc
 1562              	.LFE9:
ARM GAS  C:\Users\legoc\AppData\Local\Temp\ccMAvaOS.s 			page 38


 1563              		.size	draw_pixel, .-draw_pixel
 1564              		.section	.text.write_line,"ax",%progbits
 1565              		.align	2
 1566              		.global	write_line
 1567              		.thumb
 1568              		.thumb_func
 1569              		.type	write_line, %function
 1570              	write_line:
 1571              	.LFB10:
 214:screen.c      ****     int16_t steep = abs(y1 - y0) > abs(x1 - x0);
 1572              		.loc 1 214 0
 1573              		.cfi_startproc
 1574              		@ args = 4, pretend = 0, frame = 24
 1575              		@ frame_needed = 0, uses_anonymous_args = 0
 1576              	.LVL226:
 1577 0000 2DE9F04F 		push	{r4, r5, r6, r7, r8, r9, r10, fp, lr}
 1578              		.cfi_def_cfa_offset 36
 1579              		.cfi_offset 4, -36
 1580              		.cfi_offset 5, -32
 1581              		.cfi_offset 6, -28
 1582              		.cfi_offset 7, -24
 1583              		.cfi_offset 8, -20
 1584              		.cfi_offset 9, -16
 1585              		.cfi_offset 10, -12
 1586              		.cfi_offset 11, -8
 1587              		.cfi_offset 14, -4
 215:screen.c      ****     if (steep) 
 1588              		.loc 1 215 0
 1589 0004 C1EB030A 		rsb	r10, r1, r3
 1590 0008 C0EB020B 		rsb	fp, r0, r2
 1591 000c BAF1000F 		cmp	r10, #0
 1592 0010 B8BF     		it	lt
 1593 0012 CAF1000A 		rsblt	r10, r10, #0
 1594 0016 BBF1000F 		cmp	fp, #0
 1595 001a B8BF     		it	lt
 1596 001c CBF1000B 		rsblt	fp, fp, #0
 1597              	.LVL227:
 214:screen.c      ****     int16_t steep = abs(y1 - y0) > abs(x1 - x0);
 1598              		.loc 1 214 0
 1599 0020 87B0     		sub	sp, sp, #28
 1600              		.cfi_def_cfa_offset 64
 216:screen.c      ****     {
 1601              		.loc 1 216 0
 1602 0022 DA45     		cmp	r10, fp
 214:screen.c      ****     int16_t steep = abs(y1 - y0) > abs(x1 - x0);
 1603              		.loc 1 214 0
 1604 0024 9146     		mov	r9, r2
 215:screen.c      ****     if (steep) 
 1605              		.loc 1 215 0
 1606 0026 1446     		mov	r4, r2
 214:screen.c      ****     int16_t steep = abs(y1 - y0) > abs(x1 - x0);
 1607              		.loc 1 214 0
 1608 0028 8846     		mov	r8, r1
 1609 002a BDF84020 		ldrh	r2, [sp, #64]
 1610              	.LVL228:
 216:screen.c      ****     {
 1611              		.loc 1 216 0
ARM GAS  C:\Users\legoc\AppData\Local\Temp\ccMAvaOS.s 			page 39


 1612 002e 00F39380 		bgt	.L186
 1613 0032 0546     		mov	r5, r0
 1614 0034 5146     		mov	r1, r10
 1615              	.LVL229:
 1616 0036 1C46     		mov	r4, r3
 1617 0038 4046     		mov	r0, r8
 1618              	.LVL230:
 1619              	.L173:
 221:screen.c      ****     {
 1620              		.loc 1 221 0
 1621 003a 4D45     		cmp	r5, r9
 1622 003c 09DD     		ble	.L174
 1623 003e 4746     		mov	r7, r8
 1624 0040 2E46     		mov	r6, r5
 1625              	.LBB264:
 224:screen.c      ****     }
 1626              		.loc 1 224 0
 1627 0042 9846     		mov	r8, r3
 1628              	.LVL231:
 1629              	.LBE264:
 221:screen.c      ****     {
 1630              		.loc 1 221 0
 1631 0044 4D46     		mov	r5, r9
 1632              	.LVL232:
 1633              	.LBB265:
 224:screen.c      ****     }
 1634              		.loc 1 224 0
 1635 0046 3B46     		mov	r3, r7
 1636              	.LVL233:
 1637              	.LBE265:
 221:screen.c      ****     {
 1638              		.loc 1 221 0
 1639 0048 B146     		mov	r9, r6
 1640              	.LVL234:
 1641 004a 011B     		subs	r1, r0, r4
 1642 004c 0029     		cmp	r1, #0
 1643 004e B8BF     		it	lt
 1644 0050 4942     		rsblt	r1, r1, #0
 1645              	.L174:
 1646              	.LVL235:
 228:screen.c      ****     dy = abs(y1 - y0);
 1647              		.loc 1 228 0
 1648 0052 AEB2     		uxth	r6, r5
 1649 0054 C6EB0900 		rsb	r0, r6, r9
 1650 0058 80B2     		uxth	r0, r0
 231:screen.c      ****     int16_t ystep;
 1651              		.loc 1 231 0
 1652 005a 04B2     		sxth	r4, r0
 1653 005c 04EBD474 		add	r4, r4, r4, lsr #31
 234:screen.c      ****     {
 1654              		.loc 1 234 0
 1655 0060 4345     		cmp	r3, r8
 228:screen.c      ****     dy = abs(y1 - y0);
 1656              		.loc 1 228 0
 1657 0062 0290     		str	r0, [sp, #8]
 1658              	.LVL236:
 231:screen.c      ****     int16_t ystep;
ARM GAS  C:\Users\legoc\AppData\Local\Temp\ccMAvaOS.s 			page 40


 1659              		.loc 1 231 0
 1660 0064 4FEA6404 		asr	r4, r4, #1
 1661              	.LVL237:
 234:screen.c      ****     {
 1662              		.loc 1 234 0
 1663 0068 70DD     		ble	.L198
 1664 006a 0123     		movs	r3, #1
 1665              	.LVL238:
 1666 006c 0393     		str	r3, [sp, #12]
 1667              	.L175:
 1668 006e 8BB2     		uxth	r3, r1
 1669 0070 C6F59F76 		rsb	r6, r6, #318
 1670 0074 0193     		str	r3, [sp, #4]
 1671              	.LBB266:
 1672              	.LBB267:
 1673              	.LBB268:
 1674              	.LBB269:
 193:screen.c      ****     while(SS_Read() != 1){}
 1675              		.loc 1 193 0
 1676 0076 130A     		lsrs	r3, r2, #8
 1677 0078 0136     		adds	r6, r6, #1
 1678 007a 0493     		str	r3, [sp, #16]
 1679              	.LBE269:
 1680              	.LBE268:
 1681              	.LBE267:
 1682              	.LBE266:
 1683              	.LBB279:
 1684              	.LBB280:
 1685              	.LBB281:
 1686              	.LBB282:
 1687              	.LBB283:
 1688              	.LBB284:
 195:screen.c      ****     while(SS_Read() != 1){}
 1689              		.loc 1 195 0
 1690 007c D3B2     		uxtb	r3, r2
 1691 007e B6B2     		uxth	r6, r6
 1692 0080 0593     		str	r3, [sp, #20]
 1693              	.LVL239:
 1694              	.L183:
 1695              	.LBE284:
 1696              	.LBE283:
 1697              	.LBE282:
 1698              	.LBE281:
 1699              	.LBE280:
 1700              	.LBE279:
 243:screen.c      ****         {
 1701              		.loc 1 243 0
 1702 0082 DA45     		cmp	r10, fp
 1703 0084 36DD     		ble	.L176
 1704              	.LVL240:
 1705              	.LBB295:
 1706              	.LBB278:
 207:screen.c      **** //    change_pixel(y, x, color);
 1707              		.loc 1 207 0
 1708 0086 A6F15000 		sub	r0, r6, #80
 1709 008a 80B2     		uxth	r0, r0
 1710              	.LBB275:
ARM GAS  C:\Users\legoc\AppData\Local\Temp\ccMAvaOS.s 			page 41


 1711              	.LBB272:
 181:screen.c      **** 
 1712              		.loc 1 181 0
 1713 008c EF28     		cmp	r0, #239
 1714              	.LBE272:
 1715              	.LBE275:
 207:screen.c      **** //    change_pixel(y, x, color);
 1716              		.loc 1 207 0
 1717 008e 1FFA88F7 		uxth	r7, r8
 1718              	.LVL241:
 1719              	.LBB276:
 1720              	.LBB273:
 181:screen.c      **** 
 1721              		.loc 1 181 0
 1722 0092 20D8     		bhi	.L177
 1723              	.LBE273:
 1724              	.LBE276:
 207:screen.c      **** //    change_pixel(y, x, color);
 1725              		.loc 1 207 0
 1726 0094 C7F59F71 		rsb	r1, r7, #318
 1727 0098 0131     		adds	r1, r1, #1
 1728 009a 89B2     		uxth	r1, r1
 1729              	.LBB277:
 1730              	.LBB274:
 181:screen.c      **** 
 1731              		.loc 1 181 0
 1732 009c B1F5A07F 		cmp	r1, #320
 1733 00a0 19D2     		bcs	.L177
 184:screen.c      **** 
 1734              		.loc 1 184 0
 1735 00a2 0123     		movs	r3, #1
 1736 00a4 1A46     		mov	r2, r3
 1737 00a6 FFF7FEFF 		bl	setAddrWindow
 1738              	.LVL242:
 191:screen.c      ****     SS_Write(0);
 1739              		.loc 1 191 0
 1740 00aa 0120     		movs	r0, #1
 1741 00ac FFF7FEFF 		bl	D_C_Write
 1742              	.LVL243:
 192:screen.c      ****     SPIM_WriteTxData(color >> 8);
 1743              		.loc 1 192 0
 1744 00b0 0020     		movs	r0, #0
 1745 00b2 FFF7FEFF 		bl	SS_Write
 1746              	.LVL244:
 193:screen.c      ****     while(SS_Read() != 1){}
 1747              		.loc 1 193 0
 1748 00b6 0498     		ldr	r0, [sp, #16]
 1749 00b8 FFF7FEFF 		bl	SPIM_WriteTxData
 1750              	.LVL245:
 1751              	.L178:
 194:screen.c      ****     SPIM_WriteTxData(color);
 1752              		.loc 1 194 0
 1753 00bc FFF7FEFF 		bl	SS_Read
 1754              	.LVL246:
 1755 00c0 0128     		cmp	r0, #1
 1756 00c2 FBD1     		bne	.L178
 1757              	.LVL247:
ARM GAS  C:\Users\legoc\AppData\Local\Temp\ccMAvaOS.s 			page 42


 1758              	.LBB270:
 1759              	.LBB271:
 195:screen.c      ****     while(SS_Read() != 1){}
 1760              		.loc 1 195 0
 1761 00c4 0598     		ldr	r0, [sp, #20]
 1762 00c6 FFF7FEFF 		bl	SPIM_WriteTxData
 1763              	.LVL248:
 1764              	.L179:
 196:screen.c      ****     SS_Write(1);
 1765              		.loc 1 196 0
 1766 00ca FFF7FEFF 		bl	SS_Read
 1767              	.LVL249:
 1768 00ce 0128     		cmp	r0, #1
 1769 00d0 FBD1     		bne	.L179
 1770              	.LVL250:
 1771              	.L196:
 1772              	.LBE271:
 1773              	.LBE270:
 1774              	.LBE274:
 1775              	.LBE277:
 1776              	.LBE278:
 1777              	.LBE295:
 1778              	.LBB296:
 1779              	.LBB293:
 1780              	.LBB291:
 1781              	.LBB289:
 1782              	.LBB287:
 1783              	.LBB285:
 197:screen.c      **** 
 1784              		.loc 1 197 0
 1785 00d2 FFF7FEFF 		bl	SS_Write
 1786              	.LVL251:
 1787              	.L177:
 1788              	.LBE285:
 1789              	.LBE287:
 1790              	.LBE289:
 1791              	.LBE291:
 1792              	.LBE293:
 1793              	.LBE296:
 250:screen.c      ****         if (err < 0) 
 1794              		.loc 1 250 0
 1795 00d6 019B     		ldr	r3, [sp, #4]
 1796 00d8 E41A     		subs	r4, r4, r3
 1797              	.LVL252:
 1798 00da A3B2     		uxth	r3, r4
 1799 00dc 1CB2     		sxth	r4, r3
 1800              	.LVL253:
 251:screen.c      ****         {
 1801              		.loc 1 251 0
 1802 00de 002C     		cmp	r4, #0
 1803 00e0 2CDB     		blt	.L199
 1804              	.L182:
 1805 00e2 0135     		adds	r5, r5, #1
 1806              	.LVL254:
 1807 00e4 2DB2     		sxth	r5, r5
 1808              	.LVL255:
 1809 00e6 013E     		subs	r6, r6, #1
ARM GAS  C:\Users\legoc\AppData\Local\Temp\ccMAvaOS.s 			page 43


 241:screen.c      ****     {
 1810              		.loc 1 241 0
 1811 00e8 A945     		cmp	r9, r5
 1812 00ea B6B2     		uxth	r6, r6
 1813 00ec C9DA     		bge	.L183
 1814              	.L172:
 257:screen.c      ****     
 1815              		.loc 1 257 0
 1816 00ee 07B0     		add	sp, sp, #28
 1817              		.cfi_remember_state
 1818              		.cfi_def_cfa_offset 36
 1819              		@ sp needed
 1820 00f0 BDE8F08F 		pop	{r4, r5, r6, r7, r8, r9, r10, fp, pc}
 1821              	.LVL256:
 1822              	.L176:
 1823              		.cfi_restore_state
 1824              	.LBB297:
 1825              	.LBB294:
 207:screen.c      **** //    change_pixel(y, x, color);
 1826              		.loc 1 207 0
 1827 00f4 1FFA88F7 		uxth	r7, r8
 1828 00f8 C7F1EF00 		rsb	r0, r7, #239
 1829 00fc 80B2     		uxth	r0, r0
 1830              	.LVL257:
 1831              	.LBB292:
 1832              	.LBB290:
 181:screen.c      **** 
 1833              		.loc 1 181 0
 1834 00fe EF28     		cmp	r0, #239
 1835 0100 E9D8     		bhi	.L177
 1836 0102 B6F5A07F 		cmp	r6, #320
 1837 0106 E6D2     		bcs	.L177
 184:screen.c      **** 
 1838              		.loc 1 184 0
 1839 0108 0123     		movs	r3, #1
 1840 010a 1A46     		mov	r2, r3
 1841 010c 3146     		mov	r1, r6
 1842 010e FFF7FEFF 		bl	setAddrWindow
 1843              	.LVL258:
 191:screen.c      ****     SS_Write(0);
 1844              		.loc 1 191 0
 1845 0112 0120     		movs	r0, #1
 1846 0114 FFF7FEFF 		bl	D_C_Write
 1847              	.LVL259:
 192:screen.c      ****     SPIM_WriteTxData(color >> 8);
 1848              		.loc 1 192 0
 1849 0118 0020     		movs	r0, #0
 1850 011a FFF7FEFF 		bl	SS_Write
 1851              	.LVL260:
 193:screen.c      ****     while(SS_Read() != 1){}
 1852              		.loc 1 193 0
 1853 011e 0498     		ldr	r0, [sp, #16]
 1854 0120 FFF7FEFF 		bl	SPIM_WriteTxData
 1855              	.LVL261:
 1856              	.L180:
 194:screen.c      ****     SPIM_WriteTxData(color);
 1857              		.loc 1 194 0
ARM GAS  C:\Users\legoc\AppData\Local\Temp\ccMAvaOS.s 			page 44


 1858 0124 FFF7FEFF 		bl	SS_Read
 1859              	.LVL262:
 1860 0128 0128     		cmp	r0, #1
 1861 012a FBD1     		bne	.L180
 1862              	.LVL263:
 1863              	.LBB288:
 1864              	.LBB286:
 195:screen.c      ****     while(SS_Read() != 1){}
 1865              		.loc 1 195 0
 1866 012c 0598     		ldr	r0, [sp, #20]
 1867 012e FFF7FEFF 		bl	SPIM_WriteTxData
 1868              	.LVL264:
 1869              	.L181:
 196:screen.c      ****     SS_Write(1);
 1870              		.loc 1 196 0
 1871 0132 FFF7FEFF 		bl	SS_Read
 1872              	.LVL265:
 1873 0136 0128     		cmp	r0, #1
 1874 0138 FBD1     		bne	.L181
 1875 013a CAE7     		b	.L196
 1876              	.LVL266:
 1877              	.L199:
 1878              	.LBE286:
 1879              	.LBE288:
 1880              	.LBE290:
 1881              	.LBE292:
 1882              	.LBE294:
 1883              	.LBE297:
 253:screen.c      ****             err += dx;
 1884              		.loc 1 253 0
 1885 013c 039A     		ldr	r2, [sp, #12]
 1886 013e 1744     		add	r7, r7, r2
 254:screen.c      ****         }
 1887              		.loc 1 254 0
 1888 0140 029A     		ldr	r2, [sp, #8]
 253:screen.c      ****             err += dx;
 1889              		.loc 1 253 0
 1890 0142 0FFA87F8 		sxth	r8, r7
 1891              	.LVL267:
 254:screen.c      ****         }
 1892              		.loc 1 254 0
 1893 0146 9C18     		adds	r4, r3, r2
 1894              	.LVL268:
 1895 0148 24B2     		sxth	r4, r4
 1896              	.LVL269:
 1897 014a CAE7     		b	.L182
 1898              	.LVL270:
 1899              	.L198:
 241:screen.c      ****     {
 1900              		.loc 1 241 0 discriminator 1
 1901 014c A945     		cmp	r9, r5
 1902 014e CEDB     		blt	.L172
 241:screen.c      ****     {
 1903              		.loc 1 241 0 is_stmt 0
 1904 0150 4FF6FF73 		movw	r3, #65535
 1905              	.LVL271:
 1906 0154 0393     		str	r3, [sp, #12]
ARM GAS  C:\Users\legoc\AppData\Local\Temp\ccMAvaOS.s 			page 45


 1907 0156 8AE7     		b	.L175
 1908              	.LVL272:
 1909              	.L186:
 1910              	.LBB298:
 219:screen.c      ****     }
 1911              		.loc 1 219 0 is_stmt 1
 1912 0158 9946     		mov	r9, r3
 1913              	.LBE298:
 1914              	.LBB299:
 218:screen.c      ****         _swap_int16_t(x1, y1);
 1915              		.loc 1 218 0
 1916 015a 0D46     		mov	r5, r1
 1917              	.LBE299:
 1918              	.LBB300:
 219:screen.c      ****     }
 1919              		.loc 1 219 0
 1920 015c 2346     		mov	r3, r4
 1921              	.LVL273:
 1922              	.LBE300:
 1923 015e 5946     		mov	r1, fp
 1924              	.LVL274:
 1925              	.LBB301:
 218:screen.c      ****         _swap_int16_t(x1, y1);
 1926              		.loc 1 218 0
 1927 0160 8046     		mov	r8, r0
 1928 0162 6AE7     		b	.L173
 1929              	.LBE301:
 1930              		.cfi_endproc
 1931              	.LFE10:
 1932              		.size	write_line, .-write_line
 1933              		.section	.text.drawFastHLine,"ax",%progbits
 1934              		.align	2
 1935              		.global	drawFastHLine
 1936              		.thumb
 1937              		.thumb_func
 1938              		.type	drawFastHLine, %function
 1939              	drawFastHLine:
 1940              	.LFB11:
 262:screen.c      ****     // Calls write_line
 1941              		.loc 1 262 0
 1942              		.cfi_startproc
 1943              		@ args = 0, pretend = 0, frame = 0
 1944              		@ frame_needed = 0, uses_anonymous_args = 0
 1945              	.LVL275:
 1946 0000 00B5     		push	{lr}
 1947              		.cfi_def_cfa_offset 4
 1948              		.cfi_offset 14, -4
 264:screen.c      **** }
 1949              		.loc 1 264 0
 1950 0002 013A     		subs	r2, r2, #1
 1951              	.LVL276:
 262:screen.c      ****     // Calls write_line
 1952              		.loc 1 262 0
 1953 0004 83B0     		sub	sp, sp, #12
 1954              		.cfi_def_cfa_offset 16
 264:screen.c      **** }
 1955              		.loc 1 264 0
ARM GAS  C:\Users\legoc\AppData\Local\Temp\ccMAvaOS.s 			page 46


 1956 0006 0244     		add	r2, r2, r0
 1957 0008 0093     		str	r3, [sp]
 1958 000a 12B2     		sxth	r2, r2
 1959 000c 0B46     		mov	r3, r1
 1960              	.LVL277:
 1961 000e FFF7FEFF 		bl	write_line
 1962              	.LVL278:
 265:screen.c      **** 
 1963              		.loc 1 265 0
 1964 0012 03B0     		add	sp, sp, #12
 1965              		.cfi_def_cfa_offset 4
 1966              		@ sp needed
 1967 0014 5DF804FB 		ldr	pc, [sp], #4
 1968              		.cfi_endproc
 1969              	.LFE11:
 1970              		.size	drawFastHLine, .-drawFastHLine
 1971              		.section	.text.drawFastVLine,"ax",%progbits
 1972              		.align	2
 1973              		.global	drawFastVLine
 1974              		.thumb
 1975              		.thumb_func
 1976              		.type	drawFastVLine, %function
 1977              	drawFastVLine:
 1978              	.LFB12:
 270:screen.c      ****     // Calls write_line
 1979              		.loc 1 270 0
 1980              		.cfi_startproc
 1981              		@ args = 0, pretend = 0, frame = 0
 1982              		@ frame_needed = 0, uses_anonymous_args = 0
 1983              	.LVL279:
 1984 0000 10B5     		push	{r4, lr}
 1985              		.cfi_def_cfa_offset 8
 1986              		.cfi_offset 4, -8
 1987              		.cfi_offset 14, -4
 272:screen.c      **** }
 1988              		.loc 1 272 0
 1989 0002 013A     		subs	r2, r2, #1
 1990              	.LVL280:
 1991 0004 5418     		adds	r4, r2, r1
 270:screen.c      ****     // Calls write_line
 1992              		.loc 1 270 0
 1993 0006 82B0     		sub	sp, sp, #8
 1994              		.cfi_def_cfa_offset 16
 272:screen.c      **** }
 1995              		.loc 1 272 0
 1996 0008 0093     		str	r3, [sp]
 1997 000a 0246     		mov	r2, r0
 1998 000c 23B2     		sxth	r3, r4
 1999              	.LVL281:
 2000 000e FFF7FEFF 		bl	write_line
 2001              	.LVL282:
 273:screen.c      **** 
 2002              		.loc 1 273 0
 2003 0012 02B0     		add	sp, sp, #8
 2004              		.cfi_def_cfa_offset 8
 2005              		@ sp needed
 2006 0014 10BD     		pop	{r4, pc}
ARM GAS  C:\Users\legoc\AppData\Local\Temp\ccMAvaOS.s 			page 47


 2007              		.cfi_endproc
 2008              	.LFE12:
 2009              		.size	drawFastVLine, .-drawFastVLine
 2010 0016 00BF     		.section	.text.draw_line,"ax",%progbits
 2011              		.align	2
 2012              		.global	draw_line
 2013              		.thumb
 2014              		.thumb_func
 2015              		.type	draw_line, %function
 2016              	draw_line:
 2017              	.LFB13:
 278:screen.c      ****     // Checks is line is vertical
 2018              		.loc 1 278 0
 2019              		.cfi_startproc
 2020              		@ args = 4, pretend = 0, frame = 0
 2021              		@ frame_needed = 0, uses_anonymous_args = 0
 2022              	.LVL283:
 2023 0000 F0B5     		push	{r4, r5, r6, r7, lr}
 2024              		.cfi_def_cfa_offset 20
 2025              		.cfi_offset 4, -20
 2026              		.cfi_offset 5, -16
 2027              		.cfi_offset 6, -12
 2028              		.cfi_offset 7, -8
 2029              		.cfi_offset 14, -4
 280:screen.c      ****     {
 2030              		.loc 1 280 0
 2031 0002 9042     		cmp	r0, r2
 278:screen.c      ****     // Checks is line is vertical
 2032              		.loc 1 278 0
 2033 0004 0446     		mov	r4, r0
 2034 0006 0E46     		mov	r6, r1
 2035 0008 1F46     		mov	r7, r3
 2036 000a BDF814E0 		ldrh	lr, [sp, #20]
 280:screen.c      ****     {
 2037              		.loc 1 280 0
 2038 000e 16D0     		beq	.L210
 286:screen.c      ****     {
 2039              		.loc 1 286 0
 2040 0010 9942     		cmp	r1, r3
 2041 0012 05D0     		beq	.L211
 293:screen.c      ****     }
 2042              		.loc 1 293 0
 2043 0014 CDF814E0 		str	lr, [sp, #20]
 2044              	.LVL284:
 295:screen.c      **** 
 2045              		.loc 1 295 0
 2046 0018 BDE8F040 		pop	{r4, r5, r6, r7, lr}
 2047              		.cfi_remember_state
 2048              		.cfi_restore 14
 2049              		.cfi_restore 7
 2050              		.cfi_restore 6
 2051              		.cfi_restore 5
 2052              		.cfi_restore 4
 2053              		.cfi_def_cfa_offset 0
 293:screen.c      ****     }
 2054              		.loc 1 293 0
 2055 001c FFF7FEBF 		b	write_line
ARM GAS  C:\Users\legoc\AppData\Local\Temp\ccMAvaOS.s 			page 48


 2056              	.LVL285:
 2057              	.L211:
 2058              		.cfi_restore_state
 288:screen.c      ****         drawFastHLine(x0, y0, x1 - x0 + 1, color);
 2059              		.loc 1 288 0
 2060 0020 9042     		cmp	r0, r2
 2061 0022 1546     		mov	r5, r2
 2062 0024 01DD     		ble	.L208
 2063 0026 1446     		mov	r4, r2
 2064 0028 0546     		mov	r5, r0
 2065              	.L208:
 2066              	.LVL286:
 2067              	.LBB313:
 2068              	.LBB314:
 264:screen.c      **** }
 2069              		.loc 1 264 0
 2070 002a CDF814E0 		str	lr, [sp, #20]
 2071              	.LVL287:
 2072 002e 2A46     		mov	r2, r5
 2073 0030 2046     		mov	r0, r4
 2074 0032 3346     		mov	r3, r6
 2075              	.LVL288:
 2076 0034 3146     		mov	r1, r6
 2077              	.LVL289:
 2078              	.LBE314:
 2079              	.LBE313:
 295:screen.c      **** 
 2080              		.loc 1 295 0
 2081 0036 BDE8F040 		pop	{r4, r5, r6, r7, lr}
 2082              		.cfi_remember_state
 2083              		.cfi_restore 14
 2084              		.cfi_restore 7
 2085              		.cfi_restore 6
 2086              		.cfi_restore 5
 2087              		.cfi_restore 4
 2088              		.cfi_def_cfa_offset 0
 2089              	.LVL290:
 2090              	.LBB316:
 2091              	.LBB315:
 264:screen.c      **** }
 2092              		.loc 1 264 0
 2093 003a FFF7FEBF 		b	write_line
 2094              	.LVL291:
 2095              	.L210:
 2096              		.cfi_restore_state
 2097              	.LBE315:
 2098              	.LBE316:
 2099              	.LBB317:
 2100              	.LBB318:
 282:screen.c      ****         drawFastVLine(x0, y0, y1 - y0 + 1, color);
 2101              		.loc 1 282 0
 2102 003e 9942     		cmp	r1, r3
 2103 0040 01DD     		ble	.L206
 2104 0042 3E46     		mov	r6, r7
 2105 0044 0F46     		mov	r7, r1
 2106              	.L206:
 2107              	.LVL292:
ARM GAS  C:\Users\legoc\AppData\Local\Temp\ccMAvaOS.s 			page 49


 2108              	.LBB319:
 2109              	.LBB320:
 272:screen.c      **** }
 2110              		.loc 1 272 0
 2111 0046 CDF814E0 		str	lr, [sp, #20]
 2112              	.LVL293:
 2113 004a 3B46     		mov	r3, r7
 2114              	.LVL294:
 2115 004c 3146     		mov	r1, r6
 2116              	.LVL295:
 2117 004e 2246     		mov	r2, r4
 2118              	.LVL296:
 2119 0050 2046     		mov	r0, r4
 2120              	.LVL297:
 2121              	.LBE320:
 2122              	.LBE319:
 2123              	.LBE318:
 2124              	.LBE317:
 295:screen.c      **** 
 2125              		.loc 1 295 0
 2126 0052 BDE8F040 		pop	{r4, r5, r6, r7, lr}
 2127              		.cfi_restore 14
 2128              		.cfi_restore 7
 2129              		.cfi_restore 6
 2130              		.cfi_restore 5
 2131              		.cfi_restore 4
 2132              		.cfi_def_cfa_offset 0
 2133              	.LVL298:
 2134              	.LBB324:
 2135              	.LBB323:
 2136              	.LBB322:
 2137              	.LBB321:
 272:screen.c      **** }
 2138              		.loc 1 272 0
 2139 0056 FFF7FEBF 		b	write_line
 2140              	.LVL299:
 2141              	.LBE321:
 2142              	.LBE322:
 2143              	.LBE323:
 2144              	.LBE324:
 2145              		.cfi_endproc
 2146              	.LFE13:
 2147              		.size	draw_line, .-draw_line
 2148 005a 00BF     		.section	.text.draw_button,"ax",%progbits
 2149              		.align	2
 2150              		.global	draw_button
 2151              		.thumb
 2152              		.thumb_func
 2153              		.type	draw_button, %function
 2154              	draw_button:
 2155              	.LFB14:
 299:screen.c      ****     //fills in the rectangle on the screen for the button
 2156              		.loc 1 299 0
 2157              		.cfi_startproc
 2158              		@ args = 12, pretend = 0, frame = 32
 2159              		@ frame_needed = 1, uses_anonymous_args = 0
 2160              	.LVL300:
ARM GAS  C:\Users\legoc\AppData\Local\Temp\ccMAvaOS.s 			page 50


 2161 0000 2DE9F04F 		push	{r4, r5, r6, r7, r8, r9, r10, fp, lr}
 2162              		.cfi_def_cfa_offset 36
 2163              		.cfi_offset 4, -36
 2164              		.cfi_offset 5, -32
 2165              		.cfi_offset 6, -28
 2166              		.cfi_offset 7, -24
 2167              		.cfi_offset 8, -20
 2168              		.cfi_offset 9, -16
 2169              		.cfi_offset 10, -12
 2170              		.cfi_offset 11, -8
 2171              		.cfi_offset 14, -4
 2172 0004 8BB0     		sub	sp, sp, #44
 2173              		.cfi_def_cfa_offset 80
 2174 0006 1C46     		mov	r4, r3
 2175 0008 02AF     		add	r7, sp, #8
 2176              		.cfi_def_cfa 7, 72
 299:screen.c      ****     //fills in the rectangle on the screen for the button
 2177              		.loc 1 299 0
 2178 000a 7B61     		str	r3, [r7, #20]
 2179              	.LVL301:
 2180 000c 0B46     		mov	r3, r1
 2181              	.LVL302:
 2182 000e 9246     		mov	r10, r2
 2183 0010 F960     		str	r1, [r7, #12]
 2184 0012 0146     		mov	r1, r0
 2185              	.LVL303:
 2186              	.LBB336:
 2187              	.LBB337:
 149:screen.c      **** }
 2188              		.loc 1 149 0
 2189 0014 A2B2     		uxth	r2, r4
 2190              	.LVL304:
 2191 0016 D318     		adds	r3, r2, r3
 2192 0018 9BB2     		uxth	r3, r3
 2193 001a 1FFA8AF5 		uxth	r5, r10
 2194              	.LBE337:
 2195              	.LBE336:
 299:screen.c      ****     //fills in the rectangle on the screen for the button
 2196              		.loc 1 299 0
 2197 001e 3861     		str	r0, [r7, #16]
 2198              	.LVL305:
 2199 0020 6C18     		adds	r4, r5, r1
 2200              	.LBB353:
 2201              	.LBB348:
 149:screen.c      **** }
 2202              		.loc 1 149 0
 2203 0022 C3F1F000 		rsb	r0, r3, #240
 2204              	.LVL306:
 2205              	.LBE348:
 2206              	.LBE353:
 299:screen.c      ****     //fills in the rectangle on the screen for the button
 2207              		.loc 1 299 0
 2208 0026 B7F84810 		ldrh	r1, [r7, #72]
 2209              	.LBB354:
 2210              	.LBB349:
 149:screen.c      **** }
 2211              		.loc 1 149 0
ARM GAS  C:\Users\legoc\AppData\Local\Temp\ccMAvaOS.s 			page 51


 2212 002a 80B2     		uxth	r0, r0
 2213 002c 06B2     		sxth	r6, r0
 2214              	.LBE349:
 2215              	.LBE354:
 299:screen.c      ****     //fills in the rectangle on the screen for the button
 2216              		.loc 1 299 0
 2217 002e 7960     		str	r1, [r7, #4]
 2218 0030 B7F84C10 		ldrh	r1, [r7, #76]
 2219              	.LBB355:
 2220              	.LBB350:
 2221              	.LBB338:
 2222              	.LBB339:
 110:screen.c      ****     if((x + w - 1) >= _width)  w = _width  - x;
 2223              		.loc 1 110 0
 2224 0034 EF2E     		cmp	r6, #239
 2225              	.LBE339:
 2226              	.LBE338:
 2227              	.LBE350:
 2228              	.LBE355:
 299:screen.c      ****     //fills in the rectangle on the screen for the button
 2229              		.loc 1 299 0
 2230 0036 B960     		str	r1, [r7, #8]
 2231              	.LVL307:
 2232 0038 D7F85080 		ldr	r8, [r7, #80]
 2233              	.LBB356:
 2234              	.LBB351:
 2235              	.LBB345:
 2236              	.LBB342:
 110:screen.c      ****     if((x + w - 1) >= _width)  w = _width  - x;
 2237              		.loc 1 110 0
 2238 003c 0ADC     		bgt	.L214
 2239 003e A4B2     		uxth	r4, r4
 2240              	.LBE342:
 2241              	.LBE345:
 149:screen.c      **** }
 2242              		.loc 1 149 0
 2243 0040 C4F5A071 		rsb	r1, r4, #320
 2244 0044 1FFA81FC 		uxth	ip, r1
 2245 0048 0FFA8CFE 		sxth	lr, ip
 2246              	.LBB346:
 2247              	.LBB343:
 110:screen.c      ****     if((x + w - 1) >= _width)  w = _width  - x;
 2248              		.loc 1 110 0
 2249 004c BEF5A07F 		cmp	lr, #320
 2250 0050 C0F29680 		blt	.L251
 2251              	.LVL308:
 2252              	.L214:
 2253              	.LBE343:
 2254              	.LBE346:
 2255              	.LBE351:
 2256              	.LBE356:
 305:screen.c      ****     int string_length = 0;
 2257              		.loc 1 305 0
 2258 0054 7A69     		ldr	r2, [r7, #20]
 309:screen.c      ****     {
 2259              		.loc 1 309 0
 2260 0056 98F80030 		ldrb	r3, [r8]	@ zero_extendqisi2
ARM GAS  C:\Users\legoc\AppData\Local\Temp\ccMAvaOS.s 			page 52


 305:screen.c      ****     int string_length = 0;
 2261              		.loc 1 305 0
 2262 005a 02EBD276 		add	r6, r2, r2, lsr #31
 2263 005e FA68     		ldr	r2, [r7, #12]
 304:screen.c      ****     int rect_center_y = y+(h/2);
 2264              		.loc 1 304 0
 2265 0060 0AEBDA79 		add	r9, r10, r10, lsr #31
 305:screen.c      ****     int string_length = 0;
 2266              		.loc 1 305 0
 2267 0064 02EB6606 		add	r6, r2, r6, asr #1
 304:screen.c      ****     int rect_center_y = y+(h/2);
 2268              		.loc 1 304 0
 2269 0068 3A69     		ldr	r2, [r7, #16]
 2270 006a 02EB6909 		add	r9, r2, r9, asr #1
 2271              	.LVL309:
 309:screen.c      ****     {
 2272              		.loc 1 309 0
 2273 006e 002B     		cmp	r3, #0
 2274 0070 00F0DA80 		beq	.L226
 2275 0074 0023     		movs	r3, #0
 2276 0076 00E0     		b	.L227
 2277              	.LVL310:
 2278              	.L239:
 311:screen.c      ****         string++;
 2279              		.loc 1 311 0
 2280 0078 2346     		mov	r3, r4
 2281              	.LVL311:
 2282              	.L227:
 309:screen.c      ****     {
 2283              		.loc 1 309 0
 2284 007a 18F8012F 		ldrb	r2, [r8, #1]!	@ zero_extendqisi2
 311:screen.c      ****         string++;
 2285              		.loc 1 311 0
 2286 007e 5C1C     		adds	r4, r3, #1
 2287              	.LVL312:
 309:screen.c      ****     {
 2288              		.loc 1 309 0
 2289 0080 002A     		cmp	r2, #0
 2290 0082 F9D1     		bne	.L239
 2291              	.LVL313:
 315:screen.c      ****     
 2292              		.loc 1 315 0
 2293 0084 0933     		adds	r3, r3, #9
 2294 0086 23F00703 		bic	r3, r3, #7
 2295 008a ADEB030D 		sub	sp, sp, r3
 2296 008e 02AD     		add	r5, sp, #8
 2297              	.LVL314:
 2298 0090 C4EB0801 		rsb	r1, r4, r8
 2299 0094 2846     		mov	r0, r5
 2300 0096 2246     		mov	r2, r4
 2301 0098 FFF7FEFF 		bl	memcpy
 2302              	.LVL315:
 2303 009c C4EBC403 		rsb	r3, r4, r4, lsl #3
 2304              	.LVL316:
 2305              	.L236:
 327:screen.c      ****     
 2306              		.loc 1 327 0
ARM GAS  C:\Users\legoc\AppData\Local\Temp\ccMAvaOS.s 			page 53


 2307 00a0 0022     		movs	r2, #0
 329:screen.c      ****     {
 2308              		.loc 1 329 0
 2309 00a2 9A45     		cmp	r10, r3
 327:screen.c      ****     
 2310              		.loc 1 327 0
 2311 00a4 2A55     		strb	r2, [r5, r4]
 329:screen.c      ****     {
 2312              		.loc 1 329 0
 2313 00a6 00F3AF80 		bgt	.L252
 337:screen.c      ****     {
 2314              		.loc 1 337 0
 2315 00aa 65DA     		bge	.L212
 2316              	.LBB357:
 339:screen.c      ****         
 2317              		.loc 1 339 0
 2318 00ac 604A     		ldr	r2, .L253
 2319 00ae 4FEAEA73 		asr	r3, r10, #31
 2320 00b2 82FB0A12 		smull	r1, r2, r2, r10
 2321 00b6 9244     		add	r10, r10, r2
 2322 00b8 C3EBAA03 		rsb	r3, r3, r10, asr #2
 2323 00bc 1BB2     		sxth	r3, r3
 2324 00be 03F1FF38 		add	r8, r3, #-1
 2325              	.LVL317:
 341:screen.c      ****         {
 2326              		.loc 1 341 0
 2327 00c2 15F80820 		ldrb	r2, [r5, r8]	@ zero_extendqisi2
 2328 00c6 202A     		cmp	r2, #32
 2329 00c8 07D0     		beq	.L230
 2330 00ca 023B     		subs	r3, r3, #2
 2331 00cc 2B44     		add	r3, r3, r5
 2332              	.L231:
 2333              	.LVL318:
 2334 00ce C5EB0308 		rsb	r8, r5, r3
 2335              	.LVL319:
 2336 00d2 13F80129 		ldrb	r2, [r3], #-1	@ zero_extendqisi2
 2337 00d6 202A     		cmp	r2, #32
 2338 00d8 F9D1     		bne	.L231
 2339              	.L230:
 347:screen.c      ****         
 2340              		.loc 1 347 0
 2341 00da C8EB0404 		rsb	r4, r8, r4
 346:screen.c      ****         char new_string_2[string_length-button_character_width+1];
 2342              		.loc 1 346 0
 2343 00de 08F10803 		add	r3, r8, #8
 2344 00e2 23F00703 		bic	r3, r3, #7
 347:screen.c      ****         
 2345              		.loc 1 347 0
 2346 00e6 04F10802 		add	r2, r4, #8
 2347 00ea 22F00702 		bic	r2, r2, #7
 346:screen.c      ****         char new_string_2[string_length-button_character_width+1];
 2348              		.loc 1 346 0
 2349 00ee C7F814D0 		str	sp, [r7, #20]
 2350              	.LVL320:
 2351 00f2 ADEB030D 		sub	sp, sp, r3
 2352 00f6 02AB     		add	r3, sp, #8
 2353              	.LVL321:
ARM GAS  C:\Users\legoc\AppData\Local\Temp\ccMAvaOS.s 			page 54


 2354              	.LBB358:
 349:screen.c      ****         {
 2355              		.loc 1 349 0
 2356 00f8 B8F1000F 		cmp	r8, #0
 2357              	.LBE358:
 347:screen.c      ****         
 2358              		.loc 1 347 0
 2359 00fc ADEB020D 		sub	sp, sp, r2
 2360 0100 04F10102 		add	r2, r4, #1
 2361 0104 0DF1080B 		add	fp, sp, #8
 2362              	.LVL322:
 2363 0108 3A61     		str	r2, [r7, #16]
 346:screen.c      ****         char new_string_2[string_length-button_character_width+1];
 2364              		.loc 1 346 0
 2365 010a 08F1010A 		add	r10, r8, #1
 2366              	.LBB359:
 349:screen.c      ****         {
 2367              		.loc 1 349 0
 2368 010e 05DD     		ble	.L235
 2369 0110 1846     		mov	r0, r3
 2370 0112 4246     		mov	r2, r8
 2371 0114 2946     		mov	r1, r5
 2372 0116 FFF7FEFF 		bl	memcpy
 2373              	.LVL323:
 2374 011a 0346     		mov	r3, r0
 2375              	.L235:
 2376              	.LVL324:
 2377              	.LBE359:
 2378              	.LBB360:
 353:screen.c      ****         {
 2379              		.loc 1 353 0
 2380 011c 002C     		cmp	r4, #0
 2381 011e 07DD     		ble	.L234
 2382 0120 05EB0A01 		add	r1, r5, r10
 2383 0124 2246     		mov	r2, r4
 2384 0126 5846     		mov	r0, fp
 2385 0128 FB60     		str	r3, [r7, #12]
 2386 012a FFF7FEFF 		bl	memcpy
 2387              	.LVL325:
 2388 012e FB68     		ldr	r3, [r7, #12]
 2389              	.L234:
 2390              	.LBE360:
 358:screen.c      ****         new_string_2[string_length-button_character_width] = 0;
 2391              		.loc 1 358 0
 2392 0130 0022     		movs	r2, #0
 369:screen.c      ****         draw_string(pixel_start_2,rect_center_y-5,text_color,new_string_2,1);
 2393              		.loc 1 369 0
 2394 0132 0125     		movs	r5, #1
 2395              	.LVL326:
 358:screen.c      ****         new_string_2[string_length-button_character_width] = 0;
 2396              		.loc 1 358 0
 2397 0134 03F80820 		strb	r2, [r3, r8]
 359:screen.c      ****         
 2398              		.loc 1 359 0
 2399 0138 0BF80420 		strb	r2, [fp, r4]
 2400              	.LVL327:
 369:screen.c      ****         draw_string(pixel_start_2,rect_center_y-5,text_color,new_string_2,1);
ARM GAS  C:\Users\legoc\AppData\Local\Temp\ccMAvaOS.s 			page 55


 2401              		.loc 1 369 0
 2402 013c CAEBCA0A 		rsb	r10, r10, r10, lsl #3
 2403              	.LVL328:
 2404 0140 0095     		str	r5, [sp]
 2405 0142 BC68     		ldr	r4, [r7, #8]
 2406              	.LVL329:
 2407 0144 0AEBDA7A 		add	r10, r10, r10, lsr #31
 2408 0148 A9EB6A00 		sub	r0, r9, r10, asr #1
 2409 014c 2246     		mov	r2, r4
 2410 014e F11C     		adds	r1, r6, #3
 2411 0150 0530     		adds	r0, r0, #5
 2412 0152 FFF7FEFF 		bl	draw_string
 2413              	.LVL330:
 370:screen.c      ****     }
 2414              		.loc 1 370 0
 2415 0156 3B69     		ldr	r3, [r7, #16]
 2416 0158 2246     		mov	r2, r4
 2417 015a 013B     		subs	r3, r3, #1
 2418 015c C3EBC303 		rsb	r3, r3, r3, lsl #3
 2419 0160 03EBD373 		add	r3, r3, r3, lsr #31
 2420 0164 A9EB6300 		sub	r0, r9, r3, asr #1
 2421 0168 0095     		str	r5, [sp]
 2422 016a 0430     		adds	r0, r0, #4
 2423 016c 5B46     		mov	r3, fp
 2424 016e 711F     		subs	r1, r6, #5
 2425 0170 FFF7FEFF 		bl	draw_string
 2426              	.LVL331:
 2427 0174 D7F814D0 		ldr	sp, [r7, #20]
 2428              	.LVL332:
 2429              	.L212:
 2430              	.LBE357:
 2431              		.loc 1 372 0
 2432 0178 2437     		adds	r7, r7, #36
 2433              		.cfi_remember_state
 2434              		.cfi_def_cfa_offset 36
 2435 017a BD46     		mov	sp, r7
 2436              		.cfi_def_cfa_register 13
 2437              		@ sp needed
 2438 017c BDE8F08F 		pop	{r4, r5, r6, r7, r8, r9, r10, fp, pc}
 2439              	.LVL333:
 2440              	.L251:
 2441              		.cfi_restore_state
 2442              	.LBB361:
 2443              	.LBB352:
 2444              	.LBB347:
 2445              	.LBB344:
 2446              	.LBB340:
 2447              	.LBB341:
 111:screen.c      ****     if((y + h - 1) >= _height) h = _height - y;
 2448              		.loc 1 111 0
 2449 0180 7969     		ldr	r1, [r7, #20]
 112:screen.c      **** 
 2450              		.loc 1 112 0
 2451 0182 D644     		add	lr, lr, r10
 111:screen.c      ****     if((y + h - 1) >= _height) h = _height - y;
 2452              		.loc 1 111 0
 2453 0184 0E44     		add	r6, r6, r1
ARM GAS  C:\Users\legoc\AppData\Local\Temp\ccMAvaOS.s 			page 56


 2454              	.LVL334:
 2455 0186 F02E     		cmp	r6, #240
 2456 0188 C6BF     		itte	gt
 2457 018a 1A46     		movgt	r2, r3
 2458 018c 0FFA83FB 		sxthgt	fp, r3
 2459              	.LVL335:
 2460 0190 8B46     		movle	fp, r1
 2461              	.LVL336:
 112:screen.c      **** 
 2462              		.loc 1 112 0
 2463 0192 BEF5A07F 		cmp	lr, #320
 2464 0196 DABF     		itte	le
 2465 0198 D146     		movle	r9, r10
 2466 019a 2B46     		movle	r3, r5
 2467 019c 2346     		movgt	r3, r4
 115:screen.c      **** 
 2468              		.loc 1 115 0
 2469 019e 6146     		mov	r1, ip
 112:screen.c      **** 
 2470              		.loc 1 112 0
 2471 01a0 C8BF     		it	gt
 2472 01a2 0FFA84F9 		sxthgt	r9, r4
 2473              	.LVL337:
 115:screen.c      **** 
 2474              		.loc 1 115 0
 2475 01a6 FFF7FEFF 		bl	setAddrWindow
 2476              	.LVL338:
 124:screen.c      ****     SS_Write(0);
 2477              		.loc 1 124 0
 2478 01aa 0120     		movs	r0, #1
 2479 01ac FFF7FEFF 		bl	D_C_Write
 2480              	.LVL339:
 118:screen.c      ****     
 2481              		.loc 1 118 0
 2482 01b0 7B68     		ldr	r3, [r7, #4]
 125:screen.c      ****     // Writes color to addresses
 2483              		.loc 1 125 0
 2484 01b2 0020     		movs	r0, #0
 118:screen.c      ****     
 2485              		.loc 1 118 0
 2486 01b4 1E0A     		lsrs	r6, r3, #8
 2487              	.LVL340:
 2488 01b6 DDB2     		uxtb	r5, r3
 2489              	.LVL341:
 125:screen.c      ****     // Writes color to addresses
 2490              		.loc 1 125 0
 2491 01b8 FFF7FEFF 		bl	SS_Write
 2492              	.LVL342:
 127:screen.c      ****     {
 2493              		.loc 1 127 0
 2494 01bc B9F1000F 		cmp	r9, #0
 2495 01c0 1EDD     		ble	.L219
 2496              	.LVL343:
 2497              	.L223:
 129:screen.c      ****         {
 2498              		.loc 1 129 0
 2499 01c2 BBF1000F 		cmp	fp, #0
ARM GAS  C:\Users\legoc\AppData\Local\Temp\ccMAvaOS.s 			page 57


 2500 01c6 C8BF     		it	gt
 2501 01c8 5C46     		movgt	r4, fp
 2502 01ca 12DD     		ble	.L225
 2503              	.LVL344:
 2504              	.L222:
 131:screen.c      ****             while(SS_Read() != 1){}
 2505              		.loc 1 131 0
 2506 01cc 3046     		mov	r0, r6
 2507 01ce FFF7FEFF 		bl	SPIM_WriteTxData
 2508              	.LVL345:
 2509              	.L220:
 132:screen.c      ****             SPIM_WriteTxData(lo);
 2510              		.loc 1 132 0
 2511 01d2 FFF7FEFF 		bl	SS_Read
 2512              	.LVL346:
 2513 01d6 0128     		cmp	r0, #1
 2514 01d8 FBD1     		bne	.L220
 133:screen.c      ****             while(SS_Read() != 1){}
 2515              		.loc 1 133 0
 2516 01da 2846     		mov	r0, r5
 2517 01dc FFF7FEFF 		bl	SPIM_WriteTxData
 2518              	.LVL347:
 2519              	.L221:
 134:screen.c      ****         }
 2520              		.loc 1 134 0
 2521 01e0 FFF7FEFF 		bl	SS_Read
 2522              	.LVL348:
 2523 01e4 0128     		cmp	r0, #1
 2524 01e6 FBD1     		bne	.L221
 2525 01e8 013C     		subs	r4, r4, #1
 2526              	.LVL349:
 2527 01ea A3B2     		uxth	r3, r4
 2528 01ec 1CB2     		sxth	r4, r3
 2529              	.LVL350:
 129:screen.c      ****         {
 2530              		.loc 1 129 0
 2531 01ee 002B     		cmp	r3, #0
 2532 01f0 ECD1     		bne	.L222
 2533              	.LVL351:
 2534              	.L225:
 2535 01f2 09F1FF33 		add	r3, r9, #-1
 2536 01f6 9BB2     		uxth	r3, r3
 2537 01f8 0FFA83F9 		sxth	r9, r3
 2538              	.LVL352:
 127:screen.c      ****     {
 2539              		.loc 1 127 0
 2540 01fc 002B     		cmp	r3, #0
 2541 01fe E0D1     		bne	.L223
 2542              	.L219:
 137:screen.c      **** 
 2543              		.loc 1 137 0
 2544 0200 0120     		movs	r0, #1
 2545 0202 FFF7FEFF 		bl	SS_Write
 2546              	.LVL353:
 2547 0206 25E7     		b	.L214
 2548              	.LVL354:
 2549              	.L252:
ARM GAS  C:\Users\legoc\AppData\Local\Temp\ccMAvaOS.s 			page 58


 2550              	.LBE341:
 2551              	.LBE340:
 2552              	.LBE344:
 2553              	.LBE347:
 2554              	.LBE352:
 2555              	.LBE361:
 2556              	.LBB362:
 335:screen.c      ****     }
 2557              		.loc 1 335 0
 2558 0208 03EBD373 		add	r3, r3, r3, lsr #31
 2559              	.LVL355:
 2560 020c A9EB6300 		sub	r0, r9, r3, asr #1
 2561 0210 0124     		movs	r4, #1
 2562 0212 BA68     		ldr	r2, [r7, #8]
 2563 0214 2B46     		mov	r3, r5
 2564 0216 711E     		subs	r1, r6, #1
 2565 0218 0094     		str	r4, [sp]
 2566 021a 0330     		adds	r0, r0, #3
 2567 021c FFF7FEFF 		bl	draw_string
 2568              	.LVL356:
 2569              	.LBE362:
 2570              		.loc 1 372 0
 2571 0220 2437     		adds	r7, r7, #36
 2572              		.cfi_remember_state
 2573              		.cfi_def_cfa_offset 36
 2574 0222 BD46     		mov	sp, r7
 2575              		.cfi_def_cfa_register 13
 2576              		@ sp needed
 2577 0224 BDE8F08F 		pop	{r4, r5, r6, r7, r8, r9, r10, fp, pc}
 2578              	.LVL357:
 2579              	.L226:
 2580              		.cfi_restore_state
 315:screen.c      ****     
 2581              		.loc 1 315 0
 2582 0228 07F11C05 		add	r5, r7, #28
 2583              	.LVL358:
 306:screen.c      ****     
 2584              		.loc 1 306 0
 2585 022c 1C46     		mov	r4, r3
 2586 022e 37E7     		b	.L236
 2587              	.L254:
 2588              		.align	2
 2589              	.L253:
 2590 0230 93244992 		.word	-1840700269
 2591              		.cfi_endproc
 2592              	.LFE14:
 2593              		.size	draw_button, .-draw_button
 2594              		.global	__aeabi_i2d
 2595              		.global	__aeabi_ddiv
 2596              		.global	__aeabi_d2iz
 2597              		.section	.text.draw_coordinates,"ax",%progbits
 2598              		.align	2
 2599              		.global	draw_coordinates
 2600              		.thumb
 2601              		.thumb_func
 2602              		.type	draw_coordinates, %function
 2603              	draw_coordinates:
ARM GAS  C:\Users\legoc\AppData\Local\Temp\ccMAvaOS.s 			page 59


 2604              	.LFB15:
 373:screen.c      **** 
 374:screen.c      **** void draw_coordinates(int y_max, unsigned int device_selection)
 375:screen.c      **** {
 2605              		.loc 1 375 0
 2606              		.cfi_startproc
 2607              		@ args = 0, pretend = 0, frame = 24
 2608              		@ frame_needed = 0, uses_anonymous_args = 0
 2609              	.LVL359:
 2610 0000 2DE9F04F 		push	{r4, r5, r6, r7, r8, r9, r10, fp, lr}
 2611              		.cfi_def_cfa_offset 36
 2612              		.cfi_offset 4, -36
 2613              		.cfi_offset 5, -32
 2614              		.cfi_offset 6, -28
 2615              		.cfi_offset 7, -24
 2616              		.cfi_offset 8, -20
 2617              		.cfi_offset 9, -16
 2618              		.cfi_offset 10, -12
 2619              		.cfi_offset 11, -8
 2620              		.cfi_offset 14, -4
 2621 0004 8946     		mov	r9, r1
 2622              	.LBB425:
 2623              	.LBB426:
 2624              	.LBB427:
 2625              	.LBB428:
 2626              	.LBB429:
 2627              	.LBB430:
 115:screen.c      **** 
 2628              		.loc 1 115 0
 2629 0006 0021     		movs	r1, #0
 2630              	.LVL360:
 2631              	.LBE430:
 2632              	.LBE429:
 2633              	.LBE428:
 2634              	.LBE427:
 2635              	.LBE426:
 2636              	.LBE425:
 2637              		.loc 1 375 0
 2638 0008 8BB0     		sub	sp, sp, #44
 2639              		.cfi_def_cfa_offset 80
 2640              	.LBB446:
 2641              	.LBB443:
 2642              	.LBB440:
 2643              	.LBB437:
 2644              	.LBB434:
 2645              	.LBB431:
 115:screen.c      **** 
 2646              		.loc 1 115 0
 2647 000a 4FF4A073 		mov	r3, #320
 2648 000e F022     		movs	r2, #240
 2649              	.LBE431:
 2650              	.LBE434:
 2651              	.LBE437:
 2652              	.LBE440:
 2653              	.LBE443:
 2654              	.LBE446:
 2655              		.loc 1 375 0
ARM GAS  C:\Users\legoc\AppData\Local\Temp\ccMAvaOS.s 			page 60


 2656 0010 0746     		mov	r7, r0
 2657              	.LBB447:
 2658              	.LBB444:
 2659              	.LBB441:
 2660              	.LBB438:
 2661              	.LBB435:
 2662              	.LBB432:
 115:screen.c      **** 
 2663              		.loc 1 115 0
 2664 0012 0846     		mov	r0, r1
 2665              	.LVL361:
 2666 0014 FFF7FEFF 		bl	setAddrWindow
 2667              	.LVL362:
 124:screen.c      ****     SS_Write(0);
 2668              		.loc 1 124 0
 2669 0018 0120     		movs	r0, #1
 2670 001a FFF7FEFF 		bl	D_C_Write
 2671              	.LVL363:
 125:screen.c      ****     // Writes color to addresses
 2672              		.loc 1 125 0
 2673 001e 0020     		movs	r0, #0
 2674 0020 FFF7FEFF 		bl	SS_Write
 2675              	.LVL364:
 2676 0024 4FF4A076 		mov	r6, #320
 2677              	.LVL365:
 2678              	.L256:
 2679              	.LBE432:
 2680              	.LBE435:
 2681              	.LBE438:
 2682              	.LBE441:
 2683              	.LBE444:
 2684              	.LBE447:
 2685              		.loc 1 375 0
 2686 0028 F025     		movs	r5, #240
 2687              	.LVL366:
 2688              	.L259:
 2689              	.LBB448:
 2690              	.LBB445:
 2691              	.LBB442:
 2692              	.LBB439:
 2693              	.LBB436:
 2694              	.LBB433:
 131:screen.c      ****             while(SS_Read() != 1){}
 2695              		.loc 1 131 0
 2696 002a 0020     		movs	r0, #0
 2697 002c FFF7FEFF 		bl	SPIM_WriteTxData
 2698              	.LVL367:
 2699              	.L257:
 132:screen.c      ****             SPIM_WriteTxData(lo);
 2700              		.loc 1 132 0
 2701 0030 FFF7FEFF 		bl	SS_Read
 2702              	.LVL368:
 2703 0034 0128     		cmp	r0, #1
 2704 0036 FBD1     		bne	.L257
 133:screen.c      ****             while(SS_Read() != 1){}
 2705              		.loc 1 133 0
 2706 0038 0020     		movs	r0, #0
ARM GAS  C:\Users\legoc\AppData\Local\Temp\ccMAvaOS.s 			page 61


 2707 003a FFF7FEFF 		bl	SPIM_WriteTxData
 2708              	.LVL369:
 2709              	.L258:
 134:screen.c      ****         }
 2710              		.loc 1 134 0
 2711 003e FFF7FEFF 		bl	SS_Read
 2712              	.LVL370:
 2713 0042 0128     		cmp	r0, #1
 2714 0044 0446     		mov	r4, r0
 2715 0046 FAD1     		bne	.L258
 2716 0048 013D     		subs	r5, r5, #1
 2717 004a ADB2     		uxth	r5, r5
 129:screen.c      ****         {
 2718              		.loc 1 129 0
 2719 004c 002D     		cmp	r5, #0
 2720 004e ECD1     		bne	.L259
 2721 0050 013E     		subs	r6, r6, #1
 2722 0052 B6B2     		uxth	r6, r6
 127:screen.c      ****     {
 2723              		.loc 1 127 0
 2724 0054 002E     		cmp	r6, #0
 2725 0056 E7D1     		bne	.L256
 137:screen.c      **** 
 2726              		.loc 1 137 0
 2727 0058 FFF7FEFF 		bl	SS_Write
 2728              	.LVL371:
 2729              	.LBE433:
 2730              	.LBE436:
 2731              	.LBE439:
 2732              	.LBE442:
 2733              	.LBE445:
 2734              	.LBE448:
 376:screen.c      ****     fill_screen(BLACK);
 377:screen.c      ****     
 378:screen.c      ****     int y_max_pixel = (int) 240/(1.25);
 379:screen.c      ****     int five_mA_pixel = (int) (y_max_pixel*5.0/y_max);
 2735              		.loc 1 379 0
 2736 005c 3846     		mov	r0, r7
 2737 005e FFF7FEFF 		bl	__aeabi_i2d
 2738              	.LVL372:
 2739 0062 0246     		mov	r2, r0
 2740 0064 0B46     		mov	r3, r1
 2741 0066 0020     		movs	r0, #0
 2742 0068 5249     		ldr	r1, .L283
 2743 006a FFF7FEFF 		bl	__aeabi_ddiv
 2744              	.LVL373:
 2745 006e FFF7FEFF 		bl	__aeabi_d2iz
 2746              	.LVL374:
 2747              	.LBB449:
 2748              	.LBB450:
 2749              	.LBB451:
 264:screen.c      **** }
 2750              		.loc 1 264 0
 2751 0072 4FF6FF75 		movw	r5, #65535
 2752 0076 0A23     		movs	r3, #10
 2753 0078 1946     		mov	r1, r3
 2754 007a DC22     		movs	r2, #220
ARM GAS  C:\Users\legoc\AppData\Local\Temp\ccMAvaOS.s 			page 62


 2755              	.LBE451:
 2756              	.LBE450:
 2757              	.LBE449:
 2758              		.loc 1 379 0
 2759 007c 8246     		mov	r10, r0
 2760              	.LVL375:
 2761              	.LBB454:
 2762              	.LBB453:
 2763              	.LBB452:
 264:screen.c      **** }
 2764              		.loc 1 264 0
 2765 007e 0095     		str	r5, [sp]
 2766 0080 1E20     		movs	r0, #30
 2767              	.LVL376:
 2768 0082 FFF7FEFF 		bl	write_line
 2769              	.LVL377:
 2770              	.LBE452:
 2771              	.LBE453:
 2772              	.LBE454:
 2773              	.LBB455:
 2774              	.LBB456:
 2775              	.LBB457:
 2776              	.LBB458:
 272:screen.c      **** }
 2777              		.loc 1 272 0
 2778 0086 1E22     		movs	r2, #30
 2779 0088 0095     		str	r5, [sp]
 2780 008a 1046     		mov	r0, r2
 2781 008c C923     		movs	r3, #201
 2782 008e 0A21     		movs	r1, #10
 2783 0090 FFF7FEFF 		bl	write_line
 2784              	.LVL378:
 2785              	.LBE458:
 2786              	.LBE457:
 2787              	.LBE456:
 2788              	.LBE455:
 380:screen.c      ****     int y_label;
 381:screen.c      ****     int x_label;
 382:screen.c      ****     char string_throwaway_y[10];
 383:screen.c      ****     char string_throwaway_x[4]; //= NULL;
 384:screen.c      ****     //string_print = malloc(sizeof(**string_print)*3);
 385:screen.c      ****     int x_max_step;
 386:screen.c      ****     int i;
 387:screen.c      ****     int k;
 388:screen.c      ****     draw_line(30,10,220,10,WHITE); //draw x axis line
 389:screen.c      ****     draw_line(30,10,30,y_max_pixel+9,WHITE);//draw y axis line
 390:screen.c      ****     
 391:screen.c      ****     if(device_selection < 2)
 392:screen.c      ****     {
 393:screen.c      ****         x_max_step = 189/9;
 2789              		.loc 1 393 0
 2790 0094 B9F1010F 		cmp	r9, #1
 2791 0098 8CBF     		ite	hi
 2792 009a 4FF00C08 		movhi	r8, #12
 2793 009e 4FF01508 		movls	r8, #21
 2794              	.LVL379:
 394:screen.c      ****     }
ARM GAS  C:\Users\legoc\AppData\Local\Temp\ccMAvaOS.s 			page 63


 395:screen.c      ****     else
 396:screen.c      ****     {
 397:screen.c      ****         x_max_step = 189/15;
 398:screen.c      ****     }
 399:screen.c      ****     
 400:screen.c      ****     if((device_selection)%2 == 0)
 2795              		.loc 1 400 0
 2796 00a2 19F0010F 		tst	r9, #1
 2797              	.LBB459:
 401:screen.c      ****     {
 402:screen.c      ****         draw_string(230,4,WHITE,"VDS V",1);
 2798              		.loc 1 402 0
 2799 00a6 0094     		str	r4, [sp]
 2800              	.LBE459:
 400:screen.c      ****     {
 2801              		.loc 1 400 0
 2802 00a8 75D1     		bne	.L262
 2803              	.LBB460:
 2804              		.loc 1 402 0
 2805 00aa 434B     		ldr	r3, .L283+4
 2806 00ac 2A46     		mov	r2, r5
 2807 00ae 0421     		movs	r1, #4
 2808 00b0 E620     		movs	r0, #230
 2809 00b2 FFF7FEFF 		bl	draw_string
 2810              	.LVL380:
 403:screen.c      ****         draw_string(3,y_max_pixel + 25,WHITE,"ID MIL A",1);
 2811              		.loc 1 403 0
 2812 00b6 0094     		str	r4, [sp]
 2813 00b8 2A46     		mov	r2, r5
 2814 00ba 404B     		ldr	r3, .L283+8
 2815 00bc D921     		movs	r1, #217
 2816 00be 0320     		movs	r0, #3
 2817 00c0 FFF7FEFF 		bl	draw_string
 2818              	.LVL381:
 2819              	.L263:
 2820              	.LBE460:
 404:screen.c      ****     }
 405:screen.c      ****     else
 406:screen.c      ****     {
 407:screen.c      ****         draw_string(230,4,WHITE,"VCE V",1);
 408:screen.c      ****         draw_string(3,y_max_pixel+ 25,WHITE,"IC MIL A",1);
 409:screen.c      ****     }
 410:screen.c      ****     
 411:screen.c      ****     for(i=1; 5*i <= y_max ;i++)
 2821              		.loc 1 411 0
 2822 00c4 042F     		cmp	r7, #4
 2823 00c6 25DD     		ble	.L280
 2824              	.LBB461:
 2825              	.LBB462:
 2826              	.LBB463:
 2827              	.LBB464:
 264:screen.c      **** }
 2828              		.loc 1 264 0
 2829 00c8 4FF6FF7B 		movw	fp, #65535
 2830 00cc 1FFA8AF9 		uxth	r9, r10
 2831              	.LVL382:
 2832 00d0 09F10A04 		add	r4, r9, #10
ARM GAS  C:\Users\legoc\AppData\Local\Temp\ccMAvaOS.s 			page 64


 2833 00d4 A4B2     		uxth	r4, r4
 2834 00d6 0AF10A06 		add	r6, r10, #10
 2835              	.LBE464:
 2836              	.LBE463:
 2837              	.LBE462:
 2838              	.LBE461:
 2839              		.loc 1 411 0
 2840 00da 0525     		movs	r5, #5
 2841              	.LVL383:
 2842              	.L265:
 2843              	.LBB468:
 412:screen.c      ****     {
 413:screen.c      ****         y_label =  5 * i;
 414:screen.c      ****         sprintf(string_throwaway_y,"%d", y_label);
 2844              		.loc 1 414 0 discriminator 3
 2845 00dc 2A46     		mov	r2, r5
 2846 00de 3849     		ldr	r1, .L283+12
 2847 00e0 07A8     		add	r0, sp, #28
 2848 00e2 FFF7FEFF 		bl	sprintf
 2849              	.LVL384:
 415:screen.c      ****         
 416:screen.c      ****         draw_line(30,i*five_mA_pixel+10,220,i*five_mA_pixel+10,WHITE);//draw y major 
 2850              		.loc 1 416 0 discriminator 3
 2851 00e6 23B2     		sxth	r3, r4
 2852              	.LVL385:
 2853              	.LBB467:
 2854              	.LBB466:
 2855              	.LBB465:
 264:screen.c      **** }
 2856              		.loc 1 264 0 discriminator 3
 2857 00e8 1946     		mov	r1, r3
 2858 00ea DC22     		movs	r2, #220
 2859 00ec 1E20     		movs	r0, #30
 2860 00ee CDF800B0 		str	fp, [sp]
 2861 00f2 FFF7FEFF 		bl	write_line
 2862              	.LVL386:
 2863              	.LBE465:
 2864              	.LBE466:
 2865              	.LBE467:
 417:screen.c      ****         draw_string(3,i*five_mA_pixel+10,WHITE,string_throwaway_y,1);//draw y major label
 2866              		.loc 1 417 0 discriminator 3
 2867 00f6 0123     		movs	r3, #1
 2868 00f8 0093     		str	r3, [sp]
 2869 00fa 3146     		mov	r1, r6
 2870 00fc 07AB     		add	r3, sp, #28
 2871 00fe 4FF6FF72 		movw	r2, #65535
 2872 0102 0320     		movs	r0, #3
 2873 0104 0535     		adds	r5, r5, #5
 2874              	.LVL387:
 2875 0106 FFF7FEFF 		bl	draw_string
 2876              	.LVL388:
 2877 010a 4C44     		add	r4, r4, r9
 2878              	.LVL389:
 2879              	.LBE468:
 411:screen.c      ****     {
 2880              		.loc 1 411 0 discriminator 3
 2881 010c AF42     		cmp	r7, r5
ARM GAS  C:\Users\legoc\AppData\Local\Temp\ccMAvaOS.s 			page 65


 2882 010e 5644     		add	r6, r6, r10
 2883 0110 A4B2     		uxth	r4, r4
 2884 0112 E3DA     		bge	.L265
 2885              	.LVL390:
 2886              	.L280:
 418:screen.c      ****         
 419:screen.c      ****     }
 420:screen.c      ****     
 421:screen.c      ****     for(i = 1; i <= 189/x_max_step; i++)
 2887              		.loc 1 421 0
 2888 0114 BD27     		movs	r7, #189
 2889              	.LVL391:
 2890 0116 97FBF8F7 		sdiv	r7, r7, r8
 2891              	.LBB469:
 2892              	.LBB470:
 2893              	.LBB471:
 2894              	.LBB472:
 2895              	.LBB473:
 272:screen.c      **** }
 2896              		.loc 1 272 0
 2897 011a 4FF6FF7A 		movw	r10, #65535
 2898              	.LVL392:
 2899 011e 1FFA88F9 		uxth	r9, r8
 2900 0122 09F11E04 		add	r4, r9, #30
 2901 0126 08F11E06 		add	r6, r8, #30
 2902              	.LBE473:
 2903              	.LBE472:
 2904              	.LBE471:
 2905              	.LBE470:
 2906              	.LBE469:
 411:screen.c      ****     {
 2907              		.loc 1 411 0
 2908 012a 0125     		movs	r5, #1
 2909              	.LVL393:
 2910              	.L267:
 2911              	.LBB478:
 422:screen.c      ****     {
 423:screen.c      ****         sprintf(string_throwaway_x,"%i", i);
 2912              		.loc 1 423 0 discriminator 3
 2913 012c 2A46     		mov	r2, r5
 2914 012e 2549     		ldr	r1, .L283+16
 2915 0130 04A8     		add	r0, sp, #16
 2916 0132 FFF7FEFF 		bl	sprintf
 2917              	.LVL394:
 424:screen.c      ****         draw_line(i*x_max_step+30,10,i*x_max_step+30,y_max_pixel+10,WHITE);//draw x major
 2918              		.loc 1 424 0 discriminator 3
 2919 0136 22B2     		sxth	r2, r4
 2920              	.LVL395:
 2921              	.LBB477:
 2922              	.LBB476:
 2923              	.LBB475:
 2924              	.LBB474:
 272:screen.c      **** }
 2925              		.loc 1 272 0 discriminator 3
 2926 0138 1046     		mov	r0, r2
 2927 013a CA23     		movs	r3, #202
 2928 013c 0A21     		movs	r1, #10
ARM GAS  C:\Users\legoc\AppData\Local\Temp\ccMAvaOS.s 			page 66


 2929 013e CDF800A0 		str	r10, [sp]
 2930 0142 FFF7FEFF 		bl	write_line
 2931              	.LVL396:
 2932              	.LBE474:
 2933              	.LBE475:
 2934              	.LBE476:
 2935              	.LBE477:
 425:screen.c      ****         draw_string(i*x_max_step+30,4,WHITE,string_throwaway_x,1);//draw x major label
 2936              		.loc 1 425 0 discriminator 3
 2937 0146 0123     		movs	r3, #1
 2938 0148 0093     		str	r3, [sp]
 2939 014a 3046     		mov	r0, r6
 2940 014c 04AB     		add	r3, sp, #16
 2941 014e 4FF6FF72 		movw	r2, #65535
 2942 0152 0421     		movs	r1, #4
 2943              	.LBE478:
 421:screen.c      ****     {
 2944              		.loc 1 421 0 discriminator 3
 2945 0154 0135     		adds	r5, r5, #1
 2946              	.LVL397:
 2947              	.LBB479:
 2948              		.loc 1 425 0 discriminator 3
 2949 0156 FFF7FEFF 		bl	draw_string
 2950              	.LVL398:
 2951 015a 4C44     		add	r4, r4, r9
 2952              	.LVL399:
 2953              	.LBE479:
 421:screen.c      ****     {
 2954              		.loc 1 421 0 discriminator 3
 2955 015c AF42     		cmp	r7, r5
 2956 015e A4B2     		uxth	r4, r4
 2957 0160 4644     		add	r6, r6, r8
 2958 0162 E3DA     		bge	.L267
 426:screen.c      ****     }
 427:screen.c      ****     
 428:screen.c      ****     //DO NOT TOUCH! without having the string be separate from
 429:screen.c      ****     //the draw_button function, it will write "STOPH"
 430:screen.c      ****     char temp[] = "STOP";
 2959              		.loc 1 430 0
 2960 0164 184B     		ldr	r3, .L283+20
 431:screen.c      ****     
 432:screen.c      ****     draw_button(130,209,60,30,RED,BLACK,temp);
 2961              		.loc 1 432 0
 2962 0166 05AD     		add	r5, sp, #20
 2963              	.LVL400:
 2964 0168 0024     		movs	r4, #0
 2965 016a 4FF47842 		mov	r2, #63488
 430:screen.c      ****     
 2966              		.loc 1 430 0
 2967 016e 93E80300 		ldmia	r3, {r0, r1}
 2968              		.loc 1 432 0
 2969 0172 8DE81400 		stmia	sp, {r2, r4}
 430:screen.c      ****     
 2970              		.loc 1 430 0
 2971 0176 0590     		str	r0, [sp, #20]
 2972 0178 8DF81810 		strb	r1, [sp, #24]
 2973              		.loc 1 432 0
ARM GAS  C:\Users\legoc\AppData\Local\Temp\ccMAvaOS.s 			page 67


 2974 017c 0295     		str	r5, [sp, #8]
 2975 017e 1E23     		movs	r3, #30
 2976 0180 3C22     		movs	r2, #60
 2977 0182 D121     		movs	r1, #209
 2978 0184 8220     		movs	r0, #130
 2979 0186 FFF7FEFF 		bl	draw_button
 2980              	.LVL401:
 433:screen.c      ****         
 434:screen.c      ****     screen_state = PLOT_SCREEN;   //sets screen state to graph screen
 2981              		.loc 1 434 0
 2982 018a 104B     		ldr	r3, .L283+24
 2983 018c 0222     		movs	r2, #2
 2984 018e 1A60     		str	r2, [r3]
 435:screen.c      **** }
 2985              		.loc 1 435 0
 2986 0190 0BB0     		add	sp, sp, #44
 2987              		.cfi_remember_state
 2988              		.cfi_def_cfa_offset 36
 2989              		@ sp needed
 2990 0192 BDE8F08F 		pop	{r4, r5, r6, r7, r8, r9, r10, fp, pc}
 2991              	.LVL402:
 2992              	.L262:
 2993              		.cfi_restore_state
 2994              	.LBB480:
 407:screen.c      ****         draw_string(3,y_max_pixel+ 25,WHITE,"IC MIL A",1);
 2995              		.loc 1 407 0
 2996 0196 2A46     		mov	r2, r5
 2997 0198 0D4B     		ldr	r3, .L283+28
 2998 019a 0421     		movs	r1, #4
 2999 019c E620     		movs	r0, #230
 3000 019e FFF7FEFF 		bl	draw_string
 3001              	.LVL403:
 408:screen.c      ****     }
 3002              		.loc 1 408 0
 3003 01a2 0094     		str	r4, [sp]
 3004 01a4 2A46     		mov	r2, r5
 3005 01a6 0B4B     		ldr	r3, .L283+32
 3006 01a8 D921     		movs	r1, #217
 3007 01aa 0320     		movs	r0, #3
 3008 01ac FFF7FEFF 		bl	draw_string
 3009              	.LVL404:
 3010 01b0 88E7     		b	.L263
 3011              	.L284:
 3012 01b2 00BF     		.align	2
 3013              	.L283:
 3014 01b4 00008E40 		.word	1083047936
 3015 01b8 00000000 		.word	.LC0
 3016 01bc 08000000 		.word	.LC1
 3017 01c0 28000000 		.word	.LC4
 3018 01c4 2C000000 		.word	.LC6
 3019 01c8 30000000 		.word	.LC5
 3020 01cc 00000000 		.word	screen_state
 3021 01d0 14000000 		.word	.LC2
 3022 01d4 1C000000 		.word	.LC3
 3023              	.LBE480:
 3024              		.cfi_endproc
 3025              	.LFE15:
ARM GAS  C:\Users\legoc\AppData\Local\Temp\ccMAvaOS.s 			page 68


 3026              		.size	draw_coordinates, .-draw_coordinates
 3027              		.section	.text.draw_choose_screen,"ax",%progbits
 3028              		.align	2
 3029              		.global	draw_choose_screen
 3030              		.thumb
 3031              		.thumb_func
 3032              		.type	draw_choose_screen, %function
 3033              	draw_choose_screen:
 3034              	.LFB16:
 436:screen.c      **** 
 437:screen.c      **** void draw_choose_screen()
 438:screen.c      **** {
 3035              		.loc 1 438 0
 3036              		.cfi_startproc
 3037              		@ args = 0, pretend = 0, frame = 0
 3038              		@ frame_needed = 0, uses_anonymous_args = 0
 3039 0000 70B5     		push	{r4, r5, r6, lr}
 3040              		.cfi_def_cfa_offset 16
 3041              		.cfi_offset 4, -16
 3042              		.cfi_offset 5, -12
 3043              		.cfi_offset 6, -8
 3044              		.cfi_offset 14, -4
 3045              	.LBB506:
 3046              	.LBB507:
 3047              	.LBB508:
 3048              	.LBB509:
 3049              	.LBB510:
 115:screen.c      **** 
 3050              		.loc 1 115 0
 3051 0002 A023     		movs	r3, #160
 3052              	.LBE510:
 3053              	.LBE509:
 3054              	.LBE508:
 3055              	.LBE507:
 3056              	.LBE506:
 439:screen.c      ****     screen_state = DEVICE_SELECTION_SCREEN;
 3057              		.loc 1 439 0
 3058 0004 0024     		movs	r4, #0
 3059 0006 7E4D     		ldr	r5, .L327
 438:screen.c      ****     screen_state = DEVICE_SELECTION_SCREEN;
 3060              		.loc 1 438 0
 3061 0008 84B0     		sub	sp, sp, #16
 3062              		.cfi_def_cfa_offset 32
 3063              	.LBB527:
 3064              	.LBB523:
 3065              	.LBB519:
 3066              	.LBB515:
 3067              	.LBB511:
 115:screen.c      **** 
 3068              		.loc 1 115 0
 3069 000a 1946     		mov	r1, r3
 3070 000c F022     		movs	r2, #240
 3071 000e 2046     		mov	r0, r4
 3072              	.LBE511:
 3073              	.LBE515:
 3074              	.LBE519:
 3075              	.LBE523:
ARM GAS  C:\Users\legoc\AppData\Local\Temp\ccMAvaOS.s 			page 69


 3076              	.LBE527:
 3077              		.loc 1 439 0
 3078 0010 2C60     		str	r4, [r5]
 3079              	.LVL405:
 3080              	.LBB528:
 3081              	.LBB524:
 3082              	.LBB520:
 3083              	.LBB516:
 3084              	.LBB512:
 115:screen.c      **** 
 3085              		.loc 1 115 0
 3086 0012 FFF7FEFF 		bl	setAddrWindow
 3087              	.LVL406:
 124:screen.c      ****     SS_Write(0);
 3088              		.loc 1 124 0
 3089 0016 0120     		movs	r0, #1
 3090 0018 FFF7FEFF 		bl	D_C_Write
 3091              	.LVL407:
 125:screen.c      ****     // Writes color to addresses
 3092              		.loc 1 125 0
 3093 001c 2046     		mov	r0, r4
 3094 001e FFF7FEFF 		bl	SS_Write
 3095              	.LVL408:
 3096 0022 A026     		movs	r6, #160
 3097              	.LVL409:
 3098              	.L286:
 3099              	.LBE512:
 3100              	.LBE516:
 3101              	.LBE520:
 3102              	.LBE524:
 3103              	.LBE528:
 438:screen.c      ****     screen_state = DEVICE_SELECTION_SCREEN;
 3104              		.loc 1 438 0
 3105 0024 F025     		movs	r5, #240
 3106              	.LVL410:
 3107              	.L289:
 3108              	.LBB529:
 3109              	.LBB525:
 3110              	.LBB521:
 3111              	.LBB517:
 3112              	.LBB513:
 131:screen.c      ****             while(SS_Read() != 1){}
 3113              		.loc 1 131 0
 3114 0026 0020     		movs	r0, #0
 3115 0028 FFF7FEFF 		bl	SPIM_WriteTxData
 3116              	.LVL411:
 3117              	.L287:
 132:screen.c      ****             SPIM_WriteTxData(lo);
 3118              		.loc 1 132 0
 3119 002c FFF7FEFF 		bl	SS_Read
 3120              	.LVL412:
 3121 0030 0128     		cmp	r0, #1
 3122 0032 FBD1     		bne	.L287
 133:screen.c      ****             while(SS_Read() != 1){}
 3123              		.loc 1 133 0
 3124 0034 1F20     		movs	r0, #31
 3125 0036 FFF7FEFF 		bl	SPIM_WriteTxData
ARM GAS  C:\Users\legoc\AppData\Local\Temp\ccMAvaOS.s 			page 70


 3126              	.LVL413:
 3127              	.L288:
 134:screen.c      ****         }
 3128              		.loc 1 134 0
 3129 003a FFF7FEFF 		bl	SS_Read
 3130              	.LVL414:
 3131 003e 0128     		cmp	r0, #1
 3132 0040 0446     		mov	r4, r0
 3133 0042 FAD1     		bne	.L288
 3134 0044 013D     		subs	r5, r5, #1
 3135 0046 ADB2     		uxth	r5, r5
 129:screen.c      ****         {
 3136              		.loc 1 129 0
 3137 0048 002D     		cmp	r5, #0
 3138 004a ECD1     		bne	.L289
 3139 004c 013E     		subs	r6, r6, #1
 3140 004e B6B2     		uxth	r6, r6
 127:screen.c      ****     {
 3141              		.loc 1 127 0
 3142 0050 002E     		cmp	r6, #0
 3143 0052 E7D1     		bne	.L286
 137:screen.c      **** 
 3144              		.loc 1 137 0
 3145 0054 FFF7FEFF 		bl	SS_Write
 3146              	.LVL415:
 3147              	.LBE513:
 3148              	.LBE517:
 3149              	.LBE521:
 3150              	.LBE525:
 3151              	.LBE529:
 3152              	.LBB530:
 3153              	.LBB531:
 3154              	.LBB532:
 3155              	.LBB533:
 3156              	.LBB534:
 115:screen.c      **** 
 3157              		.loc 1 115 0
 3158 0058 3146     		mov	r1, r6
 3159 005a A023     		movs	r3, #160
 3160 005c F022     		movs	r2, #240
 3161 005e 3046     		mov	r0, r6
 3162 0060 FFF7FEFF 		bl	setAddrWindow
 3163              	.LVL416:
 124:screen.c      ****     SS_Write(0);
 3164              		.loc 1 124 0
 3165 0064 2046     		mov	r0, r4
 3166 0066 FFF7FEFF 		bl	D_C_Write
 3167              	.LVL417:
 125:screen.c      ****     // Writes color to addresses
 3168              		.loc 1 125 0
 3169 006a 3046     		mov	r0, r6
 3170 006c FFF7FEFF 		bl	SS_Write
 3171              	.LVL418:
 3172 0070 A026     		movs	r6, #160
 3173              	.LVL419:
 3174              	.L291:
 3175              	.LBE534:
ARM GAS  C:\Users\legoc\AppData\Local\Temp\ccMAvaOS.s 			page 71


 3176              	.LBE533:
 3177              	.LBE532:
 3178              	.LBE531:
 3179              	.LBE530:
 3180              	.LBB543:
 3181              	.LBB526:
 3182              	.LBB522:
 3183              	.LBB518:
 3184              	.LBB514:
 3185 0072 F025     		movs	r5, #240
 3186              	.LVL420:
 3187              	.L294:
 3188              	.LBE514:
 3189              	.LBE518:
 3190              	.LBE522:
 3191              	.LBE526:
 3192              	.LBE543:
 3193              	.LBB544:
 3194              	.LBB541:
 3195              	.LBB539:
 3196              	.LBB537:
 3197              	.LBB535:
 131:screen.c      ****             while(SS_Read() != 1){}
 3198              		.loc 1 131 0
 3199 0074 F820     		movs	r0, #248
 3200 0076 FFF7FEFF 		bl	SPIM_WriteTxData
 3201              	.LVL421:
 3202              	.L292:
 132:screen.c      ****             SPIM_WriteTxData(lo);
 3203              		.loc 1 132 0
 3204 007a FFF7FEFF 		bl	SS_Read
 3205              	.LVL422:
 3206 007e 0128     		cmp	r0, #1
 3207 0080 FBD1     		bne	.L292
 133:screen.c      ****             while(SS_Read() != 1){}
 3208              		.loc 1 133 0
 3209 0082 0020     		movs	r0, #0
 3210 0084 FFF7FEFF 		bl	SPIM_WriteTxData
 3211              	.LVL423:
 3212              	.L293:
 134:screen.c      ****         }
 3213              		.loc 1 134 0
 3214 0088 FFF7FEFF 		bl	SS_Read
 3215              	.LVL424:
 3216 008c 0128     		cmp	r0, #1
 3217 008e 0446     		mov	r4, r0
 3218 0090 FAD1     		bne	.L293
 3219 0092 013D     		subs	r5, r5, #1
 3220 0094 ADB2     		uxth	r5, r5
 129:screen.c      ****         {
 3221              		.loc 1 129 0
 3222 0096 002D     		cmp	r5, #0
 3223 0098 ECD1     		bne	.L294
 3224 009a 013E     		subs	r6, r6, #1
 3225 009c B6B2     		uxth	r6, r6
 127:screen.c      ****     {
 3226              		.loc 1 127 0
ARM GAS  C:\Users\legoc\AppData\Local\Temp\ccMAvaOS.s 			page 72


 3227 009e 002E     		cmp	r6, #0
 3228 00a0 E7D1     		bne	.L291
 137:screen.c      **** 
 3229              		.loc 1 137 0
 3230 00a2 FFF7FEFF 		bl	SS_Write
 3231              	.LVL425:
 3232              	.LBE535:
 3233              	.LBE537:
 3234              	.LBE539:
 3235              	.LBE541:
 3236              	.LBE544:
 3237              	.LBB545:
 3238              	.LBB546:
 3239              	.LBB547:
 3240              	.LBB548:
 3241              	.LBB549:
 115:screen.c      **** 
 3242              		.loc 1 115 0
 3243 00a6 0223     		movs	r3, #2
 3244 00a8 F022     		movs	r2, #240
 3245 00aa 9F21     		movs	r1, #159
 3246 00ac 3046     		mov	r0, r6
 3247 00ae FFF7FEFF 		bl	setAddrWindow
 3248              	.LVL426:
 124:screen.c      ****     SS_Write(0);
 3249              		.loc 1 124 0
 3250 00b2 2046     		mov	r0, r4
 3251 00b4 FFF7FEFF 		bl	D_C_Write
 3252              	.LVL427:
 125:screen.c      ****     // Writes color to addresses
 3253              		.loc 1 125 0
 3254 00b8 3046     		mov	r0, r6
 3255 00ba FFF7FEFF 		bl	SS_Write
 3256              	.LVL428:
 3257 00be 0226     		movs	r6, #2
 3258              	.LVL429:
 3259              	.L296:
 3260              	.LBE549:
 3261              	.LBE548:
 3262              	.LBE547:
 3263              	.LBE546:
 3264              	.LBE545:
 3265              	.LBB558:
 3266              	.LBB542:
 3267              	.LBB540:
 3268              	.LBB538:
 3269              	.LBB536:
 3270 00c0 F025     		movs	r5, #240
 3271              	.LVL430:
 3272              	.L299:
 3273              	.LBE536:
 3274              	.LBE538:
 3275              	.LBE540:
 3276              	.LBE542:
 3277              	.LBE558:
 3278              	.LBB559:
 3279              	.LBB556:
ARM GAS  C:\Users\legoc\AppData\Local\Temp\ccMAvaOS.s 			page 73


 3280              	.LBB554:
 3281              	.LBB552:
 3282              	.LBB550:
 131:screen.c      ****             while(SS_Read() != 1){}
 3283              		.loc 1 131 0
 3284 00c2 0020     		movs	r0, #0
 3285 00c4 FFF7FEFF 		bl	SPIM_WriteTxData
 3286              	.LVL431:
 3287              	.L297:
 132:screen.c      ****             SPIM_WriteTxData(lo);
 3288              		.loc 1 132 0
 3289 00c8 FFF7FEFF 		bl	SS_Read
 3290              	.LVL432:
 3291 00cc 0128     		cmp	r0, #1
 3292 00ce FBD1     		bne	.L297
 133:screen.c      ****             while(SS_Read() != 1){}
 3293              		.loc 1 133 0
 3294 00d0 0020     		movs	r0, #0
 3295 00d2 FFF7FEFF 		bl	SPIM_WriteTxData
 3296              	.LVL433:
 3297              	.L298:
 134:screen.c      ****         }
 3298              		.loc 1 134 0
 3299 00d6 FFF7FEFF 		bl	SS_Read
 3300              	.LVL434:
 3301 00da 0128     		cmp	r0, #1
 3302 00dc 0446     		mov	r4, r0
 3303 00de FAD1     		bne	.L298
 3304 00e0 013D     		subs	r5, r5, #1
 3305 00e2 ADB2     		uxth	r5, r5
 129:screen.c      ****         {
 3306              		.loc 1 129 0
 3307 00e4 002D     		cmp	r5, #0
 3308 00e6 ECD1     		bne	.L299
 3309 00e8 013E     		subs	r6, r6, #1
 3310 00ea B6B2     		uxth	r6, r6
 127:screen.c      ****     {
 3311              		.loc 1 127 0
 3312 00ec 002E     		cmp	r6, #0
 3313 00ee E7D1     		bne	.L296
 137:screen.c      **** 
 3314              		.loc 1 137 0
 3315 00f0 FFF7FEFF 		bl	SS_Write
 3316              	.LVL435:
 3317              	.LBE550:
 3318              	.LBE552:
 3319              	.LBE554:
 3320              	.LBE556:
 3321              	.LBE559:
 3322              	.LBB560:
 3323              	.LBB561:
 3324              	.LBB562:
 3325              	.LBB563:
 3326              	.LBB564:
 115:screen.c      **** 
 3327              		.loc 1 115 0
 3328 00f4 3146     		mov	r1, r6
ARM GAS  C:\Users\legoc\AppData\Local\Temp\ccMAvaOS.s 			page 74


 3329 00f6 4FF4A073 		mov	r3, #320
 3330 00fa 0222     		movs	r2, #2
 3331 00fc 7720     		movs	r0, #119
 3332 00fe FFF7FEFF 		bl	setAddrWindow
 3333              	.LVL436:
 124:screen.c      ****     SS_Write(0);
 3334              		.loc 1 124 0
 3335 0102 2046     		mov	r0, r4
 3336 0104 FFF7FEFF 		bl	D_C_Write
 3337              	.LVL437:
 125:screen.c      ****     // Writes color to addresses
 3338              		.loc 1 125 0
 3339 0108 3046     		mov	r0, r6
 3340 010a FFF7FEFF 		bl	SS_Write
 3341              	.LVL438:
 3342 010e 4FF4A076 		mov	r6, #320
 3343              	.LVL439:
 3344              	.L301:
 3345              	.LBE564:
 3346              	.LBE563:
 3347              	.LBE562:
 3348              	.LBE561:
 3349              	.LBE560:
 3350              	.LBB573:
 3351              	.LBB557:
 3352              	.LBB555:
 3353              	.LBB553:
 3354              	.LBB551:
 3355 0112 0225     		movs	r5, #2
 3356              	.LVL440:
 3357              	.L304:
 3358              	.LBE551:
 3359              	.LBE553:
 3360              	.LBE555:
 3361              	.LBE557:
 3362              	.LBE573:
 3363              	.LBB574:
 3364              	.LBB571:
 3365              	.LBB569:
 3366              	.LBB567:
 3367              	.LBB565:
 131:screen.c      ****             while(SS_Read() != 1){}
 3368              		.loc 1 131 0
 3369 0114 0020     		movs	r0, #0
 3370 0116 FFF7FEFF 		bl	SPIM_WriteTxData
 3371              	.LVL441:
 3372              	.L302:
 132:screen.c      ****             SPIM_WriteTxData(lo);
 3373              		.loc 1 132 0
 3374 011a FFF7FEFF 		bl	SS_Read
 3375              	.LVL442:
 3376 011e 0128     		cmp	r0, #1
 3377 0120 FBD1     		bne	.L302
 133:screen.c      ****             while(SS_Read() != 1){}
 3378              		.loc 1 133 0
 3379 0122 0020     		movs	r0, #0
 3380 0124 FFF7FEFF 		bl	SPIM_WriteTxData
ARM GAS  C:\Users\legoc\AppData\Local\Temp\ccMAvaOS.s 			page 75


 3381              	.LVL443:
 3382              	.L303:
 134:screen.c      ****         }
 3383              		.loc 1 134 0
 3384 0128 FFF7FEFF 		bl	SS_Read
 3385              	.LVL444:
 3386 012c 0128     		cmp	r0, #1
 3387 012e 0446     		mov	r4, r0
 3388 0130 FAD1     		bne	.L303
 3389 0132 013D     		subs	r5, r5, #1
 3390 0134 ADB2     		uxth	r5, r5
 129:screen.c      ****         {
 3391              		.loc 1 129 0
 3392 0136 002D     		cmp	r5, #0
 3393 0138 ECD1     		bne	.L304
 3394 013a 013E     		subs	r6, r6, #1
 3395 013c B6B2     		uxth	r6, r6
 127:screen.c      ****     {
 3396              		.loc 1 127 0
 3397 013e 002E     		cmp	r6, #0
 3398 0140 E7D1     		bne	.L301
 137:screen.c      **** 
 3399              		.loc 1 137 0
 3400 0142 FFF7FEFF 		bl	SS_Write
 3401              	.LVL445:
 3402              	.LBE565:
 3403              	.LBE567:
 3404              	.LBE569:
 3405              	.LBE571:
 3406              	.LBE574:
 3407              	.LBB575:
 3408              	.LBB576:
 3409              	.LBB577:
 3410              	.LBB578:
 3411              	.LBB579:
 115:screen.c      **** 
 3412              		.loc 1 115 0
 3413 0146 FC23     		movs	r3, #252
 3414 0148 1622     		movs	r2, #22
 3415 014a 2321     		movs	r1, #35
 3416 014c 6D20     		movs	r0, #109
 3417 014e FFF7FEFF 		bl	setAddrWindow
 3418              	.LVL446:
 124:screen.c      ****     SS_Write(0);
 3419              		.loc 1 124 0
 3420 0152 2046     		mov	r0, r4
 3421 0154 FFF7FEFF 		bl	D_C_Write
 3422              	.LVL447:
 125:screen.c      ****     // Writes color to addresses
 3423              		.loc 1 125 0
 3424 0158 3046     		mov	r0, r6
 3425 015a FFF7FEFF 		bl	SS_Write
 3426              	.LVL448:
 3427 015e FC25     		movs	r5, #252
 3428              	.LVL449:
 3429              	.L306:
 3430              	.LBE579:
ARM GAS  C:\Users\legoc\AppData\Local\Temp\ccMAvaOS.s 			page 76


 3431              	.LBE578:
 3432              	.LBE577:
 3433              	.LBE576:
 3434              	.LBE575:
 3435              	.LBB588:
 3436              	.LBB572:
 3437              	.LBB570:
 3438              	.LBB568:
 3439              	.LBB566:
 3440 0160 1624     		movs	r4, #22
 3441              	.LVL450:
 3442              	.L309:
 3443              	.LBE566:
 3444              	.LBE568:
 3445              	.LBE570:
 3446              	.LBE572:
 3447              	.LBE588:
 3448              	.LBB589:
 3449              	.LBB586:
 3450              	.LBB584:
 3451              	.LBB582:
 3452              	.LBB580:
 131:screen.c      ****             while(SS_Read() != 1){}
 3453              		.loc 1 131 0
 3454 0162 0020     		movs	r0, #0
 3455 0164 FFF7FEFF 		bl	SPIM_WriteTxData
 3456              	.LVL451:
 3457              	.L307:
 132:screen.c      ****             SPIM_WriteTxData(lo);
 3458              		.loc 1 132 0
 3459 0168 FFF7FEFF 		bl	SS_Read
 3460              	.LVL452:
 3461 016c 0128     		cmp	r0, #1
 3462 016e FBD1     		bne	.L307
 133:screen.c      ****             while(SS_Read() != 1){}
 3463              		.loc 1 133 0
 3464 0170 0020     		movs	r0, #0
 3465 0172 FFF7FEFF 		bl	SPIM_WriteTxData
 3466              	.LVL453:
 3467              	.L308:
 134:screen.c      ****         }
 3468              		.loc 1 134 0
 3469 0176 FFF7FEFF 		bl	SS_Read
 3470              	.LVL454:
 3471 017a 0128     		cmp	r0, #1
 3472 017c FBD1     		bne	.L308
 3473 017e 013C     		subs	r4, r4, #1
 3474 0180 A4B2     		uxth	r4, r4
 129:screen.c      ****         {
 3475              		.loc 1 129 0
 3476 0182 002C     		cmp	r4, #0
 3477 0184 EDD1     		bne	.L309
 3478 0186 013D     		subs	r5, r5, #1
 3479 0188 ADB2     		uxth	r5, r5
 127:screen.c      ****     {
 3480              		.loc 1 127 0
 3481 018a 002D     		cmp	r5, #0
ARM GAS  C:\Users\legoc\AppData\Local\Temp\ccMAvaOS.s 			page 77


 3482 018c E8D1     		bne	.L306
 3483              	.LBE580:
 3484              	.LBE582:
 3485              	.LBE584:
 3486              	.LBE586:
 3487              	.LBE589:
 440:screen.c      ****     
 441:screen.c      ****     //fills in background color
 442:screen.c      ****     fill_rect(0,0,160,240,BLUE);
 443:screen.c      ****     fill_rect(160,0,160,240,RED);
 444:screen.c      ****     
 445:screen.c      ****     //creates lines to separate buttons
 446:screen.c      ****     fill_rect(159,0,2,240,BLACK);
 447:screen.c      ****     fill_rect(0,119,320,2,BLACK);
 448:screen.c      ****     
 449:screen.c      ****     //center background colors
 450:screen.c      ****     fill_rect(33,109,252,22,BLACK);
 451:screen.c      ****     
 452:screen.c      ****     //draws buttons
 453:screen.c      ****     draw_button(35,111,248,18,WHITE,BLACK,"CHOOSE A SEMICONDUCTOR TYPE");
 454:screen.c      ****     draw_button(10,10,139,99,LIGHTBLUE,BLACK,"N TYPE FET");
 3488              		.loc 1 454 0
 3489 018e 49F69F66 		movw	r6, #40607
 455:screen.c      ****     draw_button(10,131,139,99,LIGHTBLUE,BLACK,"NPN BJT");
 456:screen.c      ****     draw_button(171,10,139,99,LIGHTRED,BLACK,"P TYPE FET");
 3490              		.loc 1 456 0
 3491 0192 4FF6F344 		movw	r4, #64755
 3492              	.LBB590:
 3493              	.LBB587:
 3494              	.LBB585:
 3495              	.LBB583:
 3496              	.LBB581:
 137:screen.c      **** 
 3497              		.loc 1 137 0
 3498 0196 FFF7FEFF 		bl	SS_Write
 3499              	.LVL455:
 3500              	.LBE581:
 3501              	.LBE583:
 3502              	.LBE585:
 3503              	.LBE587:
 3504              	.LBE590:
 453:screen.c      ****     draw_button(10,10,139,99,LIGHTBLUE,BLACK,"N TYPE FET");
 3505              		.loc 1 453 0
 3506 019a 1A4A     		ldr	r2, .L327+4
 3507 019c 1223     		movs	r3, #18
 3508 019e 0092     		str	r2, [sp]
 3509 01a0 6F21     		movs	r1, #111
 3510 01a2 F822     		movs	r2, #248
 3511 01a4 2320     		movs	r0, #35
 3512 01a6 FFF7FEFF 		bl	draw_button.constprop.3
 3513              	.LVL456:
 454:screen.c      ****     draw_button(10,131,139,99,LIGHTBLUE,BLACK,"NPN BJT");
 3514              		.loc 1 454 0
 3515 01aa 174B     		ldr	r3, .L327+8
 3516 01ac 0A21     		movs	r1, #10
 3517 01ae 0293     		str	r3, [sp, #8]
 3518 01b0 0846     		mov	r0, r1
ARM GAS  C:\Users\legoc\AppData\Local\Temp\ccMAvaOS.s 			page 78


 3519 01b2 0195     		str	r5, [sp, #4]
 3520 01b4 0096     		str	r6, [sp]
 3521 01b6 6323     		movs	r3, #99
 3522 01b8 8B22     		movs	r2, #139
 3523 01ba FFF7FEFF 		bl	draw_button
 3524              	.LVL457:
 455:screen.c      ****     draw_button(171,10,139,99,LIGHTRED,BLACK,"P TYPE FET");
 3525              		.loc 1 455 0
 3526 01be 134B     		ldr	r3, .L327+12
 3527 01c0 0096     		str	r6, [sp]
 3528 01c2 0293     		str	r3, [sp, #8]
 3529 01c4 0195     		str	r5, [sp, #4]
 3530 01c6 6323     		movs	r3, #99
 3531 01c8 8B22     		movs	r2, #139
 3532 01ca 8321     		movs	r1, #131
 3533 01cc 0A20     		movs	r0, #10
 3534 01ce FFF7FEFF 		bl	draw_button
 3535              	.LVL458:
 3536              		.loc 1 456 0
 3537 01d2 0F4B     		ldr	r3, .L327+16
 3538 01d4 8DE83000 		stmia	sp, {r4, r5}
 3539 01d8 0293     		str	r3, [sp, #8]
 3540 01da 8B22     		movs	r2, #139
 3541 01dc 6323     		movs	r3, #99
 3542 01de 0A21     		movs	r1, #10
 3543 01e0 AB20     		movs	r0, #171
 3544 01e2 FFF7FEFF 		bl	draw_button
 3545              	.LVL459:
 457:screen.c      ****     draw_button(171,131,139,99,LIGHTRED,BLACK,"PNP BJT");
 3546              		.loc 1 457 0
 3547 01e6 0B4B     		ldr	r3, .L327+20
 3548 01e8 8DE83000 		stmia	sp, {r4, r5}
 3549 01ec 0293     		str	r3, [sp, #8]
 3550 01ee 8B22     		movs	r2, #139
 3551 01f0 6323     		movs	r3, #99
 3552 01f2 8321     		movs	r1, #131
 3553 01f4 AB20     		movs	r0, #171
 3554 01f6 FFF7FEFF 		bl	draw_button
 3555              	.LVL460:
 458:screen.c      **** }
 3556              		.loc 1 458 0
 3557 01fa 04B0     		add	sp, sp, #16
 3558              		.cfi_def_cfa_offset 16
 3559              		@ sp needed
 3560 01fc 70BD     		pop	{r4, r5, r6, pc}
 3561              	.L328:
 3562 01fe 00BF     		.align	2
 3563              	.L327:
 3564 0200 00000000 		.word	screen_state
 3565 0204 38000000 		.word	.LC7
 3566 0208 54000000 		.word	.LC8
 3567 020c 60000000 		.word	.LC9
 3568 0210 68000000 		.word	.LC10
 3569 0214 74000000 		.word	.LC11
 3570              		.cfi_endproc
 3571              	.LFE16:
 3572              		.size	draw_choose_screen, .-draw_choose_screen
ARM GAS  C:\Users\legoc\AppData\Local\Temp\ccMAvaOS.s 			page 79


 3573              		.section	.text.draw_options_screen,"ax",%progbits
 3574              		.align	2
 3575              		.global	draw_options_screen
 3576              		.thumb
 3577              		.thumb_func
 3578              		.type	draw_options_screen, %function
 3579              	draw_options_screen:
 3580              	.LFB17:
 459:screen.c      **** 
 460:screen.c      **** void draw_options_screen()
 461:screen.c      **** {
 3581              		.loc 1 461 0
 3582              		.cfi_startproc
 3583              		@ args = 0, pretend = 0, frame = 104
 3584              		@ frame_needed = 0, uses_anonymous_args = 0
 3585 0000 2DE9F043 		push	{r4, r5, r6, r7, r8, r9, lr}
 3586              		.cfi_def_cfa_offset 28
 3587              		.cfi_offset 4, -28
 3588              		.cfi_offset 5, -24
 3589              		.cfi_offset 6, -20
 3590              		.cfi_offset 7, -16
 3591              		.cfi_offset 8, -12
 3592              		.cfi_offset 9, -8
 3593              		.cfi_offset 14, -4
 462:screen.c      ****     screen_state = OPTIONS_SCREEN;
 463:screen.c      ****     
 464:screen.c      ****     //need temp variables for strings otherwise it reads
 465:screen.c      ****     //into the next string upon returning from an option screen
 466:screen.c      ****     char temp1[] = "NUMBER OF AVERAGES";
 467:screen.c      ****     char temp2[] = "SD CARD OPTIONS";
 468:screen.c      ****     char temp3[] = "NUMBER OF CURVES";
 469:screen.c      ****     char temp4[] = "SETTLING TIME OPTIONS";
 470:screen.c      ****     char temp5[] = "RETURN";
 471:screen.c      ****     char temp6[] = "RUN TEST";
 472:screen.c      ****     
 473:screen.c      ****     //draws buttons
 474:screen.c      ****     draw_button(0,0,119,119,LIGHTBLUE,BLACK,temp1);
 3594              		.loc 1 474 0
 3595 0004 49F69F68 		movw	r8, #40607
 475:screen.c      ****     draw_button(0,121,119,119,LIGHTRED,BLACK,temp2);
 3596              		.loc 1 475 0
 3597 0008 4FF6F349 		movw	r9, #64755
 461:screen.c      ****     screen_state = OPTIONS_SCREEN;
 3598              		.loc 1 461 0
 3599 000c 9FB0     		sub	sp, sp, #124
 3600              		.cfi_def_cfa_offset 152
 466:screen.c      ****     char temp2[] = "SD CARD OPTIONS";
 3601              		.loc 1 466 0
 3602 000e 734F     		ldr	r7, .L355
 467:screen.c      ****     char temp3[] = "NUMBER OF CURVES";
 3603              		.loc 1 467 0
 3604 0010 734E     		ldr	r6, .L355+4
 466:screen.c      ****     char temp2[] = "SD CARD OPTIONS";
 3605              		.loc 1 466 0
 3606 0012 13AC     		add	r4, sp, #76
 3607 0014 0FCF     		ldmia	r7!, {r0, r1, r2, r3}
 468:screen.c      ****     char temp4[] = "SETTLING TIME OPTIONS";
ARM GAS  C:\Users\legoc\AppData\Local\Temp\ccMAvaOS.s 			page 80


 3608              		.loc 1 468 0
 3609 0016 734D     		ldr	r5, .L355+8
 466:screen.c      ****     char temp2[] = "SD CARD OPTIONS";
 3610              		.loc 1 466 0
 3611 0018 0FC4     		stmia	r4!, {r0, r1, r2, r3}
 467:screen.c      ****     char temp3[] = "NUMBER OF CURVES";
 3612              		.loc 1 467 0
 3613 001a 96E80F00 		ldmia	r6, {r0, r1, r2, r3}
 468:screen.c      ****     char temp4[] = "SETTLING TIME OPTIONS";
 3614              		.loc 1 468 0
 3615 001e 0DF1380E 		add	lr, sp, #56
 467:screen.c      ****     char temp3[] = "NUMBER OF CURVES";
 3616              		.loc 1 467 0
 3617 0022 0AAE     		add	r6, sp, #40
 3618 0024 86E80F00 		stmia	r6, {r0, r1, r2, r3}
 468:screen.c      ****     char temp4[] = "SETTLING TIME OPTIONS";
 3619              		.loc 1 468 0
 3620 0028 0FCD     		ldmia	r5!, {r0, r1, r2, r3}
 3621 002a AEE80F00 		stmia	lr!, {r0, r1, r2, r3}
 466:screen.c      ****     char temp2[] = "SD CARD OPTIONS";
 3622              		.loc 1 466 0
 3623 002e 3B68     		ldr	r3, [r7]
 468:screen.c      ****     char temp4[] = "SETTLING TIME OPTIONS";
 3624              		.loc 1 468 0
 3625 0030 2968     		ldr	r1, [r5]
 466:screen.c      ****     char temp2[] = "SD CARD OPTIONS";
 3626              		.loc 1 466 0
 3627 0032 24F8023B 		strh	r3, [r4], #2	@ movhi
 462:screen.c      ****     
 3628              		.loc 1 462 0
 3629 0036 6C4A     		ldr	r2, .L355+12
 466:screen.c      ****     char temp2[] = "SD CARD OPTIONS";
 3630              		.loc 1 466 0
 3631 0038 1B0C     		lsrs	r3, r3, #16
 469:screen.c      ****     char temp5[] = "RETURN";
 3632              		.loc 1 469 0
 3633 003a 6C4D     		ldr	r5, .L355+16
 462:screen.c      ****     
 3634              		.loc 1 462 0
 3635 003c 0127     		movs	r7, #1
 466:screen.c      ****     char temp2[] = "SD CARD OPTIONS";
 3636              		.loc 1 466 0
 3637 003e 2370     		strb	r3, [r4]
 469:screen.c      ****     char temp5[] = "RETURN";
 3638              		.loc 1 469 0
 3639 0040 18AC     		add	r4, sp, #96
 468:screen.c      ****     char temp4[] = "SETTLING TIME OPTIONS";
 3640              		.loc 1 468 0
 3641 0042 8EF80010 		strb	r1, [lr]
 462:screen.c      ****     
 3642              		.loc 1 462 0
 3643 0046 1760     		str	r7, [r2]
 469:screen.c      ****     char temp5[] = "RETURN";
 3644              		.loc 1 469 0
 3645 0048 0FCD     		ldmia	r5!, {r0, r1, r2, r3}
 3646 004a 0FC4     		stmia	r4!, {r0, r1, r2, r3}
 3647 004c 95E80300 		ldmia	r5, {r0, r1}
ARM GAS  C:\Users\legoc\AppData\Local\Temp\ccMAvaOS.s 			page 81


 471:screen.c      ****     
 3648              		.loc 1 471 0
 3649 0050 674A     		ldr	r2, .L355+20
 470:screen.c      ****     char temp6[] = "RUN TEST";
 3650              		.loc 1 470 0
 3651 0052 684D     		ldr	r5, .L355+24
 469:screen.c      ****     char temp5[] = "RETURN";
 3652              		.loc 1 469 0
 3653 0054 44F8040B 		str	r0, [r4], #4
 471:screen.c      ****     
 3654              		.loc 1 471 0
 3655 0058 07AB     		add	r3, sp, #28
 469:screen.c      ****     char temp5[] = "RETURN";
 3656              		.loc 1 469 0
 3657 005a 2180     		strh	r1, [r4]	@ movhi
 470:screen.c      ****     char temp6[] = "RUN TEST";
 3658              		.loc 1 470 0
 3659 005c 95E80300 		ldmia	r5, {r0, r1}
 3660 0060 0590     		str	r0, [sp, #20]
 3661 0062 ADF81810 		strh	r1, [sp, #24]	@ movhi
 3662 0066 0D0C     		lsrs	r5, r1, #16
 471:screen.c      ****     
 3663              		.loc 1 471 0
 3664 0068 07CA     		ldmia	r2, {r0, r1, r2}
 3665 006a 03C3     		stmia	r3!, {r0, r1}
 474:screen.c      ****     draw_button(0,121,119,119,LIGHTRED,BLACK,temp2);
 3666              		.loc 1 474 0
 3667 006c 0024     		movs	r4, #0
 471:screen.c      ****     
 3668              		.loc 1 471 0
 3669 006e 1A70     		strb	r2, [r3]
 474:screen.c      ****     draw_button(0,121,119,119,LIGHTRED,BLACK,temp2);
 3670              		.loc 1 474 0
 3671 0070 13A9     		add	r1, sp, #76
 3672 0072 7723     		movs	r3, #119
 3673 0074 1A46     		mov	r2, r3
 3674 0076 0291     		str	r1, [sp, #8]
 3675 0078 2046     		mov	r0, r4
 3676 007a 2146     		mov	r1, r4
 3677 007c CDF80080 		str	r8, [sp]
 3678 0080 0194     		str	r4, [sp, #4]
 470:screen.c      ****     char temp6[] = "RUN TEST";
 3679              		.loc 1 470 0
 3680 0082 8DF81A50 		strb	r5, [sp, #26]
 474:screen.c      ****     draw_button(0,121,119,119,LIGHTRED,BLACK,temp2);
 3681              		.loc 1 474 0
 3682 0086 FFF7FEFF 		bl	draw_button
 3683              	.LVL461:
 3684              		.loc 1 475 0
 3685 008a 7723     		movs	r3, #119
 3686 008c 1A46     		mov	r2, r3
 3687 008e 0296     		str	r6, [sp, #8]
 3688 0090 2046     		mov	r0, r4
 3689 0092 7921     		movs	r1, #121
 3690 0094 0194     		str	r4, [sp, #4]
 3691 0096 CDF80090 		str	r9, [sp]
 3692 009a FFF7FEFF 		bl	draw_button
ARM GAS  C:\Users\legoc\AppData\Local\Temp\ccMAvaOS.s 			page 82


 3693              	.LVL462:
 476:screen.c      ****     draw_button(121,0,119,119,LIGHTRED,BLACK,temp3);
 3694              		.loc 1 476 0
 3695 009e 7723     		movs	r3, #119
 3696 00a0 0EAA     		add	r2, sp, #56
 3697 00a2 2146     		mov	r1, r4
 3698 00a4 0292     		str	r2, [sp, #8]
 3699 00a6 7920     		movs	r0, #121
 3700 00a8 1A46     		mov	r2, r3
 3701 00aa 0194     		str	r4, [sp, #4]
 3702 00ac CDF80090 		str	r9, [sp]
 3703 00b0 FFF7FEFF 		bl	draw_button
 3704              	.LVL463:
 477:screen.c      ****     draw_button(121,121,119,119,LIGHTBLUE,BLACK,temp4);
 3705              		.loc 1 477 0
 3706 00b4 7723     		movs	r3, #119
 3707 00b6 7921     		movs	r1, #121
 3708 00b8 18AA     		add	r2, sp, #96
 3709 00ba 0846     		mov	r0, r1
 3710 00bc 0292     		str	r2, [sp, #8]
 3711 00be 0194     		str	r4, [sp, #4]
 3712 00c0 1A46     		mov	r2, r3
 3713 00c2 CDF80080 		str	r8, [sp]
 3714 00c6 FFF7FEFF 		bl	draw_button
 3715              	.LVL464:
 478:screen.c      ****     
 479:screen.c      ****     draw_button(241,0,79,119,WHITE,BLACK,temp5);
 3716              		.loc 1 479 0
 3717 00ca 05AB     		add	r3, sp, #20
 3718 00cc 2146     		mov	r1, r4
 3719 00ce 0093     		str	r3, [sp]
 3720 00d0 4F22     		movs	r2, #79
 3721 00d2 7723     		movs	r3, #119
 3722 00d4 F120     		movs	r0, #241
 3723 00d6 FFF7FEFF 		bl	draw_button.constprop.3
 3724              	.LVL465:
 480:screen.c      ****     draw_button(241,121,79,119,WHITE,BLACK,temp6);
 3725              		.loc 1 480 0
 3726 00da 07AB     		add	r3, sp, #28
 3727 00dc 0093     		str	r3, [sp]
 3728 00de 4F22     		movs	r2, #79
 3729 00e0 7723     		movs	r3, #119
 3730 00e2 7921     		movs	r1, #121
 3731 00e4 F120     		movs	r0, #241
 3732 00e6 FFF7FEFF 		bl	draw_button.constprop.3
 3733              	.LVL466:
 3734              	.LBB606:
 3735              	.LBB607:
 3736              	.LBB608:
 3737              	.LBB609:
 3738              	.LBB610:
 115:screen.c      **** 
 3739              		.loc 1 115 0
 3740 00ea 0223     		movs	r3, #2
 3741 00ec F022     		movs	r2, #240
 3742 00ee C721     		movs	r1, #199
 3743 00f0 2046     		mov	r0, r4
ARM GAS  C:\Users\legoc\AppData\Local\Temp\ccMAvaOS.s 			page 83


 3744 00f2 FFF7FEFF 		bl	setAddrWindow
 3745              	.LVL467:
 124:screen.c      ****     SS_Write(0);
 3746              		.loc 1 124 0
 3747 00f6 3846     		mov	r0, r7
 3748 00f8 FFF7FEFF 		bl	D_C_Write
 3749              	.LVL468:
 125:screen.c      ****     // Writes color to addresses
 3750              		.loc 1 125 0
 3751 00fc 2046     		mov	r0, r4
 3752 00fe FFF7FEFF 		bl	SS_Write
 3753              	.LVL469:
 3754 0102 0226     		movs	r6, #2
 3755              	.LVL470:
 3756              	.L330:
 3757              	.LBE610:
 3758              	.LBE609:
 3759              	.LBE608:
 3760              	.LBE607:
 3761              	.LBE606:
 461:screen.c      ****     screen_state = OPTIONS_SCREEN;
 3762              		.loc 1 461 0
 3763 0104 F025     		movs	r5, #240
 3764              	.LVL471:
 3765              	.L333:
 3766              	.LBB619:
 3767              	.LBB617:
 3768              	.LBB615:
 3769              	.LBB613:
 3770              	.LBB611:
 131:screen.c      ****             while(SS_Read() != 1){}
 3771              		.loc 1 131 0
 3772 0106 0020     		movs	r0, #0
 3773 0108 FFF7FEFF 		bl	SPIM_WriteTxData
 3774              	.LVL472:
 3775              	.L331:
 132:screen.c      ****             SPIM_WriteTxData(lo);
 3776              		.loc 1 132 0
 3777 010c FFF7FEFF 		bl	SS_Read
 3778              	.LVL473:
 3779 0110 0128     		cmp	r0, #1
 3780 0112 FBD1     		bne	.L331
 133:screen.c      ****             while(SS_Read() != 1){}
 3781              		.loc 1 133 0
 3782 0114 0020     		movs	r0, #0
 3783 0116 FFF7FEFF 		bl	SPIM_WriteTxData
 3784              	.LVL474:
 3785              	.L332:
 134:screen.c      ****         }
 3786              		.loc 1 134 0
 3787 011a FFF7FEFF 		bl	SS_Read
 3788              	.LVL475:
 3789 011e 0128     		cmp	r0, #1
 3790 0120 0446     		mov	r4, r0
 3791 0122 FAD1     		bne	.L332
 3792 0124 013D     		subs	r5, r5, #1
 3793 0126 ADB2     		uxth	r5, r5
ARM GAS  C:\Users\legoc\AppData\Local\Temp\ccMAvaOS.s 			page 84


 129:screen.c      ****         {
 3794              		.loc 1 129 0
 3795 0128 002D     		cmp	r5, #0
 3796 012a ECD1     		bne	.L333
 3797 012c 013E     		subs	r6, r6, #1
 3798 012e B6B2     		uxth	r6, r6
 127:screen.c      ****     {
 3799              		.loc 1 127 0
 3800 0130 002E     		cmp	r6, #0
 3801 0132 E7D1     		bne	.L330
 137:screen.c      **** 
 3802              		.loc 1 137 0
 3803 0134 FFF7FEFF 		bl	SS_Write
 3804              	.LVL476:
 3805              	.LBE611:
 3806              	.LBE613:
 3807              	.LBE615:
 3808              	.LBE617:
 3809              	.LBE619:
 3810              	.LBB620:
 3811              	.LBB621:
 3812              	.LBB622:
 3813              	.LBB623:
 3814              	.LBB624:
 115:screen.c      **** 
 3815              		.loc 1 115 0
 3816 0138 3146     		mov	r1, r6
 3817 013a 4FF4A073 		mov	r3, #320
 3818 013e 0222     		movs	r2, #2
 3819 0140 7720     		movs	r0, #119
 3820 0142 FFF7FEFF 		bl	setAddrWindow
 3821              	.LVL477:
 124:screen.c      ****     SS_Write(0);
 3822              		.loc 1 124 0
 3823 0146 2046     		mov	r0, r4
 3824 0148 FFF7FEFF 		bl	D_C_Write
 3825              	.LVL478:
 125:screen.c      ****     // Writes color to addresses
 3826              		.loc 1 125 0
 3827 014c 3046     		mov	r0, r6
 3828 014e FFF7FEFF 		bl	SS_Write
 3829              	.LVL479:
 3830 0152 4FF4A076 		mov	r6, #320
 3831              	.LVL480:
 3832              	.L335:
 3833              	.LBE624:
 3834              	.LBE623:
 3835              	.LBE622:
 3836              	.LBE621:
 3837              	.LBE620:
 3838              	.LBB633:
 3839              	.LBB618:
 3840              	.LBB616:
 3841              	.LBB614:
 3842              	.LBB612:
 3843 0156 0225     		movs	r5, #2
 3844              	.LVL481:
ARM GAS  C:\Users\legoc\AppData\Local\Temp\ccMAvaOS.s 			page 85


 3845              	.L338:
 3846              	.LBE612:
 3847              	.LBE614:
 3848              	.LBE616:
 3849              	.LBE618:
 3850              	.LBE633:
 3851              	.LBB634:
 3852              	.LBB631:
 3853              	.LBB629:
 3854              	.LBB627:
 3855              	.LBB625:
 131:screen.c      ****             while(SS_Read() != 1){}
 3856              		.loc 1 131 0
 3857 0158 0020     		movs	r0, #0
 3858 015a FFF7FEFF 		bl	SPIM_WriteTxData
 3859              	.LVL482:
 3860              	.L336:
 132:screen.c      ****             SPIM_WriteTxData(lo);
 3861              		.loc 1 132 0
 3862 015e FFF7FEFF 		bl	SS_Read
 3863              	.LVL483:
 3864 0162 0128     		cmp	r0, #1
 3865 0164 FBD1     		bne	.L336
 133:screen.c      ****             while(SS_Read() != 1){}
 3866              		.loc 1 133 0
 3867 0166 0020     		movs	r0, #0
 3868 0168 FFF7FEFF 		bl	SPIM_WriteTxData
 3869              	.LVL484:
 3870              	.L337:
 134:screen.c      ****         }
 3871              		.loc 1 134 0
 3872 016c FFF7FEFF 		bl	SS_Read
 3873              	.LVL485:
 3874 0170 0128     		cmp	r0, #1
 3875 0172 0446     		mov	r4, r0
 3876 0174 FAD1     		bne	.L337
 3877 0176 013D     		subs	r5, r5, #1
 3878 0178 ADB2     		uxth	r5, r5
 129:screen.c      ****         {
 3879              		.loc 1 129 0
 3880 017a 002D     		cmp	r5, #0
 3881 017c ECD1     		bne	.L338
 3882 017e 013E     		subs	r6, r6, #1
 3883 0180 B6B2     		uxth	r6, r6
 127:screen.c      ****     {
 3884              		.loc 1 127 0
 3885 0182 002E     		cmp	r6, #0
 3886 0184 E7D1     		bne	.L335
 137:screen.c      **** 
 3887              		.loc 1 137 0
 3888 0186 FFF7FEFF 		bl	SS_Write
 3889              	.LVL486:
 3890              	.LBE625:
 3891              	.LBE627:
 3892              	.LBE629:
 3893              	.LBE631:
 3894              	.LBE634:
ARM GAS  C:\Users\legoc\AppData\Local\Temp\ccMAvaOS.s 			page 86


 3895              	.LBB635:
 3896              	.LBB636:
 3897              	.LBB637:
 3898              	.LBB638:
 3899              	.LBB639:
 115:screen.c      **** 
 3900              		.loc 1 115 0
 3901 018a 0223     		movs	r3, #2
 3902 018c F022     		movs	r2, #240
 3903 018e 4F21     		movs	r1, #79
 3904 0190 3046     		mov	r0, r6
 3905 0192 FFF7FEFF 		bl	setAddrWindow
 3906              	.LVL487:
 124:screen.c      ****     SS_Write(0);
 3907              		.loc 1 124 0
 3908 0196 2046     		mov	r0, r4
 3909 0198 FFF7FEFF 		bl	D_C_Write
 3910              	.LVL488:
 125:screen.c      ****     // Writes color to addresses
 3911              		.loc 1 125 0
 3912 019c 3046     		mov	r0, r6
 3913 019e FFF7FEFF 		bl	SS_Write
 3914              	.LVL489:
 3915 01a2 0225     		movs	r5, #2
 3916              	.LVL490:
 3917              	.L340:
 3918              	.LBE639:
 3919              	.LBE638:
 3920              	.LBE637:
 3921              	.LBE636:
 3922              	.LBE635:
 3923              	.LBB644:
 3924              	.LBB632:
 3925              	.LBB630:
 3926              	.LBB628:
 3927              	.LBB626:
 3928 01a4 F024     		movs	r4, #240
 3929              	.LVL491:
 3930              	.L343:
 3931              	.LBE626:
 3932              	.LBE628:
 3933              	.LBE630:
 3934              	.LBE632:
 3935              	.LBE644:
 3936              	.LBB645:
 3937              	.LBB643:
 3938              	.LBB642:
 3939              	.LBB641:
 3940              	.LBB640:
 131:screen.c      ****             while(SS_Read() != 1){}
 3941              		.loc 1 131 0
 3942 01a6 0020     		movs	r0, #0
 3943 01a8 FFF7FEFF 		bl	SPIM_WriteTxData
 3944              	.LVL492:
 3945              	.L341:
 132:screen.c      ****             SPIM_WriteTxData(lo);
 3946              		.loc 1 132 0
ARM GAS  C:\Users\legoc\AppData\Local\Temp\ccMAvaOS.s 			page 87


 3947 01ac FFF7FEFF 		bl	SS_Read
 3948              	.LVL493:
 3949 01b0 0128     		cmp	r0, #1
 3950 01b2 FBD1     		bne	.L341
 133:screen.c      ****             while(SS_Read() != 1){}
 3951              		.loc 1 133 0
 3952 01b4 0020     		movs	r0, #0
 3953 01b6 FFF7FEFF 		bl	SPIM_WriteTxData
 3954              	.LVL494:
 3955              	.L342:
 134:screen.c      ****         }
 3956              		.loc 1 134 0
 3957 01ba FFF7FEFF 		bl	SS_Read
 3958              	.LVL495:
 3959 01be 0128     		cmp	r0, #1
 3960 01c0 FBD1     		bne	.L342
 3961 01c2 013C     		subs	r4, r4, #1
 3962 01c4 A4B2     		uxth	r4, r4
 129:screen.c      ****         {
 3963              		.loc 1 129 0
 3964 01c6 002C     		cmp	r4, #0
 3965 01c8 EDD1     		bne	.L343
 3966 01ca 013D     		subs	r5, r5, #1
 3967 01cc ADB2     		uxth	r5, r5
 127:screen.c      ****     {
 3968              		.loc 1 127 0
 3969 01ce 002D     		cmp	r5, #0
 3970 01d0 E8D1     		bne	.L340
 137:screen.c      **** 
 3971              		.loc 1 137 0
 3972 01d2 FFF7FEFF 		bl	SS_Write
 3973              	.LVL496:
 3974              	.LBE640:
 3975              	.LBE641:
 3976              	.LBE642:
 3977              	.LBE643:
 3978              	.LBE645:
 481:screen.c      ****     
 482:screen.c      ****     //creates lines to separate buttons
 483:screen.c      ****     fill_rect(119,0,2,240,BLACK);
 484:screen.c      ****     fill_rect(0,119,320,2,BLACK);
 485:screen.c      ****     fill_rect(239,0,2,240,BLACK);
 486:screen.c      **** }
 3979              		.loc 1 486 0
 3980 01d6 1FB0     		add	sp, sp, #124
 3981              		.cfi_def_cfa_offset 28
 3982              		@ sp needed
 3983 01d8 BDE8F083 		pop	{r4, r5, r6, r7, r8, r9, pc}
 3984              	.L356:
 3985              		.align	2
 3986              	.L355:
 3987 01dc 7C000000 		.word	.LC12
 3988 01e0 90000000 		.word	.LC13
 3989 01e4 A0000000 		.word	.LC14
 3990 01e8 00000000 		.word	screen_state
 3991 01ec B4000000 		.word	.LC15
 3992 01f0 CC000000 		.word	.LC17
ARM GAS  C:\Users\legoc\AppData\Local\Temp\ccMAvaOS.s 			page 88


 3993 01f4 D8000000 		.word	.LC16
 3994              		.cfi_endproc
 3995              	.LFE17:
 3996              		.size	draw_options_screen, .-draw_options_screen
 3997              		.section	.text.draw_options_averages_screen,"ax",%progbits
 3998              		.align	2
 3999              		.global	draw_options_averages_screen
 4000              		.thumb
 4001              		.thumb_func
 4002              		.type	draw_options_averages_screen, %function
 4003              	draw_options_averages_screen:
 4004              	.LFB18:
 487:screen.c      **** 
 488:screen.c      **** void draw_options_averages_screen()
 489:screen.c      **** {
 4005              		.loc 1 489 0
 4006              		.cfi_startproc
 4007              		@ args = 0, pretend = 0, frame = 8
 4008              		@ frame_needed = 0, uses_anonymous_args = 0
 4009 0000 70B5     		push	{r4, r5, r6, lr}
 4010              		.cfi_def_cfa_offset 16
 4011              		.cfi_offset 4, -16
 4012              		.cfi_offset 5, -12
 4013              		.cfi_offset 6, -8
 4014              		.cfi_offset 14, -4
 4015              	.LBB657:
 4016              	.LBB658:
 4017              	.LBB659:
 4018              	.LBB660:
 4019              	.LBB661:
 4020              	.LBB662:
 115:screen.c      **** 
 4021              		.loc 1 115 0
 4022 0002 0021     		movs	r1, #0
 4023              	.LBE662:
 4024              	.LBE661:
 4025              	.LBE660:
 4026              	.LBE659:
 4027              	.LBE658:
 4028              	.LBE657:
 490:screen.c      ****     screen_state = OPTION_AVERAGES_SCREEN;
 4029              		.loc 1 490 0
 4030 0004 504C     		ldr	r4, .L375
 4031              	.LBB688:
 4032              	.LBB683:
 4033              	.LBB678:
 4034              	.LBB673:
 4035              	.LBB668:
 4036              	.LBB663:
 115:screen.c      **** 
 4037              		.loc 1 115 0
 4038 0006 0846     		mov	r0, r1
 4039              	.LBE663:
 4040              	.LBE668:
 4041              	.LBE673:
 4042              	.LBE678:
 4043              	.LBE683:
ARM GAS  C:\Users\legoc\AppData\Local\Temp\ccMAvaOS.s 			page 89


 4044              	.LBE688:
 489:screen.c      ****     screen_state = OPTION_AVERAGES_SCREEN;
 4045              		.loc 1 489 0
 4046 0008 84B0     		sub	sp, sp, #16
 4047              		.cfi_def_cfa_offset 32
 4048              	.LBB689:
 4049              	.LBB684:
 4050              	.LBB679:
 4051              	.LBB674:
 4052              	.LBB669:
 4053              	.LBB664:
 115:screen.c      **** 
 4054              		.loc 1 115 0
 4055 000a 4FF4A073 		mov	r3, #320
 4056 000e F022     		movs	r2, #240
 4057              	.LBE664:
 4058              	.LBE669:
 4059              	.LBE674:
 4060              	.LBE679:
 4061              	.LBE684:
 4062              	.LBE689:
 4063              		.loc 1 490 0
 4064 0010 0325     		movs	r5, #3
 4065 0012 2560     		str	r5, [r4]
 4066              	.LVL497:
 4067              	.LBB690:
 4068              	.LBB685:
 4069              	.LBB680:
 4070              	.LBB675:
 4071              	.LBB670:
 4072              	.LBB665:
 115:screen.c      **** 
 4073              		.loc 1 115 0
 4074 0014 FFF7FEFF 		bl	setAddrWindow
 4075              	.LVL498:
 124:screen.c      ****     SS_Write(0);
 4076              		.loc 1 124 0
 4077 0018 0120     		movs	r0, #1
 4078 001a FFF7FEFF 		bl	D_C_Write
 4079              	.LVL499:
 125:screen.c      ****     // Writes color to addresses
 4080              		.loc 1 125 0
 4081 001e 0020     		movs	r0, #0
 4082 0020 FFF7FEFF 		bl	SS_Write
 4083              	.LVL500:
 4084 0024 4FF4A076 		mov	r6, #320
 4085              	.LVL501:
 4086              	.L358:
 4087              	.LBE665:
 4088              	.LBE670:
 4089              	.LBE675:
 4090              	.LBE680:
 4091              	.LBE685:
 4092              	.LBE690:
 489:screen.c      ****     screen_state = OPTION_AVERAGES_SCREEN;
 4093              		.loc 1 489 0
 4094 0028 F025     		movs	r5, #240
ARM GAS  C:\Users\legoc\AppData\Local\Temp\ccMAvaOS.s 			page 90


 4095              	.LVL502:
 4096              	.L361:
 4097              	.LBB691:
 4098              	.LBB686:
 4099              	.LBB681:
 4100              	.LBB676:
 4101              	.LBB671:
 4102              	.LBB666:
 131:screen.c      ****             while(SS_Read() != 1){}
 4103              		.loc 1 131 0
 4104 002a 0020     		movs	r0, #0
 4105 002c FFF7FEFF 		bl	SPIM_WriteTxData
 4106              	.LVL503:
 4107              	.L359:
 132:screen.c      ****             SPIM_WriteTxData(lo);
 4108              		.loc 1 132 0
 4109 0030 FFF7FEFF 		bl	SS_Read
 4110              	.LVL504:
 4111 0034 0128     		cmp	r0, #1
 4112 0036 FBD1     		bne	.L359
 133:screen.c      ****             while(SS_Read() != 1){}
 4113              		.loc 1 133 0
 4114 0038 0020     		movs	r0, #0
 4115 003a FFF7FEFF 		bl	SPIM_WriteTxData
 4116              	.LVL505:
 4117              	.L360:
 134:screen.c      ****         }
 4118              		.loc 1 134 0
 4119 003e FFF7FEFF 		bl	SS_Read
 4120              	.LVL506:
 4121 0042 0128     		cmp	r0, #1
 4122 0044 0446     		mov	r4, r0
 4123 0046 FAD1     		bne	.L360
 4124 0048 013D     		subs	r5, r5, #1
 4125 004a ADB2     		uxth	r5, r5
 129:screen.c      ****         {
 4126              		.loc 1 129 0
 4127 004c 002D     		cmp	r5, #0
 4128 004e ECD1     		bne	.L361
 4129 0050 013E     		subs	r6, r6, #1
 4130 0052 B6B2     		uxth	r6, r6
 127:screen.c      ****     {
 4131              		.loc 1 127 0
 4132 0054 002E     		cmp	r6, #0
 4133 0056 E7D1     		bne	.L358
 137:screen.c      **** 
 4134              		.loc 1 137 0
 4135 0058 FFF7FEFF 		bl	SS_Write
 4136              	.LVL507:
 4137              	.LBE666:
 4138              	.LBE671:
 4139              	.LBE676:
 4140              	.LBE681:
 4141              	.LBE686:
 4142              	.LBE691:
 491:screen.c      ****     
 492:screen.c      ****     fill_screen(BLACK);
ARM GAS  C:\Users\legoc\AppData\Local\Temp\ccMAvaOS.s 			page 91


 493:screen.c      ****     
 494:screen.c      ****     draw_button(0,219,239,20,WHITE,BLACK,"NUMBER OF AVERAGES TO TAKE");
 4143              		.loc 1 494 0
 4144 005c 3B4A     		ldr	r2, .L375+4
 4145 005e 1423     		movs	r3, #20
 4146 0060 0092     		str	r2, [sp]
 4147 0062 DB21     		movs	r1, #219
 4148 0064 EF22     		movs	r2, #239
 4149 0066 3046     		mov	r0, r6
 4150 0068 FFF7FEFF 		bl	draw_button.constprop.3
 4151              	.LVL508:
 495:screen.c      ****     
 496:screen.c      ****     draw_button(80,150,70,50,WHITE,BLACK,"PLUS 1");
 4152              		.loc 1 496 0
 4153 006c 384A     		ldr	r2, .L375+8
 4154 006e 3223     		movs	r3, #50
 4155 0070 0092     		str	r2, [sp]
 4156 0072 9621     		movs	r1, #150
 4157 0074 4622     		movs	r2, #70
 4158 0076 5020     		movs	r0, #80
 4159 0078 FFF7FEFF 		bl	draw_button.constprop.3
 4160              	.LVL509:
 497:screen.c      ****     draw_button(80,80,70,50,WHITE,BLACK,"PLUS 10");
 4161              		.loc 1 497 0
 4162 007c 354B     		ldr	r3, .L375+12
 4163 007e 5021     		movs	r1, #80
 4164 0080 0846     		mov	r0, r1
 4165 0082 0093     		str	r3, [sp]
 4166 0084 4622     		movs	r2, #70
 4167 0086 3223     		movs	r3, #50
 4168 0088 FFF7FEFF 		bl	draw_button.constprop.3
 4169              	.LVL510:
 498:screen.c      ****     draw_button(80,10,70,50,WHITE,BLACK,"PLUS 100");
 4170              		.loc 1 498 0
 4171 008c 324A     		ldr	r2, .L375+16
 4172 008e 3223     		movs	r3, #50
 4173 0090 0092     		str	r2, [sp]
 4174 0092 0A21     		movs	r1, #10
 4175 0094 4622     		movs	r2, #70
 4176 0096 5020     		movs	r0, #80
 4177 0098 FFF7FEFF 		bl	draw_button.constprop.3
 4178              	.LVL511:
 499:screen.c      ****     
 500:screen.c      ****     draw_button(160,150,70,50,WHITE,BLACK,"MINUS 1");
 4179              		.loc 1 500 0
 4180 009c 2F4A     		ldr	r2, .L375+20
 4181 009e 3223     		movs	r3, #50
 4182 00a0 0092     		str	r2, [sp]
 4183 00a2 9621     		movs	r1, #150
 4184 00a4 4622     		movs	r2, #70
 4185 00a6 A020     		movs	r0, #160
 4186 00a8 FFF7FEFF 		bl	draw_button.constprop.3
 4187              	.LVL512:
 501:screen.c      ****     draw_button(160,80,70,50,WHITE,BLACK,"MINUS 10");
 4188              		.loc 1 501 0
 4189 00ac 2C4A     		ldr	r2, .L375+24
 4190 00ae 3223     		movs	r3, #50
ARM GAS  C:\Users\legoc\AppData\Local\Temp\ccMAvaOS.s 			page 92


 4191 00b0 0092     		str	r2, [sp]
 4192 00b2 5021     		movs	r1, #80
 4193 00b4 4622     		movs	r2, #70
 4194 00b6 A020     		movs	r0, #160
 4195 00b8 FFF7FEFF 		bl	draw_button.constprop.3
 4196              	.LVL513:
 502:screen.c      ****     draw_button(160,10,70,50,WHITE,BLACK,"MINUS 100");
 4197              		.loc 1 502 0
 4198 00bc 294A     		ldr	r2, .L375+28
 4199 00be 3223     		movs	r3, #50
 4200 00c0 0092     		str	r2, [sp]
 4201 00c2 0A21     		movs	r1, #10
 4202 00c4 4622     		movs	r2, #70
 4203 00c6 A020     		movs	r0, #160
 4204 00c8 FFF7FEFF 		bl	draw_button.constprop.3
 4205              	.LVL514:
 503:screen.c      ****     
 504:screen.c      ****     char avg_num[4];
 505:screen.c      ****     itoa(num_avg, avg_num, 10);
 4206              		.loc 1 505 0
 4207 00cc 264B     		ldr	r3, .L375+32
 4208 00ce 03A9     		add	r1, sp, #12
 4209 00d0 1868     		ldr	r0, [r3]
 4210 00d2 0A22     		movs	r2, #10
 506:screen.c      ****     
 507:screen.c      ****     draw_string(20,105,WHITE,avg_num,2);
 4211              		.loc 1 507 0
 4212 00d4 0225     		movs	r5, #2
 505:screen.c      ****     
 4213              		.loc 1 505 0
 4214 00d6 FFF7FEFF 		bl	itoa
 4215              	.LVL515:
 4216              		.loc 1 507 0
 4217 00da 03AB     		add	r3, sp, #12
 4218 00dc 4FF6FF72 		movw	r2, #65535
 4219 00e0 6921     		movs	r1, #105
 4220 00e2 0095     		str	r5, [sp]
 4221 00e4 1420     		movs	r0, #20
 4222 00e6 FFF7FEFF 		bl	draw_string
 4223              	.LVL516:
 508:screen.c      ****     
 509:screen.c      ****     //Return button with boundary
 510:screen.c      ****     draw_button(241,0,79,240,WHITE,BLACK,"RETURN");
 4224              		.loc 1 510 0
 4225 00ea 204A     		ldr	r2, .L375+36
 4226 00ec F023     		movs	r3, #240
 4227 00ee 0092     		str	r2, [sp]
 4228 00f0 3146     		mov	r1, r6
 4229 00f2 4F22     		movs	r2, #79
 4230 00f4 F120     		movs	r0, #241
 4231 00f6 FFF7FEFF 		bl	draw_button.constprop.3
 4232              	.LVL517:
 4233              	.LBB692:
 4234              	.LBB693:
 4235              	.LBB694:
 4236              	.LBB695:
 4237              	.LBB696:
ARM GAS  C:\Users\legoc\AppData\Local\Temp\ccMAvaOS.s 			page 93


 115:screen.c      **** 
 4238              		.loc 1 115 0
 4239 00fa 2B46     		mov	r3, r5
 4240 00fc F022     		movs	r2, #240
 4241 00fe 4F21     		movs	r1, #79
 4242 0100 3046     		mov	r0, r6
 4243 0102 FFF7FEFF 		bl	setAddrWindow
 4244              	.LVL518:
 124:screen.c      ****     SS_Write(0);
 4245              		.loc 1 124 0
 4246 0106 2046     		mov	r0, r4
 4247 0108 FFF7FEFF 		bl	D_C_Write
 4248              	.LVL519:
 125:screen.c      ****     // Writes color to addresses
 4249              		.loc 1 125 0
 4250 010c 3046     		mov	r0, r6
 4251 010e FFF7FEFF 		bl	SS_Write
 4252              	.LVL520:
 4253              	.L363:
 4254              	.LBE696:
 4255              	.LBE695:
 4256              	.LBE694:
 4257              	.LBE693:
 4258              	.LBE692:
 4259              	.LBB701:
 4260              	.LBB687:
 4261              	.LBB682:
 4262              	.LBB677:
 4263              	.LBB672:
 4264              	.LBB667:
 4265 0112 F024     		movs	r4, #240
 4266              	.LVL521:
 4267              	.L366:
 4268              	.LBE667:
 4269              	.LBE672:
 4270              	.LBE677:
 4271              	.LBE682:
 4272              	.LBE687:
 4273              	.LBE701:
 4274              	.LBB702:
 4275              	.LBB700:
 4276              	.LBB699:
 4277              	.LBB698:
 4278              	.LBB697:
 131:screen.c      ****             while(SS_Read() != 1){}
 4279              		.loc 1 131 0
 4280 0114 0020     		movs	r0, #0
 4281 0116 FFF7FEFF 		bl	SPIM_WriteTxData
 4282              	.LVL522:
 4283              	.L364:
 132:screen.c      ****             SPIM_WriteTxData(lo);
 4284              		.loc 1 132 0
 4285 011a FFF7FEFF 		bl	SS_Read
 4286              	.LVL523:
 4287 011e 0128     		cmp	r0, #1
 4288 0120 FBD1     		bne	.L364
 133:screen.c      ****             while(SS_Read() != 1){}
ARM GAS  C:\Users\legoc\AppData\Local\Temp\ccMAvaOS.s 			page 94


 4289              		.loc 1 133 0
 4290 0122 0020     		movs	r0, #0
 4291 0124 FFF7FEFF 		bl	SPIM_WriteTxData
 4292              	.LVL524:
 4293              	.L365:
 134:screen.c      ****         }
 4294              		.loc 1 134 0
 4295 0128 FFF7FEFF 		bl	SS_Read
 4296              	.LVL525:
 4297 012c 0128     		cmp	r0, #1
 4298 012e FBD1     		bne	.L365
 4299 0130 013C     		subs	r4, r4, #1
 4300 0132 A4B2     		uxth	r4, r4
 129:screen.c      ****         {
 4301              		.loc 1 129 0
 4302 0134 002C     		cmp	r4, #0
 4303 0136 EDD1     		bne	.L366
 4304 0138 013D     		subs	r5, r5, #1
 4305 013a ADB2     		uxth	r5, r5
 127:screen.c      ****     {
 4306              		.loc 1 127 0
 4307 013c 002D     		cmp	r5, #0
 4308 013e E8D1     		bne	.L363
 137:screen.c      **** 
 4309              		.loc 1 137 0
 4310 0140 FFF7FEFF 		bl	SS_Write
 4311              	.LVL526:
 4312              	.LBE697:
 4313              	.LBE698:
 4314              	.LBE699:
 4315              	.LBE700:
 4316              	.LBE702:
 511:screen.c      ****     fill_rect(239,0,2,240,BLACK);
 512:screen.c      **** }
 4317              		.loc 1 512 0
 4318 0144 04B0     		add	sp, sp, #16
 4319              		.cfi_def_cfa_offset 16
 4320              		@ sp needed
 4321 0146 70BD     		pop	{r4, r5, r6, pc}
 4322              	.L376:
 4323              		.align	2
 4324              	.L375:
 4325 0148 00000000 		.word	screen_state
 4326 014c E0000000 		.word	.LC18
 4327 0150 FC000000 		.word	.LC19
 4328 0154 04010000 		.word	.LC20
 4329 0158 0C010000 		.word	.LC21
 4330 015c 18010000 		.word	.LC22
 4331 0160 20010000 		.word	.LC23
 4332 0164 2C010000 		.word	.LC24
 4333 0168 00000000 		.word	num_avg
 4334 016c D8000000 		.word	.LC16
 4335              		.cfi_endproc
 4336              	.LFE18:
 4337              		.size	draw_options_averages_screen, .-draw_options_averages_screen
 4338              		.section	.text.draw_options_sd_screen,"ax",%progbits
 4339              		.align	2
ARM GAS  C:\Users\legoc\AppData\Local\Temp\ccMAvaOS.s 			page 95


 4340              		.global	draw_options_sd_screen
 4341              		.thumb
 4342              		.thumb_func
 4343              		.type	draw_options_sd_screen, %function
 4344              	draw_options_sd_screen:
 4345              	.LFB19:
 513:screen.c      **** 
 514:screen.c      **** void draw_options_sd_screen()
 515:screen.c      **** {
 4346              		.loc 1 515 0
 4347              		.cfi_startproc
 4348              		@ args = 0, pretend = 0, frame = 32
 4349              		@ frame_needed = 0, uses_anonymous_args = 0
 4350 0000 70B5     		push	{r4, r5, r6, lr}
 4351              		.cfi_def_cfa_offset 16
 4352              		.cfi_offset 4, -16
 4353              		.cfi_offset 5, -12
 4354              		.cfi_offset 6, -8
 4355              		.cfi_offset 14, -4
 4356              	.LBB714:
 4357              	.LBB715:
 4358              	.LBB716:
 4359              	.LBB717:
 4360              	.LBB718:
 4361              	.LBB719:
 115:screen.c      **** 
 4362              		.loc 1 115 0
 4363 0002 0021     		movs	r1, #0
 4364              	.LBE719:
 4365              	.LBE718:
 4366              	.LBE717:
 4367              	.LBE716:
 4368              	.LBE715:
 4369              	.LBE714:
 516:screen.c      ****     screen_state = OPTION_SD_SCREEN;
 4370              		.loc 1 516 0
 4371 0004 554C     		ldr	r4, .L401
 4372              	.LBB745:
 4373              	.LBB740:
 4374              	.LBB735:
 4375              	.LBB730:
 4376              	.LBB725:
 4377              	.LBB720:
 115:screen.c      **** 
 4378              		.loc 1 115 0
 4379 0006 0846     		mov	r0, r1
 4380              	.LBE720:
 4381              	.LBE725:
 4382              	.LBE730:
 4383              	.LBE735:
 4384              	.LBE740:
 4385              	.LBE745:
 515:screen.c      ****     screen_state = OPTION_SD_SCREEN;
 4386              		.loc 1 515 0
 4387 0008 8CB0     		sub	sp, sp, #48
 4388              		.cfi_def_cfa_offset 64
 4389              	.LBB746:
ARM GAS  C:\Users\legoc\AppData\Local\Temp\ccMAvaOS.s 			page 96


 4390              	.LBB741:
 4391              	.LBB736:
 4392              	.LBB731:
 4393              	.LBB726:
 4394              	.LBB721:
 115:screen.c      **** 
 4395              		.loc 1 115 0
 4396 000a 4FF4A073 		mov	r3, #320
 4397 000e F022     		movs	r2, #240
 4398              	.LBE721:
 4399              	.LBE726:
 4400              	.LBE731:
 4401              	.LBE736:
 4402              	.LBE741:
 4403              	.LBE746:
 4404              		.loc 1 516 0
 4405 0010 0425     		movs	r5, #4
 4406 0012 2560     		str	r5, [r4]
 4407              	.LVL527:
 4408              	.LBB747:
 4409              	.LBB742:
 4410              	.LBB737:
 4411              	.LBB732:
 4412              	.LBB727:
 4413              	.LBB722:
 115:screen.c      **** 
 4414              		.loc 1 115 0
 4415 0014 FFF7FEFF 		bl	setAddrWindow
 4416              	.LVL528:
 124:screen.c      ****     SS_Write(0);
 4417              		.loc 1 124 0
 4418 0018 0120     		movs	r0, #1
 4419 001a FFF7FEFF 		bl	D_C_Write
 4420              	.LVL529:
 125:screen.c      ****     // Writes color to addresses
 4421              		.loc 1 125 0
 4422 001e 0020     		movs	r0, #0
 4423 0020 FFF7FEFF 		bl	SS_Write
 4424              	.LVL530:
 4425 0024 4FF4A075 		mov	r5, #320
 4426              	.LVL531:
 4427              	.L378:
 4428              	.LBE722:
 4429              	.LBE727:
 4430              	.LBE732:
 4431              	.LBE737:
 4432              	.LBE742:
 4433              	.LBE747:
 515:screen.c      ****     screen_state = OPTION_SD_SCREEN;
 4434              		.loc 1 515 0
 4435 0028 F024     		movs	r4, #240
 4436              	.LVL532:
 4437              	.L381:
 4438              	.LBB748:
 4439              	.LBB743:
 4440              	.LBB738:
 4441              	.LBB733:
ARM GAS  C:\Users\legoc\AppData\Local\Temp\ccMAvaOS.s 			page 97


 4442              	.LBB728:
 4443              	.LBB723:
 131:screen.c      ****             while(SS_Read() != 1){}
 4444              		.loc 1 131 0
 4445 002a 0020     		movs	r0, #0
 4446 002c FFF7FEFF 		bl	SPIM_WriteTxData
 4447              	.LVL533:
 4448              	.L379:
 132:screen.c      ****             SPIM_WriteTxData(lo);
 4449              		.loc 1 132 0
 4450 0030 FFF7FEFF 		bl	SS_Read
 4451              	.LVL534:
 4452 0034 0128     		cmp	r0, #1
 4453 0036 FBD1     		bne	.L379
 133:screen.c      ****             while(SS_Read() != 1){}
 4454              		.loc 1 133 0
 4455 0038 0020     		movs	r0, #0
 4456 003a FFF7FEFF 		bl	SPIM_WriteTxData
 4457              	.LVL535:
 4458              	.L380:
 134:screen.c      ****         }
 4459              		.loc 1 134 0
 4460 003e FFF7FEFF 		bl	SS_Read
 4461              	.LVL536:
 4462 0042 0128     		cmp	r0, #1
 4463 0044 FBD1     		bne	.L380
 4464 0046 013C     		subs	r4, r4, #1
 4465 0048 A4B2     		uxth	r4, r4
 129:screen.c      ****         {
 4466              		.loc 1 129 0
 4467 004a 002C     		cmp	r4, #0
 4468 004c EDD1     		bne	.L381
 4469 004e 013D     		subs	r5, r5, #1
 4470 0050 ADB2     		uxth	r5, r5
 127:screen.c      ****     {
 4471              		.loc 1 127 0
 4472 0052 002D     		cmp	r5, #0
 4473 0054 E8D1     		bne	.L378
 137:screen.c      **** 
 4474              		.loc 1 137 0
 4475 0056 FFF7FEFF 		bl	SS_Write
 4476              	.LVL537:
 4477              	.LBE723:
 4478              	.LBE728:
 4479              	.LBE733:
 4480              	.LBE738:
 4481              	.LBE743:
 4482              	.LBE748:
 517:screen.c      ****     
 518:screen.c      ****     fill_screen(BLACK);
 519:screen.c      ****     
 520:screen.c      ****     draw_button(0,219,239,20,WHITE,BLACK,"SD CARD OPTIONS");
 4483              		.loc 1 520 0
 4484 005a 414A     		ldr	r2, .L401+4
 521:screen.c      ****     char temp[] = "WRITE RESULTS TO SD CARD";
 4485              		.loc 1 521 0
 4486 005c 414E     		ldr	r6, .L401+8
ARM GAS  C:\Users\legoc\AppData\Local\Temp\ccMAvaOS.s 			page 98


 520:screen.c      ****     char temp[] = "WRITE RESULTS TO SD CARD";
 4487              		.loc 1 520 0
 4488 005e 1423     		movs	r3, #20
 4489 0060 0092     		str	r2, [sp]
 4490 0062 DB21     		movs	r1, #219
 4491 0064 EF22     		movs	r2, #239
 4492 0066 2846     		mov	r0, r5
 4493              		.loc 1 521 0
 4494 0068 05AC     		add	r4, sp, #20
 520:screen.c      ****     char temp[] = "WRITE RESULTS TO SD CARD";
 4495              		.loc 1 520 0
 4496 006a FFF7FEFF 		bl	draw_button.constprop.3
 4497              	.LVL538:
 4498              		.loc 1 521 0
 4499 006e 0FCE     		ldmia	r6!, {r0, r1, r2, r3}
 4500 0070 0FC4     		stmia	r4!, {r0, r1, r2, r3}
 4501 0072 96E80700 		ldmia	r6, {r0, r1, r2}
 4502 0076 03C4     		stmia	r4!, {r0, r1}
 522:screen.c      ****     draw_button(0,170,239,10,WHITE,BLACK,temp);
 4503              		.loc 1 522 0
 4504 0078 05AB     		add	r3, sp, #20
 521:screen.c      ****     char temp[] = "WRITE RESULTS TO SD CARD";
 4505              		.loc 1 521 0
 4506 007a 2270     		strb	r2, [r4]
 4507              		.loc 1 522 0
 4508 007c AA21     		movs	r1, #170
 4509 007e 0093     		str	r3, [sp]
 4510 0080 EF22     		movs	r2, #239
 4511 0082 0A23     		movs	r3, #10
 4512 0084 2846     		mov	r0, r5
 4513 0086 FFF7FEFF 		bl	draw_button.constprop.3
 4514              	.LVL539:
 523:screen.c      ****     
 524:screen.c      ****     if(write_sd == 1)
 4515              		.loc 1 524 0
 4516 008a 374B     		ldr	r3, .L401+12
 4517 008c 1B68     		ldr	r3, [r3]
 4518 008e 012B     		cmp	r3, #1
 4519 0090 56D0     		beq	.L399
 525:screen.c      ****     {
 526:screen.c      ****         draw_button(30,100,80,50,LIGHTBLUE,BLACK,"YES");
 527:screen.c      ****         draw_button(130,100,80,50,WHITE,BLACK,"NO");
 528:screen.c      ****     }
 529:screen.c      ****     else if(write_sd == 0)
 4520              		.loc 1 529 0
 4521 0092 002B     		cmp	r3, #0
 4522 0094 3FD0     		beq	.L400
 530:screen.c      ****     {
 531:screen.c      ****         draw_button(30,100,80,50,WHITE,BLACK,"YES");
 532:screen.c      ****         draw_button(130,100,80,50,LIGHTBLUE,BLACK,"NO");
 533:screen.c      ****     }
 534:screen.c      ****     else
 535:screen.c      ****     {
 536:screen.c      ****         draw_button(80,100,80,50,WHITE,BLACK,"YES");
 4523              		.loc 1 536 0
 4524 0096 354B     		ldr	r3, .L401+16
 4525 0098 5022     		movs	r2, #80
ARM GAS  C:\Users\legoc\AppData\Local\Temp\ccMAvaOS.s 			page 99


 4526 009a 0093     		str	r3, [sp]
 4527 009c 1046     		mov	r0, r2
 4528 009e 3223     		movs	r3, #50
 4529 00a0 6421     		movs	r1, #100
 4530 00a2 FFF7FEFF 		bl	draw_button.constprop.3
 4531              	.LVL540:
 4532              	.L398:
 537:screen.c      ****         draw_button(130,100,80,50,WHITE,BLACK,"NO");
 4533              		.loc 1 537 0
 4534 00a6 324A     		ldr	r2, .L401+20
 4535 00a8 3223     		movs	r3, #50
 4536 00aa 0092     		str	r2, [sp]
 4537 00ac 6421     		movs	r1, #100
 4538 00ae 5022     		movs	r2, #80
 4539 00b0 8220     		movs	r0, #130
 4540 00b2 FFF7FEFF 		bl	draw_button.constprop.3
 4541              	.LVL541:
 4542              	.L384:
 538:screen.c      ****     }
 539:screen.c      ****     
 540:screen.c      ****     //Return button with boundary
 541:screen.c      ****     draw_button(241,0,79,240,WHITE,BLACK,"RETURN");
 4543              		.loc 1 541 0
 4544 00b6 2F4A     		ldr	r2, .L401+24
 4545 00b8 F023     		movs	r3, #240
 4546 00ba 0092     		str	r2, [sp]
 4547 00bc 0021     		movs	r1, #0
 4548 00be 4F22     		movs	r2, #79
 4549 00c0 F120     		movs	r0, #241
 4550 00c2 FFF7FEFF 		bl	draw_button.constprop.3
 4551              	.LVL542:
 4552              	.LBB749:
 4553              	.LBB750:
 4554              	.LBB751:
 4555              	.LBB752:
 4556              	.LBB753:
 115:screen.c      **** 
 4557              		.loc 1 115 0
 4558 00c6 0223     		movs	r3, #2
 4559 00c8 F022     		movs	r2, #240
 4560 00ca 4F21     		movs	r1, #79
 4561 00cc 0020     		movs	r0, #0
 4562 00ce FFF7FEFF 		bl	setAddrWindow
 4563              	.LVL543:
 124:screen.c      ****     SS_Write(0);
 4564              		.loc 1 124 0
 4565 00d2 0120     		movs	r0, #1
 4566 00d4 FFF7FEFF 		bl	D_C_Write
 4567              	.LVL544:
 125:screen.c      ****     // Writes color to addresses
 4568              		.loc 1 125 0
 4569 00d8 0020     		movs	r0, #0
 4570 00da FFF7FEFF 		bl	SS_Write
 4571              	.LVL545:
 4572 00de 0225     		movs	r5, #2
 4573              	.LVL546:
 4574              	.L386:
ARM GAS  C:\Users\legoc\AppData\Local\Temp\ccMAvaOS.s 			page 100


 4575              	.LBE753:
 4576              	.LBE752:
 4577              	.LBE751:
 4578              	.LBE750:
 4579              	.LBE749:
 4580              	.LBB758:
 4581              	.LBB744:
 4582              	.LBB739:
 4583              	.LBB734:
 4584              	.LBB729:
 4585              	.LBB724:
 4586 00e0 F024     		movs	r4, #240
 4587              	.LVL547:
 4588              	.L389:
 4589              	.LBE724:
 4590              	.LBE729:
 4591              	.LBE734:
 4592              	.LBE739:
 4593              	.LBE744:
 4594              	.LBE758:
 4595              	.LBB759:
 4596              	.LBB757:
 4597              	.LBB756:
 4598              	.LBB755:
 4599              	.LBB754:
 131:screen.c      ****             while(SS_Read() != 1){}
 4600              		.loc 1 131 0
 4601 00e2 0020     		movs	r0, #0
 4602 00e4 FFF7FEFF 		bl	SPIM_WriteTxData
 4603              	.LVL548:
 4604              	.L387:
 132:screen.c      ****             SPIM_WriteTxData(lo);
 4605              		.loc 1 132 0
 4606 00e8 FFF7FEFF 		bl	SS_Read
 4607              	.LVL549:
 4608 00ec 0128     		cmp	r0, #1
 4609 00ee FBD1     		bne	.L387
 133:screen.c      ****             while(SS_Read() != 1){}
 4610              		.loc 1 133 0
 4611 00f0 0020     		movs	r0, #0
 4612 00f2 FFF7FEFF 		bl	SPIM_WriteTxData
 4613              	.LVL550:
 4614              	.L388:
 134:screen.c      ****         }
 4615              		.loc 1 134 0
 4616 00f6 FFF7FEFF 		bl	SS_Read
 4617              	.LVL551:
 4618 00fa 0128     		cmp	r0, #1
 4619 00fc FBD1     		bne	.L388
 4620 00fe 013C     		subs	r4, r4, #1
 4621 0100 A4B2     		uxth	r4, r4
 129:screen.c      ****         {
 4622              		.loc 1 129 0
 4623 0102 002C     		cmp	r4, #0
 4624 0104 EDD1     		bne	.L389
 4625 0106 013D     		subs	r5, r5, #1
 4626 0108 ADB2     		uxth	r5, r5
ARM GAS  C:\Users\legoc\AppData\Local\Temp\ccMAvaOS.s 			page 101


 127:screen.c      ****     {
 4627              		.loc 1 127 0
 4628 010a 002D     		cmp	r5, #0
 4629 010c E8D1     		bne	.L386
 137:screen.c      **** 
 4630              		.loc 1 137 0
 4631 010e FFF7FEFF 		bl	SS_Write
 4632              	.LVL552:
 4633              	.LBE754:
 4634              	.LBE755:
 4635              	.LBE756:
 4636              	.LBE757:
 4637              	.LBE759:
 542:screen.c      ****     fill_rect(239,0,2,240,BLACK);
 543:screen.c      **** }
 4638              		.loc 1 543 0
 4639 0112 0CB0     		add	sp, sp, #48
 4640              		.cfi_remember_state
 4641              		.cfi_def_cfa_offset 16
 4642              		@ sp needed
 4643 0114 70BD     		pop	{r4, r5, r6, pc}
 4644              	.L400:
 4645              		.cfi_restore_state
 531:screen.c      ****         draw_button(130,100,80,50,LIGHTBLUE,BLACK,"NO");
 4646              		.loc 1 531 0
 4647 0116 154A     		ldr	r2, .L401+16
 4648 0118 3223     		movs	r3, #50
 4649 011a 0092     		str	r2, [sp]
 4650 011c 6421     		movs	r1, #100
 4651 011e 5022     		movs	r2, #80
 4652 0120 1E20     		movs	r0, #30
 4653 0122 FFF7FEFF 		bl	draw_button.constprop.3
 4654              	.LVL553:
 532:screen.c      ****     }
 4655              		.loc 1 532 0
 4656 0126 49F69F62 		movw	r2, #40607
 4657 012a 114B     		ldr	r3, .L401+20
 4658 012c 8DE82400 		stmia	sp, {r2, r5}
 4659 0130 0293     		str	r3, [sp, #8]
 4660 0132 5022     		movs	r2, #80
 4661 0134 3223     		movs	r3, #50
 4662 0136 6421     		movs	r1, #100
 4663 0138 8220     		movs	r0, #130
 4664 013a FFF7FEFF 		bl	draw_button
 4665              	.LVL554:
 4666 013e BAE7     		b	.L384
 4667              	.L399:
 526:screen.c      ****         draw_button(130,100,80,50,WHITE,BLACK,"NO");
 4668              		.loc 1 526 0
 4669 0140 49F69F62 		movw	r2, #40607
 4670 0144 094B     		ldr	r3, .L401+16
 4671 0146 8DE82400 		stmia	sp, {r2, r5}
 4672 014a 0293     		str	r3, [sp, #8]
 4673 014c 5022     		movs	r2, #80
 4674 014e 3223     		movs	r3, #50
 4675 0150 6421     		movs	r1, #100
 4676 0152 1E20     		movs	r0, #30
ARM GAS  C:\Users\legoc\AppData\Local\Temp\ccMAvaOS.s 			page 102


 4677 0154 FFF7FEFF 		bl	draw_button
 4678              	.LVL555:
 4679 0158 A5E7     		b	.L398
 4680              	.L402:
 4681 015a 00BF     		.align	2
 4682              	.L401:
 4683 015c 00000000 		.word	screen_state
 4684 0160 90000000 		.word	.LC13
 4685 0164 40010000 		.word	.LC25
 4686 0168 00000000 		.word	write_sd
 4687 016c 38010000 		.word	.LC26
 4688 0170 3C010000 		.word	.LC27
 4689 0174 D8000000 		.word	.LC16
 4690              		.cfi_endproc
 4691              	.LFE19:
 4692              		.size	draw_options_sd_screen, .-draw_options_sd_screen
 4693              		.section	.text.draw_options_curves_screen,"ax",%progbits
 4694              		.align	2
 4695              		.global	draw_options_curves_screen
 4696              		.thumb
 4697              		.thumb_func
 4698              		.type	draw_options_curves_screen, %function
 4699              	draw_options_curves_screen:
 4700              	.LFB20:
 544:screen.c      **** 
 545:screen.c      **** void draw_options_curves_screen()
 546:screen.c      **** {
 4701              		.loc 1 546 0
 4702              		.cfi_startproc
 4703              		@ args = 0, pretend = 0, frame = 8
 4704              		@ frame_needed = 0, uses_anonymous_args = 0
 4705 0000 70B5     		push	{r4, r5, r6, lr}
 4706              		.cfi_def_cfa_offset 16
 4707              		.cfi_offset 4, -16
 4708              		.cfi_offset 5, -12
 4709              		.cfi_offset 6, -8
 4710              		.cfi_offset 14, -4
 4711              	.LBB771:
 4712              	.LBB772:
 4713              	.LBB773:
 4714              	.LBB774:
 4715              	.LBB775:
 4716              	.LBB776:
 115:screen.c      **** 
 4717              		.loc 1 115 0
 4718 0002 0021     		movs	r1, #0
 4719              	.LBE776:
 4720              	.LBE775:
 4721              	.LBE774:
 4722              	.LBE773:
 4723              	.LBE772:
 4724              	.LBE771:
 547:screen.c      ****     screen_state = OPTION_CURVES_SCREEN;
 4725              		.loc 1 547 0
 4726 0004 414C     		ldr	r4, .L421
 4727              	.LBB802:
 4728              	.LBB797:
ARM GAS  C:\Users\legoc\AppData\Local\Temp\ccMAvaOS.s 			page 103


 4729              	.LBB792:
 4730              	.LBB787:
 4731              	.LBB782:
 4732              	.LBB777:
 115:screen.c      **** 
 4733              		.loc 1 115 0
 4734 0006 0846     		mov	r0, r1
 4735              	.LBE777:
 4736              	.LBE782:
 4737              	.LBE787:
 4738              	.LBE792:
 4739              	.LBE797:
 4740              	.LBE802:
 546:screen.c      ****     screen_state = OPTION_CURVES_SCREEN;
 4741              		.loc 1 546 0
 4742 0008 84B0     		sub	sp, sp, #16
 4743              		.cfi_def_cfa_offset 32
 4744              	.LBB803:
 4745              	.LBB798:
 4746              	.LBB793:
 4747              	.LBB788:
 4748              	.LBB783:
 4749              	.LBB778:
 115:screen.c      **** 
 4750              		.loc 1 115 0
 4751 000a 4FF4A073 		mov	r3, #320
 4752 000e F022     		movs	r2, #240
 4753              	.LBE778:
 4754              	.LBE783:
 4755              	.LBE788:
 4756              	.LBE793:
 4757              	.LBE798:
 4758              	.LBE803:
 4759              		.loc 1 547 0
 4760 0010 0525     		movs	r5, #5
 4761 0012 2560     		str	r5, [r4]
 4762              	.LVL556:
 4763              	.LBB804:
 4764              	.LBB799:
 4765              	.LBB794:
 4766              	.LBB789:
 4767              	.LBB784:
 4768              	.LBB779:
 115:screen.c      **** 
 4769              		.loc 1 115 0
 4770 0014 FFF7FEFF 		bl	setAddrWindow
 4771              	.LVL557:
 124:screen.c      ****     SS_Write(0);
 4772              		.loc 1 124 0
 4773 0018 0120     		movs	r0, #1
 4774 001a FFF7FEFF 		bl	D_C_Write
 4775              	.LVL558:
 125:screen.c      ****     // Writes color to addresses
 4776              		.loc 1 125 0
 4777 001e 0020     		movs	r0, #0
 4778 0020 FFF7FEFF 		bl	SS_Write
 4779              	.LVL559:
ARM GAS  C:\Users\legoc\AppData\Local\Temp\ccMAvaOS.s 			page 104


 4780 0024 4FF4A076 		mov	r6, #320
 4781              	.LVL560:
 4782              	.L404:
 4783              	.LBE779:
 4784              	.LBE784:
 4785              	.LBE789:
 4786              	.LBE794:
 4787              	.LBE799:
 4788              	.LBE804:
 546:screen.c      ****     screen_state = OPTION_CURVES_SCREEN;
 4789              		.loc 1 546 0
 4790 0028 F025     		movs	r5, #240
 4791              	.LVL561:
 4792              	.L407:
 4793              	.LBB805:
 4794              	.LBB800:
 4795              	.LBB795:
 4796              	.LBB790:
 4797              	.LBB785:
 4798              	.LBB780:
 131:screen.c      ****             while(SS_Read() != 1){}
 4799              		.loc 1 131 0
 4800 002a 0020     		movs	r0, #0
 4801 002c FFF7FEFF 		bl	SPIM_WriteTxData
 4802              	.LVL562:
 4803              	.L405:
 132:screen.c      ****             SPIM_WriteTxData(lo);
 4804              		.loc 1 132 0
 4805 0030 FFF7FEFF 		bl	SS_Read
 4806              	.LVL563:
 4807 0034 0128     		cmp	r0, #1
 4808 0036 FBD1     		bne	.L405
 133:screen.c      ****             while(SS_Read() != 1){}
 4809              		.loc 1 133 0
 4810 0038 0020     		movs	r0, #0
 4811 003a FFF7FEFF 		bl	SPIM_WriteTxData
 4812              	.LVL564:
 4813              	.L406:
 134:screen.c      ****         }
 4814              		.loc 1 134 0
 4815 003e FFF7FEFF 		bl	SS_Read
 4816              	.LVL565:
 4817 0042 0128     		cmp	r0, #1
 4818 0044 0446     		mov	r4, r0
 4819 0046 FAD1     		bne	.L406
 4820 0048 013D     		subs	r5, r5, #1
 4821 004a ADB2     		uxth	r5, r5
 129:screen.c      ****         {
 4822              		.loc 1 129 0
 4823 004c 002D     		cmp	r5, #0
 4824 004e ECD1     		bne	.L407
 4825 0050 013E     		subs	r6, r6, #1
 4826 0052 B6B2     		uxth	r6, r6
 127:screen.c      ****     {
 4827              		.loc 1 127 0
 4828 0054 002E     		cmp	r6, #0
 4829 0056 E7D1     		bne	.L404
ARM GAS  C:\Users\legoc\AppData\Local\Temp\ccMAvaOS.s 			page 105


 137:screen.c      **** 
 4830              		.loc 1 137 0
 4831 0058 FFF7FEFF 		bl	SS_Write
 4832              	.LVL566:
 4833              	.LBE780:
 4834              	.LBE785:
 4835              	.LBE790:
 4836              	.LBE795:
 4837              	.LBE800:
 4838              	.LBE805:
 548:screen.c      ****     
 549:screen.c      ****     fill_screen(BLACK);
 550:screen.c      ****     
 551:screen.c      ****     draw_button(0,219,239,20,WHITE,BLACK,"NUMBER OF CURVES TO DRAW");
 4839              		.loc 1 551 0
 4840 005c 2C4A     		ldr	r2, .L421+4
 4841 005e 1423     		movs	r3, #20
 4842 0060 0092     		str	r2, [sp]
 4843 0062 DB21     		movs	r1, #219
 4844 0064 EF22     		movs	r2, #239
 4845 0066 3046     		mov	r0, r6
 4846 0068 FFF7FEFF 		bl	draw_button.constprop.3
 4847              	.LVL567:
 552:screen.c      ****     
 553:screen.c      ****     draw_button(130,30,70,70,WHITE,BLACK,"DECREASE");
 4848              		.loc 1 553 0
 4849 006c 294A     		ldr	r2, .L421+8
 4850 006e 4623     		movs	r3, #70
 4851 0070 0092     		str	r2, [sp]
 4852 0072 1E21     		movs	r1, #30
 4853 0074 1A46     		mov	r2, r3
 4854 0076 8220     		movs	r0, #130
 4855 0078 FFF7FEFF 		bl	draw_button.constprop.3
 4856              	.LVL568:
 554:screen.c      ****     draw_button(130,120,70,70,WHITE,BLACK,"INCREASE");
 4857              		.loc 1 554 0
 4858 007c 264A     		ldr	r2, .L421+12
 4859 007e 4623     		movs	r3, #70
 4860 0080 0092     		str	r2, [sp]
 4861 0082 7821     		movs	r1, #120
 4862 0084 1A46     		mov	r2, r3
 4863 0086 8220     		movs	r0, #130
 4864 0088 FFF7FEFF 		bl	draw_button.constprop.3
 4865              	.LVL569:
 555:screen.c      ****     
 556:screen.c      ****     char num_curve[2];
 557:screen.c      ****     itoa(curve_nums, num_curve, 10);
 4866              		.loc 1 557 0
 4867 008c 234B     		ldr	r3, .L421+16
 4868 008e 03A9     		add	r1, sp, #12
 4869 0090 1868     		ldr	r0, [r3]
 4870 0092 0A22     		movs	r2, #10
 4871 0094 FFF7FEFF 		bl	itoa
 4872              	.LVL570:
 558:screen.c      ****     
 559:screen.c      ****     draw_string(50,105,WHITE,num_curve,3);
 4873              		.loc 1 559 0
ARM GAS  C:\Users\legoc\AppData\Local\Temp\ccMAvaOS.s 			page 106


 4874 0098 0322     		movs	r2, #3
 4875 009a 03AB     		add	r3, sp, #12
 4876 009c 0092     		str	r2, [sp]
 4877 009e 6921     		movs	r1, #105
 4878 00a0 4FF6FF72 		movw	r2, #65535
 4879 00a4 3220     		movs	r0, #50
 4880 00a6 FFF7FEFF 		bl	draw_string
 4881              	.LVL571:
 560:screen.c      ****     
 561:screen.c      ****     //Return button with boundary
 562:screen.c      ****     draw_button(241,0,79,240,WHITE,BLACK,"RETURN");
 4882              		.loc 1 562 0
 4883 00aa 1D4A     		ldr	r2, .L421+20
 4884 00ac F023     		movs	r3, #240
 4885 00ae 0092     		str	r2, [sp]
 4886 00b0 3146     		mov	r1, r6
 4887 00b2 4F22     		movs	r2, #79
 4888 00b4 F120     		movs	r0, #241
 4889 00b6 FFF7FEFF 		bl	draw_button.constprop.3
 4890              	.LVL572:
 4891              	.LBB806:
 4892              	.LBB807:
 4893              	.LBB808:
 4894              	.LBB809:
 4895              	.LBB810:
 115:screen.c      **** 
 4896              		.loc 1 115 0
 4897 00ba 0223     		movs	r3, #2
 4898 00bc F022     		movs	r2, #240
 4899 00be 4F21     		movs	r1, #79
 4900 00c0 3046     		mov	r0, r6
 4901 00c2 FFF7FEFF 		bl	setAddrWindow
 4902              	.LVL573:
 124:screen.c      ****     SS_Write(0);
 4903              		.loc 1 124 0
 4904 00c6 2046     		mov	r0, r4
 4905 00c8 FFF7FEFF 		bl	D_C_Write
 4906              	.LVL574:
 125:screen.c      ****     // Writes color to addresses
 4907              		.loc 1 125 0
 4908 00cc 3046     		mov	r0, r6
 4909 00ce FFF7FEFF 		bl	SS_Write
 4910              	.LVL575:
 4911 00d2 0225     		movs	r5, #2
 4912              	.LVL576:
 4913              	.L409:
 4914              	.LBE810:
 4915              	.LBE809:
 4916              	.LBE808:
 4917              	.LBE807:
 4918              	.LBE806:
 4919              	.LBB815:
 4920              	.LBB801:
 4921              	.LBB796:
 4922              	.LBB791:
 4923              	.LBB786:
 4924              	.LBB781:
ARM GAS  C:\Users\legoc\AppData\Local\Temp\ccMAvaOS.s 			page 107


 4925 00d4 F024     		movs	r4, #240
 4926              	.LVL577:
 4927              	.L412:
 4928              	.LBE781:
 4929              	.LBE786:
 4930              	.LBE791:
 4931              	.LBE796:
 4932              	.LBE801:
 4933              	.LBE815:
 4934              	.LBB816:
 4935              	.LBB814:
 4936              	.LBB813:
 4937              	.LBB812:
 4938              	.LBB811:
 131:screen.c      ****             while(SS_Read() != 1){}
 4939              		.loc 1 131 0
 4940 00d6 0020     		movs	r0, #0
 4941 00d8 FFF7FEFF 		bl	SPIM_WriteTxData
 4942              	.LVL578:
 4943              	.L410:
 132:screen.c      ****             SPIM_WriteTxData(lo);
 4944              		.loc 1 132 0
 4945 00dc FFF7FEFF 		bl	SS_Read
 4946              	.LVL579:
 4947 00e0 0128     		cmp	r0, #1
 4948 00e2 FBD1     		bne	.L410
 133:screen.c      ****             while(SS_Read() != 1){}
 4949              		.loc 1 133 0
 4950 00e4 0020     		movs	r0, #0
 4951 00e6 FFF7FEFF 		bl	SPIM_WriteTxData
 4952              	.LVL580:
 4953              	.L411:
 134:screen.c      ****         }
 4954              		.loc 1 134 0
 4955 00ea FFF7FEFF 		bl	SS_Read
 4956              	.LVL581:
 4957 00ee 0128     		cmp	r0, #1
 4958 00f0 FBD1     		bne	.L411
 4959 00f2 013C     		subs	r4, r4, #1
 4960 00f4 A4B2     		uxth	r4, r4
 129:screen.c      ****         {
 4961              		.loc 1 129 0
 4962 00f6 002C     		cmp	r4, #0
 4963 00f8 EDD1     		bne	.L412
 4964 00fa 013D     		subs	r5, r5, #1
 4965 00fc ADB2     		uxth	r5, r5
 127:screen.c      ****     {
 4966              		.loc 1 127 0
 4967 00fe 002D     		cmp	r5, #0
 4968 0100 E8D1     		bne	.L409
 137:screen.c      **** 
 4969              		.loc 1 137 0
 4970 0102 FFF7FEFF 		bl	SS_Write
 4971              	.LVL582:
 4972              	.LBE811:
 4973              	.LBE812:
 4974              	.LBE813:
ARM GAS  C:\Users\legoc\AppData\Local\Temp\ccMAvaOS.s 			page 108


 4975              	.LBE814:
 4976              	.LBE816:
 563:screen.c      ****     fill_rect(239,0,2,240,BLACK);
 564:screen.c      **** }
 4977              		.loc 1 564 0
 4978 0106 04B0     		add	sp, sp, #16
 4979              		.cfi_def_cfa_offset 16
 4980              		@ sp needed
 4981 0108 70BD     		pop	{r4, r5, r6, pc}
 4982              	.L422:
 4983 010a 00BF     		.align	2
 4984              	.L421:
 4985 010c 00000000 		.word	screen_state
 4986 0110 5C010000 		.word	.LC28
 4987 0114 78010000 		.word	.LC29
 4988 0118 84010000 		.word	.LC30
 4989 011c 00000000 		.word	curve_nums
 4990 0120 D8000000 		.word	.LC16
 4991              		.cfi_endproc
 4992              	.LFE20:
 4993              		.size	draw_options_curves_screen, .-draw_options_curves_screen
 4994              		.section	.text.draw_options_settling_screen,"ax",%progbits
 4995              		.align	2
 4996              		.global	draw_options_settling_screen
 4997              		.thumb
 4998              		.thumb_func
 4999              		.type	draw_options_settling_screen, %function
 5000              	draw_options_settling_screen:
 5001              	.LFB21:
 565:screen.c      **** 
 566:screen.c      **** void draw_options_settling_screen()
 567:screen.c      **** {
 5002              		.loc 1 567 0
 5003              		.cfi_startproc
 5004              		@ args = 0, pretend = 0, frame = 0
 5005              		@ frame_needed = 0, uses_anonymous_args = 0
 5006 0000 70B5     		push	{r4, r5, r6, lr}
 5007              		.cfi_def_cfa_offset 16
 5008              		.cfi_offset 4, -16
 5009              		.cfi_offset 5, -12
 5010              		.cfi_offset 6, -8
 5011              		.cfi_offset 14, -4
 5012              	.LBB828:
 5013              	.LBB829:
 5014              	.LBB830:
 5015              	.LBB831:
 5016              	.LBB832:
 5017              	.LBB833:
 115:screen.c      **** 
 5018              		.loc 1 115 0
 5019 0002 0021     		movs	r1, #0
 5020              	.LBE833:
 5021              	.LBE832:
 5022              	.LBE831:
 5023              	.LBE830:
 5024              	.LBE829:
 5025              	.LBE828:
ARM GAS  C:\Users\legoc\AppData\Local\Temp\ccMAvaOS.s 			page 109


 568:screen.c      ****     screen_state = OPTION_SETTLING_SCREEN;
 5026              		.loc 1 568 0
 5027 0004 324C     		ldr	r4, .L441
 5028              	.LBB859:
 5029              	.LBB854:
 5030              	.LBB849:
 5031              	.LBB844:
 5032              	.LBB839:
 5033              	.LBB834:
 115:screen.c      **** 
 5034              		.loc 1 115 0
 5035 0006 0846     		mov	r0, r1
 5036              	.LBE834:
 5037              	.LBE839:
 5038              	.LBE844:
 5039              	.LBE849:
 5040              	.LBE854:
 5041              	.LBE859:
 567:screen.c      ****     screen_state = OPTION_SETTLING_SCREEN;
 5042              		.loc 1 567 0
 5043 0008 82B0     		sub	sp, sp, #8
 5044              		.cfi_def_cfa_offset 24
 5045              	.LBB860:
 5046              	.LBB855:
 5047              	.LBB850:
 5048              	.LBB845:
 5049              	.LBB840:
 5050              	.LBB835:
 115:screen.c      **** 
 5051              		.loc 1 115 0
 5052 000a 4FF4A073 		mov	r3, #320
 5053 000e F022     		movs	r2, #240
 5054              	.LBE835:
 5055              	.LBE840:
 5056              	.LBE845:
 5057              	.LBE850:
 5058              	.LBE855:
 5059              	.LBE860:
 5060              		.loc 1 568 0
 5061 0010 0625     		movs	r5, #6
 5062 0012 2560     		str	r5, [r4]
 5063              	.LVL583:
 5064              	.LBB861:
 5065              	.LBB856:
 5066              	.LBB851:
 5067              	.LBB846:
 5068              	.LBB841:
 5069              	.LBB836:
 115:screen.c      **** 
 5070              		.loc 1 115 0
 5071 0014 FFF7FEFF 		bl	setAddrWindow
 5072              	.LVL584:
 124:screen.c      ****     SS_Write(0);
 5073              		.loc 1 124 0
 5074 0018 0120     		movs	r0, #1
 5075 001a FFF7FEFF 		bl	D_C_Write
 5076              	.LVL585:
ARM GAS  C:\Users\legoc\AppData\Local\Temp\ccMAvaOS.s 			page 110


 125:screen.c      ****     // Writes color to addresses
 5077              		.loc 1 125 0
 5078 001e 0020     		movs	r0, #0
 5079 0020 FFF7FEFF 		bl	SS_Write
 5080              	.LVL586:
 5081 0024 4FF4A076 		mov	r6, #320
 5082              	.LVL587:
 5083              	.L424:
 5084              	.LBE836:
 5085              	.LBE841:
 5086              	.LBE846:
 5087              	.LBE851:
 5088              	.LBE856:
 5089              	.LBE861:
 567:screen.c      ****     screen_state = OPTION_SETTLING_SCREEN;
 5090              		.loc 1 567 0
 5091 0028 F025     		movs	r5, #240
 5092              	.LVL588:
 5093              	.L427:
 5094              	.LBB862:
 5095              	.LBB857:
 5096              	.LBB852:
 5097              	.LBB847:
 5098              	.LBB842:
 5099              	.LBB837:
 131:screen.c      ****             while(SS_Read() != 1){}
 5100              		.loc 1 131 0
 5101 002a 0020     		movs	r0, #0
 5102 002c FFF7FEFF 		bl	SPIM_WriteTxData
 5103              	.LVL589:
 5104              	.L425:
 132:screen.c      ****             SPIM_WriteTxData(lo);
 5105              		.loc 1 132 0
 5106 0030 FFF7FEFF 		bl	SS_Read
 5107              	.LVL590:
 5108 0034 0128     		cmp	r0, #1
 5109 0036 FBD1     		bne	.L425
 133:screen.c      ****             while(SS_Read() != 1){}
 5110              		.loc 1 133 0
 5111 0038 0020     		movs	r0, #0
 5112 003a FFF7FEFF 		bl	SPIM_WriteTxData
 5113              	.LVL591:
 5114              	.L426:
 134:screen.c      ****         }
 5115              		.loc 1 134 0
 5116 003e FFF7FEFF 		bl	SS_Read
 5117              	.LVL592:
 5118 0042 0128     		cmp	r0, #1
 5119 0044 0446     		mov	r4, r0
 5120 0046 FAD1     		bne	.L426
 5121 0048 013D     		subs	r5, r5, #1
 5122 004a ADB2     		uxth	r5, r5
 129:screen.c      ****         {
 5123              		.loc 1 129 0
 5124 004c 002D     		cmp	r5, #0
 5125 004e ECD1     		bne	.L427
 5126 0050 013E     		subs	r6, r6, #1
ARM GAS  C:\Users\legoc\AppData\Local\Temp\ccMAvaOS.s 			page 111


 5127 0052 B6B2     		uxth	r6, r6
 127:screen.c      ****     {
 5128              		.loc 1 127 0
 5129 0054 002E     		cmp	r6, #0
 5130 0056 E7D1     		bne	.L424
 137:screen.c      **** 
 5131              		.loc 1 137 0
 5132 0058 FFF7FEFF 		bl	SS_Write
 5133              	.LVL593:
 5134              	.LBE837:
 5135              	.LBE842:
 5136              	.LBE847:
 5137              	.LBE852:
 5138              	.LBE857:
 5139              	.LBE862:
 569:screen.c      ****     
 570:screen.c      ****     fill_screen(BLACK);
 571:screen.c      ****     
 572:screen.c      ****     draw_button(0,219,239,20,WHITE,BLACK,"SETTLING TIME OPTIONS SCREEN");
 5140              		.loc 1 572 0
 5141 005c 1D4A     		ldr	r2, .L441+4
 5142 005e 1423     		movs	r3, #20
 5143 0060 0092     		str	r2, [sp]
 5144 0062 DB21     		movs	r1, #219
 5145 0064 EF22     		movs	r2, #239
 5146 0066 3046     		mov	r0, r6
 5147 0068 FFF7FEFF 		bl	draw_button.constprop.3
 5148              	.LVL594:
 573:screen.c      ****     
 574:screen.c      ****     //Return button with boundary
 575:screen.c      ****     draw_button(241,0,79,240,WHITE,BLACK,"RETURN");
 5149              		.loc 1 575 0
 5150 006c 1A4A     		ldr	r2, .L441+8
 5151 006e F023     		movs	r3, #240
 5152 0070 0092     		str	r2, [sp]
 5153 0072 3146     		mov	r1, r6
 5154 0074 4F22     		movs	r2, #79
 5155 0076 F120     		movs	r0, #241
 5156 0078 FFF7FEFF 		bl	draw_button.constprop.3
 5157              	.LVL595:
 5158              	.LBB863:
 5159              	.LBB864:
 5160              	.LBB865:
 5161              	.LBB866:
 5162              	.LBB867:
 115:screen.c      **** 
 5163              		.loc 1 115 0
 5164 007c 0223     		movs	r3, #2
 5165 007e F022     		movs	r2, #240
 5166 0080 4F21     		movs	r1, #79
 5167 0082 3046     		mov	r0, r6
 5168 0084 FFF7FEFF 		bl	setAddrWindow
 5169              	.LVL596:
 124:screen.c      ****     SS_Write(0);
 5170              		.loc 1 124 0
 5171 0088 2046     		mov	r0, r4
 5172 008a FFF7FEFF 		bl	D_C_Write
ARM GAS  C:\Users\legoc\AppData\Local\Temp\ccMAvaOS.s 			page 112


 5173              	.LVL597:
 125:screen.c      ****     // Writes color to addresses
 5174              		.loc 1 125 0
 5175 008e 3046     		mov	r0, r6
 5176 0090 FFF7FEFF 		bl	SS_Write
 5177              	.LVL598:
 5178 0094 0225     		movs	r5, #2
 5179              	.LVL599:
 5180              	.L429:
 5181              	.LBE867:
 5182              	.LBE866:
 5183              	.LBE865:
 5184              	.LBE864:
 5185              	.LBE863:
 5186              	.LBB876:
 5187              	.LBB858:
 5188              	.LBB853:
 5189              	.LBB848:
 5190              	.LBB843:
 5191              	.LBB838:
 5192 0096 F024     		movs	r4, #240
 5193              	.LVL600:
 5194              	.L432:
 5195              	.LBE838:
 5196              	.LBE843:
 5197              	.LBE848:
 5198              	.LBE853:
 5199              	.LBE858:
 5200              	.LBE876:
 5201              	.LBB877:
 5202              	.LBB874:
 5203              	.LBB872:
 5204              	.LBB870:
 5205              	.LBB868:
 131:screen.c      ****             while(SS_Read() != 1){}
 5206              		.loc 1 131 0
 5207 0098 0020     		movs	r0, #0
 5208 009a FFF7FEFF 		bl	SPIM_WriteTxData
 5209              	.LVL601:
 5210              	.L430:
 132:screen.c      ****             SPIM_WriteTxData(lo);
 5211              		.loc 1 132 0
 5212 009e FFF7FEFF 		bl	SS_Read
 5213              	.LVL602:
 5214 00a2 0128     		cmp	r0, #1
 5215 00a4 FBD1     		bne	.L430
 133:screen.c      ****             while(SS_Read() != 1){}
 5216              		.loc 1 133 0
 5217 00a6 0020     		movs	r0, #0
 5218 00a8 FFF7FEFF 		bl	SPIM_WriteTxData
 5219              	.LVL603:
 5220              	.L431:
 134:screen.c      ****         }
 5221              		.loc 1 134 0
 5222 00ac FFF7FEFF 		bl	SS_Read
 5223              	.LVL604:
 5224 00b0 0128     		cmp	r0, #1
ARM GAS  C:\Users\legoc\AppData\Local\Temp\ccMAvaOS.s 			page 113


 5225 00b2 FBD1     		bne	.L431
 5226 00b4 013C     		subs	r4, r4, #1
 5227 00b6 A4B2     		uxth	r4, r4
 129:screen.c      ****         {
 5228              		.loc 1 129 0
 5229 00b8 002C     		cmp	r4, #0
 5230 00ba EDD1     		bne	.L432
 5231 00bc 013D     		subs	r5, r5, #1
 5232 00be ADB2     		uxth	r5, r5
 127:screen.c      ****     {
 5233              		.loc 1 127 0
 5234 00c0 002D     		cmp	r5, #0
 5235 00c2 E8D1     		bne	.L429
 5236              	.LBE868:
 5237              	.LBE870:
 5238              	.LBE872:
 5239              	.LBE874:
 5240              	.LBE877:
 576:screen.c      ****     fill_rect(239,0,2,240,BLACK);
 577:screen.c      **** }
 5241              		.loc 1 577 0
 5242 00c4 02B0     		add	sp, sp, #8
 5243              		.cfi_def_cfa_offset 16
 5244              		@ sp needed
 5245 00c6 BDE87040 		pop	{r4, r5, r6, lr}
 5246              		.cfi_restore 14
 5247              		.cfi_restore 6
 5248              		.cfi_restore 5
 5249              		.cfi_restore 4
 5250              		.cfi_def_cfa_offset 0
 5251              	.LBB878:
 5252              	.LBB875:
 5253              	.LBB873:
 5254              	.LBB871:
 5255              	.LBB869:
 137:screen.c      **** 
 5256              		.loc 1 137 0
 5257 00ca FFF7FEBF 		b	SS_Write
 5258              	.LVL605:
 5259              	.L442:
 5260 00ce 00BF     		.align	2
 5261              	.L441:
 5262 00d0 00000000 		.word	screen_state
 5263 00d4 90010000 		.word	.LC31
 5264 00d8 D8000000 		.word	.LC16
 5265              	.LBE869:
 5266              	.LBE871:
 5267              	.LBE873:
 5268              	.LBE875:
 5269              	.LBE878:
 5270              		.cfi_endproc
 5271              	.LFE21:
 5272              		.size	draw_options_settling_screen, .-draw_options_settling_screen
 5273              		.section	.text.draw_debug_screen,"ax",%progbits
 5274              		.align	2
 5275              		.global	draw_debug_screen
 5276              		.thumb
ARM GAS  C:\Users\legoc\AppData\Local\Temp\ccMAvaOS.s 			page 114


 5277              		.thumb_func
 5278              		.type	draw_debug_screen, %function
 5279              	draw_debug_screen:
 5280              	.LFB22:
 578:screen.c      **** 
 579:screen.c      **** //screen used for debugging. Feel free to change as needed, keep return button
 580:screen.c      **** void draw_debug_screen(uint16_t x, uint16_t y)
 581:screen.c      **** {
 5281              		.loc 1 581 0
 5282              		.cfi_startproc
 5283              		@ args = 0, pretend = 0, frame = 24
 5284              		@ frame_needed = 0, uses_anonymous_args = 0
 5285              	.LVL606:
 5286 0000 2DE9F041 		push	{r4, r5, r6, r7, r8, lr}
 5287              		.cfi_def_cfa_offset 24
 5288              		.cfi_offset 4, -24
 5289              		.cfi_offset 5, -20
 5290              		.cfi_offset 6, -16
 5291              		.cfi_offset 7, -12
 5292              		.cfi_offset 8, -8
 5293              		.cfi_offset 14, -4
 5294 0004 0F46     		mov	r7, r1
 5295              	.LBB885:
 5296              	.LBB886:
 5297              	.LBB887:
 5298              	.LBB888:
 5299              	.LBB889:
 5300              	.LBB890:
 115:screen.c      **** 
 5301              		.loc 1 115 0
 5302 0006 0021     		movs	r1, #0
 5303              	.LVL607:
 5304              	.LBE890:
 5305              	.LBE889:
 5306              	.LBE888:
 5307              	.LBE887:
 5308              	.LBE886:
 5309              	.LBE885:
 5310              		.loc 1 581 0
 5311 0008 88B0     		sub	sp, sp, #32
 5312              		.cfi_def_cfa_offset 56
 5313              	.LBB906:
 5314              	.LBB903:
 5315              	.LBB900:
 5316              	.LBB897:
 5317              	.LBB894:
 5318              	.LBB891:
 115:screen.c      **** 
 5319              		.loc 1 115 0
 5320 000a 4FF4A073 		mov	r3, #320
 5321 000e F022     		movs	r2, #240
 5322              	.LBE891:
 5323              	.LBE894:
 5324              	.LBE897:
 5325              	.LBE900:
 5326              	.LBE903:
 5327              	.LBE906:
ARM GAS  C:\Users\legoc\AppData\Local\Temp\ccMAvaOS.s 			page 115


 5328              		.loc 1 581 0
 5329 0010 8046     		mov	r8, r0
 5330              	.LBB907:
 5331              	.LBB904:
 5332              	.LBB901:
 5333              	.LBB898:
 5334              	.LBB895:
 5335              	.LBB892:
 115:screen.c      **** 
 5336              		.loc 1 115 0
 5337 0012 0846     		mov	r0, r1
 5338              	.LVL608:
 5339 0014 FFF7FEFF 		bl	setAddrWindow
 5340              	.LVL609:
 124:screen.c      ****     SS_Write(0);
 5341              		.loc 1 124 0
 5342 0018 0120     		movs	r0, #1
 5343 001a FFF7FEFF 		bl	D_C_Write
 5344              	.LVL610:
 125:screen.c      ****     // Writes color to addresses
 5345              		.loc 1 125 0
 5346 001e 0020     		movs	r0, #0
 5347 0020 FFF7FEFF 		bl	SS_Write
 5348              	.LVL611:
 5349 0024 4FF4A076 		mov	r6, #320
 5350              	.LVL612:
 5351              	.L444:
 5352              	.LBE892:
 5353              	.LBE895:
 5354              	.LBE898:
 5355              	.LBE901:
 5356              	.LBE904:
 5357              	.LBE907:
 5358              		.loc 1 581 0
 5359 0028 F025     		movs	r5, #240
 5360              	.LVL613:
 5361              	.L447:
 5362              	.LBB908:
 5363              	.LBB905:
 5364              	.LBB902:
 5365              	.LBB899:
 5366              	.LBB896:
 5367              	.LBB893:
 131:screen.c      ****             while(SS_Read() != 1){}
 5368              		.loc 1 131 0
 5369 002a 0020     		movs	r0, #0
 5370 002c FFF7FEFF 		bl	SPIM_WriteTxData
 5371              	.LVL614:
 5372              	.L445:
 132:screen.c      ****             SPIM_WriteTxData(lo);
 5373              		.loc 1 132 0
 5374 0030 FFF7FEFF 		bl	SS_Read
 5375              	.LVL615:
 5376 0034 0128     		cmp	r0, #1
 5377 0036 FBD1     		bne	.L445
 133:screen.c      ****             while(SS_Read() != 1){}
 5378              		.loc 1 133 0
ARM GAS  C:\Users\legoc\AppData\Local\Temp\ccMAvaOS.s 			page 116


 5379 0038 0020     		movs	r0, #0
 5380 003a FFF7FEFF 		bl	SPIM_WriteTxData
 5381              	.LVL616:
 5382              	.L446:
 134:screen.c      ****         }
 5383              		.loc 1 134 0
 5384 003e FFF7FEFF 		bl	SS_Read
 5385              	.LVL617:
 5386 0042 0128     		cmp	r0, #1
 5387 0044 0446     		mov	r4, r0
 5388 0046 FAD1     		bne	.L446
 5389 0048 013D     		subs	r5, r5, #1
 5390 004a ADB2     		uxth	r5, r5
 129:screen.c      ****         {
 5391              		.loc 1 129 0
 5392 004c 002D     		cmp	r5, #0
 5393 004e ECD1     		bne	.L447
 5394 0050 013E     		subs	r6, r6, #1
 5395 0052 B6B2     		uxth	r6, r6
 127:screen.c      ****     {
 5396              		.loc 1 127 0
 5397 0054 002E     		cmp	r6, #0
 5398 0056 E7D1     		bne	.L444
 137:screen.c      **** 
 5399              		.loc 1 137 0
 5400 0058 FFF7FEFF 		bl	SS_Write
 5401              	.LVL618:
 5402              	.LBE893:
 5403              	.LBE896:
 5404              	.LBE899:
 5405              	.LBE902:
 5406              	.LBE905:
 5407              	.LBE908:
 582:screen.c      ****     fill_screen(BLACK);
 583:screen.c      ****     
 584:screen.c      ****     screen_state = DEBUG_SCREEN;
 5408              		.loc 1 584 0
 5409 005c 204B     		ldr	r3, .L453
 5410 005e 0722     		movs	r2, #7
 5411 0060 1A60     		str	r2, [r3]
 585:screen.c      ****     
 586:screen.c      ****     char x_touch[10];
 587:screen.c      ****     char y_touch[10];
 588:screen.c      **** 
 589:screen.c      ****     itoa(x, x_touch, 10);
 5412              		.loc 1 589 0
 5413 0062 02A9     		add	r1, sp, #8
 5414 0064 4046     		mov	r0, r8
 5415 0066 0A22     		movs	r2, #10
 5416 0068 FFF7FEFF 		bl	itoa
 5417              	.LVL619:
 590:screen.c      ****     itoa(y, y_touch, 10);
 5418              		.loc 1 590 0
 5419 006c 05A9     		add	r1, sp, #20
 5420 006e 3846     		mov	r0, r7
 5421 0070 0A22     		movs	r2, #10
 5422 0072 FFF7FEFF 		bl	itoa
ARM GAS  C:\Users\legoc\AppData\Local\Temp\ccMAvaOS.s 			page 117


 5423              	.LVL620:
 591:screen.c      ****     
 592:screen.c      ****     draw_string(100,110,WHITE,x_touch,1);
 5424              		.loc 1 592 0
 5425 0076 02AB     		add	r3, sp, #8
 5426 0078 0094     		str	r4, [sp]
 5427 007a 4FF6FF72 		movw	r2, #65535
 5428 007e 6E21     		movs	r1, #110
 5429 0080 6420     		movs	r0, #100
 5430 0082 FFF7FEFF 		bl	draw_string
 5431              	.LVL621:
 593:screen.c      ****     draw_string(100,100,WHITE,y_touch,1);
 5432              		.loc 1 593 0
 5433 0086 6421     		movs	r1, #100
 5434 0088 05AB     		add	r3, sp, #20
 5435 008a 0094     		str	r4, [sp]
 5436 008c 0846     		mov	r0, r1
 5437 008e 4FF6FF72 		movw	r2, #65535
 5438 0092 FFF7FEFF 		bl	draw_string
 5439              	.LVL622:
 594:screen.c      ****     
 595:screen.c      ****     draw_string(100,200,WHITE,"TOUCH COORDINATES",1);
 5440              		.loc 1 595 0
 5441 0096 0094     		str	r4, [sp]
 5442 0098 124B     		ldr	r3, .L453+4
 5443 009a 4FF6FF72 		movw	r2, #65535
 5444 009e C821     		movs	r1, #200
 5445 00a0 6420     		movs	r0, #100
 5446 00a2 FFF7FEFF 		bl	draw_string
 5447              	.LVL623:
 596:screen.c      ****     
 597:screen.c      ****     draw_string(50,150,WHITE,"TEST",6);
 5448              		.loc 1 597 0
 5449 00a6 0623     		movs	r3, #6
 5450 00a8 0093     		str	r3, [sp]
 5451 00aa 4FF6FF72 		movw	r2, #65535
 5452 00ae 0E4B     		ldr	r3, .L453+8
 5453 00b0 9621     		movs	r1, #150
 5454 00b2 3220     		movs	r0, #50
 5455 00b4 FFF7FEFF 		bl	draw_string
 5456              	.LVL624:
 598:screen.c      ****     
 599:screen.c      ****     draw_button(150,40,119,70,WHITE,BLACK,"SETTLING TIME OPTIONS");
 5457              		.loc 1 599 0
 5458 00b8 0C4A     		ldr	r2, .L453+12
 5459 00ba 4623     		movs	r3, #70
 5460 00bc 0092     		str	r2, [sp]
 5461 00be 2821     		movs	r1, #40
 5462 00c0 7722     		movs	r2, #119
 5463 00c2 9620     		movs	r0, #150
 5464 00c4 FFF7FEFF 		bl	draw_button.constprop.3
 5465              	.LVL625:
 600:screen.c      ****     
 601:screen.c      ****     //return button
 602:screen.c      ****     draw_button(0,0,50,30,WHITE,BLACK,"RETURN");
 5466              		.loc 1 602 0
 5467 00c8 094A     		ldr	r2, .L453+16
ARM GAS  C:\Users\legoc\AppData\Local\Temp\ccMAvaOS.s 			page 118


 5468 00ca 1E23     		movs	r3, #30
 5469 00cc 0092     		str	r2, [sp]
 5470 00ce 3146     		mov	r1, r6
 5471 00d0 3222     		movs	r2, #50
 5472 00d2 3046     		mov	r0, r6
 5473 00d4 FFF7FEFF 		bl	draw_button.constprop.3
 5474              	.LVL626:
 603:screen.c      **** }...
 5475              		.loc 1 603 0
 5476 00d8 08B0     		add	sp, sp, #32
 5477              		.cfi_def_cfa_offset 24
 5478              		@ sp needed
 5479 00da BDE8F081 		pop	{r4, r5, r6, r7, r8, pc}
 5480              	.L454:
 5481 00de 00BF     		.align	2
 5482              	.L453:
 5483 00e0 00000000 		.word	screen_state
 5484 00e4 B0010000 		.word	.LC32
 5485 00e8 C4010000 		.word	.LC33
 5486 00ec B4000000 		.word	.LC15
 5487 00f0 D8000000 		.word	.LC16
 5488              		.cfi_endproc
 5489              	.LFE22:
 5490              		.size	draw_debug_screen, .-draw_debug_screen
 5491              		.section	.rodata
 5492              		.align	2
 5493              		.set	.LANCHOR0,. + 0
 5494              		.type	initcmd, %object
 5495              		.size	initcmd, 111
 5496              	initcmd:
 5497 0000 EF       		.byte	-17
 5498 0001 03       		.byte	3
 5499 0002 03       		.byte	3
 5500 0003 80       		.byte	-128
 5501 0004 02       		.byte	2
 5502 0005 CF       		.byte	-49
 5503 0006 03       		.byte	3
 5504 0007 00       		.byte	0
 5505 0008 C1       		.byte	-63
 5506 0009 30       		.byte	48
 5507 000a ED       		.byte	-19
 5508 000b 04       		.byte	4
 5509 000c 64       		.byte	100
 5510 000d 03       		.byte	3
 5511 000e 12       		.byte	18
 5512 000f 81       		.byte	-127
 5513 0010 E8       		.byte	-24
 5514 0011 03       		.byte	3
 5515 0012 85       		.byte	-123
 5516 0013 00       		.byte	0
 5517 0014 78       		.byte	120
 5518 0015 CB       		.byte	-53
 5519 0016 05       		.byte	5
 5520 0017 39       		.byte	57
 5521 0018 2C       		.byte	44
 5522 0019 00       		.byte	0
 5523 001a 34       		.byte	52
ARM GAS  C:\Users\legoc\AppData\Local\Temp\ccMAvaOS.s 			page 119


 5524 001b 02       		.byte	2
 5525 001c F7       		.byte	-9
 5526 001d 01       		.byte	1
 5527 001e 20       		.byte	32
 5528 001f EA       		.byte	-22
 5529 0020 02       		.byte	2
 5530 0021 00       		.byte	0
 5531 0022 00       		.byte	0
 5532 0023 C0       		.byte	-64
 5533 0024 01       		.byte	1
 5534 0025 23       		.byte	35
 5535 0026 C1       		.byte	-63
 5536 0027 01       		.byte	1
 5537 0028 10       		.byte	16
 5538 0029 C5       		.byte	-59
 5539 002a 02       		.byte	2
 5540 002b 3E       		.byte	62
 5541 002c 28       		.byte	40
 5542 002d C7       		.byte	-57
 5543 002e 01       		.byte	1
 5544 002f 86       		.byte	-122
 5545 0030 36       		.byte	54
 5546 0031 01       		.byte	1
 5547 0032 48       		.byte	72
 5548 0033 37       		.byte	55
 5549 0034 01       		.byte	1
 5550 0035 00       		.byte	0
 5551 0036 3A       		.byte	58
 5552 0037 01       		.byte	1
 5553 0038 55       		.byte	85
 5554 0039 B1       		.byte	-79
 5555 003a 02       		.byte	2
 5556 003b 00       		.byte	0
 5557 003c 18       		.byte	24
 5558 003d B6       		.byte	-74
 5559 003e 03       		.byte	3
 5560 003f 08       		.byte	8
 5561 0040 82       		.byte	-126
 5562 0041 27       		.byte	39
 5563 0042 F2       		.byte	-14
 5564 0043 01       		.byte	1
 5565 0044 00       		.byte	0
 5566 0045 26       		.byte	38
 5567 0046 01       		.byte	1
 5568 0047 01       		.byte	1
 5569 0048 E0       		.byte	-32
 5570 0049 0F       		.byte	15
 5571 004a 0F       		.byte	15
 5572 004b 31       		.byte	49
 5573 004c 2B       		.byte	43
 5574 004d 0C       		.byte	12
 5575 004e 0E       		.byte	14
 5576 004f 08       		.byte	8
 5577 0050 4E       		.byte	78
 5578 0051 F1       		.byte	-15
 5579 0052 37       		.byte	55
 5580 0053 07       		.byte	7
ARM GAS  C:\Users\legoc\AppData\Local\Temp\ccMAvaOS.s 			page 120


 5581 0054 10       		.byte	16
 5582 0055 03       		.byte	3
 5583 0056 0E       		.byte	14
 5584 0057 09       		.byte	9
 5585 0058 00       		.byte	0
 5586 0059 E1       		.byte	-31
 5587 005a 0F       		.byte	15
 5588 005b 00       		.byte	0
 5589 005c 0E       		.byte	14
 5590 005d 14       		.byte	20
 5591 005e 03       		.byte	3
 5592 005f 11       		.byte	17
 5593 0060 07       		.byte	7
 5594 0061 31       		.byte	49
 5595 0062 C1       		.byte	-63
 5596 0063 48       		.byte	72
 5597 0064 08       		.byte	8
 5598 0065 0F       		.byte	15
 5599 0066 0C       		.byte	12
 5600 0067 31       		.byte	49
 5601 0068 36       		.byte	54
 5602 0069 0F       		.byte	15
 5603 006a 11       		.byte	17
 5604 006b 80       		.byte	-128
 5605 006c 29       		.byte	41
 5606 006d 80       		.byte	-128
 5607 006e 00       		.byte	0
 5608              		.section	.rodata.str1.4,"aMS",%progbits,1
 5609              		.align	2
 5610              	.LC0:
 5611 0000 56445320 		.ascii	"VDS V\000"
 5611      5600
 5612 0006 0000     		.space	2
 5613              	.LC1:
 5614 0008 4944204D 		.ascii	"ID MIL A\000"
 5614      494C2041 
 5614      00
 5615 0011 000000   		.space	3
 5616              	.LC2:
 5617 0014 56434520 		.ascii	"VCE V\000"
 5617      5600
 5618 001a 0000     		.space	2
 5619              	.LC3:
 5620 001c 4943204D 		.ascii	"IC MIL A\000"
 5620      494C2041 
 5620      00
 5621 0025 000000   		.space	3
 5622              	.LC4:
 5623 0028 256400   		.ascii	"%d\000"
 5624 002b 00       		.space	1
 5625              	.LC6:
 5626 002c 256900   		.ascii	"%i\000"
 5627 002f 00       		.space	1
 5628              	.LC5:
 5629 0030 53544F50 		.ascii	"STOP\000"
 5629      00
 5630 0035 000000   		.space	3
ARM GAS  C:\Users\legoc\AppData\Local\Temp\ccMAvaOS.s 			page 121


 5631              	.LC7:
 5632 0038 43484F4F 		.ascii	"CHOOSE A SEMICONDUCTOR TYPE\000"
 5632      53452041 
 5632      2053454D 
 5632      49434F4E 
 5632      44554354 
 5633              	.LC8:
 5634 0054 4E205459 		.ascii	"N TYPE FET\000"
 5634      50452046 
 5634      455400
 5635 005f 00       		.space	1
 5636              	.LC9:
 5637 0060 4E504E20 		.ascii	"NPN BJT\000"
 5637      424A5400 
 5638              	.LC10:
 5639 0068 50205459 		.ascii	"P TYPE FET\000"
 5639      50452046 
 5639      455400
 5640 0073 00       		.space	1
 5641              	.LC11:
 5642 0074 504E5020 		.ascii	"PNP BJT\000"
 5642      424A5400 
 5643              	.LC12:
 5644 007c 4E554D42 		.ascii	"NUMBER OF AVERAGES\000"
 5644      4552204F 
 5644      46204156 
 5644      45524147 
 5644      455300
 5645 008f 00       		.space	1
 5646              	.LC13:
 5647 0090 53442043 		.ascii	"SD CARD OPTIONS\000"
 5647      41524420 
 5647      4F505449 
 5647      4F4E5300 
 5648              	.LC14:
 5649 00a0 4E554D42 		.ascii	"NUMBER OF CURVES\000"
 5649      4552204F 
 5649      46204355 
 5649      52564553 
 5649      00
 5650 00b1 000000   		.space	3
 5651              	.LC15:
 5652 00b4 53455454 		.ascii	"SETTLING TIME OPTIONS\000"
 5652      4C494E47 
 5652      2054494D 
 5652      45204F50 
 5652      54494F4E 
 5653 00ca 0000     		.space	2
 5654              	.LC17:
 5655 00cc 52554E20 		.ascii	"RUN TEST\000"
 5655      54455354 
 5655      00
 5656 00d5 000000   		.space	3
 5657              	.LC16:
 5658 00d8 52455455 		.ascii	"RETURN\000"
 5658      524E00
 5659 00df 00       		.space	1
ARM GAS  C:\Users\legoc\AppData\Local\Temp\ccMAvaOS.s 			page 122


 5660              	.LC18:
 5661 00e0 4E554D42 		.ascii	"NUMBER OF AVERAGES TO TAKE\000"
 5661      4552204F 
 5661      46204156 
 5661      45524147 
 5661      45532054 
 5662 00fb 00       		.space	1
 5663              	.LC19:
 5664 00fc 504C5553 		.ascii	"PLUS 1\000"
 5664      203100
 5665 0103 00       		.space	1
 5666              	.LC20:
 5667 0104 504C5553 		.ascii	"PLUS 10\000"
 5667      20313000 
 5668              	.LC21:
 5669 010c 504C5553 		.ascii	"PLUS 100\000"
 5669      20313030 
 5669      00
 5670 0115 000000   		.space	3
 5671              	.LC22:
 5672 0118 4D494E55 		.ascii	"MINUS 1\000"
 5672      53203100 
 5673              	.LC23:
 5674 0120 4D494E55 		.ascii	"MINUS 10\000"
 5674      53203130 
 5674      00
 5675 0129 000000   		.space	3
 5676              	.LC24:
 5677 012c 4D494E55 		.ascii	"MINUS 100\000"
 5677      53203130 
 5677      3000
 5678 0136 0000     		.space	2
 5679              	.LC26:
 5680 0138 59455300 		.ascii	"YES\000"
 5681              	.LC27:
 5682 013c 4E4F00   		.ascii	"NO\000"
 5683 013f 00       		.space	1
 5684              	.LC25:
 5685 0140 57524954 		.ascii	"WRITE RESULTS TO SD CARD\000"
 5685      45205245 
 5685      53554C54 
 5685      5320544F 
 5685      20534420 
 5686 0159 000000   		.space	3
 5687              	.LC28:
 5688 015c 4E554D42 		.ascii	"NUMBER OF CURVES TO DRAW\000"
 5688      4552204F 
 5688      46204355 
 5688      52564553 
 5688      20544F20 
 5689 0175 000000   		.space	3
 5690              	.LC29:
 5691 0178 44454352 		.ascii	"DECREASE\000"
 5691      45415345 
 5691      00
 5692 0181 000000   		.space	3
 5693              	.LC30:
ARM GAS  C:\Users\legoc\AppData\Local\Temp\ccMAvaOS.s 			page 123


 5694 0184 494E4352 		.ascii	"INCREASE\000"
 5694      45415345 
 5694      00
 5695 018d 000000   		.space	3
 5696              	.LC31:
 5697 0190 53455454 		.ascii	"SETTLING TIME OPTIONS SCREEN\000"
 5697      4C494E47 
 5697      2054494D 
 5697      45204F50 
 5697      54494F4E 
 5698 01ad 000000   		.space	3
 5699              	.LC32:
 5700 01b0 544F5543 		.ascii	"TOUCH COORDINATES\000"
 5700      4820434F 
 5700      4F524449 
 5700      4E415445 
 5700      5300
 5701 01c2 0000     		.space	2
 5702              	.LC33:
 5703 01c4 54455354 		.ascii	"TEST\000"
 5703      00
 5704              		.text
 5705              	.Letext0:
 5706              		.file 2 "d:\\psoc\\psoc creator\\4.2\\psoc creator\\import\\gnu\\arm\\5.4.1\\arm-none-eabi\\includ
 5707              		.file 3 "d:\\psoc\\psoc creator\\4.2\\psoc creator\\import\\gnu\\arm\\5.4.1\\arm-none-eabi\\includ
 5708              		.file 4 "font.h"
 5709              		.file 5 "uifunctions.h"
 5710              		.file 6 "Generated_Source\\PSoC5/D_C.h"
 5711              		.file 7 "Generated_Source\\PSoC5/SPIM.h"
 5712              		.file 8 "Generated_Source\\PSoC5/SS.h"
 5713              		.file 9 "Generated_Source\\PSoC5/CyLib.h"
 5714              		.file 10 "d:\\psoc\\psoc creator\\4.2\\psoc creator\\import\\gnu\\arm\\5.4.1\\arm-none-eabi\\inclu
 5715              		.file 11 "d:\\psoc\\psoc creator\\4.2\\psoc creator\\import\\gnu\\arm\\5.4.1\\arm-none-eabi\\inclu
 5716              		.section	.debug_info,"",%progbits
 5717              	.Ldebug_info0:
 5718 0000 2D4B0000 		.4byte	0x4b2d
 5719 0004 0400     		.2byte	0x4
 5720 0006 00000000 		.4byte	.Ldebug_abbrev0
 5721 000a 04       		.byte	0x4
 5722 000b 01       		.uleb128 0x1
 5723 000c 98010000 		.4byte	.LASF128
 5724 0010 0C       		.byte	0xc
 5725 0011 5A020000 		.4byte	.LASF129
 5726 0015 1A010000 		.4byte	.LASF130
 5727 0019 38060000 		.4byte	.Ldebug_ranges0+0x638
 5728 001d 00000000 		.4byte	0
 5729 0021 00000000 		.4byte	.Ldebug_line0
 5730 0025 02       		.uleb128 0x2
 5731 0026 01       		.byte	0x1
 5732 0027 06       		.byte	0x6
 5733 0028 0E060000 		.4byte	.LASF0
 5734 002c 03       		.uleb128 0x3
 5735 002d 61050000 		.4byte	.LASF2
 5736 0031 02       		.byte	0x2
 5737 0032 1D       		.byte	0x1d
 5738 0033 37000000 		.4byte	0x37
 5739 0037 02       		.uleb128 0x2
ARM GAS  C:\Users\legoc\AppData\Local\Temp\ccMAvaOS.s 			page 124


 5740 0038 01       		.byte	0x1
 5741 0039 08       		.byte	0x8
 5742 003a AA050000 		.4byte	.LASF1
 5743 003e 03       		.uleb128 0x3
 5744 003f 14040000 		.4byte	.LASF3
 5745 0043 02       		.byte	0x2
 5746 0044 29       		.byte	0x29
 5747 0045 49000000 		.4byte	0x49
 5748 0049 02       		.uleb128 0x2
 5749 004a 02       		.byte	0x2
 5750 004b 05       		.byte	0x5
 5751 004c 03050000 		.4byte	.LASF4
 5752 0050 03       		.uleb128 0x3
 5753 0051 77020000 		.4byte	.LASF5
 5754 0055 02       		.byte	0x2
 5755 0056 2B       		.byte	0x2b
 5756 0057 5B000000 		.4byte	0x5b
 5757 005b 02       		.uleb128 0x2
 5758 005c 02       		.byte	0x2
 5759 005d 07       		.byte	0x7
 5760 005e 1A060000 		.4byte	.LASF6
 5761 0062 02       		.uleb128 0x2
 5762 0063 04       		.byte	0x4
 5763 0064 05       		.byte	0x5
 5764 0065 18050000 		.4byte	.LASF7
 5765 0069 03       		.uleb128 0x3
 5766 006a B8050000 		.4byte	.LASF8
 5767 006e 02       		.byte	0x2
 5768 006f 41       		.byte	0x41
 5769 0070 74000000 		.4byte	0x74
 5770 0074 02       		.uleb128 0x2
 5771 0075 04       		.byte	0x4
 5772 0076 07       		.byte	0x7
 5773 0077 98050000 		.4byte	.LASF9
 5774 007b 02       		.uleb128 0x2
 5775 007c 08       		.byte	0x8
 5776 007d 05       		.byte	0x5
 5777 007e E9030000 		.4byte	.LASF10
 5778 0082 02       		.uleb128 0x2
 5779 0083 08       		.byte	0x8
 5780 0084 07       		.byte	0x7
 5781 0085 3A020000 		.4byte	.LASF11
 5782 0089 04       		.uleb128 0x4
 5783 008a 04       		.byte	0x4
 5784 008b 05       		.byte	0x5
 5785 008c 696E7400 		.ascii	"int\000"
 5786 0090 02       		.uleb128 0x2
 5787 0091 04       		.byte	0x4
 5788 0092 07       		.byte	0x7
 5789 0093 46000000 		.4byte	.LASF12
 5790 0097 03       		.uleb128 0x3
 5791 0098 C9030000 		.4byte	.LASF13
 5792 009c 03       		.byte	0x3
 5793 009d 18       		.byte	0x18
 5794 009e 2C000000 		.4byte	0x2c
 5795 00a2 03       		.uleb128 0x3
 5796 00a3 32020000 		.4byte	.LASF14
ARM GAS  C:\Users\legoc\AppData\Local\Temp\ccMAvaOS.s 			page 125


 5797 00a7 03       		.byte	0x3
 5798 00a8 20       		.byte	0x20
 5799 00a9 3E000000 		.4byte	0x3e
 5800 00ad 03       		.uleb128 0x3
 5801 00ae E6040000 		.4byte	.LASF15
 5802 00b2 03       		.byte	0x3
 5803 00b3 24       		.byte	0x24
 5804 00b4 50000000 		.4byte	0x50
 5805 00b8 03       		.uleb128 0x3
 5806 00b9 E7000000 		.4byte	.LASF16
 5807 00bd 03       		.byte	0x3
 5808 00be 30       		.byte	0x30
 5809 00bf 69000000 		.4byte	0x69
 5810 00c3 02       		.uleb128 0x2
 5811 00c4 04       		.byte	0x4
 5812 00c5 04       		.byte	0x4
 5813 00c6 14010000 		.4byte	.LASF17
 5814 00ca 02       		.uleb128 0x2
 5815 00cb 08       		.byte	0x8
 5816 00cc 04       		.byte	0x4
 5817 00cd 4E060000 		.4byte	.LASF18
 5818 00d1 02       		.uleb128 0x2
 5819 00d2 01       		.byte	0x1
 5820 00d3 08       		.byte	0x8
 5821 00d4 86030000 		.4byte	.LASF19
 5822 00d8 02       		.uleb128 0x2
 5823 00d9 08       		.byte	0x8
 5824 00da 04       		.byte	0x4
 5825 00db C8040000 		.4byte	.LASF20
 5826 00df 02       		.uleb128 0x2
 5827 00e0 04       		.byte	0x4
 5828 00e1 07       		.byte	0x7
 5829 00e2 8F050000 		.4byte	.LASF21
 5830 00e6 05       		.uleb128 0x5
 5831 00e7 04       		.byte	0x4
 5832 00e8 D1000000 		.4byte	0xd1
 5833 00ec 06       		.uleb128 0x6
 5834 00ed D1000000 		.4byte	0xd1
 5835 00f1 FC000000 		.4byte	0xfc
 5836 00f5 07       		.uleb128 0x7
 5837 00f6 DF000000 		.4byte	0xdf
 5838 00fa 18       		.byte	0x18
 5839 00fb 00       		.byte	0
 5840 00fc 08       		.uleb128 0x8
 5841 00fd D4040000 		.4byte	.LASF23
 5842 0101 01       		.byte	0x1
 5843 0102 69       		.byte	0x69
 5844 0103 01       		.byte	0x1
 5845 0104 4C010000 		.4byte	0x14c
 5846 0108 09       		.uleb128 0x9
 5847 0109 7800     		.ascii	"x\000"
 5848 010b 01       		.byte	0x1
 5849 010c 69       		.byte	0x69
 5850 010d A2000000 		.4byte	0xa2
 5851 0111 09       		.uleb128 0x9
 5852 0112 7900     		.ascii	"y\000"
 5853 0114 01       		.byte	0x1
ARM GAS  C:\Users\legoc\AppData\Local\Temp\ccMAvaOS.s 			page 126


 5854 0115 69       		.byte	0x69
 5855 0116 A2000000 		.4byte	0xa2
 5856 011a 09       		.uleb128 0x9
 5857 011b 7700     		.ascii	"w\000"
 5858 011d 01       		.byte	0x1
 5859 011e 69       		.byte	0x69
 5860 011f A2000000 		.4byte	0xa2
 5861 0123 09       		.uleb128 0x9
 5862 0124 6800     		.ascii	"h\000"
 5863 0126 01       		.byte	0x1
 5864 0127 69       		.byte	0x69
 5865 0128 A2000000 		.4byte	0xa2
 5866 012c 0A       		.uleb128 0xa
 5867 012d 5B050000 		.4byte	.LASF22
 5868 0131 01       		.byte	0x1
 5869 0132 6A       		.byte	0x6a
 5870 0133 AD000000 		.4byte	0xad
 5871 0137 0B       		.uleb128 0xb
 5872 0138 686900   		.ascii	"hi\000"
 5873 013b 01       		.byte	0x1
 5874 013c 76       		.byte	0x76
 5875 013d 97000000 		.4byte	0x97
 5876 0141 0B       		.uleb128 0xb
 5877 0142 6C6F00   		.ascii	"lo\000"
 5878 0145 01       		.byte	0x1
 5879 0146 76       		.byte	0x76
 5880 0147 97000000 		.4byte	0x97
 5881 014b 00       		.byte	0
 5882 014c 08       		.uleb128 0x8
 5883 014d D8020000 		.4byte	.LASF24
 5884 0151 01       		.byte	0x1
 5885 0152 92       		.byte	0x92
 5886 0153 01       		.byte	0x1
 5887 0154 88010000 		.4byte	0x188
 5888 0158 09       		.uleb128 0x9
 5889 0159 7800     		.ascii	"x\000"
 5890 015b 01       		.byte	0x1
 5891 015c 92       		.byte	0x92
 5892 015d A2000000 		.4byte	0xa2
 5893 0161 09       		.uleb128 0x9
 5894 0162 7900     		.ascii	"y\000"
 5895 0164 01       		.byte	0x1
 5896 0165 92       		.byte	0x92
 5897 0166 A2000000 		.4byte	0xa2
 5898 016a 09       		.uleb128 0x9
 5899 016b 7700     		.ascii	"w\000"
 5900 016d 01       		.byte	0x1
 5901 016e 92       		.byte	0x92
 5902 016f A2000000 		.4byte	0xa2
 5903 0173 09       		.uleb128 0x9
 5904 0174 6800     		.ascii	"h\000"
 5905 0176 01       		.byte	0x1
 5906 0177 92       		.byte	0x92
 5907 0178 A2000000 		.4byte	0xa2
 5908 017c 0A       		.uleb128 0xa
 5909 017d 5B050000 		.4byte	.LASF22
 5910 0181 01       		.byte	0x1
ARM GAS  C:\Users\legoc\AppData\Local\Temp\ccMAvaOS.s 			page 127


 5911 0182 93       		.byte	0x93
 5912 0183 AD000000 		.4byte	0xad
 5913 0187 00       		.byte	0
 5914 0188 08       		.uleb128 0x8
 5915 0189 B5040000 		.4byte	.LASF25
 5916 018d 01       		.byte	0x1
 5917 018e B2       		.byte	0xb2
 5918 018f 01       		.byte	0x1
 5919 0190 B2010000 		.4byte	0x1b2
 5920 0194 09       		.uleb128 0x9
 5921 0195 7800     		.ascii	"x\000"
 5922 0197 01       		.byte	0x1
 5923 0198 B2       		.byte	0xb2
 5924 0199 A2000000 		.4byte	0xa2
 5925 019d 09       		.uleb128 0x9
 5926 019e 7900     		.ascii	"y\000"
 5927 01a0 01       		.byte	0x1
 5928 01a1 B2       		.byte	0xb2
 5929 01a2 A2000000 		.4byte	0xa2
 5930 01a6 0A       		.uleb128 0xa
 5931 01a7 5B050000 		.4byte	.LASF22
 5932 01ab 01       		.byte	0x1
 5933 01ac B2       		.byte	0xb2
 5934 01ad AD000000 		.4byte	0xad
 5935 01b1 00       		.byte	0
 5936 01b2 08       		.uleb128 0x8
 5937 01b3 0D050000 		.4byte	.LASF26
 5938 01b7 01       		.byte	0x1
 5939 01b8 CD       		.byte	0xcd
 5940 01b9 01       		.byte	0x1
 5941 01ba DC010000 		.4byte	0x1dc
 5942 01be 09       		.uleb128 0x9
 5943 01bf 7800     		.ascii	"x\000"
 5944 01c1 01       		.byte	0x1
 5945 01c2 CD       		.byte	0xcd
 5946 01c3 A2000000 		.4byte	0xa2
 5947 01c7 09       		.uleb128 0x9
 5948 01c8 7900     		.ascii	"y\000"
 5949 01ca 01       		.byte	0x1
 5950 01cb CD       		.byte	0xcd
 5951 01cc A2000000 		.4byte	0xa2
 5952 01d0 0A       		.uleb128 0xa
 5953 01d1 5B050000 		.4byte	.LASF22
 5954 01d5 01       		.byte	0x1
 5955 01d6 CD       		.byte	0xcd
 5956 01d7 AD000000 		.4byte	0xad
 5957 01db 00       		.byte	0
 5958 01dc 0C       		.uleb128 0xc
 5959 01dd 3E050000 		.4byte	.LASF27
 5960 01e1 01       		.byte	0x1
 5961 01e2 0C01     		.2byte	0x10c
 5962 01e4 01       		.byte	0x1
 5963 01e5 14020000 		.4byte	0x214
 5964 01e9 0D       		.uleb128 0xd
 5965 01ea 7800     		.ascii	"x\000"
 5966 01ec 01       		.byte	0x1
 5967 01ed 0C01     		.2byte	0x10c
ARM GAS  C:\Users\legoc\AppData\Local\Temp\ccMAvaOS.s 			page 128


 5968 01ef A2000000 		.4byte	0xa2
 5969 01f3 0D       		.uleb128 0xd
 5970 01f4 7900     		.ascii	"y\000"
 5971 01f6 01       		.byte	0x1
 5972 01f7 0C01     		.2byte	0x10c
 5973 01f9 A2000000 		.4byte	0xa2
 5974 01fd 0D       		.uleb128 0xd
 5975 01fe 6800     		.ascii	"h\000"
 5976 0200 01       		.byte	0x1
 5977 0201 0D01     		.2byte	0x10d
 5978 0203 A2000000 		.4byte	0xa2
 5979 0207 0E       		.uleb128 0xe
 5980 0208 5B050000 		.4byte	.LASF22
 5981 020c 01       		.byte	0x1
 5982 020d 0D01     		.2byte	0x10d
 5983 020f AD000000 		.4byte	0xad
 5984 0213 00       		.byte	0
 5985 0214 0C       		.uleb128 0xc
 5986 0215 92040000 		.4byte	.LASF28
 5987 0219 01       		.byte	0x1
 5988 021a 0401     		.2byte	0x104
 5989 021c 01       		.byte	0x1
 5990 021d 4C020000 		.4byte	0x24c
 5991 0221 0D       		.uleb128 0xd
 5992 0222 7800     		.ascii	"x\000"
 5993 0224 01       		.byte	0x1
 5994 0225 0401     		.2byte	0x104
 5995 0227 A2000000 		.4byte	0xa2
 5996 022b 0D       		.uleb128 0xd
 5997 022c 7900     		.ascii	"y\000"
 5998 022e 01       		.byte	0x1
 5999 022f 0401     		.2byte	0x104
 6000 0231 A2000000 		.4byte	0xa2
 6001 0235 0D       		.uleb128 0xd
 6002 0236 7700     		.ascii	"w\000"
 6003 0238 01       		.byte	0x1
 6004 0239 0501     		.2byte	0x105
 6005 023b A2000000 		.4byte	0xa2
 6006 023f 0E       		.uleb128 0xe
 6007 0240 5B050000 		.4byte	.LASF22
 6008 0244 01       		.byte	0x1
 6009 0245 0501     		.2byte	0x105
 6010 0247 AD000000 		.4byte	0xad
 6011 024b 00       		.byte	0
 6012 024c 0C       		.uleb128 0xc
 6013 024d D1030000 		.4byte	.LASF29
 6014 0251 01       		.byte	0x1
 6015 0252 1401     		.2byte	0x114
 6016 0254 01       		.byte	0x1
 6017 0255 AE020000 		.4byte	0x2ae
 6018 0259 0D       		.uleb128 0xd
 6019 025a 783000   		.ascii	"x0\000"
 6020 025d 01       		.byte	0x1
 6021 025e 1401     		.2byte	0x114
 6022 0260 A2000000 		.4byte	0xa2
 6023 0264 0D       		.uleb128 0xd
 6024 0265 793000   		.ascii	"y0\000"
ARM GAS  C:\Users\legoc\AppData\Local\Temp\ccMAvaOS.s 			page 129


 6025 0268 01       		.byte	0x1
 6026 0269 1401     		.2byte	0x114
 6027 026b A2000000 		.4byte	0xa2
 6028 026f 0D       		.uleb128 0xd
 6029 0270 783100   		.ascii	"x1\000"
 6030 0273 01       		.byte	0x1
 6031 0274 1401     		.2byte	0x114
 6032 0276 A2000000 		.4byte	0xa2
 6033 027a 0D       		.uleb128 0xd
 6034 027b 793100   		.ascii	"y1\000"
 6035 027e 01       		.byte	0x1
 6036 027f 1401     		.2byte	0x114
 6037 0281 A2000000 		.4byte	0xa2
 6038 0285 0E       		.uleb128 0xe
 6039 0286 5B050000 		.4byte	.LASF22
 6040 028a 01       		.byte	0x1
 6041 028b 1501     		.2byte	0x115
 6042 028d AD000000 		.4byte	0xad
 6043 0291 0F       		.uleb128 0xf
 6044 0292 A1020000 		.4byte	0x2a1
 6045 0296 10       		.uleb128 0x10
 6046 0297 7400     		.ascii	"t\000"
 6047 0299 01       		.byte	0x1
 6048 029a 1A01     		.2byte	0x11a
 6049 029c A2000000 		.4byte	0xa2
 6050 02a0 00       		.byte	0
 6051 02a1 11       		.uleb128 0x11
 6052 02a2 10       		.uleb128 0x10
 6053 02a3 7400     		.ascii	"t\000"
 6054 02a5 01       		.byte	0x1
 6055 02a6 2001     		.2byte	0x120
 6056 02a8 A2000000 		.4byte	0xa2
 6057 02ac 00       		.byte	0
 6058 02ad 00       		.byte	0
 6059 02ae 08       		.uleb128 0x8
 6060 02af E7050000 		.4byte	.LASF30
 6061 02b3 01       		.byte	0x1
 6062 02b4 99       		.byte	0x99
 6063 02b5 01       		.byte	0x1
 6064 02b6 C6020000 		.4byte	0x2c6
 6065 02ba 0A       		.uleb128 0xa
 6066 02bb 5B050000 		.4byte	.LASF22
 6067 02bf 01       		.byte	0x1
 6068 02c0 99       		.byte	0x99
 6069 02c1 AD000000 		.4byte	0xad
 6070 02c5 00       		.byte	0
 6071 02c6 0C       		.uleb128 0xc
 6072 02c7 B0030000 		.4byte	.LASF31
 6073 02cb 01       		.byte	0x1
 6074 02cc 2901     		.2byte	0x129
 6075 02ce 01       		.byte	0x1
 6076 02cf 08040000 		.4byte	0x408
 6077 02d3 0D       		.uleb128 0xd
 6078 02d4 7800     		.ascii	"x\000"
 6079 02d6 01       		.byte	0x1
 6080 02d7 2901     		.2byte	0x129
 6081 02d9 A2000000 		.4byte	0xa2
ARM GAS  C:\Users\legoc\AppData\Local\Temp\ccMAvaOS.s 			page 130


 6082 02dd 0D       		.uleb128 0xd
 6083 02de 7900     		.ascii	"y\000"
 6084 02e0 01       		.byte	0x1
 6085 02e1 2901     		.2byte	0x129
 6086 02e3 A2000000 		.4byte	0xa2
 6087 02e7 0D       		.uleb128 0xd
 6088 02e8 7700     		.ascii	"w\000"
 6089 02ea 01       		.byte	0x1
 6090 02eb 2901     		.2byte	0x129
 6091 02ed A2000000 		.4byte	0xa2
 6092 02f1 0D       		.uleb128 0xd
 6093 02f2 6800     		.ascii	"h\000"
 6094 02f4 01       		.byte	0x1
 6095 02f5 2901     		.2byte	0x129
 6096 02f7 A2000000 		.4byte	0xa2
 6097 02fb 0E       		.uleb128 0xe
 6098 02fc 39000000 		.4byte	.LASF32
 6099 0300 01       		.byte	0x1
 6100 0301 2A01     		.2byte	0x12a
 6101 0303 AD000000 		.4byte	0xad
 6102 0307 0E       		.uleb128 0xe
 6103 0308 09010000 		.4byte	.LASF33
 6104 030c 01       		.byte	0x1
 6105 030d 2A01     		.2byte	0x12a
 6106 030f AD000000 		.4byte	0xad
 6107 0313 0E       		.uleb128 0xe
 6108 0314 A9030000 		.4byte	.LASF34
 6109 0318 01       		.byte	0x1
 6110 0319 2A01     		.2byte	0x12a
 6111 031b E6000000 		.4byte	0xe6
 6112 031f 12       		.uleb128 0x12
 6113 0320 1D000000 		.4byte	.LASF35
 6114 0324 01       		.byte	0x1
 6115 0325 3001     		.2byte	0x130
 6116 0327 89000000 		.4byte	0x89
 6117 032b 12       		.uleb128 0x12
 6118 032c 2B000000 		.4byte	.LASF36
 6119 0330 01       		.byte	0x1
 6120 0331 3101     		.2byte	0x131
 6121 0333 89000000 		.4byte	0x89
 6122 0337 12       		.uleb128 0x12
 6123 0338 67000000 		.4byte	.LASF37
 6124 033c 01       		.byte	0x1
 6125 033d 3201     		.2byte	0x132
 6126 033f 89000000 		.4byte	0x89
 6127 0343 12       		.uleb128 0x12
 6128 0344 DC000000 		.4byte	.LASF38
 6129 0348 01       		.byte	0x1
 6130 0349 3B01     		.2byte	0x13b
 6131 034b 08040000 		.4byte	0x408
 6132 034f 0F       		.uleb128 0xf
 6133 0350 5F030000 		.4byte	0x35f
 6134 0354 10       		.uleb128 0x10
 6135 0355 6900     		.ascii	"i\000"
 6136 0357 01       		.byte	0x1
 6137 0358 4001     		.2byte	0x140
 6138 035a 89000000 		.4byte	0x89
ARM GAS  C:\Users\legoc\AppData\Local\Temp\ccMAvaOS.s 			page 131


 6139 035e 00       		.byte	0
 6140 035f 0F       		.uleb128 0xf
 6141 0360 81030000 		.4byte	0x381
 6142 0364 12       		.uleb128 0x12
 6143 0365 5B000000 		.4byte	.LASF39
 6144 0369 01       		.byte	0x1
 6145 036a 4C01     		.2byte	0x14c
 6146 036c 89000000 		.4byte	0x89
 6147 0370 13       		.uleb128 0x13
 6148 0371 8B030000 		.4byte	.LASF47
 6149 0375 01       		.byte	0x1
 6150 0376 4F01     		.2byte	0x14f
 6151 0378 89000000 		.4byte	0x89
 6152 037c 00       		.byte	0
 6153 037d 14       		.uleb128 0x14
 6154 037e 14       		.uleb128 0x14
 6155 037f 00       		.byte	0
 6156 0380 00       		.byte	0
 6157 0381 11       		.uleb128 0x11
 6158 0382 12       		.uleb128 0x12
 6159 0383 7B040000 		.4byte	.LASF40
 6160 0387 01       		.byte	0x1
 6161 0388 5301     		.2byte	0x153
 6162 038a 89000000 		.4byte	0x89
 6163 038e 12       		.uleb128 0x12
 6164 038f 8F000000 		.4byte	.LASF41
 6165 0393 01       		.byte	0x1
 6166 0394 5A01     		.2byte	0x15a
 6167 0396 17040000 		.4byte	0x417
 6168 039a 12       		.uleb128 0x12
 6169 039b 9C000000 		.4byte	.LASF42
 6170 039f 01       		.byte	0x1
 6171 03a0 5B01     		.2byte	0x15b
 6172 03a2 26040000 		.4byte	0x426
 6173 03a6 12       		.uleb128 0x12
 6174 03a7 F3050000 		.4byte	.LASF43
 6175 03ab 01       		.byte	0x1
 6176 03ac 6901     		.2byte	0x169
 6177 03ae 89000000 		.4byte	0x89
 6178 03b2 12       		.uleb128 0x12
 6179 03b3 63020000 		.4byte	.LASF44
 6180 03b7 01       		.byte	0x1
 6181 03b8 6A01     		.2byte	0x16a
 6182 03ba 89000000 		.4byte	0x89
 6183 03be 12       		.uleb128 0x12
 6184 03bf 73050000 		.4byte	.LASF45
 6185 03c3 01       		.byte	0x1
 6186 03c4 6D01     		.2byte	0x16d
 6187 03c6 89000000 		.4byte	0x89
 6188 03ca 12       		.uleb128 0x12
 6189 03cb 81050000 		.4byte	.LASF46
 6190 03cf 01       		.byte	0x1
 6191 03d0 6E01     		.2byte	0x16e
 6192 03d2 89000000 		.4byte	0x89
 6193 03d6 15       		.uleb128 0x15
 6194 03d7 8B030000 		.4byte	.LASF47
 6195 03db 01       		.byte	0x1
ARM GAS  C:\Users\legoc\AppData\Local\Temp\ccMAvaOS.s 			page 132


 6196 03dc 4F01     		.2byte	0x14f
 6197 03de 89000000 		.4byte	0x89
 6198 03e2 00       		.byte	0
 6199 03e3 EA030000 		.4byte	0x3ea
 6200 03e7 14       		.uleb128 0x14
 6201 03e8 14       		.uleb128 0x14
 6202 03e9 00       		.byte	0
 6203 03ea 0F       		.uleb128 0xf
 6204 03eb FA030000 		.4byte	0x3fa
 6205 03ef 10       		.uleb128 0x10
 6206 03f0 6900     		.ascii	"i\000"
 6207 03f2 01       		.byte	0x1
 6208 03f3 5D01     		.2byte	0x15d
 6209 03f5 89000000 		.4byte	0x89
 6210 03f9 00       		.byte	0
 6211 03fa 11       		.uleb128 0x11
 6212 03fb 10       		.uleb128 0x10
 6213 03fc 6900     		.ascii	"i\000"
 6214 03fe 01       		.byte	0x1
 6215 03ff 6101     		.2byte	0x161
 6216 0401 89000000 		.4byte	0x89
 6217 0405 00       		.byte	0
 6218 0406 00       		.byte	0
 6219 0407 00       		.byte	0
 6220 0408 06       		.uleb128 0x6
 6221 0409 D1000000 		.4byte	0xd1
 6222 040d 17040000 		.4byte	0x417
 6223 0411 16       		.uleb128 0x16
 6224 0412 DF000000 		.4byte	0xdf
 6225 0416 00       		.byte	0
 6226 0417 06       		.uleb128 0x6
 6227 0418 D1000000 		.4byte	0xd1
 6228 041c 26040000 		.4byte	0x426
 6229 0420 16       		.uleb128 0x16
 6230 0421 DF000000 		.4byte	0xdf
 6231 0425 00       		.byte	0
 6232 0426 06       		.uleb128 0x6
 6233 0427 D1000000 		.4byte	0xd1
 6234 042b 35040000 		.4byte	0x435
 6235 042f 16       		.uleb128 0x16
 6236 0430 DF000000 		.4byte	0xdf
 6237 0434 00       		.byte	0
 6238 0435 08       		.uleb128 0x8
 6239 0436 A9000000 		.4byte	.LASF48
 6240 043a 01       		.byte	0x1
 6241 043b 2D       		.byte	0x2d
 6242 043c 01       		.byte	0x1
 6243 043d 4D040000 		.4byte	0x44d
 6244 0441 0A       		.uleb128 0xa
 6245 0442 50040000 		.4byte	.LASF49
 6246 0446 01       		.byte	0x1
 6247 0447 2D       		.byte	0x2d
 6248 0448 97000000 		.4byte	0x97
 6249 044c 00       		.byte	0
 6250 044d 17       		.uleb128 0x17
 6251 044e 35040000 		.4byte	0x435
 6252 0452 00000000 		.4byte	.LFB1
ARM GAS  C:\Users\legoc\AppData\Local\Temp\ccMAvaOS.s 			page 133


 6253 0456 22000000 		.4byte	.LFE1-.LFB1
 6254 045a 01       		.uleb128 0x1
 6255 045b 9C       		.byte	0x9c
 6256 045c A3040000 		.4byte	0x4a3
 6257 0460 18       		.uleb128 0x18
 6258 0461 41040000 		.4byte	0x441
 6259 0465 00000000 		.4byte	.LLST0
 6260 0469 19       		.uleb128 0x19
 6261 046a 0A000000 		.4byte	.LVL2
 6262 046e CE4A0000 		.4byte	0x4ace
 6263 0472 7C040000 		.4byte	0x47c
 6264 0476 1A       		.uleb128 0x1a
 6265 0477 01       		.uleb128 0x1
 6266 0478 50       		.byte	0x50
 6267 0479 01       		.uleb128 0x1
 6268 047a 30       		.byte	0x30
 6269 047b 00       		.byte	0
 6270 047c 19       		.uleb128 0x19
 6271 047d 10000000 		.4byte	.LVL3
 6272 0481 D94A0000 		.4byte	0x4ad9
 6273 0485 90040000 		.4byte	0x490
 6274 0489 1A       		.uleb128 0x1a
 6275 048a 01       		.uleb128 0x1
 6276 048b 50       		.byte	0x50
 6277 048c 02       		.uleb128 0x2
 6278 048d 74       		.byte	0x74
 6279 048e 00       		.sleb128 0
 6280 048f 00       		.byte	0
 6281 0490 1B       		.uleb128 0x1b
 6282 0491 14000000 		.4byte	.LVL4
 6283 0495 E44A0000 		.4byte	0x4ae4
 6284 0499 1B       		.uleb128 0x1b
 6285 049a 1C000000 		.4byte	.LVL5
 6286 049e E44A0000 		.4byte	0x4ae4
 6287 04a2 00       		.byte	0
 6288 04a3 08       		.uleb128 0x8
 6289 04a4 13000000 		.4byte	.LASF50
 6290 04a8 01       		.byte	0x1
 6291 04a9 37       		.byte	0x37
 6292 04aa 01       		.byte	0x1
 6293 04ab BB040000 		.4byte	0x4bb
 6294 04af 0A       		.uleb128 0xa
 6295 04b0 C4030000 		.4byte	.LASF51
 6296 04b4 01       		.byte	0x1
 6297 04b5 37       		.byte	0x37
 6298 04b6 97000000 		.4byte	0x97
 6299 04ba 00       		.byte	0
 6300 04bb 17       		.uleb128 0x17
 6301 04bc A3040000 		.4byte	0x4a3
 6302 04c0 00000000 		.4byte	.LFB2
 6303 04c4 22000000 		.4byte	.LFE2-.LFB2
 6304 04c8 01       		.uleb128 0x1
 6305 04c9 9C       		.byte	0x9c
 6306 04ca 11050000 		.4byte	0x511
 6307 04ce 18       		.uleb128 0x18
 6308 04cf AF040000 		.4byte	0x4af
 6309 04d3 21000000 		.4byte	.LLST1
ARM GAS  C:\Users\legoc\AppData\Local\Temp\ccMAvaOS.s 			page 134


 6310 04d7 19       		.uleb128 0x19
 6311 04d8 0A000000 		.4byte	.LVL8
 6312 04dc CE4A0000 		.4byte	0x4ace
 6313 04e0 EA040000 		.4byte	0x4ea
 6314 04e4 1A       		.uleb128 0x1a
 6315 04e5 01       		.uleb128 0x1
 6316 04e6 50       		.byte	0x50
 6317 04e7 01       		.uleb128 0x1
 6318 04e8 31       		.byte	0x31
 6319 04e9 00       		.byte	0
 6320 04ea 19       		.uleb128 0x19
 6321 04eb 10000000 		.4byte	.LVL9
 6322 04ef D94A0000 		.4byte	0x4ad9
 6323 04f3 FE040000 		.4byte	0x4fe
 6324 04f7 1A       		.uleb128 0x1a
 6325 04f8 01       		.uleb128 0x1
 6326 04f9 50       		.byte	0x50
 6327 04fa 02       		.uleb128 0x2
 6328 04fb 74       		.byte	0x74
 6329 04fc 00       		.sleb128 0
 6330 04fd 00       		.byte	0
 6331 04fe 1B       		.uleb128 0x1b
 6332 04ff 14000000 		.4byte	.LVL10
 6333 0503 E44A0000 		.4byte	0x4ae4
 6334 0507 1B       		.uleb128 0x1b
 6335 0508 1C000000 		.4byte	.LVL11
 6336 050c E44A0000 		.4byte	0x4ae4
 6337 0510 00       		.byte	0
 6338 0511 1C       		.uleb128 0x1c
 6339 0512 75000000 		.4byte	.LASF54
 6340 0516 01       		.byte	0x1
 6341 0517 41       		.byte	0x41
 6342 0518 00000000 		.4byte	.LFB3
 6343 051c FE000000 		.4byte	.LFE3-.LFB3
 6344 0520 01       		.uleb128 0x1
 6345 0521 9C       		.byte	0x9c
 6346 0522 C0070000 		.4byte	0x7c0
 6347 0526 1D       		.uleb128 0x1d
 6348 0527 7800     		.ascii	"x\000"
 6349 0529 01       		.byte	0x1
 6350 052a 41       		.byte	0x41
 6351 052b AD000000 		.4byte	0xad
 6352 052f 42000000 		.4byte	.LLST2
 6353 0533 1D       		.uleb128 0x1d
 6354 0534 7900     		.ascii	"y\000"
 6355 0536 01       		.byte	0x1
 6356 0537 41       		.byte	0x41
 6357 0538 AD000000 		.4byte	0xad
 6358 053c 63000000 		.4byte	.LLST3
 6359 0540 1D       		.uleb128 0x1d
 6360 0541 7700     		.ascii	"w\000"
 6361 0543 01       		.byte	0x1
 6362 0544 41       		.byte	0x41
 6363 0545 AD000000 		.4byte	0xad
 6364 0549 84000000 		.4byte	.LLST4
 6365 054d 1D       		.uleb128 0x1d
 6366 054e 6800     		.ascii	"h\000"
ARM GAS  C:\Users\legoc\AppData\Local\Temp\ccMAvaOS.s 			page 135


 6367 0550 01       		.byte	0x1
 6368 0551 41       		.byte	0x41
 6369 0552 AD000000 		.4byte	0xad
 6370 0556 A5000000 		.4byte	.LLST5
 6371 055a 1E       		.uleb128 0x1e
 6372 055b 786100   		.ascii	"xa\000"
 6373 055e 01       		.byte	0x1
 6374 055f 42       		.byte	0x42
 6375 0560 B8000000 		.4byte	0xb8
 6376 0564 01       		.uleb128 0x1
 6377 0565 55       		.byte	0x55
 6378 0566 1E       		.uleb128 0x1e
 6379 0567 796100   		.ascii	"ya\000"
 6380 056a 01       		.byte	0x1
 6381 056b 43       		.byte	0x43
 6382 056c B8000000 		.4byte	0xb8
 6383 0570 01       		.uleb128 0x1
 6384 0571 54       		.byte	0x54
 6385 0572 1F       		.uleb128 0x1f
 6386 0573 35040000 		.4byte	0x435
 6387 0577 0C000000 		.4byte	.LBB124
 6388 057b 00000000 		.4byte	.Ldebug_ranges0+0
 6389 057f 01       		.byte	0x1
 6390 0580 46       		.byte	0x46
 6391 0581 C8050000 		.4byte	0x5c8
 6392 0585 18       		.uleb128 0x18
 6393 0586 41040000 		.4byte	0x441
 6394 058a C6000000 		.4byte	.LLST6
 6395 058e 19       		.uleb128 0x19
 6396 058f 1A000000 		.4byte	.LVL18
 6397 0593 CE4A0000 		.4byte	0x4ace
 6398 0597 A1050000 		.4byte	0x5a1
 6399 059b 1A       		.uleb128 0x1a
 6400 059c 01       		.uleb128 0x1
 6401 059d 50       		.byte	0x50
 6402 059e 01       		.uleb128 0x1
 6403 059f 30       		.byte	0x30
 6404 05a0 00       		.byte	0
 6405 05a1 19       		.uleb128 0x19
 6406 05a2 20000000 		.4byte	.LVL19
 6407 05a6 D94A0000 		.4byte	0x4ad9
 6408 05aa B5050000 		.4byte	0x5b5
 6409 05ae 1A       		.uleb128 0x1a
 6410 05af 01       		.uleb128 0x1
 6411 05b0 50       		.byte	0x50
 6412 05b1 02       		.uleb128 0x2
 6413 05b2 08       		.byte	0x8
 6414 05b3 2A       		.byte	0x2a
 6415 05b4 00       		.byte	0
 6416 05b5 1B       		.uleb128 0x1b
 6417 05b6 24000000 		.4byte	.LVL20
 6418 05ba E44A0000 		.4byte	0x4ae4
 6419 05be 1B       		.uleb128 0x1b
 6420 05bf 2C000000 		.4byte	.LVL21
 6421 05c3 E44A0000 		.4byte	0x4ae4
 6422 05c7 00       		.byte	0
 6423 05c8 20       		.uleb128 0x20
ARM GAS  C:\Users\legoc\AppData\Local\Temp\ccMAvaOS.s 			page 136


 6424 05c9 35040000 		.4byte	0x435
 6425 05cd 7A000000 		.4byte	.LBB128
 6426 05d1 1C000000 		.4byte	.LBE128-.LBB128
 6427 05d5 01       		.byte	0x1
 6428 05d6 56       		.byte	0x56
 6429 05d7 1E060000 		.4byte	0x61e
 6430 05db 18       		.uleb128 0x18
 6431 05dc 41040000 		.4byte	0x441
 6432 05e0 DB000000 		.4byte	.LLST7
 6433 05e4 19       		.uleb128 0x19
 6434 05e5 80000000 		.4byte	.LVL34
 6435 05e9 CE4A0000 		.4byte	0x4ace
 6436 05ed F7050000 		.4byte	0x5f7
 6437 05f1 1A       		.uleb128 0x1a
 6438 05f2 01       		.uleb128 0x1
 6439 05f3 50       		.byte	0x50
 6440 05f4 01       		.uleb128 0x1
 6441 05f5 30       		.byte	0x30
 6442 05f6 00       		.byte	0
 6443 05f7 19       		.uleb128 0x19
 6444 05f8 86000000 		.4byte	.LVL35
 6445 05fc D94A0000 		.4byte	0x4ad9
 6446 0600 0B060000 		.4byte	0x60b
 6447 0604 1A       		.uleb128 0x1a
 6448 0605 01       		.uleb128 0x1
 6449 0606 50       		.byte	0x50
 6450 0607 02       		.uleb128 0x2
 6451 0608 08       		.byte	0x8
 6452 0609 2B       		.byte	0x2b
 6453 060a 00       		.byte	0
 6454 060b 1B       		.uleb128 0x1b
 6455 060c 8A000000 		.4byte	.LVL36
 6456 0610 E44A0000 		.4byte	0x4ae4
 6457 0614 1B       		.uleb128 0x1b
 6458 0615 92000000 		.4byte	.LVL37
 6459 0619 E44A0000 		.4byte	0x4ae4
 6460 061d 00       		.byte	0
 6461 061e 20       		.uleb128 0x20
 6462 061f 35040000 		.4byte	0x435
 6463 0623 E0000000 		.4byte	.LBB130
 6464 0627 1C000000 		.4byte	.LBE130-.LBB130
 6465 062b 01       		.byte	0x1
 6466 062c 65       		.byte	0x65
 6467 062d 71060000 		.4byte	0x671
 6468 0631 21       		.uleb128 0x21
 6469 0632 41040000 		.4byte	0x441
 6470 0636 2C       		.byte	0x2c
 6471 0637 19       		.uleb128 0x19
 6472 0638 E6000000 		.4byte	.LVL50
 6473 063c CE4A0000 		.4byte	0x4ace
 6474 0640 4A060000 		.4byte	0x64a
 6475 0644 1A       		.uleb128 0x1a
 6476 0645 01       		.uleb128 0x1
 6477 0646 50       		.byte	0x50
 6478 0647 01       		.uleb128 0x1
 6479 0648 30       		.byte	0x30
 6480 0649 00       		.byte	0
ARM GAS  C:\Users\legoc\AppData\Local\Temp\ccMAvaOS.s 			page 137


 6481 064a 19       		.uleb128 0x19
 6482 064b EC000000 		.4byte	.LVL51
 6483 064f D94A0000 		.4byte	0x4ad9
 6484 0653 5E060000 		.4byte	0x65e
 6485 0657 1A       		.uleb128 0x1a
 6486 0658 01       		.uleb128 0x1
 6487 0659 50       		.byte	0x50
 6488 065a 02       		.uleb128 0x2
 6489 065b 08       		.byte	0x8
 6490 065c 2C       		.byte	0x2c
 6491 065d 00       		.byte	0
 6492 065e 1B       		.uleb128 0x1b
 6493 065f F0000000 		.4byte	.LVL52
 6494 0663 E44A0000 		.4byte	0x4ae4
 6495 0667 1B       		.uleb128 0x1b
 6496 0668 F8000000 		.4byte	.LVL53
 6497 066c E44A0000 		.4byte	0x4ae4
 6498 0670 00       		.byte	0
 6499 0671 1B       		.uleb128 0x1b
 6500 0672 34000000 		.4byte	.LVL23
 6501 0676 CE4A0000 		.4byte	0x4ace
 6502 067a 19       		.uleb128 0x19
 6503 067b 3A000000 		.4byte	.LVL24
 6504 067f EF4A0000 		.4byte	0x4aef
 6505 0683 8D060000 		.4byte	0x68d
 6506 0687 1A       		.uleb128 0x1a
 6507 0688 01       		.uleb128 0x1
 6508 0689 50       		.byte	0x50
 6509 068a 01       		.uleb128 0x1
 6510 068b 30       		.byte	0x30
 6511 068c 00       		.byte	0
 6512 068d 19       		.uleb128 0x19
 6513 068e 40000000 		.4byte	.LVL25
 6514 0692 D94A0000 		.4byte	0x4ad9
 6515 0696 A3060000 		.4byte	0x6a3
 6516 069a 1A       		.uleb128 0x1a
 6517 069b 01       		.uleb128 0x1
 6518 069c 50       		.byte	0x50
 6519 069d 04       		.uleb128 0x4
 6520 069e 75       		.byte	0x75
 6521 069f 00       		.sleb128 0
 6522 06a0 48       		.byte	0x48
 6523 06a1 25       		.byte	0x25
 6524 06a2 00       		.byte	0
 6525 06a3 1B       		.uleb128 0x1b
 6526 06a4 44000000 		.4byte	.LVL26
 6527 06a8 E44A0000 		.4byte	0x4ae4
 6528 06ac 19       		.uleb128 0x19
 6529 06ad 50000000 		.4byte	.LVL27
 6530 06b1 D94A0000 		.4byte	0x4ad9
 6531 06b5 C6060000 		.4byte	0x6c6
 6532 06b9 1A       		.uleb128 0x1a
 6533 06ba 01       		.uleb128 0x1
 6534 06bb 50       		.byte	0x50
 6535 06bc 08       		.uleb128 0x8
 6536 06bd 75       		.byte	0x75
 6537 06be 00       		.sleb128 0
ARM GAS  C:\Users\legoc\AppData\Local\Temp\ccMAvaOS.s 			page 138


 6538 06bf 09       		.byte	0x9
 6539 06c0 EC       		.byte	0xec
 6540 06c1 24       		.byte	0x24
 6541 06c2 09       		.byte	0x9
 6542 06c3 FC       		.byte	0xfc
 6543 06c4 25       		.byte	0x25
 6544 06c5 00       		.byte	0
 6545 06c6 1B       		.uleb128 0x1b
 6546 06c7 54000000 		.4byte	.LVL28
 6547 06cb E44A0000 		.4byte	0x4ae4
 6548 06cf 19       		.uleb128 0x19
 6549 06d0 60000000 		.4byte	.LVL29
 6550 06d4 D94A0000 		.4byte	0x4ad9
 6551 06d8 E9060000 		.4byte	0x6e9
 6552 06dc 1A       		.uleb128 0x1a
 6553 06dd 01       		.uleb128 0x1
 6554 06de 50       		.byte	0x50
 6555 06df 08       		.uleb128 0x8
 6556 06e0 75       		.byte	0x75
 6557 06e1 00       		.sleb128 0
 6558 06e2 09       		.byte	0x9
 6559 06e3 F4       		.byte	0xf4
 6560 06e4 24       		.byte	0x24
 6561 06e5 09       		.byte	0x9
 6562 06e6 FC       		.byte	0xfc
 6563 06e7 25       		.byte	0x25
 6564 06e8 00       		.byte	0
 6565 06e9 1B       		.uleb128 0x1b
 6566 06ea 64000000 		.4byte	.LVL30
 6567 06ee E44A0000 		.4byte	0x4ae4
 6568 06f2 19       		.uleb128 0x19
 6569 06f3 6E000000 		.4byte	.LVL31
 6570 06f7 D94A0000 		.4byte	0x4ad9
 6571 06fb 06070000 		.4byte	0x706
 6572 06ff 1A       		.uleb128 0x1a
 6573 0700 01       		.uleb128 0x1
 6574 0701 50       		.byte	0x50
 6575 0702 02       		.uleb128 0x2
 6576 0703 75       		.byte	0x75
 6577 0704 00       		.sleb128 0
 6578 0705 00       		.byte	0
 6579 0706 1B       		.uleb128 0x1b
 6580 0707 72000000 		.4byte	.LVL32
 6581 070b E44A0000 		.4byte	0x4ae4
 6582 070f 1B       		.uleb128 0x1b
 6583 0710 7A000000 		.4byte	.LVL33
 6584 0714 EF4A0000 		.4byte	0x4aef
 6585 0718 1B       		.uleb128 0x1b
 6586 0719 9A000000 		.4byte	.LVL39
 6587 071d CE4A0000 		.4byte	0x4ace
 6588 0721 19       		.uleb128 0x19
 6589 0722 A0000000 		.4byte	.LVL40
 6590 0726 EF4A0000 		.4byte	0x4aef
 6591 072a 34070000 		.4byte	0x734
 6592 072e 1A       		.uleb128 0x1a
 6593 072f 01       		.uleb128 0x1
 6594 0730 50       		.byte	0x50
ARM GAS  C:\Users\legoc\AppData\Local\Temp\ccMAvaOS.s 			page 139


 6595 0731 01       		.uleb128 0x1
 6596 0732 30       		.byte	0x30
 6597 0733 00       		.byte	0
 6598 0734 19       		.uleb128 0x19
 6599 0735 A6000000 		.4byte	.LVL41
 6600 0739 D94A0000 		.4byte	0x4ad9
 6601 073d 4A070000 		.4byte	0x74a
 6602 0741 1A       		.uleb128 0x1a
 6603 0742 01       		.uleb128 0x1
 6604 0743 50       		.byte	0x50
 6605 0744 04       		.uleb128 0x4
 6606 0745 74       		.byte	0x74
 6607 0746 00       		.sleb128 0
 6608 0747 48       		.byte	0x48
 6609 0748 25       		.byte	0x25
 6610 0749 00       		.byte	0
 6611 074a 1B       		.uleb128 0x1b
 6612 074b AA000000 		.4byte	.LVL42
 6613 074f E44A0000 		.4byte	0x4ae4
 6614 0753 19       		.uleb128 0x19
 6615 0754 B6000000 		.4byte	.LVL43
 6616 0758 D94A0000 		.4byte	0x4ad9
 6617 075c 6D070000 		.4byte	0x76d
 6618 0760 1A       		.uleb128 0x1a
 6619 0761 01       		.uleb128 0x1
 6620 0762 50       		.byte	0x50
 6621 0763 08       		.uleb128 0x8
 6622 0764 74       		.byte	0x74
 6623 0765 00       		.sleb128 0
 6624 0766 09       		.byte	0x9
 6625 0767 EC       		.byte	0xec
 6626 0768 24       		.byte	0x24
 6627 0769 09       		.byte	0x9
 6628 076a FC       		.byte	0xfc
 6629 076b 25       		.byte	0x25
 6630 076c 00       		.byte	0
 6631 076d 1B       		.uleb128 0x1b
 6632 076e BA000000 		.4byte	.LVL44
 6633 0772 E44A0000 		.4byte	0x4ae4
 6634 0776 19       		.uleb128 0x19
 6635 0777 C6000000 		.4byte	.LVL45
 6636 077b D94A0000 		.4byte	0x4ad9
 6637 077f 90070000 		.4byte	0x790
 6638 0783 1A       		.uleb128 0x1a
 6639 0784 01       		.uleb128 0x1
 6640 0785 50       		.byte	0x50
 6641 0786 08       		.uleb128 0x8
 6642 0787 74       		.byte	0x74
 6643 0788 00       		.sleb128 0
 6644 0789 09       		.byte	0x9
 6645 078a F4       		.byte	0xf4
 6646 078b 24       		.byte	0x24
 6647 078c 09       		.byte	0x9
 6648 078d FC       		.byte	0xfc
 6649 078e 25       		.byte	0x25
 6650 078f 00       		.byte	0
 6651 0790 1B       		.uleb128 0x1b
ARM GAS  C:\Users\legoc\AppData\Local\Temp\ccMAvaOS.s 			page 140


 6652 0791 CA000000 		.4byte	.LVL46
 6653 0795 E44A0000 		.4byte	0x4ae4
 6654 0799 19       		.uleb128 0x19
 6655 079a D4000000 		.4byte	.LVL47
 6656 079e D94A0000 		.4byte	0x4ad9
 6657 07a2 AD070000 		.4byte	0x7ad
 6658 07a6 1A       		.uleb128 0x1a
 6659 07a7 01       		.uleb128 0x1
 6660 07a8 50       		.byte	0x50
 6661 07a9 02       		.uleb128 0x2
 6662 07aa 74       		.byte	0x74
 6663 07ab 00       		.sleb128 0
 6664 07ac 00       		.byte	0
 6665 07ad 1B       		.uleb128 0x1b
 6666 07ae D8000000 		.4byte	.LVL48
 6667 07b2 E44A0000 		.4byte	0x4ae4
 6668 07b6 1B       		.uleb128 0x1b
 6669 07b7 E0000000 		.4byte	.LVL49
 6670 07bb EF4A0000 		.4byte	0x4aef
 6671 07bf 00       		.byte	0
 6672 07c0 17       		.uleb128 0x17
 6673 07c1 C6020000 		.4byte	0x2c6
 6674 07c5 00000000 		.4byte	.LFB28
 6675 07c9 0C020000 		.4byte	.LFE28-.LFB28
 6676 07cd 01       		.uleb128 0x1
 6677 07ce 9C       		.byte	0x9c
 6678 07cf C50B0000 		.4byte	0xbc5
 6679 07d3 18       		.uleb128 0x18
 6680 07d4 D3020000 		.4byte	0x2d3
 6681 07d8 F0000000 		.4byte	.LLST8
 6682 07dc 18       		.uleb128 0x18
 6683 07dd DD020000 		.4byte	0x2dd
 6684 07e1 11010000 		.4byte	.LLST9
 6685 07e5 18       		.uleb128 0x18
 6686 07e6 E7020000 		.4byte	0x2e7
 6687 07ea 32010000 		.4byte	.LLST10
 6688 07ee 18       		.uleb128 0x18
 6689 07ef F1020000 		.4byte	0x2f1
 6690 07f3 53010000 		.4byte	.LLST11
 6691 07f7 18       		.uleb128 0x18
 6692 07f8 13030000 		.4byte	0x313
 6693 07fc 7F010000 		.4byte	.LLST12
 6694 0800 22       		.uleb128 0x22
 6695 0801 1F030000 		.4byte	0x31f
 6696 0805 B5010000 		.4byte	.LLST13
 6697 0809 22       		.uleb128 0x22
 6698 080a 2B030000 		.4byte	0x32b
 6699 080e D3010000 		.4byte	.LLST14
 6700 0812 22       		.uleb128 0x22
 6701 0813 37030000 		.4byte	0x337
 6702 0817 F1010000 		.4byte	.LLST15
 6703 081b 23       		.uleb128 0x23
 6704 081c D80B0000 		.4byte	0xbd8
 6705 0820 32020000 		.4byte	.LLST16
 6706 0824 24       		.uleb128 0x24
 6707 0825 43030000 		.4byte	0x343
 6708 0829 C50B0000 		.4byte	0xbc5
ARM GAS  C:\Users\legoc\AppData\Local\Temp\ccMAvaOS.s 			page 141


 6709 082d 51020000 		.4byte	.LLST17
 6710 0831 21       		.uleb128 0x21
 6711 0832 07030000 		.4byte	0x307
 6712 0836 00       		.byte	0
 6713 0837 25       		.uleb128 0x25
 6714 0838 FB020000 		.4byte	0x2fb
 6715 083c 7F       		.sleb128 -1
 6716 083d 26       		.uleb128 0x26
 6717 083e 4C010000 		.4byte	0x14c
 6718 0842 0A000000 		.4byte	.LBB143
 6719 0846 18000000 		.4byte	.Ldebug_ranges0+0x18
 6720 084a 01       		.byte	0x1
 6721 084b 2D01     		.2byte	0x12d
 6722 084d 170A0000 		.4byte	0xa17
 6723 0851 18       		.uleb128 0x18
 6724 0852 7C010000 		.4byte	0x17c
 6725 0856 89020000 		.4byte	.LLST18
 6726 085a 27       		.uleb128 0x27
 6727 085b 73010000 		.4byte	0x173
 6728 085f 18       		.uleb128 0x18
 6729 0860 6A010000 		.4byte	0x16a
 6730 0864 AB020000 		.4byte	.LLST19
 6731 0868 18       		.uleb128 0x18
 6732 0869 61010000 		.4byte	0x161
 6733 086d C9020000 		.4byte	.LLST20
 6734 0871 18       		.uleb128 0x18
 6735 0872 58010000 		.4byte	0x158
 6736 0876 E7020000 		.4byte	.LLST21
 6737 087a 28       		.uleb128 0x28
 6738 087b FC000000 		.4byte	0xfc
 6739 087f 28000000 		.4byte	.LBB145
 6740 0883 40000000 		.4byte	.Ldebug_ranges0+0x40
 6741 0887 01       		.byte	0x1
 6742 0888 95       		.byte	0x95
 6743 0889 18       		.uleb128 0x18
 6744 088a 2C010000 		.4byte	0x12c
 6745 088e 12030000 		.4byte	.LLST22
 6746 0892 18       		.uleb128 0x18
 6747 0893 23010000 		.4byte	0x123
 6748 0897 34030000 		.4byte	.LLST23
 6749 089b 18       		.uleb128 0x18
 6750 089c 1A010000 		.4byte	0x11a
 6751 08a0 52030000 		.4byte	.LLST24
 6752 08a4 18       		.uleb128 0x18
 6753 08a5 11010000 		.4byte	0x111
 6754 08a9 70030000 		.4byte	.LLST25
 6755 08ad 18       		.uleb128 0x18
 6756 08ae 08010000 		.4byte	0x108
 6757 08b2 B3030000 		.4byte	.LLST26
 6758 08b6 29       		.uleb128 0x29
 6759 08b7 40000000 		.4byte	.Ldebug_ranges0+0x40
 6760 08bb 2A       		.uleb128 0x2a
 6761 08bc 37010000 		.4byte	0x137
 6762 08c0 2A       		.uleb128 0x2a
 6763 08c1 41010000 		.4byte	0x141
 6764 08c5 2B       		.uleb128 0x2b
 6765 08c6 6A010000 		.4byte	.LBB147
ARM GAS  C:\Users\legoc\AppData\Local\Temp\ccMAvaOS.s 			page 142


 6766 08ca 76000000 		.4byte	.LBE147-.LBB147
 6767 08ce 18       		.uleb128 0x18
 6768 08cf 2C010000 		.4byte	0x12c
 6769 08d3 F8030000 		.4byte	.LLST27
 6770 08d7 18       		.uleb128 0x18
 6771 08d8 23010000 		.4byte	0x123
 6772 08dc 0D040000 		.4byte	.LLST28
 6773 08e0 18       		.uleb128 0x18
 6774 08e1 1A010000 		.4byte	0x11a
 6775 08e5 2B040000 		.4byte	.LLST29
 6776 08e9 18       		.uleb128 0x18
 6777 08ea 11010000 		.4byte	0x111
 6778 08ee 49040000 		.4byte	.LLST30
 6779 08f2 18       		.uleb128 0x18
 6780 08f3 08010000 		.4byte	0x108
 6781 08f7 6D040000 		.4byte	.LLST31
 6782 08fb 2B       		.uleb128 0x2b
 6783 08fc 6A010000 		.4byte	.LBB148
 6784 0900 76000000 		.4byte	.LBE148-.LBB148
 6785 0904 22       		.uleb128 0x22
 6786 0905 37010000 		.4byte	0x137
 6787 0909 C8040000 		.4byte	.LLST32
 6788 090d 22       		.uleb128 0x22
 6789 090e 41010000 		.4byte	0x141
 6790 0912 C8040000 		.4byte	.LLST32
 6791 0916 19       		.uleb128 0x19
 6792 0917 8E010000 		.4byte	.LVL91
 6793 091b 11050000 		.4byte	0x511
 6794 091f A3090000 		.4byte	0x9a3
 6795 0923 1A       		.uleb128 0x1a
 6796 0924 01       		.uleb128 0x1
 6797 0925 52       		.byte	0x52
 6798 0926 35       		.uleb128 0x35
 6799 0927 F3       		.byte	0xf3
 6800 0928 01       		.uleb128 0x1
 6801 0929 53       		.byte	0x53
 6802 092a 0A       		.byte	0xa
 6803 092b FFFF     		.2byte	0xffff
 6804 092d 1A       		.byte	0x1a
 6805 092e 7B       		.byte	0x7b
 6806 092f 00       		.sleb128 0
 6807 0930 22       		.byte	0x22
 6808 0931 0A       		.byte	0xa
 6809 0932 FFFF     		.2byte	0xffff
 6810 0934 1A       		.byte	0x1a
 6811 0935 F3       		.byte	0xf3
 6812 0936 01       		.uleb128 0x1
 6813 0937 53       		.byte	0x53
 6814 0938 0A       		.byte	0xa
 6815 0939 FFFF     		.2byte	0xffff
 6816 093b 1A       		.byte	0x1a
 6817 093c 08       		.byte	0x8
 6818 093d F0       		.byte	0xf0
 6819 093e F3       		.byte	0xf3
 6820 093f 01       		.uleb128 0x1
 6821 0940 53       		.byte	0x53
 6822 0941 0A       		.byte	0xa
ARM GAS  C:\Users\legoc\AppData\Local\Temp\ccMAvaOS.s 			page 143


 6823 0942 FFFF     		.2byte	0xffff
 6824 0944 1A       		.byte	0x1a
 6825 0945 7B       		.byte	0x7b
 6826 0946 00       		.sleb128 0
 6827 0947 22       		.byte	0x22
 6828 0948 0A       		.byte	0xa
 6829 0949 FFFF     		.2byte	0xffff
 6830 094b 1A       		.byte	0x1a
 6831 094c 1C       		.byte	0x1c
 6832 094d 40       		.byte	0x40
 6833 094e 24       		.byte	0x24
 6834 094f 40       		.byte	0x40
 6835 0950 26       		.byte	0x26
 6836 0951 78       		.byte	0x78
 6837 0952 00       		.sleb128 0
 6838 0953 22       		.byte	0x22
 6839 0954 08       		.byte	0x8
 6840 0955 F0       		.byte	0xf0
 6841 0956 2B       		.byte	0x2b
 6842 0957 28       		.byte	0x28
 6843 0958 0100     		.2byte	0x1
 6844 095a 16       		.byte	0x16
 6845 095b 13       		.byte	0x13
 6846 095c 1A       		.uleb128 0x1a
 6847 095d 01       		.uleb128 0x1
 6848 095e 53       		.byte	0x53
 6849 095f 42       		.uleb128 0x42
 6850 0960 74       		.byte	0x74
 6851 0961 00       		.sleb128 0
 6852 0962 79       		.byte	0x79
 6853 0963 00       		.sleb128 0
 6854 0964 0A       		.byte	0xa
 6855 0965 FFFF     		.2byte	0xffff
 6856 0967 1A       		.byte	0x1a
 6857 0968 F3       		.byte	0xf3
 6858 0969 01       		.uleb128 0x1
 6859 096a 53       		.byte	0x53
 6860 096b 0A       		.byte	0xa
 6861 096c FFFF     		.2byte	0xffff
 6862 096e 1A       		.byte	0x1a
 6863 096f 7B       		.byte	0x7b
 6864 0970 00       		.sleb128 0
 6865 0971 22       		.byte	0x22
 6866 0972 0A       		.byte	0xa
 6867 0973 FFFF     		.2byte	0xffff
 6868 0975 1A       		.byte	0x1a
 6869 0976 0A       		.byte	0xa
 6870 0977 4001     		.2byte	0x140
 6871 0979 74       		.byte	0x74
 6872 097a 00       		.sleb128 0
 6873 097b 1C       		.byte	0x1c
 6874 097c 40       		.byte	0x40
 6875 097d 24       		.byte	0x24
 6876 097e 40       		.byte	0x40
 6877 097f 26       		.byte	0x26
 6878 0980 79       		.byte	0x79
 6879 0981 00       		.sleb128 0
ARM GAS  C:\Users\legoc\AppData\Local\Temp\ccMAvaOS.s 			page 144


 6880 0982 22       		.byte	0x22
 6881 0983 0A       		.byte	0xa
 6882 0984 4001     		.2byte	0x140
 6883 0986 2C       		.byte	0x2c
 6884 0987 28       		.byte	0x28
 6885 0988 0100     		.2byte	0x1
 6886 098a 16       		.byte	0x16
 6887 098b 13       		.byte	0x13
 6888 098c 0A       		.byte	0xa
 6889 098d 4001     		.2byte	0x140
 6890 098f 74       		.byte	0x74
 6891 0990 00       		.sleb128 0
 6892 0991 1C       		.byte	0x1c
 6893 0992 40       		.byte	0x40
 6894 0993 24       		.byte	0x24
 6895 0994 40       		.byte	0x40
 6896 0995 26       		.byte	0x26
 6897 0996 79       		.byte	0x79
 6898 0997 00       		.sleb128 0
 6899 0998 22       		.byte	0x22
 6900 0999 0A       		.byte	0xa
 6901 099a 4001     		.2byte	0x140
 6902 099c 2B       		.byte	0x2b
 6903 099d 28       		.byte	0x28
 6904 099e 0100     		.2byte	0x1
 6905 09a0 16       		.byte	0x16
 6906 09a1 13       		.byte	0x13
 6907 09a2 00       		.byte	0
 6908 09a3 19       		.uleb128 0x19
 6909 09a4 94010000 		.4byte	.LVL92
 6910 09a8 CE4A0000 		.4byte	0x4ace
 6911 09ac B6090000 		.4byte	0x9b6
 6912 09b0 1A       		.uleb128 0x1a
 6913 09b1 01       		.uleb128 0x1
 6914 09b2 50       		.byte	0x50
 6915 09b3 01       		.uleb128 0x1
 6916 09b4 31       		.byte	0x31
 6917 09b5 00       		.byte	0
 6918 09b6 19       		.uleb128 0x19
 6919 09b7 9A010000 		.4byte	.LVL93
 6920 09bb EF4A0000 		.4byte	0x4aef
 6921 09bf C9090000 		.4byte	0x9c9
 6922 09c3 1A       		.uleb128 0x1a
 6923 09c4 01       		.uleb128 0x1
 6924 09c5 50       		.byte	0x50
 6925 09c6 01       		.uleb128 0x1
 6926 09c7 30       		.byte	0x30
 6927 09c8 00       		.byte	0
 6928 09c9 19       		.uleb128 0x19
 6929 09ca AE010000 		.4byte	.LVL96
 6930 09ce D94A0000 		.4byte	0x4ad9
 6931 09d2 DD090000 		.4byte	0x9dd
 6932 09d6 1A       		.uleb128 0x1a
 6933 09d7 01       		.uleb128 0x1
 6934 09d8 50       		.byte	0x50
 6935 09d9 02       		.uleb128 0x2
 6936 09da 09       		.byte	0x9
ARM GAS  C:\Users\legoc\AppData\Local\Temp\ccMAvaOS.s 			page 145


 6937 09db FF       		.byte	0xff
 6938 09dc 00       		.byte	0
 6939 09dd 1B       		.uleb128 0x1b
 6940 09de B2010000 		.4byte	.LVL97
 6941 09e2 E44A0000 		.4byte	0x4ae4
 6942 09e6 19       		.uleb128 0x19
 6943 09e7 BC010000 		.4byte	.LVL98
 6944 09eb D94A0000 		.4byte	0x4ad9
 6945 09ef FA090000 		.4byte	0x9fa
 6946 09f3 1A       		.uleb128 0x1a
 6947 09f4 01       		.uleb128 0x1
 6948 09f5 50       		.byte	0x50
 6949 09f6 02       		.uleb128 0x2
 6950 09f7 09       		.byte	0x9
 6951 09f8 FF       		.byte	0xff
 6952 09f9 00       		.byte	0
 6953 09fa 1B       		.uleb128 0x1b
 6954 09fb C0010000 		.4byte	.LVL99
 6955 09ff E44A0000 		.4byte	0x4ae4
 6956 0a03 2C       		.uleb128 0x2c
 6957 0a04 DE010000 		.4byte	.LVL104
 6958 0a08 EF4A0000 		.4byte	0x4aef
 6959 0a0c 1A       		.uleb128 0x1a
 6960 0a0d 01       		.uleb128 0x1
 6961 0a0e 50       		.byte	0x50
 6962 0a0f 01       		.uleb128 0x1
 6963 0a10 31       		.byte	0x31
 6964 0a11 00       		.byte	0
 6965 0a12 00       		.byte	0
 6966 0a13 00       		.byte	0
 6967 0a14 00       		.byte	0
 6968 0a15 00       		.byte	0
 6969 0a16 00       		.byte	0
 6970 0a17 2D       		.uleb128 0x2d
 6971 0a18 9A000000 		.4byte	.LBB160
 6972 0a1c C8000000 		.4byte	.LBE160-.LBB160
 6973 0a20 130B0000 		.4byte	0xb13
 6974 0a24 22       		.uleb128 0x22
 6975 0a25 82030000 		.4byte	0x382
 6976 0a29 DD040000 		.4byte	.LLST34
 6977 0a2d 24       		.uleb128 0x24
 6978 0a2e 8E030000 		.4byte	0x38e
 6979 0a32 DD0B0000 		.4byte	0xbdd
 6980 0a36 0D050000 		.4byte	.LLST36
 6981 0a3a 24       		.uleb128 0x24
 6982 0a3b 9A030000 		.4byte	0x39a
 6983 0a3f F50B0000 		.4byte	0xbf5
 6984 0a43 36050000 		.4byte	.LLST38
 6985 0a47 22       		.uleb128 0x22
 6986 0a48 A6030000 		.4byte	0x3a6
 6987 0a4c 4A050000 		.4byte	.LLST39
 6988 0a50 22       		.uleb128 0x22
 6989 0a51 B2030000 		.4byte	0x3b2
 6990 0a55 5F050000 		.4byte	.LLST40
 6991 0a59 22       		.uleb128 0x22
 6992 0a5a BE030000 		.4byte	0x3be
 6993 0a5e 77050000 		.4byte	.LLST41
ARM GAS  C:\Users\legoc\AppData\Local\Temp\ccMAvaOS.s 			page 146


 6994 0a62 22       		.uleb128 0x22
 6995 0a63 CA030000 		.4byte	0x3ca
 6996 0a67 96050000 		.4byte	.LLST42
 6997 0a6b 2E       		.uleb128 0x2e
 6998 0a6c 68000000 		.4byte	.Ldebug_ranges0+0x68
 6999 0a70 7E0A0000 		.4byte	0xa7e
 7000 0a74 22       		.uleb128 0x22
 7001 0a75 EF030000 		.4byte	0x3ef
 7002 0a79 B8050000 		.4byte	.LLST43
 7003 0a7d 00       		.byte	0
 7004 0a7e 2D       		.uleb128 0x2d
 7005 0a7f 00010000 		.4byte	.LBB163
 7006 0a83 14000000 		.4byte	.LBE163-.LBB163
 7007 0a87 950A0000 		.4byte	0xa95
 7008 0a8b 22       		.uleb128 0x22
 7009 0a8c FB030000 		.4byte	0x3fb
 7010 0a90 CC050000 		.4byte	.LLST44
 7011 0a94 00       		.byte	0
 7012 0a95 19       		.uleb128 0x19
 7013 0a96 3C010000 		.4byte	.LVL83
 7014 0a9a FA4A0000 		.4byte	0x4afa
 7015 0a9e D30A0000 		.4byte	0xad3
 7016 0aa2 1A       		.uleb128 0x1a
 7017 0aa3 01       		.uleb128 0x1
 7018 0aa4 50       		.byte	0x50
 7019 0aa5 19       		.uleb128 0x19
 7020 0aa6 78       		.byte	0x78
 7021 0aa7 00       		.sleb128 0
 7022 0aa8 75       		.byte	0x75
 7023 0aa9 01       		.sleb128 1
 7024 0aaa 33       		.byte	0x33
 7025 0aab 24       		.byte	0x24
 7026 0aac 75       		.byte	0x75
 7027 0aad 01       		.sleb128 1
 7028 0aae 1C       		.byte	0x1c
 7029 0aaf 4F       		.byte	0x4f
 7030 0ab0 25       		.byte	0x25
 7031 0ab1 75       		.byte	0x75
 7032 0ab2 01       		.sleb128 1
 7033 0ab3 33       		.byte	0x33
 7034 0ab4 24       		.byte	0x24
 7035 0ab5 22       		.byte	0x22
 7036 0ab6 75       		.byte	0x75
 7037 0ab7 00       		.sleb128 0
 7038 0ab8 20       		.byte	0x20
 7039 0ab9 22       		.byte	0x22
 7040 0aba 31       		.byte	0x31
 7041 0abb 26       		.byte	0x26
 7042 0abc 1C       		.byte	0x1c
 7043 0abd 23       		.byte	0x23
 7044 0abe 05       		.uleb128 0x5
 7045 0abf 1A       		.uleb128 0x1a
 7046 0ac0 01       		.uleb128 0x1
 7047 0ac1 51       		.byte	0x51
 7048 0ac2 02       		.uleb128 0x2
 7049 0ac3 7B       		.byte	0x7b
 7050 0ac4 03       		.sleb128 3
ARM GAS  C:\Users\legoc\AppData\Local\Temp\ccMAvaOS.s 			page 147


 7051 0ac5 1A       		.uleb128 0x1a
 7052 0ac6 01       		.uleb128 0x1
 7053 0ac7 52       		.byte	0x52
 7054 0ac8 02       		.uleb128 0x2
 7055 0ac9 76       		.byte	0x76
 7056 0aca 00       		.sleb128 0
 7057 0acb 1A       		.uleb128 0x1a
 7058 0acc 02       		.uleb128 0x2
 7059 0acd 7D       		.byte	0x7d
 7060 0ace 00       		.sleb128 0
 7061 0acf 02       		.uleb128 0x2
 7062 0ad0 7A       		.byte	0x7a
 7063 0ad1 00       		.sleb128 0
 7064 0ad2 00       		.byte	0
 7065 0ad3 2C       		.uleb128 0x2c
 7066 0ad4 5E010000 		.4byte	.LVL84
 7067 0ad8 FA4A0000 		.4byte	0x4afa
 7068 0adc 1A       		.uleb128 0x1a
 7069 0add 01       		.uleb128 0x1
 7070 0ade 50       		.byte	0x50
 7071 0adf 18       		.uleb128 0x18
 7072 0ae0 78       		.byte	0x78
 7073 0ae1 00       		.sleb128 0
 7074 0ae2 91       		.byte	0x91
 7075 0ae3 78       		.sleb128 -8
 7076 0ae4 06       		.byte	0x6
 7077 0ae5 31       		.byte	0x31
 7078 0ae6 1C       		.byte	0x1c
 7079 0ae7 37       		.byte	0x37
 7080 0ae8 1E       		.byte	0x1e
 7081 0ae9 91       		.byte	0x91
 7082 0aea 78       		.sleb128 -8
 7083 0aeb 06       		.byte	0x6
 7084 0aec 31       		.byte	0x31
 7085 0aed 1C       		.byte	0x1c
 7086 0aee 37       		.byte	0x37
 7087 0aef 1E       		.byte	0x1e
 7088 0af0 4F       		.byte	0x4f
 7089 0af1 25       		.byte	0x25
 7090 0af2 22       		.byte	0x22
 7091 0af3 31       		.byte	0x31
 7092 0af4 26       		.byte	0x26
 7093 0af5 1C       		.byte	0x1c
 7094 0af6 23       		.byte	0x23
 7095 0af7 04       		.uleb128 0x4
 7096 0af8 1A       		.uleb128 0x1a
 7097 0af9 01       		.uleb128 0x1
 7098 0afa 51       		.byte	0x51
 7099 0afb 02       		.uleb128 0x2
 7100 0afc 7B       		.byte	0x7b
 7101 0afd 7B       		.sleb128 -5
 7102 0afe 1A       		.uleb128 0x1a
 7103 0aff 01       		.uleb128 0x1
 7104 0b00 52       		.byte	0x52
 7105 0b01 02       		.uleb128 0x2
 7106 0b02 76       		.byte	0x76
 7107 0b03 00       		.sleb128 0
ARM GAS  C:\Users\legoc\AppData\Local\Temp\ccMAvaOS.s 			page 148


 7108 0b04 1A       		.uleb128 0x1a
 7109 0b05 01       		.uleb128 0x1
 7110 0b06 53       		.byte	0x53
 7111 0b07 02       		.uleb128 0x2
 7112 0b08 79       		.byte	0x79
 7113 0b09 00       		.sleb128 0
 7114 0b0a 1A       		.uleb128 0x1a
 7115 0b0b 02       		.uleb128 0x2
 7116 0b0c 7D       		.byte	0x7d
 7117 0b0d 00       		.sleb128 0
 7118 0b0e 02       		.uleb128 0x2
 7119 0b0f 7A       		.byte	0x7a
 7120 0b10 00       		.sleb128 0
 7121 0b11 00       		.byte	0
 7122 0b12 00       		.byte	0
 7123 0b13 23       		.uleb128 0x23
 7124 0b14 F00B0000 		.4byte	0xbf0
 7125 0b18 E0050000 		.4byte	.LLST35
 7126 0b1c 23       		.uleb128 0x23
 7127 0b1d 080C0000 		.4byte	0xc08
 7128 0b21 F3050000 		.4byte	.LLST37
 7129 0b25 2D       		.uleb128 0x2d
 7130 0b26 E0010000 		.4byte	.LBB165
 7131 0b2a 18000000 		.4byte	.LBE165-.LBB165
 7132 0b2e 590B0000 		.4byte	0xb59
 7133 0b32 22       		.uleb128 0x22
 7134 0b33 64030000 		.4byte	0x364
 7135 0b37 06060000 		.4byte	.LLST45
 7136 0b3b 2C       		.uleb128 0x2c
 7137 0b3c F8010000 		.4byte	.LVL107
 7138 0b40 FA4A0000 		.4byte	0x4afa
 7139 0b44 1A       		.uleb128 0x1a
 7140 0b45 01       		.uleb128 0x1
 7141 0b46 51       		.byte	0x51
 7142 0b47 02       		.uleb128 0x2
 7143 0b48 7B       		.byte	0x7b
 7144 0b49 7F       		.sleb128 -1
 7145 0b4a 1A       		.uleb128 0x1a
 7146 0b4b 01       		.uleb128 0x1
 7147 0b4c 53       		.byte	0x53
 7148 0b4d 02       		.uleb128 0x2
 7149 0b4e 76       		.byte	0x76
 7150 0b4f 00       		.sleb128 0
 7151 0b50 1A       		.uleb128 0x1a
 7152 0b51 02       		.uleb128 0x2
 7153 0b52 7D       		.byte	0x7d
 7154 0b53 00       		.sleb128 0
 7155 0b54 02       		.uleb128 0x2
 7156 0b55 74       		.byte	0x74
 7157 0b56 00       		.sleb128 0
 7158 0b57 00       		.byte	0
 7159 0b58 00       		.byte	0
 7160 0b59 19       		.uleb128 0x19
 7161 0b5a 8A000000 		.4byte	.LVL70
 7162 0b5e 064B0000 		.4byte	0x4b06
 7163 0b62 7C0B0000 		.4byte	0xb7c
 7164 0b66 1A       		.uleb128 0x1a
ARM GAS  C:\Users\legoc\AppData\Local\Temp\ccMAvaOS.s 			page 149


 7165 0b67 01       		.uleb128 0x1
 7166 0b68 50       		.byte	0x50
 7167 0b69 02       		.uleb128 0x2
 7168 0b6a 76       		.byte	0x76
 7169 0b6b 00       		.sleb128 0
 7170 0b6c 1A       		.uleb128 0x1a
 7171 0b6d 01       		.uleb128 0x1
 7172 0b6e 51       		.byte	0x51
 7173 0b6f 05       		.uleb128 0x5
 7174 0b70 75       		.byte	0x75
 7175 0b71 00       		.sleb128 0
 7176 0b72 74       		.byte	0x74
 7177 0b73 00       		.sleb128 0
 7178 0b74 1C       		.byte	0x1c
 7179 0b75 1A       		.uleb128 0x1a
 7180 0b76 01       		.uleb128 0x1
 7181 0b77 52       		.byte	0x52
 7182 0b78 02       		.uleb128 0x2
 7183 0b79 74       		.byte	0x74
 7184 0b7a 00       		.sleb128 0
 7185 0b7b 00       		.byte	0
 7186 0b7c 19       		.uleb128 0x19
 7187 0b7d FE000000 		.4byte	.LVL78
 7188 0b81 064B0000 		.4byte	0x4b06
 7189 0b85 A50B0000 		.4byte	0xba5
 7190 0b89 1A       		.uleb128 0x1a
 7191 0b8a 01       		.uleb128 0x1
 7192 0b8b 50       		.byte	0x50
 7193 0b8c 0B       		.uleb128 0xb
 7194 0b8d 91       		.byte	0x91
 7195 0b8e 7C       		.sleb128 -4
 7196 0b8f 06       		.byte	0x6
 7197 0b90 75       		.byte	0x75
 7198 0b91 08       		.sleb128 8
 7199 0b92 09       		.byte	0x9
 7200 0b93 F8       		.byte	0xf8
 7201 0b94 1A       		.byte	0x1a
 7202 0b95 1C       		.byte	0x1c
 7203 0b96 23       		.byte	0x23
 7204 0b97 08       		.uleb128 0x8
 7205 0b98 1A       		.uleb128 0x1a
 7206 0b99 01       		.uleb128 0x1
 7207 0b9a 51       		.byte	0x51
 7208 0b9b 02       		.uleb128 0x2
 7209 0b9c 76       		.byte	0x76
 7210 0b9d 00       		.sleb128 0
 7211 0b9e 1A       		.uleb128 0x1a
 7212 0b9f 01       		.uleb128 0x1
 7213 0ba0 52       		.byte	0x52
 7214 0ba1 02       		.uleb128 0x2
 7215 0ba2 75       		.byte	0x75
 7216 0ba3 00       		.sleb128 0
 7217 0ba4 00       		.byte	0
 7218 0ba5 2C       		.uleb128 0x2c
 7219 0ba6 12010000 		.4byte	.LVL80
 7220 0baa 064B0000 		.4byte	0x4b06
 7221 0bae 1A       		.uleb128 0x1a
ARM GAS  C:\Users\legoc\AppData\Local\Temp\ccMAvaOS.s 			page 150


 7222 0baf 01       		.uleb128 0x1
 7223 0bb0 50       		.byte	0x50
 7224 0bb1 02       		.uleb128 0x2
 7225 0bb2 79       		.byte	0x79
 7226 0bb3 00       		.sleb128 0
 7227 0bb4 1A       		.uleb128 0x1a
 7228 0bb5 01       		.uleb128 0x1
 7229 0bb6 51       		.byte	0x51
 7230 0bb7 05       		.uleb128 0x5
 7231 0bb8 76       		.byte	0x76
 7232 0bb9 00       		.sleb128 0
 7233 0bba 7A       		.byte	0x7a
 7234 0bbb 00       		.sleb128 0
 7235 0bbc 22       		.byte	0x22
 7236 0bbd 1A       		.uleb128 0x1a
 7237 0bbe 01       		.uleb128 0x1
 7238 0bbf 52       		.byte	0x52
 7239 0bc0 02       		.uleb128 0x2
 7240 0bc1 74       		.byte	0x74
 7241 0bc2 00       		.sleb128 0
 7242 0bc3 00       		.byte	0
 7243 0bc4 00       		.byte	0
 7244 0bc5 06       		.uleb128 0x6
 7245 0bc6 D1000000 		.4byte	0xd1
 7246 0bca D80B0000 		.4byte	0xbd8
 7247 0bce 2F       		.uleb128 0x2f
 7248 0bcf DF000000 		.4byte	0xdf
 7249 0bd3 1B080000 		.4byte	0x81b
 7250 0bd7 00       		.byte	0
 7251 0bd8 30       		.uleb128 0x30
 7252 0bd9 DF000000 		.4byte	0xdf
 7253 0bdd 06       		.uleb128 0x6
 7254 0bde D1000000 		.4byte	0xd1
 7255 0be2 F00B0000 		.4byte	0xbf0
 7256 0be6 2F       		.uleb128 0x2f
 7257 0be7 DF000000 		.4byte	0xdf
 7258 0beb 130B0000 		.4byte	0xb13
 7259 0bef 00       		.byte	0
 7260 0bf0 30       		.uleb128 0x30
 7261 0bf1 DF000000 		.4byte	0xdf
 7262 0bf5 06       		.uleb128 0x6
 7263 0bf6 D1000000 		.4byte	0xd1
 7264 0bfa 080C0000 		.4byte	0xc08
 7265 0bfe 2F       		.uleb128 0x2f
 7266 0bff DF000000 		.4byte	0xdf
 7267 0c03 1C0B0000 		.4byte	0xb1c
 7268 0c07 00       		.byte	0
 7269 0c08 30       		.uleb128 0x30
 7270 0c09 DF000000 		.4byte	0xdf
 7271 0c0d 17       		.uleb128 0x17
 7272 0c0e FC000000 		.4byte	0xfc
 7273 0c12 00000000 		.4byte	.LFB4
 7274 0c16 A6000000 		.4byte	.LFE4-.LFB4
 7275 0c1a 01       		.uleb128 0x1
 7276 0c1b 9C       		.byte	0x9c
 7277 0c1c 3A0D0000 		.4byte	0xd3a
 7278 0c20 18       		.uleb128 0x18
ARM GAS  C:\Users\legoc\AppData\Local\Temp\ccMAvaOS.s 			page 151


 7279 0c21 08010000 		.4byte	0x108
 7280 0c25 23060000 		.4byte	.LLST46
 7281 0c29 18       		.uleb128 0x18
 7282 0c2a 11010000 		.4byte	0x111
 7283 0c2e 4F060000 		.4byte	.LLST47
 7284 0c32 18       		.uleb128 0x18
 7285 0c33 1A010000 		.4byte	0x11a
 7286 0c37 7B060000 		.4byte	.LLST48
 7287 0c3b 18       		.uleb128 0x18
 7288 0c3c 23010000 		.4byte	0x123
 7289 0c40 A7060000 		.4byte	.LLST49
 7290 0c44 18       		.uleb128 0x18
 7291 0c45 2C010000 		.4byte	0x12c
 7292 0c49 D3060000 		.4byte	.LLST50
 7293 0c4d 2A       		.uleb128 0x2a
 7294 0c4e 37010000 		.4byte	0x137
 7295 0c52 2A       		.uleb128 0x2a
 7296 0c53 41010000 		.4byte	0x141
 7297 0c57 29       		.uleb128 0x29
 7298 0c58 80000000 		.4byte	.Ldebug_ranges0+0x80
 7299 0c5c 18       		.uleb128 0x18
 7300 0c5d 2C010000 		.4byte	0x12c
 7301 0c61 FF060000 		.4byte	.LLST51
 7302 0c65 18       		.uleb128 0x18
 7303 0c66 23010000 		.4byte	0x123
 7304 0c6a 2A070000 		.4byte	.LLST52
 7305 0c6e 18       		.uleb128 0x18
 7306 0c6f 1A010000 		.4byte	0x11a
 7307 0c73 3D070000 		.4byte	.LLST53
 7308 0c77 18       		.uleb128 0x18
 7309 0c78 11010000 		.4byte	0x111
 7310 0c7c 5B070000 		.4byte	.LLST54
 7311 0c80 18       		.uleb128 0x18
 7312 0c81 08010000 		.4byte	0x108
 7313 0c85 87070000 		.4byte	.LLST55
 7314 0c89 29       		.uleb128 0x29
 7315 0c8a 80000000 		.4byte	.Ldebug_ranges0+0x80
 7316 0c8e 22       		.uleb128 0x22
 7317 0c8f 37010000 		.4byte	0x137
 7318 0c93 C9070000 		.4byte	.LLST56
 7319 0c97 22       		.uleb128 0x22
 7320 0c98 41010000 		.4byte	0x141
 7321 0c9c F1070000 		.4byte	.LLST57
 7322 0ca0 19       		.uleb128 0x19
 7323 0ca1 44000000 		.4byte	.LVL116
 7324 0ca5 11050000 		.4byte	0x511
 7325 0ca9 C80C0000 		.4byte	0xcc8
 7326 0cad 1A       		.uleb128 0x1a
 7327 0cae 01       		.uleb128 0x1
 7328 0caf 50       		.byte	0x50
 7329 0cb0 03       		.uleb128 0x3
 7330 0cb1 F3       		.byte	0xf3
 7331 0cb2 01       		.uleb128 0x1
 7332 0cb3 50       		.byte	0x50
 7333 0cb4 1A       		.uleb128 0x1a
 7334 0cb5 01       		.uleb128 0x1
 7335 0cb6 51       		.byte	0x51
ARM GAS  C:\Users\legoc\AppData\Local\Temp\ccMAvaOS.s 			page 152


 7336 0cb7 03       		.uleb128 0x3
 7337 0cb8 F3       		.byte	0xf3
 7338 0cb9 01       		.uleb128 0x1
 7339 0cba 51       		.byte	0x51
 7340 0cbb 1A       		.uleb128 0x1a
 7341 0cbc 01       		.uleb128 0x1
 7342 0cbd 52       		.byte	0x52
 7343 0cbe 02       		.uleb128 0x2
 7344 0cbf 77       		.byte	0x77
 7345 0cc0 00       		.sleb128 0
 7346 0cc1 1A       		.uleb128 0x1a
 7347 0cc2 01       		.uleb128 0x1
 7348 0cc3 53       		.byte	0x53
 7349 0cc4 02       		.uleb128 0x2
 7350 0cc5 78       		.byte	0x78
 7351 0cc6 00       		.sleb128 0
 7352 0cc7 00       		.byte	0
 7353 0cc8 19       		.uleb128 0x19
 7354 0cc9 4A000000 		.4byte	.LVL117
 7355 0ccd CE4A0000 		.4byte	0x4ace
 7356 0cd1 DB0C0000 		.4byte	0xcdb
 7357 0cd5 1A       		.uleb128 0x1a
 7358 0cd6 01       		.uleb128 0x1
 7359 0cd7 50       		.byte	0x50
 7360 0cd8 01       		.uleb128 0x1
 7361 0cd9 31       		.byte	0x31
 7362 0cda 00       		.byte	0
 7363 0cdb 19       		.uleb128 0x19
 7364 0cdc 50000000 		.4byte	.LVL118
 7365 0ce0 EF4A0000 		.4byte	0x4aef
 7366 0ce4 EE0C0000 		.4byte	0xcee
 7367 0ce8 1A       		.uleb128 0x1a
 7368 0ce9 01       		.uleb128 0x1
 7369 0cea 50       		.byte	0x50
 7370 0ceb 01       		.uleb128 0x1
 7371 0cec 30       		.byte	0x30
 7372 0ced 00       		.byte	0
 7373 0cee 19       		.uleb128 0x19
 7374 0cef 6A000000 		.4byte	.LVL123
 7375 0cf3 D94A0000 		.4byte	0x4ad9
 7376 0cf7 020D0000 		.4byte	0xd02
 7377 0cfb 1A       		.uleb128 0x1a
 7378 0cfc 01       		.uleb128 0x1
 7379 0cfd 50       		.byte	0x50
 7380 0cfe 02       		.uleb128 0x2
 7381 0cff 76       		.byte	0x76
 7382 0d00 00       		.sleb128 0
 7383 0d01 00       		.byte	0
 7384 0d02 1B       		.uleb128 0x1b
 7385 0d03 6E000000 		.4byte	.LVL124
 7386 0d07 E44A0000 		.4byte	0x4ae4
 7387 0d0b 19       		.uleb128 0x19
 7388 0d0c 78000000 		.4byte	.LVL125
 7389 0d10 D94A0000 		.4byte	0x4ad9
 7390 0d14 1F0D0000 		.4byte	0xd1f
 7391 0d18 1A       		.uleb128 0x1a
 7392 0d19 01       		.uleb128 0x1
ARM GAS  C:\Users\legoc\AppData\Local\Temp\ccMAvaOS.s 			page 153


 7393 0d1a 50       		.byte	0x50
 7394 0d1b 02       		.uleb128 0x2
 7395 0d1c 75       		.byte	0x75
 7396 0d1d 00       		.sleb128 0
 7397 0d1e 00       		.byte	0
 7398 0d1f 1B       		.uleb128 0x1b
 7399 0d20 7C000000 		.4byte	.LVL126
 7400 0d24 E44A0000 		.4byte	0x4ae4
 7401 0d28 31       		.uleb128 0x31
 7402 0d29 A2000000 		.4byte	.LVL132
 7403 0d2d EF4A0000 		.4byte	0x4aef
 7404 0d31 1A       		.uleb128 0x1a
 7405 0d32 01       		.uleb128 0x1
 7406 0d33 50       		.byte	0x50
 7407 0d34 01       		.uleb128 0x1
 7408 0d35 31       		.byte	0x31
 7409 0d36 00       		.byte	0
 7410 0d37 00       		.byte	0
 7411 0d38 00       		.byte	0
 7412 0d39 00       		.byte	0
 7413 0d3a 17       		.uleb128 0x17
 7414 0d3b 4C010000 		.4byte	0x14c
 7415 0d3f 00000000 		.4byte	.LFB5
 7416 0d43 BE000000 		.4byte	.LFE5-.LFB5
 7417 0d47 01       		.uleb128 0x1
 7418 0d48 9C       		.byte	0x9c
 7419 0d49 960E0000 		.4byte	0xe96
 7420 0d4d 18       		.uleb128 0x18
 7421 0d4e 58010000 		.4byte	0x158
 7422 0d52 10080000 		.4byte	.LLST58
 7423 0d56 18       		.uleb128 0x18
 7424 0d57 61010000 		.4byte	0x161
 7425 0d5b 31080000 		.4byte	.LLST59
 7426 0d5f 18       		.uleb128 0x18
 7427 0d60 6A010000 		.4byte	0x16a
 7428 0d64 52080000 		.4byte	.LLST60
 7429 0d68 18       		.uleb128 0x18
 7430 0d69 73010000 		.4byte	0x173
 7431 0d6d 73080000 		.4byte	.LLST61
 7432 0d71 18       		.uleb128 0x18
 7433 0d72 7C010000 		.4byte	0x17c
 7434 0d76 9F080000 		.4byte	.LLST62
 7435 0d7a 28       		.uleb128 0x28
 7436 0d7b FC000000 		.4byte	0xfc
 7437 0d7f 1C000000 		.4byte	.LBB178
 7438 0d83 98000000 		.4byte	.Ldebug_ranges0+0x98
 7439 0d87 01       		.byte	0x1
 7440 0d88 95       		.byte	0x95
 7441 0d89 18       		.uleb128 0x18
 7442 0d8a 2C010000 		.4byte	0x12c
 7443 0d8e CB080000 		.4byte	.LLST63
 7444 0d92 18       		.uleb128 0x18
 7445 0d93 23010000 		.4byte	0x123
 7446 0d97 F6080000 		.4byte	.LLST64
 7447 0d9b 18       		.uleb128 0x18
 7448 0d9c 1A010000 		.4byte	0x11a
 7449 0da0 14090000 		.4byte	.LLST65
ARM GAS  C:\Users\legoc\AppData\Local\Temp\ccMAvaOS.s 			page 154


 7450 0da4 18       		.uleb128 0x18
 7451 0da5 11010000 		.4byte	0x111
 7452 0da9 27090000 		.4byte	.LLST66
 7453 0dad 18       		.uleb128 0x18
 7454 0dae 08010000 		.4byte	0x108
 7455 0db2 51090000 		.4byte	.LLST67
 7456 0db6 29       		.uleb128 0x29
 7457 0db7 98000000 		.4byte	.Ldebug_ranges0+0x98
 7458 0dbb 2A       		.uleb128 0x2a
 7459 0dbc 37010000 		.4byte	0x137
 7460 0dc0 2A       		.uleb128 0x2a
 7461 0dc1 41010000 		.4byte	0x141
 7462 0dc5 29       		.uleb128 0x29
 7463 0dc6 C0000000 		.4byte	.Ldebug_ranges0+0xc0
 7464 0dca 18       		.uleb128 0x18
 7465 0dcb 2C010000 		.4byte	0x12c
 7466 0dcf 6F090000 		.4byte	.LLST68
 7467 0dd3 18       		.uleb128 0x18
 7468 0dd4 23010000 		.4byte	0x123
 7469 0dd8 9A090000 		.4byte	.LLST69
 7470 0ddc 18       		.uleb128 0x18
 7471 0ddd 1A010000 		.4byte	0x11a
 7472 0de1 AD090000 		.4byte	.LLST70
 7473 0de5 18       		.uleb128 0x18
 7474 0de6 11010000 		.4byte	0x111
 7475 0dea C0090000 		.4byte	.LLST71
 7476 0dee 18       		.uleb128 0x18
 7477 0def 08010000 		.4byte	0x108
 7478 0df3 E4090000 		.4byte	.LLST72
 7479 0df7 29       		.uleb128 0x29
 7480 0df8 C0000000 		.4byte	.Ldebug_ranges0+0xc0
 7481 0dfc 22       		.uleb128 0x22
 7482 0dfd 37010000 		.4byte	0x137
 7483 0e01 230A0000 		.4byte	.LLST73
 7484 0e05 22       		.uleb128 0x22
 7485 0e06 41010000 		.4byte	0x141
 7486 0e0a 4B0A0000 		.4byte	.LLST74
 7487 0e0e 19       		.uleb128 0x19
 7488 0e0f 60000000 		.4byte	.LVL146
 7489 0e13 11050000 		.4byte	0x511
 7490 0e17 220E0000 		.4byte	0xe22
 7491 0e1b 1A       		.uleb128 0x1a
 7492 0e1c 01       		.uleb128 0x1
 7493 0e1d 50       		.byte	0x50
 7494 0e1e 02       		.uleb128 0x2
 7495 0e1f 74       		.byte	0x74
 7496 0e20 00       		.sleb128 0
 7497 0e21 00       		.byte	0
 7498 0e22 19       		.uleb128 0x19
 7499 0e23 66000000 		.4byte	.LVL147
 7500 0e27 CE4A0000 		.4byte	0x4ace
 7501 0e2b 350E0000 		.4byte	0xe35
 7502 0e2f 1A       		.uleb128 0x1a
 7503 0e30 01       		.uleb128 0x1
 7504 0e31 50       		.byte	0x50
 7505 0e32 01       		.uleb128 0x1
 7506 0e33 31       		.byte	0x31
ARM GAS  C:\Users\legoc\AppData\Local\Temp\ccMAvaOS.s 			page 155


 7507 0e34 00       		.byte	0
 7508 0e35 19       		.uleb128 0x19
 7509 0e36 6C000000 		.4byte	.LVL148
 7510 0e3a EF4A0000 		.4byte	0x4aef
 7511 0e3e 480E0000 		.4byte	0xe48
 7512 0e42 1A       		.uleb128 0x1a
 7513 0e43 01       		.uleb128 0x1
 7514 0e44 50       		.byte	0x50
 7515 0e45 01       		.uleb128 0x1
 7516 0e46 30       		.byte	0x30
 7517 0e47 00       		.byte	0
 7518 0e48 19       		.uleb128 0x19
 7519 0e49 86000000 		.4byte	.LVL153
 7520 0e4d D94A0000 		.4byte	0x4ad9
 7521 0e51 5C0E0000 		.4byte	0xe5c
 7522 0e55 1A       		.uleb128 0x1a
 7523 0e56 01       		.uleb128 0x1
 7524 0e57 50       		.byte	0x50
 7525 0e58 02       		.uleb128 0x2
 7526 0e59 76       		.byte	0x76
 7527 0e5a 00       		.sleb128 0
 7528 0e5b 00       		.byte	0
 7529 0e5c 1B       		.uleb128 0x1b
 7530 0e5d 8A000000 		.4byte	.LVL154
 7531 0e61 E44A0000 		.4byte	0x4ae4
 7532 0e65 19       		.uleb128 0x19
 7533 0e66 94000000 		.4byte	.LVL155
 7534 0e6a D94A0000 		.4byte	0x4ad9
 7535 0e6e 790E0000 		.4byte	0xe79
 7536 0e72 1A       		.uleb128 0x1a
 7537 0e73 01       		.uleb128 0x1
 7538 0e74 50       		.byte	0x50
 7539 0e75 02       		.uleb128 0x2
 7540 0e76 75       		.byte	0x75
 7541 0e77 00       		.sleb128 0
 7542 0e78 00       		.byte	0
 7543 0e79 1B       		.uleb128 0x1b
 7544 0e7a 98000000 		.4byte	.LVL156
 7545 0e7e E44A0000 		.4byte	0x4ae4
 7546 0e82 31       		.uleb128 0x31
 7547 0e83 BE000000 		.4byte	.LVL162
 7548 0e87 EF4A0000 		.4byte	0x4aef
 7549 0e8b 1A       		.uleb128 0x1a
 7550 0e8c 01       		.uleb128 0x1
 7551 0e8d 50       		.byte	0x50
 7552 0e8e 01       		.uleb128 0x1
 7553 0e8f 31       		.byte	0x31
 7554 0e90 00       		.byte	0
 7555 0e91 00       		.byte	0
 7556 0e92 00       		.byte	0
 7557 0e93 00       		.byte	0
 7558 0e94 00       		.byte	0
 7559 0e95 00       		.byte	0
 7560 0e96 17       		.uleb128 0x17
 7561 0e97 AE020000 		.4byte	0x2ae
 7562 0e9b 00000000 		.4byte	.LFB6
 7563 0e9f 5C000000 		.4byte	.LFE6-.LFB6
ARM GAS  C:\Users\legoc\AppData\Local\Temp\ccMAvaOS.s 			page 156


 7564 0ea3 01       		.uleb128 0x1
 7565 0ea4 9C       		.byte	0x9c
 7566 0ea5 FB0F0000 		.4byte	0xffb
 7567 0ea9 18       		.uleb128 0x18
 7568 0eaa BA020000 		.4byte	0x2ba
 7569 0eae 5E0A0000 		.4byte	.LLST75
 7570 0eb2 28       		.uleb128 0x28
 7571 0eb3 4C010000 		.4byte	0x14c
 7572 0eb7 00000000 		.4byte	.LBB195
 7573 0ebb D8000000 		.4byte	.Ldebug_ranges0+0xd8
 7574 0ebf 01       		.byte	0x1
 7575 0ec0 9B       		.byte	0x9b
 7576 0ec1 18       		.uleb128 0x18
 7577 0ec2 7C010000 		.4byte	0x17c
 7578 0ec6 7F0A0000 		.4byte	.LLST76
 7579 0eca 21       		.uleb128 0x21
 7580 0ecb 73010000 		.4byte	0x173
 7581 0ecf F0       		.byte	0xf0
 7582 0ed0 32       		.uleb128 0x32
 7583 0ed1 6A010000 		.4byte	0x16a
 7584 0ed5 4001     		.2byte	0x140
 7585 0ed7 21       		.uleb128 0x21
 7586 0ed8 61010000 		.4byte	0x161
 7587 0edc 00       		.byte	0
 7588 0edd 21       		.uleb128 0x21
 7589 0ede 58010000 		.4byte	0x158
 7590 0ee2 00       		.byte	0
 7591 0ee3 28       		.uleb128 0x28
 7592 0ee4 FC000000 		.4byte	0xfc
 7593 0ee8 00000000 		.4byte	.LBB196
 7594 0eec D8000000 		.4byte	.Ldebug_ranges0+0xd8
 7595 0ef0 01       		.byte	0x1
 7596 0ef1 95       		.byte	0x95
 7597 0ef2 18       		.uleb128 0x18
 7598 0ef3 2C010000 		.4byte	0x12c
 7599 0ef7 7F0A0000 		.4byte	.LLST76
 7600 0efb 32       		.uleb128 0x32
 7601 0efc 23010000 		.4byte	0x123
 7602 0f00 4001     		.2byte	0x140
 7603 0f02 21       		.uleb128 0x21
 7604 0f03 1A010000 		.4byte	0x11a
 7605 0f07 F0       		.byte	0xf0
 7606 0f08 21       		.uleb128 0x21
 7607 0f09 11010000 		.4byte	0x111
 7608 0f0d 00       		.byte	0
 7609 0f0e 21       		.uleb128 0x21
 7610 0f0f 08010000 		.4byte	0x108
 7611 0f13 00       		.byte	0
 7612 0f14 29       		.uleb128 0x29
 7613 0f15 D8000000 		.4byte	.Ldebug_ranges0+0xd8
 7614 0f19 2A       		.uleb128 0x2a
 7615 0f1a 37010000 		.4byte	0x137
 7616 0f1e 2A       		.uleb128 0x2a
 7617 0f1f 41010000 		.4byte	0x141
 7618 0f23 29       		.uleb128 0x29
 7619 0f24 D8000000 		.4byte	.Ldebug_ranges0+0xd8
 7620 0f28 18       		.uleb128 0x18
ARM GAS  C:\Users\legoc\AppData\Local\Temp\ccMAvaOS.s 			page 157


 7621 0f29 08010000 		.4byte	0x108
 7622 0f2d 920A0000 		.4byte	.LLST78
 7623 0f31 21       		.uleb128 0x21
 7624 0f32 1A010000 		.4byte	0x11a
 7625 0f36 F0       		.byte	0xf0
 7626 0f37 18       		.uleb128 0x18
 7627 0f38 2C010000 		.4byte	0x12c
 7628 0f3c 7F0A0000 		.4byte	.LLST76
 7629 0f40 32       		.uleb128 0x32
 7630 0f41 23010000 		.4byte	0x123
 7631 0f45 4001     		.2byte	0x140
 7632 0f47 18       		.uleb128 0x18
 7633 0f48 11010000 		.4byte	0x111
 7634 0f4c B30A0000 		.4byte	.LLST80
 7635 0f50 29       		.uleb128 0x29
 7636 0f51 D8000000 		.4byte	.Ldebug_ranges0+0xd8
 7637 0f55 22       		.uleb128 0x22
 7638 0f56 37010000 		.4byte	0x137
 7639 0f5a C70A0000 		.4byte	.LLST81
 7640 0f5e 22       		.uleb128 0x22
 7641 0f5f 41010000 		.4byte	0x141
 7642 0f63 DA0A0000 		.4byte	.LLST82
 7643 0f67 19       		.uleb128 0x19
 7644 0f68 12000000 		.4byte	.LVL166
 7645 0f6c 11050000 		.4byte	0x511
 7646 0f70 8C0F0000 		.4byte	0xf8c
 7647 0f74 1A       		.uleb128 0x1a
 7648 0f75 01       		.uleb128 0x1
 7649 0f76 50       		.byte	0x50
 7650 0f77 01       		.uleb128 0x1
 7651 0f78 30       		.byte	0x30
 7652 0f79 1A       		.uleb128 0x1a
 7653 0f7a 01       		.uleb128 0x1
 7654 0f7b 51       		.byte	0x51
 7655 0f7c 01       		.uleb128 0x1
 7656 0f7d 30       		.byte	0x30
 7657 0f7e 1A       		.uleb128 0x1a
 7658 0f7f 01       		.uleb128 0x1
 7659 0f80 52       		.byte	0x52
 7660 0f81 02       		.uleb128 0x2
 7661 0f82 08       		.byte	0x8
 7662 0f83 F0       		.byte	0xf0
 7663 0f84 1A       		.uleb128 0x1a
 7664 0f85 01       		.uleb128 0x1
 7665 0f86 53       		.byte	0x53
 7666 0f87 03       		.uleb128 0x3
 7667 0f88 0A       		.byte	0xa
 7668 0f89 4001     		.2byte	0x140
 7669 0f8b 00       		.byte	0
 7670 0f8c 19       		.uleb128 0x19
 7671 0f8d 18000000 		.4byte	.LVL167
 7672 0f91 CE4A0000 		.4byte	0x4ace
 7673 0f95 9F0F0000 		.4byte	0xf9f
 7674 0f99 1A       		.uleb128 0x1a
 7675 0f9a 01       		.uleb128 0x1
 7676 0f9b 50       		.byte	0x50
 7677 0f9c 01       		.uleb128 0x1
ARM GAS  C:\Users\legoc\AppData\Local\Temp\ccMAvaOS.s 			page 158


 7678 0f9d 31       		.byte	0x31
 7679 0f9e 00       		.byte	0
 7680 0f9f 19       		.uleb128 0x19
 7681 0fa0 1E000000 		.4byte	.LVL168
 7682 0fa4 EF4A0000 		.4byte	0x4aef
 7683 0fa8 B20F0000 		.4byte	0xfb2
 7684 0fac 1A       		.uleb128 0x1a
 7685 0fad 01       		.uleb128 0x1
 7686 0fae 50       		.byte	0x50
 7687 0faf 01       		.uleb128 0x1
 7688 0fb0 30       		.byte	0x30
 7689 0fb1 00       		.byte	0
 7690 0fb2 19       		.uleb128 0x19
 7691 0fb3 2E000000 		.4byte	.LVL172
 7692 0fb7 D94A0000 		.4byte	0x4ad9
 7693 0fbb C60F0000 		.4byte	0xfc6
 7694 0fbf 1A       		.uleb128 0x1a
 7695 0fc0 01       		.uleb128 0x1
 7696 0fc1 50       		.byte	0x50
 7697 0fc2 02       		.uleb128 0x2
 7698 0fc3 76       		.byte	0x76
 7699 0fc4 00       		.sleb128 0
 7700 0fc5 00       		.byte	0
 7701 0fc6 1B       		.uleb128 0x1b
 7702 0fc7 32000000 		.4byte	.LVL173
 7703 0fcb E44A0000 		.4byte	0x4ae4
 7704 0fcf 19       		.uleb128 0x19
 7705 0fd0 3C000000 		.4byte	.LVL174
 7706 0fd4 D94A0000 		.4byte	0x4ad9
 7707 0fd8 E30F0000 		.4byte	0xfe3
 7708 0fdc 1A       		.uleb128 0x1a
 7709 0fdd 01       		.uleb128 0x1
 7710 0fde 50       		.byte	0x50
 7711 0fdf 02       		.uleb128 0x2
 7712 0fe0 75       		.byte	0x75
 7713 0fe1 00       		.sleb128 0
 7714 0fe2 00       		.byte	0
 7715 0fe3 1B       		.uleb128 0x1b
 7716 0fe4 40000000 		.4byte	.LVL175
 7717 0fe8 E44A0000 		.4byte	0x4ae4
 7718 0fec 33       		.uleb128 0x33
 7719 0fed 5C000000 		.4byte	.LVL177
 7720 0ff1 EF4A0000 		.4byte	0x4aef
 7721 0ff5 00       		.byte	0
 7722 0ff6 00       		.byte	0
 7723 0ff7 00       		.byte	0
 7724 0ff8 00       		.byte	0
 7725 0ff9 00       		.byte	0
 7726 0ffa 00       		.byte	0
 7727 0ffb 34       		.uleb128 0x34
 7728 0ffc 83000000 		.4byte	.LASF69
 7729 1000 01       		.byte	0x1
 7730 1001 9F       		.byte	0x9f
 7731 1002 00000000 		.4byte	.LFB7
 7732 1006 88000000 		.4byte	.LFE7-.LFB7
 7733 100a 01       		.uleb128 0x1
 7734 100b 9C       		.byte	0x9c
ARM GAS  C:\Users\legoc\AppData\Local\Temp\ccMAvaOS.s 			page 159


 7735 100c 0A110000 		.4byte	0x110a
 7736 1010 35       		.uleb128 0x35
 7737 1011 636D6400 		.ascii	"cmd\000"
 7738 1015 01       		.byte	0x1
 7739 1016 A1       		.byte	0xa1
 7740 1017 97000000 		.4byte	0x97
 7741 101b ED0A0000 		.4byte	.LLST83
 7742 101f 1E       		.uleb128 0x1e
 7743 1020 7800     		.ascii	"x\000"
 7744 1022 01       		.byte	0x1
 7745 1023 A1       		.byte	0xa1
 7746 1024 97000000 		.4byte	0x97
 7747 1028 01       		.uleb128 0x1
 7748 1029 59       		.byte	0x59
 7749 102a 36       		.uleb128 0x36
 7750 102b 01010000 		.4byte	.LASF52
 7751 102f 01       		.byte	0x1
 7752 1030 A1       		.byte	0xa1
 7753 1031 97000000 		.4byte	0x97
 7754 1035 0E0B0000 		.4byte	.LLST84
 7755 1039 36       		.uleb128 0x36
 7756 103a E2050000 		.4byte	.LASF53
 7757 103e 01       		.byte	0x1
 7758 103f A2       		.byte	0xa2
 7759 1040 0A110000 		.4byte	0x110a
 7760 1044 700B0000 		.4byte	.LLST85
 7761 1048 20       		.uleb128 0x20
 7762 1049 35040000 		.4byte	0x435
 7763 104d 08000000 		.4byte	.LBB224
 7764 1051 1C000000 		.4byte	.LBE224-.LBB224
 7765 1055 01       		.byte	0x1
 7766 1056 A7       		.byte	0xa7
 7767 1057 9A100000 		.4byte	0x109a
 7768 105b 27       		.uleb128 0x27
 7769 105c 41040000 		.4byte	0x441
 7770 1060 19       		.uleb128 0x19
 7771 1061 0E000000 		.4byte	.LVL180
 7772 1065 CE4A0000 		.4byte	0x4ace
 7773 1069 73100000 		.4byte	0x1073
 7774 106d 1A       		.uleb128 0x1a
 7775 106e 01       		.uleb128 0x1
 7776 106f 50       		.byte	0x50
 7777 1070 01       		.uleb128 0x1
 7778 1071 30       		.byte	0x30
 7779 1072 00       		.byte	0
 7780 1073 19       		.uleb128 0x19
 7781 1074 14000000 		.4byte	.LVL181
 7782 1078 D94A0000 		.4byte	0x4ad9
 7783 107c 87100000 		.4byte	0x1087
 7784 1080 1A       		.uleb128 0x1a
 7785 1081 01       		.uleb128 0x1
 7786 1082 50       		.byte	0x50
 7787 1083 02       		.uleb128 0x2
 7788 1084 74       		.byte	0x74
 7789 1085 00       		.sleb128 0
 7790 1086 00       		.byte	0
 7791 1087 1B       		.uleb128 0x1b
ARM GAS  C:\Users\legoc\AppData\Local\Temp\ccMAvaOS.s 			page 160


 7792 1088 18000000 		.4byte	.LVL182
 7793 108c E44A0000 		.4byte	0x4ae4
 7794 1090 1B       		.uleb128 0x1b
 7795 1091 20000000 		.4byte	.LVL183
 7796 1095 E44A0000 		.4byte	0x4ae4
 7797 1099 00       		.byte	0
 7798 109a 20       		.uleb128 0x20
 7799 109b A3040000 		.4byte	0x4a3
 7800 109f 3E000000 		.4byte	.LBB226
 7801 10a3 26000000 		.4byte	.LBE226-.LBB226
 7802 10a7 01       		.byte	0x1
 7803 10a8 AC       		.byte	0xac
 7804 10a9 F9100000 		.4byte	0x10f9
 7805 10ad 18       		.uleb128 0x18
 7806 10ae AF040000 		.4byte	0x4af
 7807 10b2 CE0B0000 		.4byte	.LLST86
 7808 10b6 19       		.uleb128 0x19
 7809 10b7 44000000 		.4byte	.LVL188
 7810 10bb CE4A0000 		.4byte	0x4ace
 7811 10bf C9100000 		.4byte	0x10c9
 7812 10c3 1A       		.uleb128 0x1a
 7813 10c4 01       		.uleb128 0x1
 7814 10c5 50       		.byte	0x50
 7815 10c6 01       		.uleb128 0x1
 7816 10c7 31       		.byte	0x31
 7817 10c8 00       		.byte	0
 7818 10c9 19       		.uleb128 0x19
 7819 10ca 4A000000 		.4byte	.LVL189
 7820 10ce D94A0000 		.4byte	0x4ad9
 7821 10d2 DD100000 		.4byte	0x10dd
 7822 10d6 1A       		.uleb128 0x1a
 7823 10d7 01       		.uleb128 0x1
 7824 10d8 50       		.byte	0x50
 7825 10d9 02       		.uleb128 0x2
 7826 10da 75       		.byte	0x75
 7827 10db 00       		.sleb128 0
 7828 10dc 00       		.byte	0
 7829 10dd 1B       		.uleb128 0x1b
 7830 10de 4E000000 		.4byte	.LVL190
 7831 10e2 E44A0000 		.4byte	0x4ae4
 7832 10e6 1B       		.uleb128 0x1b
 7833 10e7 56000000 		.4byte	.LVL191
 7834 10eb E44A0000 		.4byte	0x4ae4
 7835 10ef 1B       		.uleb128 0x1b
 7836 10f0 5E000000 		.4byte	.LVL192
 7837 10f4 E44A0000 		.4byte	0x4ae4
 7838 10f8 00       		.byte	0
 7839 10f9 2C       		.uleb128 0x2c
 7840 10fa 80000000 		.4byte	.LVL197
 7841 10fe 0F4B0000 		.4byte	0x4b0f
 7842 1102 1A       		.uleb128 0x1a
 7843 1103 01       		.uleb128 0x1
 7844 1104 50       		.byte	0x50
 7845 1105 02       		.uleb128 0x2
 7846 1106 08       		.byte	0x8
 7847 1107 78       		.byte	0x78
 7848 1108 00       		.byte	0
ARM GAS  C:\Users\legoc\AppData\Local\Temp\ccMAvaOS.s 			page 161


 7849 1109 00       		.byte	0
 7850 110a 05       		.uleb128 0x5
 7851 110b 04       		.byte	0x4
 7852 110c 10110000 		.4byte	0x1110
 7853 1110 30       		.uleb128 0x30
 7854 1111 97000000 		.4byte	0x97
 7855 1115 17       		.uleb128 0x17
 7856 1116 88010000 		.4byte	0x188
 7857 111a 00000000 		.4byte	.LFB8
 7858 111e 4C000000 		.4byte	.LFE8-.LFB8
 7859 1122 01       		.uleb128 0x1
 7860 1123 9C       		.byte	0x9c
 7861 1124 E4110000 		.4byte	0x11e4
 7862 1128 18       		.uleb128 0x18
 7863 1129 94010000 		.4byte	0x194
 7864 112d E10B0000 		.4byte	.LLST87
 7865 1131 18       		.uleb128 0x18
 7866 1132 9D010000 		.4byte	0x19d
 7867 1136 020C0000 		.4byte	.LLST88
 7868 113a 18       		.uleb128 0x18
 7869 113b A6010000 		.4byte	0x1a6
 7870 113f 230C0000 		.4byte	.LLST89
 7871 1143 2E       		.uleb128 0x2e
 7872 1144 08010000 		.4byte	.Ldebug_ranges0+0x108
 7873 1148 86110000 		.4byte	0x1186
 7874 114c 27       		.uleb128 0x27
 7875 114d 94010000 		.4byte	0x194
 7876 1151 27       		.uleb128 0x27
 7877 1152 9D010000 		.4byte	0x19d
 7878 1156 18       		.uleb128 0x18
 7879 1157 A6010000 		.4byte	0x1a6
 7880 115b 440C0000 		.4byte	.LLST90
 7881 115f 19       		.uleb128 0x19
 7882 1160 3C000000 		.4byte	.LVL207
 7883 1164 D94A0000 		.4byte	0x4ad9
 7884 1168 73110000 		.4byte	0x1173
 7885 116c 1A       		.uleb128 0x1a
 7886 116d 01       		.uleb128 0x1
 7887 116e 50       		.byte	0x50
 7888 116f 02       		.uleb128 0x2
 7889 1170 74       		.byte	0x74
 7890 1171 00       		.sleb128 0
 7891 1172 00       		.byte	0
 7892 1173 1B       		.uleb128 0x1b
 7893 1174 40000000 		.4byte	.LVL208
 7894 1178 E44A0000 		.4byte	0x4ae4
 7895 117c 33       		.uleb128 0x33
 7896 117d 4C000000 		.4byte	.LVL210
 7897 1181 EF4A0000 		.4byte	0x4aef
 7898 1185 00       		.byte	0
 7899 1186 19       		.uleb128 0x19
 7900 1187 1C000000 		.4byte	.LVL201
 7901 118b 11050000 		.4byte	0x511
 7902 118f 9E110000 		.4byte	0x119e
 7903 1193 1A       		.uleb128 0x1a
 7904 1194 01       		.uleb128 0x1
 7905 1195 52       		.byte	0x52
ARM GAS  C:\Users\legoc\AppData\Local\Temp\ccMAvaOS.s 			page 162


 7906 1196 01       		.uleb128 0x1
 7907 1197 31       		.byte	0x31
 7908 1198 1A       		.uleb128 0x1a
 7909 1199 01       		.uleb128 0x1
 7910 119a 53       		.byte	0x53
 7911 119b 01       		.uleb128 0x1
 7912 119c 31       		.byte	0x31
 7913 119d 00       		.byte	0
 7914 119e 19       		.uleb128 0x19
 7915 119f 22000000 		.4byte	.LVL202
 7916 11a3 CE4A0000 		.4byte	0x4ace
 7917 11a7 B1110000 		.4byte	0x11b1
 7918 11ab 1A       		.uleb128 0x1a
 7919 11ac 01       		.uleb128 0x1
 7920 11ad 50       		.byte	0x50
 7921 11ae 01       		.uleb128 0x1
 7922 11af 31       		.byte	0x31
 7923 11b0 00       		.byte	0
 7924 11b1 19       		.uleb128 0x19
 7925 11b2 28000000 		.4byte	.LVL203
 7926 11b6 EF4A0000 		.4byte	0x4aef
 7927 11ba C4110000 		.4byte	0x11c4
 7928 11be 1A       		.uleb128 0x1a
 7929 11bf 01       		.uleb128 0x1
 7930 11c0 50       		.byte	0x50
 7931 11c1 01       		.uleb128 0x1
 7932 11c2 30       		.byte	0x30
 7933 11c3 00       		.byte	0
 7934 11c4 19       		.uleb128 0x19
 7935 11c5 2E000000 		.4byte	.LVL204
 7936 11c9 D94A0000 		.4byte	0x4ad9
 7937 11cd DA110000 		.4byte	0x11da
 7938 11d1 1A       		.uleb128 0x1a
 7939 11d2 01       		.uleb128 0x1
 7940 11d3 50       		.byte	0x50
 7941 11d4 04       		.uleb128 0x4
 7942 11d5 74       		.byte	0x74
 7943 11d6 00       		.sleb128 0
 7944 11d7 38       		.byte	0x38
 7945 11d8 25       		.byte	0x25
 7946 11d9 00       		.byte	0
 7947 11da 1B       		.uleb128 0x1b
 7948 11db 32000000 		.4byte	.LVL205
 7949 11df E44A0000 		.4byte	0x4ae4
 7950 11e3 00       		.byte	0
 7951 11e4 17       		.uleb128 0x17
 7952 11e5 B2010000 		.4byte	0x1b2
 7953 11e9 00000000 		.4byte	.LFB9
 7954 11ed 58000000 		.4byte	.LFE9-.LFB9
 7955 11f1 01       		.uleb128 0x1
 7956 11f2 9C       		.byte	0x9c
 7957 11f3 EC120000 		.4byte	0x12ec
 7958 11f7 18       		.uleb128 0x18
 7959 11f8 BE010000 		.4byte	0x1be
 7960 11fc 570C0000 		.4byte	.LLST91
 7961 1200 18       		.uleb128 0x18
 7962 1201 C7010000 		.4byte	0x1c7
ARM GAS  C:\Users\legoc\AppData\Local\Temp\ccMAvaOS.s 			page 163


 7963 1205 780C0000 		.4byte	.LLST92
 7964 1209 18       		.uleb128 0x18
 7965 120a D0010000 		.4byte	0x1d0
 7966 120e 990C0000 		.4byte	.LLST93
 7967 1212 28       		.uleb128 0x28
 7968 1213 88010000 		.4byte	0x188
 7969 1217 08000000 		.4byte	.LBB238
 7970 121b 20010000 		.4byte	.Ldebug_ranges0+0x120
 7971 121f 01       		.byte	0x1
 7972 1220 CF       		.byte	0xcf
 7973 1221 18       		.uleb128 0x18
 7974 1222 A6010000 		.4byte	0x1a6
 7975 1226 C50C0000 		.4byte	.LLST94
 7976 122a 18       		.uleb128 0x18
 7977 122b 9D010000 		.4byte	0x19d
 7978 122f F10C0000 		.4byte	.LLST95
 7979 1233 18       		.uleb128 0x18
 7980 1234 94010000 		.4byte	0x194
 7981 1238 1C0D0000 		.4byte	.LLST96
 7982 123c 2E       		.uleb128 0x2e
 7983 123d 40010000 		.4byte	.Ldebug_ranges0+0x140
 7984 1241 87120000 		.4byte	0x1287
 7985 1245 18       		.uleb128 0x18
 7986 1246 94010000 		.4byte	0x194
 7987 124a 3A0D0000 		.4byte	.LLST97
 7988 124e 18       		.uleb128 0x18
 7989 124f 9D010000 		.4byte	0x19d
 7990 1253 4D0D0000 		.4byte	.LLST98
 7991 1257 18       		.uleb128 0x18
 7992 1258 A6010000 		.4byte	0x1a6
 7993 125c 670D0000 		.4byte	.LLST99
 7994 1260 19       		.uleb128 0x19
 7995 1261 46000000 		.4byte	.LVL222
 7996 1265 D94A0000 		.4byte	0x4ad9
 7997 1269 74120000 		.4byte	0x1274
 7998 126d 1A       		.uleb128 0x1a
 7999 126e 01       		.uleb128 0x1
 8000 126f 50       		.byte	0x50
 8001 1270 02       		.uleb128 0x2
 8002 1271 75       		.byte	0x75
 8003 1272 00       		.sleb128 0
 8004 1273 00       		.byte	0
 8005 1274 1B       		.uleb128 0x1b
 8006 1275 4A000000 		.4byte	.LVL223
 8007 1279 E44A0000 		.4byte	0x4ae4
 8008 127d 33       		.uleb128 0x33
 8009 127e 56000000 		.4byte	.LVL225
 8010 1282 EF4A0000 		.4byte	0x4aef
 8011 1286 00       		.byte	0
 8012 1287 19       		.uleb128 0x19
 8013 1288 26000000 		.4byte	.LVL216
 8014 128c 11050000 		.4byte	0x511
 8015 1290 A5120000 		.4byte	0x12a5
 8016 1294 1A       		.uleb128 0x1a
 8017 1295 01       		.uleb128 0x1
 8018 1296 50       		.byte	0x50
 8019 1297 02       		.uleb128 0x2
ARM GAS  C:\Users\legoc\AppData\Local\Temp\ccMAvaOS.s 			page 164


 8020 1298 74       		.byte	0x74
 8021 1299 00       		.sleb128 0
 8022 129a 1A       		.uleb128 0x1a
 8023 129b 01       		.uleb128 0x1
 8024 129c 52       		.byte	0x52
 8025 129d 01       		.uleb128 0x1
 8026 129e 31       		.byte	0x31
 8027 129f 1A       		.uleb128 0x1a
 8028 12a0 01       		.uleb128 0x1
 8029 12a1 53       		.byte	0x53
 8030 12a2 01       		.uleb128 0x1
 8031 12a3 31       		.byte	0x31
 8032 12a4 00       		.byte	0
 8033 12a5 19       		.uleb128 0x19
 8034 12a6 2C000000 		.4byte	.LVL217
 8035 12aa CE4A0000 		.4byte	0x4ace
 8036 12ae B8120000 		.4byte	0x12b8
 8037 12b2 1A       		.uleb128 0x1a
 8038 12b3 01       		.uleb128 0x1
 8039 12b4 50       		.byte	0x50
 8040 12b5 01       		.uleb128 0x1
 8041 12b6 31       		.byte	0x31
 8042 12b7 00       		.byte	0
 8043 12b8 19       		.uleb128 0x19
 8044 12b9 32000000 		.4byte	.LVL218
 8045 12bd EF4A0000 		.4byte	0x4aef
 8046 12c1 CB120000 		.4byte	0x12cb
 8047 12c5 1A       		.uleb128 0x1a
 8048 12c6 01       		.uleb128 0x1
 8049 12c7 50       		.byte	0x50
 8050 12c8 01       		.uleb128 0x1
 8051 12c9 30       		.byte	0x30
 8052 12ca 00       		.byte	0
 8053 12cb 19       		.uleb128 0x19
 8054 12cc 38000000 		.4byte	.LVL219
 8055 12d0 D94A0000 		.4byte	0x4ad9
 8056 12d4 E1120000 		.4byte	0x12e1
 8057 12d8 1A       		.uleb128 0x1a
 8058 12d9 01       		.uleb128 0x1
 8059 12da 50       		.byte	0x50
 8060 12db 04       		.uleb128 0x4
 8061 12dc 75       		.byte	0x75
 8062 12dd 00       		.sleb128 0
 8063 12de 38       		.byte	0x38
 8064 12df 25       		.byte	0x25
 8065 12e0 00       		.byte	0
 8066 12e1 1B       		.uleb128 0x1b
 8067 12e2 3C000000 		.4byte	.LVL220
 8068 12e6 E44A0000 		.4byte	0x4ae4
 8069 12ea 00       		.byte	0
 8070 12eb 00       		.byte	0
 8071 12ec 1C       		.uleb128 0x1c
 8072 12ed 73060000 		.4byte	.LASF55
 8073 12f1 01       		.byte	0x1
 8074 12f2 D4       		.byte	0xd4
 8075 12f3 00000000 		.4byte	.LFB10
 8076 12f7 64010000 		.4byte	.LFE10-.LFB10
ARM GAS  C:\Users\legoc\AppData\Local\Temp\ccMAvaOS.s 			page 165


 8077 12fb 01       		.uleb128 0x1
 8078 12fc 9C       		.byte	0x9c
 8079 12fd D4150000 		.4byte	0x15d4
 8080 1301 1D       		.uleb128 0x1d
 8081 1302 783000   		.ascii	"x0\000"
 8082 1305 01       		.byte	0x1
 8083 1306 D4       		.byte	0xd4
 8084 1307 A2000000 		.4byte	0xa2
 8085 130b 7A0D0000 		.4byte	.LLST100
 8086 130f 1D       		.uleb128 0x1d
 8087 1310 793000   		.ascii	"y0\000"
 8088 1313 01       		.byte	0x1
 8089 1314 D4       		.byte	0xd4
 8090 1315 A2000000 		.4byte	0xa2
 8091 1319 B90D0000 		.4byte	.LLST101
 8092 131d 1D       		.uleb128 0x1d
 8093 131e 783100   		.ascii	"x1\000"
 8094 1321 01       		.byte	0x1
 8095 1322 D4       		.byte	0xd4
 8096 1323 A2000000 		.4byte	0xa2
 8097 1327 090E0000 		.4byte	.LLST102
 8098 132b 1D       		.uleb128 0x1d
 8099 132c 793100   		.ascii	"y1\000"
 8100 132f 01       		.byte	0x1
 8101 1330 D4       		.byte	0xd4
 8102 1331 A2000000 		.4byte	0xa2
 8103 1335 4E0E0000 		.4byte	.LLST103
 8104 1339 37       		.uleb128 0x37
 8105 133a 5B050000 		.4byte	.LASF22
 8106 133e 01       		.byte	0x1
 8107 133f D5       		.byte	0xd5
 8108 1340 AD000000 		.4byte	0xad
 8109 1344 9B0E0000 		.4byte	.LLST104
 8110 1348 38       		.uleb128 0x38
 8111 1349 E3030000 		.4byte	.LASF56
 8112 134d 01       		.byte	0x1
 8113 134e D7       		.byte	0xd7
 8114 134f A2000000 		.4byte	0xa2
 8115 1353 09       		.uleb128 0x9
 8116 1354 7A       		.byte	0x7a
 8117 1355 00       		.sleb128 0
 8118 1356 7B       		.byte	0x7b
 8119 1357 00       		.sleb128 0
 8120 1358 2B       		.byte	0x2b
 8121 1359 08       		.byte	0x8
 8122 135a FF       		.byte	0xff
 8123 135b 1A       		.byte	0x1a
 8124 135c 9F       		.byte	0x9f
 8125 135d 35       		.uleb128 0x35
 8126 135e 647800   		.ascii	"dx\000"
 8127 1361 01       		.byte	0x1
 8128 1362 E3       		.byte	0xe3
 8129 1363 A2000000 		.4byte	0xa2
 8130 1367 BB0E0000 		.4byte	.LLST105
 8131 136b 35       		.uleb128 0x35
 8132 136c 647900   		.ascii	"dy\000"
 8133 136f 01       		.byte	0x1
ARM GAS  C:\Users\legoc\AppData\Local\Temp\ccMAvaOS.s 			page 166


 8134 1370 E3       		.byte	0xe3
 8135 1371 A2000000 		.4byte	0xa2
 8136 1375 E50E0000 		.4byte	.LLST106
 8137 1379 35       		.uleb128 0x35
 8138 137a 65727200 		.ascii	"err\000"
 8139 137e 01       		.byte	0x1
 8140 137f E7       		.byte	0xe7
 8141 1380 A2000000 		.4byte	0xa2
 8142 1384 1F0F0000 		.4byte	.LLST107
 8143 1388 39       		.uleb128 0x39
 8144 1389 C2040000 		.4byte	.LASF57
 8145 138d 01       		.byte	0x1
 8146 138e E8       		.byte	0xe8
 8147 138f A2000000 		.4byte	0xa2
 8148 1393 2E       		.uleb128 0x2e
 8149 1394 58010000 		.4byte	.Ldebug_ranges0+0x158
 8150 1398 A6130000 		.4byte	0x13a6
 8151 139c 0B       		.uleb128 0xb
 8152 139d 7400     		.ascii	"t\000"
 8153 139f 01       		.byte	0x1
 8154 13a0 E0       		.byte	0xe0
 8155 13a1 A2000000 		.4byte	0xa2
 8156 13a5 00       		.byte	0
 8157 13a6 1F       		.uleb128 0x1f
 8158 13a7 B2010000 		.4byte	0x1b2
 8159 13ab 76000000 		.4byte	.LBB266
 8160 13af 70010000 		.4byte	.Ldebug_ranges0+0x170
 8161 13b3 01       		.byte	0x1
 8162 13b4 F5       		.byte	0xf5
 8163 13b5 AA140000 		.4byte	0x14aa
 8164 13b9 27       		.uleb128 0x27
 8165 13ba D0010000 		.4byte	0x1d0
 8166 13be 18       		.uleb128 0x18
 8167 13bf C7010000 		.4byte	0x1c7
 8168 13c3 530F0000 		.4byte	.LLST108
 8169 13c7 18       		.uleb128 0x18
 8170 13c8 BE010000 		.4byte	0x1be
 8171 13cc 660F0000 		.4byte	.LLST109
 8172 13d0 28       		.uleb128 0x28
 8173 13d1 88010000 		.4byte	0x188
 8174 13d5 76000000 		.4byte	.LBB268
 8175 13d9 88010000 		.4byte	.Ldebug_ranges0+0x188
 8176 13dd 01       		.byte	0x1
 8177 13de CF       		.byte	0xcf
 8178 13df 27       		.uleb128 0x27
 8179 13e0 A6010000 		.4byte	0x1a6
 8180 13e4 18       		.uleb128 0x18
 8181 13e5 9D010000 		.4byte	0x19d
 8182 13e9 790F0000 		.4byte	.LLST110
 8183 13ed 18       		.uleb128 0x18
 8184 13ee 94010000 		.4byte	0x194
 8185 13f2 920F0000 		.4byte	.LLST111
 8186 13f6 2D       		.uleb128 0x2d
 8187 13f7 C4000000 		.4byte	.LBB270
 8188 13fb 0E000000 		.4byte	.LBE270-.LBB270
 8189 13ff 3A140000 		.4byte	0x143a
 8190 1403 18       		.uleb128 0x18
ARM GAS  C:\Users\legoc\AppData\Local\Temp\ccMAvaOS.s 			page 167


 8191 1404 94010000 		.4byte	0x194
 8192 1408 B30F0000 		.4byte	.LLST112
 8193 140c 18       		.uleb128 0x18
 8194 140d 9D010000 		.4byte	0x19d
 8195 1411 C90F0000 		.4byte	.LLST113
 8196 1415 27       		.uleb128 0x27
 8197 1416 A6010000 		.4byte	0x1a6
 8198 141a 19       		.uleb128 0x19
 8199 141b CA000000 		.4byte	.LVL248
 8200 141f D94A0000 		.4byte	0x4ad9
 8201 1423 30140000 		.4byte	0x1430
 8202 1427 1A       		.uleb128 0x1a
 8203 1428 01       		.uleb128 0x1
 8204 1429 50       		.byte	0x50
 8205 142a 04       		.uleb128 0x4
 8206 142b 91       		.byte	0x91
 8207 142c 54       		.sleb128 -44
 8208 142d 94       		.byte	0x94
 8209 142e 01       		.byte	0x1
 8210 142f 00       		.byte	0
 8211 1430 1B       		.uleb128 0x1b
 8212 1431 CE000000 		.4byte	.LVL249
 8213 1435 E44A0000 		.4byte	0x4ae4
 8214 1439 00       		.byte	0
 8215 143a 19       		.uleb128 0x19
 8216 143b AA000000 		.4byte	.LVL242
 8217 143f 11050000 		.4byte	0x511
 8218 1443 63140000 		.4byte	0x1463
 8219 1447 1A       		.uleb128 0x1a
 8220 1448 01       		.uleb128 0x1
 8221 1449 50       		.byte	0x50
 8222 144a 03       		.uleb128 0x3
 8223 144b 76       		.byte	0x76
 8224 144c B07F     		.sleb128 -80
 8225 144e 1A       		.uleb128 0x1a
 8226 144f 01       		.uleb128 0x1
 8227 1450 51       		.byte	0x51
 8228 1451 06       		.uleb128 0x6
 8229 1452 0A       		.byte	0xa
 8230 1453 3F01     		.2byte	0x13f
 8231 1455 77       		.byte	0x77
 8232 1456 00       		.sleb128 0
 8233 1457 1C       		.byte	0x1c
 8234 1458 1A       		.uleb128 0x1a
 8235 1459 01       		.uleb128 0x1
 8236 145a 52       		.byte	0x52
 8237 145b 01       		.uleb128 0x1
 8238 145c 31       		.byte	0x31
 8239 145d 1A       		.uleb128 0x1a
 8240 145e 01       		.uleb128 0x1
 8241 145f 53       		.byte	0x53
 8242 1460 01       		.uleb128 0x1
 8243 1461 31       		.byte	0x31
 8244 1462 00       		.byte	0
 8245 1463 19       		.uleb128 0x19
 8246 1464 B0000000 		.4byte	.LVL243
 8247 1468 CE4A0000 		.4byte	0x4ace
ARM GAS  C:\Users\legoc\AppData\Local\Temp\ccMAvaOS.s 			page 168


 8248 146c 76140000 		.4byte	0x1476
 8249 1470 1A       		.uleb128 0x1a
 8250 1471 01       		.uleb128 0x1
 8251 1472 50       		.byte	0x50
 8252 1473 01       		.uleb128 0x1
 8253 1474 31       		.byte	0x31
 8254 1475 00       		.byte	0
 8255 1476 19       		.uleb128 0x19
 8256 1477 B6000000 		.4byte	.LVL244
 8257 147b EF4A0000 		.4byte	0x4aef
 8258 147f 89140000 		.4byte	0x1489
 8259 1483 1A       		.uleb128 0x1a
 8260 1484 01       		.uleb128 0x1
 8261 1485 50       		.byte	0x50
 8262 1486 01       		.uleb128 0x1
 8263 1487 30       		.byte	0x30
 8264 1488 00       		.byte	0
 8265 1489 19       		.uleb128 0x19
 8266 148a BC000000 		.4byte	.LVL245
 8267 148e D94A0000 		.4byte	0x4ad9
 8268 1492 9F140000 		.4byte	0x149f
 8269 1496 1A       		.uleb128 0x1a
 8270 1497 01       		.uleb128 0x1
 8271 1498 50       		.byte	0x50
 8272 1499 04       		.uleb128 0x4
 8273 149a 91       		.byte	0x91
 8274 149b 50       		.sleb128 -48
 8275 149c 94       		.byte	0x94
 8276 149d 01       		.byte	0x1
 8277 149e 00       		.byte	0
 8278 149f 1B       		.uleb128 0x1b
 8279 14a0 C0000000 		.4byte	.LVL246
 8280 14a4 E44A0000 		.4byte	0x4ae4
 8281 14a8 00       		.byte	0
 8282 14a9 00       		.byte	0
 8283 14aa 1F       		.uleb128 0x1f
 8284 14ab B2010000 		.4byte	0x1b2
 8285 14af 7C000000 		.4byte	.LBB279
 8286 14b3 B0010000 		.4byte	.Ldebug_ranges0+0x1b0
 8287 14b7 01       		.byte	0x1
 8288 14b8 F8       		.byte	0xf8
 8289 14b9 B1150000 		.4byte	0x15b1
 8290 14bd 27       		.uleb128 0x27
 8291 14be D0010000 		.4byte	0x1d0
 8292 14c2 18       		.uleb128 0x18
 8293 14c3 C7010000 		.4byte	0x1c7
 8294 14c7 E20F0000 		.4byte	.LLST114
 8295 14cb 18       		.uleb128 0x18
 8296 14cc BE010000 		.4byte	0x1be
 8297 14d0 F50F0000 		.4byte	.LLST115
 8298 14d4 28       		.uleb128 0x28
 8299 14d5 88010000 		.4byte	0x188
 8300 14d9 7C000000 		.4byte	.LBB281
 8301 14dd D0010000 		.4byte	.Ldebug_ranges0+0x1d0
 8302 14e1 01       		.byte	0x1
 8303 14e2 CF       		.byte	0xcf
 8304 14e3 27       		.uleb128 0x27
ARM GAS  C:\Users\legoc\AppData\Local\Temp\ccMAvaOS.s 			page 169


 8305 14e4 A6010000 		.4byte	0x1a6
 8306 14e8 18       		.uleb128 0x18
 8307 14e9 9D010000 		.4byte	0x19d
 8308 14ed 08100000 		.4byte	.LLST116
 8309 14f1 18       		.uleb128 0x18
 8310 14f2 94010000 		.4byte	0x194
 8311 14f6 21100000 		.4byte	.LLST117
 8312 14fa 2E       		.uleb128 0x2e
 8313 14fb F0010000 		.4byte	.Ldebug_ranges0+0x1f0
 8314 14ff 43150000 		.4byte	0x1543
 8315 1503 18       		.uleb128 0x18
 8316 1504 94010000 		.4byte	0x194
 8317 1508 44100000 		.4byte	.LLST118
 8318 150c 18       		.uleb128 0x18
 8319 150d 9D010000 		.4byte	0x19d
 8320 1511 5C100000 		.4byte	.LLST119
 8321 1515 27       		.uleb128 0x27
 8322 1516 A6010000 		.4byte	0x1a6
 8323 151a 1B       		.uleb128 0x1b
 8324 151b D6000000 		.4byte	.LVL251
 8325 151f EF4A0000 		.4byte	0x4aef
 8326 1523 19       		.uleb128 0x19
 8327 1524 32010000 		.4byte	.LVL264
 8328 1528 D94A0000 		.4byte	0x4ad9
 8329 152c 39150000 		.4byte	0x1539
 8330 1530 1A       		.uleb128 0x1a
 8331 1531 01       		.uleb128 0x1
 8332 1532 50       		.byte	0x50
 8333 1533 04       		.uleb128 0x4
 8334 1534 91       		.byte	0x91
 8335 1535 54       		.sleb128 -44
 8336 1536 94       		.byte	0x94
 8337 1537 01       		.byte	0x1
 8338 1538 00       		.byte	0
 8339 1539 1B       		.uleb128 0x1b
 8340 153a 36010000 		.4byte	.LVL265
 8341 153e E44A0000 		.4byte	0x4ae4
 8342 1542 00       		.byte	0
 8343 1543 19       		.uleb128 0x19
 8344 1544 12010000 		.4byte	.LVL258
 8345 1548 11050000 		.4byte	0x511
 8346 154c 6A150000 		.4byte	0x156a
 8347 1550 1A       		.uleb128 0x1a
 8348 1551 01       		.uleb128 0x1
 8349 1552 50       		.byte	0x50
 8350 1553 05       		.uleb128 0x5
 8351 1554 08       		.byte	0x8
 8352 1555 EF       		.byte	0xef
 8353 1556 77       		.byte	0x77
 8354 1557 00       		.sleb128 0
 8355 1558 1C       		.byte	0x1c
 8356 1559 1A       		.uleb128 0x1a
 8357 155a 01       		.uleb128 0x1
 8358 155b 51       		.byte	0x51
 8359 155c 02       		.uleb128 0x2
 8360 155d 76       		.byte	0x76
 8361 155e 00       		.sleb128 0
ARM GAS  C:\Users\legoc\AppData\Local\Temp\ccMAvaOS.s 			page 170


 8362 155f 1A       		.uleb128 0x1a
 8363 1560 01       		.uleb128 0x1
 8364 1561 52       		.byte	0x52
 8365 1562 01       		.uleb128 0x1
 8366 1563 31       		.byte	0x31
 8367 1564 1A       		.uleb128 0x1a
 8368 1565 01       		.uleb128 0x1
 8369 1566 53       		.byte	0x53
 8370 1567 01       		.uleb128 0x1
 8371 1568 31       		.byte	0x31
 8372 1569 00       		.byte	0
 8373 156a 19       		.uleb128 0x19
 8374 156b 18010000 		.4byte	.LVL259
 8375 156f CE4A0000 		.4byte	0x4ace
 8376 1573 7D150000 		.4byte	0x157d
 8377 1577 1A       		.uleb128 0x1a
 8378 1578 01       		.uleb128 0x1
 8379 1579 50       		.byte	0x50
 8380 157a 01       		.uleb128 0x1
 8381 157b 31       		.byte	0x31
 8382 157c 00       		.byte	0
 8383 157d 19       		.uleb128 0x19
 8384 157e 1E010000 		.4byte	.LVL260
 8385 1582 EF4A0000 		.4byte	0x4aef
 8386 1586 90150000 		.4byte	0x1590
 8387 158a 1A       		.uleb128 0x1a
 8388 158b 01       		.uleb128 0x1
 8389 158c 50       		.byte	0x50
 8390 158d 01       		.uleb128 0x1
 8391 158e 30       		.byte	0x30
 8392 158f 00       		.byte	0
 8393 1590 19       		.uleb128 0x19
 8394 1591 24010000 		.4byte	.LVL261
 8395 1595 D94A0000 		.4byte	0x4ad9
 8396 1599 A6150000 		.4byte	0x15a6
 8397 159d 1A       		.uleb128 0x1a
 8398 159e 01       		.uleb128 0x1
 8399 159f 50       		.byte	0x50
 8400 15a0 04       		.uleb128 0x4
 8401 15a1 91       		.byte	0x91
 8402 15a2 50       		.sleb128 -48
 8403 15a3 94       		.byte	0x94
 8404 15a4 01       		.byte	0x1
 8405 15a5 00       		.byte	0
 8406 15a6 1B       		.uleb128 0x1b
 8407 15a7 28010000 		.4byte	.LVL262
 8408 15ab E44A0000 		.4byte	0x4ae4
 8409 15af 00       		.byte	0
 8410 15b0 00       		.byte	0
 8411 15b1 2E       		.uleb128 0x2e
 8412 15b2 10020000 		.4byte	.Ldebug_ranges0+0x210
 8413 15b6 C4150000 		.4byte	0x15c4
 8414 15ba 0B       		.uleb128 0xb
 8415 15bb 7400     		.ascii	"t\000"
 8416 15bd 01       		.byte	0x1
 8417 15be DB       		.byte	0xdb
 8418 15bf A2000000 		.4byte	0xa2
ARM GAS  C:\Users\legoc\AppData\Local\Temp\ccMAvaOS.s 			page 171


 8419 15c3 00       		.byte	0
 8420 15c4 29       		.uleb128 0x29
 8421 15c5 28020000 		.4byte	.Ldebug_ranges0+0x228
 8422 15c9 0B       		.uleb128 0xb
 8423 15ca 7400     		.ascii	"t\000"
 8424 15cc 01       		.byte	0x1
 8425 15cd DA       		.byte	0xda
 8426 15ce A2000000 		.4byte	0xa2
 8427 15d2 00       		.byte	0
 8428 15d3 00       		.byte	0
 8429 15d4 17       		.uleb128 0x17
 8430 15d5 14020000 		.4byte	0x214
 8431 15d9 00000000 		.4byte	.LFB11
 8432 15dd 18000000 		.4byte	.LFE11-.LFB11
 8433 15e1 01       		.uleb128 0x1
 8434 15e2 9C       		.byte	0x9c
 8435 15e3 15160000 		.4byte	0x1615
 8436 15e7 18       		.uleb128 0x18
 8437 15e8 21020000 		.4byte	0x221
 8438 15ec 75100000 		.4byte	.LLST120
 8439 15f0 18       		.uleb128 0x18
 8440 15f1 2B020000 		.4byte	0x22b
 8441 15f5 96100000 		.4byte	.LLST121
 8442 15f9 18       		.uleb128 0x18
 8443 15fa 35020000 		.4byte	0x235
 8444 15fe B7100000 		.4byte	.LLST122
 8445 1602 18       		.uleb128 0x18
 8446 1603 3F020000 		.4byte	0x23f
 8447 1607 D8100000 		.4byte	.LLST123
 8448 160b 1B       		.uleb128 0x1b
 8449 160c 12000000 		.4byte	.LVL278
 8450 1610 EC120000 		.4byte	0x12ec
 8451 1614 00       		.byte	0
 8452 1615 17       		.uleb128 0x17
 8453 1616 DC010000 		.4byte	0x1dc
 8454 161a 00000000 		.4byte	.LFB12
 8455 161e 16000000 		.4byte	.LFE12-.LFB12
 8456 1622 01       		.uleb128 0x1
 8457 1623 9C       		.byte	0x9c
 8458 1624 5D160000 		.4byte	0x165d
 8459 1628 18       		.uleb128 0x18
 8460 1629 E9010000 		.4byte	0x1e9
 8461 162d F9100000 		.4byte	.LLST124
 8462 1631 18       		.uleb128 0x18
 8463 1632 F3010000 		.4byte	0x1f3
 8464 1636 1A110000 		.4byte	.LLST125
 8465 163a 18       		.uleb128 0x18
 8466 163b FD010000 		.4byte	0x1fd
 8467 163f 3B110000 		.4byte	.LLST126
 8468 1643 18       		.uleb128 0x18
 8469 1644 07020000 		.4byte	0x207
 8470 1648 5C110000 		.4byte	.LLST127
 8471 164c 2C       		.uleb128 0x2c
 8472 164d 12000000 		.4byte	.LVL282
 8473 1651 EC120000 		.4byte	0x12ec
 8474 1655 1A       		.uleb128 0x1a
 8475 1656 01       		.uleb128 0x1
ARM GAS  C:\Users\legoc\AppData\Local\Temp\ccMAvaOS.s 			page 172


 8476 1657 53       		.byte	0x53
 8477 1658 02       		.uleb128 0x2
 8478 1659 74       		.byte	0x74
 8479 165a 00       		.sleb128 0
 8480 165b 00       		.byte	0
 8481 165c 00       		.byte	0
 8482 165d 17       		.uleb128 0x17
 8483 165e 4C020000 		.4byte	0x24c
 8484 1662 00000000 		.4byte	.LFB13
 8485 1666 5A000000 		.4byte	.LFE13-.LFB13
 8486 166a 01       		.uleb128 0x1
 8487 166b 9C       		.byte	0x9c
 8488 166c 5E170000 		.4byte	0x175e
 8489 1670 18       		.uleb128 0x18
 8490 1671 59020000 		.4byte	0x259
 8491 1675 7D110000 		.4byte	.LLST128
 8492 1679 18       		.uleb128 0x18
 8493 167a 64020000 		.4byte	0x264
 8494 167e CD110000 		.4byte	.LLST129
 8495 1682 18       		.uleb128 0x18
 8496 1683 6F020000 		.4byte	0x26f
 8497 1687 20120000 		.4byte	.LLST130
 8498 168b 18       		.uleb128 0x18
 8499 168c 7A020000 		.4byte	0x27a
 8500 1690 70120000 		.4byte	.LLST131
 8501 1694 18       		.uleb128 0x18
 8502 1695 85020000 		.4byte	0x285
 8503 1699 C3120000 		.4byte	.LLST132
 8504 169d 26       		.uleb128 0x26
 8505 169e 14020000 		.4byte	0x214
 8506 16a2 2A000000 		.4byte	.LBB313
 8507 16a6 40020000 		.4byte	.Ldebug_ranges0+0x240
 8508 16aa 01       		.byte	0x1
 8509 16ab 2101     		.2byte	0x121
 8510 16ad DF160000 		.4byte	0x16df
 8511 16b1 18       		.uleb128 0x18
 8512 16b2 3F020000 		.4byte	0x23f
 8513 16b6 EF120000 		.4byte	.LLST133
 8514 16ba 18       		.uleb128 0x18
 8515 16bb 35020000 		.4byte	0x235
 8516 16bf 02130000 		.4byte	.LLST134
 8517 16c3 18       		.uleb128 0x18
 8518 16c4 2B020000 		.4byte	0x22b
 8519 16c8 1C130000 		.4byte	.LLST135
 8520 16cc 18       		.uleb128 0x18
 8521 16cd 21020000 		.4byte	0x221
 8522 16d1 2F130000 		.4byte	.LLST136
 8523 16d5 33       		.uleb128 0x33
 8524 16d6 3E000000 		.4byte	.LVL291
 8525 16da EC120000 		.4byte	0x12ec
 8526 16de 00       		.byte	0
 8527 16df 2E       		.uleb128 0x2e
 8528 16e0 58020000 		.4byte	.Ldebug_ranges0+0x258
 8529 16e4 54170000 		.4byte	0x1754
 8530 16e8 18       		.uleb128 0x18
 8531 16e9 6F020000 		.4byte	0x26f
 8532 16ed 42130000 		.4byte	.LLST137
ARM GAS  C:\Users\legoc\AppData\Local\Temp\ccMAvaOS.s 			page 173


 8533 16f1 18       		.uleb128 0x18
 8534 16f2 85020000 		.4byte	0x285
 8535 16f6 55130000 		.4byte	.LLST138
 8536 16fa 18       		.uleb128 0x18
 8537 16fb 7A020000 		.4byte	0x27a
 8538 16ff 68130000 		.4byte	.LLST139
 8539 1703 18       		.uleb128 0x18
 8540 1704 64020000 		.4byte	0x264
 8541 1708 86130000 		.4byte	.LLST140
 8542 170c 18       		.uleb128 0x18
 8543 170d 59020000 		.4byte	0x259
 8544 1711 42130000 		.4byte	.LLST137
 8545 1715 3A       		.uleb128 0x3a
 8546 1716 DC010000 		.4byte	0x1dc
 8547 171a 46000000 		.4byte	.LBB319
 8548 171e 70020000 		.4byte	.Ldebug_ranges0+0x270
 8549 1722 01       		.byte	0x1
 8550 1723 1B01     		.2byte	0x11b
 8551 1725 18       		.uleb128 0x18
 8552 1726 07020000 		.4byte	0x207
 8553 172a A4130000 		.4byte	.LLST142
 8554 172e 18       		.uleb128 0x18
 8555 172f FD010000 		.4byte	0x1fd
 8556 1733 B7130000 		.4byte	.LLST143
 8557 1737 18       		.uleb128 0x18
 8558 1738 F3010000 		.4byte	0x1f3
 8559 173c D1130000 		.4byte	.LLST144
 8560 1740 18       		.uleb128 0x18
 8561 1741 E9010000 		.4byte	0x1e9
 8562 1745 E4130000 		.4byte	.LLST145
 8563 1749 33       		.uleb128 0x33
 8564 174a 5A000000 		.4byte	.LVL299
 8565 174e EC120000 		.4byte	0x12ec
 8566 1752 00       		.byte	0
 8567 1753 00       		.byte	0
 8568 1754 33       		.uleb128 0x33
 8569 1755 20000000 		.4byte	.LVL285
 8570 1759 EC120000 		.4byte	0x12ec
 8571 175d 00       		.byte	0
 8572 175e 17       		.uleb128 0x17
 8573 175f C6020000 		.4byte	0x2c6
 8574 1763 00000000 		.4byte	.LFB14
 8575 1767 34020000 		.4byte	.LFE14-.LFB14
 8576 176b 01       		.uleb128 0x1
 8577 176c 9C       		.byte	0x9c
 8578 176d 4D1B0000 		.4byte	0x1b4d
 8579 1771 18       		.uleb128 0x18
 8580 1772 D3020000 		.4byte	0x2d3
 8581 1776 F7130000 		.4byte	.LLST146
 8582 177a 18       		.uleb128 0x18
 8583 177b DD020000 		.4byte	0x2dd
 8584 177f 18140000 		.4byte	.LLST147
 8585 1783 18       		.uleb128 0x18
 8586 1784 E7020000 		.4byte	0x2e7
 8587 1788 39140000 		.4byte	.LLST148
 8588 178c 18       		.uleb128 0x18
 8589 178d F1020000 		.4byte	0x2f1
ARM GAS  C:\Users\legoc\AppData\Local\Temp\ccMAvaOS.s 			page 174


 8590 1791 5A140000 		.4byte	.LLST149
 8591 1795 18       		.uleb128 0x18
 8592 1796 FB020000 		.4byte	0x2fb
 8593 179a 7B140000 		.4byte	.LLST150
 8594 179e 18       		.uleb128 0x18
 8595 179f 07030000 		.4byte	0x307
 8596 17a3 8F140000 		.4byte	.LLST151
 8597 17a7 18       		.uleb128 0x18
 8598 17a8 13030000 		.4byte	0x313
 8599 17ac A3140000 		.4byte	.LLST152
 8600 17b0 22       		.uleb128 0x22
 8601 17b1 1F030000 		.4byte	0x31f
 8602 17b5 D9140000 		.4byte	.LLST153
 8603 17b9 22       		.uleb128 0x22
 8604 17ba 2B030000 		.4byte	0x32b
 8605 17be F7140000 		.4byte	.LLST154
 8606 17c2 22       		.uleb128 0x22
 8607 17c3 37030000 		.4byte	0x337
 8608 17c7 15150000 		.4byte	.LLST155
 8609 17cb 24       		.uleb128 0x24
 8610 17cc 43030000 		.4byte	0x343
 8611 17d0 08040000 		.4byte	0x408
 8612 17d4 56150000 		.4byte	.LLST156
 8613 17d8 26       		.uleb128 0x26
 8614 17d9 4C010000 		.4byte	0x14c
 8615 17dd 14000000 		.4byte	.LBB336
 8616 17e1 88020000 		.4byte	.Ldebug_ranges0+0x288
 8617 17e5 01       		.byte	0x1
 8618 17e6 2D01     		.2byte	0x12d
 8619 17e8 AB190000 		.4byte	0x19ab
 8620 17ec 18       		.uleb128 0x18
 8621 17ed 7C010000 		.4byte	0x17c
 8622 17f1 8E150000 		.4byte	.LLST157
 8623 17f5 18       		.uleb128 0x18
 8624 17f6 73010000 		.4byte	0x173
 8625 17fa AE150000 		.4byte	.LLST158
 8626 17fe 18       		.uleb128 0x18
 8627 17ff 6A010000 		.4byte	0x16a
 8628 1803 CE150000 		.4byte	.LLST159
 8629 1807 18       		.uleb128 0x18
 8630 1808 61010000 		.4byte	0x161
 8631 180c EC150000 		.4byte	.LLST160
 8632 1810 18       		.uleb128 0x18
 8633 1811 58010000 		.4byte	0x158
 8634 1815 0C160000 		.4byte	.LLST161
 8635 1819 28       		.uleb128 0x28
 8636 181a FC000000 		.4byte	0xfc
 8637 181e 34000000 		.4byte	.LBB338
 8638 1822 C0020000 		.4byte	.Ldebug_ranges0+0x2c0
 8639 1826 01       		.byte	0x1
 8640 1827 95       		.byte	0x95
 8641 1828 18       		.uleb128 0x18
 8642 1829 2C010000 		.4byte	0x12c
 8643 182d 8E150000 		.4byte	.LLST157
 8644 1831 18       		.uleb128 0x18
 8645 1832 23010000 		.4byte	0x123
 8646 1836 CE150000 		.4byte	.LLST159
ARM GAS  C:\Users\legoc\AppData\Local\Temp\ccMAvaOS.s 			page 175


 8647 183a 18       		.uleb128 0x18
 8648 183b 1A010000 		.4byte	0x11a
 8649 183f AE150000 		.4byte	.LLST158
 8650 1843 18       		.uleb128 0x18
 8651 1844 11010000 		.4byte	0x111
 8652 1848 2C160000 		.4byte	.LLST165
 8653 184c 18       		.uleb128 0x18
 8654 184d 08010000 		.4byte	0x108
 8655 1851 6F160000 		.4byte	.LLST166
 8656 1855 29       		.uleb128 0x29
 8657 1856 C0020000 		.4byte	.Ldebug_ranges0+0x2c0
 8658 185a 2A       		.uleb128 0x2a
 8659 185b 37010000 		.4byte	0x137
 8660 185f 2A       		.uleb128 0x2a
 8661 1860 41010000 		.4byte	0x141
 8662 1864 2B       		.uleb128 0x2b
 8663 1865 80010000 		.4byte	.LBB340
 8664 1869 88000000 		.4byte	.LBE340-.LBB340
 8665 186d 18       		.uleb128 0x18
 8666 186e 2C010000 		.4byte	0x12c
 8667 1872 B6160000 		.4byte	.LLST167
 8668 1876 18       		.uleb128 0x18
 8669 1877 23010000 		.4byte	0x123
 8670 187b CA160000 		.4byte	.LLST168
 8671 187f 18       		.uleb128 0x18
 8672 1880 1A010000 		.4byte	0x11a
 8673 1884 E8160000 		.4byte	.LLST169
 8674 1888 18       		.uleb128 0x18
 8675 1889 11010000 		.4byte	0x111
 8676 188d 07170000 		.4byte	.LLST170
 8677 1891 18       		.uleb128 0x18
 8678 1892 08010000 		.4byte	0x108
 8679 1896 2B170000 		.4byte	.LLST171
 8680 189a 2B       		.uleb128 0x2b
 8681 189b 80010000 		.4byte	.LBB341
 8682 189f 88000000 		.4byte	.LBE341-.LBB341
 8683 18a3 22       		.uleb128 0x22
 8684 18a4 37010000 		.4byte	0x137
 8685 18a8 88170000 		.4byte	.LLST172
 8686 18ac 22       		.uleb128 0x22
 8687 18ad 41010000 		.4byte	0x141
 8688 18b1 9B170000 		.4byte	.LLST173
 8689 18b5 19       		.uleb128 0x19
 8690 18b6 AA010000 		.4byte	.LVL338
 8691 18ba 11050000 		.4byte	0x511
 8692 18be 37190000 		.4byte	0x1937
 8693 18c2 1A       		.uleb128 0x1a
 8694 18c3 01       		.uleb128 0x1
 8695 18c4 51       		.byte	0x51
 8696 18c5 06       		.uleb128 0x6
 8697 18c6 0A       		.byte	0xa
 8698 18c7 4001     		.2byte	0x140
 8699 18c9 74       		.byte	0x74
 8700 18ca 00       		.sleb128 0
 8701 18cb 1C       		.byte	0x1c
 8702 18cc 1A       		.uleb128 0x1a
 8703 18cd 01       		.uleb128 0x1
ARM GAS  C:\Users\legoc\AppData\Local\Temp\ccMAvaOS.s 			page 176


 8704 18ce 52       		.byte	0x52
 8705 18cf 22       		.uleb128 0x22
 8706 18d0 91       		.byte	0x91
 8707 18d1 04       		.sleb128 4
 8708 18d2 94       		.byte	0x94
 8709 18d3 02       		.byte	0x2
 8710 18d4 0A       		.byte	0xa
 8711 18d5 FFFF     		.2byte	0xffff
 8712 18d7 1A       		.byte	0x1a
 8713 18d8 91       		.byte	0x91
 8714 18d9 7C       		.sleb128 -4
 8715 18da 06       		.byte	0x6
 8716 18db 22       		.byte	0x22
 8717 18dc 0A       		.byte	0xa
 8718 18dd FFFF     		.2byte	0xffff
 8719 18df 1A       		.byte	0x1a
 8720 18e0 91       		.byte	0x91
 8721 18e1 04       		.sleb128 4
 8722 18e2 94       		.byte	0x94
 8723 18e3 02       		.byte	0x2
 8724 18e4 0A       		.byte	0xa
 8725 18e5 FFFF     		.2byte	0xffff
 8726 18e7 1A       		.byte	0x1a
 8727 18e8 76       		.byte	0x76
 8728 18e9 00       		.sleb128 0
 8729 18ea 08       		.byte	0x8
 8730 18eb F0       		.byte	0xf0
 8731 18ec 2B       		.byte	0x2b
 8732 18ed 28       		.byte	0x28
 8733 18ee 0100     		.2byte	0x1
 8734 18f0 16       		.byte	0x16
 8735 18f1 13       		.byte	0x13
 8736 18f2 1A       		.uleb128 0x1a
 8737 18f3 01       		.uleb128 0x1
 8738 18f4 53       		.byte	0x53
 8739 18f5 40       		.uleb128 0x40
 8740 18f6 74       		.byte	0x74
 8741 18f7 00       		.sleb128 0
 8742 18f8 75       		.byte	0x75
 8743 18f9 00       		.sleb128 0
 8744 18fa 91       		.byte	0x91
 8745 18fb 04       		.sleb128 4
 8746 18fc 94       		.byte	0x94
 8747 18fd 02       		.byte	0x2
 8748 18fe 0A       		.byte	0xa
 8749 18ff FFFF     		.2byte	0xffff
 8750 1901 1A       		.byte	0x1a
 8751 1902 91       		.byte	0x91
 8752 1903 7C       		.sleb128 -4
 8753 1904 06       		.byte	0x6
 8754 1905 22       		.byte	0x22
 8755 1906 0A       		.byte	0xa
 8756 1907 FFFF     		.2byte	0xffff
 8757 1909 1A       		.byte	0x1a
 8758 190a 0A       		.byte	0xa
 8759 190b 4001     		.2byte	0x140
 8760 190d 74       		.byte	0x74
ARM GAS  C:\Users\legoc\AppData\Local\Temp\ccMAvaOS.s 			page 177


 8761 190e 00       		.sleb128 0
 8762 190f 1C       		.byte	0x1c
 8763 1910 40       		.byte	0x40
 8764 1911 24       		.byte	0x24
 8765 1912 40       		.byte	0x40
 8766 1913 26       		.byte	0x26
 8767 1914 7A       		.byte	0x7a
 8768 1915 00       		.sleb128 0
 8769 1916 22       		.byte	0x22
 8770 1917 0A       		.byte	0xa
 8771 1918 4001     		.2byte	0x140
 8772 191a 2C       		.byte	0x2c
 8773 191b 28       		.byte	0x28
 8774 191c 0100     		.2byte	0x1
 8775 191e 16       		.byte	0x16
 8776 191f 13       		.byte	0x13
 8777 1920 0A       		.byte	0xa
 8778 1921 4001     		.2byte	0x140
 8779 1923 74       		.byte	0x74
 8780 1924 00       		.sleb128 0
 8781 1925 1C       		.byte	0x1c
 8782 1926 40       		.byte	0x40
 8783 1927 24       		.byte	0x24
 8784 1928 40       		.byte	0x40
 8785 1929 26       		.byte	0x26
 8786 192a 7A       		.byte	0x7a
 8787 192b 00       		.sleb128 0
 8788 192c 22       		.byte	0x22
 8789 192d 0A       		.byte	0xa
 8790 192e 4001     		.2byte	0x140
 8791 1930 2B       		.byte	0x2b
 8792 1931 28       		.byte	0x28
 8793 1932 0100     		.2byte	0x1
 8794 1934 16       		.byte	0x16
 8795 1935 13       		.byte	0x13
 8796 1936 00       		.byte	0
 8797 1937 19       		.uleb128 0x19
 8798 1938 B0010000 		.4byte	.LVL339
 8799 193c CE4A0000 		.4byte	0x4ace
 8800 1940 4A190000 		.4byte	0x194a
 8801 1944 1A       		.uleb128 0x1a
 8802 1945 01       		.uleb128 0x1
 8803 1946 50       		.byte	0x50
 8804 1947 01       		.uleb128 0x1
 8805 1948 31       		.byte	0x31
 8806 1949 00       		.byte	0
 8807 194a 19       		.uleb128 0x19
 8808 194b BC010000 		.4byte	.LVL342
 8809 194f EF4A0000 		.4byte	0x4aef
 8810 1953 5D190000 		.4byte	0x195d
 8811 1957 1A       		.uleb128 0x1a
 8812 1958 01       		.uleb128 0x1
 8813 1959 50       		.byte	0x50
 8814 195a 01       		.uleb128 0x1
 8815 195b 30       		.byte	0x30
 8816 195c 00       		.byte	0
 8817 195d 19       		.uleb128 0x19
ARM GAS  C:\Users\legoc\AppData\Local\Temp\ccMAvaOS.s 			page 178


 8818 195e D2010000 		.4byte	.LVL345
 8819 1962 D94A0000 		.4byte	0x4ad9
 8820 1966 71190000 		.4byte	0x1971
 8821 196a 1A       		.uleb128 0x1a
 8822 196b 01       		.uleb128 0x1
 8823 196c 50       		.byte	0x50
 8824 196d 02       		.uleb128 0x2
 8825 196e 76       		.byte	0x76
 8826 196f 00       		.sleb128 0
 8827 1970 00       		.byte	0
 8828 1971 1B       		.uleb128 0x1b
 8829 1972 D6010000 		.4byte	.LVL346
 8830 1976 E44A0000 		.4byte	0x4ae4
 8831 197a 19       		.uleb128 0x19
 8832 197b E0010000 		.4byte	.LVL347
 8833 197f D94A0000 		.4byte	0x4ad9
 8834 1983 8E190000 		.4byte	0x198e
 8835 1987 1A       		.uleb128 0x1a
 8836 1988 01       		.uleb128 0x1
 8837 1989 50       		.byte	0x50
 8838 198a 02       		.uleb128 0x2
 8839 198b 75       		.byte	0x75
 8840 198c 00       		.sleb128 0
 8841 198d 00       		.byte	0
 8842 198e 1B       		.uleb128 0x1b
 8843 198f E4010000 		.4byte	.LVL348
 8844 1993 E44A0000 		.4byte	0x4ae4
 8845 1997 2C       		.uleb128 0x2c
 8846 1998 06020000 		.4byte	.LVL353
 8847 199c EF4A0000 		.4byte	0x4aef
 8848 19a0 1A       		.uleb128 0x1a
 8849 19a1 01       		.uleb128 0x1
 8850 19a2 50       		.byte	0x50
 8851 19a3 01       		.uleb128 0x1
 8852 19a4 31       		.byte	0x31
 8853 19a5 00       		.byte	0
 8854 19a6 00       		.byte	0
 8855 19a7 00       		.byte	0
 8856 19a8 00       		.byte	0
 8857 19a9 00       		.byte	0
 8858 19aa 00       		.byte	0
 8859 19ab 2D       		.uleb128 0x2d
 8860 19ac AC000000 		.4byte	.LBB357
 8861 19b0 CC000000 		.4byte	.LBE357-.LBB357
 8862 19b4 A21A0000 		.4byte	0x1aa2
 8863 19b8 22       		.uleb128 0x22
 8864 19b9 82030000 		.4byte	0x382
 8865 19bd AE170000 		.4byte	.LLST174
 8866 19c1 24       		.uleb128 0x24
 8867 19c2 8E030000 		.4byte	0x38e
 8868 19c6 17040000 		.4byte	0x417
 8869 19ca DE170000 		.4byte	.LLST175
 8870 19ce 24       		.uleb128 0x24
 8871 19cf 9A030000 		.4byte	0x39a
 8872 19d3 26040000 		.4byte	0x426
 8873 19d7 07180000 		.4byte	.LLST176
 8874 19db 22       		.uleb128 0x22
ARM GAS  C:\Users\legoc\AppData\Local\Temp\ccMAvaOS.s 			page 179


 8875 19dc A6030000 		.4byte	0x3a6
 8876 19e0 1B180000 		.4byte	.LLST177
 8877 19e4 22       		.uleb128 0x22
 8878 19e5 B2030000 		.4byte	0x3b2
 8879 19e9 3B180000 		.4byte	.LLST178
 8880 19ed 22       		.uleb128 0x22
 8881 19ee BE030000 		.4byte	0x3be
 8882 19f2 53180000 		.4byte	.LLST179
 8883 19f6 22       		.uleb128 0x22
 8884 19f7 CA030000 		.4byte	0x3ca
 8885 19fb 89180000 		.4byte	.LLST180
 8886 19ff 3B       		.uleb128 0x3b
 8887 1a00 D6030000 		.4byte	0x3d6
 8888 1a04 0A1A0000 		.4byte	0x1a0a
 8889 1a08 14       		.uleb128 0x14
 8890 1a09 00       		.byte	0
 8891 1a0a 2E       		.uleb128 0x2e
 8892 1a0b E8020000 		.4byte	.Ldebug_ranges0+0x2e8
 8893 1a0f 1D1A0000 		.4byte	0x1a1d
 8894 1a13 22       		.uleb128 0x22
 8895 1a14 EF030000 		.4byte	0x3ef
 8896 1a18 AB180000 		.4byte	.LLST181
 8897 1a1c 00       		.byte	0
 8898 1a1d 2D       		.uleb128 0x2d
 8899 1a1e 1C010000 		.4byte	.LBB360
 8900 1a22 14000000 		.4byte	.LBE360-.LBB360
 8901 1a26 341A0000 		.4byte	0x1a34
 8902 1a2a 22       		.uleb128 0x22
 8903 1a2b FB030000 		.4byte	0x3fb
 8904 1a2f BF180000 		.4byte	.LLST182
 8905 1a33 00       		.byte	0
 8906 1a34 19       		.uleb128 0x19
 8907 1a35 56010000 		.4byte	.LVL330
 8908 1a39 FA4A0000 		.4byte	0x4afa
 8909 1a3d 621A0000 		.4byte	0x1a62
 8910 1a41 1A       		.uleb128 0x1a
 8911 1a42 01       		.uleb128 0x1
 8912 1a43 50       		.byte	0x50
 8913 1a44 09       		.uleb128 0x9
 8914 1a45 79       		.byte	0x79
 8915 1a46 00       		.sleb128 0
 8916 1a47 7A       		.byte	0x7a
 8917 1a48 00       		.sleb128 0
 8918 1a49 31       		.byte	0x31
 8919 1a4a 26       		.byte	0x26
 8920 1a4b 1C       		.byte	0x1c
 8921 1a4c 23       		.byte	0x23
 8922 1a4d 05       		.uleb128 0x5
 8923 1a4e 1A       		.uleb128 0x1a
 8924 1a4f 01       		.uleb128 0x1
 8925 1a50 51       		.byte	0x51
 8926 1a51 02       		.uleb128 0x2
 8927 1a52 76       		.byte	0x76
 8928 1a53 03       		.sleb128 3
 8929 1a54 1A       		.uleb128 0x1a
 8930 1a55 01       		.uleb128 0x1
 8931 1a56 52       		.byte	0x52
ARM GAS  C:\Users\legoc\AppData\Local\Temp\ccMAvaOS.s 			page 180


 8932 1a57 02       		.uleb128 0x2
 8933 1a58 74       		.byte	0x74
 8934 1a59 00       		.sleb128 0
 8935 1a5a 1A       		.uleb128 0x1a
 8936 1a5b 02       		.uleb128 0x2
 8937 1a5c 7D       		.byte	0x7d
 8938 1a5d 00       		.sleb128 0
 8939 1a5e 02       		.uleb128 0x2
 8940 1a5f 75       		.byte	0x75
 8941 1a60 00       		.sleb128 0
 8942 1a61 00       		.byte	0
 8943 1a62 2C       		.uleb128 0x2c
 8944 1a63 74010000 		.4byte	.LVL331
 8945 1a67 FA4A0000 		.4byte	0x4afa
 8946 1a6b 1A       		.uleb128 0x1a
 8947 1a6c 01       		.uleb128 0x1
 8948 1a6d 50       		.byte	0x50
 8949 1a6e 18       		.uleb128 0x18
 8950 1a6f 79       		.byte	0x79
 8951 1a70 00       		.sleb128 0
 8952 1a71 91       		.byte	0x91
 8953 1a72 00       		.sleb128 0
 8954 1a73 06       		.byte	0x6
 8955 1a74 31       		.byte	0x31
 8956 1a75 1C       		.byte	0x1c
 8957 1a76 37       		.byte	0x37
 8958 1a77 1E       		.byte	0x1e
 8959 1a78 91       		.byte	0x91
 8960 1a79 00       		.sleb128 0
 8961 1a7a 06       		.byte	0x6
 8962 1a7b 31       		.byte	0x31
 8963 1a7c 1C       		.byte	0x1c
 8964 1a7d 37       		.byte	0x37
 8965 1a7e 1E       		.byte	0x1e
 8966 1a7f 4F       		.byte	0x4f
 8967 1a80 25       		.byte	0x25
 8968 1a81 22       		.byte	0x22
 8969 1a82 31       		.byte	0x31
 8970 1a83 26       		.byte	0x26
 8971 1a84 1C       		.byte	0x1c
 8972 1a85 23       		.byte	0x23
 8973 1a86 04       		.uleb128 0x4
 8974 1a87 1A       		.uleb128 0x1a
 8975 1a88 01       		.uleb128 0x1
 8976 1a89 51       		.byte	0x51
 8977 1a8a 02       		.uleb128 0x2
 8978 1a8b 76       		.byte	0x76
 8979 1a8c 7B       		.sleb128 -5
 8980 1a8d 1A       		.uleb128 0x1a
 8981 1a8e 01       		.uleb128 0x1
 8982 1a8f 52       		.byte	0x52
 8983 1a90 02       		.uleb128 0x2
 8984 1a91 74       		.byte	0x74
 8985 1a92 00       		.sleb128 0
 8986 1a93 1A       		.uleb128 0x1a
 8987 1a94 01       		.uleb128 0x1
 8988 1a95 53       		.byte	0x53
ARM GAS  C:\Users\legoc\AppData\Local\Temp\ccMAvaOS.s 			page 181


 8989 1a96 02       		.uleb128 0x2
 8990 1a97 7B       		.byte	0x7b
 8991 1a98 00       		.sleb128 0
 8992 1a99 1A       		.uleb128 0x1a
 8993 1a9a 02       		.uleb128 0x2
 8994 1a9b 7D       		.byte	0x7d
 8995 1a9c 00       		.sleb128 0
 8996 1a9d 02       		.uleb128 0x2
 8997 1a9e 75       		.byte	0x75
 8998 1a9f 00       		.sleb128 0
 8999 1aa0 00       		.byte	0
 9000 1aa1 00       		.byte	0
 9001 1aa2 2D       		.uleb128 0x2d
 9002 1aa3 08020000 		.4byte	.LBB362
 9003 1aa7 18000000 		.4byte	.LBE362-.LBB362
 9004 1aab E11A0000 		.4byte	0x1ae1
 9005 1aaf 22       		.uleb128 0x22
 9006 1ab0 64030000 		.4byte	0x364
 9007 1ab4 D3180000 		.4byte	.LLST183
 9008 1ab8 3B       		.uleb128 0x3b
 9009 1ab9 70030000 		.4byte	0x370
 9010 1abd C31A0000 		.4byte	0x1ac3
 9011 1ac1 14       		.uleb128 0x14
 9012 1ac2 00       		.byte	0
 9013 1ac3 2C       		.uleb128 0x2c
 9014 1ac4 20020000 		.4byte	.LVL356
 9015 1ac8 FA4A0000 		.4byte	0x4afa
 9016 1acc 1A       		.uleb128 0x1a
 9017 1acd 01       		.uleb128 0x1
 9018 1ace 51       		.byte	0x51
 9019 1acf 02       		.uleb128 0x2
 9020 1ad0 76       		.byte	0x76
 9021 1ad1 7F       		.sleb128 -1
 9022 1ad2 1A       		.uleb128 0x1a
 9023 1ad3 01       		.uleb128 0x1
 9024 1ad4 53       		.byte	0x53
 9025 1ad5 02       		.uleb128 0x2
 9026 1ad6 75       		.byte	0x75
 9027 1ad7 00       		.sleb128 0
 9028 1ad8 1A       		.uleb128 0x1a
 9029 1ad9 02       		.uleb128 0x2
 9030 1ada 7D       		.byte	0x7d
 9031 1adb 00       		.sleb128 0
 9032 1adc 02       		.uleb128 0x2
 9033 1add 74       		.byte	0x74
 9034 1ade 00       		.sleb128 0
 9035 1adf 00       		.byte	0
 9036 1ae0 00       		.byte	0
 9037 1ae1 19       		.uleb128 0x19
 9038 1ae2 9C000000 		.4byte	.LVL315
 9039 1ae6 064B0000 		.4byte	0x4b06
 9040 1aea 041B0000 		.4byte	0x1b04
 9041 1aee 1A       		.uleb128 0x1a
 9042 1aef 01       		.uleb128 0x1
 9043 1af0 50       		.byte	0x50
 9044 1af1 02       		.uleb128 0x2
 9045 1af2 75       		.byte	0x75
ARM GAS  C:\Users\legoc\AppData\Local\Temp\ccMAvaOS.s 			page 182


 9046 1af3 00       		.sleb128 0
 9047 1af4 1A       		.uleb128 0x1a
 9048 1af5 01       		.uleb128 0x1
 9049 1af6 51       		.byte	0x51
 9050 1af7 05       		.uleb128 0x5
 9051 1af8 78       		.byte	0x78
 9052 1af9 00       		.sleb128 0
 9053 1afa 74       		.byte	0x74
 9054 1afb 00       		.sleb128 0
 9055 1afc 1C       		.byte	0x1c
 9056 1afd 1A       		.uleb128 0x1a
 9057 1afe 01       		.uleb128 0x1
 9058 1aff 52       		.byte	0x52
 9059 1b00 02       		.uleb128 0x2
 9060 1b01 74       		.byte	0x74
 9061 1b02 00       		.sleb128 0
 9062 1b03 00       		.byte	0
 9063 1b04 19       		.uleb128 0x19
 9064 1b05 1A010000 		.4byte	.LVL323
 9065 1b09 064B0000 		.4byte	0x4b06
 9066 1b0d 2D1B0000 		.4byte	0x1b2d
 9067 1b11 1A       		.uleb128 0x1a
 9068 1b12 01       		.uleb128 0x1
 9069 1b13 50       		.byte	0x50
 9070 1b14 0B       		.uleb128 0xb
 9071 1b15 91       		.byte	0x91
 9072 1b16 04       		.sleb128 4
 9073 1b17 06       		.byte	0x6
 9074 1b18 78       		.byte	0x78
 9075 1b19 08       		.sleb128 8
 9076 1b1a 09       		.byte	0x9
 9077 1b1b F8       		.byte	0xf8
 9078 1b1c 1A       		.byte	0x1a
 9079 1b1d 1C       		.byte	0x1c
 9080 1b1e 23       		.byte	0x23
 9081 1b1f 08       		.uleb128 0x8
 9082 1b20 1A       		.uleb128 0x1a
 9083 1b21 01       		.uleb128 0x1
 9084 1b22 51       		.byte	0x51
 9085 1b23 02       		.uleb128 0x2
 9086 1b24 75       		.byte	0x75
 9087 1b25 00       		.sleb128 0
 9088 1b26 1A       		.uleb128 0x1a
 9089 1b27 01       		.uleb128 0x1
 9090 1b28 52       		.byte	0x52
 9091 1b29 02       		.uleb128 0x2
 9092 1b2a 78       		.byte	0x78
 9093 1b2b 00       		.sleb128 0
 9094 1b2c 00       		.byte	0
 9095 1b2d 2C       		.uleb128 0x2c
 9096 1b2e 2E010000 		.4byte	.LVL325
 9097 1b32 064B0000 		.4byte	0x4b06
 9098 1b36 1A       		.uleb128 0x1a
 9099 1b37 01       		.uleb128 0x1
 9100 1b38 50       		.byte	0x50
 9101 1b39 02       		.uleb128 0x2
 9102 1b3a 7B       		.byte	0x7b
ARM GAS  C:\Users\legoc\AppData\Local\Temp\ccMAvaOS.s 			page 183


 9103 1b3b 00       		.sleb128 0
 9104 1b3c 1A       		.uleb128 0x1a
 9105 1b3d 01       		.uleb128 0x1
 9106 1b3e 51       		.byte	0x51
 9107 1b3f 05       		.uleb128 0x5
 9108 1b40 75       		.byte	0x75
 9109 1b41 00       		.sleb128 0
 9110 1b42 7A       		.byte	0x7a
 9111 1b43 00       		.sleb128 0
 9112 1b44 22       		.byte	0x22
 9113 1b45 1A       		.uleb128 0x1a
 9114 1b46 01       		.uleb128 0x1
 9115 1b47 52       		.byte	0x52
 9116 1b48 02       		.uleb128 0x2
 9117 1b49 74       		.byte	0x74
 9118 1b4a 00       		.sleb128 0
 9119 1b4b 00       		.byte	0
 9120 1b4c 00       		.byte	0
 9121 1b4d 3C       		.uleb128 0x3c
 9122 1b4e 58040000 		.4byte	.LASF58
 9123 1b52 01       		.byte	0x1
 9124 1b53 7601     		.2byte	0x176
 9125 1b55 00000000 		.4byte	.LFB15
 9126 1b59 D8010000 		.4byte	.LFE15-.LFB15
 9127 1b5d 01       		.uleb128 0x1
 9128 1b5e 9C       		.byte	0x9c
 9129 1b5f 4C220000 		.4byte	0x224c
 9130 1b63 3D       		.uleb128 0x3d
 9131 1b64 F0000000 		.4byte	.LASF59
 9132 1b68 01       		.byte	0x1
 9133 1b69 7601     		.2byte	0x176
 9134 1b6b 89000000 		.4byte	0x89
 9135 1b6f F0180000 		.4byte	.LLST184
 9136 1b73 3D       		.uleb128 0x3d
 9137 1b74 55060000 		.4byte	.LASF60
 9138 1b78 01       		.byte	0x1
 9139 1b79 7601     		.2byte	0x176
 9140 1b7b 90000000 		.4byte	0x90
 9141 1b7f 27190000 		.4byte	.LLST185
 9142 1b83 3E       		.uleb128 0x3e
 9143 1b84 26020000 		.4byte	.LASF61
 9144 1b88 01       		.byte	0x1
 9145 1b89 7A01     		.2byte	0x17a
 9146 1b8b 89000000 		.4byte	0x89
 9147 1b8f C0       		.byte	0xc0
 9148 1b90 3F       		.uleb128 0x3f
 9149 1b91 23040000 		.4byte	.LASF62
 9150 1b95 01       		.byte	0x1
 9151 1b96 7B01     		.2byte	0x17b
 9152 1b98 89000000 		.4byte	0x89
 9153 1b9c 5E190000 		.4byte	.LLST186
 9154 1ba0 3F       		.uleb128 0x3f
 9155 1ba1 97030000 		.4byte	.LASF63
 9156 1ba5 01       		.byte	0x1
 9157 1ba6 7C01     		.2byte	0x17c
 9158 1ba8 89000000 		.4byte	0x89
 9159 1bac 87190000 		.4byte	.LLST187
ARM GAS  C:\Users\legoc\AppData\Local\Temp\ccMAvaOS.s 			page 184


 9160 1bb0 12       		.uleb128 0x12
 9161 1bb1 DA050000 		.4byte	.LASF64
 9162 1bb5 01       		.byte	0x1
 9163 1bb6 7D01     		.2byte	0x17d
 9164 1bb8 89000000 		.4byte	0x89
 9165 1bbc 40       		.uleb128 0x40
 9166 1bbd C9000000 		.4byte	.LASF65
 9167 1bc1 01       		.byte	0x1
 9168 1bc2 7E01     		.2byte	0x17e
 9169 1bc4 4C220000 		.4byte	0x224c
 9170 1bc8 02       		.uleb128 0x2
 9171 1bc9 91       		.byte	0x91
 9172 1bca 4C       		.sleb128 -52
 9173 1bcb 40       		.uleb128 0x40
 9174 1bcc B6000000 		.4byte	.LASF66
 9175 1bd0 01       		.byte	0x1
 9176 1bd1 7F01     		.2byte	0x17f
 9177 1bd3 5C220000 		.4byte	0x225c
 9178 1bd7 02       		.uleb128 0x2
 9179 1bd8 91       		.byte	0x91
 9180 1bd9 40       		.sleb128 -64
 9181 1bda 40       		.uleb128 0x40
 9182 1bdb F6000000 		.4byte	.LASF67
 9183 1bdf 01       		.byte	0x1
 9184 1be0 8101     		.2byte	0x181
 9185 1be2 89000000 		.4byte	0x89
 9186 1be6 01       		.uleb128 0x1
 9187 1be7 58       		.byte	0x58
 9188 1be8 41       		.uleb128 0x41
 9189 1be9 6900     		.ascii	"i\000"
 9190 1beb 01       		.byte	0x1
 9191 1bec 8201     		.2byte	0x182
 9192 1bee 89000000 		.4byte	0x89
 9193 1bf2 A7190000 		.4byte	.LLST188
 9194 1bf6 10       		.uleb128 0x10
 9195 1bf7 6B00     		.ascii	"k\000"
 9196 1bf9 01       		.byte	0x1
 9197 1bfa 8301     		.2byte	0x183
 9198 1bfc 89000000 		.4byte	0x89
 9199 1c00 40       		.uleb128 0x40
 9200 1c01 56050000 		.4byte	.LASF68
 9201 1c05 01       		.byte	0x1
 9202 1c06 AE01     		.2byte	0x1ae
 9203 1c08 6C220000 		.4byte	0x226c
 9204 1c0c 02       		.uleb128 0x2
 9205 1c0d 91       		.byte	0x91
 9206 1c0e 44       		.sleb128 -60
 9207 1c0f 26       		.uleb128 0x26
 9208 1c10 AE020000 		.4byte	0x2ae
 9209 1c14 06000000 		.4byte	.LBB425
 9210 1c18 00030000 		.4byte	.Ldebug_ranges0+0x300
 9211 1c1c 01       		.byte	0x1
 9212 1c1d 7801     		.2byte	0x178
 9213 1c1f 951D0000 		.4byte	0x1d95
 9214 1c23 18       		.uleb128 0x18
 9215 1c24 BA020000 		.4byte	0x2ba
 9216 1c28 EA190000 		.4byte	.LLST189
ARM GAS  C:\Users\legoc\AppData\Local\Temp\ccMAvaOS.s 			page 185


 9217 1c2c 28       		.uleb128 0x28
 9218 1c2d 4C010000 		.4byte	0x14c
 9219 1c31 06000000 		.4byte	.LBB426
 9220 1c35 00030000 		.4byte	.Ldebug_ranges0+0x300
 9221 1c39 01       		.byte	0x1
 9222 1c3a 9B       		.byte	0x9b
 9223 1c3b 18       		.uleb128 0x18
 9224 1c3c 7C010000 		.4byte	0x17c
 9225 1c40 EA190000 		.4byte	.LLST189
 9226 1c44 18       		.uleb128 0x18
 9227 1c45 73010000 		.4byte	0x173
 9228 1c49 FE190000 		.4byte	.LLST191
 9229 1c4d 18       		.uleb128 0x18
 9230 1c4e 6A010000 		.4byte	0x16a
 9231 1c52 131A0000 		.4byte	.LLST192
 9232 1c56 18       		.uleb128 0x18
 9233 1c57 61010000 		.4byte	0x161
 9234 1c5b EA190000 		.4byte	.LLST189
 9235 1c5f 18       		.uleb128 0x18
 9236 1c60 58010000 		.4byte	0x158
 9237 1c64 EA190000 		.4byte	.LLST189
 9238 1c68 28       		.uleb128 0x28
 9239 1c69 FC000000 		.4byte	0xfc
 9240 1c6d 06000000 		.4byte	.LBB427
 9241 1c71 00030000 		.4byte	.Ldebug_ranges0+0x300
 9242 1c75 01       		.byte	0x1
 9243 1c76 95       		.byte	0x95
 9244 1c77 18       		.uleb128 0x18
 9245 1c78 2C010000 		.4byte	0x12c
 9246 1c7c EA190000 		.4byte	.LLST189
 9247 1c80 18       		.uleb128 0x18
 9248 1c81 23010000 		.4byte	0x123
 9249 1c85 131A0000 		.4byte	.LLST192
 9250 1c89 18       		.uleb128 0x18
 9251 1c8a 1A010000 		.4byte	0x11a
 9252 1c8e FE190000 		.4byte	.LLST191
 9253 1c92 18       		.uleb128 0x18
 9254 1c93 11010000 		.4byte	0x111
 9255 1c97 EA190000 		.4byte	.LLST189
 9256 1c9b 18       		.uleb128 0x18
 9257 1c9c 08010000 		.4byte	0x108
 9258 1ca0 EA190000 		.4byte	.LLST189
 9259 1ca4 29       		.uleb128 0x29
 9260 1ca5 00030000 		.4byte	.Ldebug_ranges0+0x300
 9261 1ca9 2A       		.uleb128 0x2a
 9262 1caa 37010000 		.4byte	0x137
 9263 1cae 2A       		.uleb128 0x2a
 9264 1caf 41010000 		.4byte	0x141
 9265 1cb3 29       		.uleb128 0x29
 9266 1cb4 00030000 		.4byte	.Ldebug_ranges0+0x300
 9267 1cb8 18       		.uleb128 0x18
 9268 1cb9 08010000 		.4byte	0x108
 9269 1cbd 291A0000 		.4byte	.LLST200
 9270 1cc1 18       		.uleb128 0x18
 9271 1cc2 1A010000 		.4byte	0x11a
 9272 1cc6 FE190000 		.4byte	.LLST191
 9273 1cca 18       		.uleb128 0x18
ARM GAS  C:\Users\legoc\AppData\Local\Temp\ccMAvaOS.s 			page 186


 9274 1ccb 2C010000 		.4byte	0x12c
 9275 1ccf EA190000 		.4byte	.LLST189
 9276 1cd3 18       		.uleb128 0x18
 9277 1cd4 23010000 		.4byte	0x123
 9278 1cd8 131A0000 		.4byte	.LLST192
 9279 1cdc 18       		.uleb128 0x18
 9280 1cdd 11010000 		.4byte	0x111
 9281 1ce1 4A1A0000 		.4byte	.LLST204
 9282 1ce5 29       		.uleb128 0x29
 9283 1ce6 00030000 		.4byte	.Ldebug_ranges0+0x300
 9284 1cea 22       		.uleb128 0x22
 9285 1ceb 37010000 		.4byte	0x137
 9286 1cef 6C1A0000 		.4byte	.LLST205
 9287 1cf3 22       		.uleb128 0x22
 9288 1cf4 41010000 		.4byte	0x141
 9289 1cf8 6C1A0000 		.4byte	.LLST205
 9290 1cfc 19       		.uleb128 0x19
 9291 1cfd 18000000 		.4byte	.LVL362
 9292 1d01 11050000 		.4byte	0x511
 9293 1d05 211D0000 		.4byte	0x1d21
 9294 1d09 1A       		.uleb128 0x1a
 9295 1d0a 01       		.uleb128 0x1
 9296 1d0b 50       		.byte	0x50
 9297 1d0c 01       		.uleb128 0x1
 9298 1d0d 30       		.byte	0x30
 9299 1d0e 1A       		.uleb128 0x1a
 9300 1d0f 01       		.uleb128 0x1
 9301 1d10 51       		.byte	0x51
 9302 1d11 01       		.uleb128 0x1
 9303 1d12 30       		.byte	0x30
 9304 1d13 1A       		.uleb128 0x1a
 9305 1d14 01       		.uleb128 0x1
 9306 1d15 52       		.byte	0x52
 9307 1d16 02       		.uleb128 0x2
 9308 1d17 08       		.byte	0x8
 9309 1d18 F0       		.byte	0xf0
 9310 1d19 1A       		.uleb128 0x1a
 9311 1d1a 01       		.uleb128 0x1
 9312 1d1b 53       		.byte	0x53
 9313 1d1c 03       		.uleb128 0x3
 9314 1d1d 0A       		.byte	0xa
 9315 1d1e 4001     		.2byte	0x140
 9316 1d20 00       		.byte	0
 9317 1d21 19       		.uleb128 0x19
 9318 1d22 1E000000 		.4byte	.LVL363
 9319 1d26 CE4A0000 		.4byte	0x4ace
 9320 1d2a 341D0000 		.4byte	0x1d34
 9321 1d2e 1A       		.uleb128 0x1a
 9322 1d2f 01       		.uleb128 0x1
 9323 1d30 50       		.byte	0x50
 9324 1d31 01       		.uleb128 0x1
 9325 1d32 31       		.byte	0x31
 9326 1d33 00       		.byte	0
 9327 1d34 19       		.uleb128 0x19
 9328 1d35 24000000 		.4byte	.LVL364
 9329 1d39 EF4A0000 		.4byte	0x4aef
 9330 1d3d 471D0000 		.4byte	0x1d47
ARM GAS  C:\Users\legoc\AppData\Local\Temp\ccMAvaOS.s 			page 187


 9331 1d41 1A       		.uleb128 0x1a
 9332 1d42 01       		.uleb128 0x1
 9333 1d43 50       		.byte	0x50
 9334 1d44 01       		.uleb128 0x1
 9335 1d45 30       		.byte	0x30
 9336 1d46 00       		.byte	0
 9337 1d47 19       		.uleb128 0x19
 9338 1d48 30000000 		.4byte	.LVL367
 9339 1d4c D94A0000 		.4byte	0x4ad9
 9340 1d50 5A1D0000 		.4byte	0x1d5a
 9341 1d54 1A       		.uleb128 0x1a
 9342 1d55 01       		.uleb128 0x1
 9343 1d56 50       		.byte	0x50
 9344 1d57 01       		.uleb128 0x1
 9345 1d58 30       		.byte	0x30
 9346 1d59 00       		.byte	0
 9347 1d5a 1B       		.uleb128 0x1b
 9348 1d5b 34000000 		.4byte	.LVL368
 9349 1d5f E44A0000 		.4byte	0x4ae4
 9350 1d63 19       		.uleb128 0x19
 9351 1d64 3E000000 		.4byte	.LVL369
 9352 1d68 D94A0000 		.4byte	0x4ad9
 9353 1d6c 761D0000 		.4byte	0x1d76
 9354 1d70 1A       		.uleb128 0x1a
 9355 1d71 01       		.uleb128 0x1
 9356 1d72 50       		.byte	0x50
 9357 1d73 01       		.uleb128 0x1
 9358 1d74 30       		.byte	0x30
 9359 1d75 00       		.byte	0
 9360 1d76 1B       		.uleb128 0x1b
 9361 1d77 42000000 		.4byte	.LVL370
 9362 1d7b E44A0000 		.4byte	0x4ae4
 9363 1d7f 2C       		.uleb128 0x2c
 9364 1d80 5C000000 		.4byte	.LVL371
 9365 1d84 EF4A0000 		.4byte	0x4aef
 9366 1d88 1A       		.uleb128 0x1a
 9367 1d89 01       		.uleb128 0x1
 9368 1d8a 50       		.byte	0x50
 9369 1d8b 02       		.uleb128 0x2
 9370 1d8c 74       		.byte	0x74
 9371 1d8d 00       		.sleb128 0
 9372 1d8e 00       		.byte	0
 9373 1d8f 00       		.byte	0
 9374 1d90 00       		.byte	0
 9375 1d91 00       		.byte	0
 9376 1d92 00       		.byte	0
 9377 1d93 00       		.byte	0
 9378 1d94 00       		.byte	0
 9379 1d95 26       		.uleb128 0x26
 9380 1d96 4C020000 		.4byte	0x24c
 9381 1d9a 72000000 		.4byte	.LBB449
 9382 1d9e 28030000 		.4byte	.Ldebug_ranges0+0x328
 9383 1da2 01       		.byte	0x1
 9384 1da3 8401     		.2byte	0x184
 9385 1da5 261E0000 		.4byte	0x1e26
 9386 1da9 18       		.uleb128 0x18
 9387 1daa 85020000 		.4byte	0x285
ARM GAS  C:\Users\legoc\AppData\Local\Temp\ccMAvaOS.s 			page 188


 9388 1dae 801A0000 		.4byte	.LLST207
 9389 1db2 18       		.uleb128 0x18
 9390 1db3 7A020000 		.4byte	0x27a
 9391 1db7 951A0000 		.4byte	.LLST208
 9392 1dbb 18       		.uleb128 0x18
 9393 1dbc 6F020000 		.4byte	0x26f
 9394 1dc0 A91A0000 		.4byte	.LLST209
 9395 1dc4 18       		.uleb128 0x18
 9396 1dc5 64020000 		.4byte	0x264
 9397 1dc9 951A0000 		.4byte	.LLST208
 9398 1dcd 18       		.uleb128 0x18
 9399 1dce 59020000 		.4byte	0x259
 9400 1dd2 BE1A0000 		.4byte	.LLST211
 9401 1dd6 3A       		.uleb128 0x3a
 9402 1dd7 14020000 		.4byte	0x214
 9403 1ddb 72000000 		.4byte	.LBB450
 9404 1ddf 28030000 		.4byte	.Ldebug_ranges0+0x328
 9405 1de3 01       		.byte	0x1
 9406 1de4 2101     		.2byte	0x121
 9407 1de6 25       		.uleb128 0x25
 9408 1de7 3F020000 		.4byte	0x23f
 9409 1deb 7F       		.sleb128 -1
 9410 1dec 21       		.uleb128 0x21
 9411 1ded 35020000 		.4byte	0x235
 9412 1df1 BF       		.byte	0xbf
 9413 1df2 21       		.uleb128 0x21
 9414 1df3 2B020000 		.4byte	0x22b
 9415 1df7 0A       		.byte	0xa
 9416 1df8 21       		.uleb128 0x21
 9417 1df9 21020000 		.4byte	0x221
 9418 1dfd 1E       		.byte	0x1e
 9419 1dfe 2C       		.uleb128 0x2c
 9420 1dff 86000000 		.4byte	.LVL377
 9421 1e03 EC120000 		.4byte	0x12ec
 9422 1e07 1A       		.uleb128 0x1a
 9423 1e08 01       		.uleb128 0x1
 9424 1e09 50       		.byte	0x50
 9425 1e0a 01       		.uleb128 0x1
 9426 1e0b 4E       		.byte	0x4e
 9427 1e0c 1A       		.uleb128 0x1a
 9428 1e0d 01       		.uleb128 0x1
 9429 1e0e 51       		.byte	0x51
 9430 1e0f 01       		.uleb128 0x1
 9431 1e10 3A       		.byte	0x3a
 9432 1e11 1A       		.uleb128 0x1a
 9433 1e12 01       		.uleb128 0x1
 9434 1e13 52       		.byte	0x52
 9435 1e14 02       		.uleb128 0x2
 9436 1e15 08       		.byte	0x8
 9437 1e16 DC       		.byte	0xdc
 9438 1e17 1A       		.uleb128 0x1a
 9439 1e18 01       		.uleb128 0x1
 9440 1e19 53       		.byte	0x53
 9441 1e1a 01       		.uleb128 0x1
 9442 1e1b 3A       		.byte	0x3a
 9443 1e1c 1A       		.uleb128 0x1a
 9444 1e1d 02       		.uleb128 0x2
ARM GAS  C:\Users\legoc\AppData\Local\Temp\ccMAvaOS.s 			page 189


 9445 1e1e 7D       		.byte	0x7d
 9446 1e1f 00       		.sleb128 0
 9447 1e20 02       		.uleb128 0x2
 9448 1e21 75       		.byte	0x75
 9449 1e22 00       		.sleb128 0
 9450 1e23 00       		.byte	0
 9451 1e24 00       		.byte	0
 9452 1e25 00       		.byte	0
 9453 1e26 42       		.uleb128 0x42
 9454 1e27 4C020000 		.4byte	0x24c
 9455 1e2b 86000000 		.4byte	.LBB455
 9456 1e2f 0E000000 		.4byte	.LBE455-.LBB455
 9457 1e33 01       		.byte	0x1
 9458 1e34 8501     		.2byte	0x185
 9459 1e36 EE1E0000 		.4byte	0x1eee
 9460 1e3a 18       		.uleb128 0x18
 9461 1e3b 85020000 		.4byte	0x285
 9462 1e3f D21A0000 		.4byte	.LLST212
 9463 1e43 18       		.uleb128 0x18
 9464 1e44 7A020000 		.4byte	0x27a
 9465 1e48 E71A0000 		.4byte	.LLST213
 9466 1e4c 18       		.uleb128 0x18
 9467 1e4d 6F020000 		.4byte	0x26f
 9468 1e51 FC1A0000 		.4byte	.LLST214
 9469 1e55 18       		.uleb128 0x18
 9470 1e56 64020000 		.4byte	0x264
 9471 1e5a 101B0000 		.4byte	.LLST215
 9472 1e5e 18       		.uleb128 0x18
 9473 1e5f 59020000 		.4byte	0x259
 9474 1e63 FC1A0000 		.4byte	.LLST214
 9475 1e67 2B       		.uleb128 0x2b
 9476 1e68 86000000 		.4byte	.LBB456
 9477 1e6c 0E000000 		.4byte	.LBE456-.LBB456
 9478 1e70 18       		.uleb128 0x18
 9479 1e71 6F020000 		.4byte	0x26f
 9480 1e75 FC1A0000 		.4byte	.LLST214
 9481 1e79 18       		.uleb128 0x18
 9482 1e7a 85020000 		.4byte	0x285
 9483 1e7e D21A0000 		.4byte	.LLST212
 9484 1e82 18       		.uleb128 0x18
 9485 1e83 7A020000 		.4byte	0x27a
 9486 1e87 E71A0000 		.4byte	.LLST213
 9487 1e8b 18       		.uleb128 0x18
 9488 1e8c 64020000 		.4byte	0x264
 9489 1e90 101B0000 		.4byte	.LLST215
 9490 1e94 18       		.uleb128 0x18
 9491 1e95 59020000 		.4byte	0x259
 9492 1e99 FC1A0000 		.4byte	.LLST214
 9493 1e9d 43       		.uleb128 0x43
 9494 1e9e DC010000 		.4byte	0x1dc
 9495 1ea2 86000000 		.4byte	.LBB457
 9496 1ea6 0E000000 		.4byte	.LBE457-.LBB457
 9497 1eaa 01       		.byte	0x1
 9498 1eab 1B01     		.2byte	0x11b
 9499 1ead 25       		.uleb128 0x25
 9500 1eae 07020000 		.4byte	0x207
 9501 1eb2 7F       		.sleb128 -1
ARM GAS  C:\Users\legoc\AppData\Local\Temp\ccMAvaOS.s 			page 190


 9502 1eb3 21       		.uleb128 0x21
 9503 1eb4 FD010000 		.4byte	0x1fd
 9504 1eb8 C0       		.byte	0xc0
 9505 1eb9 21       		.uleb128 0x21
 9506 1eba F3010000 		.4byte	0x1f3
 9507 1ebe 0A       		.byte	0xa
 9508 1ebf 21       		.uleb128 0x21
 9509 1ec0 E9010000 		.4byte	0x1e9
 9510 1ec4 1E       		.byte	0x1e
 9511 1ec5 2C       		.uleb128 0x2c
 9512 1ec6 94000000 		.4byte	.LVL378
 9513 1eca EC120000 		.4byte	0x12ec
 9514 1ece 1A       		.uleb128 0x1a
 9515 1ecf 01       		.uleb128 0x1
 9516 1ed0 50       		.byte	0x50
 9517 1ed1 01       		.uleb128 0x1
 9518 1ed2 4E       		.byte	0x4e
 9519 1ed3 1A       		.uleb128 0x1a
 9520 1ed4 01       		.uleb128 0x1
 9521 1ed5 51       		.byte	0x51
 9522 1ed6 01       		.uleb128 0x1
 9523 1ed7 3A       		.byte	0x3a
 9524 1ed8 1A       		.uleb128 0x1a
 9525 1ed9 01       		.uleb128 0x1
 9526 1eda 52       		.byte	0x52
 9527 1edb 01       		.uleb128 0x1
 9528 1edc 4E       		.byte	0x4e
 9529 1edd 1A       		.uleb128 0x1a
 9530 1ede 01       		.uleb128 0x1
 9531 1edf 53       		.byte	0x53
 9532 1ee0 02       		.uleb128 0x2
 9533 1ee1 08       		.byte	0x8
 9534 1ee2 C9       		.byte	0xc9
 9535 1ee3 1A       		.uleb128 0x1a
 9536 1ee4 02       		.uleb128 0x2
 9537 1ee5 7D       		.byte	0x7d
 9538 1ee6 00       		.sleb128 0
 9539 1ee7 02       		.uleb128 0x2
 9540 1ee8 75       		.byte	0x75
 9541 1ee9 00       		.sleb128 0
 9542 1eea 00       		.byte	0
 9543 1eeb 00       		.byte	0
 9544 1eec 00       		.byte	0
 9545 1eed 00       		.byte	0
 9546 1eee 2E       		.uleb128 0x2e
 9547 1eef 40030000 		.4byte	.Ldebug_ranges0+0x340
 9548 1ef3 641F0000 		.4byte	0x1f64
 9549 1ef7 44       		.uleb128 0x44
 9550 1ef8 8B030000 		.4byte	.LASF47
 9551 1efc 01       		.byte	0x1
 9552 1efd 4F01     		.2byte	0x14f
 9553 1eff 89000000 		.4byte	0x89
 9554 1f03 091F0000 		.4byte	0x1f09
 9555 1f07 14       		.uleb128 0x14
 9556 1f08 00       		.byte	0
 9557 1f09 19       		.uleb128 0x19
 9558 1f0a B6000000 		.4byte	.LVL380
ARM GAS  C:\Users\legoc\AppData\Local\Temp\ccMAvaOS.s 			page 191


 9559 1f0e FA4A0000 		.4byte	0x4afa
 9560 1f12 381F0000 		.4byte	0x1f38
 9561 1f16 1A       		.uleb128 0x1a
 9562 1f17 01       		.uleb128 0x1
 9563 1f18 50       		.byte	0x50
 9564 1f19 02       		.uleb128 0x2
 9565 1f1a 08       		.byte	0x8
 9566 1f1b E6       		.byte	0xe6
 9567 1f1c 1A       		.uleb128 0x1a
 9568 1f1d 01       		.uleb128 0x1
 9569 1f1e 51       		.byte	0x51
 9570 1f1f 01       		.uleb128 0x1
 9571 1f20 34       		.byte	0x34
 9572 1f21 1A       		.uleb128 0x1a
 9573 1f22 01       		.uleb128 0x1
 9574 1f23 52       		.byte	0x52
 9575 1f24 02       		.uleb128 0x2
 9576 1f25 75       		.byte	0x75
 9577 1f26 00       		.sleb128 0
 9578 1f27 1A       		.uleb128 0x1a
 9579 1f28 01       		.uleb128 0x1
 9580 1f29 53       		.byte	0x53
 9581 1f2a 05       		.uleb128 0x5
 9582 1f2b 03       		.byte	0x3
 9583 1f2c 00000000 		.4byte	.LC0
 9584 1f30 1A       		.uleb128 0x1a
 9585 1f31 02       		.uleb128 0x2
 9586 1f32 7D       		.byte	0x7d
 9587 1f33 00       		.sleb128 0
 9588 1f34 02       		.uleb128 0x2
 9589 1f35 74       		.byte	0x74
 9590 1f36 00       		.sleb128 0
 9591 1f37 00       		.byte	0
 9592 1f38 2C       		.uleb128 0x2c
 9593 1f39 C4000000 		.4byte	.LVL381
 9594 1f3d FA4A0000 		.4byte	0x4afa
 9595 1f41 1A       		.uleb128 0x1a
 9596 1f42 01       		.uleb128 0x1
 9597 1f43 50       		.byte	0x50
 9598 1f44 01       		.uleb128 0x1
 9599 1f45 33       		.byte	0x33
 9600 1f46 1A       		.uleb128 0x1a
 9601 1f47 01       		.uleb128 0x1
 9602 1f48 51       		.byte	0x51
 9603 1f49 02       		.uleb128 0x2
 9604 1f4a 08       		.byte	0x8
 9605 1f4b D9       		.byte	0xd9
 9606 1f4c 1A       		.uleb128 0x1a
 9607 1f4d 01       		.uleb128 0x1
 9608 1f4e 52       		.byte	0x52
 9609 1f4f 02       		.uleb128 0x2
 9610 1f50 75       		.byte	0x75
 9611 1f51 00       		.sleb128 0
 9612 1f52 1A       		.uleb128 0x1a
 9613 1f53 01       		.uleb128 0x1
 9614 1f54 53       		.byte	0x53
 9615 1f55 05       		.uleb128 0x5
ARM GAS  C:\Users\legoc\AppData\Local\Temp\ccMAvaOS.s 			page 192


 9616 1f56 03       		.byte	0x3
 9617 1f57 08000000 		.4byte	.LC1
 9618 1f5b 1A       		.uleb128 0x1a
 9619 1f5c 02       		.uleb128 0x2
 9620 1f5d 7D       		.byte	0x7d
 9621 1f5e 00       		.sleb128 0
 9622 1f5f 02       		.uleb128 0x2
 9623 1f60 74       		.byte	0x74
 9624 1f61 00       		.sleb128 0
 9625 1f62 00       		.byte	0
 9626 1f63 00       		.byte	0
 9627 1f64 2E       		.uleb128 0x2e
 9628 1f65 58030000 		.4byte	.Ldebug_ranges0+0x358
 9629 1f69 69200000 		.4byte	0x2069
 9630 1f6d 44       		.uleb128 0x44
 9631 1f6e 8B030000 		.4byte	.LASF47
 9632 1f72 01       		.byte	0x1
 9633 1f73 4F01     		.2byte	0x14f
 9634 1f75 89000000 		.4byte	0x89
 9635 1f79 7F1F0000 		.4byte	0x1f7f
 9636 1f7d 14       		.uleb128 0x14
 9637 1f7e 00       		.byte	0
 9638 1f7f 26       		.uleb128 0x26
 9639 1f80 4C020000 		.4byte	0x24c
 9640 1f84 C8000000 		.4byte	.LBB462
 9641 1f88 70030000 		.4byte	.Ldebug_ranges0+0x370
 9642 1f8c 01       		.byte	0x1
 9643 1f8d A001     		.2byte	0x1a0
 9644 1f8f 1E200000 		.4byte	0x201e
 9645 1f93 18       		.uleb128 0x18
 9646 1f94 85020000 		.4byte	0x285
 9647 1f98 241B0000 		.4byte	.LLST222
 9648 1f9c 18       		.uleb128 0x18
 9649 1f9d 7A020000 		.4byte	0x27a
 9650 1fa1 391B0000 		.4byte	.LLST223
 9651 1fa5 18       		.uleb128 0x18
 9652 1fa6 6F020000 		.4byte	0x26f
 9653 1faa 571B0000 		.4byte	.LLST224
 9654 1fae 18       		.uleb128 0x18
 9655 1faf 64020000 		.4byte	0x264
 9656 1fb3 391B0000 		.4byte	.LLST223
 9657 1fb7 18       		.uleb128 0x18
 9658 1fb8 59020000 		.4byte	0x259
 9659 1fbc 6C1B0000 		.4byte	.LLST226
 9660 1fc0 3A       		.uleb128 0x3a
 9661 1fc1 14020000 		.4byte	0x214
 9662 1fc5 C8000000 		.4byte	.LBB463
 9663 1fc9 70030000 		.4byte	.Ldebug_ranges0+0x370
 9664 1fcd 01       		.byte	0x1
 9665 1fce 2101     		.2byte	0x121
 9666 1fd0 18       		.uleb128 0x18
 9667 1fd1 3F020000 		.4byte	0x23f
 9668 1fd5 801B0000 		.4byte	.LLST227
 9669 1fd9 18       		.uleb128 0x18
 9670 1fda 35020000 		.4byte	0x235
 9671 1fde 951B0000 		.4byte	.LLST228
 9672 1fe2 18       		.uleb128 0x18
ARM GAS  C:\Users\legoc\AppData\Local\Temp\ccMAvaOS.s 			page 193


 9673 1fe3 2B020000 		.4byte	0x22b
 9674 1fe7 AA1B0000 		.4byte	.LLST229
 9675 1feb 18       		.uleb128 0x18
 9676 1fec 21020000 		.4byte	0x221
 9677 1ff0 C81B0000 		.4byte	.LLST230
 9678 1ff4 2C       		.uleb128 0x2c
 9679 1ff5 F6000000 		.4byte	.LVL386
 9680 1ff9 EC120000 		.4byte	0x12ec
 9681 1ffd 1A       		.uleb128 0x1a
 9682 1ffe 01       		.uleb128 0x1
 9683 1fff 50       		.byte	0x50
 9684 2000 01       		.uleb128 0x1
 9685 2001 4E       		.byte	0x4e
 9686 2002 1A       		.uleb128 0x1a
 9687 2003 01       		.uleb128 0x1
 9688 2004 51       		.byte	0x51
 9689 2005 02       		.uleb128 0x2
 9690 2006 74       		.byte	0x74
 9691 2007 00       		.sleb128 0
 9692 2008 1A       		.uleb128 0x1a
 9693 2009 01       		.uleb128 0x1
 9694 200a 52       		.byte	0x52
 9695 200b 02       		.uleb128 0x2
 9696 200c 08       		.byte	0x8
 9697 200d DC       		.byte	0xdc
 9698 200e 1A       		.uleb128 0x1a
 9699 200f 01       		.uleb128 0x1
 9700 2010 53       		.byte	0x53
 9701 2011 02       		.uleb128 0x2
 9702 2012 74       		.byte	0x74
 9703 2013 00       		.sleb128 0
 9704 2014 1A       		.uleb128 0x1a
 9705 2015 02       		.uleb128 0x2
 9706 2016 7D       		.byte	0x7d
 9707 2017 00       		.sleb128 0
 9708 2018 02       		.uleb128 0x2
 9709 2019 7B       		.byte	0x7b
 9710 201a 00       		.sleb128 0
 9711 201b 00       		.byte	0
 9712 201c 00       		.byte	0
 9713 201d 00       		.byte	0
 9714 201e 19       		.uleb128 0x19
 9715 201f E6000000 		.4byte	.LVL384
 9716 2023 1A4B0000 		.4byte	0x4b1a
 9717 2027 41200000 		.4byte	0x2041
 9718 202b 1A       		.uleb128 0x1a
 9719 202c 01       		.uleb128 0x1
 9720 202d 50       		.byte	0x50
 9721 202e 02       		.uleb128 0x2
 9722 202f 91       		.byte	0x91
 9723 2030 4C       		.sleb128 -52
 9724 2031 1A       		.uleb128 0x1a
 9725 2032 01       		.uleb128 0x1
 9726 2033 51       		.byte	0x51
 9727 2034 05       		.uleb128 0x5
 9728 2035 03       		.byte	0x3
 9729 2036 28000000 		.4byte	.LC4
ARM GAS  C:\Users\legoc\AppData\Local\Temp\ccMAvaOS.s 			page 194


 9730 203a 1A       		.uleb128 0x1a
 9731 203b 01       		.uleb128 0x1
 9732 203c 52       		.byte	0x52
 9733 203d 02       		.uleb128 0x2
 9734 203e 75       		.byte	0x75
 9735 203f 00       		.sleb128 0
 9736 2040 00       		.byte	0
 9737 2041 2C       		.uleb128 0x2c
 9738 2042 0A010000 		.4byte	.LVL388
 9739 2046 FA4A0000 		.4byte	0x4afa
 9740 204a 1A       		.uleb128 0x1a
 9741 204b 01       		.uleb128 0x1
 9742 204c 50       		.byte	0x50
 9743 204d 01       		.uleb128 0x1
 9744 204e 33       		.byte	0x33
 9745 204f 1A       		.uleb128 0x1a
 9746 2050 01       		.uleb128 0x1
 9747 2051 51       		.byte	0x51
 9748 2052 02       		.uleb128 0x2
 9749 2053 76       		.byte	0x76
 9750 2054 00       		.sleb128 0
 9751 2055 1A       		.uleb128 0x1a
 9752 2056 01       		.uleb128 0x1
 9753 2057 52       		.byte	0x52
 9754 2058 02       		.uleb128 0x2
 9755 2059 7B       		.byte	0x7b
 9756 205a 00       		.sleb128 0
 9757 205b 1A       		.uleb128 0x1a
 9758 205c 01       		.uleb128 0x1
 9759 205d 53       		.byte	0x53
 9760 205e 02       		.uleb128 0x2
 9761 205f 91       		.byte	0x91
 9762 2060 4C       		.sleb128 -52
 9763 2061 1A       		.uleb128 0x1a
 9764 2062 02       		.uleb128 0x2
 9765 2063 7D       		.byte	0x7d
 9766 2064 00       		.sleb128 0
 9767 2065 01       		.uleb128 0x1
 9768 2066 31       		.byte	0x31
 9769 2067 00       		.byte	0
 9770 2068 00       		.byte	0
 9771 2069 2E       		.uleb128 0x2e
 9772 206a 88030000 		.4byte	.Ldebug_ranges0+0x388
 9773 206e A1210000 		.4byte	0x21a1
 9774 2072 44       		.uleb128 0x44
 9775 2073 8B030000 		.4byte	.LASF47
 9776 2077 01       		.byte	0x1
 9777 2078 4F01     		.2byte	0x14f
 9778 207a 89000000 		.4byte	0x89
 9779 207e 84200000 		.4byte	0x2084
 9780 2082 14       		.uleb128 0x14
 9781 2083 00       		.byte	0
 9782 2084 26       		.uleb128 0x26
 9783 2085 4C020000 		.4byte	0x24c
 9784 2089 1A010000 		.4byte	.LBB470
 9785 208d A8030000 		.4byte	.Ldebug_ranges0+0x3a8
 9786 2091 01       		.byte	0x1
ARM GAS  C:\Users\legoc\AppData\Local\Temp\ccMAvaOS.s 			page 195


 9787 2092 A801     		.2byte	0x1a8
 9788 2094 56210000 		.4byte	0x2156
 9789 2098 18       		.uleb128 0x18
 9790 2099 85020000 		.4byte	0x285
 9791 209d DC1B0000 		.4byte	.LLST231
 9792 20a1 18       		.uleb128 0x18
 9793 20a2 7A020000 		.4byte	0x27a
 9794 20a6 F11B0000 		.4byte	.LLST232
 9795 20aa 18       		.uleb128 0x18
 9796 20ab 6F020000 		.4byte	0x26f
 9797 20af 061C0000 		.4byte	.LLST233
 9798 20b3 18       		.uleb128 0x18
 9799 20b4 64020000 		.4byte	0x264
 9800 20b8 241C0000 		.4byte	.LLST234
 9801 20bc 18       		.uleb128 0x18
 9802 20bd 59020000 		.4byte	0x259
 9803 20c1 061C0000 		.4byte	.LLST233
 9804 20c5 29       		.uleb128 0x29
 9805 20c6 A8030000 		.4byte	.Ldebug_ranges0+0x3a8
 9806 20ca 18       		.uleb128 0x18
 9807 20cb 6F020000 		.4byte	0x26f
 9808 20cf 061C0000 		.4byte	.LLST233
 9809 20d3 18       		.uleb128 0x18
 9810 20d4 85020000 		.4byte	0x285
 9811 20d8 DC1B0000 		.4byte	.LLST231
 9812 20dc 18       		.uleb128 0x18
 9813 20dd 7A020000 		.4byte	0x27a
 9814 20e1 F11B0000 		.4byte	.LLST232
 9815 20e5 18       		.uleb128 0x18
 9816 20e6 64020000 		.4byte	0x264
 9817 20ea 241C0000 		.4byte	.LLST234
 9818 20ee 18       		.uleb128 0x18
 9819 20ef 59020000 		.4byte	0x259
 9820 20f3 061C0000 		.4byte	.LLST233
 9821 20f7 3A       		.uleb128 0x3a
 9822 20f8 DC010000 		.4byte	0x1dc
 9823 20fc 1A010000 		.4byte	.LBB472
 9824 2100 A8030000 		.4byte	.Ldebug_ranges0+0x3a8
 9825 2104 01       		.byte	0x1
 9826 2105 1B01     		.2byte	0x11b
 9827 2107 18       		.uleb128 0x18
 9828 2108 07020000 		.4byte	0x207
 9829 210c 381C0000 		.4byte	.LLST241
 9830 2110 18       		.uleb128 0x18
 9831 2111 FD010000 		.4byte	0x1fd
 9832 2115 4D1C0000 		.4byte	.LLST242
 9833 2119 18       		.uleb128 0x18
 9834 211a F3010000 		.4byte	0x1f3
 9835 211e 621C0000 		.4byte	.LLST243
 9836 2122 18       		.uleb128 0x18
 9837 2123 E9010000 		.4byte	0x1e9
 9838 2127 761C0000 		.4byte	.LLST244
 9839 212b 2C       		.uleb128 0x2c
 9840 212c 46010000 		.4byte	.LVL396
 9841 2130 EC120000 		.4byte	0x12ec
 9842 2134 1A       		.uleb128 0x1a
 9843 2135 01       		.uleb128 0x1
ARM GAS  C:\Users\legoc\AppData\Local\Temp\ccMAvaOS.s 			page 196


 9844 2136 50       		.byte	0x50
 9845 2137 02       		.uleb128 0x2
 9846 2138 74       		.byte	0x74
 9847 2139 00       		.sleb128 0
 9848 213a 1A       		.uleb128 0x1a
 9849 213b 01       		.uleb128 0x1
 9850 213c 51       		.byte	0x51
 9851 213d 01       		.uleb128 0x1
 9852 213e 3A       		.byte	0x3a
 9853 213f 1A       		.uleb128 0x1a
 9854 2140 01       		.uleb128 0x1
 9855 2141 52       		.byte	0x52
 9856 2142 02       		.uleb128 0x2
 9857 2143 74       		.byte	0x74
 9858 2144 00       		.sleb128 0
 9859 2145 1A       		.uleb128 0x1a
 9860 2146 01       		.uleb128 0x1
 9861 2147 53       		.byte	0x53
 9862 2148 02       		.uleb128 0x2
 9863 2149 08       		.byte	0x8
 9864 214a CA       		.byte	0xca
 9865 214b 1A       		.uleb128 0x1a
 9866 214c 02       		.uleb128 0x2
 9867 214d 7D       		.byte	0x7d
 9868 214e 00       		.sleb128 0
 9869 214f 02       		.uleb128 0x2
 9870 2150 7A       		.byte	0x7a
 9871 2151 00       		.sleb128 0
 9872 2152 00       		.byte	0
 9873 2153 00       		.byte	0
 9874 2154 00       		.byte	0
 9875 2155 00       		.byte	0
 9876 2156 19       		.uleb128 0x19
 9877 2157 36010000 		.4byte	.LVL394
 9878 215b 1A4B0000 		.4byte	0x4b1a
 9879 215f 79210000 		.4byte	0x2179
 9880 2163 1A       		.uleb128 0x1a
 9881 2164 01       		.uleb128 0x1
 9882 2165 50       		.byte	0x50
 9883 2166 02       		.uleb128 0x2
 9884 2167 91       		.byte	0x91
 9885 2168 40       		.sleb128 -64
 9886 2169 1A       		.uleb128 0x1a
 9887 216a 01       		.uleb128 0x1
 9888 216b 51       		.byte	0x51
 9889 216c 05       		.uleb128 0x5
 9890 216d 03       		.byte	0x3
 9891 216e 2C000000 		.4byte	.LC6
 9892 2172 1A       		.uleb128 0x1a
 9893 2173 01       		.uleb128 0x1
 9894 2174 52       		.byte	0x52
 9895 2175 02       		.uleb128 0x2
 9896 2176 75       		.byte	0x75
 9897 2177 00       		.sleb128 0
 9898 2178 00       		.byte	0
 9899 2179 2C       		.uleb128 0x2c
 9900 217a 5A010000 		.4byte	.LVL398
ARM GAS  C:\Users\legoc\AppData\Local\Temp\ccMAvaOS.s 			page 197


 9901 217e FA4A0000 		.4byte	0x4afa
 9902 2182 1A       		.uleb128 0x1a
 9903 2183 01       		.uleb128 0x1
 9904 2184 50       		.byte	0x50
 9905 2185 02       		.uleb128 0x2
 9906 2186 76       		.byte	0x76
 9907 2187 00       		.sleb128 0
 9908 2188 1A       		.uleb128 0x1a
 9909 2189 01       		.uleb128 0x1
 9910 218a 51       		.byte	0x51
 9911 218b 01       		.uleb128 0x1
 9912 218c 34       		.byte	0x34
 9913 218d 1A       		.uleb128 0x1a
 9914 218e 01       		.uleb128 0x1
 9915 218f 52       		.byte	0x52
 9916 2190 02       		.uleb128 0x2
 9917 2191 7A       		.byte	0x7a
 9918 2192 00       		.sleb128 0
 9919 2193 1A       		.uleb128 0x1a
 9920 2194 01       		.uleb128 0x1
 9921 2195 53       		.byte	0x53
 9922 2196 02       		.uleb128 0x2
 9923 2197 91       		.byte	0x91
 9924 2198 40       		.sleb128 -64
 9925 2199 1A       		.uleb128 0x1a
 9926 219a 02       		.uleb128 0x2
 9927 219b 7D       		.byte	0x7d
 9928 219c 00       		.sleb128 0
 9929 219d 01       		.uleb128 0x1
 9930 219e 31       		.byte	0x31
 9931 219f 00       		.byte	0
 9932 21a0 00       		.byte	0
 9933 21a1 2D       		.uleb128 0x2d
 9934 21a2 96010000 		.4byte	.LBB480
 9935 21a6 42000000 		.4byte	.LBE480-.LBB480
 9936 21aa 14220000 		.4byte	0x2214
 9937 21ae 44       		.uleb128 0x44
 9938 21af 8B030000 		.4byte	.LASF47
 9939 21b3 01       		.byte	0x1
 9940 21b4 4F01     		.2byte	0x14f
 9941 21b6 89000000 		.4byte	0x89
 9942 21ba C0210000 		.4byte	0x21c0
 9943 21be 14       		.uleb128 0x14
 9944 21bf 00       		.byte	0
 9945 21c0 19       		.uleb128 0x19
 9946 21c1 A2010000 		.4byte	.LVL403
 9947 21c5 FA4A0000 		.4byte	0x4afa
 9948 21c9 E8210000 		.4byte	0x21e8
 9949 21cd 1A       		.uleb128 0x1a
 9950 21ce 01       		.uleb128 0x1
 9951 21cf 50       		.byte	0x50
 9952 21d0 02       		.uleb128 0x2
 9953 21d1 08       		.byte	0x8
 9954 21d2 E6       		.byte	0xe6
 9955 21d3 1A       		.uleb128 0x1a
 9956 21d4 01       		.uleb128 0x1
 9957 21d5 51       		.byte	0x51
ARM GAS  C:\Users\legoc\AppData\Local\Temp\ccMAvaOS.s 			page 198


 9958 21d6 01       		.uleb128 0x1
 9959 21d7 34       		.byte	0x34
 9960 21d8 1A       		.uleb128 0x1a
 9961 21d9 01       		.uleb128 0x1
 9962 21da 52       		.byte	0x52
 9963 21db 02       		.uleb128 0x2
 9964 21dc 75       		.byte	0x75
 9965 21dd 00       		.sleb128 0
 9966 21de 1A       		.uleb128 0x1a
 9967 21df 01       		.uleb128 0x1
 9968 21e0 53       		.byte	0x53
 9969 21e1 05       		.uleb128 0x5
 9970 21e2 03       		.byte	0x3
 9971 21e3 14000000 		.4byte	.LC2
 9972 21e7 00       		.byte	0
 9973 21e8 2C       		.uleb128 0x2c
 9974 21e9 B0010000 		.4byte	.LVL404
 9975 21ed FA4A0000 		.4byte	0x4afa
 9976 21f1 1A       		.uleb128 0x1a
 9977 21f2 01       		.uleb128 0x1
 9978 21f3 50       		.byte	0x50
 9979 21f4 01       		.uleb128 0x1
 9980 21f5 33       		.byte	0x33
 9981 21f6 1A       		.uleb128 0x1a
 9982 21f7 01       		.uleb128 0x1
 9983 21f8 51       		.byte	0x51
 9984 21f9 02       		.uleb128 0x2
 9985 21fa 08       		.byte	0x8
 9986 21fb D9       		.byte	0xd9
 9987 21fc 1A       		.uleb128 0x1a
 9988 21fd 01       		.uleb128 0x1
 9989 21fe 52       		.byte	0x52
 9990 21ff 02       		.uleb128 0x2
 9991 2200 75       		.byte	0x75
 9992 2201 00       		.sleb128 0
 9993 2202 1A       		.uleb128 0x1a
 9994 2203 01       		.uleb128 0x1
 9995 2204 53       		.byte	0x53
 9996 2205 05       		.uleb128 0x5
 9997 2206 03       		.byte	0x3
 9998 2207 1C000000 		.4byte	.LC3
 9999 220b 1A       		.uleb128 0x1a
 10000 220c 02       		.uleb128 0x2
 10001 220d 7D       		.byte	0x7d
 10002 220e 00       		.sleb128 0
 10003 220f 02       		.uleb128 0x2
 10004 2210 74       		.byte	0x74
 10005 2211 00       		.sleb128 0
 10006 2212 00       		.byte	0
 10007 2213 00       		.byte	0
 10008 2214 2C       		.uleb128 0x2c
 10009 2215 8A010000 		.4byte	.LVL401
 10010 2219 C6020000 		.4byte	0x2c6
 10011 221d 1A       		.uleb128 0x1a
 10012 221e 01       		.uleb128 0x1
 10013 221f 50       		.byte	0x50
 10014 2220 02       		.uleb128 0x2
ARM GAS  C:\Users\legoc\AppData\Local\Temp\ccMAvaOS.s 			page 199


 10015 2221 08       		.byte	0x8
 10016 2222 82       		.byte	0x82
 10017 2223 1A       		.uleb128 0x1a
 10018 2224 01       		.uleb128 0x1
 10019 2225 51       		.byte	0x51
 10020 2226 02       		.uleb128 0x2
 10021 2227 08       		.byte	0x8
 10022 2228 D1       		.byte	0xd1
 10023 2229 1A       		.uleb128 0x1a
 10024 222a 01       		.uleb128 0x1
 10025 222b 52       		.byte	0x52
 10026 222c 02       		.uleb128 0x2
 10027 222d 08       		.byte	0x8
 10028 222e 3C       		.byte	0x3c
 10029 222f 1A       		.uleb128 0x1a
 10030 2230 01       		.uleb128 0x1
 10031 2231 53       		.byte	0x53
 10032 2232 01       		.uleb128 0x1
 10033 2233 4E       		.byte	0x4e
 10034 2234 1A       		.uleb128 0x1a
 10035 2235 02       		.uleb128 0x2
 10036 2236 7D       		.byte	0x7d
 10037 2237 00       		.sleb128 0
 10038 2238 03       		.uleb128 0x3
 10039 2239 0B       		.byte	0xb
 10040 223a 00F8     		.2byte	0xf800
 10041 223c 1A       		.uleb128 0x1a
 10042 223d 02       		.uleb128 0x2
 10043 223e 7D       		.byte	0x7d
 10044 223f 04       		.sleb128 4
 10045 2240 02       		.uleb128 0x2
 10046 2241 74       		.byte	0x74
 10047 2242 00       		.sleb128 0
 10048 2243 1A       		.uleb128 0x1a
 10049 2244 02       		.uleb128 0x2
 10050 2245 7D       		.byte	0x7d
 10051 2246 08       		.sleb128 8
 10052 2247 02       		.uleb128 0x2
 10053 2248 75       		.byte	0x75
 10054 2249 00       		.sleb128 0
 10055 224a 00       		.byte	0
 10056 224b 00       		.byte	0
 10057 224c 06       		.uleb128 0x6
 10058 224d D1000000 		.4byte	0xd1
 10059 2251 5C220000 		.4byte	0x225c
 10060 2255 07       		.uleb128 0x7
 10061 2256 DF000000 		.4byte	0xdf
 10062 225a 09       		.byte	0x9
 10063 225b 00       		.byte	0
 10064 225c 06       		.uleb128 0x6
 10065 225d D1000000 		.4byte	0xd1
 10066 2261 6C220000 		.4byte	0x226c
 10067 2265 07       		.uleb128 0x7
 10068 2266 DF000000 		.4byte	0xdf
 10069 226a 03       		.byte	0x3
 10070 226b 00       		.byte	0
 10071 226c 06       		.uleb128 0x6
ARM GAS  C:\Users\legoc\AppData\Local\Temp\ccMAvaOS.s 			page 200


 10072 226d D1000000 		.4byte	0xd1
 10073 2271 7C220000 		.4byte	0x227c
 10074 2275 07       		.uleb128 0x7
 10075 2276 DF000000 		.4byte	0xdf
 10076 227a 04       		.byte	0x4
 10077 227b 00       		.byte	0
 10078 227c 45       		.uleb128 0x45
 10079 227d 00000000 		.4byte	.LASF70
 10080 2281 01       		.byte	0x1
 10081 2282 B501     		.2byte	0x1b5
 10082 2284 00000000 		.4byte	.LFB16
 10083 2288 18020000 		.4byte	.LFE16-.LFB16
 10084 228c 01       		.uleb128 0x1
 10085 228d 9C       		.byte	0x9c
 10086 228e D92A0000 		.4byte	0x2ad9
 10087 2292 26       		.uleb128 0x26
 10088 2293 4C010000 		.4byte	0x14c
 10089 2297 02000000 		.4byte	.LBB506
 10090 229b C0030000 		.4byte	.Ldebug_ranges0+0x3c0
 10091 229f 01       		.byte	0x1
 10092 22a0 BA01     		.2byte	0x1ba
 10093 22a2 01240000 		.4byte	0x2401
 10094 22a6 18       		.uleb128 0x18
 10095 22a7 7C010000 		.4byte	0x17c
 10096 22ab 941C0000 		.4byte	.LLST245
 10097 22af 18       		.uleb128 0x18
 10098 22b0 73010000 		.4byte	0x173
 10099 22b4 A81C0000 		.4byte	.LLST246
 10100 22b8 18       		.uleb128 0x18
 10101 22b9 6A010000 		.4byte	0x16a
 10102 22bd BD1C0000 		.4byte	.LLST247
 10103 22c1 18       		.uleb128 0x18
 10104 22c2 61010000 		.4byte	0x161
 10105 22c6 D21C0000 		.4byte	.LLST248
 10106 22ca 18       		.uleb128 0x18
 10107 22cb 58010000 		.4byte	0x158
 10108 22cf D21C0000 		.4byte	.LLST248
 10109 22d3 28       		.uleb128 0x28
 10110 22d4 FC000000 		.4byte	0xfc
 10111 22d8 02000000 		.4byte	.LBB507
 10112 22dc C0030000 		.4byte	.Ldebug_ranges0+0x3c0
 10113 22e0 01       		.byte	0x1
 10114 22e1 95       		.byte	0x95
 10115 22e2 18       		.uleb128 0x18
 10116 22e3 2C010000 		.4byte	0x12c
 10117 22e7 941C0000 		.4byte	.LLST245
 10118 22eb 18       		.uleb128 0x18
 10119 22ec 23010000 		.4byte	0x123
 10120 22f0 BD1C0000 		.4byte	.LLST247
 10121 22f4 18       		.uleb128 0x18
 10122 22f5 1A010000 		.4byte	0x11a
 10123 22f9 A81C0000 		.4byte	.LLST246
 10124 22fd 18       		.uleb128 0x18
 10125 22fe 11010000 		.4byte	0x111
 10126 2302 BD1C0000 		.4byte	.LLST247
 10127 2306 18       		.uleb128 0x18
 10128 2307 08010000 		.4byte	0x108
ARM GAS  C:\Users\legoc\AppData\Local\Temp\ccMAvaOS.s 			page 201


 10129 230b D21C0000 		.4byte	.LLST248
 10130 230f 29       		.uleb128 0x29
 10131 2310 C0030000 		.4byte	.Ldebug_ranges0+0x3c0
 10132 2314 2A       		.uleb128 0x2a
 10133 2315 37010000 		.4byte	0x137
 10134 2319 2A       		.uleb128 0x2a
 10135 231a 41010000 		.4byte	0x141
 10136 231e 29       		.uleb128 0x29
 10137 231f C0030000 		.4byte	.Ldebug_ranges0+0x3c0
 10138 2323 18       		.uleb128 0x18
 10139 2324 08010000 		.4byte	0x108
 10140 2328 E61C0000 		.4byte	.LLST255
 10141 232c 18       		.uleb128 0x18
 10142 232d 1A010000 		.4byte	0x11a
 10143 2331 A81C0000 		.4byte	.LLST246
 10144 2335 18       		.uleb128 0x18
 10145 2336 2C010000 		.4byte	0x12c
 10146 233a 941C0000 		.4byte	.LLST245
 10147 233e 18       		.uleb128 0x18
 10148 233f 23010000 		.4byte	0x123
 10149 2343 BD1C0000 		.4byte	.LLST247
 10150 2347 18       		.uleb128 0x18
 10151 2348 11010000 		.4byte	0x111
 10152 234c 071D0000 		.4byte	.LLST259
 10153 2350 29       		.uleb128 0x29
 10154 2351 C0030000 		.4byte	.Ldebug_ranges0+0x3c0
 10155 2355 22       		.uleb128 0x22
 10156 2356 37010000 		.4byte	0x137
 10157 235a 1C1D0000 		.4byte	.LLST260
 10158 235e 22       		.uleb128 0x22
 10159 235f 41010000 		.4byte	0x141
 10160 2363 301D0000 		.4byte	.LLST261
 10161 2367 19       		.uleb128 0x19
 10162 2368 16000000 		.4byte	.LVL406
 10163 236c 11050000 		.4byte	0x511
 10164 2370 8D230000 		.4byte	0x238d
 10165 2374 1A       		.uleb128 0x1a
 10166 2375 01       		.uleb128 0x1
 10167 2376 50       		.byte	0x50
 10168 2377 02       		.uleb128 0x2
 10169 2378 74       		.byte	0x74
 10170 2379 00       		.sleb128 0
 10171 237a 1A       		.uleb128 0x1a
 10172 237b 01       		.uleb128 0x1
 10173 237c 51       		.byte	0x51
 10174 237d 02       		.uleb128 0x2
 10175 237e 08       		.byte	0x8
 10176 237f A0       		.byte	0xa0
 10177 2380 1A       		.uleb128 0x1a
 10178 2381 01       		.uleb128 0x1
 10179 2382 52       		.byte	0x52
 10180 2383 02       		.uleb128 0x2
 10181 2384 08       		.byte	0x8
 10182 2385 F0       		.byte	0xf0
 10183 2386 1A       		.uleb128 0x1a
 10184 2387 01       		.uleb128 0x1
 10185 2388 53       		.byte	0x53
ARM GAS  C:\Users\legoc\AppData\Local\Temp\ccMAvaOS.s 			page 202


 10186 2389 02       		.uleb128 0x2
 10187 238a 08       		.byte	0x8
 10188 238b A0       		.byte	0xa0
 10189 238c 00       		.byte	0
 10190 238d 19       		.uleb128 0x19
 10191 238e 1C000000 		.4byte	.LVL407
 10192 2392 CE4A0000 		.4byte	0x4ace
 10193 2396 A0230000 		.4byte	0x23a0
 10194 239a 1A       		.uleb128 0x1a
 10195 239b 01       		.uleb128 0x1
 10196 239c 50       		.byte	0x50
 10197 239d 01       		.uleb128 0x1
 10198 239e 31       		.byte	0x31
 10199 239f 00       		.byte	0
 10200 23a0 19       		.uleb128 0x19
 10201 23a1 22000000 		.4byte	.LVL408
 10202 23a5 EF4A0000 		.4byte	0x4aef
 10203 23a9 B4230000 		.4byte	0x23b4
 10204 23ad 1A       		.uleb128 0x1a
 10205 23ae 01       		.uleb128 0x1
 10206 23af 50       		.byte	0x50
 10207 23b0 02       		.uleb128 0x2
 10208 23b1 74       		.byte	0x74
 10209 23b2 00       		.sleb128 0
 10210 23b3 00       		.byte	0
 10211 23b4 19       		.uleb128 0x19
 10212 23b5 2C000000 		.4byte	.LVL411
 10213 23b9 D94A0000 		.4byte	0x4ad9
 10214 23bd C7230000 		.4byte	0x23c7
 10215 23c1 1A       		.uleb128 0x1a
 10216 23c2 01       		.uleb128 0x1
 10217 23c3 50       		.byte	0x50
 10218 23c4 01       		.uleb128 0x1
 10219 23c5 30       		.byte	0x30
 10220 23c6 00       		.byte	0
 10221 23c7 1B       		.uleb128 0x1b
 10222 23c8 30000000 		.4byte	.LVL412
 10223 23cc E44A0000 		.4byte	0x4ae4
 10224 23d0 19       		.uleb128 0x19
 10225 23d1 3A000000 		.4byte	.LVL413
 10226 23d5 D94A0000 		.4byte	0x4ad9
 10227 23d9 E3230000 		.4byte	0x23e3
 10228 23dd 1A       		.uleb128 0x1a
 10229 23de 01       		.uleb128 0x1
 10230 23df 50       		.byte	0x50
 10231 23e0 01       		.uleb128 0x1
 10232 23e1 4F       		.byte	0x4f
 10233 23e2 00       		.byte	0
 10234 23e3 1B       		.uleb128 0x1b
 10235 23e4 3E000000 		.4byte	.LVL414
 10236 23e8 E44A0000 		.4byte	0x4ae4
 10237 23ec 2C       		.uleb128 0x2c
 10238 23ed 58000000 		.4byte	.LVL415
 10239 23f1 EF4A0000 		.4byte	0x4aef
 10240 23f5 1A       		.uleb128 0x1a
 10241 23f6 01       		.uleb128 0x1
 10242 23f7 50       		.byte	0x50
ARM GAS  C:\Users\legoc\AppData\Local\Temp\ccMAvaOS.s 			page 203


 10243 23f8 02       		.uleb128 0x2
 10244 23f9 74       		.byte	0x74
 10245 23fa 00       		.sleb128 0
 10246 23fb 00       		.byte	0
 10247 23fc 00       		.byte	0
 10248 23fd 00       		.byte	0
 10249 23fe 00       		.byte	0
 10250 23ff 00       		.byte	0
 10251 2400 00       		.byte	0
 10252 2401 26       		.uleb128 0x26
 10253 2402 4C010000 		.4byte	0x14c
 10254 2406 58000000 		.4byte	.LBB530
 10255 240a F0030000 		.4byte	.Ldebug_ranges0+0x3f0
 10256 240e 01       		.byte	0x1
 10257 240f BB01     		.2byte	0x1bb
 10258 2411 72250000 		.4byte	0x2572
 10259 2415 18       		.uleb128 0x18
 10260 2416 7C010000 		.4byte	0x17c
 10261 241a 441D0000 		.4byte	.LLST262
 10262 241e 18       		.uleb128 0x18
 10263 241f 73010000 		.4byte	0x173
 10264 2423 5A1D0000 		.4byte	.LLST263
 10265 2427 18       		.uleb128 0x18
 10266 2428 6A010000 		.4byte	0x16a
 10267 242c 6F1D0000 		.4byte	.LLST264
 10268 2430 18       		.uleb128 0x18
 10269 2431 61010000 		.4byte	0x161
 10270 2435 841D0000 		.4byte	.LLST265
 10271 2439 18       		.uleb128 0x18
 10272 243a 58010000 		.4byte	0x158
 10273 243e 6F1D0000 		.4byte	.LLST264
 10274 2442 28       		.uleb128 0x28
 10275 2443 FC000000 		.4byte	0xfc
 10276 2447 58000000 		.4byte	.LBB531
 10277 244b F0030000 		.4byte	.Ldebug_ranges0+0x3f0
 10278 244f 01       		.byte	0x1
 10279 2450 95       		.byte	0x95
 10280 2451 18       		.uleb128 0x18
 10281 2452 2C010000 		.4byte	0x12c
 10282 2456 441D0000 		.4byte	.LLST262
 10283 245a 18       		.uleb128 0x18
 10284 245b 23010000 		.4byte	0x123
 10285 245f 6F1D0000 		.4byte	.LLST264
 10286 2463 18       		.uleb128 0x18
 10287 2464 1A010000 		.4byte	0x11a
 10288 2468 5A1D0000 		.4byte	.LLST263
 10289 246c 18       		.uleb128 0x18
 10290 246d 11010000 		.4byte	0x111
 10291 2471 841D0000 		.4byte	.LLST265
 10292 2475 18       		.uleb128 0x18
 10293 2476 08010000 		.4byte	0x108
 10294 247a 841D0000 		.4byte	.LLST265
 10295 247e 29       		.uleb128 0x29
 10296 247f F0030000 		.4byte	.Ldebug_ranges0+0x3f0
 10297 2483 2A       		.uleb128 0x2a
 10298 2484 37010000 		.4byte	0x137
 10299 2488 2A       		.uleb128 0x2a
ARM GAS  C:\Users\legoc\AppData\Local\Temp\ccMAvaOS.s 			page 204


 10300 2489 41010000 		.4byte	0x141
 10301 248d 29       		.uleb128 0x29
 10302 248e F0030000 		.4byte	.Ldebug_ranges0+0x3f0
 10303 2492 18       		.uleb128 0x18
 10304 2493 08010000 		.4byte	0x108
 10305 2497 981D0000 		.4byte	.LLST272
 10306 249b 18       		.uleb128 0x18
 10307 249c 1A010000 		.4byte	0x11a
 10308 24a0 5A1D0000 		.4byte	.LLST263
 10309 24a4 18       		.uleb128 0x18
 10310 24a5 2C010000 		.4byte	0x12c
 10311 24a9 441D0000 		.4byte	.LLST262
 10312 24ad 18       		.uleb128 0x18
 10313 24ae 23010000 		.4byte	0x123
 10314 24b2 6F1D0000 		.4byte	.LLST264
 10315 24b6 18       		.uleb128 0x18
 10316 24b7 11010000 		.4byte	0x111
 10317 24bb B91D0000 		.4byte	.LLST276
 10318 24bf 29       		.uleb128 0x29
 10319 24c0 F0030000 		.4byte	.Ldebug_ranges0+0x3f0
 10320 24c4 22       		.uleb128 0x22
 10321 24c5 37010000 		.4byte	0x137
 10322 24c9 DA1D0000 		.4byte	.LLST277
 10323 24cd 22       		.uleb128 0x22
 10324 24ce 41010000 		.4byte	0x141
 10325 24d2 EF1D0000 		.4byte	.LLST278
 10326 24d6 19       		.uleb128 0x19
 10327 24d7 64000000 		.4byte	.LVL416
 10328 24db 11050000 		.4byte	0x511
 10329 24df FC240000 		.4byte	0x24fc
 10330 24e3 1A       		.uleb128 0x1a
 10331 24e4 01       		.uleb128 0x1
 10332 24e5 50       		.byte	0x50
 10333 24e6 02       		.uleb128 0x2
 10334 24e7 76       		.byte	0x76
 10335 24e8 00       		.sleb128 0
 10336 24e9 1A       		.uleb128 0x1a
 10337 24ea 01       		.uleb128 0x1
 10338 24eb 51       		.byte	0x51
 10339 24ec 02       		.uleb128 0x2
 10340 24ed 76       		.byte	0x76
 10341 24ee 00       		.sleb128 0
 10342 24ef 1A       		.uleb128 0x1a
 10343 24f0 01       		.uleb128 0x1
 10344 24f1 52       		.byte	0x52
 10345 24f2 02       		.uleb128 0x2
 10346 24f3 08       		.byte	0x8
 10347 24f4 F0       		.byte	0xf0
 10348 24f5 1A       		.uleb128 0x1a
 10349 24f6 01       		.uleb128 0x1
 10350 24f7 53       		.byte	0x53
 10351 24f8 02       		.uleb128 0x2
 10352 24f9 08       		.byte	0x8
 10353 24fa A0       		.byte	0xa0
 10354 24fb 00       		.byte	0
 10355 24fc 19       		.uleb128 0x19
 10356 24fd 6A000000 		.4byte	.LVL417
ARM GAS  C:\Users\legoc\AppData\Local\Temp\ccMAvaOS.s 			page 205


 10357 2501 CE4A0000 		.4byte	0x4ace
 10358 2505 10250000 		.4byte	0x2510
 10359 2509 1A       		.uleb128 0x1a
 10360 250a 01       		.uleb128 0x1
 10361 250b 50       		.byte	0x50
 10362 250c 02       		.uleb128 0x2
 10363 250d 74       		.byte	0x74
 10364 250e 00       		.sleb128 0
 10365 250f 00       		.byte	0
 10366 2510 19       		.uleb128 0x19
 10367 2511 70000000 		.4byte	.LVL418
 10368 2515 EF4A0000 		.4byte	0x4aef
 10369 2519 24250000 		.4byte	0x2524
 10370 251d 1A       		.uleb128 0x1a
 10371 251e 01       		.uleb128 0x1
 10372 251f 50       		.byte	0x50
 10373 2520 02       		.uleb128 0x2
 10374 2521 76       		.byte	0x76
 10375 2522 00       		.sleb128 0
 10376 2523 00       		.byte	0
 10377 2524 19       		.uleb128 0x19
 10378 2525 7A000000 		.4byte	.LVL421
 10379 2529 D94A0000 		.4byte	0x4ad9
 10380 252d 38250000 		.4byte	0x2538
 10381 2531 1A       		.uleb128 0x1a
 10382 2532 01       		.uleb128 0x1
 10383 2533 50       		.byte	0x50
 10384 2534 02       		.uleb128 0x2
 10385 2535 09       		.byte	0x9
 10386 2536 F8       		.byte	0xf8
 10387 2537 00       		.byte	0
 10388 2538 1B       		.uleb128 0x1b
 10389 2539 7E000000 		.4byte	.LVL422
 10390 253d E44A0000 		.4byte	0x4ae4
 10391 2541 19       		.uleb128 0x19
 10392 2542 88000000 		.4byte	.LVL423
 10393 2546 D94A0000 		.4byte	0x4ad9
 10394 254a 54250000 		.4byte	0x2554
 10395 254e 1A       		.uleb128 0x1a
 10396 254f 01       		.uleb128 0x1
 10397 2550 50       		.byte	0x50
 10398 2551 01       		.uleb128 0x1
 10399 2552 30       		.byte	0x30
 10400 2553 00       		.byte	0
 10401 2554 1B       		.uleb128 0x1b
 10402 2555 8C000000 		.4byte	.LVL424
 10403 2559 E44A0000 		.4byte	0x4ae4
 10404 255d 2C       		.uleb128 0x2c
 10405 255e A6000000 		.4byte	.LVL425
 10406 2562 EF4A0000 		.4byte	0x4aef
 10407 2566 1A       		.uleb128 0x1a
 10408 2567 01       		.uleb128 0x1
 10409 2568 50       		.byte	0x50
 10410 2569 02       		.uleb128 0x2
 10411 256a 74       		.byte	0x74
 10412 256b 00       		.sleb128 0
 10413 256c 00       		.byte	0
ARM GAS  C:\Users\legoc\AppData\Local\Temp\ccMAvaOS.s 			page 206


 10414 256d 00       		.byte	0
 10415 256e 00       		.byte	0
 10416 256f 00       		.byte	0
 10417 2570 00       		.byte	0
 10418 2571 00       		.byte	0
 10419 2572 26       		.uleb128 0x26
 10420 2573 4C010000 		.4byte	0x14c
 10421 2577 A6000000 		.4byte	.LBB545
 10422 257b 10040000 		.4byte	.Ldebug_ranges0+0x410
 10423 257f 01       		.byte	0x1
 10424 2580 BE01     		.2byte	0x1be
 10425 2582 E1260000 		.4byte	0x26e1
 10426 2586 18       		.uleb128 0x18
 10427 2587 7C010000 		.4byte	0x17c
 10428 258b 031E0000 		.4byte	.LLST279
 10429 258f 18       		.uleb128 0x18
 10430 2590 73010000 		.4byte	0x173
 10431 2594 171E0000 		.4byte	.LLST280
 10432 2598 18       		.uleb128 0x18
 10433 2599 6A010000 		.4byte	0x16a
 10434 259d 2C1E0000 		.4byte	.LLST281
 10435 25a1 18       		.uleb128 0x18
 10436 25a2 61010000 		.4byte	0x161
 10437 25a6 031E0000 		.4byte	.LLST279
 10438 25aa 18       		.uleb128 0x18
 10439 25ab 58010000 		.4byte	0x158
 10440 25af 401E0000 		.4byte	.LLST283
 10441 25b3 28       		.uleb128 0x28
 10442 25b4 FC000000 		.4byte	0xfc
 10443 25b8 A6000000 		.4byte	.LBB546
 10444 25bc 10040000 		.4byte	.Ldebug_ranges0+0x410
 10445 25c0 01       		.byte	0x1
 10446 25c1 95       		.byte	0x95
 10447 25c2 18       		.uleb128 0x18
 10448 25c3 2C010000 		.4byte	0x12c
 10449 25c7 031E0000 		.4byte	.LLST279
 10450 25cb 18       		.uleb128 0x18
 10451 25cc 23010000 		.4byte	0x123
 10452 25d0 2C1E0000 		.4byte	.LLST281
 10453 25d4 18       		.uleb128 0x18
 10454 25d5 1A010000 		.4byte	0x11a
 10455 25d9 171E0000 		.4byte	.LLST280
 10456 25dd 18       		.uleb128 0x18
 10457 25de 11010000 		.4byte	0x111
 10458 25e2 401E0000 		.4byte	.LLST283
 10459 25e6 18       		.uleb128 0x18
 10460 25e7 08010000 		.4byte	0x108
 10461 25eb 031E0000 		.4byte	.LLST279
 10462 25ef 29       		.uleb128 0x29
 10463 25f0 10040000 		.4byte	.Ldebug_ranges0+0x410
 10464 25f4 2A       		.uleb128 0x2a
 10465 25f5 37010000 		.4byte	0x137
 10466 25f9 2A       		.uleb128 0x2a
 10467 25fa 41010000 		.4byte	0x141
 10468 25fe 29       		.uleb128 0x29
 10469 25ff 10040000 		.4byte	.Ldebug_ranges0+0x410
 10470 2603 18       		.uleb128 0x18
ARM GAS  C:\Users\legoc\AppData\Local\Temp\ccMAvaOS.s 			page 207


 10471 2604 08010000 		.4byte	0x108
 10472 2608 551E0000 		.4byte	.LLST289
 10473 260c 18       		.uleb128 0x18
 10474 260d 1A010000 		.4byte	0x11a
 10475 2611 171E0000 		.4byte	.LLST280
 10476 2615 18       		.uleb128 0x18
 10477 2616 2C010000 		.4byte	0x12c
 10478 261a 031E0000 		.4byte	.LLST279
 10479 261e 18       		.uleb128 0x18
 10480 261f 23010000 		.4byte	0x123
 10481 2623 2C1E0000 		.4byte	.LLST281
 10482 2627 18       		.uleb128 0x18
 10483 2628 11010000 		.4byte	0x111
 10484 262c 761E0000 		.4byte	.LLST293
 10485 2630 29       		.uleb128 0x29
 10486 2631 10040000 		.4byte	.Ldebug_ranges0+0x410
 10487 2635 22       		.uleb128 0x22
 10488 2636 37010000 		.4byte	0x137
 10489 263a 971E0000 		.4byte	.LLST294
 10490 263e 22       		.uleb128 0x22
 10491 263f 41010000 		.4byte	0x141
 10492 2643 971E0000 		.4byte	.LLST294
 10493 2647 19       		.uleb128 0x19
 10494 2648 B2000000 		.4byte	.LVL426
 10495 264c 11050000 		.4byte	0x511
 10496 2650 6C260000 		.4byte	0x266c
 10497 2654 1A       		.uleb128 0x1a
 10498 2655 01       		.uleb128 0x1
 10499 2656 50       		.byte	0x50
 10500 2657 02       		.uleb128 0x2
 10501 2658 76       		.byte	0x76
 10502 2659 00       		.sleb128 0
 10503 265a 1A       		.uleb128 0x1a
 10504 265b 01       		.uleb128 0x1
 10505 265c 51       		.byte	0x51
 10506 265d 02       		.uleb128 0x2
 10507 265e 08       		.byte	0x8
 10508 265f 9F       		.byte	0x9f
 10509 2660 1A       		.uleb128 0x1a
 10510 2661 01       		.uleb128 0x1
 10511 2662 52       		.byte	0x52
 10512 2663 02       		.uleb128 0x2
 10513 2664 08       		.byte	0x8
 10514 2665 F0       		.byte	0xf0
 10515 2666 1A       		.uleb128 0x1a
 10516 2667 01       		.uleb128 0x1
 10517 2668 53       		.byte	0x53
 10518 2669 01       		.uleb128 0x1
 10519 266a 32       		.byte	0x32
 10520 266b 00       		.byte	0
 10521 266c 19       		.uleb128 0x19
 10522 266d B8000000 		.4byte	.LVL427
 10523 2671 CE4A0000 		.4byte	0x4ace
 10524 2675 80260000 		.4byte	0x2680
 10525 2679 1A       		.uleb128 0x1a
 10526 267a 01       		.uleb128 0x1
 10527 267b 50       		.byte	0x50
ARM GAS  C:\Users\legoc\AppData\Local\Temp\ccMAvaOS.s 			page 208


 10528 267c 02       		.uleb128 0x2
 10529 267d 74       		.byte	0x74
 10530 267e 00       		.sleb128 0
 10531 267f 00       		.byte	0
 10532 2680 19       		.uleb128 0x19
 10533 2681 BE000000 		.4byte	.LVL428
 10534 2685 EF4A0000 		.4byte	0x4aef
 10535 2689 94260000 		.4byte	0x2694
 10536 268d 1A       		.uleb128 0x1a
 10537 268e 01       		.uleb128 0x1
 10538 268f 50       		.byte	0x50
 10539 2690 02       		.uleb128 0x2
 10540 2691 76       		.byte	0x76
 10541 2692 00       		.sleb128 0
 10542 2693 00       		.byte	0
 10543 2694 19       		.uleb128 0x19
 10544 2695 C8000000 		.4byte	.LVL431
 10545 2699 D94A0000 		.4byte	0x4ad9
 10546 269d A7260000 		.4byte	0x26a7
 10547 26a1 1A       		.uleb128 0x1a
 10548 26a2 01       		.uleb128 0x1
 10549 26a3 50       		.byte	0x50
 10550 26a4 01       		.uleb128 0x1
 10551 26a5 30       		.byte	0x30
 10552 26a6 00       		.byte	0
 10553 26a7 1B       		.uleb128 0x1b
 10554 26a8 CC000000 		.4byte	.LVL432
 10555 26ac E44A0000 		.4byte	0x4ae4
 10556 26b0 19       		.uleb128 0x19
 10557 26b1 D6000000 		.4byte	.LVL433
 10558 26b5 D94A0000 		.4byte	0x4ad9
 10559 26b9 C3260000 		.4byte	0x26c3
 10560 26bd 1A       		.uleb128 0x1a
 10561 26be 01       		.uleb128 0x1
 10562 26bf 50       		.byte	0x50
 10563 26c0 01       		.uleb128 0x1
 10564 26c1 30       		.byte	0x30
 10565 26c2 00       		.byte	0
 10566 26c3 1B       		.uleb128 0x1b
 10567 26c4 DA000000 		.4byte	.LVL434
 10568 26c8 E44A0000 		.4byte	0x4ae4
 10569 26cc 2C       		.uleb128 0x2c
 10570 26cd F4000000 		.4byte	.LVL435
 10571 26d1 EF4A0000 		.4byte	0x4aef
 10572 26d5 1A       		.uleb128 0x1a
 10573 26d6 01       		.uleb128 0x1
 10574 26d7 50       		.byte	0x50
 10575 26d8 02       		.uleb128 0x2
 10576 26d9 74       		.byte	0x74
 10577 26da 00       		.sleb128 0
 10578 26db 00       		.byte	0
 10579 26dc 00       		.byte	0
 10580 26dd 00       		.byte	0
 10581 26de 00       		.byte	0
 10582 26df 00       		.byte	0
 10583 26e0 00       		.byte	0
 10584 26e1 26       		.uleb128 0x26
ARM GAS  C:\Users\legoc\AppData\Local\Temp\ccMAvaOS.s 			page 209


 10585 26e2 4C010000 		.4byte	0x14c
 10586 26e6 F4000000 		.4byte	.LBB560
 10587 26ea 30040000 		.4byte	.Ldebug_ranges0+0x430
 10588 26ee 01       		.byte	0x1
 10589 26ef BF01     		.2byte	0x1bf
 10590 26f1 51280000 		.4byte	0x2851
 10591 26f5 18       		.uleb128 0x18
 10592 26f6 7C010000 		.4byte	0x17c
 10593 26fa AB1E0000 		.4byte	.LLST296
 10594 26fe 18       		.uleb128 0x18
 10595 26ff 73010000 		.4byte	0x173
 10596 2703 BF1E0000 		.4byte	.LLST297
 10597 2707 18       		.uleb128 0x18
 10598 2708 6A010000 		.4byte	0x16a
 10599 270c D31E0000 		.4byte	.LLST298
 10600 2710 18       		.uleb128 0x18
 10601 2711 61010000 		.4byte	0x161
 10602 2715 E91E0000 		.4byte	.LLST299
 10603 2719 18       		.uleb128 0x18
 10604 271a 58010000 		.4byte	0x158
 10605 271e AB1E0000 		.4byte	.LLST296
 10606 2722 28       		.uleb128 0x28
 10607 2723 FC000000 		.4byte	0xfc
 10608 2727 F4000000 		.4byte	.LBB561
 10609 272b 30040000 		.4byte	.Ldebug_ranges0+0x430
 10610 272f 01       		.byte	0x1
 10611 2730 95       		.byte	0x95
 10612 2731 18       		.uleb128 0x18
 10613 2732 2C010000 		.4byte	0x12c
 10614 2736 AB1E0000 		.4byte	.LLST296
 10615 273a 18       		.uleb128 0x18
 10616 273b 23010000 		.4byte	0x123
 10617 273f D31E0000 		.4byte	.LLST298
 10618 2743 18       		.uleb128 0x18
 10619 2744 1A010000 		.4byte	0x11a
 10620 2748 BF1E0000 		.4byte	.LLST297
 10621 274c 18       		.uleb128 0x18
 10622 274d 11010000 		.4byte	0x111
 10623 2751 AB1E0000 		.4byte	.LLST296
 10624 2755 18       		.uleb128 0x18
 10625 2756 08010000 		.4byte	0x108
 10626 275a E91E0000 		.4byte	.LLST299
 10627 275e 29       		.uleb128 0x29
 10628 275f 30040000 		.4byte	.Ldebug_ranges0+0x430
 10629 2763 2A       		.uleb128 0x2a
 10630 2764 37010000 		.4byte	0x137
 10631 2768 2A       		.uleb128 0x2a
 10632 2769 41010000 		.4byte	0x141
 10633 276d 29       		.uleb128 0x29
 10634 276e 30040000 		.4byte	.Ldebug_ranges0+0x430
 10635 2772 18       		.uleb128 0x18
 10636 2773 2C010000 		.4byte	0x12c
 10637 2777 AB1E0000 		.4byte	.LLST296
 10638 277b 18       		.uleb128 0x18
 10639 277c 23010000 		.4byte	0x123
 10640 2780 D31E0000 		.4byte	.LLST298
 10641 2784 18       		.uleb128 0x18
ARM GAS  C:\Users\legoc\AppData\Local\Temp\ccMAvaOS.s 			page 210


 10642 2785 1A010000 		.4byte	0x11a
 10643 2789 BF1E0000 		.4byte	.LLST297
 10644 278d 18       		.uleb128 0x18
 10645 278e 11010000 		.4byte	0x111
 10646 2792 FE1E0000 		.4byte	.LLST309
 10647 2796 18       		.uleb128 0x18
 10648 2797 08010000 		.4byte	0x108
 10649 279b 201F0000 		.4byte	.LLST310
 10650 279f 29       		.uleb128 0x29
 10651 27a0 30040000 		.4byte	.Ldebug_ranges0+0x430
 10652 27a4 22       		.uleb128 0x22
 10653 27a5 37010000 		.4byte	0x137
 10654 27a9 411F0000 		.4byte	.LLST311
 10655 27ad 22       		.uleb128 0x22
 10656 27ae 41010000 		.4byte	0x141
 10657 27b2 411F0000 		.4byte	.LLST311
 10658 27b6 19       		.uleb128 0x19
 10659 27b7 02010000 		.4byte	.LVL436
 10660 27bb 11050000 		.4byte	0x511
 10661 27bf DC270000 		.4byte	0x27dc
 10662 27c3 1A       		.uleb128 0x1a
 10663 27c4 01       		.uleb128 0x1
 10664 27c5 50       		.byte	0x50
 10665 27c6 02       		.uleb128 0x2
 10666 27c7 08       		.byte	0x8
 10667 27c8 77       		.byte	0x77
 10668 27c9 1A       		.uleb128 0x1a
 10669 27ca 01       		.uleb128 0x1
 10670 27cb 51       		.byte	0x51
 10671 27cc 02       		.uleb128 0x2
 10672 27cd 76       		.byte	0x76
 10673 27ce 00       		.sleb128 0
 10674 27cf 1A       		.uleb128 0x1a
 10675 27d0 01       		.uleb128 0x1
 10676 27d1 52       		.byte	0x52
 10677 27d2 01       		.uleb128 0x1
 10678 27d3 32       		.byte	0x32
 10679 27d4 1A       		.uleb128 0x1a
 10680 27d5 01       		.uleb128 0x1
 10681 27d6 53       		.byte	0x53
 10682 27d7 03       		.uleb128 0x3
 10683 27d8 0A       		.byte	0xa
 10684 27d9 4001     		.2byte	0x140
 10685 27db 00       		.byte	0
 10686 27dc 19       		.uleb128 0x19
 10687 27dd 08010000 		.4byte	.LVL437
 10688 27e1 CE4A0000 		.4byte	0x4ace
 10689 27e5 F0270000 		.4byte	0x27f0
 10690 27e9 1A       		.uleb128 0x1a
 10691 27ea 01       		.uleb128 0x1
 10692 27eb 50       		.byte	0x50
 10693 27ec 02       		.uleb128 0x2
 10694 27ed 74       		.byte	0x74
 10695 27ee 00       		.sleb128 0
 10696 27ef 00       		.byte	0
 10697 27f0 19       		.uleb128 0x19
 10698 27f1 0E010000 		.4byte	.LVL438
ARM GAS  C:\Users\legoc\AppData\Local\Temp\ccMAvaOS.s 			page 211


 10699 27f5 EF4A0000 		.4byte	0x4aef
 10700 27f9 04280000 		.4byte	0x2804
 10701 27fd 1A       		.uleb128 0x1a
 10702 27fe 01       		.uleb128 0x1
 10703 27ff 50       		.byte	0x50
 10704 2800 02       		.uleb128 0x2
 10705 2801 76       		.byte	0x76
 10706 2802 00       		.sleb128 0
 10707 2803 00       		.byte	0
 10708 2804 19       		.uleb128 0x19
 10709 2805 1A010000 		.4byte	.LVL441
 10710 2809 D94A0000 		.4byte	0x4ad9
 10711 280d 17280000 		.4byte	0x2817
 10712 2811 1A       		.uleb128 0x1a
 10713 2812 01       		.uleb128 0x1
 10714 2813 50       		.byte	0x50
 10715 2814 01       		.uleb128 0x1
 10716 2815 30       		.byte	0x30
 10717 2816 00       		.byte	0
 10718 2817 1B       		.uleb128 0x1b
 10719 2818 1E010000 		.4byte	.LVL442
 10720 281c E44A0000 		.4byte	0x4ae4
 10721 2820 19       		.uleb128 0x19
 10722 2821 28010000 		.4byte	.LVL443
 10723 2825 D94A0000 		.4byte	0x4ad9
 10724 2829 33280000 		.4byte	0x2833
 10725 282d 1A       		.uleb128 0x1a
 10726 282e 01       		.uleb128 0x1
 10727 282f 50       		.byte	0x50
 10728 2830 01       		.uleb128 0x1
 10729 2831 30       		.byte	0x30
 10730 2832 00       		.byte	0
 10731 2833 1B       		.uleb128 0x1b
 10732 2834 2C010000 		.4byte	.LVL444
 10733 2838 E44A0000 		.4byte	0x4ae4
 10734 283c 2C       		.uleb128 0x2c
 10735 283d 46010000 		.4byte	.LVL445
 10736 2841 EF4A0000 		.4byte	0x4aef
 10737 2845 1A       		.uleb128 0x1a
 10738 2846 01       		.uleb128 0x1
 10739 2847 50       		.byte	0x50
 10740 2848 02       		.uleb128 0x2
 10741 2849 74       		.byte	0x74
 10742 284a 00       		.sleb128 0
 10743 284b 00       		.byte	0
 10744 284c 00       		.byte	0
 10745 284d 00       		.byte	0
 10746 284e 00       		.byte	0
 10747 284f 00       		.byte	0
 10748 2850 00       		.byte	0
 10749 2851 26       		.uleb128 0x26
 10750 2852 4C010000 		.4byte	0x14c
 10751 2856 46010000 		.4byte	.LBB575
 10752 285a 50040000 		.4byte	.Ldebug_ranges0+0x450
 10753 285e 01       		.byte	0x1
 10754 285f C201     		.2byte	0x1c2
 10755 2861 B9290000 		.4byte	0x29b9
ARM GAS  C:\Users\legoc\AppData\Local\Temp\ccMAvaOS.s 			page 212


 10756 2865 18       		.uleb128 0x18
 10757 2866 7C010000 		.4byte	0x17c
 10758 286a 551F0000 		.4byte	.LLST313
 10759 286e 18       		.uleb128 0x18
 10760 286f 73010000 		.4byte	0x173
 10761 2873 691F0000 		.4byte	.LLST314
 10762 2877 18       		.uleb128 0x18
 10763 2878 6A010000 		.4byte	0x16a
 10764 287c 7D1F0000 		.4byte	.LLST315
 10765 2880 18       		.uleb128 0x18
 10766 2881 61010000 		.4byte	0x161
 10767 2885 921F0000 		.4byte	.LLST316
 10768 2889 18       		.uleb128 0x18
 10769 288a 58010000 		.4byte	0x158
 10770 288e A71F0000 		.4byte	.LLST317
 10771 2892 28       		.uleb128 0x28
 10772 2893 FC000000 		.4byte	0xfc
 10773 2897 46010000 		.4byte	.LBB576
 10774 289b 50040000 		.4byte	.Ldebug_ranges0+0x450
 10775 289f 01       		.byte	0x1
 10776 28a0 95       		.byte	0x95
 10777 28a1 18       		.uleb128 0x18
 10778 28a2 2C010000 		.4byte	0x12c
 10779 28a6 551F0000 		.4byte	.LLST313
 10780 28aa 18       		.uleb128 0x18
 10781 28ab 23010000 		.4byte	0x123
 10782 28af 7D1F0000 		.4byte	.LLST315
 10783 28b3 18       		.uleb128 0x18
 10784 28b4 1A010000 		.4byte	0x11a
 10785 28b8 691F0000 		.4byte	.LLST314
 10786 28bc 18       		.uleb128 0x18
 10787 28bd 11010000 		.4byte	0x111
 10788 28c1 BC1F0000 		.4byte	.LLST321
 10789 28c5 18       		.uleb128 0x18
 10790 28c6 08010000 		.4byte	0x108
 10791 28ca 921F0000 		.4byte	.LLST316
 10792 28ce 29       		.uleb128 0x29
 10793 28cf 50040000 		.4byte	.Ldebug_ranges0+0x450
 10794 28d3 2A       		.uleb128 0x2a
 10795 28d4 37010000 		.4byte	0x137
 10796 28d8 2A       		.uleb128 0x2a
 10797 28d9 41010000 		.4byte	0x141
 10798 28dd 29       		.uleb128 0x29
 10799 28de 50040000 		.4byte	.Ldebug_ranges0+0x450
 10800 28e2 18       		.uleb128 0x18
 10801 28e3 2C010000 		.4byte	0x12c
 10802 28e7 551F0000 		.4byte	.LLST313
 10803 28eb 18       		.uleb128 0x18
 10804 28ec 23010000 		.4byte	0x123
 10805 28f0 7D1F0000 		.4byte	.LLST315
 10806 28f4 18       		.uleb128 0x18
 10807 28f5 1A010000 		.4byte	0x11a
 10808 28f9 691F0000 		.4byte	.LLST314
 10809 28fd 18       		.uleb128 0x18
 10810 28fe 11010000 		.4byte	0x111
 10811 2902 D11F0000 		.4byte	.LLST326
 10812 2906 18       		.uleb128 0x18
ARM GAS  C:\Users\legoc\AppData\Local\Temp\ccMAvaOS.s 			page 213


 10813 2907 08010000 		.4byte	0x108
 10814 290b F31F0000 		.4byte	.LLST327
 10815 290f 29       		.uleb128 0x29
 10816 2910 50040000 		.4byte	.Ldebug_ranges0+0x450
 10817 2914 22       		.uleb128 0x22
 10818 2915 37010000 		.4byte	0x137
 10819 2919 14200000 		.4byte	.LLST328
 10820 291d 22       		.uleb128 0x22
 10821 291e 41010000 		.4byte	0x141
 10822 2922 14200000 		.4byte	.LLST328
 10823 2926 19       		.uleb128 0x19
 10824 2927 52010000 		.4byte	.LVL446
 10825 292b 11050000 		.4byte	0x511
 10826 292f 4B290000 		.4byte	0x294b
 10827 2933 1A       		.uleb128 0x1a
 10828 2934 01       		.uleb128 0x1
 10829 2935 50       		.byte	0x50
 10830 2936 02       		.uleb128 0x2
 10831 2937 08       		.byte	0x8
 10832 2938 6D       		.byte	0x6d
 10833 2939 1A       		.uleb128 0x1a
 10834 293a 01       		.uleb128 0x1
 10835 293b 51       		.byte	0x51
 10836 293c 02       		.uleb128 0x2
 10837 293d 08       		.byte	0x8
 10838 293e 23       		.byte	0x23
 10839 293f 1A       		.uleb128 0x1a
 10840 2940 01       		.uleb128 0x1
 10841 2941 52       		.byte	0x52
 10842 2942 01       		.uleb128 0x1
 10843 2943 46       		.byte	0x46
 10844 2944 1A       		.uleb128 0x1a
 10845 2945 01       		.uleb128 0x1
 10846 2946 53       		.byte	0x53
 10847 2947 02       		.uleb128 0x2
 10848 2948 08       		.byte	0x8
 10849 2949 FC       		.byte	0xfc
 10850 294a 00       		.byte	0
 10851 294b 19       		.uleb128 0x19
 10852 294c 58010000 		.4byte	.LVL447
 10853 2950 CE4A0000 		.4byte	0x4ace
 10854 2954 5F290000 		.4byte	0x295f
 10855 2958 1A       		.uleb128 0x1a
 10856 2959 01       		.uleb128 0x1
 10857 295a 50       		.byte	0x50
 10858 295b 02       		.uleb128 0x2
 10859 295c 74       		.byte	0x74
 10860 295d 00       		.sleb128 0
 10861 295e 00       		.byte	0
 10862 295f 19       		.uleb128 0x19
 10863 2960 5E010000 		.4byte	.LVL448
 10864 2964 EF4A0000 		.4byte	0x4aef
 10865 2968 73290000 		.4byte	0x2973
 10866 296c 1A       		.uleb128 0x1a
 10867 296d 01       		.uleb128 0x1
 10868 296e 50       		.byte	0x50
 10869 296f 02       		.uleb128 0x2
ARM GAS  C:\Users\legoc\AppData\Local\Temp\ccMAvaOS.s 			page 214


 10870 2970 76       		.byte	0x76
 10871 2971 00       		.sleb128 0
 10872 2972 00       		.byte	0
 10873 2973 19       		.uleb128 0x19
 10874 2974 68010000 		.4byte	.LVL451
 10875 2978 D94A0000 		.4byte	0x4ad9
 10876 297c 86290000 		.4byte	0x2986
 10877 2980 1A       		.uleb128 0x1a
 10878 2981 01       		.uleb128 0x1
 10879 2982 50       		.byte	0x50
 10880 2983 01       		.uleb128 0x1
 10881 2984 30       		.byte	0x30
 10882 2985 00       		.byte	0
 10883 2986 1B       		.uleb128 0x1b
 10884 2987 6C010000 		.4byte	.LVL452
 10885 298b E44A0000 		.4byte	0x4ae4
 10886 298f 19       		.uleb128 0x19
 10887 2990 76010000 		.4byte	.LVL453
 10888 2994 D94A0000 		.4byte	0x4ad9
 10889 2998 A2290000 		.4byte	0x29a2
 10890 299c 1A       		.uleb128 0x1a
 10891 299d 01       		.uleb128 0x1
 10892 299e 50       		.byte	0x50
 10893 299f 01       		.uleb128 0x1
 10894 29a0 30       		.byte	0x30
 10895 29a1 00       		.byte	0
 10896 29a2 1B       		.uleb128 0x1b
 10897 29a3 7A010000 		.4byte	.LVL454
 10898 29a7 E44A0000 		.4byte	0x4ae4
 10899 29ab 1B       		.uleb128 0x1b
 10900 29ac 9A010000 		.4byte	.LVL455
 10901 29b0 EF4A0000 		.4byte	0x4aef
 10902 29b4 00       		.byte	0
 10903 29b5 00       		.byte	0
 10904 29b6 00       		.byte	0
 10905 29b7 00       		.byte	0
 10906 29b8 00       		.byte	0
 10907 29b9 19       		.uleb128 0x19
 10908 29ba AA010000 		.4byte	.LVL456
 10909 29be C0070000 		.4byte	0x7c0
 10910 29c2 E8290000 		.4byte	0x29e8
 10911 29c6 1A       		.uleb128 0x1a
 10912 29c7 01       		.uleb128 0x1
 10913 29c8 50       		.byte	0x50
 10914 29c9 02       		.uleb128 0x2
 10915 29ca 08       		.byte	0x8
 10916 29cb 23       		.byte	0x23
 10917 29cc 1A       		.uleb128 0x1a
 10918 29cd 01       		.uleb128 0x1
 10919 29ce 51       		.byte	0x51
 10920 29cf 02       		.uleb128 0x2
 10921 29d0 08       		.byte	0x8
 10922 29d1 6F       		.byte	0x6f
 10923 29d2 1A       		.uleb128 0x1a
 10924 29d3 01       		.uleb128 0x1
 10925 29d4 52       		.byte	0x52
 10926 29d5 02       		.uleb128 0x2
ARM GAS  C:\Users\legoc\AppData\Local\Temp\ccMAvaOS.s 			page 215


 10927 29d6 08       		.byte	0x8
 10928 29d7 F8       		.byte	0xf8
 10929 29d8 1A       		.uleb128 0x1a
 10930 29d9 01       		.uleb128 0x1
 10931 29da 53       		.byte	0x53
 10932 29db 01       		.uleb128 0x1
 10933 29dc 42       		.byte	0x42
 10934 29dd 1A       		.uleb128 0x1a
 10935 29de 02       		.uleb128 0x2
 10936 29df 7D       		.byte	0x7d
 10937 29e0 00       		.sleb128 0
 10938 29e1 05       		.uleb128 0x5
 10939 29e2 03       		.byte	0x3
 10940 29e3 38000000 		.4byte	.LC7
 10941 29e7 00       		.byte	0
 10942 29e8 19       		.uleb128 0x19
 10943 29e9 BE010000 		.4byte	.LVL457
 10944 29ed C6020000 		.4byte	0x2c6
 10945 29f1 242A0000 		.4byte	0x2a24
 10946 29f5 1A       		.uleb128 0x1a
 10947 29f6 01       		.uleb128 0x1
 10948 29f7 50       		.byte	0x50
 10949 29f8 01       		.uleb128 0x1
 10950 29f9 3A       		.byte	0x3a
 10951 29fa 1A       		.uleb128 0x1a
 10952 29fb 01       		.uleb128 0x1
 10953 29fc 51       		.byte	0x51
 10954 29fd 01       		.uleb128 0x1
 10955 29fe 3A       		.byte	0x3a
 10956 29ff 1A       		.uleb128 0x1a
 10957 2a00 01       		.uleb128 0x1
 10958 2a01 52       		.byte	0x52
 10959 2a02 02       		.uleb128 0x2
 10960 2a03 08       		.byte	0x8
 10961 2a04 8B       		.byte	0x8b
 10962 2a05 1A       		.uleb128 0x1a
 10963 2a06 01       		.uleb128 0x1
 10964 2a07 53       		.byte	0x53
 10965 2a08 02       		.uleb128 0x2
 10966 2a09 08       		.byte	0x8
 10967 2a0a 63       		.byte	0x63
 10968 2a0b 1A       		.uleb128 0x1a
 10969 2a0c 02       		.uleb128 0x2
 10970 2a0d 7D       		.byte	0x7d
 10971 2a0e 00       		.sleb128 0
 10972 2a0f 02       		.uleb128 0x2
 10973 2a10 76       		.byte	0x76
 10974 2a11 00       		.sleb128 0
 10975 2a12 1A       		.uleb128 0x1a
 10976 2a13 02       		.uleb128 0x2
 10977 2a14 7D       		.byte	0x7d
 10978 2a15 04       		.sleb128 4
 10979 2a16 02       		.uleb128 0x2
 10980 2a17 75       		.byte	0x75
 10981 2a18 00       		.sleb128 0
 10982 2a19 1A       		.uleb128 0x1a
 10983 2a1a 02       		.uleb128 0x2
ARM GAS  C:\Users\legoc\AppData\Local\Temp\ccMAvaOS.s 			page 216


 10984 2a1b 7D       		.byte	0x7d
 10985 2a1c 08       		.sleb128 8
 10986 2a1d 05       		.uleb128 0x5
 10987 2a1e 03       		.byte	0x3
 10988 2a1f 54000000 		.4byte	.LC8
 10989 2a23 00       		.byte	0
 10990 2a24 19       		.uleb128 0x19
 10991 2a25 D2010000 		.4byte	.LVL458
 10992 2a29 C6020000 		.4byte	0x2c6
 10993 2a2d 612A0000 		.4byte	0x2a61
 10994 2a31 1A       		.uleb128 0x1a
 10995 2a32 01       		.uleb128 0x1
 10996 2a33 50       		.byte	0x50
 10997 2a34 01       		.uleb128 0x1
 10998 2a35 3A       		.byte	0x3a
 10999 2a36 1A       		.uleb128 0x1a
 11000 2a37 01       		.uleb128 0x1
 11001 2a38 51       		.byte	0x51
 11002 2a39 02       		.uleb128 0x2
 11003 2a3a 08       		.byte	0x8
 11004 2a3b 83       		.byte	0x83
 11005 2a3c 1A       		.uleb128 0x1a
 11006 2a3d 01       		.uleb128 0x1
 11007 2a3e 52       		.byte	0x52
 11008 2a3f 02       		.uleb128 0x2
 11009 2a40 08       		.byte	0x8
 11010 2a41 8B       		.byte	0x8b
 11011 2a42 1A       		.uleb128 0x1a
 11012 2a43 01       		.uleb128 0x1
 11013 2a44 53       		.byte	0x53
 11014 2a45 02       		.uleb128 0x2
 11015 2a46 08       		.byte	0x8
 11016 2a47 63       		.byte	0x63
 11017 2a48 1A       		.uleb128 0x1a
 11018 2a49 02       		.uleb128 0x2
 11019 2a4a 7D       		.byte	0x7d
 11020 2a4b 00       		.sleb128 0
 11021 2a4c 02       		.uleb128 0x2
 11022 2a4d 76       		.byte	0x76
 11023 2a4e 00       		.sleb128 0
 11024 2a4f 1A       		.uleb128 0x1a
 11025 2a50 02       		.uleb128 0x2
 11026 2a51 7D       		.byte	0x7d
 11027 2a52 04       		.sleb128 4
 11028 2a53 02       		.uleb128 0x2
 11029 2a54 75       		.byte	0x75
 11030 2a55 00       		.sleb128 0
 11031 2a56 1A       		.uleb128 0x1a
 11032 2a57 02       		.uleb128 0x2
 11033 2a58 7D       		.byte	0x7d
 11034 2a59 08       		.sleb128 8
 11035 2a5a 05       		.uleb128 0x5
 11036 2a5b 03       		.byte	0x3
 11037 2a5c 60000000 		.4byte	.LC9
 11038 2a60 00       		.byte	0
 11039 2a61 19       		.uleb128 0x19
 11040 2a62 E6010000 		.4byte	.LVL459
ARM GAS  C:\Users\legoc\AppData\Local\Temp\ccMAvaOS.s 			page 217


 11041 2a66 C6020000 		.4byte	0x2c6
 11042 2a6a 9E2A0000 		.4byte	0x2a9e
 11043 2a6e 1A       		.uleb128 0x1a
 11044 2a6f 01       		.uleb128 0x1
 11045 2a70 50       		.byte	0x50
 11046 2a71 02       		.uleb128 0x2
 11047 2a72 08       		.byte	0x8
 11048 2a73 AB       		.byte	0xab
 11049 2a74 1A       		.uleb128 0x1a
 11050 2a75 01       		.uleb128 0x1
 11051 2a76 51       		.byte	0x51
 11052 2a77 01       		.uleb128 0x1
 11053 2a78 3A       		.byte	0x3a
 11054 2a79 1A       		.uleb128 0x1a
 11055 2a7a 01       		.uleb128 0x1
 11056 2a7b 52       		.byte	0x52
 11057 2a7c 02       		.uleb128 0x2
 11058 2a7d 08       		.byte	0x8
 11059 2a7e 8B       		.byte	0x8b
 11060 2a7f 1A       		.uleb128 0x1a
 11061 2a80 01       		.uleb128 0x1
 11062 2a81 53       		.byte	0x53
 11063 2a82 02       		.uleb128 0x2
 11064 2a83 08       		.byte	0x8
 11065 2a84 63       		.byte	0x63
 11066 2a85 1A       		.uleb128 0x1a
 11067 2a86 02       		.uleb128 0x2
 11068 2a87 7D       		.byte	0x7d
 11069 2a88 00       		.sleb128 0
 11070 2a89 02       		.uleb128 0x2
 11071 2a8a 74       		.byte	0x74
 11072 2a8b 00       		.sleb128 0
 11073 2a8c 1A       		.uleb128 0x1a
 11074 2a8d 02       		.uleb128 0x2
 11075 2a8e 7D       		.byte	0x7d
 11076 2a8f 04       		.sleb128 4
 11077 2a90 02       		.uleb128 0x2
 11078 2a91 75       		.byte	0x75
 11079 2a92 00       		.sleb128 0
 11080 2a93 1A       		.uleb128 0x1a
 11081 2a94 02       		.uleb128 0x2
 11082 2a95 7D       		.byte	0x7d
 11083 2a96 08       		.sleb128 8
 11084 2a97 05       		.uleb128 0x5
 11085 2a98 03       		.byte	0x3
 11086 2a99 68000000 		.4byte	.LC10
 11087 2a9d 00       		.byte	0
 11088 2a9e 2C       		.uleb128 0x2c
 11089 2a9f FA010000 		.4byte	.LVL460
 11090 2aa3 C6020000 		.4byte	0x2c6
 11091 2aa7 1A       		.uleb128 0x1a
 11092 2aa8 01       		.uleb128 0x1
 11093 2aa9 50       		.byte	0x50
 11094 2aaa 02       		.uleb128 0x2
 11095 2aab 08       		.byte	0x8
 11096 2aac AB       		.byte	0xab
 11097 2aad 1A       		.uleb128 0x1a
ARM GAS  C:\Users\legoc\AppData\Local\Temp\ccMAvaOS.s 			page 218


 11098 2aae 01       		.uleb128 0x1
 11099 2aaf 51       		.byte	0x51
 11100 2ab0 02       		.uleb128 0x2
 11101 2ab1 08       		.byte	0x8
 11102 2ab2 83       		.byte	0x83
 11103 2ab3 1A       		.uleb128 0x1a
 11104 2ab4 01       		.uleb128 0x1
 11105 2ab5 52       		.byte	0x52
 11106 2ab6 02       		.uleb128 0x2
 11107 2ab7 08       		.byte	0x8
 11108 2ab8 8B       		.byte	0x8b
 11109 2ab9 1A       		.uleb128 0x1a
 11110 2aba 01       		.uleb128 0x1
 11111 2abb 53       		.byte	0x53
 11112 2abc 02       		.uleb128 0x2
 11113 2abd 08       		.byte	0x8
 11114 2abe 63       		.byte	0x63
 11115 2abf 1A       		.uleb128 0x1a
 11116 2ac0 02       		.uleb128 0x2
 11117 2ac1 7D       		.byte	0x7d
 11118 2ac2 00       		.sleb128 0
 11119 2ac3 02       		.uleb128 0x2
 11120 2ac4 74       		.byte	0x74
 11121 2ac5 00       		.sleb128 0
 11122 2ac6 1A       		.uleb128 0x1a
 11123 2ac7 02       		.uleb128 0x2
 11124 2ac8 7D       		.byte	0x7d
 11125 2ac9 04       		.sleb128 4
 11126 2aca 02       		.uleb128 0x2
 11127 2acb 75       		.byte	0x75
 11128 2acc 00       		.sleb128 0
 11129 2acd 1A       		.uleb128 0x1a
 11130 2ace 02       		.uleb128 0x2
 11131 2acf 7D       		.byte	0x7d
 11132 2ad0 08       		.sleb128 8
 11133 2ad1 05       		.uleb128 0x5
 11134 2ad2 03       		.byte	0x3
 11135 2ad3 74000000 		.4byte	.LC11
 11136 2ad7 00       		.byte	0
 11137 2ad8 00       		.byte	0
 11138 2ad9 45       		.uleb128 0x45
 11139 2ada EF040000 		.4byte	.LASF71
 11140 2ade 01       		.byte	0x1
 11141 2adf CC01     		.2byte	0x1cc
 11142 2ae1 00000000 		.4byte	.LFB17
 11143 2ae5 F8010000 		.4byte	.LFE17-.LFB17
 11144 2ae9 01       		.uleb128 0x1
 11145 2aea 9C       		.byte	0x9c
 11146 2aeb DC300000 		.4byte	0x30dc
 11147 2aef 40       		.uleb128 0x40
 11148 2af0 B4020000 		.4byte	.LASF72
 11149 2af4 01       		.byte	0x1
 11150 2af5 D201     		.2byte	0x1d2
 11151 2af7 DC300000 		.4byte	0x30dc
 11152 2afb 03       		.uleb128 0x3
 11153 2afc 91       		.byte	0x91
 11154 2afd B47F     		.sleb128 -76
ARM GAS  C:\Users\legoc\AppData\Local\Temp\ccMAvaOS.s 			page 219


 11155 2aff 40       		.uleb128 0x40
 11156 2b00 BA020000 		.4byte	.LASF73
 11157 2b04 01       		.byte	0x1
 11158 2b05 D301     		.2byte	0x1d3
 11159 2b07 EC300000 		.4byte	0x30ec
 11160 2b0b 03       		.uleb128 0x3
 11161 2b0c 91       		.byte	0x91
 11162 2b0d 907F     		.sleb128 -112
 11163 2b0f 40       		.uleb128 0x40
 11164 2b10 C0020000 		.4byte	.LASF74
 11165 2b14 01       		.byte	0x1
 11166 2b15 D401     		.2byte	0x1d4
 11167 2b17 FC300000 		.4byte	0x30fc
 11168 2b1b 03       		.uleb128 0x3
 11169 2b1c 91       		.byte	0x91
 11170 2b1d A07F     		.sleb128 -96
 11171 2b1f 40       		.uleb128 0x40
 11172 2b20 C6020000 		.4byte	.LASF75
 11173 2b24 01       		.byte	0x1
 11174 2b25 D501     		.2byte	0x1d5
 11175 2b27 0C310000 		.4byte	0x310c
 11176 2b2b 02       		.uleb128 0x2
 11177 2b2c 91       		.byte	0x91
 11178 2b2d 48       		.sleb128 -56
 11179 2b2e 40       		.uleb128 0x40
 11180 2b2f CC020000 		.4byte	.LASF76
 11181 2b33 01       		.byte	0x1
 11182 2b34 D601     		.2byte	0x1d6
 11183 2b36 1C310000 		.4byte	0x311c
 11184 2b3a 03       		.uleb128 0x3
 11185 2b3b 91       		.byte	0x91
 11186 2b3c FC7E     		.sleb128 -132
 11187 2b3e 40       		.uleb128 0x40
 11188 2b3f D2020000 		.4byte	.LASF77
 11189 2b43 01       		.byte	0x1
 11190 2b44 D701     		.2byte	0x1d7
 11191 2b46 2C310000 		.4byte	0x312c
 11192 2b4a 03       		.uleb128 0x3
 11193 2b4b 91       		.byte	0x91
 11194 2b4c 847F     		.sleb128 -124
 11195 2b4e 26       		.uleb128 0x26
 11196 2b4f 4C010000 		.4byte	0x14c
 11197 2b53 EA000000 		.4byte	.LBB606
 11198 2b57 70040000 		.4byte	.Ldebug_ranges0+0x470
 11199 2b5b 01       		.byte	0x1
 11200 2b5c E301     		.2byte	0x1e3
 11201 2b5e BD2C0000 		.4byte	0x2cbd
 11202 2b62 18       		.uleb128 0x18
 11203 2b63 7C010000 		.4byte	0x17c
 11204 2b67 28200000 		.4byte	.LLST330
 11205 2b6b 18       		.uleb128 0x18
 11206 2b6c 73010000 		.4byte	0x173
 11207 2b70 3C200000 		.4byte	.LLST331
 11208 2b74 18       		.uleb128 0x18
 11209 2b75 6A010000 		.4byte	0x16a
 11210 2b79 51200000 		.4byte	.LLST332
 11211 2b7d 18       		.uleb128 0x18
ARM GAS  C:\Users\legoc\AppData\Local\Temp\ccMAvaOS.s 			page 220


 11212 2b7e 61010000 		.4byte	0x161
 11213 2b82 28200000 		.4byte	.LLST330
 11214 2b86 18       		.uleb128 0x18
 11215 2b87 58010000 		.4byte	0x158
 11216 2b8b 65200000 		.4byte	.LLST334
 11217 2b8f 28       		.uleb128 0x28
 11218 2b90 FC000000 		.4byte	0xfc
 11219 2b94 EA000000 		.4byte	.LBB607
 11220 2b98 70040000 		.4byte	.Ldebug_ranges0+0x470
 11221 2b9c 01       		.byte	0x1
 11222 2b9d 95       		.byte	0x95
 11223 2b9e 18       		.uleb128 0x18
 11224 2b9f 2C010000 		.4byte	0x12c
 11225 2ba3 28200000 		.4byte	.LLST330
 11226 2ba7 18       		.uleb128 0x18
 11227 2ba8 23010000 		.4byte	0x123
 11228 2bac 51200000 		.4byte	.LLST332
 11229 2bb0 18       		.uleb128 0x18
 11230 2bb1 1A010000 		.4byte	0x11a
 11231 2bb5 3C200000 		.4byte	.LLST331
 11232 2bb9 18       		.uleb128 0x18
 11233 2bba 11010000 		.4byte	0x111
 11234 2bbe 7A200000 		.4byte	.LLST338
 11235 2bc2 18       		.uleb128 0x18
 11236 2bc3 08010000 		.4byte	0x108
 11237 2bc7 28200000 		.4byte	.LLST330
 11238 2bcb 29       		.uleb128 0x29
 11239 2bcc 70040000 		.4byte	.Ldebug_ranges0+0x470
 11240 2bd0 2A       		.uleb128 0x2a
 11241 2bd1 37010000 		.4byte	0x137
 11242 2bd5 2A       		.uleb128 0x2a
 11243 2bd6 41010000 		.4byte	0x141
 11244 2bda 29       		.uleb128 0x29
 11245 2bdb 70040000 		.4byte	.Ldebug_ranges0+0x470
 11246 2bdf 18       		.uleb128 0x18
 11247 2be0 08010000 		.4byte	0x108
 11248 2be4 8F200000 		.4byte	.LLST340
 11249 2be8 18       		.uleb128 0x18
 11250 2be9 1A010000 		.4byte	0x11a
 11251 2bed 3C200000 		.4byte	.LLST331
 11252 2bf1 18       		.uleb128 0x18
 11253 2bf2 2C010000 		.4byte	0x12c
 11254 2bf6 28200000 		.4byte	.LLST330
 11255 2bfa 18       		.uleb128 0x18
 11256 2bfb 23010000 		.4byte	0x123
 11257 2bff 51200000 		.4byte	.LLST332
 11258 2c03 18       		.uleb128 0x18
 11259 2c04 11010000 		.4byte	0x111
 11260 2c08 B0200000 		.4byte	.LLST344
 11261 2c0c 29       		.uleb128 0x29
 11262 2c0d 70040000 		.4byte	.Ldebug_ranges0+0x470
 11263 2c11 22       		.uleb128 0x22
 11264 2c12 37010000 		.4byte	0x137
 11265 2c16 D1200000 		.4byte	.LLST345
 11266 2c1a 22       		.uleb128 0x22
 11267 2c1b 41010000 		.4byte	0x141
 11268 2c1f D1200000 		.4byte	.LLST345
ARM GAS  C:\Users\legoc\AppData\Local\Temp\ccMAvaOS.s 			page 221


 11269 2c23 19       		.uleb128 0x19
 11270 2c24 F6000000 		.4byte	.LVL467
 11271 2c28 11050000 		.4byte	0x511
 11272 2c2c 482C0000 		.4byte	0x2c48
 11273 2c30 1A       		.uleb128 0x1a
 11274 2c31 01       		.uleb128 0x1
 11275 2c32 50       		.byte	0x50
 11276 2c33 02       		.uleb128 0x2
 11277 2c34 74       		.byte	0x74
 11278 2c35 00       		.sleb128 0
 11279 2c36 1A       		.uleb128 0x1a
 11280 2c37 01       		.uleb128 0x1
 11281 2c38 51       		.byte	0x51
 11282 2c39 02       		.uleb128 0x2
 11283 2c3a 08       		.byte	0x8
 11284 2c3b C7       		.byte	0xc7
 11285 2c3c 1A       		.uleb128 0x1a
 11286 2c3d 01       		.uleb128 0x1
 11287 2c3e 52       		.byte	0x52
 11288 2c3f 02       		.uleb128 0x2
 11289 2c40 08       		.byte	0x8
 11290 2c41 F0       		.byte	0xf0
 11291 2c42 1A       		.uleb128 0x1a
 11292 2c43 01       		.uleb128 0x1
 11293 2c44 53       		.byte	0x53
 11294 2c45 01       		.uleb128 0x1
 11295 2c46 32       		.byte	0x32
 11296 2c47 00       		.byte	0
 11297 2c48 19       		.uleb128 0x19
 11298 2c49 FC000000 		.4byte	.LVL468
 11299 2c4d CE4A0000 		.4byte	0x4ace
 11300 2c51 5C2C0000 		.4byte	0x2c5c
 11301 2c55 1A       		.uleb128 0x1a
 11302 2c56 01       		.uleb128 0x1
 11303 2c57 50       		.byte	0x50
 11304 2c58 02       		.uleb128 0x2
 11305 2c59 77       		.byte	0x77
 11306 2c5a 00       		.sleb128 0
 11307 2c5b 00       		.byte	0
 11308 2c5c 19       		.uleb128 0x19
 11309 2c5d 02010000 		.4byte	.LVL469
 11310 2c61 EF4A0000 		.4byte	0x4aef
 11311 2c65 702C0000 		.4byte	0x2c70
 11312 2c69 1A       		.uleb128 0x1a
 11313 2c6a 01       		.uleb128 0x1
 11314 2c6b 50       		.byte	0x50
 11315 2c6c 02       		.uleb128 0x2
 11316 2c6d 74       		.byte	0x74
 11317 2c6e 00       		.sleb128 0
 11318 2c6f 00       		.byte	0
 11319 2c70 19       		.uleb128 0x19
 11320 2c71 0C010000 		.4byte	.LVL472
 11321 2c75 D94A0000 		.4byte	0x4ad9
 11322 2c79 832C0000 		.4byte	0x2c83
 11323 2c7d 1A       		.uleb128 0x1a
 11324 2c7e 01       		.uleb128 0x1
 11325 2c7f 50       		.byte	0x50
ARM GAS  C:\Users\legoc\AppData\Local\Temp\ccMAvaOS.s 			page 222


 11326 2c80 01       		.uleb128 0x1
 11327 2c81 30       		.byte	0x30
 11328 2c82 00       		.byte	0
 11329 2c83 1B       		.uleb128 0x1b
 11330 2c84 10010000 		.4byte	.LVL473
 11331 2c88 E44A0000 		.4byte	0x4ae4
 11332 2c8c 19       		.uleb128 0x19
 11333 2c8d 1A010000 		.4byte	.LVL474
 11334 2c91 D94A0000 		.4byte	0x4ad9
 11335 2c95 9F2C0000 		.4byte	0x2c9f
 11336 2c99 1A       		.uleb128 0x1a
 11337 2c9a 01       		.uleb128 0x1
 11338 2c9b 50       		.byte	0x50
 11339 2c9c 01       		.uleb128 0x1
 11340 2c9d 30       		.byte	0x30
 11341 2c9e 00       		.byte	0
 11342 2c9f 1B       		.uleb128 0x1b
 11343 2ca0 1E010000 		.4byte	.LVL475
 11344 2ca4 E44A0000 		.4byte	0x4ae4
 11345 2ca8 2C       		.uleb128 0x2c
 11346 2ca9 38010000 		.4byte	.LVL476
 11347 2cad EF4A0000 		.4byte	0x4aef
 11348 2cb1 1A       		.uleb128 0x1a
 11349 2cb2 01       		.uleb128 0x1
 11350 2cb3 50       		.byte	0x50
 11351 2cb4 02       		.uleb128 0x2
 11352 2cb5 74       		.byte	0x74
 11353 2cb6 00       		.sleb128 0
 11354 2cb7 00       		.byte	0
 11355 2cb8 00       		.byte	0
 11356 2cb9 00       		.byte	0
 11357 2cba 00       		.byte	0
 11358 2cbb 00       		.byte	0
 11359 2cbc 00       		.byte	0
 11360 2cbd 26       		.uleb128 0x26
 11361 2cbe 4C010000 		.4byte	0x14c
 11362 2cc2 38010000 		.4byte	.LBB620
 11363 2cc6 90040000 		.4byte	.Ldebug_ranges0+0x490
 11364 2cca 01       		.byte	0x1
 11365 2ccb E401     		.2byte	0x1e4
 11366 2ccd 2D2E0000 		.4byte	0x2e2d
 11367 2cd1 18       		.uleb128 0x18
 11368 2cd2 7C010000 		.4byte	0x17c
 11369 2cd6 E5200000 		.4byte	.LLST347
 11370 2cda 18       		.uleb128 0x18
 11371 2cdb 73010000 		.4byte	0x173
 11372 2cdf F9200000 		.4byte	.LLST348
 11373 2ce3 18       		.uleb128 0x18
 11374 2ce4 6A010000 		.4byte	0x16a
 11375 2ce8 0D210000 		.4byte	.LLST349
 11376 2cec 18       		.uleb128 0x18
 11377 2ced 61010000 		.4byte	0x161
 11378 2cf1 23210000 		.4byte	.LLST350
 11379 2cf5 18       		.uleb128 0x18
 11380 2cf6 58010000 		.4byte	0x158
 11381 2cfa E5200000 		.4byte	.LLST347
 11382 2cfe 28       		.uleb128 0x28
ARM GAS  C:\Users\legoc\AppData\Local\Temp\ccMAvaOS.s 			page 223


 11383 2cff FC000000 		.4byte	0xfc
 11384 2d03 38010000 		.4byte	.LBB621
 11385 2d07 90040000 		.4byte	.Ldebug_ranges0+0x490
 11386 2d0b 01       		.byte	0x1
 11387 2d0c 95       		.byte	0x95
 11388 2d0d 18       		.uleb128 0x18
 11389 2d0e 2C010000 		.4byte	0x12c
 11390 2d12 E5200000 		.4byte	.LLST347
 11391 2d16 18       		.uleb128 0x18
 11392 2d17 23010000 		.4byte	0x123
 11393 2d1b 0D210000 		.4byte	.LLST349
 11394 2d1f 18       		.uleb128 0x18
 11395 2d20 1A010000 		.4byte	0x11a
 11396 2d24 F9200000 		.4byte	.LLST348
 11397 2d28 18       		.uleb128 0x18
 11398 2d29 11010000 		.4byte	0x111
 11399 2d2d E5200000 		.4byte	.LLST347
 11400 2d31 18       		.uleb128 0x18
 11401 2d32 08010000 		.4byte	0x108
 11402 2d36 23210000 		.4byte	.LLST350
 11403 2d3a 29       		.uleb128 0x29
 11404 2d3b 90040000 		.4byte	.Ldebug_ranges0+0x490
 11405 2d3f 2A       		.uleb128 0x2a
 11406 2d40 37010000 		.4byte	0x137
 11407 2d44 2A       		.uleb128 0x2a
 11408 2d45 41010000 		.4byte	0x141
 11409 2d49 29       		.uleb128 0x29
 11410 2d4a 90040000 		.4byte	.Ldebug_ranges0+0x490
 11411 2d4e 18       		.uleb128 0x18
 11412 2d4f 2C010000 		.4byte	0x12c
 11413 2d53 E5200000 		.4byte	.LLST347
 11414 2d57 18       		.uleb128 0x18
 11415 2d58 23010000 		.4byte	0x123
 11416 2d5c 0D210000 		.4byte	.LLST349
 11417 2d60 18       		.uleb128 0x18
 11418 2d61 1A010000 		.4byte	0x11a
 11419 2d65 F9200000 		.4byte	.LLST348
 11420 2d69 18       		.uleb128 0x18
 11421 2d6a 11010000 		.4byte	0x111
 11422 2d6e 38210000 		.4byte	.LLST360
 11423 2d72 18       		.uleb128 0x18
 11424 2d73 08010000 		.4byte	0x108
 11425 2d77 5A210000 		.4byte	.LLST361
 11426 2d7b 29       		.uleb128 0x29
 11427 2d7c 90040000 		.4byte	.Ldebug_ranges0+0x490
 11428 2d80 22       		.uleb128 0x22
 11429 2d81 37010000 		.4byte	0x137
 11430 2d85 7B210000 		.4byte	.LLST362
 11431 2d89 22       		.uleb128 0x22
 11432 2d8a 41010000 		.4byte	0x141
 11433 2d8e 7B210000 		.4byte	.LLST362
 11434 2d92 19       		.uleb128 0x19
 11435 2d93 46010000 		.4byte	.LVL477
 11436 2d97 11050000 		.4byte	0x511
 11437 2d9b B82D0000 		.4byte	0x2db8
 11438 2d9f 1A       		.uleb128 0x1a
 11439 2da0 01       		.uleb128 0x1
ARM GAS  C:\Users\legoc\AppData\Local\Temp\ccMAvaOS.s 			page 224


 11440 2da1 50       		.byte	0x50
 11441 2da2 02       		.uleb128 0x2
 11442 2da3 08       		.byte	0x8
 11443 2da4 77       		.byte	0x77
 11444 2da5 1A       		.uleb128 0x1a
 11445 2da6 01       		.uleb128 0x1
 11446 2da7 51       		.byte	0x51
 11447 2da8 02       		.uleb128 0x2
 11448 2da9 76       		.byte	0x76
 11449 2daa 00       		.sleb128 0
 11450 2dab 1A       		.uleb128 0x1a
 11451 2dac 01       		.uleb128 0x1
 11452 2dad 52       		.byte	0x52
 11453 2dae 01       		.uleb128 0x1
 11454 2daf 32       		.byte	0x32
 11455 2db0 1A       		.uleb128 0x1a
 11456 2db1 01       		.uleb128 0x1
 11457 2db2 53       		.byte	0x53
 11458 2db3 03       		.uleb128 0x3
 11459 2db4 0A       		.byte	0xa
 11460 2db5 4001     		.2byte	0x140
 11461 2db7 00       		.byte	0
 11462 2db8 19       		.uleb128 0x19
 11463 2db9 4C010000 		.4byte	.LVL478
 11464 2dbd CE4A0000 		.4byte	0x4ace
 11465 2dc1 CC2D0000 		.4byte	0x2dcc
 11466 2dc5 1A       		.uleb128 0x1a
 11467 2dc6 01       		.uleb128 0x1
 11468 2dc7 50       		.byte	0x50
 11469 2dc8 02       		.uleb128 0x2
 11470 2dc9 74       		.byte	0x74
 11471 2dca 00       		.sleb128 0
 11472 2dcb 00       		.byte	0
 11473 2dcc 19       		.uleb128 0x19
 11474 2dcd 52010000 		.4byte	.LVL479
 11475 2dd1 EF4A0000 		.4byte	0x4aef
 11476 2dd5 E02D0000 		.4byte	0x2de0
 11477 2dd9 1A       		.uleb128 0x1a
 11478 2dda 01       		.uleb128 0x1
 11479 2ddb 50       		.byte	0x50
 11480 2ddc 02       		.uleb128 0x2
 11481 2ddd 76       		.byte	0x76
 11482 2dde 00       		.sleb128 0
 11483 2ddf 00       		.byte	0
 11484 2de0 19       		.uleb128 0x19
 11485 2de1 5E010000 		.4byte	.LVL482
 11486 2de5 D94A0000 		.4byte	0x4ad9
 11487 2de9 F32D0000 		.4byte	0x2df3
 11488 2ded 1A       		.uleb128 0x1a
 11489 2dee 01       		.uleb128 0x1
 11490 2def 50       		.byte	0x50
 11491 2df0 01       		.uleb128 0x1
 11492 2df1 30       		.byte	0x30
 11493 2df2 00       		.byte	0
 11494 2df3 1B       		.uleb128 0x1b
 11495 2df4 62010000 		.4byte	.LVL483
 11496 2df8 E44A0000 		.4byte	0x4ae4
ARM GAS  C:\Users\legoc\AppData\Local\Temp\ccMAvaOS.s 			page 225


 11497 2dfc 19       		.uleb128 0x19
 11498 2dfd 6C010000 		.4byte	.LVL484
 11499 2e01 D94A0000 		.4byte	0x4ad9
 11500 2e05 0F2E0000 		.4byte	0x2e0f
 11501 2e09 1A       		.uleb128 0x1a
 11502 2e0a 01       		.uleb128 0x1
 11503 2e0b 50       		.byte	0x50
 11504 2e0c 01       		.uleb128 0x1
 11505 2e0d 30       		.byte	0x30
 11506 2e0e 00       		.byte	0
 11507 2e0f 1B       		.uleb128 0x1b
 11508 2e10 70010000 		.4byte	.LVL485
 11509 2e14 E44A0000 		.4byte	0x4ae4
 11510 2e18 2C       		.uleb128 0x2c
 11511 2e19 8A010000 		.4byte	.LVL486
 11512 2e1d EF4A0000 		.4byte	0x4aef
 11513 2e21 1A       		.uleb128 0x1a
 11514 2e22 01       		.uleb128 0x1
 11515 2e23 50       		.byte	0x50
 11516 2e24 02       		.uleb128 0x2
 11517 2e25 74       		.byte	0x74
 11518 2e26 00       		.sleb128 0
 11519 2e27 00       		.byte	0
 11520 2e28 00       		.byte	0
 11521 2e29 00       		.byte	0
 11522 2e2a 00       		.byte	0
 11523 2e2b 00       		.byte	0
 11524 2e2c 00       		.byte	0
 11525 2e2d 26       		.uleb128 0x26
 11526 2e2e 4C010000 		.4byte	0x14c
 11527 2e32 8A010000 		.4byte	.LBB635
 11528 2e36 B0040000 		.4byte	.Ldebug_ranges0+0x4b0
 11529 2e3a 01       		.byte	0x1
 11530 2e3b E501     		.2byte	0x1e5
 11531 2e3d 952F0000 		.4byte	0x2f95
 11532 2e41 18       		.uleb128 0x18
 11533 2e42 7C010000 		.4byte	0x17c
 11534 2e46 8F210000 		.4byte	.LLST364
 11535 2e4a 18       		.uleb128 0x18
 11536 2e4b 73010000 		.4byte	0x173
 11537 2e4f A3210000 		.4byte	.LLST365
 11538 2e53 18       		.uleb128 0x18
 11539 2e54 6A010000 		.4byte	0x16a
 11540 2e58 B8210000 		.4byte	.LLST366
 11541 2e5c 18       		.uleb128 0x18
 11542 2e5d 61010000 		.4byte	0x161
 11543 2e61 8F210000 		.4byte	.LLST364
 11544 2e65 18       		.uleb128 0x18
 11545 2e66 58010000 		.4byte	0x158
 11546 2e6a CC210000 		.4byte	.LLST368
 11547 2e6e 28       		.uleb128 0x28
 11548 2e6f FC000000 		.4byte	0xfc
 11549 2e73 8A010000 		.4byte	.LBB636
 11550 2e77 B0040000 		.4byte	.Ldebug_ranges0+0x4b0
 11551 2e7b 01       		.byte	0x1
 11552 2e7c 95       		.byte	0x95
 11553 2e7d 18       		.uleb128 0x18
ARM GAS  C:\Users\legoc\AppData\Local\Temp\ccMAvaOS.s 			page 226


 11554 2e7e 2C010000 		.4byte	0x12c
 11555 2e82 8F210000 		.4byte	.LLST364
 11556 2e86 18       		.uleb128 0x18
 11557 2e87 23010000 		.4byte	0x123
 11558 2e8b B8210000 		.4byte	.LLST366
 11559 2e8f 18       		.uleb128 0x18
 11560 2e90 1A010000 		.4byte	0x11a
 11561 2e94 A3210000 		.4byte	.LLST365
 11562 2e98 18       		.uleb128 0x18
 11563 2e99 11010000 		.4byte	0x111
 11564 2e9d E1210000 		.4byte	.LLST372
 11565 2ea1 18       		.uleb128 0x18
 11566 2ea2 08010000 		.4byte	0x108
 11567 2ea6 8F210000 		.4byte	.LLST364
 11568 2eaa 29       		.uleb128 0x29
 11569 2eab B0040000 		.4byte	.Ldebug_ranges0+0x4b0
 11570 2eaf 2A       		.uleb128 0x2a
 11571 2eb0 37010000 		.4byte	0x137
 11572 2eb4 2A       		.uleb128 0x2a
 11573 2eb5 41010000 		.4byte	0x141
 11574 2eb9 29       		.uleb128 0x29
 11575 2eba B0040000 		.4byte	.Ldebug_ranges0+0x4b0
 11576 2ebe 18       		.uleb128 0x18
 11577 2ebf 08010000 		.4byte	0x108
 11578 2ec3 F6210000 		.4byte	.LLST374
 11579 2ec7 18       		.uleb128 0x18
 11580 2ec8 1A010000 		.4byte	0x11a
 11581 2ecc A3210000 		.4byte	.LLST365
 11582 2ed0 18       		.uleb128 0x18
 11583 2ed1 2C010000 		.4byte	0x12c
 11584 2ed5 8F210000 		.4byte	.LLST364
 11585 2ed9 18       		.uleb128 0x18
 11586 2eda 23010000 		.4byte	0x123
 11587 2ede B8210000 		.4byte	.LLST366
 11588 2ee2 18       		.uleb128 0x18
 11589 2ee3 11010000 		.4byte	0x111
 11590 2ee7 17220000 		.4byte	.LLST378
 11591 2eeb 29       		.uleb128 0x29
 11592 2eec B0040000 		.4byte	.Ldebug_ranges0+0x4b0
 11593 2ef0 22       		.uleb128 0x22
 11594 2ef1 37010000 		.4byte	0x137
 11595 2ef5 38220000 		.4byte	.LLST379
 11596 2ef9 22       		.uleb128 0x22
 11597 2efa 41010000 		.4byte	0x141
 11598 2efe 38220000 		.4byte	.LLST379
 11599 2f02 19       		.uleb128 0x19
 11600 2f03 96010000 		.4byte	.LVL487
 11601 2f07 11050000 		.4byte	0x511
 11602 2f0b 272F0000 		.4byte	0x2f27
 11603 2f0f 1A       		.uleb128 0x1a
 11604 2f10 01       		.uleb128 0x1
 11605 2f11 50       		.byte	0x50
 11606 2f12 02       		.uleb128 0x2
 11607 2f13 76       		.byte	0x76
 11608 2f14 00       		.sleb128 0
 11609 2f15 1A       		.uleb128 0x1a
 11610 2f16 01       		.uleb128 0x1
ARM GAS  C:\Users\legoc\AppData\Local\Temp\ccMAvaOS.s 			page 227


 11611 2f17 51       		.byte	0x51
 11612 2f18 02       		.uleb128 0x2
 11613 2f19 08       		.byte	0x8
 11614 2f1a 4F       		.byte	0x4f
 11615 2f1b 1A       		.uleb128 0x1a
 11616 2f1c 01       		.uleb128 0x1
 11617 2f1d 52       		.byte	0x52
 11618 2f1e 02       		.uleb128 0x2
 11619 2f1f 08       		.byte	0x8
 11620 2f20 F0       		.byte	0xf0
 11621 2f21 1A       		.uleb128 0x1a
 11622 2f22 01       		.uleb128 0x1
 11623 2f23 53       		.byte	0x53
 11624 2f24 01       		.uleb128 0x1
 11625 2f25 32       		.byte	0x32
 11626 2f26 00       		.byte	0
 11627 2f27 19       		.uleb128 0x19
 11628 2f28 9C010000 		.4byte	.LVL488
 11629 2f2c CE4A0000 		.4byte	0x4ace
 11630 2f30 3B2F0000 		.4byte	0x2f3b
 11631 2f34 1A       		.uleb128 0x1a
 11632 2f35 01       		.uleb128 0x1
 11633 2f36 50       		.byte	0x50
 11634 2f37 02       		.uleb128 0x2
 11635 2f38 74       		.byte	0x74
 11636 2f39 00       		.sleb128 0
 11637 2f3a 00       		.byte	0
 11638 2f3b 19       		.uleb128 0x19
 11639 2f3c A2010000 		.4byte	.LVL489
 11640 2f40 EF4A0000 		.4byte	0x4aef
 11641 2f44 4F2F0000 		.4byte	0x2f4f
 11642 2f48 1A       		.uleb128 0x1a
 11643 2f49 01       		.uleb128 0x1
 11644 2f4a 50       		.byte	0x50
 11645 2f4b 02       		.uleb128 0x2
 11646 2f4c 76       		.byte	0x76
 11647 2f4d 00       		.sleb128 0
 11648 2f4e 00       		.byte	0
 11649 2f4f 19       		.uleb128 0x19
 11650 2f50 AC010000 		.4byte	.LVL492
 11651 2f54 D94A0000 		.4byte	0x4ad9
 11652 2f58 622F0000 		.4byte	0x2f62
 11653 2f5c 1A       		.uleb128 0x1a
 11654 2f5d 01       		.uleb128 0x1
 11655 2f5e 50       		.byte	0x50
 11656 2f5f 01       		.uleb128 0x1
 11657 2f60 30       		.byte	0x30
 11658 2f61 00       		.byte	0
 11659 2f62 1B       		.uleb128 0x1b
 11660 2f63 B0010000 		.4byte	.LVL493
 11661 2f67 E44A0000 		.4byte	0x4ae4
 11662 2f6b 19       		.uleb128 0x19
 11663 2f6c BA010000 		.4byte	.LVL494
 11664 2f70 D94A0000 		.4byte	0x4ad9
 11665 2f74 7E2F0000 		.4byte	0x2f7e
 11666 2f78 1A       		.uleb128 0x1a
 11667 2f79 01       		.uleb128 0x1
ARM GAS  C:\Users\legoc\AppData\Local\Temp\ccMAvaOS.s 			page 228


 11668 2f7a 50       		.byte	0x50
 11669 2f7b 01       		.uleb128 0x1
 11670 2f7c 30       		.byte	0x30
 11671 2f7d 00       		.byte	0
 11672 2f7e 1B       		.uleb128 0x1b
 11673 2f7f BE010000 		.4byte	.LVL495
 11674 2f83 E44A0000 		.4byte	0x4ae4
 11675 2f87 1B       		.uleb128 0x1b
 11676 2f88 D6010000 		.4byte	.LVL496
 11677 2f8c EF4A0000 		.4byte	0x4aef
 11678 2f90 00       		.byte	0
 11679 2f91 00       		.byte	0
 11680 2f92 00       		.byte	0
 11681 2f93 00       		.byte	0
 11682 2f94 00       		.byte	0
 11683 2f95 19       		.uleb128 0x19
 11684 2f96 8A000000 		.4byte	.LVL461
 11685 2f9a C6020000 		.4byte	0x2c6
 11686 2f9e D12F0000 		.4byte	0x2fd1
 11687 2fa2 1A       		.uleb128 0x1a
 11688 2fa3 01       		.uleb128 0x1
 11689 2fa4 50       		.byte	0x50
 11690 2fa5 02       		.uleb128 0x2
 11691 2fa6 74       		.byte	0x74
 11692 2fa7 00       		.sleb128 0
 11693 2fa8 1A       		.uleb128 0x1a
 11694 2fa9 01       		.uleb128 0x1
 11695 2faa 51       		.byte	0x51
 11696 2fab 02       		.uleb128 0x2
 11697 2fac 74       		.byte	0x74
 11698 2fad 00       		.sleb128 0
 11699 2fae 1A       		.uleb128 0x1a
 11700 2faf 01       		.uleb128 0x1
 11701 2fb0 52       		.byte	0x52
 11702 2fb1 02       		.uleb128 0x2
 11703 2fb2 08       		.byte	0x8
 11704 2fb3 77       		.byte	0x77
 11705 2fb4 1A       		.uleb128 0x1a
 11706 2fb5 01       		.uleb128 0x1
 11707 2fb6 53       		.byte	0x53
 11708 2fb7 02       		.uleb128 0x2
 11709 2fb8 08       		.byte	0x8
 11710 2fb9 77       		.byte	0x77
 11711 2fba 1A       		.uleb128 0x1a
 11712 2fbb 02       		.uleb128 0x2
 11713 2fbc 7D       		.byte	0x7d
 11714 2fbd 00       		.sleb128 0
 11715 2fbe 02       		.uleb128 0x2
 11716 2fbf 78       		.byte	0x78
 11717 2fc0 00       		.sleb128 0
 11718 2fc1 1A       		.uleb128 0x1a
 11719 2fc2 02       		.uleb128 0x2
 11720 2fc3 7D       		.byte	0x7d
 11721 2fc4 04       		.sleb128 4
 11722 2fc5 02       		.uleb128 0x2
 11723 2fc6 74       		.byte	0x74
 11724 2fc7 00       		.sleb128 0
ARM GAS  C:\Users\legoc\AppData\Local\Temp\ccMAvaOS.s 			page 229


 11725 2fc8 1A       		.uleb128 0x1a
 11726 2fc9 02       		.uleb128 0x2
 11727 2fca 7D       		.byte	0x7d
 11728 2fcb 08       		.sleb128 8
 11729 2fcc 03       		.uleb128 0x3
 11730 2fcd 91       		.byte	0x91
 11731 2fce B47F     		.sleb128 -76
 11732 2fd0 00       		.byte	0
 11733 2fd1 19       		.uleb128 0x19
 11734 2fd2 9E000000 		.4byte	.LVL462
 11735 2fd6 C6020000 		.4byte	0x2c6
 11736 2fda 0C300000 		.4byte	0x300c
 11737 2fde 1A       		.uleb128 0x1a
 11738 2fdf 01       		.uleb128 0x1
 11739 2fe0 50       		.byte	0x50
 11740 2fe1 02       		.uleb128 0x2
 11741 2fe2 74       		.byte	0x74
 11742 2fe3 00       		.sleb128 0
 11743 2fe4 1A       		.uleb128 0x1a
 11744 2fe5 01       		.uleb128 0x1
 11745 2fe6 51       		.byte	0x51
 11746 2fe7 02       		.uleb128 0x2
 11747 2fe8 08       		.byte	0x8
 11748 2fe9 79       		.byte	0x79
 11749 2fea 1A       		.uleb128 0x1a
 11750 2feb 01       		.uleb128 0x1
 11751 2fec 52       		.byte	0x52
 11752 2fed 02       		.uleb128 0x2
 11753 2fee 08       		.byte	0x8
 11754 2fef 77       		.byte	0x77
 11755 2ff0 1A       		.uleb128 0x1a
 11756 2ff1 01       		.uleb128 0x1
 11757 2ff2 53       		.byte	0x53
 11758 2ff3 02       		.uleb128 0x2
 11759 2ff4 08       		.byte	0x8
 11760 2ff5 77       		.byte	0x77
 11761 2ff6 1A       		.uleb128 0x1a
 11762 2ff7 02       		.uleb128 0x2
 11763 2ff8 7D       		.byte	0x7d
 11764 2ff9 00       		.sleb128 0
 11765 2ffa 02       		.uleb128 0x2
 11766 2ffb 79       		.byte	0x79
 11767 2ffc 00       		.sleb128 0
 11768 2ffd 1A       		.uleb128 0x1a
 11769 2ffe 02       		.uleb128 0x2
 11770 2fff 7D       		.byte	0x7d
 11771 3000 04       		.sleb128 4
 11772 3001 02       		.uleb128 0x2
 11773 3002 74       		.byte	0x74
 11774 3003 00       		.sleb128 0
 11775 3004 1A       		.uleb128 0x1a
 11776 3005 02       		.uleb128 0x2
 11777 3006 7D       		.byte	0x7d
 11778 3007 08       		.sleb128 8
 11779 3008 02       		.uleb128 0x2
 11780 3009 76       		.byte	0x76
 11781 300a 00       		.sleb128 0
ARM GAS  C:\Users\legoc\AppData\Local\Temp\ccMAvaOS.s 			page 230


 11782 300b 00       		.byte	0
 11783 300c 19       		.uleb128 0x19
 11784 300d B4000000 		.4byte	.LVL463
 11785 3011 C6020000 		.4byte	0x2c6
 11786 3015 48300000 		.4byte	0x3048
 11787 3019 1A       		.uleb128 0x1a
 11788 301a 01       		.uleb128 0x1
 11789 301b 50       		.byte	0x50
 11790 301c 02       		.uleb128 0x2
 11791 301d 08       		.byte	0x8
 11792 301e 79       		.byte	0x79
 11793 301f 1A       		.uleb128 0x1a
 11794 3020 01       		.uleb128 0x1
 11795 3021 51       		.byte	0x51
 11796 3022 02       		.uleb128 0x2
 11797 3023 74       		.byte	0x74
 11798 3024 00       		.sleb128 0
 11799 3025 1A       		.uleb128 0x1a
 11800 3026 01       		.uleb128 0x1
 11801 3027 52       		.byte	0x52
 11802 3028 02       		.uleb128 0x2
 11803 3029 08       		.byte	0x8
 11804 302a 77       		.byte	0x77
 11805 302b 1A       		.uleb128 0x1a
 11806 302c 01       		.uleb128 0x1
 11807 302d 53       		.byte	0x53
 11808 302e 02       		.uleb128 0x2
 11809 302f 08       		.byte	0x8
 11810 3030 77       		.byte	0x77
 11811 3031 1A       		.uleb128 0x1a
 11812 3032 02       		.uleb128 0x2
 11813 3033 7D       		.byte	0x7d
 11814 3034 00       		.sleb128 0
 11815 3035 02       		.uleb128 0x2
 11816 3036 79       		.byte	0x79
 11817 3037 00       		.sleb128 0
 11818 3038 1A       		.uleb128 0x1a
 11819 3039 02       		.uleb128 0x2
 11820 303a 7D       		.byte	0x7d
 11821 303b 04       		.sleb128 4
 11822 303c 02       		.uleb128 0x2
 11823 303d 74       		.byte	0x74
 11824 303e 00       		.sleb128 0
 11825 303f 1A       		.uleb128 0x1a
 11826 3040 02       		.uleb128 0x2
 11827 3041 7D       		.byte	0x7d
 11828 3042 08       		.sleb128 8
 11829 3043 03       		.uleb128 0x3
 11830 3044 91       		.byte	0x91
 11831 3045 A07F     		.sleb128 -96
 11832 3047 00       		.byte	0
 11833 3048 19       		.uleb128 0x19
 11834 3049 CA000000 		.4byte	.LVL464
 11835 304d C6020000 		.4byte	0x2c6
 11836 3051 83300000 		.4byte	0x3083
 11837 3055 1A       		.uleb128 0x1a
 11838 3056 01       		.uleb128 0x1
ARM GAS  C:\Users\legoc\AppData\Local\Temp\ccMAvaOS.s 			page 231


 11839 3057 50       		.byte	0x50
 11840 3058 02       		.uleb128 0x2
 11841 3059 08       		.byte	0x8
 11842 305a 79       		.byte	0x79
 11843 305b 1A       		.uleb128 0x1a
 11844 305c 01       		.uleb128 0x1
 11845 305d 51       		.byte	0x51
 11846 305e 02       		.uleb128 0x2
 11847 305f 08       		.byte	0x8
 11848 3060 79       		.byte	0x79
 11849 3061 1A       		.uleb128 0x1a
 11850 3062 01       		.uleb128 0x1
 11851 3063 52       		.byte	0x52
 11852 3064 02       		.uleb128 0x2
 11853 3065 08       		.byte	0x8
 11854 3066 77       		.byte	0x77
 11855 3067 1A       		.uleb128 0x1a
 11856 3068 01       		.uleb128 0x1
 11857 3069 53       		.byte	0x53
 11858 306a 02       		.uleb128 0x2
 11859 306b 08       		.byte	0x8
 11860 306c 77       		.byte	0x77
 11861 306d 1A       		.uleb128 0x1a
 11862 306e 02       		.uleb128 0x2
 11863 306f 7D       		.byte	0x7d
 11864 3070 00       		.sleb128 0
 11865 3071 02       		.uleb128 0x2
 11866 3072 78       		.byte	0x78
 11867 3073 00       		.sleb128 0
 11868 3074 1A       		.uleb128 0x1a
 11869 3075 02       		.uleb128 0x2
 11870 3076 7D       		.byte	0x7d
 11871 3077 04       		.sleb128 4
 11872 3078 02       		.uleb128 0x2
 11873 3079 74       		.byte	0x74
 11874 307a 00       		.sleb128 0
 11875 307b 1A       		.uleb128 0x1a
 11876 307c 02       		.uleb128 0x2
 11877 307d 7D       		.byte	0x7d
 11878 307e 08       		.sleb128 8
 11879 307f 02       		.uleb128 0x2
 11880 3080 91       		.byte	0x91
 11881 3081 48       		.sleb128 -56
 11882 3082 00       		.byte	0
 11883 3083 19       		.uleb128 0x19
 11884 3084 DA000000 		.4byte	.LVL465
 11885 3088 C0070000 		.4byte	0x7c0
 11886 308c B1300000 		.4byte	0x30b1
 11887 3090 1A       		.uleb128 0x1a
 11888 3091 01       		.uleb128 0x1
 11889 3092 50       		.byte	0x50
 11890 3093 02       		.uleb128 0x2
 11891 3094 08       		.byte	0x8
 11892 3095 F1       		.byte	0xf1
 11893 3096 1A       		.uleb128 0x1a
 11894 3097 01       		.uleb128 0x1
 11895 3098 51       		.byte	0x51
ARM GAS  C:\Users\legoc\AppData\Local\Temp\ccMAvaOS.s 			page 232


 11896 3099 02       		.uleb128 0x2
 11897 309a 74       		.byte	0x74
 11898 309b 00       		.sleb128 0
 11899 309c 1A       		.uleb128 0x1a
 11900 309d 01       		.uleb128 0x1
 11901 309e 52       		.byte	0x52
 11902 309f 02       		.uleb128 0x2
 11903 30a0 08       		.byte	0x8
 11904 30a1 4F       		.byte	0x4f
 11905 30a2 1A       		.uleb128 0x1a
 11906 30a3 01       		.uleb128 0x1
 11907 30a4 53       		.byte	0x53
 11908 30a5 02       		.uleb128 0x2
 11909 30a6 08       		.byte	0x8
 11910 30a7 77       		.byte	0x77
 11911 30a8 1A       		.uleb128 0x1a
 11912 30a9 02       		.uleb128 0x2
 11913 30aa 7D       		.byte	0x7d
 11914 30ab 00       		.sleb128 0
 11915 30ac 03       		.uleb128 0x3
 11916 30ad 91       		.byte	0x91
 11917 30ae FC7E     		.sleb128 -132
 11918 30b0 00       		.byte	0
 11919 30b1 2C       		.uleb128 0x2c
 11920 30b2 EA000000 		.4byte	.LVL466
 11921 30b6 C0070000 		.4byte	0x7c0
 11922 30ba 1A       		.uleb128 0x1a
 11923 30bb 01       		.uleb128 0x1
 11924 30bc 50       		.byte	0x50
 11925 30bd 02       		.uleb128 0x2
 11926 30be 08       		.byte	0x8
 11927 30bf F1       		.byte	0xf1
 11928 30c0 1A       		.uleb128 0x1a
 11929 30c1 01       		.uleb128 0x1
 11930 30c2 51       		.byte	0x51
 11931 30c3 02       		.uleb128 0x2
 11932 30c4 08       		.byte	0x8
 11933 30c5 79       		.byte	0x79
 11934 30c6 1A       		.uleb128 0x1a
 11935 30c7 01       		.uleb128 0x1
 11936 30c8 52       		.byte	0x52
 11937 30c9 02       		.uleb128 0x2
 11938 30ca 08       		.byte	0x8
 11939 30cb 4F       		.byte	0x4f
 11940 30cc 1A       		.uleb128 0x1a
 11941 30cd 01       		.uleb128 0x1
 11942 30ce 53       		.byte	0x53
 11943 30cf 02       		.uleb128 0x2
 11944 30d0 08       		.byte	0x8
 11945 30d1 77       		.byte	0x77
 11946 30d2 1A       		.uleb128 0x1a
 11947 30d3 02       		.uleb128 0x2
 11948 30d4 7D       		.byte	0x7d
 11949 30d5 00       		.sleb128 0
 11950 30d6 03       		.uleb128 0x3
 11951 30d7 91       		.byte	0x91
 11952 30d8 847F     		.sleb128 -124
ARM GAS  C:\Users\legoc\AppData\Local\Temp\ccMAvaOS.s 			page 233


 11953 30da 00       		.byte	0
 11954 30db 00       		.byte	0
 11955 30dc 06       		.uleb128 0x6
 11956 30dd D1000000 		.4byte	0xd1
 11957 30e1 EC300000 		.4byte	0x30ec
 11958 30e5 07       		.uleb128 0x7
 11959 30e6 DF000000 		.4byte	0xdf
 11960 30ea 12       		.byte	0x12
 11961 30eb 00       		.byte	0
 11962 30ec 06       		.uleb128 0x6
 11963 30ed D1000000 		.4byte	0xd1
 11964 30f1 FC300000 		.4byte	0x30fc
 11965 30f5 07       		.uleb128 0x7
 11966 30f6 DF000000 		.4byte	0xdf
 11967 30fa 0F       		.byte	0xf
 11968 30fb 00       		.byte	0
 11969 30fc 06       		.uleb128 0x6
 11970 30fd D1000000 		.4byte	0xd1
 11971 3101 0C310000 		.4byte	0x310c
 11972 3105 07       		.uleb128 0x7
 11973 3106 DF000000 		.4byte	0xdf
 11974 310a 10       		.byte	0x10
 11975 310b 00       		.byte	0
 11976 310c 06       		.uleb128 0x6
 11977 310d D1000000 		.4byte	0xd1
 11978 3111 1C310000 		.4byte	0x311c
 11979 3115 07       		.uleb128 0x7
 11980 3116 DF000000 		.4byte	0xdf
 11981 311a 15       		.byte	0x15
 11982 311b 00       		.byte	0
 11983 311c 06       		.uleb128 0x6
 11984 311d D1000000 		.4byte	0xd1
 11985 3121 2C310000 		.4byte	0x312c
 11986 3125 07       		.uleb128 0x7
 11987 3126 DF000000 		.4byte	0xdf
 11988 312a 06       		.byte	0x6
 11989 312b 00       		.byte	0
 11990 312c 06       		.uleb128 0x6
 11991 312d D1000000 		.4byte	0xd1
 11992 3131 3C310000 		.4byte	0x313c
 11993 3135 07       		.uleb128 0x7
 11994 3136 DF000000 		.4byte	0xdf
 11995 313a 08       		.byte	0x8
 11996 313b 00       		.byte	0
 11997 313c 45       		.uleb128 0x45
 11998 313d 21050000 		.4byte	.LASF78
 11999 3141 01       		.byte	0x1
 12000 3142 E801     		.2byte	0x1e8
 12001 3144 00000000 		.4byte	.LFB18
 12002 3148 70010000 		.4byte	.LFE18-.LFB18
 12003 314c 01       		.uleb128 0x1
 12004 314d 9C       		.byte	0x9c
 12005 314e 22360000 		.4byte	0x3622
 12006 3152 40       		.uleb128 0x40
 12007 3153 2E030000 		.4byte	.LASF79
 12008 3157 01       		.byte	0x1
 12009 3158 F801     		.2byte	0x1f8
ARM GAS  C:\Users\legoc\AppData\Local\Temp\ccMAvaOS.s 			page 234


 12010 315a 5C220000 		.4byte	0x225c
 12011 315e 02       		.uleb128 0x2
 12012 315f 91       		.byte	0x91
 12013 3160 6C       		.sleb128 -20
 12014 3161 44       		.uleb128 0x44
 12015 3162 8B030000 		.4byte	.LASF47
 12016 3166 01       		.byte	0x1
 12017 3167 4F01     		.2byte	0x14f
 12018 3169 89000000 		.4byte	0x89
 12019 316d 73310000 		.4byte	0x3173
 12020 3171 14       		.uleb128 0x14
 12021 3172 00       		.byte	0
 12022 3173 26       		.uleb128 0x26
 12023 3174 AE020000 		.4byte	0x2ae
 12024 3178 02000000 		.4byte	.LBB657
 12025 317c C8040000 		.4byte	.Ldebug_ranges0+0x4c8
 12026 3180 01       		.byte	0x1
 12027 3181 EC01     		.2byte	0x1ec
 12028 3183 F9320000 		.4byte	0x32f9
 12029 3187 18       		.uleb128 0x18
 12030 3188 BA020000 		.4byte	0x2ba
 12031 318c 4C220000 		.4byte	.LLST381
 12032 3190 28       		.uleb128 0x28
 12033 3191 4C010000 		.4byte	0x14c
 12034 3195 02000000 		.4byte	.LBB658
 12035 3199 C8040000 		.4byte	.Ldebug_ranges0+0x4c8
 12036 319d 01       		.byte	0x1
 12037 319e 9B       		.byte	0x9b
 12038 319f 18       		.uleb128 0x18
 12039 31a0 7C010000 		.4byte	0x17c
 12040 31a4 4C220000 		.4byte	.LLST381
 12041 31a8 18       		.uleb128 0x18
 12042 31a9 73010000 		.4byte	0x173
 12043 31ad 60220000 		.4byte	.LLST383
 12044 31b1 18       		.uleb128 0x18
 12045 31b2 6A010000 		.4byte	0x16a
 12046 31b6 75220000 		.4byte	.LLST384
 12047 31ba 18       		.uleb128 0x18
 12048 31bb 61010000 		.4byte	0x161
 12049 31bf 4C220000 		.4byte	.LLST381
 12050 31c3 18       		.uleb128 0x18
 12051 31c4 58010000 		.4byte	0x158
 12052 31c8 4C220000 		.4byte	.LLST381
 12053 31cc 28       		.uleb128 0x28
 12054 31cd FC000000 		.4byte	0xfc
 12055 31d1 02000000 		.4byte	.LBB659
 12056 31d5 C8040000 		.4byte	.Ldebug_ranges0+0x4c8
 12057 31d9 01       		.byte	0x1
 12058 31da 95       		.byte	0x95
 12059 31db 18       		.uleb128 0x18
 12060 31dc 2C010000 		.4byte	0x12c
 12061 31e0 4C220000 		.4byte	.LLST381
 12062 31e4 18       		.uleb128 0x18
 12063 31e5 23010000 		.4byte	0x123
 12064 31e9 75220000 		.4byte	.LLST384
 12065 31ed 18       		.uleb128 0x18
 12066 31ee 1A010000 		.4byte	0x11a
ARM GAS  C:\Users\legoc\AppData\Local\Temp\ccMAvaOS.s 			page 235


 12067 31f2 60220000 		.4byte	.LLST383
 12068 31f6 18       		.uleb128 0x18
 12069 31f7 11010000 		.4byte	0x111
 12070 31fb 4C220000 		.4byte	.LLST381
 12071 31ff 18       		.uleb128 0x18
 12072 3200 08010000 		.4byte	0x108
 12073 3204 4C220000 		.4byte	.LLST381
 12074 3208 29       		.uleb128 0x29
 12075 3209 C8040000 		.4byte	.Ldebug_ranges0+0x4c8
 12076 320d 2A       		.uleb128 0x2a
 12077 320e 37010000 		.4byte	0x137
 12078 3212 2A       		.uleb128 0x2a
 12079 3213 41010000 		.4byte	0x141
 12080 3217 29       		.uleb128 0x29
 12081 3218 C8040000 		.4byte	.Ldebug_ranges0+0x4c8
 12082 321c 18       		.uleb128 0x18
 12083 321d 08010000 		.4byte	0x108
 12084 3221 8B220000 		.4byte	.LLST392
 12085 3225 18       		.uleb128 0x18
 12086 3226 1A010000 		.4byte	0x11a
 12087 322a 60220000 		.4byte	.LLST383
 12088 322e 18       		.uleb128 0x18
 12089 322f 2C010000 		.4byte	0x12c
 12090 3233 4C220000 		.4byte	.LLST381
 12091 3237 18       		.uleb128 0x18
 12092 3238 23010000 		.4byte	0x123
 12093 323c 75220000 		.4byte	.LLST384
 12094 3240 18       		.uleb128 0x18
 12095 3241 11010000 		.4byte	0x111
 12096 3245 AC220000 		.4byte	.LLST396
 12097 3249 29       		.uleb128 0x29
 12098 324a C8040000 		.4byte	.Ldebug_ranges0+0x4c8
 12099 324e 22       		.uleb128 0x22
 12100 324f 37010000 		.4byte	0x137
 12101 3253 CE220000 		.4byte	.LLST397
 12102 3257 22       		.uleb128 0x22
 12103 3258 41010000 		.4byte	0x141
 12104 325c CE220000 		.4byte	.LLST397
 12105 3260 19       		.uleb128 0x19
 12106 3261 18000000 		.4byte	.LVL498
 12107 3265 11050000 		.4byte	0x511
 12108 3269 85320000 		.4byte	0x3285
 12109 326d 1A       		.uleb128 0x1a
 12110 326e 01       		.uleb128 0x1
 12111 326f 50       		.byte	0x50
 12112 3270 01       		.uleb128 0x1
 12113 3271 30       		.byte	0x30
 12114 3272 1A       		.uleb128 0x1a
 12115 3273 01       		.uleb128 0x1
 12116 3274 51       		.byte	0x51
 12117 3275 01       		.uleb128 0x1
 12118 3276 30       		.byte	0x30
 12119 3277 1A       		.uleb128 0x1a
 12120 3278 01       		.uleb128 0x1
 12121 3279 52       		.byte	0x52
 12122 327a 02       		.uleb128 0x2
 12123 327b 08       		.byte	0x8
ARM GAS  C:\Users\legoc\AppData\Local\Temp\ccMAvaOS.s 			page 236


 12124 327c F0       		.byte	0xf0
 12125 327d 1A       		.uleb128 0x1a
 12126 327e 01       		.uleb128 0x1
 12127 327f 53       		.byte	0x53
 12128 3280 03       		.uleb128 0x3
 12129 3281 0A       		.byte	0xa
 12130 3282 4001     		.2byte	0x140
 12131 3284 00       		.byte	0
 12132 3285 19       		.uleb128 0x19
 12133 3286 1E000000 		.4byte	.LVL499
 12134 328a CE4A0000 		.4byte	0x4ace
 12135 328e 98320000 		.4byte	0x3298
 12136 3292 1A       		.uleb128 0x1a
 12137 3293 01       		.uleb128 0x1
 12138 3294 50       		.byte	0x50
 12139 3295 01       		.uleb128 0x1
 12140 3296 31       		.byte	0x31
 12141 3297 00       		.byte	0
 12142 3298 19       		.uleb128 0x19
 12143 3299 24000000 		.4byte	.LVL500
 12144 329d EF4A0000 		.4byte	0x4aef
 12145 32a1 AB320000 		.4byte	0x32ab
 12146 32a5 1A       		.uleb128 0x1a
 12147 32a6 01       		.uleb128 0x1
 12148 32a7 50       		.byte	0x50
 12149 32a8 01       		.uleb128 0x1
 12150 32a9 30       		.byte	0x30
 12151 32aa 00       		.byte	0
 12152 32ab 19       		.uleb128 0x19
 12153 32ac 30000000 		.4byte	.LVL503
 12154 32b0 D94A0000 		.4byte	0x4ad9
 12155 32b4 BE320000 		.4byte	0x32be
 12156 32b8 1A       		.uleb128 0x1a
 12157 32b9 01       		.uleb128 0x1
 12158 32ba 50       		.byte	0x50
 12159 32bb 01       		.uleb128 0x1
 12160 32bc 30       		.byte	0x30
 12161 32bd 00       		.byte	0
 12162 32be 1B       		.uleb128 0x1b
 12163 32bf 34000000 		.4byte	.LVL504
 12164 32c3 E44A0000 		.4byte	0x4ae4
 12165 32c7 19       		.uleb128 0x19
 12166 32c8 3E000000 		.4byte	.LVL505
 12167 32cc D94A0000 		.4byte	0x4ad9
 12168 32d0 DA320000 		.4byte	0x32da
 12169 32d4 1A       		.uleb128 0x1a
 12170 32d5 01       		.uleb128 0x1
 12171 32d6 50       		.byte	0x50
 12172 32d7 01       		.uleb128 0x1
 12173 32d8 30       		.byte	0x30
 12174 32d9 00       		.byte	0
 12175 32da 1B       		.uleb128 0x1b
 12176 32db 42000000 		.4byte	.LVL506
 12177 32df E44A0000 		.4byte	0x4ae4
 12178 32e3 2C       		.uleb128 0x2c
 12179 32e4 5C000000 		.4byte	.LVL507
 12180 32e8 EF4A0000 		.4byte	0x4aef
ARM GAS  C:\Users\legoc\AppData\Local\Temp\ccMAvaOS.s 			page 237


 12181 32ec 1A       		.uleb128 0x1a
 12182 32ed 01       		.uleb128 0x1
 12183 32ee 50       		.byte	0x50
 12184 32ef 02       		.uleb128 0x2
 12185 32f0 74       		.byte	0x74
 12186 32f1 00       		.sleb128 0
 12187 32f2 00       		.byte	0
 12188 32f3 00       		.byte	0
 12189 32f4 00       		.byte	0
 12190 32f5 00       		.byte	0
 12191 32f6 00       		.byte	0
 12192 32f7 00       		.byte	0
 12193 32f8 00       		.byte	0
 12194 32f9 26       		.uleb128 0x26
 12195 32fa 4C010000 		.4byte	0x14c
 12196 32fe FA000000 		.4byte	.LBB692
 12197 3302 00050000 		.4byte	.Ldebug_ranges0+0x500
 12198 3306 01       		.byte	0x1
 12199 3307 FF01     		.2byte	0x1ff
 12200 3309 62340000 		.4byte	0x3462
 12201 330d 18       		.uleb128 0x18
 12202 330e 7C010000 		.4byte	0x17c
 12203 3312 E2220000 		.4byte	.LLST399
 12204 3316 18       		.uleb128 0x18
 12205 3317 73010000 		.4byte	0x173
 12206 331b F6220000 		.4byte	.LLST400
 12207 331f 18       		.uleb128 0x18
 12208 3320 6A010000 		.4byte	0x16a
 12209 3324 0B230000 		.4byte	.LLST401
 12210 3328 18       		.uleb128 0x18
 12211 3329 61010000 		.4byte	0x161
 12212 332d E2220000 		.4byte	.LLST399
 12213 3331 18       		.uleb128 0x18
 12214 3332 58010000 		.4byte	0x158
 12215 3336 1F230000 		.4byte	.LLST403
 12216 333a 28       		.uleb128 0x28
 12217 333b FC000000 		.4byte	0xfc
 12218 333f FA000000 		.4byte	.LBB693
 12219 3343 00050000 		.4byte	.Ldebug_ranges0+0x500
 12220 3347 01       		.byte	0x1
 12221 3348 95       		.byte	0x95
 12222 3349 18       		.uleb128 0x18
 12223 334a 2C010000 		.4byte	0x12c
 12224 334e E2220000 		.4byte	.LLST399
 12225 3352 18       		.uleb128 0x18
 12226 3353 23010000 		.4byte	0x123
 12227 3357 0B230000 		.4byte	.LLST401
 12228 335b 18       		.uleb128 0x18
 12229 335c 1A010000 		.4byte	0x11a
 12230 3360 F6220000 		.4byte	.LLST400
 12231 3364 18       		.uleb128 0x18
 12232 3365 11010000 		.4byte	0x111
 12233 3369 34230000 		.4byte	.LLST407
 12234 336d 18       		.uleb128 0x18
 12235 336e 08010000 		.4byte	0x108
 12236 3372 E2220000 		.4byte	.LLST399
 12237 3376 29       		.uleb128 0x29
ARM GAS  C:\Users\legoc\AppData\Local\Temp\ccMAvaOS.s 			page 238


 12238 3377 00050000 		.4byte	.Ldebug_ranges0+0x500
 12239 337b 2A       		.uleb128 0x2a
 12240 337c 37010000 		.4byte	0x137
 12241 3380 2A       		.uleb128 0x2a
 12242 3381 41010000 		.4byte	0x141
 12243 3385 29       		.uleb128 0x29
 12244 3386 00050000 		.4byte	.Ldebug_ranges0+0x500
 12245 338a 18       		.uleb128 0x18
 12246 338b 08010000 		.4byte	0x108
 12247 338f 49230000 		.4byte	.LLST409
 12248 3393 18       		.uleb128 0x18
 12249 3394 1A010000 		.4byte	0x11a
 12250 3398 F6220000 		.4byte	.LLST400
 12251 339c 18       		.uleb128 0x18
 12252 339d 2C010000 		.4byte	0x12c
 12253 33a1 E2220000 		.4byte	.LLST399
 12254 33a5 18       		.uleb128 0x18
 12255 33a6 23010000 		.4byte	0x123
 12256 33aa 0B230000 		.4byte	.LLST401
 12257 33ae 18       		.uleb128 0x18
 12258 33af 11010000 		.4byte	0x111
 12259 33b3 6A230000 		.4byte	.LLST413
 12260 33b7 29       		.uleb128 0x29
 12261 33b8 00050000 		.4byte	.Ldebug_ranges0+0x500
 12262 33bc 22       		.uleb128 0x22
 12263 33bd 37010000 		.4byte	0x137
 12264 33c1 7F230000 		.4byte	.LLST414
 12265 33c5 22       		.uleb128 0x22
 12266 33c6 41010000 		.4byte	0x141
 12267 33ca 7F230000 		.4byte	.LLST414
 12268 33ce 19       		.uleb128 0x19
 12269 33cf 06010000 		.4byte	.LVL518
 12270 33d3 11050000 		.4byte	0x511
 12271 33d7 F4330000 		.4byte	0x33f4
 12272 33db 1A       		.uleb128 0x1a
 12273 33dc 01       		.uleb128 0x1
 12274 33dd 50       		.byte	0x50
 12275 33de 02       		.uleb128 0x2
 12276 33df 76       		.byte	0x76
 12277 33e0 00       		.sleb128 0
 12278 33e1 1A       		.uleb128 0x1a
 12279 33e2 01       		.uleb128 0x1
 12280 33e3 51       		.byte	0x51
 12281 33e4 02       		.uleb128 0x2
 12282 33e5 08       		.byte	0x8
 12283 33e6 4F       		.byte	0x4f
 12284 33e7 1A       		.uleb128 0x1a
 12285 33e8 01       		.uleb128 0x1
 12286 33e9 52       		.byte	0x52
 12287 33ea 02       		.uleb128 0x2
 12288 33eb 08       		.byte	0x8
 12289 33ec F0       		.byte	0xf0
 12290 33ed 1A       		.uleb128 0x1a
 12291 33ee 01       		.uleb128 0x1
 12292 33ef 53       		.byte	0x53
 12293 33f0 02       		.uleb128 0x2
 12294 33f1 75       		.byte	0x75
ARM GAS  C:\Users\legoc\AppData\Local\Temp\ccMAvaOS.s 			page 239


 12295 33f2 00       		.sleb128 0
 12296 33f3 00       		.byte	0
 12297 33f4 19       		.uleb128 0x19
 12298 33f5 0C010000 		.4byte	.LVL519
 12299 33f9 CE4A0000 		.4byte	0x4ace
 12300 33fd 08340000 		.4byte	0x3408
 12301 3401 1A       		.uleb128 0x1a
 12302 3402 01       		.uleb128 0x1
 12303 3403 50       		.byte	0x50
 12304 3404 02       		.uleb128 0x2
 12305 3405 74       		.byte	0x74
 12306 3406 00       		.sleb128 0
 12307 3407 00       		.byte	0
 12308 3408 19       		.uleb128 0x19
 12309 3409 12010000 		.4byte	.LVL520
 12310 340d EF4A0000 		.4byte	0x4aef
 12311 3411 1C340000 		.4byte	0x341c
 12312 3415 1A       		.uleb128 0x1a
 12313 3416 01       		.uleb128 0x1
 12314 3417 50       		.byte	0x50
 12315 3418 02       		.uleb128 0x2
 12316 3419 76       		.byte	0x76
 12317 341a 00       		.sleb128 0
 12318 341b 00       		.byte	0
 12319 341c 19       		.uleb128 0x19
 12320 341d 1A010000 		.4byte	.LVL522
 12321 3421 D94A0000 		.4byte	0x4ad9
 12322 3425 2F340000 		.4byte	0x342f
 12323 3429 1A       		.uleb128 0x1a
 12324 342a 01       		.uleb128 0x1
 12325 342b 50       		.byte	0x50
 12326 342c 01       		.uleb128 0x1
 12327 342d 30       		.byte	0x30
 12328 342e 00       		.byte	0
 12329 342f 1B       		.uleb128 0x1b
 12330 3430 1E010000 		.4byte	.LVL523
 12331 3434 E44A0000 		.4byte	0x4ae4
 12332 3438 19       		.uleb128 0x19
 12333 3439 28010000 		.4byte	.LVL524
 12334 343d D94A0000 		.4byte	0x4ad9
 12335 3441 4B340000 		.4byte	0x344b
 12336 3445 1A       		.uleb128 0x1a
 12337 3446 01       		.uleb128 0x1
 12338 3447 50       		.byte	0x50
 12339 3448 01       		.uleb128 0x1
 12340 3449 30       		.byte	0x30
 12341 344a 00       		.byte	0
 12342 344b 1B       		.uleb128 0x1b
 12343 344c 2C010000 		.4byte	.LVL525
 12344 3450 E44A0000 		.4byte	0x4ae4
 12345 3454 1B       		.uleb128 0x1b
 12346 3455 44010000 		.4byte	.LVL526
 12347 3459 EF4A0000 		.4byte	0x4aef
 12348 345d 00       		.byte	0
 12349 345e 00       		.byte	0
 12350 345f 00       		.byte	0
 12351 3460 00       		.byte	0
ARM GAS  C:\Users\legoc\AppData\Local\Temp\ccMAvaOS.s 			page 240


 12352 3461 00       		.byte	0
 12353 3462 19       		.uleb128 0x19
 12354 3463 6C000000 		.4byte	.LVL508
 12355 3467 C0070000 		.4byte	0x7c0
 12356 346b 91340000 		.4byte	0x3491
 12357 346f 1A       		.uleb128 0x1a
 12358 3470 01       		.uleb128 0x1
 12359 3471 50       		.byte	0x50
 12360 3472 02       		.uleb128 0x2
 12361 3473 76       		.byte	0x76
 12362 3474 00       		.sleb128 0
 12363 3475 1A       		.uleb128 0x1a
 12364 3476 01       		.uleb128 0x1
 12365 3477 51       		.byte	0x51
 12366 3478 02       		.uleb128 0x2
 12367 3479 08       		.byte	0x8
 12368 347a DB       		.byte	0xdb
 12369 347b 1A       		.uleb128 0x1a
 12370 347c 01       		.uleb128 0x1
 12371 347d 52       		.byte	0x52
 12372 347e 02       		.uleb128 0x2
 12373 347f 08       		.byte	0x8
 12374 3480 EF       		.byte	0xef
 12375 3481 1A       		.uleb128 0x1a
 12376 3482 01       		.uleb128 0x1
 12377 3483 53       		.byte	0x53
 12378 3484 01       		.uleb128 0x1
 12379 3485 44       		.byte	0x44
 12380 3486 1A       		.uleb128 0x1a
 12381 3487 02       		.uleb128 0x2
 12382 3488 7D       		.byte	0x7d
 12383 3489 00       		.sleb128 0
 12384 348a 05       		.uleb128 0x5
 12385 348b 03       		.byte	0x3
 12386 348c E0000000 		.4byte	.LC18
 12387 3490 00       		.byte	0
 12388 3491 19       		.uleb128 0x19
 12389 3492 7C000000 		.4byte	.LVL509
 12390 3496 C0070000 		.4byte	0x7c0
 12391 349a C1340000 		.4byte	0x34c1
 12392 349e 1A       		.uleb128 0x1a
 12393 349f 01       		.uleb128 0x1
 12394 34a0 50       		.byte	0x50
 12395 34a1 02       		.uleb128 0x2
 12396 34a2 08       		.byte	0x8
 12397 34a3 50       		.byte	0x50
 12398 34a4 1A       		.uleb128 0x1a
 12399 34a5 01       		.uleb128 0x1
 12400 34a6 51       		.byte	0x51
 12401 34a7 02       		.uleb128 0x2
 12402 34a8 08       		.byte	0x8
 12403 34a9 96       		.byte	0x96
 12404 34aa 1A       		.uleb128 0x1a
 12405 34ab 01       		.uleb128 0x1
 12406 34ac 52       		.byte	0x52
 12407 34ad 02       		.uleb128 0x2
 12408 34ae 08       		.byte	0x8
ARM GAS  C:\Users\legoc\AppData\Local\Temp\ccMAvaOS.s 			page 241


 12409 34af 46       		.byte	0x46
 12410 34b0 1A       		.uleb128 0x1a
 12411 34b1 01       		.uleb128 0x1
 12412 34b2 53       		.byte	0x53
 12413 34b3 02       		.uleb128 0x2
 12414 34b4 08       		.byte	0x8
 12415 34b5 32       		.byte	0x32
 12416 34b6 1A       		.uleb128 0x1a
 12417 34b7 02       		.uleb128 0x2
 12418 34b8 7D       		.byte	0x7d
 12419 34b9 00       		.sleb128 0
 12420 34ba 05       		.uleb128 0x5
 12421 34bb 03       		.byte	0x3
 12422 34bc FC000000 		.4byte	.LC19
 12423 34c0 00       		.byte	0
 12424 34c1 19       		.uleb128 0x19
 12425 34c2 8C000000 		.4byte	.LVL510
 12426 34c6 C0070000 		.4byte	0x7c0
 12427 34ca F1340000 		.4byte	0x34f1
 12428 34ce 1A       		.uleb128 0x1a
 12429 34cf 01       		.uleb128 0x1
 12430 34d0 50       		.byte	0x50
 12431 34d1 02       		.uleb128 0x2
 12432 34d2 08       		.byte	0x8
 12433 34d3 50       		.byte	0x50
 12434 34d4 1A       		.uleb128 0x1a
 12435 34d5 01       		.uleb128 0x1
 12436 34d6 51       		.byte	0x51
 12437 34d7 02       		.uleb128 0x2
 12438 34d8 08       		.byte	0x8
 12439 34d9 50       		.byte	0x50
 12440 34da 1A       		.uleb128 0x1a
 12441 34db 01       		.uleb128 0x1
 12442 34dc 52       		.byte	0x52
 12443 34dd 02       		.uleb128 0x2
 12444 34de 08       		.byte	0x8
 12445 34df 46       		.byte	0x46
 12446 34e0 1A       		.uleb128 0x1a
 12447 34e1 01       		.uleb128 0x1
 12448 34e2 53       		.byte	0x53
 12449 34e3 02       		.uleb128 0x2
 12450 34e4 08       		.byte	0x8
 12451 34e5 32       		.byte	0x32
 12452 34e6 1A       		.uleb128 0x1a
 12453 34e7 02       		.uleb128 0x2
 12454 34e8 7D       		.byte	0x7d
 12455 34e9 00       		.sleb128 0
 12456 34ea 05       		.uleb128 0x5
 12457 34eb 03       		.byte	0x3
 12458 34ec 04010000 		.4byte	.LC20
 12459 34f0 00       		.byte	0
 12460 34f1 19       		.uleb128 0x19
 12461 34f2 9C000000 		.4byte	.LVL511
 12462 34f6 C0070000 		.4byte	0x7c0
 12463 34fa 20350000 		.4byte	0x3520
 12464 34fe 1A       		.uleb128 0x1a
 12465 34ff 01       		.uleb128 0x1
ARM GAS  C:\Users\legoc\AppData\Local\Temp\ccMAvaOS.s 			page 242


 12466 3500 50       		.byte	0x50
 12467 3501 02       		.uleb128 0x2
 12468 3502 08       		.byte	0x8
 12469 3503 50       		.byte	0x50
 12470 3504 1A       		.uleb128 0x1a
 12471 3505 01       		.uleb128 0x1
 12472 3506 51       		.byte	0x51
 12473 3507 01       		.uleb128 0x1
 12474 3508 3A       		.byte	0x3a
 12475 3509 1A       		.uleb128 0x1a
 12476 350a 01       		.uleb128 0x1
 12477 350b 52       		.byte	0x52
 12478 350c 02       		.uleb128 0x2
 12479 350d 08       		.byte	0x8
 12480 350e 46       		.byte	0x46
 12481 350f 1A       		.uleb128 0x1a
 12482 3510 01       		.uleb128 0x1
 12483 3511 53       		.byte	0x53
 12484 3512 02       		.uleb128 0x2
 12485 3513 08       		.byte	0x8
 12486 3514 32       		.byte	0x32
 12487 3515 1A       		.uleb128 0x1a
 12488 3516 02       		.uleb128 0x2
 12489 3517 7D       		.byte	0x7d
 12490 3518 00       		.sleb128 0
 12491 3519 05       		.uleb128 0x5
 12492 351a 03       		.byte	0x3
 12493 351b 0C010000 		.4byte	.LC21
 12494 351f 00       		.byte	0
 12495 3520 19       		.uleb128 0x19
 12496 3521 AC000000 		.4byte	.LVL512
 12497 3525 C0070000 		.4byte	0x7c0
 12498 3529 50350000 		.4byte	0x3550
 12499 352d 1A       		.uleb128 0x1a
 12500 352e 01       		.uleb128 0x1
 12501 352f 50       		.byte	0x50
 12502 3530 02       		.uleb128 0x2
 12503 3531 08       		.byte	0x8
 12504 3532 A0       		.byte	0xa0
 12505 3533 1A       		.uleb128 0x1a
 12506 3534 01       		.uleb128 0x1
 12507 3535 51       		.byte	0x51
 12508 3536 02       		.uleb128 0x2
 12509 3537 08       		.byte	0x8
 12510 3538 96       		.byte	0x96
 12511 3539 1A       		.uleb128 0x1a
 12512 353a 01       		.uleb128 0x1
 12513 353b 52       		.byte	0x52
 12514 353c 02       		.uleb128 0x2
 12515 353d 08       		.byte	0x8
 12516 353e 46       		.byte	0x46
 12517 353f 1A       		.uleb128 0x1a
 12518 3540 01       		.uleb128 0x1
 12519 3541 53       		.byte	0x53
 12520 3542 02       		.uleb128 0x2
 12521 3543 08       		.byte	0x8
 12522 3544 32       		.byte	0x32
ARM GAS  C:\Users\legoc\AppData\Local\Temp\ccMAvaOS.s 			page 243


 12523 3545 1A       		.uleb128 0x1a
 12524 3546 02       		.uleb128 0x2
 12525 3547 7D       		.byte	0x7d
 12526 3548 00       		.sleb128 0
 12527 3549 05       		.uleb128 0x5
 12528 354a 03       		.byte	0x3
 12529 354b 18010000 		.4byte	.LC22
 12530 354f 00       		.byte	0
 12531 3550 19       		.uleb128 0x19
 12532 3551 BC000000 		.4byte	.LVL513
 12533 3555 C0070000 		.4byte	0x7c0
 12534 3559 80350000 		.4byte	0x3580
 12535 355d 1A       		.uleb128 0x1a
 12536 355e 01       		.uleb128 0x1
 12537 355f 50       		.byte	0x50
 12538 3560 02       		.uleb128 0x2
 12539 3561 08       		.byte	0x8
 12540 3562 A0       		.byte	0xa0
 12541 3563 1A       		.uleb128 0x1a
 12542 3564 01       		.uleb128 0x1
 12543 3565 51       		.byte	0x51
 12544 3566 02       		.uleb128 0x2
 12545 3567 08       		.byte	0x8
 12546 3568 50       		.byte	0x50
 12547 3569 1A       		.uleb128 0x1a
 12548 356a 01       		.uleb128 0x1
 12549 356b 52       		.byte	0x52
 12550 356c 02       		.uleb128 0x2
 12551 356d 08       		.byte	0x8
 12552 356e 46       		.byte	0x46
 12553 356f 1A       		.uleb128 0x1a
 12554 3570 01       		.uleb128 0x1
 12555 3571 53       		.byte	0x53
 12556 3572 02       		.uleb128 0x2
 12557 3573 08       		.byte	0x8
 12558 3574 32       		.byte	0x32
 12559 3575 1A       		.uleb128 0x1a
 12560 3576 02       		.uleb128 0x2
 12561 3577 7D       		.byte	0x7d
 12562 3578 00       		.sleb128 0
 12563 3579 05       		.uleb128 0x5
 12564 357a 03       		.byte	0x3
 12565 357b 20010000 		.4byte	.LC23
 12566 357f 00       		.byte	0
 12567 3580 19       		.uleb128 0x19
 12568 3581 CC000000 		.4byte	.LVL514
 12569 3585 C0070000 		.4byte	0x7c0
 12570 3589 AF350000 		.4byte	0x35af
 12571 358d 1A       		.uleb128 0x1a
 12572 358e 01       		.uleb128 0x1
 12573 358f 50       		.byte	0x50
 12574 3590 02       		.uleb128 0x2
 12575 3591 08       		.byte	0x8
 12576 3592 A0       		.byte	0xa0
 12577 3593 1A       		.uleb128 0x1a
 12578 3594 01       		.uleb128 0x1
 12579 3595 51       		.byte	0x51
ARM GAS  C:\Users\legoc\AppData\Local\Temp\ccMAvaOS.s 			page 244


 12580 3596 01       		.uleb128 0x1
 12581 3597 3A       		.byte	0x3a
 12582 3598 1A       		.uleb128 0x1a
 12583 3599 01       		.uleb128 0x1
 12584 359a 52       		.byte	0x52
 12585 359b 02       		.uleb128 0x2
 12586 359c 08       		.byte	0x8
 12587 359d 46       		.byte	0x46
 12588 359e 1A       		.uleb128 0x1a
 12589 359f 01       		.uleb128 0x1
 12590 35a0 53       		.byte	0x53
 12591 35a1 02       		.uleb128 0x2
 12592 35a2 08       		.byte	0x8
 12593 35a3 32       		.byte	0x32
 12594 35a4 1A       		.uleb128 0x1a
 12595 35a5 02       		.uleb128 0x2
 12596 35a6 7D       		.byte	0x7d
 12597 35a7 00       		.sleb128 0
 12598 35a8 05       		.uleb128 0x5
 12599 35a9 03       		.byte	0x3
 12600 35aa 2C010000 		.4byte	.LC24
 12601 35ae 00       		.byte	0
 12602 35af 19       		.uleb128 0x19
 12603 35b0 DA000000 		.4byte	.LVL515
 12604 35b4 254B0000 		.4byte	0x4b25
 12605 35b8 C8350000 		.4byte	0x35c8
 12606 35bc 1A       		.uleb128 0x1a
 12607 35bd 01       		.uleb128 0x1
 12608 35be 51       		.byte	0x51
 12609 35bf 02       		.uleb128 0x2
 12610 35c0 91       		.byte	0x91
 12611 35c1 6C       		.sleb128 -20
 12612 35c2 1A       		.uleb128 0x1a
 12613 35c3 01       		.uleb128 0x1
 12614 35c4 52       		.byte	0x52
 12615 35c5 01       		.uleb128 0x1
 12616 35c6 3A       		.byte	0x3a
 12617 35c7 00       		.byte	0
 12618 35c8 19       		.uleb128 0x19
 12619 35c9 EA000000 		.4byte	.LVL516
 12620 35cd FA4A0000 		.4byte	0x4afa
 12621 35d1 F5350000 		.4byte	0x35f5
 12622 35d5 1A       		.uleb128 0x1a
 12623 35d6 01       		.uleb128 0x1
 12624 35d7 50       		.byte	0x50
 12625 35d8 01       		.uleb128 0x1
 12626 35d9 44       		.byte	0x44
 12627 35da 1A       		.uleb128 0x1a
 12628 35db 01       		.uleb128 0x1
 12629 35dc 51       		.byte	0x51
 12630 35dd 02       		.uleb128 0x2
 12631 35de 08       		.byte	0x8
 12632 35df 69       		.byte	0x69
 12633 35e0 1A       		.uleb128 0x1a
 12634 35e1 01       		.uleb128 0x1
 12635 35e2 52       		.byte	0x52
 12636 35e3 03       		.uleb128 0x3
ARM GAS  C:\Users\legoc\AppData\Local\Temp\ccMAvaOS.s 			page 245


 12637 35e4 0A       		.byte	0xa
 12638 35e5 FFFF     		.2byte	0xffff
 12639 35e7 1A       		.uleb128 0x1a
 12640 35e8 01       		.uleb128 0x1
 12641 35e9 53       		.byte	0x53
 12642 35ea 02       		.uleb128 0x2
 12643 35eb 91       		.byte	0x91
 12644 35ec 6C       		.sleb128 -20
 12645 35ed 1A       		.uleb128 0x1a
 12646 35ee 02       		.uleb128 0x2
 12647 35ef 7D       		.byte	0x7d
 12648 35f0 00       		.sleb128 0
 12649 35f1 02       		.uleb128 0x2
 12650 35f2 75       		.byte	0x75
 12651 35f3 00       		.sleb128 0
 12652 35f4 00       		.byte	0
 12653 35f5 2C       		.uleb128 0x2c
 12654 35f6 FA000000 		.4byte	.LVL517
 12655 35fa C0070000 		.4byte	0x7c0
 12656 35fe 1A       		.uleb128 0x1a
 12657 35ff 01       		.uleb128 0x1
 12658 3600 50       		.byte	0x50
 12659 3601 02       		.uleb128 0x2
 12660 3602 08       		.byte	0x8
 12661 3603 F1       		.byte	0xf1
 12662 3604 1A       		.uleb128 0x1a
 12663 3605 01       		.uleb128 0x1
 12664 3606 51       		.byte	0x51
 12665 3607 02       		.uleb128 0x2
 12666 3608 76       		.byte	0x76
 12667 3609 00       		.sleb128 0
 12668 360a 1A       		.uleb128 0x1a
 12669 360b 01       		.uleb128 0x1
 12670 360c 52       		.byte	0x52
 12671 360d 02       		.uleb128 0x2
 12672 360e 08       		.byte	0x8
 12673 360f 4F       		.byte	0x4f
 12674 3610 1A       		.uleb128 0x1a
 12675 3611 01       		.uleb128 0x1
 12676 3612 53       		.byte	0x53
 12677 3613 02       		.uleb128 0x2
 12678 3614 08       		.byte	0x8
 12679 3615 F0       		.byte	0xf0
 12680 3616 1A       		.uleb128 0x1a
 12681 3617 02       		.uleb128 0x2
 12682 3618 7D       		.byte	0x7d
 12683 3619 00       		.sleb128 0
 12684 361a 05       		.uleb128 0x5
 12685 361b 03       		.byte	0x3
 12686 361c D8000000 		.4byte	.LC16
 12687 3620 00       		.byte	0
 12688 3621 00       		.byte	0
 12689 3622 45       		.uleb128 0x45
 12690 3623 C3050000 		.4byte	.LASF80
 12691 3627 01       		.byte	0x1
 12692 3628 0202     		.2byte	0x202
 12693 362a 00000000 		.4byte	.LFB19
ARM GAS  C:\Users\legoc\AppData\Local\Temp\ccMAvaOS.s 			page 246


 12694 362e 78010000 		.4byte	.LFE19-.LFB19
 12695 3632 01       		.uleb128 0x1
 12696 3633 9C       		.byte	0x9c
 12697 3634 BE3A0000 		.4byte	0x3abe
 12698 3638 40       		.uleb128 0x40
 12699 3639 56050000 		.4byte	.LASF68
 12700 363d 01       		.byte	0x1
 12701 363e 0902     		.2byte	0x209
 12702 3640 EC000000 		.4byte	0xec
 12703 3644 02       		.uleb128 0x2
 12704 3645 91       		.byte	0x91
 12705 3646 54       		.sleb128 -44
 12706 3647 26       		.uleb128 0x26
 12707 3648 AE020000 		.4byte	0x2ae
 12708 364c 02000000 		.4byte	.LBB714
 12709 3650 18050000 		.4byte	.Ldebug_ranges0+0x518
 12710 3654 01       		.byte	0x1
 12711 3655 0602     		.2byte	0x206
 12712 3657 C6370000 		.4byte	0x37c6
 12713 365b 18       		.uleb128 0x18
 12714 365c BA020000 		.4byte	0x2ba
 12715 3660 93230000 		.4byte	.LLST416
 12716 3664 28       		.uleb128 0x28
 12717 3665 4C010000 		.4byte	0x14c
 12718 3669 02000000 		.4byte	.LBB715
 12719 366d 18050000 		.4byte	.Ldebug_ranges0+0x518
 12720 3671 01       		.byte	0x1
 12721 3672 9B       		.byte	0x9b
 12722 3673 18       		.uleb128 0x18
 12723 3674 7C010000 		.4byte	0x17c
 12724 3678 93230000 		.4byte	.LLST416
 12725 367c 18       		.uleb128 0x18
 12726 367d 73010000 		.4byte	0x173
 12727 3681 A7230000 		.4byte	.LLST418
 12728 3685 18       		.uleb128 0x18
 12729 3686 6A010000 		.4byte	0x16a
 12730 368a BC230000 		.4byte	.LLST419
 12731 368e 18       		.uleb128 0x18
 12732 368f 61010000 		.4byte	0x161
 12733 3693 93230000 		.4byte	.LLST416
 12734 3697 18       		.uleb128 0x18
 12735 3698 58010000 		.4byte	0x158
 12736 369c 93230000 		.4byte	.LLST416
 12737 36a0 28       		.uleb128 0x28
 12738 36a1 FC000000 		.4byte	0xfc
 12739 36a5 02000000 		.4byte	.LBB716
 12740 36a9 18050000 		.4byte	.Ldebug_ranges0+0x518
 12741 36ad 01       		.byte	0x1
 12742 36ae 95       		.byte	0x95
 12743 36af 18       		.uleb128 0x18
 12744 36b0 2C010000 		.4byte	0x12c
 12745 36b4 93230000 		.4byte	.LLST416
 12746 36b8 18       		.uleb128 0x18
 12747 36b9 23010000 		.4byte	0x123
 12748 36bd BC230000 		.4byte	.LLST419
 12749 36c1 18       		.uleb128 0x18
 12750 36c2 1A010000 		.4byte	0x11a
ARM GAS  C:\Users\legoc\AppData\Local\Temp\ccMAvaOS.s 			page 247


 12751 36c6 A7230000 		.4byte	.LLST418
 12752 36ca 18       		.uleb128 0x18
 12753 36cb 11010000 		.4byte	0x111
 12754 36cf 93230000 		.4byte	.LLST416
 12755 36d3 18       		.uleb128 0x18
 12756 36d4 08010000 		.4byte	0x108
 12757 36d8 93230000 		.4byte	.LLST416
 12758 36dc 29       		.uleb128 0x29
 12759 36dd 18050000 		.4byte	.Ldebug_ranges0+0x518
 12760 36e1 2A       		.uleb128 0x2a
 12761 36e2 37010000 		.4byte	0x137
 12762 36e6 2A       		.uleb128 0x2a
 12763 36e7 41010000 		.4byte	0x141
 12764 36eb 29       		.uleb128 0x29
 12765 36ec 18050000 		.4byte	.Ldebug_ranges0+0x518
 12766 36f0 18       		.uleb128 0x18
 12767 36f1 08010000 		.4byte	0x108
 12768 36f5 D2230000 		.4byte	.LLST427
 12769 36f9 18       		.uleb128 0x18
 12770 36fa 1A010000 		.4byte	0x11a
 12771 36fe A7230000 		.4byte	.LLST418
 12772 3702 18       		.uleb128 0x18
 12773 3703 2C010000 		.4byte	0x12c
 12774 3707 93230000 		.4byte	.LLST416
 12775 370b 18       		.uleb128 0x18
 12776 370c 23010000 		.4byte	0x123
 12777 3710 BC230000 		.4byte	.LLST419
 12778 3714 18       		.uleb128 0x18
 12779 3715 11010000 		.4byte	0x111
 12780 3719 F3230000 		.4byte	.LLST431
 12781 371d 29       		.uleb128 0x29
 12782 371e 18050000 		.4byte	.Ldebug_ranges0+0x518
 12783 3722 22       		.uleb128 0x22
 12784 3723 37010000 		.4byte	0x137
 12785 3727 15240000 		.4byte	.LLST432
 12786 372b 22       		.uleb128 0x22
 12787 372c 41010000 		.4byte	0x141
 12788 3730 15240000 		.4byte	.LLST432
 12789 3734 19       		.uleb128 0x19
 12790 3735 18000000 		.4byte	.LVL528
 12791 3739 11050000 		.4byte	0x511
 12792 373d 59370000 		.4byte	0x3759
 12793 3741 1A       		.uleb128 0x1a
 12794 3742 01       		.uleb128 0x1
 12795 3743 50       		.byte	0x50
 12796 3744 01       		.uleb128 0x1
 12797 3745 30       		.byte	0x30
 12798 3746 1A       		.uleb128 0x1a
 12799 3747 01       		.uleb128 0x1
 12800 3748 51       		.byte	0x51
 12801 3749 01       		.uleb128 0x1
 12802 374a 30       		.byte	0x30
 12803 374b 1A       		.uleb128 0x1a
 12804 374c 01       		.uleb128 0x1
 12805 374d 52       		.byte	0x52
 12806 374e 02       		.uleb128 0x2
 12807 374f 08       		.byte	0x8
ARM GAS  C:\Users\legoc\AppData\Local\Temp\ccMAvaOS.s 			page 248


 12808 3750 F0       		.byte	0xf0
 12809 3751 1A       		.uleb128 0x1a
 12810 3752 01       		.uleb128 0x1
 12811 3753 53       		.byte	0x53
 12812 3754 03       		.uleb128 0x3
 12813 3755 0A       		.byte	0xa
 12814 3756 4001     		.2byte	0x140
 12815 3758 00       		.byte	0
 12816 3759 19       		.uleb128 0x19
 12817 375a 1E000000 		.4byte	.LVL529
 12818 375e CE4A0000 		.4byte	0x4ace
 12819 3762 6C370000 		.4byte	0x376c
 12820 3766 1A       		.uleb128 0x1a
 12821 3767 01       		.uleb128 0x1
 12822 3768 50       		.byte	0x50
 12823 3769 01       		.uleb128 0x1
 12824 376a 31       		.byte	0x31
 12825 376b 00       		.byte	0
 12826 376c 19       		.uleb128 0x19
 12827 376d 24000000 		.4byte	.LVL530
 12828 3771 EF4A0000 		.4byte	0x4aef
 12829 3775 7F370000 		.4byte	0x377f
 12830 3779 1A       		.uleb128 0x1a
 12831 377a 01       		.uleb128 0x1
 12832 377b 50       		.byte	0x50
 12833 377c 01       		.uleb128 0x1
 12834 377d 30       		.byte	0x30
 12835 377e 00       		.byte	0
 12836 377f 19       		.uleb128 0x19
 12837 3780 30000000 		.4byte	.LVL533
 12838 3784 D94A0000 		.4byte	0x4ad9
 12839 3788 92370000 		.4byte	0x3792
 12840 378c 1A       		.uleb128 0x1a
 12841 378d 01       		.uleb128 0x1
 12842 378e 50       		.byte	0x50
 12843 378f 01       		.uleb128 0x1
 12844 3790 30       		.byte	0x30
 12845 3791 00       		.byte	0
 12846 3792 1B       		.uleb128 0x1b
 12847 3793 34000000 		.4byte	.LVL534
 12848 3797 E44A0000 		.4byte	0x4ae4
 12849 379b 19       		.uleb128 0x19
 12850 379c 3E000000 		.4byte	.LVL535
 12851 37a0 D94A0000 		.4byte	0x4ad9
 12852 37a4 AE370000 		.4byte	0x37ae
 12853 37a8 1A       		.uleb128 0x1a
 12854 37a9 01       		.uleb128 0x1
 12855 37aa 50       		.byte	0x50
 12856 37ab 01       		.uleb128 0x1
 12857 37ac 30       		.byte	0x30
 12858 37ad 00       		.byte	0
 12859 37ae 1B       		.uleb128 0x1b
 12860 37af 42000000 		.4byte	.LVL536
 12861 37b3 E44A0000 		.4byte	0x4ae4
 12862 37b7 1B       		.uleb128 0x1b
 12863 37b8 5A000000 		.4byte	.LVL537
 12864 37bc EF4A0000 		.4byte	0x4aef
ARM GAS  C:\Users\legoc\AppData\Local\Temp\ccMAvaOS.s 			page 249


 12865 37c0 00       		.byte	0
 12866 37c1 00       		.byte	0
 12867 37c2 00       		.byte	0
 12868 37c3 00       		.byte	0
 12869 37c4 00       		.byte	0
 12870 37c5 00       		.byte	0
 12871 37c6 26       		.uleb128 0x26
 12872 37c7 4C010000 		.4byte	0x14c
 12873 37cb C6000000 		.4byte	.LBB749
 12874 37cf 50050000 		.4byte	.Ldebug_ranges0+0x550
 12875 37d3 01       		.byte	0x1
 12876 37d4 1E02     		.2byte	0x21e
 12877 37d6 2B390000 		.4byte	0x392b
 12878 37da 18       		.uleb128 0x18
 12879 37db 7C010000 		.4byte	0x17c
 12880 37df 29240000 		.4byte	.LLST434
 12881 37e3 18       		.uleb128 0x18
 12882 37e4 73010000 		.4byte	0x173
 12883 37e8 3D240000 		.4byte	.LLST435
 12884 37ec 18       		.uleb128 0x18
 12885 37ed 6A010000 		.4byte	0x16a
 12886 37f1 52240000 		.4byte	.LLST436
 12887 37f5 18       		.uleb128 0x18
 12888 37f6 61010000 		.4byte	0x161
 12889 37fa 29240000 		.4byte	.LLST434
 12890 37fe 18       		.uleb128 0x18
 12891 37ff 58010000 		.4byte	0x158
 12892 3803 66240000 		.4byte	.LLST438
 12893 3807 28       		.uleb128 0x28
 12894 3808 FC000000 		.4byte	0xfc
 12895 380c C6000000 		.4byte	.LBB750
 12896 3810 50050000 		.4byte	.Ldebug_ranges0+0x550
 12897 3814 01       		.byte	0x1
 12898 3815 95       		.byte	0x95
 12899 3816 18       		.uleb128 0x18
 12900 3817 2C010000 		.4byte	0x12c
 12901 381b 29240000 		.4byte	.LLST434
 12902 381f 18       		.uleb128 0x18
 12903 3820 23010000 		.4byte	0x123
 12904 3824 52240000 		.4byte	.LLST436
 12905 3828 18       		.uleb128 0x18
 12906 3829 1A010000 		.4byte	0x11a
 12907 382d 3D240000 		.4byte	.LLST435
 12908 3831 18       		.uleb128 0x18
 12909 3832 11010000 		.4byte	0x111
 12910 3836 7B240000 		.4byte	.LLST442
 12911 383a 18       		.uleb128 0x18
 12912 383b 08010000 		.4byte	0x108
 12913 383f 29240000 		.4byte	.LLST434
 12914 3843 29       		.uleb128 0x29
 12915 3844 50050000 		.4byte	.Ldebug_ranges0+0x550
 12916 3848 2A       		.uleb128 0x2a
 12917 3849 37010000 		.4byte	0x137
 12918 384d 2A       		.uleb128 0x2a
 12919 384e 41010000 		.4byte	0x141
 12920 3852 29       		.uleb128 0x29
 12921 3853 50050000 		.4byte	.Ldebug_ranges0+0x550
ARM GAS  C:\Users\legoc\AppData\Local\Temp\ccMAvaOS.s 			page 250


 12922 3857 18       		.uleb128 0x18
 12923 3858 08010000 		.4byte	0x108
 12924 385c 90240000 		.4byte	.LLST444
 12925 3860 18       		.uleb128 0x18
 12926 3861 1A010000 		.4byte	0x11a
 12927 3865 3D240000 		.4byte	.LLST435
 12928 3869 18       		.uleb128 0x18
 12929 386a 2C010000 		.4byte	0x12c
 12930 386e 29240000 		.4byte	.LLST434
 12931 3872 18       		.uleb128 0x18
 12932 3873 23010000 		.4byte	0x123
 12933 3877 52240000 		.4byte	.LLST436
 12934 387b 18       		.uleb128 0x18
 12935 387c 11010000 		.4byte	0x111
 12936 3880 B1240000 		.4byte	.LLST448
 12937 3884 29       		.uleb128 0x29
 12938 3885 50050000 		.4byte	.Ldebug_ranges0+0x550
 12939 3889 22       		.uleb128 0x22
 12940 388a 37010000 		.4byte	0x137
 12941 388e D2240000 		.4byte	.LLST449
 12942 3892 22       		.uleb128 0x22
 12943 3893 41010000 		.4byte	0x141
 12944 3897 D2240000 		.4byte	.LLST449
 12945 389b 19       		.uleb128 0x19
 12946 389c D2000000 		.4byte	.LVL543
 12947 38a0 11050000 		.4byte	0x511
 12948 38a4 BF380000 		.4byte	0x38bf
 12949 38a8 1A       		.uleb128 0x1a
 12950 38a9 01       		.uleb128 0x1
 12951 38aa 50       		.byte	0x50
 12952 38ab 01       		.uleb128 0x1
 12953 38ac 30       		.byte	0x30
 12954 38ad 1A       		.uleb128 0x1a
 12955 38ae 01       		.uleb128 0x1
 12956 38af 51       		.byte	0x51
 12957 38b0 02       		.uleb128 0x2
 12958 38b1 08       		.byte	0x8
 12959 38b2 4F       		.byte	0x4f
 12960 38b3 1A       		.uleb128 0x1a
 12961 38b4 01       		.uleb128 0x1
 12962 38b5 52       		.byte	0x52
 12963 38b6 02       		.uleb128 0x2
 12964 38b7 08       		.byte	0x8
 12965 38b8 F0       		.byte	0xf0
 12966 38b9 1A       		.uleb128 0x1a
 12967 38ba 01       		.uleb128 0x1
 12968 38bb 53       		.byte	0x53
 12969 38bc 01       		.uleb128 0x1
 12970 38bd 32       		.byte	0x32
 12971 38be 00       		.byte	0
 12972 38bf 19       		.uleb128 0x19
 12973 38c0 D8000000 		.4byte	.LVL544
 12974 38c4 CE4A0000 		.4byte	0x4ace
 12975 38c8 D2380000 		.4byte	0x38d2
 12976 38cc 1A       		.uleb128 0x1a
 12977 38cd 01       		.uleb128 0x1
 12978 38ce 50       		.byte	0x50
ARM GAS  C:\Users\legoc\AppData\Local\Temp\ccMAvaOS.s 			page 251


 12979 38cf 01       		.uleb128 0x1
 12980 38d0 31       		.byte	0x31
 12981 38d1 00       		.byte	0
 12982 38d2 19       		.uleb128 0x19
 12983 38d3 DE000000 		.4byte	.LVL545
 12984 38d7 EF4A0000 		.4byte	0x4aef
 12985 38db E5380000 		.4byte	0x38e5
 12986 38df 1A       		.uleb128 0x1a
 12987 38e0 01       		.uleb128 0x1
 12988 38e1 50       		.byte	0x50
 12989 38e2 01       		.uleb128 0x1
 12990 38e3 30       		.byte	0x30
 12991 38e4 00       		.byte	0
 12992 38e5 19       		.uleb128 0x19
 12993 38e6 E8000000 		.4byte	.LVL548
 12994 38ea D94A0000 		.4byte	0x4ad9
 12995 38ee F8380000 		.4byte	0x38f8
 12996 38f2 1A       		.uleb128 0x1a
 12997 38f3 01       		.uleb128 0x1
 12998 38f4 50       		.byte	0x50
 12999 38f5 01       		.uleb128 0x1
 13000 38f6 30       		.byte	0x30
 13001 38f7 00       		.byte	0
 13002 38f8 1B       		.uleb128 0x1b
 13003 38f9 EC000000 		.4byte	.LVL549
 13004 38fd E44A0000 		.4byte	0x4ae4
 13005 3901 19       		.uleb128 0x19
 13006 3902 F6000000 		.4byte	.LVL550
 13007 3906 D94A0000 		.4byte	0x4ad9
 13008 390a 14390000 		.4byte	0x3914
 13009 390e 1A       		.uleb128 0x1a
 13010 390f 01       		.uleb128 0x1
 13011 3910 50       		.byte	0x50
 13012 3911 01       		.uleb128 0x1
 13013 3912 30       		.byte	0x30
 13014 3913 00       		.byte	0
 13015 3914 1B       		.uleb128 0x1b
 13016 3915 FA000000 		.4byte	.LVL551
 13017 3919 E44A0000 		.4byte	0x4ae4
 13018 391d 1B       		.uleb128 0x1b
 13019 391e 12010000 		.4byte	.LVL552
 13020 3922 EF4A0000 		.4byte	0x4aef
 13021 3926 00       		.byte	0
 13022 3927 00       		.byte	0
 13023 3928 00       		.byte	0
 13024 3929 00       		.byte	0
 13025 392a 00       		.byte	0
 13026 392b 19       		.uleb128 0x19
 13027 392c 6E000000 		.4byte	.LVL538
 13028 3930 C0070000 		.4byte	0x7c0
 13029 3934 5A390000 		.4byte	0x395a
 13030 3938 1A       		.uleb128 0x1a
 13031 3939 01       		.uleb128 0x1
 13032 393a 50       		.byte	0x50
 13033 393b 02       		.uleb128 0x2
 13034 393c 75       		.byte	0x75
 13035 393d 00       		.sleb128 0
ARM GAS  C:\Users\legoc\AppData\Local\Temp\ccMAvaOS.s 			page 252


 13036 393e 1A       		.uleb128 0x1a
 13037 393f 01       		.uleb128 0x1
 13038 3940 51       		.byte	0x51
 13039 3941 02       		.uleb128 0x2
 13040 3942 08       		.byte	0x8
 13041 3943 DB       		.byte	0xdb
 13042 3944 1A       		.uleb128 0x1a
 13043 3945 01       		.uleb128 0x1
 13044 3946 52       		.byte	0x52
 13045 3947 02       		.uleb128 0x2
 13046 3948 08       		.byte	0x8
 13047 3949 EF       		.byte	0xef
 13048 394a 1A       		.uleb128 0x1a
 13049 394b 01       		.uleb128 0x1
 13050 394c 53       		.byte	0x53
 13051 394d 01       		.uleb128 0x1
 13052 394e 44       		.byte	0x44
 13053 394f 1A       		.uleb128 0x1a
 13054 3950 02       		.uleb128 0x2
 13055 3951 7D       		.byte	0x7d
 13056 3952 00       		.sleb128 0
 13057 3953 05       		.uleb128 0x5
 13058 3954 03       		.byte	0x3
 13059 3955 90000000 		.4byte	.LC13
 13060 3959 00       		.byte	0
 13061 395a 19       		.uleb128 0x19
 13062 395b 8A000000 		.4byte	.LVL539
 13063 395f C0070000 		.4byte	0x7c0
 13064 3963 86390000 		.4byte	0x3986
 13065 3967 1A       		.uleb128 0x1a
 13066 3968 01       		.uleb128 0x1
 13067 3969 50       		.byte	0x50
 13068 396a 02       		.uleb128 0x2
 13069 396b 75       		.byte	0x75
 13070 396c 00       		.sleb128 0
 13071 396d 1A       		.uleb128 0x1a
 13072 396e 01       		.uleb128 0x1
 13073 396f 51       		.byte	0x51
 13074 3970 02       		.uleb128 0x2
 13075 3971 08       		.byte	0x8
 13076 3972 AA       		.byte	0xaa
 13077 3973 1A       		.uleb128 0x1a
 13078 3974 01       		.uleb128 0x1
 13079 3975 52       		.byte	0x52
 13080 3976 02       		.uleb128 0x2
 13081 3977 08       		.byte	0x8
 13082 3978 EF       		.byte	0xef
 13083 3979 1A       		.uleb128 0x1a
 13084 397a 01       		.uleb128 0x1
 13085 397b 53       		.byte	0x53
 13086 397c 01       		.uleb128 0x1
 13087 397d 3A       		.byte	0x3a
 13088 397e 1A       		.uleb128 0x1a
 13089 397f 02       		.uleb128 0x2
 13090 3980 7D       		.byte	0x7d
 13091 3981 00       		.sleb128 0
 13092 3982 02       		.uleb128 0x2
ARM GAS  C:\Users\legoc\AppData\Local\Temp\ccMAvaOS.s 			page 253


 13093 3983 74       		.byte	0x74
 13094 3984 68       		.sleb128 -24
 13095 3985 00       		.byte	0
 13096 3986 19       		.uleb128 0x19
 13097 3987 A6000000 		.4byte	.LVL540
 13098 398b C0070000 		.4byte	0x7c0
 13099 398f B6390000 		.4byte	0x39b6
 13100 3993 1A       		.uleb128 0x1a
 13101 3994 01       		.uleb128 0x1
 13102 3995 50       		.byte	0x50
 13103 3996 02       		.uleb128 0x2
 13104 3997 08       		.byte	0x8
 13105 3998 50       		.byte	0x50
 13106 3999 1A       		.uleb128 0x1a
 13107 399a 01       		.uleb128 0x1
 13108 399b 51       		.byte	0x51
 13109 399c 02       		.uleb128 0x2
 13110 399d 08       		.byte	0x8
 13111 399e 64       		.byte	0x64
 13112 399f 1A       		.uleb128 0x1a
 13113 39a0 01       		.uleb128 0x1
 13114 39a1 52       		.byte	0x52
 13115 39a2 02       		.uleb128 0x2
 13116 39a3 08       		.byte	0x8
 13117 39a4 50       		.byte	0x50
 13118 39a5 1A       		.uleb128 0x1a
 13119 39a6 01       		.uleb128 0x1
 13120 39a7 53       		.byte	0x53
 13121 39a8 02       		.uleb128 0x2
 13122 39a9 08       		.byte	0x8
 13123 39aa 32       		.byte	0x32
 13124 39ab 1A       		.uleb128 0x1a
 13125 39ac 02       		.uleb128 0x2
 13126 39ad 7D       		.byte	0x7d
 13127 39ae 00       		.sleb128 0
 13128 39af 05       		.uleb128 0x5
 13129 39b0 03       		.byte	0x3
 13130 39b1 38010000 		.4byte	.LC26
 13131 39b5 00       		.byte	0
 13132 39b6 19       		.uleb128 0x19
 13133 39b7 B6000000 		.4byte	.LVL541
 13134 39bb C0070000 		.4byte	0x7c0
 13135 39bf E6390000 		.4byte	0x39e6
 13136 39c3 1A       		.uleb128 0x1a
 13137 39c4 01       		.uleb128 0x1
 13138 39c5 50       		.byte	0x50
 13139 39c6 02       		.uleb128 0x2
 13140 39c7 08       		.byte	0x8
 13141 39c8 82       		.byte	0x82
 13142 39c9 1A       		.uleb128 0x1a
 13143 39ca 01       		.uleb128 0x1
 13144 39cb 51       		.byte	0x51
 13145 39cc 02       		.uleb128 0x2
 13146 39cd 08       		.byte	0x8
 13147 39ce 64       		.byte	0x64
 13148 39cf 1A       		.uleb128 0x1a
 13149 39d0 01       		.uleb128 0x1
ARM GAS  C:\Users\legoc\AppData\Local\Temp\ccMAvaOS.s 			page 254


 13150 39d1 52       		.byte	0x52
 13151 39d2 02       		.uleb128 0x2
 13152 39d3 08       		.byte	0x8
 13153 39d4 50       		.byte	0x50
 13154 39d5 1A       		.uleb128 0x1a
 13155 39d6 01       		.uleb128 0x1
 13156 39d7 53       		.byte	0x53
 13157 39d8 02       		.uleb128 0x2
 13158 39d9 08       		.byte	0x8
 13159 39da 32       		.byte	0x32
 13160 39db 1A       		.uleb128 0x1a
 13161 39dc 02       		.uleb128 0x2
 13162 39dd 7D       		.byte	0x7d
 13163 39de 00       		.sleb128 0
 13164 39df 05       		.uleb128 0x5
 13165 39e0 03       		.byte	0x3
 13166 39e1 3C010000 		.4byte	.LC27
 13167 39e5 00       		.byte	0
 13168 39e6 19       		.uleb128 0x19
 13169 39e7 C6000000 		.4byte	.LVL542
 13170 39eb C0070000 		.4byte	0x7c0
 13171 39ef 153A0000 		.4byte	0x3a15
 13172 39f3 1A       		.uleb128 0x1a
 13173 39f4 01       		.uleb128 0x1
 13174 39f5 50       		.byte	0x50
 13175 39f6 02       		.uleb128 0x2
 13176 39f7 08       		.byte	0x8
 13177 39f8 F1       		.byte	0xf1
 13178 39f9 1A       		.uleb128 0x1a
 13179 39fa 01       		.uleb128 0x1
 13180 39fb 51       		.byte	0x51
 13181 39fc 01       		.uleb128 0x1
 13182 39fd 30       		.byte	0x30
 13183 39fe 1A       		.uleb128 0x1a
 13184 39ff 01       		.uleb128 0x1
 13185 3a00 52       		.byte	0x52
 13186 3a01 02       		.uleb128 0x2
 13187 3a02 08       		.byte	0x8
 13188 3a03 4F       		.byte	0x4f
 13189 3a04 1A       		.uleb128 0x1a
 13190 3a05 01       		.uleb128 0x1
 13191 3a06 53       		.byte	0x53
 13192 3a07 02       		.uleb128 0x2
 13193 3a08 08       		.byte	0x8
 13194 3a09 F0       		.byte	0xf0
 13195 3a0a 1A       		.uleb128 0x1a
 13196 3a0b 02       		.uleb128 0x2
 13197 3a0c 7D       		.byte	0x7d
 13198 3a0d 00       		.sleb128 0
 13199 3a0e 05       		.uleb128 0x5
 13200 3a0f 03       		.byte	0x3
 13201 3a10 D8000000 		.4byte	.LC16
 13202 3a14 00       		.byte	0
 13203 3a15 19       		.uleb128 0x19
 13204 3a16 26010000 		.4byte	.LVL553
 13205 3a1a C0070000 		.4byte	0x7c0
 13206 3a1e 443A0000 		.4byte	0x3a44
ARM GAS  C:\Users\legoc\AppData\Local\Temp\ccMAvaOS.s 			page 255


 13207 3a22 1A       		.uleb128 0x1a
 13208 3a23 01       		.uleb128 0x1
 13209 3a24 50       		.byte	0x50
 13210 3a25 01       		.uleb128 0x1
 13211 3a26 4E       		.byte	0x4e
 13212 3a27 1A       		.uleb128 0x1a
 13213 3a28 01       		.uleb128 0x1
 13214 3a29 51       		.byte	0x51
 13215 3a2a 02       		.uleb128 0x2
 13216 3a2b 08       		.byte	0x8
 13217 3a2c 64       		.byte	0x64
 13218 3a2d 1A       		.uleb128 0x1a
 13219 3a2e 01       		.uleb128 0x1
 13220 3a2f 52       		.byte	0x52
 13221 3a30 02       		.uleb128 0x2
 13222 3a31 08       		.byte	0x8
 13223 3a32 50       		.byte	0x50
 13224 3a33 1A       		.uleb128 0x1a
 13225 3a34 01       		.uleb128 0x1
 13226 3a35 53       		.byte	0x53
 13227 3a36 02       		.uleb128 0x2
 13228 3a37 08       		.byte	0x8
 13229 3a38 32       		.byte	0x32
 13230 3a39 1A       		.uleb128 0x1a
 13231 3a3a 02       		.uleb128 0x2
 13232 3a3b 7D       		.byte	0x7d
 13233 3a3c 00       		.sleb128 0
 13234 3a3d 05       		.uleb128 0x5
 13235 3a3e 03       		.byte	0x3
 13236 3a3f 38010000 		.4byte	.LC26
 13237 3a43 00       		.byte	0
 13238 3a44 19       		.uleb128 0x19
 13239 3a45 3E010000 		.4byte	.LVL554
 13240 3a49 C6020000 		.4byte	0x2c6
 13241 3a4d 833A0000 		.4byte	0x3a83
 13242 3a51 1A       		.uleb128 0x1a
 13243 3a52 01       		.uleb128 0x1
 13244 3a53 50       		.byte	0x50
 13245 3a54 02       		.uleb128 0x2
 13246 3a55 08       		.byte	0x8
 13247 3a56 82       		.byte	0x82
 13248 3a57 1A       		.uleb128 0x1a
 13249 3a58 01       		.uleb128 0x1
 13250 3a59 51       		.byte	0x51
 13251 3a5a 02       		.uleb128 0x2
 13252 3a5b 08       		.byte	0x8
 13253 3a5c 64       		.byte	0x64
 13254 3a5d 1A       		.uleb128 0x1a
 13255 3a5e 01       		.uleb128 0x1
 13256 3a5f 52       		.byte	0x52
 13257 3a60 02       		.uleb128 0x2
 13258 3a61 08       		.byte	0x8
 13259 3a62 50       		.byte	0x50
 13260 3a63 1A       		.uleb128 0x1a
 13261 3a64 01       		.uleb128 0x1
 13262 3a65 53       		.byte	0x53
 13263 3a66 02       		.uleb128 0x2
ARM GAS  C:\Users\legoc\AppData\Local\Temp\ccMAvaOS.s 			page 256


 13264 3a67 08       		.byte	0x8
 13265 3a68 32       		.byte	0x32
 13266 3a69 1A       		.uleb128 0x1a
 13267 3a6a 02       		.uleb128 0x2
 13268 3a6b 7D       		.byte	0x7d
 13269 3a6c 00       		.sleb128 0
 13270 3a6d 03       		.uleb128 0x3
 13271 3a6e 0B       		.byte	0xb
 13272 3a6f 9F9E     		.2byte	0x9e9f
 13273 3a71 1A       		.uleb128 0x1a
 13274 3a72 02       		.uleb128 0x2
 13275 3a73 7D       		.byte	0x7d
 13276 3a74 04       		.sleb128 4
 13277 3a75 02       		.uleb128 0x2
 13278 3a76 75       		.byte	0x75
 13279 3a77 00       		.sleb128 0
 13280 3a78 1A       		.uleb128 0x1a
 13281 3a79 02       		.uleb128 0x2
 13282 3a7a 7D       		.byte	0x7d
 13283 3a7b 08       		.sleb128 8
 13284 3a7c 05       		.uleb128 0x5
 13285 3a7d 03       		.byte	0x3
 13286 3a7e 3C010000 		.4byte	.LC27
 13287 3a82 00       		.byte	0
 13288 3a83 2C       		.uleb128 0x2c
 13289 3a84 58010000 		.4byte	.LVL555
 13290 3a88 C6020000 		.4byte	0x2c6
 13291 3a8c 1A       		.uleb128 0x1a
 13292 3a8d 01       		.uleb128 0x1
 13293 3a8e 50       		.byte	0x50
 13294 3a8f 01       		.uleb128 0x1
 13295 3a90 4E       		.byte	0x4e
 13296 3a91 1A       		.uleb128 0x1a
 13297 3a92 01       		.uleb128 0x1
 13298 3a93 51       		.byte	0x51
 13299 3a94 02       		.uleb128 0x2
 13300 3a95 08       		.byte	0x8
 13301 3a96 64       		.byte	0x64
 13302 3a97 1A       		.uleb128 0x1a
 13303 3a98 01       		.uleb128 0x1
 13304 3a99 52       		.byte	0x52
 13305 3a9a 02       		.uleb128 0x2
 13306 3a9b 08       		.byte	0x8
 13307 3a9c 50       		.byte	0x50
 13308 3a9d 1A       		.uleb128 0x1a
 13309 3a9e 01       		.uleb128 0x1
 13310 3a9f 53       		.byte	0x53
 13311 3aa0 02       		.uleb128 0x2
 13312 3aa1 08       		.byte	0x8
 13313 3aa2 32       		.byte	0x32
 13314 3aa3 1A       		.uleb128 0x1a
 13315 3aa4 02       		.uleb128 0x2
 13316 3aa5 7D       		.byte	0x7d
 13317 3aa6 00       		.sleb128 0
 13318 3aa7 03       		.uleb128 0x3
 13319 3aa8 0B       		.byte	0xb
 13320 3aa9 9F9E     		.2byte	0x9e9f
ARM GAS  C:\Users\legoc\AppData\Local\Temp\ccMAvaOS.s 			page 257


 13321 3aab 1A       		.uleb128 0x1a
 13322 3aac 02       		.uleb128 0x2
 13323 3aad 7D       		.byte	0x7d
 13324 3aae 04       		.sleb128 4
 13325 3aaf 02       		.uleb128 0x2
 13326 3ab0 75       		.byte	0x75
 13327 3ab1 00       		.sleb128 0
 13328 3ab2 1A       		.uleb128 0x1a
 13329 3ab3 02       		.uleb128 0x2
 13330 3ab4 7D       		.byte	0x7d
 13331 3ab5 08       		.sleb128 8
 13332 3ab6 05       		.uleb128 0x5
 13333 3ab7 03       		.byte	0x3
 13334 3ab8 38010000 		.4byte	.LC26
 13335 3abc 00       		.byte	0
 13336 3abd 00       		.byte	0
 13337 3abe 45       		.uleb128 0x45
 13338 3abf 13030000 		.4byte	.LASF81
 13339 3ac3 01       		.byte	0x1
 13340 3ac4 2102     		.2byte	0x221
 13341 3ac6 00000000 		.4byte	.LFB20
 13342 3aca 24010000 		.4byte	.LFE20-.LFB20
 13343 3ace 01       		.uleb128 0x1
 13344 3acf 9C       		.byte	0x9c
 13345 3ad0 E43E0000 		.4byte	0x3ee4
 13346 3ad4 40       		.uleb128 0x40
 13347 3ad5 9F030000 		.4byte	.LASF82
 13348 3ad9 01       		.byte	0x1
 13349 3ada 2C02     		.2byte	0x22c
 13350 3adc E43E0000 		.4byte	0x3ee4
 13351 3ae0 02       		.uleb128 0x2
 13352 3ae1 91       		.byte	0x91
 13353 3ae2 6C       		.sleb128 -20
 13354 3ae3 44       		.uleb128 0x44
 13355 3ae4 8B030000 		.4byte	.LASF47
 13356 3ae8 01       		.byte	0x1
 13357 3ae9 4F01     		.2byte	0x14f
 13358 3aeb 89000000 		.4byte	0x89
 13359 3aef F53A0000 		.4byte	0x3af5
 13360 3af3 14       		.uleb128 0x14
 13361 3af4 00       		.byte	0
 13362 3af5 26       		.uleb128 0x26
 13363 3af6 AE020000 		.4byte	0x2ae
 13364 3afa 02000000 		.4byte	.LBB771
 13365 3afe 68050000 		.4byte	.Ldebug_ranges0+0x568
 13366 3b02 01       		.byte	0x1
 13367 3b03 2502     		.2byte	0x225
 13368 3b05 7B3C0000 		.4byte	0x3c7b
 13369 3b09 18       		.uleb128 0x18
 13370 3b0a BA020000 		.4byte	0x2ba
 13371 3b0e E6240000 		.4byte	.LLST451
 13372 3b12 28       		.uleb128 0x28
 13373 3b13 4C010000 		.4byte	0x14c
 13374 3b17 02000000 		.4byte	.LBB772
 13375 3b1b 68050000 		.4byte	.Ldebug_ranges0+0x568
 13376 3b1f 01       		.byte	0x1
 13377 3b20 9B       		.byte	0x9b
ARM GAS  C:\Users\legoc\AppData\Local\Temp\ccMAvaOS.s 			page 258


 13378 3b21 18       		.uleb128 0x18
 13379 3b22 7C010000 		.4byte	0x17c
 13380 3b26 E6240000 		.4byte	.LLST451
 13381 3b2a 18       		.uleb128 0x18
 13382 3b2b 73010000 		.4byte	0x173
 13383 3b2f FA240000 		.4byte	.LLST453
 13384 3b33 18       		.uleb128 0x18
 13385 3b34 6A010000 		.4byte	0x16a
 13386 3b38 0F250000 		.4byte	.LLST454
 13387 3b3c 18       		.uleb128 0x18
 13388 3b3d 61010000 		.4byte	0x161
 13389 3b41 E6240000 		.4byte	.LLST451
 13390 3b45 18       		.uleb128 0x18
 13391 3b46 58010000 		.4byte	0x158
 13392 3b4a E6240000 		.4byte	.LLST451
 13393 3b4e 28       		.uleb128 0x28
 13394 3b4f FC000000 		.4byte	0xfc
 13395 3b53 02000000 		.4byte	.LBB773
 13396 3b57 68050000 		.4byte	.Ldebug_ranges0+0x568
 13397 3b5b 01       		.byte	0x1
 13398 3b5c 95       		.byte	0x95
 13399 3b5d 18       		.uleb128 0x18
 13400 3b5e 2C010000 		.4byte	0x12c
 13401 3b62 E6240000 		.4byte	.LLST451
 13402 3b66 18       		.uleb128 0x18
 13403 3b67 23010000 		.4byte	0x123
 13404 3b6b 0F250000 		.4byte	.LLST454
 13405 3b6f 18       		.uleb128 0x18
 13406 3b70 1A010000 		.4byte	0x11a
 13407 3b74 FA240000 		.4byte	.LLST453
 13408 3b78 18       		.uleb128 0x18
 13409 3b79 11010000 		.4byte	0x111
 13410 3b7d E6240000 		.4byte	.LLST451
 13411 3b81 18       		.uleb128 0x18
 13412 3b82 08010000 		.4byte	0x108
 13413 3b86 E6240000 		.4byte	.LLST451
 13414 3b8a 29       		.uleb128 0x29
 13415 3b8b 68050000 		.4byte	.Ldebug_ranges0+0x568
 13416 3b8f 2A       		.uleb128 0x2a
 13417 3b90 37010000 		.4byte	0x137
 13418 3b94 2A       		.uleb128 0x2a
 13419 3b95 41010000 		.4byte	0x141
 13420 3b99 29       		.uleb128 0x29
 13421 3b9a 68050000 		.4byte	.Ldebug_ranges0+0x568
 13422 3b9e 18       		.uleb128 0x18
 13423 3b9f 08010000 		.4byte	0x108
 13424 3ba3 25250000 		.4byte	.LLST462
 13425 3ba7 18       		.uleb128 0x18
 13426 3ba8 1A010000 		.4byte	0x11a
 13427 3bac FA240000 		.4byte	.LLST453
 13428 3bb0 18       		.uleb128 0x18
 13429 3bb1 2C010000 		.4byte	0x12c
 13430 3bb5 E6240000 		.4byte	.LLST451
 13431 3bb9 18       		.uleb128 0x18
 13432 3bba 23010000 		.4byte	0x123
 13433 3bbe 0F250000 		.4byte	.LLST454
 13434 3bc2 18       		.uleb128 0x18
ARM GAS  C:\Users\legoc\AppData\Local\Temp\ccMAvaOS.s 			page 259


 13435 3bc3 11010000 		.4byte	0x111
 13436 3bc7 46250000 		.4byte	.LLST466
 13437 3bcb 29       		.uleb128 0x29
 13438 3bcc 68050000 		.4byte	.Ldebug_ranges0+0x568
 13439 3bd0 22       		.uleb128 0x22
 13440 3bd1 37010000 		.4byte	0x137
 13441 3bd5 68250000 		.4byte	.LLST467
 13442 3bd9 22       		.uleb128 0x22
 13443 3bda 41010000 		.4byte	0x141
 13444 3bde 68250000 		.4byte	.LLST467
 13445 3be2 19       		.uleb128 0x19
 13446 3be3 18000000 		.4byte	.LVL557
 13447 3be7 11050000 		.4byte	0x511
 13448 3beb 073C0000 		.4byte	0x3c07
 13449 3bef 1A       		.uleb128 0x1a
 13450 3bf0 01       		.uleb128 0x1
 13451 3bf1 50       		.byte	0x50
 13452 3bf2 01       		.uleb128 0x1
 13453 3bf3 30       		.byte	0x30
 13454 3bf4 1A       		.uleb128 0x1a
 13455 3bf5 01       		.uleb128 0x1
 13456 3bf6 51       		.byte	0x51
 13457 3bf7 01       		.uleb128 0x1
 13458 3bf8 30       		.byte	0x30
 13459 3bf9 1A       		.uleb128 0x1a
 13460 3bfa 01       		.uleb128 0x1
 13461 3bfb 52       		.byte	0x52
 13462 3bfc 02       		.uleb128 0x2
 13463 3bfd 08       		.byte	0x8
 13464 3bfe F0       		.byte	0xf0
 13465 3bff 1A       		.uleb128 0x1a
 13466 3c00 01       		.uleb128 0x1
 13467 3c01 53       		.byte	0x53
 13468 3c02 03       		.uleb128 0x3
 13469 3c03 0A       		.byte	0xa
 13470 3c04 4001     		.2byte	0x140
 13471 3c06 00       		.byte	0
 13472 3c07 19       		.uleb128 0x19
 13473 3c08 1E000000 		.4byte	.LVL558
 13474 3c0c CE4A0000 		.4byte	0x4ace
 13475 3c10 1A3C0000 		.4byte	0x3c1a
 13476 3c14 1A       		.uleb128 0x1a
 13477 3c15 01       		.uleb128 0x1
 13478 3c16 50       		.byte	0x50
 13479 3c17 01       		.uleb128 0x1
 13480 3c18 31       		.byte	0x31
 13481 3c19 00       		.byte	0
 13482 3c1a 19       		.uleb128 0x19
 13483 3c1b 24000000 		.4byte	.LVL559
 13484 3c1f EF4A0000 		.4byte	0x4aef
 13485 3c23 2D3C0000 		.4byte	0x3c2d
 13486 3c27 1A       		.uleb128 0x1a
 13487 3c28 01       		.uleb128 0x1
 13488 3c29 50       		.byte	0x50
 13489 3c2a 01       		.uleb128 0x1
 13490 3c2b 30       		.byte	0x30
 13491 3c2c 00       		.byte	0
ARM GAS  C:\Users\legoc\AppData\Local\Temp\ccMAvaOS.s 			page 260


 13492 3c2d 19       		.uleb128 0x19
 13493 3c2e 30000000 		.4byte	.LVL562
 13494 3c32 D94A0000 		.4byte	0x4ad9
 13495 3c36 403C0000 		.4byte	0x3c40
 13496 3c3a 1A       		.uleb128 0x1a
 13497 3c3b 01       		.uleb128 0x1
 13498 3c3c 50       		.byte	0x50
 13499 3c3d 01       		.uleb128 0x1
 13500 3c3e 30       		.byte	0x30
 13501 3c3f 00       		.byte	0
 13502 3c40 1B       		.uleb128 0x1b
 13503 3c41 34000000 		.4byte	.LVL563
 13504 3c45 E44A0000 		.4byte	0x4ae4
 13505 3c49 19       		.uleb128 0x19
 13506 3c4a 3E000000 		.4byte	.LVL564
 13507 3c4e D94A0000 		.4byte	0x4ad9
 13508 3c52 5C3C0000 		.4byte	0x3c5c
 13509 3c56 1A       		.uleb128 0x1a
 13510 3c57 01       		.uleb128 0x1
 13511 3c58 50       		.byte	0x50
 13512 3c59 01       		.uleb128 0x1
 13513 3c5a 30       		.byte	0x30
 13514 3c5b 00       		.byte	0
 13515 3c5c 1B       		.uleb128 0x1b
 13516 3c5d 42000000 		.4byte	.LVL565
 13517 3c61 E44A0000 		.4byte	0x4ae4
 13518 3c65 2C       		.uleb128 0x2c
 13519 3c66 5C000000 		.4byte	.LVL566
 13520 3c6a EF4A0000 		.4byte	0x4aef
 13521 3c6e 1A       		.uleb128 0x1a
 13522 3c6f 01       		.uleb128 0x1
 13523 3c70 50       		.byte	0x50
 13524 3c71 02       		.uleb128 0x2
 13525 3c72 74       		.byte	0x74
 13526 3c73 00       		.sleb128 0
 13527 3c74 00       		.byte	0
 13528 3c75 00       		.byte	0
 13529 3c76 00       		.byte	0
 13530 3c77 00       		.byte	0
 13531 3c78 00       		.byte	0
 13532 3c79 00       		.byte	0
 13533 3c7a 00       		.byte	0
 13534 3c7b 26       		.uleb128 0x26
 13535 3c7c 4C010000 		.4byte	0x14c
 13536 3c80 BA000000 		.4byte	.LBB806
 13537 3c84 A0050000 		.4byte	.Ldebug_ranges0+0x5a0
 13538 3c88 01       		.byte	0x1
 13539 3c89 3302     		.2byte	0x233
 13540 3c8b E33D0000 		.4byte	0x3de3
 13541 3c8f 18       		.uleb128 0x18
 13542 3c90 7C010000 		.4byte	0x17c
 13543 3c94 7C250000 		.4byte	.LLST469
 13544 3c98 18       		.uleb128 0x18
 13545 3c99 73010000 		.4byte	0x173
 13546 3c9d 90250000 		.4byte	.LLST470
 13547 3ca1 18       		.uleb128 0x18
 13548 3ca2 6A010000 		.4byte	0x16a
ARM GAS  C:\Users\legoc\AppData\Local\Temp\ccMAvaOS.s 			page 261


 13549 3ca6 A5250000 		.4byte	.LLST471
 13550 3caa 18       		.uleb128 0x18
 13551 3cab 61010000 		.4byte	0x161
 13552 3caf 7C250000 		.4byte	.LLST469
 13553 3cb3 18       		.uleb128 0x18
 13554 3cb4 58010000 		.4byte	0x158
 13555 3cb8 B9250000 		.4byte	.LLST473
 13556 3cbc 28       		.uleb128 0x28
 13557 3cbd FC000000 		.4byte	0xfc
 13558 3cc1 BA000000 		.4byte	.LBB807
 13559 3cc5 A0050000 		.4byte	.Ldebug_ranges0+0x5a0
 13560 3cc9 01       		.byte	0x1
 13561 3cca 95       		.byte	0x95
 13562 3ccb 18       		.uleb128 0x18
 13563 3ccc 2C010000 		.4byte	0x12c
 13564 3cd0 7C250000 		.4byte	.LLST469
 13565 3cd4 18       		.uleb128 0x18
 13566 3cd5 23010000 		.4byte	0x123
 13567 3cd9 A5250000 		.4byte	.LLST471
 13568 3cdd 18       		.uleb128 0x18
 13569 3cde 1A010000 		.4byte	0x11a
 13570 3ce2 90250000 		.4byte	.LLST470
 13571 3ce6 18       		.uleb128 0x18
 13572 3ce7 11010000 		.4byte	0x111
 13573 3ceb CE250000 		.4byte	.LLST477
 13574 3cef 18       		.uleb128 0x18
 13575 3cf0 08010000 		.4byte	0x108
 13576 3cf4 7C250000 		.4byte	.LLST469
 13577 3cf8 29       		.uleb128 0x29
 13578 3cf9 A0050000 		.4byte	.Ldebug_ranges0+0x5a0
 13579 3cfd 2A       		.uleb128 0x2a
 13580 3cfe 37010000 		.4byte	0x137
 13581 3d02 2A       		.uleb128 0x2a
 13582 3d03 41010000 		.4byte	0x141
 13583 3d07 29       		.uleb128 0x29
 13584 3d08 A0050000 		.4byte	.Ldebug_ranges0+0x5a0
 13585 3d0c 18       		.uleb128 0x18
 13586 3d0d 08010000 		.4byte	0x108
 13587 3d11 E3250000 		.4byte	.LLST479
 13588 3d15 18       		.uleb128 0x18
 13589 3d16 1A010000 		.4byte	0x11a
 13590 3d1a 90250000 		.4byte	.LLST470
 13591 3d1e 18       		.uleb128 0x18
 13592 3d1f 2C010000 		.4byte	0x12c
 13593 3d23 7C250000 		.4byte	.LLST469
 13594 3d27 18       		.uleb128 0x18
 13595 3d28 23010000 		.4byte	0x123
 13596 3d2c A5250000 		.4byte	.LLST471
 13597 3d30 18       		.uleb128 0x18
 13598 3d31 11010000 		.4byte	0x111
 13599 3d35 04260000 		.4byte	.LLST483
 13600 3d39 29       		.uleb128 0x29
 13601 3d3a A0050000 		.4byte	.Ldebug_ranges0+0x5a0
 13602 3d3e 22       		.uleb128 0x22
 13603 3d3f 37010000 		.4byte	0x137
 13604 3d43 25260000 		.4byte	.LLST484
 13605 3d47 22       		.uleb128 0x22
ARM GAS  C:\Users\legoc\AppData\Local\Temp\ccMAvaOS.s 			page 262


 13606 3d48 41010000 		.4byte	0x141
 13607 3d4c 25260000 		.4byte	.LLST484
 13608 3d50 19       		.uleb128 0x19
 13609 3d51 C6000000 		.4byte	.LVL573
 13610 3d55 11050000 		.4byte	0x511
 13611 3d59 753D0000 		.4byte	0x3d75
 13612 3d5d 1A       		.uleb128 0x1a
 13613 3d5e 01       		.uleb128 0x1
 13614 3d5f 50       		.byte	0x50
 13615 3d60 02       		.uleb128 0x2
 13616 3d61 76       		.byte	0x76
 13617 3d62 00       		.sleb128 0
 13618 3d63 1A       		.uleb128 0x1a
 13619 3d64 01       		.uleb128 0x1
 13620 3d65 51       		.byte	0x51
 13621 3d66 02       		.uleb128 0x2
 13622 3d67 08       		.byte	0x8
 13623 3d68 4F       		.byte	0x4f
 13624 3d69 1A       		.uleb128 0x1a
 13625 3d6a 01       		.uleb128 0x1
 13626 3d6b 52       		.byte	0x52
 13627 3d6c 02       		.uleb128 0x2
 13628 3d6d 08       		.byte	0x8
 13629 3d6e F0       		.byte	0xf0
 13630 3d6f 1A       		.uleb128 0x1a
 13631 3d70 01       		.uleb128 0x1
 13632 3d71 53       		.byte	0x53
 13633 3d72 01       		.uleb128 0x1
 13634 3d73 32       		.byte	0x32
 13635 3d74 00       		.byte	0
 13636 3d75 19       		.uleb128 0x19
 13637 3d76 CC000000 		.4byte	.LVL574
 13638 3d7a CE4A0000 		.4byte	0x4ace
 13639 3d7e 893D0000 		.4byte	0x3d89
 13640 3d82 1A       		.uleb128 0x1a
 13641 3d83 01       		.uleb128 0x1
 13642 3d84 50       		.byte	0x50
 13643 3d85 02       		.uleb128 0x2
 13644 3d86 74       		.byte	0x74
 13645 3d87 00       		.sleb128 0
 13646 3d88 00       		.byte	0
 13647 3d89 19       		.uleb128 0x19
 13648 3d8a D2000000 		.4byte	.LVL575
 13649 3d8e EF4A0000 		.4byte	0x4aef
 13650 3d92 9D3D0000 		.4byte	0x3d9d
 13651 3d96 1A       		.uleb128 0x1a
 13652 3d97 01       		.uleb128 0x1
 13653 3d98 50       		.byte	0x50
 13654 3d99 02       		.uleb128 0x2
 13655 3d9a 76       		.byte	0x76
 13656 3d9b 00       		.sleb128 0
 13657 3d9c 00       		.byte	0
 13658 3d9d 19       		.uleb128 0x19
 13659 3d9e DC000000 		.4byte	.LVL578
 13660 3da2 D94A0000 		.4byte	0x4ad9
 13661 3da6 B03D0000 		.4byte	0x3db0
 13662 3daa 1A       		.uleb128 0x1a
ARM GAS  C:\Users\legoc\AppData\Local\Temp\ccMAvaOS.s 			page 263


 13663 3dab 01       		.uleb128 0x1
 13664 3dac 50       		.byte	0x50
 13665 3dad 01       		.uleb128 0x1
 13666 3dae 30       		.byte	0x30
 13667 3daf 00       		.byte	0
 13668 3db0 1B       		.uleb128 0x1b
 13669 3db1 E0000000 		.4byte	.LVL579
 13670 3db5 E44A0000 		.4byte	0x4ae4
 13671 3db9 19       		.uleb128 0x19
 13672 3dba EA000000 		.4byte	.LVL580
 13673 3dbe D94A0000 		.4byte	0x4ad9
 13674 3dc2 CC3D0000 		.4byte	0x3dcc
 13675 3dc6 1A       		.uleb128 0x1a
 13676 3dc7 01       		.uleb128 0x1
 13677 3dc8 50       		.byte	0x50
 13678 3dc9 01       		.uleb128 0x1
 13679 3dca 30       		.byte	0x30
 13680 3dcb 00       		.byte	0
 13681 3dcc 1B       		.uleb128 0x1b
 13682 3dcd EE000000 		.4byte	.LVL581
 13683 3dd1 E44A0000 		.4byte	0x4ae4
 13684 3dd5 1B       		.uleb128 0x1b
 13685 3dd6 06010000 		.4byte	.LVL582
 13686 3dda EF4A0000 		.4byte	0x4aef
 13687 3dde 00       		.byte	0
 13688 3ddf 00       		.byte	0
 13689 3de0 00       		.byte	0
 13690 3de1 00       		.byte	0
 13691 3de2 00       		.byte	0
 13692 3de3 19       		.uleb128 0x19
 13693 3de4 6C000000 		.4byte	.LVL567
 13694 3de8 C0070000 		.4byte	0x7c0
 13695 3dec 123E0000 		.4byte	0x3e12
 13696 3df0 1A       		.uleb128 0x1a
 13697 3df1 01       		.uleb128 0x1
 13698 3df2 50       		.byte	0x50
 13699 3df3 02       		.uleb128 0x2
 13700 3df4 76       		.byte	0x76
 13701 3df5 00       		.sleb128 0
 13702 3df6 1A       		.uleb128 0x1a
 13703 3df7 01       		.uleb128 0x1
 13704 3df8 51       		.byte	0x51
 13705 3df9 02       		.uleb128 0x2
 13706 3dfa 08       		.byte	0x8
 13707 3dfb DB       		.byte	0xdb
 13708 3dfc 1A       		.uleb128 0x1a
 13709 3dfd 01       		.uleb128 0x1
 13710 3dfe 52       		.byte	0x52
 13711 3dff 02       		.uleb128 0x2
 13712 3e00 08       		.byte	0x8
 13713 3e01 EF       		.byte	0xef
 13714 3e02 1A       		.uleb128 0x1a
 13715 3e03 01       		.uleb128 0x1
 13716 3e04 53       		.byte	0x53
 13717 3e05 01       		.uleb128 0x1
 13718 3e06 44       		.byte	0x44
 13719 3e07 1A       		.uleb128 0x1a
ARM GAS  C:\Users\legoc\AppData\Local\Temp\ccMAvaOS.s 			page 264


 13720 3e08 02       		.uleb128 0x2
 13721 3e09 7D       		.byte	0x7d
 13722 3e0a 00       		.sleb128 0
 13723 3e0b 05       		.uleb128 0x5
 13724 3e0c 03       		.byte	0x3
 13725 3e0d 5C010000 		.4byte	.LC28
 13726 3e11 00       		.byte	0
 13727 3e12 19       		.uleb128 0x19
 13728 3e13 7C000000 		.4byte	.LVL568
 13729 3e17 C0070000 		.4byte	0x7c0
 13730 3e1b 413E0000 		.4byte	0x3e41
 13731 3e1f 1A       		.uleb128 0x1a
 13732 3e20 01       		.uleb128 0x1
 13733 3e21 50       		.byte	0x50
 13734 3e22 02       		.uleb128 0x2
 13735 3e23 08       		.byte	0x8
 13736 3e24 82       		.byte	0x82
 13737 3e25 1A       		.uleb128 0x1a
 13738 3e26 01       		.uleb128 0x1
 13739 3e27 51       		.byte	0x51
 13740 3e28 01       		.uleb128 0x1
 13741 3e29 4E       		.byte	0x4e
 13742 3e2a 1A       		.uleb128 0x1a
 13743 3e2b 01       		.uleb128 0x1
 13744 3e2c 52       		.byte	0x52
 13745 3e2d 02       		.uleb128 0x2
 13746 3e2e 08       		.byte	0x8
 13747 3e2f 46       		.byte	0x46
 13748 3e30 1A       		.uleb128 0x1a
 13749 3e31 01       		.uleb128 0x1
 13750 3e32 53       		.byte	0x53
 13751 3e33 02       		.uleb128 0x2
 13752 3e34 08       		.byte	0x8
 13753 3e35 46       		.byte	0x46
 13754 3e36 1A       		.uleb128 0x1a
 13755 3e37 02       		.uleb128 0x2
 13756 3e38 7D       		.byte	0x7d
 13757 3e39 00       		.sleb128 0
 13758 3e3a 05       		.uleb128 0x5
 13759 3e3b 03       		.byte	0x3
 13760 3e3c 78010000 		.4byte	.LC29
 13761 3e40 00       		.byte	0
 13762 3e41 19       		.uleb128 0x19
 13763 3e42 8C000000 		.4byte	.LVL569
 13764 3e46 C0070000 		.4byte	0x7c0
 13765 3e4a 713E0000 		.4byte	0x3e71
 13766 3e4e 1A       		.uleb128 0x1a
 13767 3e4f 01       		.uleb128 0x1
 13768 3e50 50       		.byte	0x50
 13769 3e51 02       		.uleb128 0x2
 13770 3e52 08       		.byte	0x8
 13771 3e53 82       		.byte	0x82
 13772 3e54 1A       		.uleb128 0x1a
 13773 3e55 01       		.uleb128 0x1
 13774 3e56 51       		.byte	0x51
 13775 3e57 02       		.uleb128 0x2
 13776 3e58 08       		.byte	0x8
ARM GAS  C:\Users\legoc\AppData\Local\Temp\ccMAvaOS.s 			page 265


 13777 3e59 78       		.byte	0x78
 13778 3e5a 1A       		.uleb128 0x1a
 13779 3e5b 01       		.uleb128 0x1
 13780 3e5c 52       		.byte	0x52
 13781 3e5d 02       		.uleb128 0x2
 13782 3e5e 08       		.byte	0x8
 13783 3e5f 46       		.byte	0x46
 13784 3e60 1A       		.uleb128 0x1a
 13785 3e61 01       		.uleb128 0x1
 13786 3e62 53       		.byte	0x53
 13787 3e63 02       		.uleb128 0x2
 13788 3e64 08       		.byte	0x8
 13789 3e65 46       		.byte	0x46
 13790 3e66 1A       		.uleb128 0x1a
 13791 3e67 02       		.uleb128 0x2
 13792 3e68 7D       		.byte	0x7d
 13793 3e69 00       		.sleb128 0
 13794 3e6a 05       		.uleb128 0x5
 13795 3e6b 03       		.byte	0x3
 13796 3e6c 84010000 		.4byte	.LC30
 13797 3e70 00       		.byte	0
 13798 3e71 19       		.uleb128 0x19
 13799 3e72 98000000 		.4byte	.LVL570
 13800 3e76 254B0000 		.4byte	0x4b25
 13801 3e7a 8A3E0000 		.4byte	0x3e8a
 13802 3e7e 1A       		.uleb128 0x1a
 13803 3e7f 01       		.uleb128 0x1
 13804 3e80 51       		.byte	0x51
 13805 3e81 02       		.uleb128 0x2
 13806 3e82 91       		.byte	0x91
 13807 3e83 6C       		.sleb128 -20
 13808 3e84 1A       		.uleb128 0x1a
 13809 3e85 01       		.uleb128 0x1
 13810 3e86 52       		.byte	0x52
 13811 3e87 01       		.uleb128 0x1
 13812 3e88 3A       		.byte	0x3a
 13813 3e89 00       		.byte	0
 13814 3e8a 19       		.uleb128 0x19
 13815 3e8b AA000000 		.4byte	.LVL571
 13816 3e8f FA4A0000 		.4byte	0x4afa
 13817 3e93 B73E0000 		.4byte	0x3eb7
 13818 3e97 1A       		.uleb128 0x1a
 13819 3e98 01       		.uleb128 0x1
 13820 3e99 50       		.byte	0x50
 13821 3e9a 02       		.uleb128 0x2
 13822 3e9b 08       		.byte	0x8
 13823 3e9c 32       		.byte	0x32
 13824 3e9d 1A       		.uleb128 0x1a
 13825 3e9e 01       		.uleb128 0x1
 13826 3e9f 51       		.byte	0x51
 13827 3ea0 02       		.uleb128 0x2
 13828 3ea1 08       		.byte	0x8
 13829 3ea2 69       		.byte	0x69
 13830 3ea3 1A       		.uleb128 0x1a
 13831 3ea4 01       		.uleb128 0x1
 13832 3ea5 52       		.byte	0x52
 13833 3ea6 03       		.uleb128 0x3
ARM GAS  C:\Users\legoc\AppData\Local\Temp\ccMAvaOS.s 			page 266


 13834 3ea7 0A       		.byte	0xa
 13835 3ea8 FFFF     		.2byte	0xffff
 13836 3eaa 1A       		.uleb128 0x1a
 13837 3eab 01       		.uleb128 0x1
 13838 3eac 53       		.byte	0x53
 13839 3ead 02       		.uleb128 0x2
 13840 3eae 91       		.byte	0x91
 13841 3eaf 6C       		.sleb128 -20
 13842 3eb0 1A       		.uleb128 0x1a
 13843 3eb1 02       		.uleb128 0x2
 13844 3eb2 7D       		.byte	0x7d
 13845 3eb3 00       		.sleb128 0
 13846 3eb4 01       		.uleb128 0x1
 13847 3eb5 33       		.byte	0x33
 13848 3eb6 00       		.byte	0
 13849 3eb7 2C       		.uleb128 0x2c
 13850 3eb8 BA000000 		.4byte	.LVL572
 13851 3ebc C0070000 		.4byte	0x7c0
 13852 3ec0 1A       		.uleb128 0x1a
 13853 3ec1 01       		.uleb128 0x1
 13854 3ec2 50       		.byte	0x50
 13855 3ec3 02       		.uleb128 0x2
 13856 3ec4 08       		.byte	0x8
 13857 3ec5 F1       		.byte	0xf1
 13858 3ec6 1A       		.uleb128 0x1a
 13859 3ec7 01       		.uleb128 0x1
 13860 3ec8 51       		.byte	0x51
 13861 3ec9 02       		.uleb128 0x2
 13862 3eca 76       		.byte	0x76
 13863 3ecb 00       		.sleb128 0
 13864 3ecc 1A       		.uleb128 0x1a
 13865 3ecd 01       		.uleb128 0x1
 13866 3ece 52       		.byte	0x52
 13867 3ecf 02       		.uleb128 0x2
 13868 3ed0 08       		.byte	0x8
 13869 3ed1 4F       		.byte	0x4f
 13870 3ed2 1A       		.uleb128 0x1a
 13871 3ed3 01       		.uleb128 0x1
 13872 3ed4 53       		.byte	0x53
 13873 3ed5 02       		.uleb128 0x2
 13874 3ed6 08       		.byte	0x8
 13875 3ed7 F0       		.byte	0xf0
 13876 3ed8 1A       		.uleb128 0x1a
 13877 3ed9 02       		.uleb128 0x2
 13878 3eda 7D       		.byte	0x7d
 13879 3edb 00       		.sleb128 0
 13880 3edc 05       		.uleb128 0x5
 13881 3edd 03       		.byte	0x3
 13882 3ede D8000000 		.4byte	.LC16
 13883 3ee2 00       		.byte	0
 13884 3ee3 00       		.byte	0
 13885 3ee4 06       		.uleb128 0x6
 13886 3ee5 D1000000 		.4byte	0xd1
 13887 3ee9 F43E0000 		.4byte	0x3ef4
 13888 3eed 07       		.uleb128 0x7
 13889 3eee DF000000 		.4byte	0xdf
 13890 3ef2 01       		.byte	0x1
ARM GAS  C:\Users\legoc\AppData\Local\Temp\ccMAvaOS.s 			page 267


 13891 3ef3 00       		.byte	0
 13892 3ef4 45       		.uleb128 0x45
 13893 3ef5 F7030000 		.4byte	.LASF83
 13894 3ef9 01       		.byte	0x1
 13895 3efa 3602     		.2byte	0x236
 13896 3efc 00000000 		.4byte	.LFB21
 13897 3f00 DC000000 		.4byte	.LFE21-.LFB21
 13898 3f04 01       		.uleb128 0x1
 13899 3f05 9C       		.byte	0x9c
 13900 3f06 27420000 		.4byte	0x4227
 13901 3f0a 26       		.uleb128 0x26
 13902 3f0b AE020000 		.4byte	0x2ae
 13903 3f0f 02000000 		.4byte	.LBB828
 13904 3f13 B8050000 		.4byte	.Ldebug_ranges0+0x5b8
 13905 3f17 01       		.byte	0x1
 13906 3f18 3A02     		.2byte	0x23a
 13907 3f1a 90400000 		.4byte	0x4090
 13908 3f1e 18       		.uleb128 0x18
 13909 3f1f BA020000 		.4byte	0x2ba
 13910 3f23 39260000 		.4byte	.LLST486
 13911 3f27 28       		.uleb128 0x28
 13912 3f28 4C010000 		.4byte	0x14c
 13913 3f2c 02000000 		.4byte	.LBB829
 13914 3f30 B8050000 		.4byte	.Ldebug_ranges0+0x5b8
 13915 3f34 01       		.byte	0x1
 13916 3f35 9B       		.byte	0x9b
 13917 3f36 18       		.uleb128 0x18
 13918 3f37 7C010000 		.4byte	0x17c
 13919 3f3b 39260000 		.4byte	.LLST486
 13920 3f3f 18       		.uleb128 0x18
 13921 3f40 73010000 		.4byte	0x173
 13922 3f44 4D260000 		.4byte	.LLST488
 13923 3f48 18       		.uleb128 0x18
 13924 3f49 6A010000 		.4byte	0x16a
 13925 3f4d 62260000 		.4byte	.LLST489
 13926 3f51 18       		.uleb128 0x18
 13927 3f52 61010000 		.4byte	0x161
 13928 3f56 39260000 		.4byte	.LLST486
 13929 3f5a 18       		.uleb128 0x18
 13930 3f5b 58010000 		.4byte	0x158
 13931 3f5f 39260000 		.4byte	.LLST486
 13932 3f63 28       		.uleb128 0x28
 13933 3f64 FC000000 		.4byte	0xfc
 13934 3f68 02000000 		.4byte	.LBB830
 13935 3f6c B8050000 		.4byte	.Ldebug_ranges0+0x5b8
 13936 3f70 01       		.byte	0x1
 13937 3f71 95       		.byte	0x95
 13938 3f72 18       		.uleb128 0x18
 13939 3f73 2C010000 		.4byte	0x12c
 13940 3f77 39260000 		.4byte	.LLST486
 13941 3f7b 18       		.uleb128 0x18
 13942 3f7c 23010000 		.4byte	0x123
 13943 3f80 62260000 		.4byte	.LLST489
 13944 3f84 18       		.uleb128 0x18
 13945 3f85 1A010000 		.4byte	0x11a
 13946 3f89 4D260000 		.4byte	.LLST488
 13947 3f8d 18       		.uleb128 0x18
ARM GAS  C:\Users\legoc\AppData\Local\Temp\ccMAvaOS.s 			page 268


 13948 3f8e 11010000 		.4byte	0x111
 13949 3f92 39260000 		.4byte	.LLST486
 13950 3f96 18       		.uleb128 0x18
 13951 3f97 08010000 		.4byte	0x108
 13952 3f9b 39260000 		.4byte	.LLST486
 13953 3f9f 29       		.uleb128 0x29
 13954 3fa0 B8050000 		.4byte	.Ldebug_ranges0+0x5b8
 13955 3fa4 2A       		.uleb128 0x2a
 13956 3fa5 37010000 		.4byte	0x137
 13957 3fa9 2A       		.uleb128 0x2a
 13958 3faa 41010000 		.4byte	0x141
 13959 3fae 29       		.uleb128 0x29
 13960 3faf B8050000 		.4byte	.Ldebug_ranges0+0x5b8
 13961 3fb3 18       		.uleb128 0x18
 13962 3fb4 08010000 		.4byte	0x108
 13963 3fb8 78260000 		.4byte	.LLST497
 13964 3fbc 18       		.uleb128 0x18
 13965 3fbd 1A010000 		.4byte	0x11a
 13966 3fc1 4D260000 		.4byte	.LLST488
 13967 3fc5 18       		.uleb128 0x18
 13968 3fc6 2C010000 		.4byte	0x12c
 13969 3fca 39260000 		.4byte	.LLST486
 13970 3fce 18       		.uleb128 0x18
 13971 3fcf 23010000 		.4byte	0x123
 13972 3fd3 62260000 		.4byte	.LLST489
 13973 3fd7 18       		.uleb128 0x18
 13974 3fd8 11010000 		.4byte	0x111
 13975 3fdc 99260000 		.4byte	.LLST501
 13976 3fe0 29       		.uleb128 0x29
 13977 3fe1 B8050000 		.4byte	.Ldebug_ranges0+0x5b8
 13978 3fe5 22       		.uleb128 0x22
 13979 3fe6 37010000 		.4byte	0x137
 13980 3fea BB260000 		.4byte	.LLST502
 13981 3fee 22       		.uleb128 0x22
 13982 3fef 41010000 		.4byte	0x141
 13983 3ff3 BB260000 		.4byte	.LLST502
 13984 3ff7 19       		.uleb128 0x19
 13985 3ff8 18000000 		.4byte	.LVL584
 13986 3ffc 11050000 		.4byte	0x511
 13987 4000 1C400000 		.4byte	0x401c
 13988 4004 1A       		.uleb128 0x1a
 13989 4005 01       		.uleb128 0x1
 13990 4006 50       		.byte	0x50
 13991 4007 01       		.uleb128 0x1
 13992 4008 30       		.byte	0x30
 13993 4009 1A       		.uleb128 0x1a
 13994 400a 01       		.uleb128 0x1
 13995 400b 51       		.byte	0x51
 13996 400c 01       		.uleb128 0x1
 13997 400d 30       		.byte	0x30
 13998 400e 1A       		.uleb128 0x1a
 13999 400f 01       		.uleb128 0x1
 14000 4010 52       		.byte	0x52
 14001 4011 02       		.uleb128 0x2
 14002 4012 08       		.byte	0x8
 14003 4013 F0       		.byte	0xf0
 14004 4014 1A       		.uleb128 0x1a
ARM GAS  C:\Users\legoc\AppData\Local\Temp\ccMAvaOS.s 			page 269


 14005 4015 01       		.uleb128 0x1
 14006 4016 53       		.byte	0x53
 14007 4017 03       		.uleb128 0x3
 14008 4018 0A       		.byte	0xa
 14009 4019 4001     		.2byte	0x140
 14010 401b 00       		.byte	0
 14011 401c 19       		.uleb128 0x19
 14012 401d 1E000000 		.4byte	.LVL585
 14013 4021 CE4A0000 		.4byte	0x4ace
 14014 4025 2F400000 		.4byte	0x402f
 14015 4029 1A       		.uleb128 0x1a
 14016 402a 01       		.uleb128 0x1
 14017 402b 50       		.byte	0x50
 14018 402c 01       		.uleb128 0x1
 14019 402d 31       		.byte	0x31
 14020 402e 00       		.byte	0
 14021 402f 19       		.uleb128 0x19
 14022 4030 24000000 		.4byte	.LVL586
 14023 4034 EF4A0000 		.4byte	0x4aef
 14024 4038 42400000 		.4byte	0x4042
 14025 403c 1A       		.uleb128 0x1a
 14026 403d 01       		.uleb128 0x1
 14027 403e 50       		.byte	0x50
 14028 403f 01       		.uleb128 0x1
 14029 4040 30       		.byte	0x30
 14030 4041 00       		.byte	0
 14031 4042 19       		.uleb128 0x19
 14032 4043 30000000 		.4byte	.LVL589
 14033 4047 D94A0000 		.4byte	0x4ad9
 14034 404b 55400000 		.4byte	0x4055
 14035 404f 1A       		.uleb128 0x1a
 14036 4050 01       		.uleb128 0x1
 14037 4051 50       		.byte	0x50
 14038 4052 01       		.uleb128 0x1
 14039 4053 30       		.byte	0x30
 14040 4054 00       		.byte	0
 14041 4055 1B       		.uleb128 0x1b
 14042 4056 34000000 		.4byte	.LVL590
 14043 405a E44A0000 		.4byte	0x4ae4
 14044 405e 19       		.uleb128 0x19
 14045 405f 3E000000 		.4byte	.LVL591
 14046 4063 D94A0000 		.4byte	0x4ad9
 14047 4067 71400000 		.4byte	0x4071
 14048 406b 1A       		.uleb128 0x1a
 14049 406c 01       		.uleb128 0x1
 14050 406d 50       		.byte	0x50
 14051 406e 01       		.uleb128 0x1
 14052 406f 30       		.byte	0x30
 14053 4070 00       		.byte	0
 14054 4071 1B       		.uleb128 0x1b
 14055 4072 42000000 		.4byte	.LVL592
 14056 4076 E44A0000 		.4byte	0x4ae4
 14057 407a 2C       		.uleb128 0x2c
 14058 407b 5C000000 		.4byte	.LVL593
 14059 407f EF4A0000 		.4byte	0x4aef
 14060 4083 1A       		.uleb128 0x1a
 14061 4084 01       		.uleb128 0x1
ARM GAS  C:\Users\legoc\AppData\Local\Temp\ccMAvaOS.s 			page 270


 14062 4085 50       		.byte	0x50
 14063 4086 02       		.uleb128 0x2
 14064 4087 74       		.byte	0x74
 14065 4088 00       		.sleb128 0
 14066 4089 00       		.byte	0
 14067 408a 00       		.byte	0
 14068 408b 00       		.byte	0
 14069 408c 00       		.byte	0
 14070 408d 00       		.byte	0
 14071 408e 00       		.byte	0
 14072 408f 00       		.byte	0
 14073 4090 26       		.uleb128 0x26
 14074 4091 4C010000 		.4byte	0x14c
 14075 4095 7C000000 		.4byte	.LBB863
 14076 4099 F0050000 		.4byte	.Ldebug_ranges0+0x5f0
 14077 409d 01       		.byte	0x1
 14078 409e 4002     		.2byte	0x240
 14079 40a0 CB410000 		.4byte	0x41cb
 14080 40a4 21       		.uleb128 0x21
 14081 40a5 7C010000 		.4byte	0x17c
 14082 40a9 00       		.byte	0
 14083 40aa 21       		.uleb128 0x21
 14084 40ab 73010000 		.4byte	0x173
 14085 40af F0       		.byte	0xf0
 14086 40b0 21       		.uleb128 0x21
 14087 40b1 6A010000 		.4byte	0x16a
 14088 40b5 02       		.byte	0x2
 14089 40b6 21       		.uleb128 0x21
 14090 40b7 61010000 		.4byte	0x161
 14091 40bb 00       		.byte	0
 14092 40bc 21       		.uleb128 0x21
 14093 40bd 58010000 		.4byte	0x158
 14094 40c1 EF       		.byte	0xef
 14095 40c2 28       		.uleb128 0x28
 14096 40c3 FC000000 		.4byte	0xfc
 14097 40c7 7C000000 		.4byte	.LBB864
 14098 40cb F0050000 		.4byte	.Ldebug_ranges0+0x5f0
 14099 40cf 01       		.byte	0x1
 14100 40d0 95       		.byte	0x95
 14101 40d1 21       		.uleb128 0x21
 14102 40d2 2C010000 		.4byte	0x12c
 14103 40d6 00       		.byte	0
 14104 40d7 21       		.uleb128 0x21
 14105 40d8 23010000 		.4byte	0x123
 14106 40dc 02       		.byte	0x2
 14107 40dd 21       		.uleb128 0x21
 14108 40de 1A010000 		.4byte	0x11a
 14109 40e2 F0       		.byte	0xf0
 14110 40e3 21       		.uleb128 0x21
 14111 40e4 11010000 		.4byte	0x111
 14112 40e8 4F       		.byte	0x4f
 14113 40e9 21       		.uleb128 0x21
 14114 40ea 08010000 		.4byte	0x108
 14115 40ee 00       		.byte	0
 14116 40ef 29       		.uleb128 0x29
 14117 40f0 F0050000 		.4byte	.Ldebug_ranges0+0x5f0
 14118 40f4 2A       		.uleb128 0x2a
ARM GAS  C:\Users\legoc\AppData\Local\Temp\ccMAvaOS.s 			page 271


 14119 40f5 37010000 		.4byte	0x137
 14120 40f9 2A       		.uleb128 0x2a
 14121 40fa 41010000 		.4byte	0x141
 14122 40fe 29       		.uleb128 0x29
 14123 40ff F0050000 		.4byte	.Ldebug_ranges0+0x5f0
 14124 4103 18       		.uleb128 0x18
 14125 4104 08010000 		.4byte	0x108
 14126 4108 CF260000 		.4byte	.LLST504
 14127 410c 21       		.uleb128 0x21
 14128 410d 1A010000 		.4byte	0x11a
 14129 4111 F0       		.byte	0xf0
 14130 4112 21       		.uleb128 0x21
 14131 4113 2C010000 		.4byte	0x12c
 14132 4117 00       		.byte	0
 14133 4118 21       		.uleb128 0x21
 14134 4119 23010000 		.4byte	0x123
 14135 411d 02       		.byte	0x2
 14136 411e 18       		.uleb128 0x18
 14137 411f 11010000 		.4byte	0x111
 14138 4123 F0260000 		.4byte	.LLST505
 14139 4127 29       		.uleb128 0x29
 14140 4128 F0050000 		.4byte	.Ldebug_ranges0+0x5f0
 14141 412c 46       		.uleb128 0x46
 14142 412d 37010000 		.4byte	0x137
 14143 4131 00       		.byte	0
 14144 4132 46       		.uleb128 0x46
 14145 4133 41010000 		.4byte	0x141
 14146 4137 00       		.byte	0
 14147 4138 19       		.uleb128 0x19
 14148 4139 88000000 		.4byte	.LVL596
 14149 413d 11050000 		.4byte	0x511
 14150 4141 5D410000 		.4byte	0x415d
 14151 4145 1A       		.uleb128 0x1a
 14152 4146 01       		.uleb128 0x1
 14153 4147 50       		.byte	0x50
 14154 4148 02       		.uleb128 0x2
 14155 4149 76       		.byte	0x76
 14156 414a 00       		.sleb128 0
 14157 414b 1A       		.uleb128 0x1a
 14158 414c 01       		.uleb128 0x1
 14159 414d 51       		.byte	0x51
 14160 414e 02       		.uleb128 0x2
 14161 414f 08       		.byte	0x8
 14162 4150 4F       		.byte	0x4f
 14163 4151 1A       		.uleb128 0x1a
 14164 4152 01       		.uleb128 0x1
 14165 4153 52       		.byte	0x52
 14166 4154 02       		.uleb128 0x2
 14167 4155 08       		.byte	0x8
 14168 4156 F0       		.byte	0xf0
 14169 4157 1A       		.uleb128 0x1a
 14170 4158 01       		.uleb128 0x1
 14171 4159 53       		.byte	0x53
 14172 415a 01       		.uleb128 0x1
 14173 415b 32       		.byte	0x32
 14174 415c 00       		.byte	0
 14175 415d 19       		.uleb128 0x19
ARM GAS  C:\Users\legoc\AppData\Local\Temp\ccMAvaOS.s 			page 272


 14176 415e 8E000000 		.4byte	.LVL597
 14177 4162 CE4A0000 		.4byte	0x4ace
 14178 4166 71410000 		.4byte	0x4171
 14179 416a 1A       		.uleb128 0x1a
 14180 416b 01       		.uleb128 0x1
 14181 416c 50       		.byte	0x50
 14182 416d 02       		.uleb128 0x2
 14183 416e 74       		.byte	0x74
 14184 416f 00       		.sleb128 0
 14185 4170 00       		.byte	0
 14186 4171 19       		.uleb128 0x19
 14187 4172 94000000 		.4byte	.LVL598
 14188 4176 EF4A0000 		.4byte	0x4aef
 14189 417a 85410000 		.4byte	0x4185
 14190 417e 1A       		.uleb128 0x1a
 14191 417f 01       		.uleb128 0x1
 14192 4180 50       		.byte	0x50
 14193 4181 02       		.uleb128 0x2
 14194 4182 76       		.byte	0x76
 14195 4183 00       		.sleb128 0
 14196 4184 00       		.byte	0
 14197 4185 19       		.uleb128 0x19
 14198 4186 9E000000 		.4byte	.LVL601
 14199 418a D94A0000 		.4byte	0x4ad9
 14200 418e 98410000 		.4byte	0x4198
 14201 4192 1A       		.uleb128 0x1a
 14202 4193 01       		.uleb128 0x1
 14203 4194 50       		.byte	0x50
 14204 4195 01       		.uleb128 0x1
 14205 4196 30       		.byte	0x30
 14206 4197 00       		.byte	0
 14207 4198 1B       		.uleb128 0x1b
 14208 4199 A2000000 		.4byte	.LVL602
 14209 419d E44A0000 		.4byte	0x4ae4
 14210 41a1 19       		.uleb128 0x19
 14211 41a2 AC000000 		.4byte	.LVL603
 14212 41a6 D94A0000 		.4byte	0x4ad9
 14213 41aa B4410000 		.4byte	0x41b4
 14214 41ae 1A       		.uleb128 0x1a
 14215 41af 01       		.uleb128 0x1
 14216 41b0 50       		.byte	0x50
 14217 41b1 01       		.uleb128 0x1
 14218 41b2 30       		.byte	0x30
 14219 41b3 00       		.byte	0
 14220 41b4 1B       		.uleb128 0x1b
 14221 41b5 B0000000 		.4byte	.LVL604
 14222 41b9 E44A0000 		.4byte	0x4ae4
 14223 41bd 33       		.uleb128 0x33
 14224 41be CE000000 		.4byte	.LVL605
 14225 41c2 EF4A0000 		.4byte	0x4aef
 14226 41c6 00       		.byte	0
 14227 41c7 00       		.byte	0
 14228 41c8 00       		.byte	0
 14229 41c9 00       		.byte	0
 14230 41ca 00       		.byte	0
 14231 41cb 19       		.uleb128 0x19
 14232 41cc 6C000000 		.4byte	.LVL594
ARM GAS  C:\Users\legoc\AppData\Local\Temp\ccMAvaOS.s 			page 273


 14233 41d0 C0070000 		.4byte	0x7c0
 14234 41d4 FA410000 		.4byte	0x41fa
 14235 41d8 1A       		.uleb128 0x1a
 14236 41d9 01       		.uleb128 0x1
 14237 41da 50       		.byte	0x50
 14238 41db 02       		.uleb128 0x2
 14239 41dc 76       		.byte	0x76
 14240 41dd 00       		.sleb128 0
 14241 41de 1A       		.uleb128 0x1a
 14242 41df 01       		.uleb128 0x1
 14243 41e0 51       		.byte	0x51
 14244 41e1 02       		.uleb128 0x2
 14245 41e2 08       		.byte	0x8
 14246 41e3 DB       		.byte	0xdb
 14247 41e4 1A       		.uleb128 0x1a
 14248 41e5 01       		.uleb128 0x1
 14249 41e6 52       		.byte	0x52
 14250 41e7 02       		.uleb128 0x2
 14251 41e8 08       		.byte	0x8
 14252 41e9 EF       		.byte	0xef
 14253 41ea 1A       		.uleb128 0x1a
 14254 41eb 01       		.uleb128 0x1
 14255 41ec 53       		.byte	0x53
 14256 41ed 01       		.uleb128 0x1
 14257 41ee 44       		.byte	0x44
 14258 41ef 1A       		.uleb128 0x1a
 14259 41f0 02       		.uleb128 0x2
 14260 41f1 7D       		.byte	0x7d
 14261 41f2 00       		.sleb128 0
 14262 41f3 05       		.uleb128 0x5
 14263 41f4 03       		.byte	0x3
 14264 41f5 90010000 		.4byte	.LC31
 14265 41f9 00       		.byte	0
 14266 41fa 2C       		.uleb128 0x2c
 14267 41fb 7C000000 		.4byte	.LVL595
 14268 41ff C0070000 		.4byte	0x7c0
 14269 4203 1A       		.uleb128 0x1a
 14270 4204 01       		.uleb128 0x1
 14271 4205 50       		.byte	0x50
 14272 4206 02       		.uleb128 0x2
 14273 4207 08       		.byte	0x8
 14274 4208 F1       		.byte	0xf1
 14275 4209 1A       		.uleb128 0x1a
 14276 420a 01       		.uleb128 0x1
 14277 420b 51       		.byte	0x51
 14278 420c 02       		.uleb128 0x2
 14279 420d 76       		.byte	0x76
 14280 420e 00       		.sleb128 0
 14281 420f 1A       		.uleb128 0x1a
 14282 4210 01       		.uleb128 0x1
 14283 4211 52       		.byte	0x52
 14284 4212 02       		.uleb128 0x2
 14285 4213 08       		.byte	0x8
 14286 4214 4F       		.byte	0x4f
 14287 4215 1A       		.uleb128 0x1a
 14288 4216 01       		.uleb128 0x1
 14289 4217 53       		.byte	0x53
ARM GAS  C:\Users\legoc\AppData\Local\Temp\ccMAvaOS.s 			page 274


 14290 4218 02       		.uleb128 0x2
 14291 4219 08       		.byte	0x8
 14292 421a F0       		.byte	0xf0
 14293 421b 1A       		.uleb128 0x1a
 14294 421c 02       		.uleb128 0x2
 14295 421d 7D       		.byte	0x7d
 14296 421e 00       		.sleb128 0
 14297 421f 05       		.uleb128 0x5
 14298 4220 03       		.byte	0x3
 14299 4221 D8000000 		.4byte	.LC16
 14300 4225 00       		.byte	0
 14301 4226 00       		.byte	0
 14302 4227 47       		.uleb128 0x47
 14303 4228 69040000 		.4byte	.LASF84
 14304 422c 01       		.byte	0x1
 14305 422d 4402     		.2byte	0x244
 14306 422f 00000000 		.4byte	.LFB22
 14307 4233 F4000000 		.4byte	.LFE22-.LFB22
 14308 4237 01       		.uleb128 0x1
 14309 4238 9C       		.byte	0x9c
 14310 4239 66450000 		.4byte	0x4566
 14311 423d 48       		.uleb128 0x48
 14312 423e 7800     		.ascii	"x\000"
 14313 4240 01       		.byte	0x1
 14314 4241 4402     		.2byte	0x244
 14315 4243 AD000000 		.4byte	0xad
 14316 4247 11270000 		.4byte	.LLST506
 14317 424b 48       		.uleb128 0x48
 14318 424c 7900     		.ascii	"y\000"
 14319 424e 01       		.byte	0x1
 14320 424f 4402     		.2byte	0x244
 14321 4251 AD000000 		.4byte	0xad
 14322 4255 32270000 		.4byte	.LLST507
 14323 4259 40       		.uleb128 0x40
 14324 425a 48040000 		.4byte	.LASF85
 14325 425e 01       		.byte	0x1
 14326 425f 4A02     		.2byte	0x24a
 14327 4261 4C220000 		.4byte	0x224c
 14328 4265 02       		.uleb128 0x2
 14329 4266 91       		.byte	0x91
 14330 4267 50       		.sleb128 -48
 14331 4268 40       		.uleb128 0x40
 14332 4269 53000000 		.4byte	.LASF86
 14333 426d 01       		.byte	0x1
 14334 426e 4B02     		.2byte	0x24b
 14335 4270 4C220000 		.4byte	0x224c
 14336 4274 02       		.uleb128 0x2
 14337 4275 91       		.byte	0x91
 14338 4276 5C       		.sleb128 -36
 14339 4277 44       		.uleb128 0x44
 14340 4278 8B030000 		.4byte	.LASF47
 14341 427c 01       		.byte	0x1
 14342 427d 4F01     		.2byte	0x14f
 14343 427f 89000000 		.4byte	0x89
 14344 4283 89420000 		.4byte	0x4289
 14345 4287 14       		.uleb128 0x14
 14346 4288 00       		.byte	0
ARM GAS  C:\Users\legoc\AppData\Local\Temp\ccMAvaOS.s 			page 275


 14347 4289 26       		.uleb128 0x26
 14348 428a AE020000 		.4byte	0x2ae
 14349 428e 06000000 		.4byte	.LBB885
 14350 4292 10060000 		.4byte	.Ldebug_ranges0+0x610
 14351 4296 01       		.byte	0x1
 14352 4297 4602     		.2byte	0x246
 14353 4299 0F440000 		.4byte	0x440f
 14354 429d 18       		.uleb128 0x18
 14355 429e BA020000 		.4byte	0x2ba
 14356 42a2 53270000 		.4byte	.LLST508
 14357 42a6 28       		.uleb128 0x28
 14358 42a7 4C010000 		.4byte	0x14c
 14359 42ab 06000000 		.4byte	.LBB886
 14360 42af 10060000 		.4byte	.Ldebug_ranges0+0x610
 14361 42b3 01       		.byte	0x1
 14362 42b4 9B       		.byte	0x9b
 14363 42b5 18       		.uleb128 0x18
 14364 42b6 7C010000 		.4byte	0x17c
 14365 42ba 53270000 		.4byte	.LLST508
 14366 42be 18       		.uleb128 0x18
 14367 42bf 73010000 		.4byte	0x173
 14368 42c3 67270000 		.4byte	.LLST510
 14369 42c7 18       		.uleb128 0x18
 14370 42c8 6A010000 		.4byte	0x16a
 14371 42cc 7C270000 		.4byte	.LLST511
 14372 42d0 18       		.uleb128 0x18
 14373 42d1 61010000 		.4byte	0x161
 14374 42d5 53270000 		.4byte	.LLST508
 14375 42d9 18       		.uleb128 0x18
 14376 42da 58010000 		.4byte	0x158
 14377 42de 53270000 		.4byte	.LLST508
 14378 42e2 28       		.uleb128 0x28
 14379 42e3 FC000000 		.4byte	0xfc
 14380 42e7 06000000 		.4byte	.LBB887
 14381 42eb 10060000 		.4byte	.Ldebug_ranges0+0x610
 14382 42ef 01       		.byte	0x1
 14383 42f0 95       		.byte	0x95
 14384 42f1 18       		.uleb128 0x18
 14385 42f2 2C010000 		.4byte	0x12c
 14386 42f6 53270000 		.4byte	.LLST508
 14387 42fa 18       		.uleb128 0x18
 14388 42fb 23010000 		.4byte	0x123
 14389 42ff 7C270000 		.4byte	.LLST511
 14390 4303 18       		.uleb128 0x18
 14391 4304 1A010000 		.4byte	0x11a
 14392 4308 67270000 		.4byte	.LLST510
 14393 430c 18       		.uleb128 0x18
 14394 430d 11010000 		.4byte	0x111
 14395 4311 53270000 		.4byte	.LLST508
 14396 4315 18       		.uleb128 0x18
 14397 4316 08010000 		.4byte	0x108
 14398 431a 53270000 		.4byte	.LLST508
 14399 431e 29       		.uleb128 0x29
 14400 431f 10060000 		.4byte	.Ldebug_ranges0+0x610
 14401 4323 2A       		.uleb128 0x2a
 14402 4324 37010000 		.4byte	0x137
 14403 4328 2A       		.uleb128 0x2a
ARM GAS  C:\Users\legoc\AppData\Local\Temp\ccMAvaOS.s 			page 276


 14404 4329 41010000 		.4byte	0x141
 14405 432d 29       		.uleb128 0x29
 14406 432e 10060000 		.4byte	.Ldebug_ranges0+0x610
 14407 4332 18       		.uleb128 0x18
 14408 4333 08010000 		.4byte	0x108
 14409 4337 92270000 		.4byte	.LLST519
 14410 433b 18       		.uleb128 0x18
 14411 433c 1A010000 		.4byte	0x11a
 14412 4340 67270000 		.4byte	.LLST510
 14413 4344 18       		.uleb128 0x18
 14414 4345 2C010000 		.4byte	0x12c
 14415 4349 53270000 		.4byte	.LLST508
 14416 434d 18       		.uleb128 0x18
 14417 434e 23010000 		.4byte	0x123
 14418 4352 7C270000 		.4byte	.LLST511
 14419 4356 18       		.uleb128 0x18
 14420 4357 11010000 		.4byte	0x111
 14421 435b B3270000 		.4byte	.LLST523
 14422 435f 29       		.uleb128 0x29
 14423 4360 10060000 		.4byte	.Ldebug_ranges0+0x610
 14424 4364 22       		.uleb128 0x22
 14425 4365 37010000 		.4byte	0x137
 14426 4369 D5270000 		.4byte	.LLST524
 14427 436d 22       		.uleb128 0x22
 14428 436e 41010000 		.4byte	0x141
 14429 4372 D5270000 		.4byte	.LLST524
 14430 4376 19       		.uleb128 0x19
 14431 4377 18000000 		.4byte	.LVL609
 14432 437b 11050000 		.4byte	0x511
 14433 437f 9B430000 		.4byte	0x439b
 14434 4383 1A       		.uleb128 0x1a
 14435 4384 01       		.uleb128 0x1
 14436 4385 50       		.byte	0x50
 14437 4386 01       		.uleb128 0x1
 14438 4387 30       		.byte	0x30
 14439 4388 1A       		.uleb128 0x1a
 14440 4389 01       		.uleb128 0x1
 14441 438a 51       		.byte	0x51
 14442 438b 01       		.uleb128 0x1
 14443 438c 30       		.byte	0x30
 14444 438d 1A       		.uleb128 0x1a
 14445 438e 01       		.uleb128 0x1
 14446 438f 52       		.byte	0x52
 14447 4390 02       		.uleb128 0x2
 14448 4391 08       		.byte	0x8
 14449 4392 F0       		.byte	0xf0
 14450 4393 1A       		.uleb128 0x1a
 14451 4394 01       		.uleb128 0x1
 14452 4395 53       		.byte	0x53
 14453 4396 03       		.uleb128 0x3
 14454 4397 0A       		.byte	0xa
 14455 4398 4001     		.2byte	0x140
 14456 439a 00       		.byte	0
 14457 439b 19       		.uleb128 0x19
 14458 439c 1E000000 		.4byte	.LVL610
 14459 43a0 CE4A0000 		.4byte	0x4ace
 14460 43a4 AE430000 		.4byte	0x43ae
ARM GAS  C:\Users\legoc\AppData\Local\Temp\ccMAvaOS.s 			page 277


 14461 43a8 1A       		.uleb128 0x1a
 14462 43a9 01       		.uleb128 0x1
 14463 43aa 50       		.byte	0x50
 14464 43ab 01       		.uleb128 0x1
 14465 43ac 31       		.byte	0x31
 14466 43ad 00       		.byte	0
 14467 43ae 19       		.uleb128 0x19
 14468 43af 24000000 		.4byte	.LVL611
 14469 43b3 EF4A0000 		.4byte	0x4aef
 14470 43b7 C1430000 		.4byte	0x43c1
 14471 43bb 1A       		.uleb128 0x1a
 14472 43bc 01       		.uleb128 0x1
 14473 43bd 50       		.byte	0x50
 14474 43be 01       		.uleb128 0x1
 14475 43bf 30       		.byte	0x30
 14476 43c0 00       		.byte	0
 14477 43c1 19       		.uleb128 0x19
 14478 43c2 30000000 		.4byte	.LVL614
 14479 43c6 D94A0000 		.4byte	0x4ad9
 14480 43ca D4430000 		.4byte	0x43d4
 14481 43ce 1A       		.uleb128 0x1a
 14482 43cf 01       		.uleb128 0x1
 14483 43d0 50       		.byte	0x50
 14484 43d1 01       		.uleb128 0x1
 14485 43d2 30       		.byte	0x30
 14486 43d3 00       		.byte	0
 14487 43d4 1B       		.uleb128 0x1b
 14488 43d5 34000000 		.4byte	.LVL615
 14489 43d9 E44A0000 		.4byte	0x4ae4
 14490 43dd 19       		.uleb128 0x19
 14491 43de 3E000000 		.4byte	.LVL616
 14492 43e2 D94A0000 		.4byte	0x4ad9
 14493 43e6 F0430000 		.4byte	0x43f0
 14494 43ea 1A       		.uleb128 0x1a
 14495 43eb 01       		.uleb128 0x1
 14496 43ec 50       		.byte	0x50
 14497 43ed 01       		.uleb128 0x1
 14498 43ee 30       		.byte	0x30
 14499 43ef 00       		.byte	0
 14500 43f0 1B       		.uleb128 0x1b
 14501 43f1 42000000 		.4byte	.LVL617
 14502 43f5 E44A0000 		.4byte	0x4ae4
 14503 43f9 2C       		.uleb128 0x2c
 14504 43fa 5C000000 		.4byte	.LVL618
 14505 43fe EF4A0000 		.4byte	0x4aef
 14506 4402 1A       		.uleb128 0x1a
 14507 4403 01       		.uleb128 0x1
 14508 4404 50       		.byte	0x50
 14509 4405 02       		.uleb128 0x2
 14510 4406 74       		.byte	0x74
 14511 4407 00       		.sleb128 0
 14512 4408 00       		.byte	0
 14513 4409 00       		.byte	0
 14514 440a 00       		.byte	0
 14515 440b 00       		.byte	0
 14516 440c 00       		.byte	0
 14517 440d 00       		.byte	0
ARM GAS  C:\Users\legoc\AppData\Local\Temp\ccMAvaOS.s 			page 278


 14518 440e 00       		.byte	0
 14519 440f 19       		.uleb128 0x19
 14520 4410 6C000000 		.4byte	.LVL619
 14521 4414 254B0000 		.4byte	0x4b25
 14522 4418 2E440000 		.4byte	0x442e
 14523 441c 1A       		.uleb128 0x1a
 14524 441d 01       		.uleb128 0x1
 14525 441e 50       		.byte	0x50
 14526 441f 02       		.uleb128 0x2
 14527 4420 78       		.byte	0x78
 14528 4421 00       		.sleb128 0
 14529 4422 1A       		.uleb128 0x1a
 14530 4423 01       		.uleb128 0x1
 14531 4424 51       		.byte	0x51
 14532 4425 02       		.uleb128 0x2
 14533 4426 91       		.byte	0x91
 14534 4427 50       		.sleb128 -48
 14535 4428 1A       		.uleb128 0x1a
 14536 4429 01       		.uleb128 0x1
 14537 442a 52       		.byte	0x52
 14538 442b 01       		.uleb128 0x1
 14539 442c 3A       		.byte	0x3a
 14540 442d 00       		.byte	0
 14541 442e 19       		.uleb128 0x19
 14542 442f 76000000 		.4byte	.LVL620
 14543 4433 254B0000 		.4byte	0x4b25
 14544 4437 4D440000 		.4byte	0x444d
 14545 443b 1A       		.uleb128 0x1a
 14546 443c 01       		.uleb128 0x1
 14547 443d 50       		.byte	0x50
 14548 443e 02       		.uleb128 0x2
 14549 443f 77       		.byte	0x77
 14550 4440 00       		.sleb128 0
 14551 4441 1A       		.uleb128 0x1a
 14552 4442 01       		.uleb128 0x1
 14553 4443 51       		.byte	0x51
 14554 4444 02       		.uleb128 0x2
 14555 4445 91       		.byte	0x91
 14556 4446 5C       		.sleb128 -36
 14557 4447 1A       		.uleb128 0x1a
 14558 4448 01       		.uleb128 0x1
 14559 4449 52       		.byte	0x52
 14560 444a 01       		.uleb128 0x1
 14561 444b 3A       		.byte	0x3a
 14562 444c 00       		.byte	0
 14563 444d 19       		.uleb128 0x19
 14564 444e 86000000 		.4byte	.LVL621
 14565 4452 FA4A0000 		.4byte	0x4afa
 14566 4456 7B440000 		.4byte	0x447b
 14567 445a 1A       		.uleb128 0x1a
 14568 445b 01       		.uleb128 0x1
 14569 445c 50       		.byte	0x50
 14570 445d 02       		.uleb128 0x2
 14571 445e 08       		.byte	0x8
 14572 445f 64       		.byte	0x64
 14573 4460 1A       		.uleb128 0x1a
 14574 4461 01       		.uleb128 0x1
ARM GAS  C:\Users\legoc\AppData\Local\Temp\ccMAvaOS.s 			page 279


 14575 4462 51       		.byte	0x51
 14576 4463 02       		.uleb128 0x2
 14577 4464 08       		.byte	0x8
 14578 4465 6E       		.byte	0x6e
 14579 4466 1A       		.uleb128 0x1a
 14580 4467 01       		.uleb128 0x1
 14581 4468 52       		.byte	0x52
 14582 4469 03       		.uleb128 0x3
 14583 446a 0A       		.byte	0xa
 14584 446b FFFF     		.2byte	0xffff
 14585 446d 1A       		.uleb128 0x1a
 14586 446e 01       		.uleb128 0x1
 14587 446f 53       		.byte	0x53
 14588 4470 02       		.uleb128 0x2
 14589 4471 91       		.byte	0x91
 14590 4472 50       		.sleb128 -48
 14591 4473 1A       		.uleb128 0x1a
 14592 4474 02       		.uleb128 0x2
 14593 4475 7D       		.byte	0x7d
 14594 4476 00       		.sleb128 0
 14595 4477 02       		.uleb128 0x2
 14596 4478 74       		.byte	0x74
 14597 4479 00       		.sleb128 0
 14598 447a 00       		.byte	0
 14599 447b 19       		.uleb128 0x19
 14600 447c 96000000 		.4byte	.LVL622
 14601 4480 FA4A0000 		.4byte	0x4afa
 14602 4484 A9440000 		.4byte	0x44a9
 14603 4488 1A       		.uleb128 0x1a
 14604 4489 01       		.uleb128 0x1
 14605 448a 50       		.byte	0x50
 14606 448b 02       		.uleb128 0x2
 14607 448c 08       		.byte	0x8
 14608 448d 64       		.byte	0x64
 14609 448e 1A       		.uleb128 0x1a
 14610 448f 01       		.uleb128 0x1
 14611 4490 51       		.byte	0x51
 14612 4491 02       		.uleb128 0x2
 14613 4492 08       		.byte	0x8
 14614 4493 64       		.byte	0x64
 14615 4494 1A       		.uleb128 0x1a
 14616 4495 01       		.uleb128 0x1
 14617 4496 52       		.byte	0x52
 14618 4497 03       		.uleb128 0x3
 14619 4498 0A       		.byte	0xa
 14620 4499 FFFF     		.2byte	0xffff
 14621 449b 1A       		.uleb128 0x1a
 14622 449c 01       		.uleb128 0x1
 14623 449d 53       		.byte	0x53
 14624 449e 02       		.uleb128 0x2
 14625 449f 91       		.byte	0x91
 14626 44a0 5C       		.sleb128 -36
 14627 44a1 1A       		.uleb128 0x1a
 14628 44a2 02       		.uleb128 0x2
 14629 44a3 7D       		.byte	0x7d
 14630 44a4 00       		.sleb128 0
 14631 44a5 02       		.uleb128 0x2
ARM GAS  C:\Users\legoc\AppData\Local\Temp\ccMAvaOS.s 			page 280


 14632 44a6 74       		.byte	0x74
 14633 44a7 00       		.sleb128 0
 14634 44a8 00       		.byte	0
 14635 44a9 19       		.uleb128 0x19
 14636 44aa A6000000 		.4byte	.LVL623
 14637 44ae FA4A0000 		.4byte	0x4afa
 14638 44b2 DA440000 		.4byte	0x44da
 14639 44b6 1A       		.uleb128 0x1a
 14640 44b7 01       		.uleb128 0x1
 14641 44b8 50       		.byte	0x50
 14642 44b9 02       		.uleb128 0x2
 14643 44ba 08       		.byte	0x8
 14644 44bb 64       		.byte	0x64
 14645 44bc 1A       		.uleb128 0x1a
 14646 44bd 01       		.uleb128 0x1
 14647 44be 51       		.byte	0x51
 14648 44bf 02       		.uleb128 0x2
 14649 44c0 08       		.byte	0x8
 14650 44c1 C8       		.byte	0xc8
 14651 44c2 1A       		.uleb128 0x1a
 14652 44c3 01       		.uleb128 0x1
 14653 44c4 52       		.byte	0x52
 14654 44c5 03       		.uleb128 0x3
 14655 44c6 0A       		.byte	0xa
 14656 44c7 FFFF     		.2byte	0xffff
 14657 44c9 1A       		.uleb128 0x1a
 14658 44ca 01       		.uleb128 0x1
 14659 44cb 53       		.byte	0x53
 14660 44cc 05       		.uleb128 0x5
 14661 44cd 03       		.byte	0x3
 14662 44ce B0010000 		.4byte	.LC32
 14663 44d2 1A       		.uleb128 0x1a
 14664 44d3 02       		.uleb128 0x2
 14665 44d4 7D       		.byte	0x7d
 14666 44d5 00       		.sleb128 0
 14667 44d6 02       		.uleb128 0x2
 14668 44d7 74       		.byte	0x74
 14669 44d8 00       		.sleb128 0
 14670 44d9 00       		.byte	0
 14671 44da 19       		.uleb128 0x19
 14672 44db B8000000 		.4byte	.LVL624
 14673 44df FA4A0000 		.4byte	0x4afa
 14674 44e3 0A450000 		.4byte	0x450a
 14675 44e7 1A       		.uleb128 0x1a
 14676 44e8 01       		.uleb128 0x1
 14677 44e9 50       		.byte	0x50
 14678 44ea 02       		.uleb128 0x2
 14679 44eb 08       		.byte	0x8
 14680 44ec 32       		.byte	0x32
 14681 44ed 1A       		.uleb128 0x1a
 14682 44ee 01       		.uleb128 0x1
 14683 44ef 51       		.byte	0x51
 14684 44f0 02       		.uleb128 0x2
 14685 44f1 08       		.byte	0x8
 14686 44f2 96       		.byte	0x96
 14687 44f3 1A       		.uleb128 0x1a
 14688 44f4 01       		.uleb128 0x1
ARM GAS  C:\Users\legoc\AppData\Local\Temp\ccMAvaOS.s 			page 281


 14689 44f5 52       		.byte	0x52
 14690 44f6 03       		.uleb128 0x3
 14691 44f7 0A       		.byte	0xa
 14692 44f8 FFFF     		.2byte	0xffff
 14693 44fa 1A       		.uleb128 0x1a
 14694 44fb 01       		.uleb128 0x1
 14695 44fc 53       		.byte	0x53
 14696 44fd 05       		.uleb128 0x5
 14697 44fe 03       		.byte	0x3
 14698 44ff C4010000 		.4byte	.LC33
 14699 4503 1A       		.uleb128 0x1a
 14700 4504 02       		.uleb128 0x2
 14701 4505 7D       		.byte	0x7d
 14702 4506 00       		.sleb128 0
 14703 4507 01       		.uleb128 0x1
 14704 4508 36       		.byte	0x36
 14705 4509 00       		.byte	0
 14706 450a 19       		.uleb128 0x19
 14707 450b C8000000 		.4byte	.LVL625
 14708 450f C0070000 		.4byte	0x7c0
 14709 4513 3A450000 		.4byte	0x453a
 14710 4517 1A       		.uleb128 0x1a
 14711 4518 01       		.uleb128 0x1
 14712 4519 50       		.byte	0x50
 14713 451a 02       		.uleb128 0x2
 14714 451b 08       		.byte	0x8
 14715 451c 96       		.byte	0x96
 14716 451d 1A       		.uleb128 0x1a
 14717 451e 01       		.uleb128 0x1
 14718 451f 51       		.byte	0x51
 14719 4520 02       		.uleb128 0x2
 14720 4521 08       		.byte	0x8
 14721 4522 28       		.byte	0x28
 14722 4523 1A       		.uleb128 0x1a
 14723 4524 01       		.uleb128 0x1
 14724 4525 52       		.byte	0x52
 14725 4526 02       		.uleb128 0x2
 14726 4527 08       		.byte	0x8
 14727 4528 77       		.byte	0x77
 14728 4529 1A       		.uleb128 0x1a
 14729 452a 01       		.uleb128 0x1
 14730 452b 53       		.byte	0x53
 14731 452c 02       		.uleb128 0x2
 14732 452d 08       		.byte	0x8
 14733 452e 46       		.byte	0x46
 14734 452f 1A       		.uleb128 0x1a
 14735 4530 02       		.uleb128 0x2
 14736 4531 7D       		.byte	0x7d
 14737 4532 00       		.sleb128 0
 14738 4533 05       		.uleb128 0x5
 14739 4534 03       		.byte	0x3
 14740 4535 B4000000 		.4byte	.LC15
 14741 4539 00       		.byte	0
 14742 453a 2C       		.uleb128 0x2c
 14743 453b D8000000 		.4byte	.LVL626
 14744 453f C0070000 		.4byte	0x7c0
 14745 4543 1A       		.uleb128 0x1a
ARM GAS  C:\Users\legoc\AppData\Local\Temp\ccMAvaOS.s 			page 282


 14746 4544 01       		.uleb128 0x1
 14747 4545 50       		.byte	0x50
 14748 4546 02       		.uleb128 0x2
 14749 4547 76       		.byte	0x76
 14750 4548 00       		.sleb128 0
 14751 4549 1A       		.uleb128 0x1a
 14752 454a 01       		.uleb128 0x1
 14753 454b 51       		.byte	0x51
 14754 454c 02       		.uleb128 0x2
 14755 454d 76       		.byte	0x76
 14756 454e 00       		.sleb128 0
 14757 454f 1A       		.uleb128 0x1a
 14758 4550 01       		.uleb128 0x1
 14759 4551 52       		.byte	0x52
 14760 4552 02       		.uleb128 0x2
 14761 4553 08       		.byte	0x8
 14762 4554 32       		.byte	0x32
 14763 4555 1A       		.uleb128 0x1a
 14764 4556 01       		.uleb128 0x1
 14765 4557 53       		.byte	0x53
 14766 4558 01       		.uleb128 0x1
 14767 4559 4E       		.byte	0x4e
 14768 455a 1A       		.uleb128 0x1a
 14769 455b 02       		.uleb128 0x2
 14770 455c 7D       		.byte	0x7d
 14771 455d 00       		.sleb128 0
 14772 455e 05       		.uleb128 0x5
 14773 455f 03       		.byte	0x3
 14774 4560 D8000000 		.4byte	.LC16
 14775 4564 00       		.byte	0
 14776 4565 00       		.byte	0
 14777 4566 06       		.uleb128 0x6
 14778 4567 10110000 		.4byte	0x1110
 14779 456b 76450000 		.4byte	0x4576
 14780 456f 07       		.uleb128 0x7
 14781 4570 DF000000 		.4byte	0xdf
 14782 4574 19       		.byte	0x19
 14783 4575 00       		.byte	0
 14784 4576 49       		.uleb128 0x49
 14785 4577 8A020000 		.4byte	.LASF87
 14786 457b 04       		.byte	0x4
 14787 457c 0F       		.byte	0xf
 14788 457d 9C450000 		.4byte	0x459c
 14789 4581 1A       		.byte	0x1a
 14790 4582 03       		.byte	0x3
 14791 4583 01       		.byte	0x1
 14792 4584 02       		.byte	0x2
 14793 4585 03       		.byte	0x3
 14794 4586 02       		.byte	0x2
 14795 4587 00       		.byte	0
 14796 4588 04       		.byte	0x4
 14797 4589 03       		.byte	0x3
 14798 458a 00       		.byte	0
 14799 458b 01       		.byte	0x1
 14800 458c 04       		.byte	0x4
 14801 458d 03       		.byte	0x3
 14802 458e 00       		.byte	0
ARM GAS  C:\Users\legoc\AppData\Local\Temp\ccMAvaOS.s 			page 283


 14803 458f 02       		.byte	0x2
 14804 4590 04       		.byte	0x4
 14805 4591 03       		.byte	0x3
 14806 4592 00       		.byte	0
 14807 4593 03       		.byte	0x3
 14808 4594 04       		.byte	0x4
 14809 4595 02       		.byte	0x2
 14810 4596 00       		.byte	0
 14811 4597 04       		.byte	0x4
 14812 4598 03       		.byte	0x3
 14813 4599 01       		.byte	0x1
 14814 459a 02       		.byte	0x2
 14815 459b 03       		.byte	0x3
 14816 459c 30       		.uleb128 0x30
 14817 459d 66450000 		.4byte	0x4566
 14818 45a1 06       		.uleb128 0x6
 14819 45a2 10110000 		.4byte	0x1110
 14820 45a6 B1450000 		.4byte	0x45b1
 14821 45aa 07       		.uleb128 0x7
 14822 45ab DF000000 		.4byte	0xdf
 14823 45af 12       		.byte	0x12
 14824 45b0 00       		.byte	0
 14825 45b1 49       		.uleb128 0x49
 14826 45b2 91020000 		.4byte	.LASF88
 14827 45b6 04       		.byte	0x4
 14828 45b7 21       		.byte	0x21
 14829 45b8 D0450000 		.4byte	0x45d0
 14830 45bc 13       		.byte	0x13
 14831 45bd 05       		.byte	0x5
 14832 45be 00       		.byte	0
 14833 45bf 01       		.byte	0x1
 14834 45c0 02       		.byte	0x2
 14835 45c1 03       		.byte	0x3
 14836 45c2 04       		.byte	0x4
 14837 45c3 01       		.byte	0x1
 14838 45c4 02       		.byte	0x2
 14839 45c5 01       		.byte	0x1
 14840 45c6 02       		.byte	0x2
 14841 45c7 01       		.byte	0x1
 14842 45c8 02       		.byte	0x2
 14843 45c9 01       		.byte	0x1
 14844 45ca 02       		.byte	0x2
 14845 45cb 02       		.byte	0x2
 14846 45cc 01       		.byte	0x1
 14847 45cd 02       		.byte	0x2
 14848 45ce 01       		.byte	0x1
 14849 45cf 02       		.byte	0x2
 14850 45d0 30       		.uleb128 0x30
 14851 45d1 A1450000 		.4byte	0x45a1
 14852 45d5 06       		.uleb128 0x6
 14853 45d6 10110000 		.4byte	0x1110
 14854 45da E5450000 		.4byte	0x45e5
 14855 45de 07       		.uleb128 0x7
 14856 45df DF000000 		.4byte	0xdf
 14857 45e3 16       		.byte	0x16
 14858 45e4 00       		.byte	0
 14859 45e5 49       		.uleb128 0x49
ARM GAS  C:\Users\legoc\AppData\Local\Temp\ccMAvaOS.s 			page 284


 14860 45e6 98020000 		.4byte	.LASF89
 14861 45ea 04       		.byte	0x4
 14862 45eb 33       		.byte	0x33
 14863 45ec 08460000 		.4byte	0x4608
 14864 45f0 17       		.byte	0x17
 14865 45f1 05       		.byte	0x5
 14866 45f2 00       		.byte	0
 14867 45f3 01       		.byte	0x1
 14868 45f4 02       		.byte	0x2
 14869 45f5 03       		.byte	0x3
 14870 45f6 04       		.byte	0x4
 14871 45f7 02       		.byte	0x2
 14872 45f8 00       		.byte	0
 14873 45f9 04       		.byte	0x4
 14874 45fa 01       		.byte	0x1
 14875 45fb 01       		.byte	0x1
 14876 45fc 02       		.byte	0x2
 14877 45fd 02       		.byte	0x2
 14878 45fe 03       		.byte	0x3
 14879 45ff 01       		.byte	0x1
 14880 4600 04       		.byte	0x4
 14881 4601 02       		.byte	0x2
 14882 4602 00       		.byte	0
 14883 4603 04       		.byte	0x4
 14884 4604 03       		.byte	0x3
 14885 4605 01       		.byte	0x1
 14886 4606 02       		.byte	0x2
 14887 4607 03       		.byte	0x3
 14888 4608 30       		.uleb128 0x30
 14889 4609 D5450000 		.4byte	0x45d5
 14890 460d 06       		.uleb128 0x6
 14891 460e 10110000 		.4byte	0x1110
 14892 4612 1D460000 		.4byte	0x461d
 14893 4616 07       		.uleb128 0x7
 14894 4617 DF000000 		.4byte	0xdf
 14895 461b 14       		.byte	0x14
 14896 461c 00       		.byte	0
 14897 461d 49       		.uleb128 0x49
 14898 461e 9F020000 		.4byte	.LASF90
 14899 4622 04       		.byte	0x4
 14900 4623 45       		.byte	0x45
 14901 4624 3E460000 		.4byte	0x463e
 14902 4628 15       		.byte	0x15
 14903 4629 03       		.byte	0x3
 14904 462a 01       		.byte	0x1
 14905 462b 02       		.byte	0x2
 14906 462c 03       		.byte	0x3
 14907 462d 02       		.byte	0x2
 14908 462e 00       		.byte	0
 14909 462f 04       		.byte	0x4
 14910 4630 01       		.byte	0x1
 14911 4631 04       		.byte	0x4
 14912 4632 02       		.byte	0x2
 14913 4633 02       		.byte	0x2
 14914 4634 03       		.byte	0x3
 14915 4635 01       		.byte	0x1
 14916 4636 04       		.byte	0x4
ARM GAS  C:\Users\legoc\AppData\Local\Temp\ccMAvaOS.s 			page 285


 14917 4637 02       		.byte	0x2
 14918 4638 00       		.byte	0
 14919 4639 04       		.byte	0x4
 14920 463a 03       		.byte	0x3
 14921 463b 01       		.byte	0x1
 14922 463c 02       		.byte	0x2
 14923 463d 03       		.byte	0x3
 14924 463e 30       		.uleb128 0x30
 14925 463f 0D460000 		.4byte	0x460d
 14926 4643 06       		.uleb128 0x6
 14927 4644 10110000 		.4byte	0x1110
 14928 4648 53460000 		.4byte	0x4653
 14929 464c 07       		.uleb128 0x7
 14930 464d DF000000 		.4byte	0xdf
 14931 4651 15       		.byte	0x15
 14932 4652 00       		.byte	0
 14933 4653 49       		.uleb128 0x49
 14934 4654 A6020000 		.4byte	.LASF91
 14935 4658 04       		.byte	0x4
 14936 4659 57       		.byte	0x57
 14937 465a 75460000 		.4byte	0x4675
 14938 465e 16       		.byte	0x16
 14939 465f 01       		.byte	0x1
 14940 4660 04       		.byte	0x4
 14941 4661 01       		.byte	0x1
 14942 4662 04       		.byte	0x4
 14943 4663 05       		.byte	0x5
 14944 4664 00       		.byte	0
 14945 4665 01       		.byte	0x1
 14946 4666 02       		.byte	0x2
 14947 4667 03       		.byte	0x3
 14948 4668 04       		.byte	0x4
 14949 4669 02       		.byte	0x2
 14950 466a 00       		.byte	0
 14951 466b 04       		.byte	0x4
 14952 466c 02       		.byte	0x2
 14953 466d 01       		.byte	0x1
 14954 466e 04       		.byte	0x4
 14955 466f 02       		.byte	0x2
 14956 4670 02       		.byte	0x2
 14957 4671 04       		.byte	0x4
 14958 4672 02       		.byte	0x2
 14959 4673 03       		.byte	0x3
 14960 4674 04       		.byte	0x4
 14961 4675 30       		.uleb128 0x30
 14962 4676 43460000 		.4byte	0x4643
 14963 467a 06       		.uleb128 0x6
 14964 467b 10110000 		.4byte	0x1110
 14965 467f 8A460000 		.4byte	0x468a
 14966 4683 07       		.uleb128 0x7
 14967 4684 DF000000 		.4byte	0xdf
 14968 4688 17       		.byte	0x17
 14969 4689 00       		.byte	0
 14970 468a 49       		.uleb128 0x49
 14971 468b AD020000 		.4byte	.LASF92
 14972 468f 04       		.byte	0x4
 14973 4690 69       		.byte	0x69
ARM GAS  C:\Users\legoc\AppData\Local\Temp\ccMAvaOS.s 			page 286


 14974 4691 AE460000 		.4byte	0x46ae
 14975 4695 18       		.byte	0x18
 14976 4696 03       		.byte	0x3
 14977 4697 01       		.byte	0x1
 14978 4698 02       		.byte	0x2
 14979 4699 03       		.byte	0x3
 14980 469a 02       		.byte	0x2
 14981 469b 00       		.byte	0
 14982 469c 04       		.byte	0x4
 14983 469d 01       		.byte	0x1
 14984 469e 04       		.byte	0x4
 14985 469f 01       		.byte	0x1
 14986 46a0 04       		.byte	0x4
 14987 46a1 04       		.byte	0x4
 14988 46a2 00       		.byte	0
 14989 46a3 01       		.byte	0x1
 14990 46a4 02       		.byte	0x2
 14991 46a5 03       		.byte	0x3
 14992 46a6 01       		.byte	0x1
 14993 46a7 00       		.byte	0
 14994 46a8 05       		.byte	0x5
 14995 46a9 00       		.byte	0
 14996 46aa 01       		.byte	0x1
 14997 46ab 02       		.byte	0x2
 14998 46ac 03       		.byte	0x3
 14999 46ad 04       		.byte	0x4
 15000 46ae 30       		.uleb128 0x30
 15001 46af 7A460000 		.4byte	0x467a
 15002 46b3 49       		.uleb128 0x49
 15003 46b4 07060000 		.4byte	.LASF93
 15004 46b8 04       		.byte	0x4
 15005 46b9 7B       		.byte	0x7b
 15006 46ba D5460000 		.4byte	0x46d5
 15007 46be 16       		.byte	0x16
 15008 46bf 03       		.byte	0x3
 15009 46c0 01       		.byte	0x1
 15010 46c1 02       		.byte	0x2
 15011 46c2 03       		.byte	0x3
 15012 46c3 02       		.byte	0x2
 15013 46c4 00       		.byte	0
 15014 46c5 04       		.byte	0x4
 15015 46c6 02       		.byte	0x2
 15016 46c7 00       		.byte	0
 15017 46c8 04       		.byte	0x4
 15018 46c9 04       		.byte	0x4
 15019 46ca 00       		.byte	0
 15020 46cb 01       		.byte	0x1
 15021 46cc 02       		.byte	0x2
 15022 46cd 03       		.byte	0x3
 15023 46ce 01       		.byte	0x1
 15024 46cf 00       		.byte	0
 15025 46d0 01       		.byte	0x1
 15026 46d1 01       		.byte	0x1
 15027 46d2 02       		.byte	0x2
 15028 46d3 02       		.byte	0x2
 15029 46d4 03       		.byte	0x3
 15030 46d5 30       		.uleb128 0x30
ARM GAS  C:\Users\legoc\AppData\Local\Temp\ccMAvaOS.s 			page 287


 15031 46d6 43460000 		.4byte	0x4643
 15032 46da 49       		.uleb128 0x49
 15033 46db A0040000 		.4byte	.LASF94
 15034 46df 04       		.byte	0x4
 15035 46e0 8D       		.byte	0x8d
 15036 46e1 F9460000 		.4byte	0x46f9
 15037 46e5 13       		.byte	0x13
 15038 46e6 01       		.byte	0x1
 15039 46e7 02       		.byte	0x2
 15040 46e8 01       		.byte	0x1
 15041 46e9 02       		.byte	0x2
 15042 46ea 01       		.byte	0x1
 15043 46eb 02       		.byte	0x2
 15044 46ec 01       		.byte	0x1
 15045 46ed 03       		.byte	0x3
 15046 46ee 01       		.byte	0x1
 15047 46ef 04       		.byte	0x4
 15048 46f0 02       		.byte	0x2
 15049 46f1 00       		.byte	0
 15050 46f2 04       		.byte	0x4
 15051 46f3 05       		.byte	0x5
 15052 46f4 00       		.byte	0
 15053 46f5 01       		.byte	0x1
 15054 46f6 02       		.byte	0x2
 15055 46f7 03       		.byte	0x3
 15056 46f8 04       		.byte	0x4
 15057 46f9 30       		.uleb128 0x30
 15058 46fa A1450000 		.4byte	0x45a1
 15059 46fe 49       		.uleb128 0x49
 15060 46ff A7040000 		.4byte	.LASF95
 15061 4703 04       		.byte	0x4
 15062 4704 9F       		.byte	0x9f
 15063 4705 22470000 		.4byte	0x4722
 15064 4709 18       		.byte	0x18
 15065 470a 03       		.byte	0x3
 15066 470b 01       		.byte	0x1
 15067 470c 02       		.byte	0x2
 15068 470d 03       		.byte	0x3
 15069 470e 02       		.byte	0x2
 15070 470f 00       		.byte	0
 15071 4710 04       		.byte	0x4
 15072 4711 02       		.byte	0x2
 15073 4712 00       		.byte	0
 15074 4713 04       		.byte	0x4
 15075 4714 03       		.byte	0x3
 15076 4715 01       		.byte	0x1
 15077 4716 02       		.byte	0x2
 15078 4717 03       		.byte	0x3
 15079 4718 02       		.byte	0x2
 15080 4719 00       		.byte	0
 15081 471a 04       		.byte	0x4
 15082 471b 02       		.byte	0x2
 15083 471c 00       		.byte	0
 15084 471d 04       		.byte	0x4
 15085 471e 03       		.byte	0x3
 15086 471f 01       		.byte	0x1
 15087 4720 02       		.byte	0x2
ARM GAS  C:\Users\legoc\AppData\Local\Temp\ccMAvaOS.s 			page 288


 15088 4721 03       		.byte	0x3
 15089 4722 30       		.uleb128 0x30
 15090 4723 7A460000 		.4byte	0x467a
 15091 4727 49       		.uleb128 0x49
 15092 4728 AE040000 		.4byte	.LASF96
 15093 472c 04       		.byte	0x4
 15094 472d B1       		.byte	0xb1
 15095 472e 49470000 		.4byte	0x4749
 15096 4732 16       		.byte	0x16
 15097 4733 02       		.byte	0x2
 15098 4734 01       		.byte	0x1
 15099 4735 02       		.byte	0x2
 15100 4736 01       		.byte	0x1
 15101 4737 03       		.byte	0x3
 15102 4738 01       		.byte	0x1
 15103 4739 04       		.byte	0x4
 15104 473a 04       		.byte	0x4
 15105 473b 01       		.byte	0x1
 15106 473c 02       		.byte	0x2
 15107 473d 03       		.byte	0x3
 15108 473e 04       		.byte	0x4
 15109 473f 02       		.byte	0x2
 15110 4740 00       		.byte	0
 15111 4741 04       		.byte	0x4
 15112 4742 02       		.byte	0x2
 15113 4743 00       		.byte	0
 15114 4744 04       		.byte	0x4
 15115 4745 03       		.byte	0x3
 15116 4746 01       		.byte	0x1
 15117 4747 02       		.byte	0x2
 15118 4748 03       		.byte	0x3
 15119 4749 30       		.uleb128 0x30
 15120 474a 43460000 		.4byte	0x4643
 15121 474e 06       		.uleb128 0x6
 15122 474f 10110000 		.4byte	0x1110
 15123 4753 5E470000 		.4byte	0x475e
 15124 4757 07       		.uleb128 0x7
 15125 4758 DF000000 		.4byte	0xdf
 15126 475c 07       		.byte	0x7
 15127 475d 00       		.byte	0
 15128 475e 49       		.uleb128 0x49
 15129 475f 31040000 		.4byte	.LASF97
 15130 4763 04       		.byte	0x4
 15131 4764 C3       		.byte	0xc3
 15132 4765 72470000 		.4byte	0x4772
 15133 4769 08       		.byte	0x8
 15134 476a 01       		.byte	0x1
 15135 476b 02       		.byte	0x2
 15136 476c 00       		.byte	0
 15137 476d 00       		.byte	0
 15138 476e 00       		.byte	0
 15139 476f 00       		.byte	0
 15140 4770 00       		.byte	0
 15141 4771 00       		.byte	0
 15142 4772 30       		.uleb128 0x30
 15143 4773 4E470000 		.4byte	0x474e
 15144 4777 49       		.uleb128 0x49
ARM GAS  C:\Users\legoc\AppData\Local\Temp\ccMAvaOS.s 			page 289


 15145 4778 40030000 		.4byte	.LASF98
 15146 477c 04       		.byte	0x4
 15147 477d D4       		.byte	0xd4
 15148 477e 98470000 		.4byte	0x4798
 15149 4782 15       		.byte	0x15
 15150 4783 04       		.byte	0x4
 15151 4784 01       		.byte	0x1
 15152 4785 02       		.byte	0x2
 15153 4786 03       		.byte	0x3
 15154 4787 04       		.byte	0x4
 15155 4788 01       		.byte	0x1
 15156 4789 00       		.byte	0
 15157 478a 04       		.byte	0x4
 15158 478b 04       		.byte	0x4
 15159 478c 01       		.byte	0x1
 15160 478d 02       		.byte	0x2
 15161 478e 03       		.byte	0x3
 15162 478f 04       		.byte	0x4
 15163 4790 01       		.byte	0x1
 15164 4791 04       		.byte	0x4
 15165 4792 03       		.byte	0x3
 15166 4793 02       		.byte	0x2
 15167 4794 03       		.byte	0x3
 15168 4795 04       		.byte	0x4
 15169 4796 00       		.byte	0
 15170 4797 00       		.byte	0
 15171 4798 30       		.uleb128 0x30
 15172 4799 0D460000 		.4byte	0x460d
 15173 479d 49       		.uleb128 0x49
 15174 479e 47030000 		.4byte	.LASF99
 15175 47a2 04       		.byte	0x4
 15176 47a3 E5       		.byte	0xe5
 15177 47a4 C0470000 		.4byte	0x47c0
 15178 47a8 17       		.byte	0x17
 15179 47a9 04       		.byte	0x4
 15180 47aa 00       		.byte	0
 15181 47ab 01       		.byte	0x1
 15182 47ac 02       		.byte	0x2
 15183 47ad 03       		.byte	0x3
 15184 47ae 02       		.byte	0x2
 15185 47af 00       		.byte	0
 15186 47b0 04       		.byte	0x4
 15187 47b1 02       		.byte	0x2
 15188 47b2 00       		.byte	0
 15189 47b3 04       		.byte	0x4
 15190 47b4 03       		.byte	0x3
 15191 47b5 00       		.byte	0
 15192 47b6 01       		.byte	0x1
 15193 47b7 04       		.byte	0x4
 15194 47b8 03       		.byte	0x3
 15195 47b9 00       		.byte	0
 15196 47ba 02       		.byte	0x2
 15197 47bb 03       		.byte	0x3
 15198 47bc 01       		.byte	0x1
 15199 47bd 00       		.byte	0
 15200 47be 01       		.byte	0x1
 15201 47bf 00       		.byte	0
ARM GAS  C:\Users\legoc\AppData\Local\Temp\ccMAvaOS.s 			page 290


 15202 47c0 30       		.uleb128 0x30
 15203 47c1 D5450000 		.4byte	0x45d5
 15204 47c5 06       		.uleb128 0x6
 15205 47c6 10110000 		.4byte	0x1110
 15206 47ca D5470000 		.4byte	0x47d5
 15207 47ce 07       		.uleb128 0x7
 15208 47cf DF000000 		.4byte	0xdf
 15209 47d3 11       		.byte	0x11
 15210 47d4 00       		.byte	0
 15211 47d5 49       		.uleb128 0x49
 15212 47d6 4E030000 		.4byte	.LASF100
 15213 47da 04       		.byte	0x4
 15214 47db F7       		.byte	0xf7
 15215 47dc F3470000 		.4byte	0x47f3
 15216 47e0 12       		.byte	0x12
 15217 47e1 03       		.byte	0x3
 15218 47e2 01       		.byte	0x1
 15219 47e3 02       		.byte	0x2
 15220 47e4 03       		.byte	0x3
 15221 47e5 02       		.byte	0x2
 15222 47e6 00       		.byte	0
 15223 47e7 04       		.byte	0x4
 15224 47e8 01       		.byte	0x1
 15225 47e9 00       		.byte	0
 15226 47ea 02       		.byte	0x2
 15227 47eb 00       		.byte	0
 15228 47ec 04       		.byte	0x4
 15229 47ed 03       		.byte	0x3
 15230 47ee 01       		.byte	0x1
 15231 47ef 02       		.byte	0x2
 15232 47f0 03       		.byte	0x3
 15233 47f1 00       		.byte	0
 15234 47f2 00       		.byte	0
 15235 47f3 30       		.uleb128 0x30
 15236 47f4 C5470000 		.4byte	0x47c5
 15237 47f8 4A       		.uleb128 0x4a
 15238 47f9 55030000 		.4byte	.LASF101
 15239 47fd 04       		.byte	0x4
 15240 47fe 0801     		.2byte	0x108
 15241 4800 1C480000 		.4byte	0x481c
 15242 4804 17       		.byte	0x17
 15243 4805 04       		.byte	0x4
 15244 4806 01       		.byte	0x1
 15245 4807 02       		.byte	0x2
 15246 4808 03       		.byte	0x3
 15247 4809 04       		.byte	0x4
 15248 480a 02       		.byte	0x2
 15249 480b 00       		.byte	0
 15250 480c 04       		.byte	0x4
 15251 480d 02       		.byte	0x2
 15252 480e 00       		.byte	0
 15253 480f 04       		.byte	0x4
 15254 4810 03       		.byte	0x3
 15255 4811 00       		.byte	0
 15256 4812 03       		.byte	0x3
 15257 4813 04       		.byte	0x4
 15258 4814 03       		.byte	0x3
ARM GAS  C:\Users\legoc\AppData\Local\Temp\ccMAvaOS.s 			page 291


 15259 4815 01       		.byte	0x1
 15260 4816 02       		.byte	0x2
 15261 4817 04       		.byte	0x4
 15262 4818 01       		.byte	0x1
 15263 4819 04       		.byte	0x4
 15264 481a 01       		.byte	0x1
 15265 481b 04       		.byte	0x4
 15266 481c 30       		.uleb128 0x30
 15267 481d D5450000 		.4byte	0x45d5
 15268 4821 4A       		.uleb128 0x4a
 15269 4822 5C030000 		.4byte	.LASF102
 15270 4826 04       		.byte	0x4
 15271 4827 1A01     		.2byte	0x11a
 15272 4829 44480000 		.4byte	0x4844
 15273 482d 16       		.byte	0x16
 15274 482e 04       		.byte	0x4
 15275 482f 01       		.byte	0x1
 15276 4830 02       		.byte	0x2
 15277 4831 03       		.byte	0x3
 15278 4832 04       		.byte	0x4
 15279 4833 01       		.byte	0x1
 15280 4834 00       		.byte	0
 15281 4835 05       		.byte	0x5
 15282 4836 00       		.byte	0
 15283 4837 01       		.byte	0x1
 15284 4838 02       		.byte	0x2
 15285 4839 03       		.byte	0x3
 15286 483a 04       		.byte	0x4
 15287 483b 02       		.byte	0x2
 15288 483c 00       		.byte	0
 15289 483d 04       		.byte	0x4
 15290 483e 03       		.byte	0x3
 15291 483f 01       		.byte	0x1
 15292 4840 02       		.byte	0x2
 15293 4841 03       		.byte	0x3
 15294 4842 00       		.byte	0
 15295 4843 00       		.byte	0
 15296 4844 30       		.uleb128 0x30
 15297 4845 43460000 		.4byte	0x4643
 15298 4849 4A       		.uleb128 0x4a
 15299 484a 63030000 		.4byte	.LASF103
 15300 484e 04       		.byte	0x4
 15301 484f 2B01     		.2byte	0x12b
 15302 4851 68480000 		.4byte	0x4868
 15303 4855 12       		.byte	0x12
 15304 4856 01       		.byte	0x1
 15305 4857 02       		.byte	0x2
 15306 4858 01       		.byte	0x1
 15307 4859 02       		.byte	0x2
 15308 485a 01       		.byte	0x1
 15309 485b 02       		.byte	0x2
 15310 485c 01       		.byte	0x1
 15311 485d 02       		.byte	0x2
 15312 485e 04       		.byte	0x4
 15313 485f 01       		.byte	0x1
 15314 4860 02       		.byte	0x2
 15315 4861 03       		.byte	0x3
ARM GAS  C:\Users\legoc\AppData\Local\Temp\ccMAvaOS.s 			page 292


 15316 4862 04       		.byte	0x4
 15317 4863 01       		.byte	0x1
 15318 4864 02       		.byte	0x2
 15319 4865 02       		.byte	0x2
 15320 4866 03       		.byte	0x3
 15321 4867 04       		.byte	0x4
 15322 4868 30       		.uleb128 0x30
 15323 4869 C5470000 		.4byte	0x47c5
 15324 486d 4A       		.uleb128 0x4a
 15325 486e 6A030000 		.4byte	.LASF104
 15326 4872 04       		.byte	0x4
 15327 4873 3F01     		.2byte	0x13f
 15328 4875 92480000 		.4byte	0x4892
 15329 4879 18       		.byte	0x18
 15330 487a 04       		.byte	0x4
 15331 487b 00       		.byte	0
 15332 487c 01       		.byte	0x1
 15333 487d 02       		.byte	0x2
 15334 487e 03       		.byte	0x3
 15335 487f 01       		.byte	0x1
 15336 4880 04       		.byte	0x4
 15337 4881 04       		.byte	0x4
 15338 4882 01       		.byte	0x1
 15339 4883 02       		.byte	0x2
 15340 4884 03       		.byte	0x3
 15341 4885 04       		.byte	0x4
 15342 4886 02       		.byte	0x2
 15343 4887 00       		.byte	0
 15344 4888 04       		.byte	0x4
 15345 4889 02       		.byte	0x2
 15346 488a 00       		.byte	0
 15347 488b 04       		.byte	0x4
 15348 488c 04       		.byte	0x4
 15349 488d 01       		.byte	0x1
 15350 488e 02       		.byte	0x2
 15351 488f 03       		.byte	0x3
 15352 4890 04       		.byte	0x4
 15353 4891 00       		.byte	0
 15354 4892 30       		.uleb128 0x30
 15355 4893 7A460000 		.4byte	0x467a
 15356 4897 4A       		.uleb128 0x4a
 15357 4898 71030000 		.4byte	.LASF105
 15358 489c 04       		.byte	0x4
 15359 489d 5001     		.2byte	0x150
 15360 489f B9480000 		.4byte	0x48b9
 15361 48a3 15       		.byte	0x15
 15362 48a4 02       		.byte	0x2
 15363 48a5 00       		.byte	0
 15364 48a6 04       		.byte	0x4
 15365 48a7 02       		.byte	0x2
 15366 48a8 00       		.byte	0
 15367 48a9 04       		.byte	0x4
 15368 48aa 02       		.byte	0x2
 15369 48ab 00       		.byte	0
 15370 48ac 04       		.byte	0x4
 15371 48ad 03       		.byte	0x3
 15372 48ae 00       		.byte	0
ARM GAS  C:\Users\legoc\AppData\Local\Temp\ccMAvaOS.s 			page 293


 15373 48af 01       		.byte	0x1
 15374 48b0 04       		.byte	0x4
 15375 48b1 03       		.byte	0x3
 15376 48b2 00       		.byte	0
 15377 48b3 02       		.byte	0x2
 15378 48b4 03       		.byte	0x3
 15379 48b5 01       		.byte	0x1
 15380 48b6 00       		.byte	0
 15381 48b7 01       		.byte	0x1
 15382 48b8 00       		.byte	0
 15383 48b9 30       		.uleb128 0x30
 15384 48ba 0D460000 		.4byte	0x460d
 15385 48be 06       		.uleb128 0x6
 15386 48bf 10110000 		.4byte	0x1110
 15387 48c3 CE480000 		.4byte	0x48ce
 15388 48c7 07       		.uleb128 0x7
 15389 48c8 DF000000 		.4byte	0xdf
 15390 48cc 0C       		.byte	0xc
 15391 48cd 00       		.byte	0
 15392 48ce 4A       		.uleb128 0x4a
 15393 48cf 78030000 		.4byte	.LASF106
 15394 48d3 04       		.byte	0x4
 15395 48d4 6201     		.2byte	0x162
 15396 48d6 E8480000 		.4byte	0x48e8
 15397 48da 0D       		.byte	0xd
 15398 48db 01       		.byte	0x1
 15399 48dc 02       		.byte	0x2
 15400 48dd 01       		.byte	0x1
 15401 48de 02       		.byte	0x2
 15402 48df 01       		.byte	0x1
 15403 48e0 02       		.byte	0x2
 15404 48e1 01       		.byte	0x1
 15405 48e2 02       		.byte	0x2
 15406 48e3 01       		.byte	0x1
 15407 48e4 02       		.byte	0x2
 15408 48e5 00       		.byte	0
 15409 48e6 01       		.byte	0x1
 15410 48e7 02       		.byte	0x2
 15411 48e8 30       		.uleb128 0x30
 15412 48e9 BE480000 		.4byte	0x48be
 15413 48ed 06       		.uleb128 0x6
 15414 48ee 10110000 		.4byte	0x1110
 15415 48f2 FD480000 		.4byte	0x48fd
 15416 48f6 4B       		.uleb128 0x4b
 15417 48f7 FD480000 		.4byte	0x48fd
 15418 48fb 7F       		.sleb128 -1
 15419 48fc 00       		.byte	0
 15420 48fd 02       		.uleb128 0x2
 15421 48fe 04       		.byte	0x4
 15422 48ff 05       		.byte	0x5
 15423 4900 36030000 		.4byte	.LASF107
 15424 4904 12       		.uleb128 0x12
 15425 4905 7F030000 		.4byte	.LASF108
 15426 4909 04       		.byte	0x4
 15427 490a 7501     		.2byte	0x175
 15428 490c 10490000 		.4byte	0x4910
 15429 4910 30       		.uleb128 0x30
ARM GAS  C:\Users\legoc\AppData\Local\Temp\ccMAvaOS.s 			page 294


 15430 4911 ED480000 		.4byte	0x48ed
 15431 4915 06       		.uleb128 0x6
 15432 4916 10110000 		.4byte	0x1110
 15433 491a 25490000 		.4byte	0x4925
 15434 491e 07       		.uleb128 0x7
 15435 491f DF000000 		.4byte	0xdf
 15436 4923 1B       		.byte	0x1b
 15437 4924 00       		.byte	0
 15438 4925 4A       		.uleb128 0x4a
 15439 4926 E2020000 		.4byte	.LASF109
 15440 492a 04       		.byte	0x4
 15441 492b 7C01     		.2byte	0x17c
 15442 492d 4E490000 		.4byte	0x494e
 15443 4931 1C       		.byte	0x1c
 15444 4932 02       		.byte	0x2
 15445 4933 00       		.byte	0
 15446 4934 04       		.byte	0x4
 15447 4935 02       		.byte	0x2
 15448 4936 00       		.byte	0
 15449 4937 04       		.byte	0x4
 15450 4938 02       		.byte	0x2
 15451 4939 00       		.byte	0
 15452 493a 04       		.byte	0x4
 15453 493b 02       		.byte	0x2
 15454 493c 00       		.byte	0
 15455 493d 04       		.byte	0x4
 15456 493e 02       		.byte	0x2
 15457 493f 00       		.byte	0
 15458 4940 04       		.byte	0x4
 15459 4941 05       		.byte	0x5
 15460 4942 00       		.byte	0
 15461 4943 01       		.byte	0x1
 15462 4944 02       		.byte	0x2
 15463 4945 03       		.byte	0x3
 15464 4946 04       		.byte	0x4
 15465 4947 02       		.byte	0x2
 15466 4948 00       		.byte	0
 15467 4949 04       		.byte	0x4
 15468 494a 03       		.byte	0x3
 15469 494b 01       		.byte	0x1
 15470 494c 02       		.byte	0x2
 15471 494d 03       		.byte	0x3
 15472 494e 30       		.uleb128 0x30
 15473 494f 15490000 		.4byte	0x4915
 15474 4953 06       		.uleb128 0x6
 15475 4954 10110000 		.4byte	0x1110
 15476 4958 63490000 		.4byte	0x4963
 15477 495c 07       		.uleb128 0x7
 15478 495d DF000000 		.4byte	0xdf
 15479 4961 1A       		.byte	0x1a
 15480 4962 00       		.byte	0
 15481 4963 4A       		.uleb128 0x4a
 15482 4964 E9020000 		.4byte	.LASF110
 15483 4968 04       		.byte	0x4
 15484 4969 9001     		.2byte	0x190
 15485 496b 8B490000 		.4byte	0x498b
 15486 496f 1B       		.byte	0x1b
ARM GAS  C:\Users\legoc\AppData\Local\Temp\ccMAvaOS.s 			page 295


 15487 4970 04       		.byte	0x4
 15488 4971 00       		.byte	0
 15489 4972 01       		.byte	0x1
 15490 4973 02       		.byte	0x2
 15491 4974 03       		.byte	0x3
 15492 4975 02       		.byte	0x2
 15493 4976 00       		.byte	0
 15494 4977 04       		.byte	0x4
 15495 4978 02       		.byte	0x2
 15496 4979 00       		.byte	0
 15497 497a 04       		.byte	0x4
 15498 497b 02       		.byte	0x2
 15499 497c 00       		.byte	0
 15500 497d 04       		.byte	0x4
 15501 497e 04       		.byte	0x4
 15502 497f 00       		.byte	0
 15503 4980 01       		.byte	0x1
 15504 4981 02       		.byte	0x2
 15505 4982 03       		.byte	0x3
 15506 4983 02       		.byte	0x2
 15507 4984 00       		.byte	0
 15508 4985 04       		.byte	0x4
 15509 4986 04       		.byte	0x4
 15510 4987 00       		.byte	0
 15511 4988 01       		.byte	0x1
 15512 4989 02       		.byte	0x2
 15513 498a 03       		.byte	0x3
 15514 498b 30       		.uleb128 0x30
 15515 498c 53490000 		.4byte	0x4953
 15516 4990 06       		.uleb128 0x6
 15517 4991 10110000 		.4byte	0x1110
 15518 4995 A0490000 		.4byte	0x49a0
 15519 4999 07       		.uleb128 0x7
 15520 499a DF000000 		.4byte	0xdf
 15521 499e 13       		.byte	0x13
 15522 499f 00       		.byte	0
 15523 49a0 4A       		.uleb128 0x4a
 15524 49a1 F0020000 		.4byte	.LASF111
 15525 49a5 04       		.byte	0x4
 15526 49a6 A201     		.2byte	0x1a2
 15527 49a8 C1490000 		.4byte	0x49c1
 15528 49ac 14       		.byte	0x14
 15529 49ad 03       		.byte	0x3
 15530 49ae 01       		.byte	0x1
 15531 49af 02       		.byte	0x2
 15532 49b0 03       		.byte	0x3
 15533 49b1 02       		.byte	0x2
 15534 49b2 00       		.byte	0
 15535 49b3 04       		.byte	0x4
 15536 49b4 01       		.byte	0x1
 15537 49b5 00       		.byte	0
 15538 49b6 01       		.byte	0x1
 15539 49b7 00       		.byte	0
 15540 49b8 01       		.byte	0x1
 15541 49b9 00       		.byte	0
 15542 49ba 02       		.byte	0x2
 15543 49bb 00       		.byte	0
ARM GAS  C:\Users\legoc\AppData\Local\Temp\ccMAvaOS.s 			page 296


 15544 49bc 04       		.byte	0x4
 15545 49bd 03       		.byte	0x3
 15546 49be 01       		.byte	0x1
 15547 49bf 02       		.byte	0x2
 15548 49c0 03       		.byte	0x3
 15549 49c1 30       		.uleb128 0x30
 15550 49c2 90490000 		.4byte	0x4990
 15551 49c6 06       		.uleb128 0x6
 15552 49c7 10110000 		.4byte	0x1110
 15553 49cb D6490000 		.4byte	0x49d6
 15554 49cf 07       		.uleb128 0x7
 15555 49d0 DF000000 		.4byte	0xdf
 15556 49d4 18       		.byte	0x18
 15557 49d5 00       		.byte	0
 15558 49d6 4A       		.uleb128 0x4a
 15559 49d7 F7020000 		.4byte	.LASF112
 15560 49db 04       		.byte	0x4
 15561 49dc B401     		.2byte	0x1b4
 15562 49de FC490000 		.4byte	0x49fc
 15563 49e2 19       		.byte	0x19
 15564 49e3 04       		.byte	0x4
 15565 49e4 00       		.byte	0
 15566 49e5 01       		.byte	0x1
 15567 49e6 02       		.byte	0x2
 15568 49e7 03       		.byte	0x3
 15569 49e8 02       		.byte	0x2
 15570 49e9 00       		.byte	0
 15571 49ea 04       		.byte	0x4
 15572 49eb 02       		.byte	0x2
 15573 49ec 00       		.byte	0
 15574 49ed 04       		.byte	0x4
 15575 49ee 02       		.byte	0x2
 15576 49ef 00       		.byte	0
 15577 49f0 04       		.byte	0x4
 15578 49f1 02       		.byte	0x2
 15579 49f2 00       		.byte	0
 15580 49f3 04       		.byte	0x4
 15581 49f4 02       		.byte	0x2
 15582 49f5 00       		.byte	0
 15583 49f6 04       		.byte	0x4
 15584 49f7 04       		.byte	0x4
 15585 49f8 00       		.byte	0
 15586 49f9 01       		.byte	0x1
 15587 49fa 02       		.byte	0x2
 15588 49fb 03       		.byte	0x3
 15589 49fc 30       		.uleb128 0x30
 15590 49fd C6490000 		.4byte	0x49c6
 15591 4a01 4A       		.uleb128 0x4a
 15592 4a02 FE020000 		.4byte	.LASF113
 15593 4a06 04       		.byte	0x4
 15594 4a07 C701     		.2byte	0x1c7
 15595 4a09 274A0000 		.4byte	0x4a27
 15596 4a0d 19       		.byte	0x19
 15597 4a0e 05       		.byte	0x5
 15598 4a0f 00       		.byte	0
 15599 4a10 01       		.byte	0x1
 15600 4a11 02       		.byte	0x2
ARM GAS  C:\Users\legoc\AppData\Local\Temp\ccMAvaOS.s 			page 297


 15601 4a12 03       		.byte	0x3
 15602 4a13 04       		.byte	0x4
 15603 4a14 01       		.byte	0x1
 15604 4a15 00       		.byte	0
 15605 4a16 01       		.byte	0x1
 15606 4a17 00       		.byte	0
 15607 4a18 04       		.byte	0x4
 15608 4a19 00       		.byte	0
 15609 4a1a 01       		.byte	0x1
 15610 4a1b 02       		.byte	0x2
 15611 4a1c 03       		.byte	0x3
 15612 4a1d 01       		.byte	0x1
 15613 4a1e 00       		.byte	0
 15614 4a1f 01       		.byte	0x1
 15615 4a20 00       		.byte	0
 15616 4a21 05       		.byte	0x5
 15617 4a22 00       		.byte	0
 15618 4a23 01       		.byte	0x1
 15619 4a24 02       		.byte	0x2
 15620 4a25 03       		.byte	0x3
 15621 4a26 04       		.byte	0x4
 15622 4a27 30       		.uleb128 0x30
 15623 4a28 C6490000 		.4byte	0x49c6
 15624 4a2c 4A       		.uleb128 0x4a
 15625 4a2d 05030000 		.4byte	.LASF114
 15626 4a31 04       		.byte	0x4
 15627 4a32 D901     		.2byte	0x1d9
 15628 4a34 4D4A0000 		.4byte	0x4a4d
 15629 4a38 14       		.byte	0x14
 15630 4a39 01       		.byte	0x1
 15631 4a3a 00       		.byte	0
 15632 4a3b 01       		.byte	0x1
 15633 4a3c 00       		.byte	0
 15634 4a3d 01       		.byte	0x1
 15635 4a3e 00       		.byte	0
 15636 4a3f 01       		.byte	0x1
 15637 4a40 00       		.byte	0
 15638 4a41 03       		.byte	0x3
 15639 4a42 00       		.byte	0
 15640 4a43 01       		.byte	0x1
 15641 4a44 02       		.byte	0x2
 15642 4a45 01       		.byte	0x1
 15643 4a46 00       		.byte	0
 15644 4a47 05       		.byte	0x5
 15645 4a48 00       		.byte	0
 15646 4a49 01       		.byte	0x1
 15647 4a4a 02       		.byte	0x2
 15648 4a4b 03       		.byte	0x3
 15649 4a4c 04       		.byte	0x4
 15650 4a4d 30       		.uleb128 0x30
 15651 4a4e 90490000 		.4byte	0x4990
 15652 4a52 4A       		.uleb128 0x4a
 15653 4a53 0C030000 		.4byte	.LASF115
 15654 4a57 04       		.byte	0x4
 15655 4a58 EB01     		.2byte	0x1eb
 15656 4a5a 774A0000 		.4byte	0x4a77
 15657 4a5e 18       		.byte	0x18
ARM GAS  C:\Users\legoc\AppData\Local\Temp\ccMAvaOS.s 			page 298


 15658 4a5f 03       		.byte	0x3
 15659 4a60 01       		.byte	0x1
 15660 4a61 02       		.byte	0x2
 15661 4a62 03       		.byte	0x3
 15662 4a63 02       		.byte	0x2
 15663 4a64 00       		.byte	0
 15664 4a65 04       		.byte	0x4
 15665 4a66 02       		.byte	0x2
 15666 4a67 00       		.byte	0
 15667 4a68 04       		.byte	0x4
 15668 4a69 02       		.byte	0x2
 15669 4a6a 00       		.byte	0
 15670 4a6b 04       		.byte	0x4
 15671 4a6c 03       		.byte	0x3
 15672 4a6d 00       		.byte	0
 15673 4a6e 03       		.byte	0x3
 15674 4a6f 04       		.byte	0x4
 15675 4a70 01       		.byte	0x1
 15676 4a71 00       		.byte	0
 15677 4a72 04       		.byte	0x4
 15678 4a73 01       		.byte	0x1
 15679 4a74 02       		.byte	0x2
 15680 4a75 03       		.byte	0x3
 15681 4a76 04       		.byte	0x4
 15682 4a77 30       		.uleb128 0x30
 15683 4a78 7A460000 		.4byte	0x467a
 15684 4a7c 06       		.uleb128 0x6
 15685 4a7d 10110000 		.4byte	0x1110
 15686 4a81 8C4A0000 		.4byte	0x4a8c
 15687 4a85 07       		.uleb128 0x7
 15688 4a86 DF000000 		.4byte	0xdf
 15689 4a8a 6E       		.byte	0x6e
 15690 4a8b 00       		.byte	0
 15691 4a8c 38       		.uleb128 0x38
 15692 4a8d DB030000 		.4byte	.LASF116
 15693 4a91 01       		.byte	0x1
 15694 4a92 10       		.byte	0x10
 15695 4a93 9D4A0000 		.4byte	0x4a9d
 15696 4a97 05       		.uleb128 0x5
 15697 4a98 03       		.byte	0x3
 15698 4a99 00000000 		.4byte	initcmd
 15699 4a9d 30       		.uleb128 0x30
 15700 4a9e 7C4A0000 		.4byte	0x4a7c
 15701 4aa2 4C       		.uleb128 0x4c
 15702 4aa3 66060000 		.4byte	.LASF117
 15703 4aa7 05       		.byte	0x5
 15704 4aa8 07       		.byte	0x7
 15705 4aa9 89000000 		.4byte	0x89
 15706 4aad 4C       		.uleb128 0x4c
 15707 4aae 3D040000 		.4byte	.LASF118
 15708 4ab2 05       		.byte	0x5
 15709 4ab3 09       		.byte	0x9
 15710 4ab4 89000000 		.4byte	0x89
 15711 4ab8 4C       		.uleb128 0x4c
 15712 4ab9 45060000 		.4byte	.LASF119
 15713 4abd 05       		.byte	0x5
 15714 4abe 0A       		.byte	0xa
ARM GAS  C:\Users\legoc\AppData\Local\Temp\ccMAvaOS.s 			page 299


 15715 4abf 89000000 		.4byte	0x89
 15716 4ac3 4C       		.uleb128 0x4c
 15717 4ac4 82020000 		.4byte	.LASF120
 15718 4ac8 05       		.byte	0x5
 15719 4ac9 0B       		.byte	0xb
 15720 4aca 89000000 		.4byte	0x89
 15721 4ace 4D       		.uleb128 0x4d
 15722 4acf 4C050000 		.4byte	.LASF121
 15723 4ad3 4C050000 		.4byte	.LASF121
 15724 4ad7 06       		.byte	0x6
 15725 4ad8 26       		.byte	0x26
 15726 4ad9 4D       		.uleb128 0x4d
 15727 4ada 2D060000 		.4byte	.LASF122
 15728 4ade 2D060000 		.4byte	.LASF122
 15729 4ae2 07       		.byte	0x7
 15730 4ae3 5E       		.byte	0x5e
 15731 4ae4 4D       		.uleb128 0x4d
 15732 4ae5 6B050000 		.4byte	.LASF123
 15733 4ae9 6B050000 		.4byte	.LASF123
 15734 4aed 08       		.byte	0x8
 15735 4aee 29       		.byte	0x29
 15736 4aef 4D       		.uleb128 0x4d
 15737 4af0 51020000 		.4byte	.LASF124
 15738 4af4 51020000 		.4byte	.LASF124
 15739 4af8 08       		.byte	0x8
 15740 4af9 26       		.byte	0x26
 15741 4afa 4E       		.uleb128 0x4e
 15742 4afb 8B030000 		.4byte	.LASF47
 15743 4aff 8B030000 		.4byte	.LASF47
 15744 4b03 01       		.byte	0x1
 15745 4b04 4F01     		.2byte	0x14f
 15746 4b06 4F       		.uleb128 0x4f
 15747 4b07 3E060000 		.4byte	.LASF131
 15748 4b0b 3E060000 		.4byte	.LASF131
 15749 4b0f 4D       		.uleb128 0x4d
 15750 4b10 BC030000 		.4byte	.LASF125
 15751 4b14 BC030000 		.4byte	.LASF125
 15752 4b18 09       		.byte	0x9
 15753 4b19 76       		.byte	0x76
 15754 4b1a 4D       		.uleb128 0x4d
 15755 4b1b DE040000 		.4byte	.LASF126
 15756 4b1f DE040000 		.4byte	.LASF126
 15757 4b23 0A       		.byte	0xa
 15758 4b24 E7       		.byte	0xe7
 15759 4b25 4D       		.uleb128 0x4d
 15760 4b26 1E040000 		.4byte	.LASF127
 15761 4b2a 1E040000 		.4byte	.LASF127
 15762 4b2e 0B       		.byte	0xb
 15763 4b2f CB       		.byte	0xcb
 15764 4b30 00       		.byte	0
 15765              		.section	.debug_abbrev,"",%progbits
 15766              	.Ldebug_abbrev0:
 15767 0000 01       		.uleb128 0x1
 15768 0001 11       		.uleb128 0x11
 15769 0002 01       		.byte	0x1
 15770 0003 25       		.uleb128 0x25
 15771 0004 0E       		.uleb128 0xe
ARM GAS  C:\Users\legoc\AppData\Local\Temp\ccMAvaOS.s 			page 300


 15772 0005 13       		.uleb128 0x13
 15773 0006 0B       		.uleb128 0xb
 15774 0007 03       		.uleb128 0x3
 15775 0008 0E       		.uleb128 0xe
 15776 0009 1B       		.uleb128 0x1b
 15777 000a 0E       		.uleb128 0xe
 15778 000b 55       		.uleb128 0x55
 15779 000c 17       		.uleb128 0x17
 15780 000d 11       		.uleb128 0x11
 15781 000e 01       		.uleb128 0x1
 15782 000f 10       		.uleb128 0x10
 15783 0010 17       		.uleb128 0x17
 15784 0011 00       		.byte	0
 15785 0012 00       		.byte	0
 15786 0013 02       		.uleb128 0x2
 15787 0014 24       		.uleb128 0x24
 15788 0015 00       		.byte	0
 15789 0016 0B       		.uleb128 0xb
 15790 0017 0B       		.uleb128 0xb
 15791 0018 3E       		.uleb128 0x3e
 15792 0019 0B       		.uleb128 0xb
 15793 001a 03       		.uleb128 0x3
 15794 001b 0E       		.uleb128 0xe
 15795 001c 00       		.byte	0
 15796 001d 00       		.byte	0
 15797 001e 03       		.uleb128 0x3
 15798 001f 16       		.uleb128 0x16
 15799 0020 00       		.byte	0
 15800 0021 03       		.uleb128 0x3
 15801 0022 0E       		.uleb128 0xe
 15802 0023 3A       		.uleb128 0x3a
 15803 0024 0B       		.uleb128 0xb
 15804 0025 3B       		.uleb128 0x3b
 15805 0026 0B       		.uleb128 0xb
 15806 0027 49       		.uleb128 0x49
 15807 0028 13       		.uleb128 0x13
 15808 0029 00       		.byte	0
 15809 002a 00       		.byte	0
 15810 002b 04       		.uleb128 0x4
 15811 002c 24       		.uleb128 0x24
 15812 002d 00       		.byte	0
 15813 002e 0B       		.uleb128 0xb
 15814 002f 0B       		.uleb128 0xb
 15815 0030 3E       		.uleb128 0x3e
 15816 0031 0B       		.uleb128 0xb
 15817 0032 03       		.uleb128 0x3
 15818 0033 08       		.uleb128 0x8
 15819 0034 00       		.byte	0
 15820 0035 00       		.byte	0
 15821 0036 05       		.uleb128 0x5
 15822 0037 0F       		.uleb128 0xf
 15823 0038 00       		.byte	0
 15824 0039 0B       		.uleb128 0xb
 15825 003a 0B       		.uleb128 0xb
 15826 003b 49       		.uleb128 0x49
 15827 003c 13       		.uleb128 0x13
 15828 003d 00       		.byte	0
ARM GAS  C:\Users\legoc\AppData\Local\Temp\ccMAvaOS.s 			page 301


 15829 003e 00       		.byte	0
 15830 003f 06       		.uleb128 0x6
 15831 0040 01       		.uleb128 0x1
 15832 0041 01       		.byte	0x1
 15833 0042 49       		.uleb128 0x49
 15834 0043 13       		.uleb128 0x13
 15835 0044 01       		.uleb128 0x1
 15836 0045 13       		.uleb128 0x13
 15837 0046 00       		.byte	0
 15838 0047 00       		.byte	0
 15839 0048 07       		.uleb128 0x7
 15840 0049 21       		.uleb128 0x21
 15841 004a 00       		.byte	0
 15842 004b 49       		.uleb128 0x49
 15843 004c 13       		.uleb128 0x13
 15844 004d 2F       		.uleb128 0x2f
 15845 004e 0B       		.uleb128 0xb
 15846 004f 00       		.byte	0
 15847 0050 00       		.byte	0
 15848 0051 08       		.uleb128 0x8
 15849 0052 2E       		.uleb128 0x2e
 15850 0053 01       		.byte	0x1
 15851 0054 3F       		.uleb128 0x3f
 15852 0055 19       		.uleb128 0x19
 15853 0056 03       		.uleb128 0x3
 15854 0057 0E       		.uleb128 0xe
 15855 0058 3A       		.uleb128 0x3a
 15856 0059 0B       		.uleb128 0xb
 15857 005a 3B       		.uleb128 0x3b
 15858 005b 0B       		.uleb128 0xb
 15859 005c 27       		.uleb128 0x27
 15860 005d 19       		.uleb128 0x19
 15861 005e 20       		.uleb128 0x20
 15862 005f 0B       		.uleb128 0xb
 15863 0060 01       		.uleb128 0x1
 15864 0061 13       		.uleb128 0x13
 15865 0062 00       		.byte	0
 15866 0063 00       		.byte	0
 15867 0064 09       		.uleb128 0x9
 15868 0065 05       		.uleb128 0x5
 15869 0066 00       		.byte	0
 15870 0067 03       		.uleb128 0x3
 15871 0068 08       		.uleb128 0x8
 15872 0069 3A       		.uleb128 0x3a
 15873 006a 0B       		.uleb128 0xb
 15874 006b 3B       		.uleb128 0x3b
 15875 006c 0B       		.uleb128 0xb
 15876 006d 49       		.uleb128 0x49
 15877 006e 13       		.uleb128 0x13
 15878 006f 00       		.byte	0
 15879 0070 00       		.byte	0
 15880 0071 0A       		.uleb128 0xa
 15881 0072 05       		.uleb128 0x5
 15882 0073 00       		.byte	0
 15883 0074 03       		.uleb128 0x3
 15884 0075 0E       		.uleb128 0xe
 15885 0076 3A       		.uleb128 0x3a
ARM GAS  C:\Users\legoc\AppData\Local\Temp\ccMAvaOS.s 			page 302


 15886 0077 0B       		.uleb128 0xb
 15887 0078 3B       		.uleb128 0x3b
 15888 0079 0B       		.uleb128 0xb
 15889 007a 49       		.uleb128 0x49
 15890 007b 13       		.uleb128 0x13
 15891 007c 00       		.byte	0
 15892 007d 00       		.byte	0
 15893 007e 0B       		.uleb128 0xb
 15894 007f 34       		.uleb128 0x34
 15895 0080 00       		.byte	0
 15896 0081 03       		.uleb128 0x3
 15897 0082 08       		.uleb128 0x8
 15898 0083 3A       		.uleb128 0x3a
 15899 0084 0B       		.uleb128 0xb
 15900 0085 3B       		.uleb128 0x3b
 15901 0086 0B       		.uleb128 0xb
 15902 0087 49       		.uleb128 0x49
 15903 0088 13       		.uleb128 0x13
 15904 0089 00       		.byte	0
 15905 008a 00       		.byte	0
 15906 008b 0C       		.uleb128 0xc
 15907 008c 2E       		.uleb128 0x2e
 15908 008d 01       		.byte	0x1
 15909 008e 3F       		.uleb128 0x3f
 15910 008f 19       		.uleb128 0x19
 15911 0090 03       		.uleb128 0x3
 15912 0091 0E       		.uleb128 0xe
 15913 0092 3A       		.uleb128 0x3a
 15914 0093 0B       		.uleb128 0xb
 15915 0094 3B       		.uleb128 0x3b
 15916 0095 05       		.uleb128 0x5
 15917 0096 27       		.uleb128 0x27
 15918 0097 19       		.uleb128 0x19
 15919 0098 20       		.uleb128 0x20
 15920 0099 0B       		.uleb128 0xb
 15921 009a 01       		.uleb128 0x1
 15922 009b 13       		.uleb128 0x13
 15923 009c 00       		.byte	0
 15924 009d 00       		.byte	0
 15925 009e 0D       		.uleb128 0xd
 15926 009f 05       		.uleb128 0x5
 15927 00a0 00       		.byte	0
 15928 00a1 03       		.uleb128 0x3
 15929 00a2 08       		.uleb128 0x8
 15930 00a3 3A       		.uleb128 0x3a
 15931 00a4 0B       		.uleb128 0xb
 15932 00a5 3B       		.uleb128 0x3b
 15933 00a6 05       		.uleb128 0x5
 15934 00a7 49       		.uleb128 0x49
 15935 00a8 13       		.uleb128 0x13
 15936 00a9 00       		.byte	0
 15937 00aa 00       		.byte	0
 15938 00ab 0E       		.uleb128 0xe
 15939 00ac 05       		.uleb128 0x5
 15940 00ad 00       		.byte	0
 15941 00ae 03       		.uleb128 0x3
 15942 00af 0E       		.uleb128 0xe
ARM GAS  C:\Users\legoc\AppData\Local\Temp\ccMAvaOS.s 			page 303


 15943 00b0 3A       		.uleb128 0x3a
 15944 00b1 0B       		.uleb128 0xb
 15945 00b2 3B       		.uleb128 0x3b
 15946 00b3 05       		.uleb128 0x5
 15947 00b4 49       		.uleb128 0x49
 15948 00b5 13       		.uleb128 0x13
 15949 00b6 00       		.byte	0
 15950 00b7 00       		.byte	0
 15951 00b8 0F       		.uleb128 0xf
 15952 00b9 0B       		.uleb128 0xb
 15953 00ba 01       		.byte	0x1
 15954 00bb 01       		.uleb128 0x1
 15955 00bc 13       		.uleb128 0x13
 15956 00bd 00       		.byte	0
 15957 00be 00       		.byte	0
 15958 00bf 10       		.uleb128 0x10
 15959 00c0 34       		.uleb128 0x34
 15960 00c1 00       		.byte	0
 15961 00c2 03       		.uleb128 0x3
 15962 00c3 08       		.uleb128 0x8
 15963 00c4 3A       		.uleb128 0x3a
 15964 00c5 0B       		.uleb128 0xb
 15965 00c6 3B       		.uleb128 0x3b
 15966 00c7 05       		.uleb128 0x5
 15967 00c8 49       		.uleb128 0x49
 15968 00c9 13       		.uleb128 0x13
 15969 00ca 00       		.byte	0
 15970 00cb 00       		.byte	0
 15971 00cc 11       		.uleb128 0x11
 15972 00cd 0B       		.uleb128 0xb
 15973 00ce 01       		.byte	0x1
 15974 00cf 00       		.byte	0
 15975 00d0 00       		.byte	0
 15976 00d1 12       		.uleb128 0x12
 15977 00d2 34       		.uleb128 0x34
 15978 00d3 00       		.byte	0
 15979 00d4 03       		.uleb128 0x3
 15980 00d5 0E       		.uleb128 0xe
 15981 00d6 3A       		.uleb128 0x3a
 15982 00d7 0B       		.uleb128 0xb
 15983 00d8 3B       		.uleb128 0x3b
 15984 00d9 05       		.uleb128 0x5
 15985 00da 49       		.uleb128 0x49
 15986 00db 13       		.uleb128 0x13
 15987 00dc 00       		.byte	0
 15988 00dd 00       		.byte	0
 15989 00de 13       		.uleb128 0x13
 15990 00df 2E       		.uleb128 0x2e
 15991 00e0 01       		.byte	0x1
 15992 00e1 3F       		.uleb128 0x3f
 15993 00e2 19       		.uleb128 0x19
 15994 00e3 03       		.uleb128 0x3
 15995 00e4 0E       		.uleb128 0xe
 15996 00e5 3A       		.uleb128 0x3a
 15997 00e6 0B       		.uleb128 0xb
 15998 00e7 3B       		.uleb128 0x3b
 15999 00e8 05       		.uleb128 0x5
ARM GAS  C:\Users\legoc\AppData\Local\Temp\ccMAvaOS.s 			page 304


 16000 00e9 49       		.uleb128 0x49
 16001 00ea 13       		.uleb128 0x13
 16002 00eb 20       		.uleb128 0x20
 16003 00ec 0B       		.uleb128 0xb
 16004 00ed 00       		.byte	0
 16005 00ee 00       		.byte	0
 16006 00ef 14       		.uleb128 0x14
 16007 00f0 18       		.uleb128 0x18
 16008 00f1 00       		.byte	0
 16009 00f2 00       		.byte	0
 16010 00f3 00       		.byte	0
 16011 00f4 15       		.uleb128 0x15
 16012 00f5 2E       		.uleb128 0x2e
 16013 00f6 01       		.byte	0x1
 16014 00f7 3F       		.uleb128 0x3f
 16015 00f8 19       		.uleb128 0x19
 16016 00f9 03       		.uleb128 0x3
 16017 00fa 0E       		.uleb128 0xe
 16018 00fb 3A       		.uleb128 0x3a
 16019 00fc 0B       		.uleb128 0xb
 16020 00fd 3B       		.uleb128 0x3b
 16021 00fe 05       		.uleb128 0x5
 16022 00ff 49       		.uleb128 0x49
 16023 0100 13       		.uleb128 0x13
 16024 0101 20       		.uleb128 0x20
 16025 0102 0B       		.uleb128 0xb
 16026 0103 01       		.uleb128 0x1
 16027 0104 13       		.uleb128 0x13
 16028 0105 00       		.byte	0
 16029 0106 00       		.byte	0
 16030 0107 16       		.uleb128 0x16
 16031 0108 21       		.uleb128 0x21
 16032 0109 00       		.byte	0
 16033 010a 49       		.uleb128 0x49
 16034 010b 13       		.uleb128 0x13
 16035 010c 00       		.byte	0
 16036 010d 00       		.byte	0
 16037 010e 17       		.uleb128 0x17
 16038 010f 2E       		.uleb128 0x2e
 16039 0110 01       		.byte	0x1
 16040 0111 31       		.uleb128 0x31
 16041 0112 13       		.uleb128 0x13
 16042 0113 11       		.uleb128 0x11
 16043 0114 01       		.uleb128 0x1
 16044 0115 12       		.uleb128 0x12
 16045 0116 06       		.uleb128 0x6
 16046 0117 40       		.uleb128 0x40
 16047 0118 18       		.uleb128 0x18
 16048 0119 9742     		.uleb128 0x2117
 16049 011b 19       		.uleb128 0x19
 16050 011c 01       		.uleb128 0x1
 16051 011d 13       		.uleb128 0x13
 16052 011e 00       		.byte	0
 16053 011f 00       		.byte	0
 16054 0120 18       		.uleb128 0x18
 16055 0121 05       		.uleb128 0x5
 16056 0122 00       		.byte	0
ARM GAS  C:\Users\legoc\AppData\Local\Temp\ccMAvaOS.s 			page 305


 16057 0123 31       		.uleb128 0x31
 16058 0124 13       		.uleb128 0x13
 16059 0125 02       		.uleb128 0x2
 16060 0126 17       		.uleb128 0x17
 16061 0127 00       		.byte	0
 16062 0128 00       		.byte	0
 16063 0129 19       		.uleb128 0x19
 16064 012a 898201   		.uleb128 0x4109
 16065 012d 01       		.byte	0x1
 16066 012e 11       		.uleb128 0x11
 16067 012f 01       		.uleb128 0x1
 16068 0130 31       		.uleb128 0x31
 16069 0131 13       		.uleb128 0x13
 16070 0132 01       		.uleb128 0x1
 16071 0133 13       		.uleb128 0x13
 16072 0134 00       		.byte	0
 16073 0135 00       		.byte	0
 16074 0136 1A       		.uleb128 0x1a
 16075 0137 8A8201   		.uleb128 0x410a
 16076 013a 00       		.byte	0
 16077 013b 02       		.uleb128 0x2
 16078 013c 18       		.uleb128 0x18
 16079 013d 9142     		.uleb128 0x2111
 16080 013f 18       		.uleb128 0x18
 16081 0140 00       		.byte	0
 16082 0141 00       		.byte	0
 16083 0142 1B       		.uleb128 0x1b
 16084 0143 898201   		.uleb128 0x4109
 16085 0146 00       		.byte	0
 16086 0147 11       		.uleb128 0x11
 16087 0148 01       		.uleb128 0x1
 16088 0149 31       		.uleb128 0x31
 16089 014a 13       		.uleb128 0x13
 16090 014b 00       		.byte	0
 16091 014c 00       		.byte	0
 16092 014d 1C       		.uleb128 0x1c
 16093 014e 2E       		.uleb128 0x2e
 16094 014f 01       		.byte	0x1
 16095 0150 3F       		.uleb128 0x3f
 16096 0151 19       		.uleb128 0x19
 16097 0152 03       		.uleb128 0x3
 16098 0153 0E       		.uleb128 0xe
 16099 0154 3A       		.uleb128 0x3a
 16100 0155 0B       		.uleb128 0xb
 16101 0156 3B       		.uleb128 0x3b
 16102 0157 0B       		.uleb128 0xb
 16103 0158 27       		.uleb128 0x27
 16104 0159 19       		.uleb128 0x19
 16105 015a 11       		.uleb128 0x11
 16106 015b 01       		.uleb128 0x1
 16107 015c 12       		.uleb128 0x12
 16108 015d 06       		.uleb128 0x6
 16109 015e 40       		.uleb128 0x40
 16110 015f 18       		.uleb128 0x18
 16111 0160 9742     		.uleb128 0x2117
 16112 0162 19       		.uleb128 0x19
 16113 0163 01       		.uleb128 0x1
ARM GAS  C:\Users\legoc\AppData\Local\Temp\ccMAvaOS.s 			page 306


 16114 0164 13       		.uleb128 0x13
 16115 0165 00       		.byte	0
 16116 0166 00       		.byte	0
 16117 0167 1D       		.uleb128 0x1d
 16118 0168 05       		.uleb128 0x5
 16119 0169 00       		.byte	0
 16120 016a 03       		.uleb128 0x3
 16121 016b 08       		.uleb128 0x8
 16122 016c 3A       		.uleb128 0x3a
 16123 016d 0B       		.uleb128 0xb
 16124 016e 3B       		.uleb128 0x3b
 16125 016f 0B       		.uleb128 0xb
 16126 0170 49       		.uleb128 0x49
 16127 0171 13       		.uleb128 0x13
 16128 0172 02       		.uleb128 0x2
 16129 0173 17       		.uleb128 0x17
 16130 0174 00       		.byte	0
 16131 0175 00       		.byte	0
 16132 0176 1E       		.uleb128 0x1e
 16133 0177 34       		.uleb128 0x34
 16134 0178 00       		.byte	0
 16135 0179 03       		.uleb128 0x3
 16136 017a 08       		.uleb128 0x8
 16137 017b 3A       		.uleb128 0x3a
 16138 017c 0B       		.uleb128 0xb
 16139 017d 3B       		.uleb128 0x3b
 16140 017e 0B       		.uleb128 0xb
 16141 017f 49       		.uleb128 0x49
 16142 0180 13       		.uleb128 0x13
 16143 0181 02       		.uleb128 0x2
 16144 0182 18       		.uleb128 0x18
 16145 0183 00       		.byte	0
 16146 0184 00       		.byte	0
 16147 0185 1F       		.uleb128 0x1f
 16148 0186 1D       		.uleb128 0x1d
 16149 0187 01       		.byte	0x1
 16150 0188 31       		.uleb128 0x31
 16151 0189 13       		.uleb128 0x13
 16152 018a 52       		.uleb128 0x52
 16153 018b 01       		.uleb128 0x1
 16154 018c 55       		.uleb128 0x55
 16155 018d 17       		.uleb128 0x17
 16156 018e 58       		.uleb128 0x58
 16157 018f 0B       		.uleb128 0xb
 16158 0190 59       		.uleb128 0x59
 16159 0191 0B       		.uleb128 0xb
 16160 0192 01       		.uleb128 0x1
 16161 0193 13       		.uleb128 0x13
 16162 0194 00       		.byte	0
 16163 0195 00       		.byte	0
 16164 0196 20       		.uleb128 0x20
 16165 0197 1D       		.uleb128 0x1d
 16166 0198 01       		.byte	0x1
 16167 0199 31       		.uleb128 0x31
 16168 019a 13       		.uleb128 0x13
 16169 019b 11       		.uleb128 0x11
 16170 019c 01       		.uleb128 0x1
ARM GAS  C:\Users\legoc\AppData\Local\Temp\ccMAvaOS.s 			page 307


 16171 019d 12       		.uleb128 0x12
 16172 019e 06       		.uleb128 0x6
 16173 019f 58       		.uleb128 0x58
 16174 01a0 0B       		.uleb128 0xb
 16175 01a1 59       		.uleb128 0x59
 16176 01a2 0B       		.uleb128 0xb
 16177 01a3 01       		.uleb128 0x1
 16178 01a4 13       		.uleb128 0x13
 16179 01a5 00       		.byte	0
 16180 01a6 00       		.byte	0
 16181 01a7 21       		.uleb128 0x21
 16182 01a8 05       		.uleb128 0x5
 16183 01a9 00       		.byte	0
 16184 01aa 31       		.uleb128 0x31
 16185 01ab 13       		.uleb128 0x13
 16186 01ac 1C       		.uleb128 0x1c
 16187 01ad 0B       		.uleb128 0xb
 16188 01ae 00       		.byte	0
 16189 01af 00       		.byte	0
 16190 01b0 22       		.uleb128 0x22
 16191 01b1 34       		.uleb128 0x34
 16192 01b2 00       		.byte	0
 16193 01b3 31       		.uleb128 0x31
 16194 01b4 13       		.uleb128 0x13
 16195 01b5 02       		.uleb128 0x2
 16196 01b6 17       		.uleb128 0x17
 16197 01b7 00       		.byte	0
 16198 01b8 00       		.byte	0
 16199 01b9 23       		.uleb128 0x23
 16200 01ba 34       		.uleb128 0x34
 16201 01bb 00       		.byte	0
 16202 01bc 34       		.uleb128 0x34
 16203 01bd 19       		.uleb128 0x19
 16204 01be 49       		.uleb128 0x49
 16205 01bf 13       		.uleb128 0x13
 16206 01c0 02       		.uleb128 0x2
 16207 01c1 17       		.uleb128 0x17
 16208 01c2 00       		.byte	0
 16209 01c3 00       		.byte	0
 16210 01c4 24       		.uleb128 0x24
 16211 01c5 34       		.uleb128 0x34
 16212 01c6 00       		.byte	0
 16213 01c7 31       		.uleb128 0x31
 16214 01c8 13       		.uleb128 0x13
 16215 01c9 49       		.uleb128 0x49
 16216 01ca 13       		.uleb128 0x13
 16217 01cb 02       		.uleb128 0x2
 16218 01cc 17       		.uleb128 0x17
 16219 01cd 00       		.byte	0
 16220 01ce 00       		.byte	0
 16221 01cf 25       		.uleb128 0x25
 16222 01d0 05       		.uleb128 0x5
 16223 01d1 00       		.byte	0
 16224 01d2 31       		.uleb128 0x31
 16225 01d3 13       		.uleb128 0x13
 16226 01d4 1C       		.uleb128 0x1c
 16227 01d5 0D       		.uleb128 0xd
ARM GAS  C:\Users\legoc\AppData\Local\Temp\ccMAvaOS.s 			page 308


 16228 01d6 00       		.byte	0
 16229 01d7 00       		.byte	0
 16230 01d8 26       		.uleb128 0x26
 16231 01d9 1D       		.uleb128 0x1d
 16232 01da 01       		.byte	0x1
 16233 01db 31       		.uleb128 0x31
 16234 01dc 13       		.uleb128 0x13
 16235 01dd 52       		.uleb128 0x52
 16236 01de 01       		.uleb128 0x1
 16237 01df 55       		.uleb128 0x55
 16238 01e0 17       		.uleb128 0x17
 16239 01e1 58       		.uleb128 0x58
 16240 01e2 0B       		.uleb128 0xb
 16241 01e3 59       		.uleb128 0x59
 16242 01e4 05       		.uleb128 0x5
 16243 01e5 01       		.uleb128 0x1
 16244 01e6 13       		.uleb128 0x13
 16245 01e7 00       		.byte	0
 16246 01e8 00       		.byte	0
 16247 01e9 27       		.uleb128 0x27
 16248 01ea 05       		.uleb128 0x5
 16249 01eb 00       		.byte	0
 16250 01ec 31       		.uleb128 0x31
 16251 01ed 13       		.uleb128 0x13
 16252 01ee 00       		.byte	0
 16253 01ef 00       		.byte	0
 16254 01f0 28       		.uleb128 0x28
 16255 01f1 1D       		.uleb128 0x1d
 16256 01f2 01       		.byte	0x1
 16257 01f3 31       		.uleb128 0x31
 16258 01f4 13       		.uleb128 0x13
 16259 01f5 52       		.uleb128 0x52
 16260 01f6 01       		.uleb128 0x1
 16261 01f7 55       		.uleb128 0x55
 16262 01f8 17       		.uleb128 0x17
 16263 01f9 58       		.uleb128 0x58
 16264 01fa 0B       		.uleb128 0xb
 16265 01fb 59       		.uleb128 0x59
 16266 01fc 0B       		.uleb128 0xb
 16267 01fd 00       		.byte	0
 16268 01fe 00       		.byte	0
 16269 01ff 29       		.uleb128 0x29
 16270 0200 0B       		.uleb128 0xb
 16271 0201 01       		.byte	0x1
 16272 0202 55       		.uleb128 0x55
 16273 0203 17       		.uleb128 0x17
 16274 0204 00       		.byte	0
 16275 0205 00       		.byte	0
 16276 0206 2A       		.uleb128 0x2a
 16277 0207 34       		.uleb128 0x34
 16278 0208 00       		.byte	0
 16279 0209 31       		.uleb128 0x31
 16280 020a 13       		.uleb128 0x13
 16281 020b 00       		.byte	0
 16282 020c 00       		.byte	0
 16283 020d 2B       		.uleb128 0x2b
 16284 020e 0B       		.uleb128 0xb
ARM GAS  C:\Users\legoc\AppData\Local\Temp\ccMAvaOS.s 			page 309


 16285 020f 01       		.byte	0x1
 16286 0210 11       		.uleb128 0x11
 16287 0211 01       		.uleb128 0x1
 16288 0212 12       		.uleb128 0x12
 16289 0213 06       		.uleb128 0x6
 16290 0214 00       		.byte	0
 16291 0215 00       		.byte	0
 16292 0216 2C       		.uleb128 0x2c
 16293 0217 898201   		.uleb128 0x4109
 16294 021a 01       		.byte	0x1
 16295 021b 11       		.uleb128 0x11
 16296 021c 01       		.uleb128 0x1
 16297 021d 31       		.uleb128 0x31
 16298 021e 13       		.uleb128 0x13
 16299 021f 00       		.byte	0
 16300 0220 00       		.byte	0
 16301 0221 2D       		.uleb128 0x2d
 16302 0222 0B       		.uleb128 0xb
 16303 0223 01       		.byte	0x1
 16304 0224 11       		.uleb128 0x11
 16305 0225 01       		.uleb128 0x1
 16306 0226 12       		.uleb128 0x12
 16307 0227 06       		.uleb128 0x6
 16308 0228 01       		.uleb128 0x1
 16309 0229 13       		.uleb128 0x13
 16310 022a 00       		.byte	0
 16311 022b 00       		.byte	0
 16312 022c 2E       		.uleb128 0x2e
 16313 022d 0B       		.uleb128 0xb
 16314 022e 01       		.byte	0x1
 16315 022f 55       		.uleb128 0x55
 16316 0230 17       		.uleb128 0x17
 16317 0231 01       		.uleb128 0x1
 16318 0232 13       		.uleb128 0x13
 16319 0233 00       		.byte	0
 16320 0234 00       		.byte	0
 16321 0235 2F       		.uleb128 0x2f
 16322 0236 21       		.uleb128 0x21
 16323 0237 00       		.byte	0
 16324 0238 49       		.uleb128 0x49
 16325 0239 13       		.uleb128 0x13
 16326 023a 2F       		.uleb128 0x2f
 16327 023b 13       		.uleb128 0x13
 16328 023c 00       		.byte	0
 16329 023d 00       		.byte	0
 16330 023e 30       		.uleb128 0x30
 16331 023f 26       		.uleb128 0x26
 16332 0240 00       		.byte	0
 16333 0241 49       		.uleb128 0x49
 16334 0242 13       		.uleb128 0x13
 16335 0243 00       		.byte	0
 16336 0244 00       		.byte	0
 16337 0245 31       		.uleb128 0x31
 16338 0246 898201   		.uleb128 0x4109
 16339 0249 01       		.byte	0x1
 16340 024a 11       		.uleb128 0x11
 16341 024b 01       		.uleb128 0x1
ARM GAS  C:\Users\legoc\AppData\Local\Temp\ccMAvaOS.s 			page 310


 16342 024c 9542     		.uleb128 0x2115
 16343 024e 19       		.uleb128 0x19
 16344 024f 31       		.uleb128 0x31
 16345 0250 13       		.uleb128 0x13
 16346 0251 00       		.byte	0
 16347 0252 00       		.byte	0
 16348 0253 32       		.uleb128 0x32
 16349 0254 05       		.uleb128 0x5
 16350 0255 00       		.byte	0
 16351 0256 31       		.uleb128 0x31
 16352 0257 13       		.uleb128 0x13
 16353 0258 1C       		.uleb128 0x1c
 16354 0259 05       		.uleb128 0x5
 16355 025a 00       		.byte	0
 16356 025b 00       		.byte	0
 16357 025c 33       		.uleb128 0x33
 16358 025d 898201   		.uleb128 0x4109
 16359 0260 00       		.byte	0
 16360 0261 11       		.uleb128 0x11
 16361 0262 01       		.uleb128 0x1
 16362 0263 9542     		.uleb128 0x2115
 16363 0265 19       		.uleb128 0x19
 16364 0266 31       		.uleb128 0x31
 16365 0267 13       		.uleb128 0x13
 16366 0268 00       		.byte	0
 16367 0269 00       		.byte	0
 16368 026a 34       		.uleb128 0x34
 16369 026b 2E       		.uleb128 0x2e
 16370 026c 01       		.byte	0x1
 16371 026d 3F       		.uleb128 0x3f
 16372 026e 19       		.uleb128 0x19
 16373 026f 03       		.uleb128 0x3
 16374 0270 0E       		.uleb128 0xe
 16375 0271 3A       		.uleb128 0x3a
 16376 0272 0B       		.uleb128 0xb
 16377 0273 3B       		.uleb128 0x3b
 16378 0274 0B       		.uleb128 0xb
 16379 0275 11       		.uleb128 0x11
 16380 0276 01       		.uleb128 0x1
 16381 0277 12       		.uleb128 0x12
 16382 0278 06       		.uleb128 0x6
 16383 0279 40       		.uleb128 0x40
 16384 027a 18       		.uleb128 0x18
 16385 027b 9742     		.uleb128 0x2117
 16386 027d 19       		.uleb128 0x19
 16387 027e 01       		.uleb128 0x1
 16388 027f 13       		.uleb128 0x13
 16389 0280 00       		.byte	0
 16390 0281 00       		.byte	0
 16391 0282 35       		.uleb128 0x35
 16392 0283 34       		.uleb128 0x34
 16393 0284 00       		.byte	0
 16394 0285 03       		.uleb128 0x3
 16395 0286 08       		.uleb128 0x8
 16396 0287 3A       		.uleb128 0x3a
 16397 0288 0B       		.uleb128 0xb
 16398 0289 3B       		.uleb128 0x3b
ARM GAS  C:\Users\legoc\AppData\Local\Temp\ccMAvaOS.s 			page 311


 16399 028a 0B       		.uleb128 0xb
 16400 028b 49       		.uleb128 0x49
 16401 028c 13       		.uleb128 0x13
 16402 028d 02       		.uleb128 0x2
 16403 028e 17       		.uleb128 0x17
 16404 028f 00       		.byte	0
 16405 0290 00       		.byte	0
 16406 0291 36       		.uleb128 0x36
 16407 0292 34       		.uleb128 0x34
 16408 0293 00       		.byte	0
 16409 0294 03       		.uleb128 0x3
 16410 0295 0E       		.uleb128 0xe
 16411 0296 3A       		.uleb128 0x3a
 16412 0297 0B       		.uleb128 0xb
 16413 0298 3B       		.uleb128 0x3b
 16414 0299 0B       		.uleb128 0xb
 16415 029a 49       		.uleb128 0x49
 16416 029b 13       		.uleb128 0x13
 16417 029c 02       		.uleb128 0x2
 16418 029d 17       		.uleb128 0x17
 16419 029e 00       		.byte	0
 16420 029f 00       		.byte	0
 16421 02a0 37       		.uleb128 0x37
 16422 02a1 05       		.uleb128 0x5
 16423 02a2 00       		.byte	0
 16424 02a3 03       		.uleb128 0x3
 16425 02a4 0E       		.uleb128 0xe
 16426 02a5 3A       		.uleb128 0x3a
 16427 02a6 0B       		.uleb128 0xb
 16428 02a7 3B       		.uleb128 0x3b
 16429 02a8 0B       		.uleb128 0xb
 16430 02a9 49       		.uleb128 0x49
 16431 02aa 13       		.uleb128 0x13
 16432 02ab 02       		.uleb128 0x2
 16433 02ac 17       		.uleb128 0x17
 16434 02ad 00       		.byte	0
 16435 02ae 00       		.byte	0
 16436 02af 38       		.uleb128 0x38
 16437 02b0 34       		.uleb128 0x34
 16438 02b1 00       		.byte	0
 16439 02b2 03       		.uleb128 0x3
 16440 02b3 0E       		.uleb128 0xe
 16441 02b4 3A       		.uleb128 0x3a
 16442 02b5 0B       		.uleb128 0xb
 16443 02b6 3B       		.uleb128 0x3b
 16444 02b7 0B       		.uleb128 0xb
 16445 02b8 49       		.uleb128 0x49
 16446 02b9 13       		.uleb128 0x13
 16447 02ba 02       		.uleb128 0x2
 16448 02bb 18       		.uleb128 0x18
 16449 02bc 00       		.byte	0
 16450 02bd 00       		.byte	0
 16451 02be 39       		.uleb128 0x39
 16452 02bf 34       		.uleb128 0x34
 16453 02c0 00       		.byte	0
 16454 02c1 03       		.uleb128 0x3
 16455 02c2 0E       		.uleb128 0xe
ARM GAS  C:\Users\legoc\AppData\Local\Temp\ccMAvaOS.s 			page 312


 16456 02c3 3A       		.uleb128 0x3a
 16457 02c4 0B       		.uleb128 0xb
 16458 02c5 3B       		.uleb128 0x3b
 16459 02c6 0B       		.uleb128 0xb
 16460 02c7 49       		.uleb128 0x49
 16461 02c8 13       		.uleb128 0x13
 16462 02c9 00       		.byte	0
 16463 02ca 00       		.byte	0
 16464 02cb 3A       		.uleb128 0x3a
 16465 02cc 1D       		.uleb128 0x1d
 16466 02cd 01       		.byte	0x1
 16467 02ce 31       		.uleb128 0x31
 16468 02cf 13       		.uleb128 0x13
 16469 02d0 52       		.uleb128 0x52
 16470 02d1 01       		.uleb128 0x1
 16471 02d2 55       		.uleb128 0x55
 16472 02d3 17       		.uleb128 0x17
 16473 02d4 58       		.uleb128 0x58
 16474 02d5 0B       		.uleb128 0xb
 16475 02d6 59       		.uleb128 0x59
 16476 02d7 05       		.uleb128 0x5
 16477 02d8 00       		.byte	0
 16478 02d9 00       		.byte	0
 16479 02da 3B       		.uleb128 0x3b
 16480 02db 2E       		.uleb128 0x2e
 16481 02dc 01       		.byte	0x1
 16482 02dd 47       		.uleb128 0x47
 16483 02de 13       		.uleb128 0x13
 16484 02df 01       		.uleb128 0x1
 16485 02e0 13       		.uleb128 0x13
 16486 02e1 00       		.byte	0
 16487 02e2 00       		.byte	0
 16488 02e3 3C       		.uleb128 0x3c
 16489 02e4 2E       		.uleb128 0x2e
 16490 02e5 01       		.byte	0x1
 16491 02e6 3F       		.uleb128 0x3f
 16492 02e7 19       		.uleb128 0x19
 16493 02e8 03       		.uleb128 0x3
 16494 02e9 0E       		.uleb128 0xe
 16495 02ea 3A       		.uleb128 0x3a
 16496 02eb 0B       		.uleb128 0xb
 16497 02ec 3B       		.uleb128 0x3b
 16498 02ed 05       		.uleb128 0x5
 16499 02ee 27       		.uleb128 0x27
 16500 02ef 19       		.uleb128 0x19
 16501 02f0 11       		.uleb128 0x11
 16502 02f1 01       		.uleb128 0x1
 16503 02f2 12       		.uleb128 0x12
 16504 02f3 06       		.uleb128 0x6
 16505 02f4 40       		.uleb128 0x40
 16506 02f5 18       		.uleb128 0x18
 16507 02f6 9642     		.uleb128 0x2116
 16508 02f8 19       		.uleb128 0x19
 16509 02f9 01       		.uleb128 0x1
 16510 02fa 13       		.uleb128 0x13
 16511 02fb 00       		.byte	0
 16512 02fc 00       		.byte	0
ARM GAS  C:\Users\legoc\AppData\Local\Temp\ccMAvaOS.s 			page 313


 16513 02fd 3D       		.uleb128 0x3d
 16514 02fe 05       		.uleb128 0x5
 16515 02ff 00       		.byte	0
 16516 0300 03       		.uleb128 0x3
 16517 0301 0E       		.uleb128 0xe
 16518 0302 3A       		.uleb128 0x3a
 16519 0303 0B       		.uleb128 0xb
 16520 0304 3B       		.uleb128 0x3b
 16521 0305 05       		.uleb128 0x5
 16522 0306 49       		.uleb128 0x49
 16523 0307 13       		.uleb128 0x13
 16524 0308 02       		.uleb128 0x2
 16525 0309 17       		.uleb128 0x17
 16526 030a 00       		.byte	0
 16527 030b 00       		.byte	0
 16528 030c 3E       		.uleb128 0x3e
 16529 030d 34       		.uleb128 0x34
 16530 030e 00       		.byte	0
 16531 030f 03       		.uleb128 0x3
 16532 0310 0E       		.uleb128 0xe
 16533 0311 3A       		.uleb128 0x3a
 16534 0312 0B       		.uleb128 0xb
 16535 0313 3B       		.uleb128 0x3b
 16536 0314 05       		.uleb128 0x5
 16537 0315 49       		.uleb128 0x49
 16538 0316 13       		.uleb128 0x13
 16539 0317 1C       		.uleb128 0x1c
 16540 0318 0B       		.uleb128 0xb
 16541 0319 00       		.byte	0
 16542 031a 00       		.byte	0
 16543 031b 3F       		.uleb128 0x3f
 16544 031c 34       		.uleb128 0x34
 16545 031d 00       		.byte	0
 16546 031e 03       		.uleb128 0x3
 16547 031f 0E       		.uleb128 0xe
 16548 0320 3A       		.uleb128 0x3a
 16549 0321 0B       		.uleb128 0xb
 16550 0322 3B       		.uleb128 0x3b
 16551 0323 05       		.uleb128 0x5
 16552 0324 49       		.uleb128 0x49
 16553 0325 13       		.uleb128 0x13
 16554 0326 02       		.uleb128 0x2
 16555 0327 17       		.uleb128 0x17
 16556 0328 00       		.byte	0
 16557 0329 00       		.byte	0
 16558 032a 40       		.uleb128 0x40
 16559 032b 34       		.uleb128 0x34
 16560 032c 00       		.byte	0
 16561 032d 03       		.uleb128 0x3
 16562 032e 0E       		.uleb128 0xe
 16563 032f 3A       		.uleb128 0x3a
 16564 0330 0B       		.uleb128 0xb
 16565 0331 3B       		.uleb128 0x3b
 16566 0332 05       		.uleb128 0x5
 16567 0333 49       		.uleb128 0x49
 16568 0334 13       		.uleb128 0x13
 16569 0335 02       		.uleb128 0x2
ARM GAS  C:\Users\legoc\AppData\Local\Temp\ccMAvaOS.s 			page 314


 16570 0336 18       		.uleb128 0x18
 16571 0337 00       		.byte	0
 16572 0338 00       		.byte	0
 16573 0339 41       		.uleb128 0x41
 16574 033a 34       		.uleb128 0x34
 16575 033b 00       		.byte	0
 16576 033c 03       		.uleb128 0x3
 16577 033d 08       		.uleb128 0x8
 16578 033e 3A       		.uleb128 0x3a
 16579 033f 0B       		.uleb128 0xb
 16580 0340 3B       		.uleb128 0x3b
 16581 0341 05       		.uleb128 0x5
 16582 0342 49       		.uleb128 0x49
 16583 0343 13       		.uleb128 0x13
 16584 0344 02       		.uleb128 0x2
 16585 0345 17       		.uleb128 0x17
 16586 0346 00       		.byte	0
 16587 0347 00       		.byte	0
 16588 0348 42       		.uleb128 0x42
 16589 0349 1D       		.uleb128 0x1d
 16590 034a 01       		.byte	0x1
 16591 034b 31       		.uleb128 0x31
 16592 034c 13       		.uleb128 0x13
 16593 034d 11       		.uleb128 0x11
 16594 034e 01       		.uleb128 0x1
 16595 034f 12       		.uleb128 0x12
 16596 0350 06       		.uleb128 0x6
 16597 0351 58       		.uleb128 0x58
 16598 0352 0B       		.uleb128 0xb
 16599 0353 59       		.uleb128 0x59
 16600 0354 05       		.uleb128 0x5
 16601 0355 01       		.uleb128 0x1
 16602 0356 13       		.uleb128 0x13
 16603 0357 00       		.byte	0
 16604 0358 00       		.byte	0
 16605 0359 43       		.uleb128 0x43
 16606 035a 1D       		.uleb128 0x1d
 16607 035b 01       		.byte	0x1
 16608 035c 31       		.uleb128 0x31
 16609 035d 13       		.uleb128 0x13
 16610 035e 11       		.uleb128 0x11
 16611 035f 01       		.uleb128 0x1
 16612 0360 12       		.uleb128 0x12
 16613 0361 06       		.uleb128 0x6
 16614 0362 58       		.uleb128 0x58
 16615 0363 0B       		.uleb128 0xb
 16616 0364 59       		.uleb128 0x59
 16617 0365 05       		.uleb128 0x5
 16618 0366 00       		.byte	0
 16619 0367 00       		.byte	0
 16620 0368 44       		.uleb128 0x44
 16621 0369 2E       		.uleb128 0x2e
 16622 036a 01       		.byte	0x1
 16623 036b 3F       		.uleb128 0x3f
 16624 036c 19       		.uleb128 0x19
 16625 036d 03       		.uleb128 0x3
 16626 036e 0E       		.uleb128 0xe
ARM GAS  C:\Users\legoc\AppData\Local\Temp\ccMAvaOS.s 			page 315


 16627 036f 3A       		.uleb128 0x3a
 16628 0370 0B       		.uleb128 0xb
 16629 0371 3B       		.uleb128 0x3b
 16630 0372 05       		.uleb128 0x5
 16631 0373 49       		.uleb128 0x49
 16632 0374 13       		.uleb128 0x13
 16633 0375 3C       		.uleb128 0x3c
 16634 0376 19       		.uleb128 0x19
 16635 0377 01       		.uleb128 0x1
 16636 0378 13       		.uleb128 0x13
 16637 0379 00       		.byte	0
 16638 037a 00       		.byte	0
 16639 037b 45       		.uleb128 0x45
 16640 037c 2E       		.uleb128 0x2e
 16641 037d 01       		.byte	0x1
 16642 037e 3F       		.uleb128 0x3f
 16643 037f 19       		.uleb128 0x19
 16644 0380 03       		.uleb128 0x3
 16645 0381 0E       		.uleb128 0xe
 16646 0382 3A       		.uleb128 0x3a
 16647 0383 0B       		.uleb128 0xb
 16648 0384 3B       		.uleb128 0x3b
 16649 0385 05       		.uleb128 0x5
 16650 0386 11       		.uleb128 0x11
 16651 0387 01       		.uleb128 0x1
 16652 0388 12       		.uleb128 0x12
 16653 0389 06       		.uleb128 0x6
 16654 038a 40       		.uleb128 0x40
 16655 038b 18       		.uleb128 0x18
 16656 038c 9742     		.uleb128 0x2117
 16657 038e 19       		.uleb128 0x19
 16658 038f 01       		.uleb128 0x1
 16659 0390 13       		.uleb128 0x13
 16660 0391 00       		.byte	0
 16661 0392 00       		.byte	0
 16662 0393 46       		.uleb128 0x46
 16663 0394 34       		.uleb128 0x34
 16664 0395 00       		.byte	0
 16665 0396 31       		.uleb128 0x31
 16666 0397 13       		.uleb128 0x13
 16667 0398 1C       		.uleb128 0x1c
 16668 0399 0B       		.uleb128 0xb
 16669 039a 00       		.byte	0
 16670 039b 00       		.byte	0
 16671 039c 47       		.uleb128 0x47
 16672 039d 2E       		.uleb128 0x2e
 16673 039e 01       		.byte	0x1
 16674 039f 3F       		.uleb128 0x3f
 16675 03a0 19       		.uleb128 0x19
 16676 03a1 03       		.uleb128 0x3
 16677 03a2 0E       		.uleb128 0xe
 16678 03a3 3A       		.uleb128 0x3a
 16679 03a4 0B       		.uleb128 0xb
 16680 03a5 3B       		.uleb128 0x3b
 16681 03a6 05       		.uleb128 0x5
 16682 03a7 27       		.uleb128 0x27
 16683 03a8 19       		.uleb128 0x19
ARM GAS  C:\Users\legoc\AppData\Local\Temp\ccMAvaOS.s 			page 316


 16684 03a9 11       		.uleb128 0x11
 16685 03aa 01       		.uleb128 0x1
 16686 03ab 12       		.uleb128 0x12
 16687 03ac 06       		.uleb128 0x6
 16688 03ad 40       		.uleb128 0x40
 16689 03ae 18       		.uleb128 0x18
 16690 03af 9742     		.uleb128 0x2117
 16691 03b1 19       		.uleb128 0x19
 16692 03b2 01       		.uleb128 0x1
 16693 03b3 13       		.uleb128 0x13
 16694 03b4 00       		.byte	0
 16695 03b5 00       		.byte	0
 16696 03b6 48       		.uleb128 0x48
 16697 03b7 05       		.uleb128 0x5
 16698 03b8 00       		.byte	0
 16699 03b9 03       		.uleb128 0x3
 16700 03ba 08       		.uleb128 0x8
 16701 03bb 3A       		.uleb128 0x3a
 16702 03bc 0B       		.uleb128 0xb
 16703 03bd 3B       		.uleb128 0x3b
 16704 03be 05       		.uleb128 0x5
 16705 03bf 49       		.uleb128 0x49
 16706 03c0 13       		.uleb128 0x13
 16707 03c1 02       		.uleb128 0x2
 16708 03c2 17       		.uleb128 0x17
 16709 03c3 00       		.byte	0
 16710 03c4 00       		.byte	0
 16711 03c5 49       		.uleb128 0x49
 16712 03c6 34       		.uleb128 0x34
 16713 03c7 00       		.byte	0
 16714 03c8 03       		.uleb128 0x3
 16715 03c9 0E       		.uleb128 0xe
 16716 03ca 3A       		.uleb128 0x3a
 16717 03cb 0B       		.uleb128 0xb
 16718 03cc 3B       		.uleb128 0x3b
 16719 03cd 0B       		.uleb128 0xb
 16720 03ce 49       		.uleb128 0x49
 16721 03cf 13       		.uleb128 0x13
 16722 03d0 1C       		.uleb128 0x1c
 16723 03d1 0A       		.uleb128 0xa
 16724 03d2 00       		.byte	0
 16725 03d3 00       		.byte	0
 16726 03d4 4A       		.uleb128 0x4a
 16727 03d5 34       		.uleb128 0x34
 16728 03d6 00       		.byte	0
 16729 03d7 03       		.uleb128 0x3
 16730 03d8 0E       		.uleb128 0xe
 16731 03d9 3A       		.uleb128 0x3a
 16732 03da 0B       		.uleb128 0xb
 16733 03db 3B       		.uleb128 0x3b
 16734 03dc 05       		.uleb128 0x5
 16735 03dd 49       		.uleb128 0x49
 16736 03de 13       		.uleb128 0x13
 16737 03df 1C       		.uleb128 0x1c
 16738 03e0 0A       		.uleb128 0xa
 16739 03e1 00       		.byte	0
 16740 03e2 00       		.byte	0
ARM GAS  C:\Users\legoc\AppData\Local\Temp\ccMAvaOS.s 			page 317


 16741 03e3 4B       		.uleb128 0x4b
 16742 03e4 21       		.uleb128 0x21
 16743 03e5 00       		.byte	0
 16744 03e6 49       		.uleb128 0x49
 16745 03e7 13       		.uleb128 0x13
 16746 03e8 2F       		.uleb128 0x2f
 16747 03e9 0D       		.uleb128 0xd
 16748 03ea 00       		.byte	0
 16749 03eb 00       		.byte	0
 16750 03ec 4C       		.uleb128 0x4c
 16751 03ed 34       		.uleb128 0x34
 16752 03ee 00       		.byte	0
 16753 03ef 03       		.uleb128 0x3
 16754 03f0 0E       		.uleb128 0xe
 16755 03f1 3A       		.uleb128 0x3a
 16756 03f2 0B       		.uleb128 0xb
 16757 03f3 3B       		.uleb128 0x3b
 16758 03f4 0B       		.uleb128 0xb
 16759 03f5 49       		.uleb128 0x49
 16760 03f6 13       		.uleb128 0x13
 16761 03f7 3F       		.uleb128 0x3f
 16762 03f8 19       		.uleb128 0x19
 16763 03f9 3C       		.uleb128 0x3c
 16764 03fa 19       		.uleb128 0x19
 16765 03fb 00       		.byte	0
 16766 03fc 00       		.byte	0
 16767 03fd 4D       		.uleb128 0x4d
 16768 03fe 2E       		.uleb128 0x2e
 16769 03ff 00       		.byte	0
 16770 0400 3F       		.uleb128 0x3f
 16771 0401 19       		.uleb128 0x19
 16772 0402 3C       		.uleb128 0x3c
 16773 0403 19       		.uleb128 0x19
 16774 0404 6E       		.uleb128 0x6e
 16775 0405 0E       		.uleb128 0xe
 16776 0406 03       		.uleb128 0x3
 16777 0407 0E       		.uleb128 0xe
 16778 0408 3A       		.uleb128 0x3a
 16779 0409 0B       		.uleb128 0xb
 16780 040a 3B       		.uleb128 0x3b
 16781 040b 0B       		.uleb128 0xb
 16782 040c 00       		.byte	0
 16783 040d 00       		.byte	0
 16784 040e 4E       		.uleb128 0x4e
 16785 040f 2E       		.uleb128 0x2e
 16786 0410 00       		.byte	0
 16787 0411 3F       		.uleb128 0x3f
 16788 0412 19       		.uleb128 0x19
 16789 0413 3C       		.uleb128 0x3c
 16790 0414 19       		.uleb128 0x19
 16791 0415 6E       		.uleb128 0x6e
 16792 0416 0E       		.uleb128 0xe
 16793 0417 03       		.uleb128 0x3
 16794 0418 0E       		.uleb128 0xe
 16795 0419 3A       		.uleb128 0x3a
 16796 041a 0B       		.uleb128 0xb
 16797 041b 3B       		.uleb128 0x3b
ARM GAS  C:\Users\legoc\AppData\Local\Temp\ccMAvaOS.s 			page 318


 16798 041c 05       		.uleb128 0x5
 16799 041d 00       		.byte	0
 16800 041e 00       		.byte	0
 16801 041f 4F       		.uleb128 0x4f
 16802 0420 2E       		.uleb128 0x2e
 16803 0421 00       		.byte	0
 16804 0422 3F       		.uleb128 0x3f
 16805 0423 19       		.uleb128 0x19
 16806 0424 3C       		.uleb128 0x3c
 16807 0425 19       		.uleb128 0x19
 16808 0426 6E       		.uleb128 0x6e
 16809 0427 0E       		.uleb128 0xe
 16810 0428 03       		.uleb128 0x3
 16811 0429 0E       		.uleb128 0xe
 16812 042a 00       		.byte	0
 16813 042b 00       		.byte	0
 16814 042c 00       		.byte	0
 16815              		.section	.debug_loc,"",%progbits
 16816              	.Ldebug_loc0:
 16817              	.LLST0:
 16818 0000 00000000 		.4byte	.LVL0
 16819 0004 06000000 		.4byte	.LVL1
 16820 0008 0100     		.2byte	0x1
 16821 000a 50       		.byte	0x50
 16822 000b 06000000 		.4byte	.LVL1
 16823 000f 22000000 		.4byte	.LFE1
 16824 0013 0400     		.2byte	0x4
 16825 0015 F3       		.byte	0xf3
 16826 0016 01       		.uleb128 0x1
 16827 0017 50       		.byte	0x50
 16828 0018 9F       		.byte	0x9f
 16829 0019 00000000 		.4byte	0
 16830 001d 00000000 		.4byte	0
 16831              	.LLST1:
 16832 0021 00000000 		.4byte	.LVL6
 16833 0025 06000000 		.4byte	.LVL7
 16834 0029 0100     		.2byte	0x1
 16835 002b 50       		.byte	0x50
 16836 002c 06000000 		.4byte	.LVL7
 16837 0030 22000000 		.4byte	.LFE2
 16838 0034 0400     		.2byte	0x4
 16839 0036 F3       		.byte	0xf3
 16840 0037 01       		.uleb128 0x1
 16841 0038 50       		.byte	0x50
 16842 0039 9F       		.byte	0x9f
 16843 003a 00000000 		.4byte	0
 16844 003e 00000000 		.4byte	0
 16845              	.LLST2:
 16846 0042 00000000 		.4byte	.LVL12
 16847 0046 0E000000 		.4byte	.LVL15
 16848 004a 0100     		.2byte	0x1
 16849 004c 50       		.byte	0x50
 16850 004d 0E000000 		.4byte	.LVL15
 16851 0051 FE000000 		.4byte	.LFE3
 16852 0055 0400     		.2byte	0x4
 16853 0057 F3       		.byte	0xf3
 16854 0058 01       		.uleb128 0x1
ARM GAS  C:\Users\legoc\AppData\Local\Temp\ccMAvaOS.s 			page 319


 16855 0059 50       		.byte	0x50
 16856 005a 9F       		.byte	0x9f
 16857 005b 00000000 		.4byte	0
 16858 005f 00000000 		.4byte	0
 16859              	.LLST3:
 16860 0063 00000000 		.4byte	.LVL12
 16861 0067 19000000 		.4byte	.LVL18-1
 16862 006b 0100     		.2byte	0x1
 16863 006d 51       		.byte	0x51
 16864 006e 19000000 		.4byte	.LVL18-1
 16865 0072 FE000000 		.4byte	.LFE3
 16866 0076 0400     		.2byte	0x4
 16867 0078 F3       		.byte	0xf3
 16868 0079 01       		.uleb128 0x1
 16869 007a 51       		.byte	0x51
 16870 007b 9F       		.byte	0x9f
 16871 007c 00000000 		.4byte	0
 16872 0080 00000000 		.4byte	0
 16873              	.LLST4:
 16874 0084 00000000 		.4byte	.LVL12
 16875 0088 06000000 		.4byte	.LVL13
 16876 008c 0100     		.2byte	0x1
 16877 008e 52       		.byte	0x52
 16878 008f 06000000 		.4byte	.LVL13
 16879 0093 FE000000 		.4byte	.LFE3
 16880 0097 0400     		.2byte	0x4
 16881 0099 F3       		.byte	0xf3
 16882 009a 01       		.uleb128 0x1
 16883 009b 52       		.byte	0x52
 16884 009c 9F       		.byte	0x9f
 16885 009d 00000000 		.4byte	0
 16886 00a1 00000000 		.4byte	0
 16887              	.LLST5:
 16888 00a5 00000000 		.4byte	.LVL12
 16889 00a9 08000000 		.4byte	.LVL14
 16890 00ad 0100     		.2byte	0x1
 16891 00af 53       		.byte	0x53
 16892 00b0 08000000 		.4byte	.LVL14
 16893 00b4 FE000000 		.4byte	.LFE3
 16894 00b8 0400     		.2byte	0x4
 16895 00ba F3       		.byte	0xf3
 16896 00bb 01       		.uleb128 0x1
 16897 00bc 53       		.byte	0x53
 16898 00bd 9F       		.byte	0x9f
 16899 00be 00000000 		.4byte	0
 16900 00c2 00000000 		.4byte	0
 16901              	.LLST6:
 16902 00c6 16000000 		.4byte	.LVL17
 16903 00ca 30000000 		.4byte	.LVL22
 16904 00ce 0300     		.2byte	0x3
 16905 00d0 08       		.byte	0x8
 16906 00d1 2A       		.byte	0x2a
 16907 00d2 9F       		.byte	0x9f
 16908 00d3 00000000 		.4byte	0
 16909 00d7 00000000 		.4byte	0
 16910              	.LLST7:
 16911 00db 7A000000 		.4byte	.LVL33
ARM GAS  C:\Users\legoc\AppData\Local\Temp\ccMAvaOS.s 			page 320


 16912 00df 96000000 		.4byte	.LVL38
 16913 00e3 0300     		.2byte	0x3
 16914 00e5 08       		.byte	0x8
 16915 00e6 2B       		.byte	0x2b
 16916 00e7 9F       		.byte	0x9f
 16917 00e8 00000000 		.4byte	0
 16918 00ec 00000000 		.4byte	0
 16919              	.LLST8:
 16920 00f0 00000000 		.4byte	.LVL54
 16921 00f4 1E000000 		.4byte	.LVL60
 16922 00f8 0100     		.2byte	0x1
 16923 00fa 50       		.byte	0x50
 16924 00fb 1E000000 		.4byte	.LVL60
 16925 00ff 0C020000 		.4byte	.LFE28
 16926 0103 0400     		.2byte	0x4
 16927 0105 F3       		.byte	0xf3
 16928 0106 01       		.uleb128 0x1
 16929 0107 50       		.byte	0x50
 16930 0108 9F       		.byte	0x9f
 16931 0109 00000000 		.4byte	0
 16932 010d 00000000 		.4byte	0
 16933              	.LLST9:
 16934 0111 00000000 		.4byte	.LVL54
 16935 0115 0A000000 		.4byte	.LVL55
 16936 0119 0100     		.2byte	0x1
 16937 011b 51       		.byte	0x51
 16938 011c 0A000000 		.4byte	.LVL55
 16939 0120 0C020000 		.4byte	.LFE28
 16940 0124 0400     		.2byte	0x4
 16941 0126 F3       		.byte	0xf3
 16942 0127 01       		.uleb128 0x1
 16943 0128 51       		.byte	0x51
 16944 0129 9F       		.byte	0x9f
 16945 012a 00000000 		.4byte	0
 16946 012e 00000000 		.4byte	0
 16947              	.LLST10:
 16948 0132 00000000 		.4byte	.LVL54
 16949 0136 0C000000 		.4byte	.LVL56
 16950 013a 0100     		.2byte	0x1
 16951 013c 52       		.byte	0x52
 16952 013d 0C000000 		.4byte	.LVL56
 16953 0141 0C020000 		.4byte	.LFE28
 16954 0145 0400     		.2byte	0x4
 16955 0147 F3       		.byte	0xf3
 16956 0148 01       		.uleb128 0x1
 16957 0149 52       		.byte	0x52
 16958 014a 9F       		.byte	0x9f
 16959 014b 00000000 		.4byte	0
 16960 014f 00000000 		.4byte	0
 16961              	.LLST11:
 16962 0153 00000000 		.4byte	.LVL54
 16963 0157 14000000 		.4byte	.LVL57
 16964 015b 0100     		.2byte	0x1
 16965 015d 53       		.byte	0x53
 16966 015e 14000000 		.4byte	.LVL57
 16967 0162 48000000 		.4byte	.LVL63
 16968 0166 0100     		.2byte	0x1
ARM GAS  C:\Users\legoc\AppData\Local\Temp\ccMAvaOS.s 			page 321


 16969 0168 52       		.byte	0x52
 16970 0169 48000000 		.4byte	.LVL63
 16971 016d 0C020000 		.4byte	.LFE28
 16972 0171 0400     		.2byte	0x4
 16973 0173 F3       		.byte	0xf3
 16974 0174 01       		.uleb128 0x1
 16975 0175 53       		.byte	0x53
 16976 0176 9F       		.byte	0x9f
 16977 0177 00000000 		.4byte	0
 16978 017b 00000000 		.4byte	0
 16979              	.LLST12:
 16980 017f 00000000 		.4byte	.LVL54
 16981 0183 5E000000 		.4byte	.LVL64
 16982 0187 0200     		.2byte	0x2
 16983 0189 91       		.byte	0x91
 16984 018a 00       		.sleb128 0
 16985 018b 5E000000 		.4byte	.LVL64
 16986 018f 68000000 		.4byte	.LVL65
 16987 0193 0100     		.2byte	0x1
 16988 0195 55       		.byte	0x55
 16989 0196 6A010000 		.4byte	.LVL86
 16990 019a E0010000 		.4byte	.LVL105
 16991 019e 0200     		.2byte	0x2
 16992 01a0 91       		.byte	0x91
 16993 01a1 00       		.sleb128 0
 16994 01a2 00020000 		.4byte	.LVL108
 16995 01a6 0C020000 		.4byte	.LFE28
 16996 01aa 0100     		.2byte	0x1
 16997 01ac 55       		.byte	0x55
 16998 01ad 00000000 		.4byte	0
 16999 01b1 00000000 		.4byte	0
 17000              	.LLST13:
 17001 01b5 5E000000 		.4byte	.LVL64
 17002 01b9 6A010000 		.4byte	.LVL86
 17003 01bd 0100     		.2byte	0x1
 17004 01bf 58       		.byte	0x58
 17005 01c0 E0010000 		.4byte	.LVL105
 17006 01c4 0C020000 		.4byte	.LFE28
 17007 01c8 0100     		.2byte	0x1
 17008 01ca 58       		.byte	0x58
 17009 01cb 00000000 		.4byte	0
 17010 01cf 00000000 		.4byte	0
 17011              	.LLST14:
 17012 01d3 5E000000 		.4byte	.LVL64
 17013 01d7 6A010000 		.4byte	.LVL86
 17014 01db 0100     		.2byte	0x1
 17015 01dd 5B       		.byte	0x5b
 17016 01de E0010000 		.4byte	.LVL105
 17017 01e2 0C020000 		.4byte	.LFE28
 17018 01e6 0100     		.2byte	0x1
 17019 01e8 5B       		.byte	0x5b
 17020 01e9 00000000 		.4byte	0
 17021 01ed 00000000 		.4byte	0
 17022              	.LLST15:
 17023 01f1 5E000000 		.4byte	.LVL64
 17024 01f5 68000000 		.4byte	.LVL65
 17025 01f9 0200     		.2byte	0x2
ARM GAS  C:\Users\legoc\AppData\Local\Temp\ccMAvaOS.s 			page 322


 17026 01fb 30       		.byte	0x30
 17027 01fc 9F       		.byte	0x9f
 17028 01fd 68000000 		.4byte	.LVL65
 17029 0201 6A000000 		.4byte	.LVL66
 17030 0205 0100     		.2byte	0x1
 17031 0207 54       		.byte	0x54
 17032 0208 6A000000 		.4byte	.LVL66
 17033 020c 70000000 		.4byte	.LVL67
 17034 0210 0100     		.2byte	0x1
 17035 0212 53       		.byte	0x53
 17036 0213 70000000 		.4byte	.LVL67
 17037 0217 8E000000 		.4byte	.LVL71
 17038 021b 0100     		.2byte	0x1
 17039 021d 54       		.byte	0x54
 17040 021e 00020000 		.4byte	.LVL108
 17041 0222 0C020000 		.4byte	.LFE28
 17042 0226 0200     		.2byte	0x2
 17043 0228 30       		.byte	0x30
 17044 0229 9F       		.byte	0x9f
 17045 022a 00000000 		.4byte	0
 17046 022e 00000000 		.4byte	0
 17047              	.LLST16:
 17048 0232 74000000 		.4byte	.LVL68
 17049 0236 8E000000 		.4byte	.LVL71
 17050 023a 0100     		.2byte	0x1
 17051 023c 54       		.byte	0x54
 17052 023d 00020000 		.4byte	.LVL108
 17053 0241 0C020000 		.4byte	.LFE28
 17054 0245 0200     		.2byte	0x2
 17055 0247 30       		.byte	0x30
 17056 0248 9F       		.byte	0x9f
 17057 0249 00000000 		.4byte	0
 17058 024d 00000000 		.4byte	0
 17059              	.LLST17:
 17060 0251 80000000 		.4byte	.LVL69
 17061 0255 1E010000 		.4byte	.LVL81
 17062 0259 0200     		.2byte	0x2
 17063 025b 76       		.byte	0x76
 17064 025c 00       		.sleb128 0
 17065 025d E0010000 		.4byte	.LVL105
 17066 0261 00020000 		.4byte	.LVL108
 17067 0265 0200     		.2byte	0x2
 17068 0267 76       		.byte	0x76
 17069 0268 00       		.sleb128 0
 17070 0269 00020000 		.4byte	.LVL108
 17071 026d 04020000 		.4byte	.LVL109
 17072 0271 0200     		.2byte	0x2
 17073 0273 91       		.byte	0x91
 17074 0274 04       		.sleb128 4
 17075 0275 04020000 		.4byte	.LVL109
 17076 0279 0C020000 		.4byte	.LFE28
 17077 027d 0200     		.2byte	0x2
 17078 027f 76       		.byte	0x76
 17079 0280 00       		.sleb128 0
 17080 0281 00000000 		.4byte	0
 17081 0285 00000000 		.4byte	0
 17082              	.LLST18:
ARM GAS  C:\Users\legoc\AppData\Local\Temp\ccMAvaOS.s 			page 323


 17083 0289 1A000000 		.4byte	.LVL59
 17084 028d 48000000 		.4byte	.LVL63
 17085 0291 0300     		.2byte	0x3
 17086 0293 09       		.byte	0x9
 17087 0294 FF       		.byte	0xff
 17088 0295 9F       		.byte	0x9f
 17089 0296 6A010000 		.4byte	.LVL86
 17090 029a E0010000 		.4byte	.LVL105
 17091 029e 0300     		.2byte	0x3
 17092 02a0 09       		.byte	0x9
 17093 02a1 FF       		.byte	0xff
 17094 02a2 9F       		.byte	0x9f
 17095 02a3 00000000 		.4byte	0
 17096 02a7 00000000 		.4byte	0
 17097              	.LLST19:
 17098 02ab 1A000000 		.4byte	.LVL59
 17099 02af 48000000 		.4byte	.LVL63
 17100 02b3 0100     		.2byte	0x1
 17101 02b5 59       		.byte	0x59
 17102 02b6 6A010000 		.4byte	.LVL86
 17103 02ba E0010000 		.4byte	.LVL105
 17104 02be 0100     		.2byte	0x1
 17105 02c0 59       		.byte	0x59
 17106 02c1 00000000 		.4byte	0
 17107 02c5 00000000 		.4byte	0
 17108              	.LLST20:
 17109 02c9 1A000000 		.4byte	.LVL59
 17110 02cd 48000000 		.4byte	.LVL63
 17111 02d1 0100     		.2byte	0x1
 17112 02d3 5B       		.byte	0x5b
 17113 02d4 6A010000 		.4byte	.LVL86
 17114 02d8 E0010000 		.4byte	.LVL105
 17115 02dc 0100     		.2byte	0x1
 17116 02de 5B       		.byte	0x5b
 17117 02df 00000000 		.4byte	0
 17118 02e3 00000000 		.4byte	0
 17119              	.LLST21:
 17120 02e7 1A000000 		.4byte	.LVL59
 17121 02eb 3A000000 		.4byte	.LVL62
 17122 02ef 0100     		.2byte	0x1
 17123 02f1 51       		.byte	0x51
 17124 02f2 3A000000 		.4byte	.LVL62
 17125 02f6 48000000 		.4byte	.LVL63
 17126 02fa 0200     		.2byte	0x2
 17127 02fc 91       		.byte	0x91
 17128 02fd 7C       		.sleb128 -4
 17129 02fe 6A010000 		.4byte	.LVL86
 17130 0302 E0010000 		.4byte	.LVL105
 17131 0306 0200     		.2byte	0x2
 17132 0308 91       		.byte	0x91
 17133 0309 7C       		.sleb128 -4
 17134 030a 00000000 		.4byte	0
 17135 030e 00000000 		.4byte	0
 17136              	.LLST22:
 17137 0312 30000000 		.4byte	.LVL61
 17138 0316 48000000 		.4byte	.LVL63
 17139 031a 0300     		.2byte	0x3
ARM GAS  C:\Users\legoc\AppData\Local\Temp\ccMAvaOS.s 			page 324


 17140 031c 09       		.byte	0x9
 17141 031d FF       		.byte	0xff
 17142 031e 9F       		.byte	0x9f
 17143 031f 6A010000 		.4byte	.LVL86
 17144 0323 E0010000 		.4byte	.LVL105
 17145 0327 0300     		.2byte	0x3
 17146 0329 09       		.byte	0x9
 17147 032a FF       		.byte	0xff
 17148 032b 9F       		.byte	0x9f
 17149 032c 00000000 		.4byte	0
 17150 0330 00000000 		.4byte	0
 17151              	.LLST23:
 17152 0334 30000000 		.4byte	.LVL61
 17153 0338 48000000 		.4byte	.LVL63
 17154 033c 0100     		.2byte	0x1
 17155 033e 59       		.byte	0x59
 17156 033f 6A010000 		.4byte	.LVL86
 17157 0343 E0010000 		.4byte	.LVL105
 17158 0347 0100     		.2byte	0x1
 17159 0349 59       		.byte	0x59
 17160 034a 00000000 		.4byte	0
 17161 034e 00000000 		.4byte	0
 17162              	.LLST24:
 17163 0352 30000000 		.4byte	.LVL61
 17164 0356 48000000 		.4byte	.LVL63
 17165 035a 0100     		.2byte	0x1
 17166 035c 58       		.byte	0x58
 17167 035d 6A010000 		.4byte	.LVL86
 17168 0361 E0010000 		.4byte	.LVL105
 17169 0365 0100     		.2byte	0x1
 17170 0367 58       		.byte	0x58
 17171 0368 00000000 		.4byte	0
 17172 036c 00000000 		.4byte	0
 17173              	.LLST25:
 17174 0370 30000000 		.4byte	.LVL61
 17175 0374 48000000 		.4byte	.LVL63
 17176 0378 0700     		.2byte	0x7
 17177 037a 0A       		.byte	0xa
 17178 037b 4001     		.2byte	0x140
 17179 037d 74       		.byte	0x74
 17180 037e 00       		.sleb128 0
 17181 037f 1C       		.byte	0x1c
 17182 0380 9F       		.byte	0x9f
 17183 0381 6A010000 		.4byte	.LVL86
 17184 0385 9E010000 		.4byte	.LVL94
 17185 0389 0700     		.2byte	0x7
 17186 038b 0A       		.byte	0xa
 17187 038c 4001     		.2byte	0x140
 17188 038e 74       		.byte	0x74
 17189 038f 00       		.sleb128 0
 17190 0390 1C       		.byte	0x1c
 17191 0391 9F       		.byte	0x9f
 17192 0392 9E010000 		.4byte	.LVL94
 17193 0396 E0010000 		.4byte	.LVL105
 17194 039a 0F00     		.2byte	0xf
 17195 039c 0A       		.byte	0xa
 17196 039d 4001     		.2byte	0x140
ARM GAS  C:\Users\legoc\AppData\Local\Temp\ccMAvaOS.s 			page 325


 17197 039f 79       		.byte	0x79
 17198 03a0 00       		.sleb128 0
 17199 03a1 0A       		.byte	0xa
 17200 03a2 FFFF     		.2byte	0xffff
 17201 03a4 1A       		.byte	0x1a
 17202 03a5 91       		.byte	0x91
 17203 03a6 7C       		.sleb128 -4
 17204 03a7 06       		.byte	0x6
 17205 03a8 22       		.byte	0x22
 17206 03a9 1C       		.byte	0x1c
 17207 03aa 9F       		.byte	0x9f
 17208 03ab 00000000 		.4byte	0
 17209 03af 00000000 		.4byte	0
 17210              	.LLST26:
 17211 03b3 30000000 		.4byte	.LVL61
 17212 03b7 48000000 		.4byte	.LVL63
 17213 03bb 0100     		.2byte	0x1
 17214 03bd 5C       		.byte	0x5c
 17215 03be 6A010000 		.4byte	.LVL86
 17216 03c2 6C010000 		.4byte	.LVL87
 17217 03c6 0100     		.2byte	0x1
 17218 03c8 5C       		.byte	0x5c
 17219 03c9 6C010000 		.4byte	.LVL87
 17220 03cd 8D010000 		.4byte	.LVL91-1
 17221 03d1 0100     		.2byte	0x1
 17222 03d3 50       		.byte	0x50
 17223 03d4 8D010000 		.4byte	.LVL91-1
 17224 03d8 E0010000 		.4byte	.LVL105
 17225 03dc 1200     		.2byte	0x12
 17226 03de 08       		.byte	0x8
 17227 03df F0       		.byte	0xf0
 17228 03e0 F3       		.byte	0xf3
 17229 03e1 01       		.uleb128 0x1
 17230 03e2 53       		.byte	0x53
 17231 03e3 0A       		.byte	0xa
 17232 03e4 FFFF     		.2byte	0xffff
 17233 03e6 1A       		.byte	0x1a
 17234 03e7 7B       		.byte	0x7b
 17235 03e8 00       		.sleb128 0
 17236 03e9 22       		.byte	0x22
 17237 03ea 0A       		.byte	0xa
 17238 03eb FFFF     		.2byte	0xffff
 17239 03ed 1A       		.byte	0x1a
 17240 03ee 1C       		.byte	0x1c
 17241 03ef 9F       		.byte	0x9f
 17242 03f0 00000000 		.4byte	0
 17243 03f4 00000000 		.4byte	0
 17244              	.LLST27:
 17245 03f8 6A010000 		.4byte	.LVL86
 17246 03fc E0010000 		.4byte	.LVL105
 17247 0400 0300     		.2byte	0x3
 17248 0402 09       		.byte	0x9
 17249 0403 FF       		.byte	0xff
 17250 0404 9F       		.byte	0x9f
 17251 0405 00000000 		.4byte	0
 17252 0409 00000000 		.4byte	0
 17253              	.LLST28:
ARM GAS  C:\Users\legoc\AppData\Local\Temp\ccMAvaOS.s 			page 326


 17254 040d 6A010000 		.4byte	.LVL86
 17255 0411 8A010000 		.4byte	.LVL90
 17256 0415 0100     		.2byte	0x1
 17257 0417 59       		.byte	0x59
 17258 0418 8A010000 		.4byte	.LVL90
 17259 041c 9E010000 		.4byte	.LVL94
 17260 0420 0100     		.2byte	0x1
 17261 0422 56       		.byte	0x56
 17262 0423 00000000 		.4byte	0
 17263 0427 00000000 		.4byte	0
 17264              	.LLST29:
 17265 042b 6A010000 		.4byte	.LVL86
 17266 042f 78010000 		.4byte	.LVL88
 17267 0433 0100     		.2byte	0x1
 17268 0435 58       		.byte	0x58
 17269 0436 78010000 		.4byte	.LVL88
 17270 043a E0010000 		.4byte	.LVL105
 17271 043e 0100     		.2byte	0x1
 17272 0440 5A       		.byte	0x5a
 17273 0441 00000000 		.4byte	0
 17274 0445 00000000 		.4byte	0
 17275              	.LLST30:
 17276 0449 6A010000 		.4byte	.LVL86
 17277 044d 9A010000 		.4byte	.LVL93
 17278 0451 0700     		.2byte	0x7
 17279 0453 0A       		.byte	0xa
 17280 0454 4001     		.2byte	0x140
 17281 0456 74       		.byte	0x74
 17282 0457 00       		.sleb128 0
 17283 0458 1C       		.byte	0x1c
 17284 0459 9F       		.byte	0x9f
 17285 045a 9A010000 		.4byte	.LVL93
 17286 045e E0010000 		.4byte	.LVL105
 17287 0462 0100     		.2byte	0x1
 17288 0464 56       		.byte	0x56
 17289 0465 00000000 		.4byte	0
 17290 0469 00000000 		.4byte	0
 17291              	.LLST31:
 17292 046d 6A010000 		.4byte	.LVL86
 17293 0471 6C010000 		.4byte	.LVL87
 17294 0475 0100     		.2byte	0x1
 17295 0477 5C       		.byte	0x5c
 17296 0478 6C010000 		.4byte	.LVL87
 17297 047c 8D010000 		.4byte	.LVL91-1
 17298 0480 0100     		.2byte	0x1
 17299 0482 50       		.byte	0x50
 17300 0483 8D010000 		.4byte	.LVL91-1
 17301 0487 9E010000 		.4byte	.LVL94
 17302 048b 1200     		.2byte	0x12
 17303 048d 08       		.byte	0x8
 17304 048e F0       		.byte	0xf0
 17305 048f F3       		.byte	0xf3
 17306 0490 01       		.uleb128 0x1
 17307 0491 53       		.byte	0x53
 17308 0492 0A       		.byte	0xa
 17309 0493 FFFF     		.2byte	0xffff
 17310 0495 1A       		.byte	0x1a
ARM GAS  C:\Users\legoc\AppData\Local\Temp\ccMAvaOS.s 			page 327


 17311 0496 7B       		.byte	0x7b
 17312 0497 00       		.sleb128 0
 17313 0498 22       		.byte	0x22
 17314 0499 0A       		.byte	0xa
 17315 049a FFFF     		.2byte	0xffff
 17316 049c 1A       		.byte	0x1a
 17317 049d 1C       		.byte	0x1c
 17318 049e 9F       		.byte	0x9f
 17319 049f 9E010000 		.4byte	.LVL94
 17320 04a3 A8010000 		.4byte	.LVL95
 17321 04a7 0100     		.2byte	0x1
 17322 04a9 5A       		.byte	0x5a
 17323 04aa A8010000 		.4byte	.LVL95
 17324 04ae C6010000 		.4byte	.LVL100
 17325 04b2 0100     		.2byte	0x1
 17326 04b4 54       		.byte	0x54
 17327 04b5 CA010000 		.4byte	.LVL101
 17328 04b9 CE010000 		.4byte	.LVL102
 17329 04bd 0100     		.2byte	0x1
 17330 04bf 54       		.byte	0x54
 17331 04c0 00000000 		.4byte	0
 17332 04c4 00000000 		.4byte	0
 17333              	.LLST32:
 17334 04c8 8E010000 		.4byte	.LVL91
 17335 04cc E0010000 		.4byte	.LVL105
 17336 04d0 0300     		.2byte	0x3
 17337 04d2 09       		.byte	0x9
 17338 04d3 FF       		.byte	0xff
 17339 04d4 9F       		.byte	0x9f
 17340 04d5 00000000 		.4byte	0
 17341 04d9 00000000 		.4byte	0
 17342              	.LLST34:
 17343 04dd AE000000 		.4byte	.LVL72
 17344 04e1 B8000000 		.4byte	.LVL73
 17345 04e5 0100     		.2byte	0x1
 17346 04e7 55       		.byte	0x55
 17347 04e8 B8000000 		.4byte	.LVL73
 17348 04ec BA000000 		.4byte	.LVL74
 17349 04f0 0800     		.2byte	0x8
 17350 04f2 73       		.byte	0x73
 17351 04f3 00       		.sleb128 0
 17352 04f4 76       		.byte	0x76
 17353 04f5 00       		.sleb128 0
 17354 04f6 1C       		.byte	0x1c
 17355 04f7 23       		.byte	0x23
 17356 04f8 01       		.uleb128 0x1
 17357 04f9 9F       		.byte	0x9f
 17358 04fa BA000000 		.4byte	.LVL74
 17359 04fe 62010000 		.4byte	.LVL85
 17360 0502 0100     		.2byte	0x1
 17361 0504 55       		.byte	0x55
 17362 0505 00000000 		.4byte	0
 17363 0509 00000000 		.4byte	0
 17364              	.LLST36:
 17365 050d DE000000 		.4byte	.LVL76
 17366 0511 FD000000 		.4byte	.LVL78-1
 17367 0515 0200     		.2byte	0x2
ARM GAS  C:\Users\legoc\AppData\Local\Temp\ccMAvaOS.s 			page 328


 17368 0517 73       		.byte	0x73
 17369 0518 00       		.sleb128 0
 17370 0519 FD000000 		.4byte	.LVL78-1
 17371 051d 62010000 		.4byte	.LVL85
 17372 0521 0B00     		.2byte	0xb
 17373 0523 91       		.byte	0x91
 17374 0524 7C       		.sleb128 -4
 17375 0525 06       		.byte	0x6
 17376 0526 75       		.byte	0x75
 17377 0527 08       		.sleb128 8
 17378 0528 09       		.byte	0x9
 17379 0529 F8       		.byte	0xf8
 17380 052a 1A       		.byte	0x1a
 17381 052b 1C       		.byte	0x1c
 17382 052c 23       		.byte	0x23
 17383 052d 08       		.uleb128 0x8
 17384 052e 00000000 		.4byte	0
 17385 0532 00000000 		.4byte	0
 17386              	.LLST38:
 17387 0536 EC000000 		.4byte	.LVL77
 17388 053a 62010000 		.4byte	.LVL85
 17389 053e 0200     		.2byte	0x2
 17390 0540 79       		.byte	0x79
 17391 0541 00       		.sleb128 0
 17392 0542 00000000 		.4byte	0
 17393 0546 00000000 		.4byte	0
 17394              	.LLST39:
 17395 054a 2C010000 		.4byte	.LVL82
 17396 054e 62010000 		.4byte	.LVL85
 17397 0552 0300     		.2byte	0x3
 17398 0554 75       		.byte	0x75
 17399 0555 01       		.sleb128 1
 17400 0556 9F       		.byte	0x9f
 17401 0557 00000000 		.4byte	0
 17402 055b 00000000 		.4byte	0
 17403              	.LLST40:
 17404 055f 2C010000 		.4byte	.LVL82
 17405 0563 62010000 		.4byte	.LVL85
 17406 0567 0600     		.2byte	0x6
 17407 0569 91       		.byte	0x91
 17408 056a 78       		.sleb128 -8
 17409 056b 06       		.byte	0x6
 17410 056c 31       		.byte	0x31
 17411 056d 1C       		.byte	0x1c
 17412 056e 9F       		.byte	0x9f
 17413 056f 00000000 		.4byte	0
 17414 0573 00000000 		.4byte	0
 17415              	.LLST41:
 17416 0577 2C010000 		.4byte	.LVL82
 17417 057b 62010000 		.4byte	.LVL85
 17418 057f 0D00     		.2byte	0xd
 17419 0581 75       		.byte	0x75
 17420 0582 01       		.sleb128 1
 17421 0583 37       		.byte	0x37
 17422 0584 1E       		.byte	0x1e
 17423 0585 09       		.byte	0x9
 17424 0586 FE       		.byte	0xfe
ARM GAS  C:\Users\legoc\AppData\Local\Temp\ccMAvaOS.s 			page 329


 17425 0587 1B       		.byte	0x1b
 17426 0588 78       		.byte	0x78
 17427 0589 00       		.sleb128 0
 17428 058a 22       		.byte	0x22
 17429 058b 23       		.byte	0x23
 17430 058c 05       		.uleb128 0x5
 17431 058d 9F       		.byte	0x9f
 17432 058e 00000000 		.4byte	0
 17433 0592 00000000 		.4byte	0
 17434              	.LLST42:
 17435 0596 2C010000 		.4byte	.LVL82
 17436 059a 62010000 		.4byte	.LVL85
 17437 059e 1000     		.2byte	0x10
 17438 05a0 91       		.byte	0x91
 17439 05a1 78       		.sleb128 -8
 17440 05a2 06       		.byte	0x6
 17441 05a3 31       		.byte	0x31
 17442 05a4 1C       		.byte	0x1c
 17443 05a5 37       		.byte	0x37
 17444 05a6 1E       		.byte	0x1e
 17445 05a7 09       		.byte	0x9
 17446 05a8 FE       		.byte	0xfe
 17447 05a9 1B       		.byte	0x1b
 17448 05aa 78       		.byte	0x78
 17449 05ab 00       		.sleb128 0
 17450 05ac 22       		.byte	0x22
 17451 05ad 23       		.byte	0x23
 17452 05ae 04       		.uleb128 0x4
 17453 05af 9F       		.byte	0x9f
 17454 05b0 00000000 		.4byte	0
 17455 05b4 00000000 		.4byte	0
 17456              	.LLST43:
 17457 05b8 EC000000 		.4byte	.LVL77
 17458 05bc 62010000 		.4byte	.LVL85
 17459 05c0 0200     		.2byte	0x2
 17460 05c2 30       		.byte	0x30
 17461 05c3 9F       		.byte	0x9f
 17462 05c4 00000000 		.4byte	0
 17463 05c8 00000000 		.4byte	0
 17464              	.LLST44:
 17465 05cc 00010000 		.4byte	.LVL79
 17466 05d0 62010000 		.4byte	.LVL85
 17467 05d4 0200     		.2byte	0x2
 17468 05d6 30       		.byte	0x30
 17469 05d7 9F       		.byte	0x9f
 17470 05d8 00000000 		.4byte	0
 17471 05dc 00000000 		.4byte	0
 17472              	.LLST35:
 17473 05e0 D8000000 		.4byte	.LVL75
 17474 05e4 62010000 		.4byte	.LVL85
 17475 05e8 0100     		.2byte	0x1
 17476 05ea 55       		.byte	0x55
 17477 05eb 00000000 		.4byte	0
 17478 05ef 00000000 		.4byte	0
 17479              	.LLST37:
 17480 05f3 DE000000 		.4byte	.LVL76
 17481 05f7 62010000 		.4byte	.LVL85
ARM GAS  C:\Users\legoc\AppData\Local\Temp\ccMAvaOS.s 			page 330


 17482 05fb 0100     		.2byte	0x1
 17483 05fd 54       		.byte	0x54
 17484 05fe 00000000 		.4byte	0
 17485 0602 00000000 		.4byte	0
 17486              	.LLST45:
 17487 0606 E0010000 		.4byte	.LVL105
 17488 060a E4010000 		.4byte	.LVL106
 17489 060e 0B00     		.2byte	0xb
 17490 0610 73       		.byte	0x73
 17491 0611 00       		.sleb128 0
 17492 0612 09       		.byte	0x9
 17493 0613 FE       		.byte	0xfe
 17494 0614 1B       		.byte	0x1b
 17495 0615 78       		.byte	0x78
 17496 0616 00       		.sleb128 0
 17497 0617 22       		.byte	0x22
 17498 0618 23       		.byte	0x23
 17499 0619 03       		.uleb128 0x3
 17500 061a 9F       		.byte	0x9f
 17501 061b 00000000 		.4byte	0
 17502 061f 00000000 		.4byte	0
 17503              	.LLST46:
 17504 0623 00000000 		.4byte	.LVL110
 17505 0627 43000000 		.4byte	.LVL116-1
 17506 062b 0100     		.2byte	0x1
 17507 062d 50       		.byte	0x50
 17508 062e 43000000 		.4byte	.LVL116-1
 17509 0632 A2000000 		.4byte	.LVL132
 17510 0636 0400     		.2byte	0x4
 17511 0638 F3       		.byte	0xf3
 17512 0639 01       		.uleb128 0x1
 17513 063a 50       		.byte	0x50
 17514 063b 9F       		.byte	0x9f
 17515 063c A2000000 		.4byte	.LVL132
 17516 0640 A6000000 		.4byte	.LFE4
 17517 0644 0100     		.2byte	0x1
 17518 0646 50       		.byte	0x50
 17519 0647 00000000 		.4byte	0
 17520 064b 00000000 		.4byte	0
 17521              	.LLST47:
 17522 064f 00000000 		.4byte	.LVL110
 17523 0653 43000000 		.4byte	.LVL116-1
 17524 0657 0100     		.2byte	0x1
 17525 0659 51       		.byte	0x51
 17526 065a 43000000 		.4byte	.LVL116-1
 17527 065e A2000000 		.4byte	.LVL132
 17528 0662 0400     		.2byte	0x4
 17529 0664 F3       		.byte	0xf3
 17530 0665 01       		.uleb128 0x1
 17531 0666 51       		.byte	0x51
 17532 0667 9F       		.byte	0x9f
 17533 0668 A2000000 		.4byte	.LVL132
 17534 066c A6000000 		.4byte	.LFE4
 17535 0670 0100     		.2byte	0x1
 17536 0672 51       		.byte	0x51
 17537 0673 00000000 		.4byte	0
 17538 0677 00000000 		.4byte	0
ARM GAS  C:\Users\legoc\AppData\Local\Temp\ccMAvaOS.s 			page 331


 17539              	.LLST48:
 17540 067b 00000000 		.4byte	.LVL110
 17541 067f 40000000 		.4byte	.LVL115
 17542 0683 0100     		.2byte	0x1
 17543 0685 52       		.byte	0x52
 17544 0686 40000000 		.4byte	.LVL115
 17545 068a A2000000 		.4byte	.LVL132
 17546 068e 0400     		.2byte	0x4
 17547 0690 F3       		.byte	0xf3
 17548 0691 01       		.uleb128 0x1
 17549 0692 52       		.byte	0x52
 17550 0693 9F       		.byte	0x9f
 17551 0694 A2000000 		.4byte	.LVL132
 17552 0698 A6000000 		.4byte	.LFE4
 17553 069c 0100     		.2byte	0x1
 17554 069e 52       		.byte	0x52
 17555 069f 00000000 		.4byte	0
 17556 06a3 00000000 		.4byte	0
 17557              	.LLST49:
 17558 06a7 00000000 		.4byte	.LVL110
 17559 06ab 18000000 		.4byte	.LVL112
 17560 06af 0100     		.2byte	0x1
 17561 06b1 53       		.byte	0x53
 17562 06b2 18000000 		.4byte	.LVL112
 17563 06b6 A2000000 		.4byte	.LVL132
 17564 06ba 0400     		.2byte	0x4
 17565 06bc F3       		.byte	0xf3
 17566 06bd 01       		.uleb128 0x1
 17567 06be 53       		.byte	0x53
 17568 06bf 9F       		.byte	0x9f
 17569 06c0 A2000000 		.4byte	.LVL132
 17570 06c4 A6000000 		.4byte	.LFE4
 17571 06c8 0100     		.2byte	0x1
 17572 06ca 53       		.byte	0x53
 17573 06cb 00000000 		.4byte	0
 17574 06cf 00000000 		.4byte	0
 17575              	.LLST50:
 17576 06d3 00000000 		.4byte	.LVL110
 17577 06d7 9E000000 		.4byte	.LVL131
 17578 06db 0200     		.2byte	0x2
 17579 06dd 91       		.byte	0x91
 17580 06de 00       		.sleb128 0
 17581 06df 9E000000 		.4byte	.LVL131
 17582 06e3 A2000000 		.4byte	.LVL132
 17583 06e7 0200     		.2byte	0x2
 17584 06e9 7D       		.byte	0x7d
 17585 06ea 00       		.sleb128 0
 17586 06eb A2000000 		.4byte	.LVL132
 17587 06ef A6000000 		.4byte	.LFE4
 17588 06f3 0200     		.2byte	0x2
 17589 06f5 91       		.byte	0x91
 17590 06f6 00       		.sleb128 0
 17591 06f7 00000000 		.4byte	0
 17592 06fb 00000000 		.4byte	0
 17593              	.LLST51:
 17594 06ff 14000000 		.4byte	.LVL111
 17595 0703 5A000000 		.4byte	.LVL120
ARM GAS  C:\Users\legoc\AppData\Local\Temp\ccMAvaOS.s 			page 332


 17596 0707 0100     		.2byte	0x1
 17597 0709 55       		.byte	0x55
 17598 070a 5A000000 		.4byte	.LVL120
 17599 070e 9E000000 		.4byte	.LVL131
 17600 0712 0200     		.2byte	0x2
 17601 0714 91       		.byte	0x91
 17602 0715 00       		.sleb128 0
 17603 0716 9E000000 		.4byte	.LVL131
 17604 071a A2000000 		.4byte	.LVL132
 17605 071e 0200     		.2byte	0x2
 17606 0720 7D       		.byte	0x7d
 17607 0721 00       		.sleb128 0
 17608 0722 00000000 		.4byte	0
 17609 0726 00000000 		.4byte	0
 17610              	.LLST52:
 17611 072a 14000000 		.4byte	.LVL111
 17612 072e 5C000000 		.4byte	.LVL121
 17613 0732 0100     		.2byte	0x1
 17614 0734 58       		.byte	0x58
 17615 0735 00000000 		.4byte	0
 17616 0739 00000000 		.4byte	0
 17617              	.LLST53:
 17618 073d 14000000 		.4byte	.LVL111
 17619 0741 2A000000 		.4byte	.LVL113
 17620 0745 0100     		.2byte	0x1
 17621 0747 52       		.byte	0x52
 17622 0748 2A000000 		.4byte	.LVL113
 17623 074c 9E000000 		.4byte	.LVL131
 17624 0750 0100     		.2byte	0x1
 17625 0752 57       		.byte	0x57
 17626 0753 00000000 		.4byte	0
 17627 0757 00000000 		.4byte	0
 17628              	.LLST54:
 17629 075b 14000000 		.4byte	.LVL111
 17630 075f 43000000 		.4byte	.LVL116-1
 17631 0763 0100     		.2byte	0x1
 17632 0765 51       		.byte	0x51
 17633 0766 43000000 		.4byte	.LVL116-1
 17634 076a 5A000000 		.4byte	.LVL120
 17635 076e 0400     		.2byte	0x4
 17636 0770 F3       		.byte	0xf3
 17637 0771 01       		.uleb128 0x1
 17638 0772 51       		.byte	0x51
 17639 0773 9F       		.byte	0x9f
 17640 0774 5A000000 		.4byte	.LVL120
 17641 0778 9E000000 		.4byte	.LVL131
 17642 077c 0100     		.2byte	0x1
 17643 077e 58       		.byte	0x58
 17644 077f 00000000 		.4byte	0
 17645 0783 00000000 		.4byte	0
 17646              	.LLST55:
 17647 0787 14000000 		.4byte	.LVL111
 17648 078b 43000000 		.4byte	.LVL116-1
 17649 078f 0100     		.2byte	0x1
 17650 0791 50       		.byte	0x50
 17651 0792 43000000 		.4byte	.LVL116-1
 17652 0796 5C000000 		.4byte	.LVL121
ARM GAS  C:\Users\legoc\AppData\Local\Temp\ccMAvaOS.s 			page 333


 17653 079a 0400     		.2byte	0x4
 17654 079c F3       		.byte	0xf3
 17655 079d 01       		.uleb128 0x1
 17656 079e 50       		.byte	0x50
 17657 079f 9F       		.byte	0x9f
 17658 07a0 5C000000 		.4byte	.LVL121
 17659 07a4 64000000 		.4byte	.LVL122
 17660 07a8 0100     		.2byte	0x1
 17661 07aa 57       		.byte	0x57
 17662 07ab 64000000 		.4byte	.LVL122
 17663 07af 82000000 		.4byte	.LVL127
 17664 07b3 0100     		.2byte	0x1
 17665 07b5 54       		.byte	0x54
 17666 07b6 86000000 		.4byte	.LVL128
 17667 07ba 8A000000 		.4byte	.LVL129
 17668 07be 0100     		.2byte	0x1
 17669 07c0 54       		.byte	0x54
 17670 07c1 00000000 		.4byte	0
 17671 07c5 00000000 		.4byte	0
 17672              	.LLST56:
 17673 07c9 58000000 		.4byte	.LVL119
 17674 07cd 9E000000 		.4byte	.LVL131
 17675 07d1 0100     		.2byte	0x1
 17676 07d3 56       		.byte	0x56
 17677 07d4 9E000000 		.4byte	.LVL131
 17678 07d8 A2000000 		.4byte	.LVL132
 17679 07dc 0B00     		.2byte	0xb
 17680 07de 7D       		.byte	0x7d
 17681 07df 00       		.sleb128 0
 17682 07e0 94       		.byte	0x94
 17683 07e1 02       		.byte	0x2
 17684 07e2 0A       		.byte	0xa
 17685 07e3 FFFF     		.2byte	0xffff
 17686 07e5 1A       		.byte	0x1a
 17687 07e6 38       		.byte	0x38
 17688 07e7 25       		.byte	0x25
 17689 07e8 9F       		.byte	0x9f
 17690 07e9 00000000 		.4byte	0
 17691 07ed 00000000 		.4byte	0
 17692              	.LLST57:
 17693 07f1 5A000000 		.4byte	.LVL120
 17694 07f5 9E000000 		.4byte	.LVL131
 17695 07f9 0100     		.2byte	0x1
 17696 07fb 55       		.byte	0x55
 17697 07fc 9E000000 		.4byte	.LVL131
 17698 0800 A2000000 		.4byte	.LVL132
 17699 0804 0200     		.2byte	0x2
 17700 0806 7D       		.byte	0x7d
 17701 0807 00       		.sleb128 0
 17702 0808 00000000 		.4byte	0
 17703 080c 00000000 		.4byte	0
 17704              	.LLST58:
 17705 0810 00000000 		.4byte	.LVL133
 17706 0814 22000000 		.4byte	.LVL137
 17707 0818 0100     		.2byte	0x1
 17708 081a 50       		.byte	0x50
 17709 081b 22000000 		.4byte	.LVL137
ARM GAS  C:\Users\legoc\AppData\Local\Temp\ccMAvaOS.s 			page 334


 17710 081f BE000000 		.4byte	.LFE5
 17711 0823 0400     		.2byte	0x4
 17712 0825 F3       		.byte	0xf3
 17713 0826 01       		.uleb128 0x1
 17714 0827 50       		.byte	0x50
 17715 0828 9F       		.byte	0x9f
 17716 0829 00000000 		.4byte	0
 17717 082d 00000000 		.4byte	0
 17718              	.LLST59:
 17719 0831 00000000 		.4byte	.LVL133
 17720 0835 0A000000 		.4byte	.LVL135
 17721 0839 0100     		.2byte	0x1
 17722 083b 51       		.byte	0x51
 17723 083c 0A000000 		.4byte	.LVL135
 17724 0840 BE000000 		.4byte	.LFE5
 17725 0844 0400     		.2byte	0x4
 17726 0846 F3       		.byte	0xf3
 17727 0847 01       		.uleb128 0x1
 17728 0848 51       		.byte	0x51
 17729 0849 9F       		.byte	0x9f
 17730 084a 00000000 		.4byte	0
 17731 084e 00000000 		.4byte	0
 17732              	.LLST60:
 17733 0852 00000000 		.4byte	.LVL133
 17734 0856 08000000 		.4byte	.LVL134
 17735 085a 0100     		.2byte	0x1
 17736 085c 52       		.byte	0x52
 17737 085d 08000000 		.4byte	.LVL134
 17738 0861 BE000000 		.4byte	.LFE5
 17739 0865 0400     		.2byte	0x4
 17740 0867 F3       		.byte	0xf3
 17741 0868 01       		.uleb128 0x1
 17742 0869 52       		.byte	0x52
 17743 086a 9F       		.byte	0x9f
 17744 086b 00000000 		.4byte	0
 17745 086f 00000000 		.4byte	0
 17746              	.LLST61:
 17747 0873 00000000 		.4byte	.LVL133
 17748 0877 0E000000 		.4byte	.LVL136
 17749 087b 0100     		.2byte	0x1
 17750 087d 53       		.byte	0x53
 17751 087e 0E000000 		.4byte	.LVL136
 17752 0882 4C000000 		.4byte	.LVL143
 17753 0886 0100     		.2byte	0x1
 17754 0888 52       		.byte	0x52
 17755 0889 4C000000 		.4byte	.LVL143
 17756 088d BE000000 		.4byte	.LFE5
 17757 0891 0400     		.2byte	0x4
 17758 0893 F3       		.byte	0xf3
 17759 0894 01       		.uleb128 0x1
 17760 0895 53       		.byte	0x53
 17761 0896 9F       		.byte	0x9f
 17762 0897 00000000 		.4byte	0
 17763 089b 00000000 		.4byte	0
 17764              	.LLST62:
 17765 089f 00000000 		.4byte	.LVL133
 17766 08a3 3E000000 		.4byte	.LVL140
ARM GAS  C:\Users\legoc\AppData\Local\Temp\ccMAvaOS.s 			page 335


 17767 08a7 0200     		.2byte	0x2
 17768 08a9 91       		.byte	0x91
 17769 08aa 00       		.sleb128 0
 17770 08ab 3E000000 		.4byte	.LVL140
 17771 08af BA000000 		.4byte	.LVL161
 17772 08b3 0200     		.2byte	0x2
 17773 08b5 91       		.byte	0x91
 17774 08b6 00       		.sleb128 0
 17775 08b7 BA000000 		.4byte	.LVL161
 17776 08bb BE000000 		.4byte	.LFE5
 17777 08bf 0200     		.2byte	0x2
 17778 08c1 7D       		.byte	0x7d
 17779 08c2 00       		.sleb128 0
 17780 08c3 00000000 		.4byte	0
 17781 08c7 00000000 		.4byte	0
 17782              	.LLST63:
 17783 08cb 26000000 		.4byte	.LVL138
 17784 08cf 76000000 		.4byte	.LVL150
 17785 08d3 0100     		.2byte	0x1
 17786 08d5 55       		.byte	0x55
 17787 08d6 76000000 		.4byte	.LVL150
 17788 08da BA000000 		.4byte	.LVL161
 17789 08de 0200     		.2byte	0x2
 17790 08e0 91       		.byte	0x91
 17791 08e1 00       		.sleb128 0
 17792 08e2 BA000000 		.4byte	.LVL161
 17793 08e6 BE000000 		.4byte	.LFE5
 17794 08ea 0200     		.2byte	0x2
 17795 08ec 7D       		.byte	0x7d
 17796 08ed 00       		.sleb128 0
 17797 08ee 00000000 		.4byte	0
 17798 08f2 00000000 		.4byte	0
 17799              	.LLST64:
 17800 08f6 22000000 		.4byte	.LVL137
 17801 08fa 56000000 		.4byte	.LVL144
 17802 08fe 0100     		.2byte	0x1
 17803 0900 58       		.byte	0x58
 17804 0901 56000000 		.4byte	.LVL144
 17805 0905 74000000 		.4byte	.LVL149
 17806 0909 0100     		.2byte	0x1
 17807 090b 56       		.byte	0x56
 17808 090c 00000000 		.4byte	0
 17809 0910 00000000 		.4byte	0
 17810              	.LLST65:
 17811 0914 22000000 		.4byte	.LVL137
 17812 0918 4A000000 		.4byte	.LVL142
 17813 091c 0100     		.2byte	0x1
 17814 091e 57       		.byte	0x57
 17815 091f 00000000 		.4byte	0
 17816 0923 00000000 		.4byte	0
 17817              	.LLST66:
 17818 0927 22000000 		.4byte	.LVL137
 17819 092b 3A000000 		.4byte	.LVL139
 17820 092f 0700     		.2byte	0x7
 17821 0931 0A       		.byte	0xa
 17822 0932 4001     		.2byte	0x140
 17823 0934 70       		.byte	0x70
ARM GAS  C:\Users\legoc\AppData\Local\Temp\ccMAvaOS.s 			page 336


 17824 0935 00       		.sleb128 0
 17825 0936 1C       		.byte	0x1c
 17826 0937 9F       		.byte	0x9f
 17827 0938 3E000000 		.4byte	.LVL140
 17828 093c 5C000000 		.4byte	.LVL145
 17829 0940 0700     		.2byte	0x7
 17830 0942 0A       		.byte	0xa
 17831 0943 4001     		.2byte	0x140
 17832 0945 70       		.byte	0x70
 17833 0946 00       		.sleb128 0
 17834 0947 1C       		.byte	0x1c
 17835 0948 9F       		.byte	0x9f
 17836 0949 00000000 		.4byte	0
 17837 094d 00000000 		.4byte	0
 17838              	.LLST67:
 17839 0951 22000000 		.4byte	.LVL137
 17840 0955 40000000 		.4byte	.LVL141
 17841 0959 0100     		.2byte	0x1
 17842 095b 5E       		.byte	0x5e
 17843 095c 40000000 		.4byte	.LVL141
 17844 0960 78000000 		.4byte	.LVL151
 17845 0964 0100     		.2byte	0x1
 17846 0966 54       		.byte	0x54
 17847 0967 00000000 		.4byte	0
 17848 096b 00000000 		.4byte	0
 17849              	.LLST68:
 17850 096f 3E000000 		.4byte	.LVL140
 17851 0973 76000000 		.4byte	.LVL150
 17852 0977 0100     		.2byte	0x1
 17853 0979 55       		.byte	0x55
 17854 097a 76000000 		.4byte	.LVL150
 17855 097e BA000000 		.4byte	.LVL161
 17856 0982 0200     		.2byte	0x2
 17857 0984 91       		.byte	0x91
 17858 0985 00       		.sleb128 0
 17859 0986 BA000000 		.4byte	.LVL161
 17860 098a BE000000 		.4byte	.LFE5
 17861 098e 0200     		.2byte	0x2
 17862 0990 7D       		.byte	0x7d
 17863 0991 00       		.sleb128 0
 17864 0992 00000000 		.4byte	0
 17865 0996 00000000 		.4byte	0
 17866              	.LLST69:
 17867 099a 3E000000 		.4byte	.LVL140
 17868 099e 78000000 		.4byte	.LVL151
 17869 09a2 0100     		.2byte	0x1
 17870 09a4 58       		.byte	0x58
 17871 09a5 00000000 		.4byte	0
 17872 09a9 00000000 		.4byte	0
 17873              	.LLST70:
 17874 09ad 3E000000 		.4byte	.LVL140
 17875 09b1 BA000000 		.4byte	.LVL161
 17876 09b5 0100     		.2byte	0x1
 17877 09b7 57       		.byte	0x57
 17878 09b8 00000000 		.4byte	0
 17879 09bc 00000000 		.4byte	0
 17880              	.LLST71:
ARM GAS  C:\Users\legoc\AppData\Local\Temp\ccMAvaOS.s 			page 337


 17881 09c0 3E000000 		.4byte	.LVL140
 17882 09c4 5C000000 		.4byte	.LVL145
 17883 09c8 0700     		.2byte	0x7
 17884 09ca 0A       		.byte	0xa
 17885 09cb 4001     		.2byte	0x140
 17886 09cd 70       		.byte	0x70
 17887 09ce 00       		.sleb128 0
 17888 09cf 1C       		.byte	0x1c
 17889 09d0 9F       		.byte	0x9f
 17890 09d1 76000000 		.4byte	.LVL150
 17891 09d5 BA000000 		.4byte	.LVL161
 17892 09d9 0100     		.2byte	0x1
 17893 09db 58       		.byte	0x58
 17894 09dc 00000000 		.4byte	0
 17895 09e0 00000000 		.4byte	0
 17896              	.LLST72:
 17897 09e4 3E000000 		.4byte	.LVL140
 17898 09e8 40000000 		.4byte	.LVL141
 17899 09ec 0100     		.2byte	0x1
 17900 09ee 5E       		.byte	0x5e
 17901 09ef 40000000 		.4byte	.LVL141
 17902 09f3 78000000 		.4byte	.LVL151
 17903 09f7 0100     		.2byte	0x1
 17904 09f9 54       		.byte	0x54
 17905 09fa 78000000 		.4byte	.LVL151
 17906 09fe 80000000 		.4byte	.LVL152
 17907 0a02 0100     		.2byte	0x1
 17908 0a04 57       		.byte	0x57
 17909 0a05 80000000 		.4byte	.LVL152
 17910 0a09 9E000000 		.4byte	.LVL157
 17911 0a0d 0100     		.2byte	0x1
 17912 0a0f 54       		.byte	0x54
 17913 0a10 A2000000 		.4byte	.LVL158
 17914 0a14 A6000000 		.4byte	.LVL159
 17915 0a18 0100     		.2byte	0x1
 17916 0a1a 54       		.byte	0x54
 17917 0a1b 00000000 		.4byte	0
 17918 0a1f 00000000 		.4byte	0
 17919              	.LLST73:
 17920 0a23 74000000 		.4byte	.LVL149
 17921 0a27 BA000000 		.4byte	.LVL161
 17922 0a2b 0100     		.2byte	0x1
 17923 0a2d 56       		.byte	0x56
 17924 0a2e BA000000 		.4byte	.LVL161
 17925 0a32 BE000000 		.4byte	.LFE5
 17926 0a36 0B00     		.2byte	0xb
 17927 0a38 7D       		.byte	0x7d
 17928 0a39 00       		.sleb128 0
 17929 0a3a 94       		.byte	0x94
 17930 0a3b 02       		.byte	0x2
 17931 0a3c 0A       		.byte	0xa
 17932 0a3d FFFF     		.2byte	0xffff
 17933 0a3f 1A       		.byte	0x1a
 17934 0a40 38       		.byte	0x38
 17935 0a41 25       		.byte	0x25
 17936 0a42 9F       		.byte	0x9f
 17937 0a43 00000000 		.4byte	0
ARM GAS  C:\Users\legoc\AppData\Local\Temp\ccMAvaOS.s 			page 338


 17938 0a47 00000000 		.4byte	0
 17939              	.LLST74:
 17940 0a4b 76000000 		.4byte	.LVL150
 17941 0a4f BA000000 		.4byte	.LVL161
 17942 0a53 0100     		.2byte	0x1
 17943 0a55 55       		.byte	0x55
 17944 0a56 00000000 		.4byte	0
 17945 0a5a 00000000 		.4byte	0
 17946              	.LLST75:
 17947 0a5e 00000000 		.4byte	.LVL163
 17948 0a62 0E000000 		.4byte	.LVL165
 17949 0a66 0100     		.2byte	0x1
 17950 0a68 50       		.byte	0x50
 17951 0a69 0E000000 		.4byte	.LVL165
 17952 0a6d 5C000000 		.4byte	.LFE6
 17953 0a71 0400     		.2byte	0x4
 17954 0a73 F3       		.byte	0xf3
 17955 0a74 01       		.uleb128 0x1
 17956 0a75 50       		.byte	0x50
 17957 0a76 9F       		.byte	0x9f
 17958 0a77 00000000 		.4byte	0
 17959 0a7b 00000000 		.4byte	0
 17960              	.LLST76:
 17961 0a7f 08000000 		.4byte	.LVL164
 17962 0a83 26000000 		.4byte	.LVL170
 17963 0a87 0100     		.2byte	0x1
 17964 0a89 55       		.byte	0x55
 17965 0a8a 00000000 		.4byte	0
 17966 0a8e 00000000 		.4byte	0
 17967              	.LLST78:
 17968 0a92 08000000 		.4byte	.LVL164
 17969 0a96 26000000 		.4byte	.LVL170
 17970 0a9a 0200     		.2byte	0x2
 17971 0a9c 30       		.byte	0x30
 17972 0a9d 9F       		.byte	0x9f
 17973 0a9e 26000000 		.4byte	.LVL170
 17974 0aa2 28000000 		.4byte	.LVL171
 17975 0aa6 0300     		.2byte	0x3
 17976 0aa8 08       		.byte	0x8
 17977 0aa9 F0       		.byte	0xf0
 17978 0aaa 9F       		.byte	0x9f
 17979 0aab 00000000 		.4byte	0
 17980 0aaf 00000000 		.4byte	0
 17981              	.LLST80:
 17982 0ab3 08000000 		.4byte	.LVL164
 17983 0ab7 26000000 		.4byte	.LVL170
 17984 0abb 0200     		.2byte	0x2
 17985 0abd 30       		.byte	0x30
 17986 0abe 9F       		.byte	0x9f
 17987 0abf 00000000 		.4byte	0
 17988 0ac3 00000000 		.4byte	0
 17989              	.LLST81:
 17990 0ac7 20000000 		.4byte	.LVL169
 17991 0acb 58000000 		.4byte	.LVL176
 17992 0acf 0100     		.2byte	0x1
 17993 0ad1 56       		.byte	0x56
 17994 0ad2 00000000 		.4byte	0
ARM GAS  C:\Users\legoc\AppData\Local\Temp\ccMAvaOS.s 			page 339


 17995 0ad6 00000000 		.4byte	0
 17996              	.LLST82:
 17997 0ada 26000000 		.4byte	.LVL170
 17998 0ade 58000000 		.4byte	.LVL176
 17999 0ae2 0100     		.2byte	0x1
 18000 0ae4 55       		.byte	0x55
 18001 0ae5 00000000 		.4byte	0
 18002 0ae9 00000000 		.4byte	0
 18003              	.LLST83:
 18004 0aed 00000000 		.4byte	.LVL178
 18005 0af1 08000000 		.4byte	.LVL179
 18006 0af5 0300     		.2byte	0x3
 18007 0af7 09       		.byte	0x9
 18008 0af8 EF       		.byte	0xef
 18009 0af9 9F       		.byte	0x9f
 18010 0afa 72000000 		.4byte	.LVL195
 18011 0afe 7A000000 		.4byte	.LVL196
 18012 0b02 0200     		.2byte	0x2
 18013 0b04 76       		.byte	0x76
 18014 0b05 00       		.sleb128 0
 18015 0b06 00000000 		.4byte	0
 18016 0b0a 00000000 		.4byte	0
 18017              	.LLST84:
 18018 0b0e 2E000000 		.4byte	.LVL185
 18019 0b12 36000000 		.4byte	.LVL186
 18020 0b16 0600     		.2byte	0x6
 18021 0b18 79       		.byte	0x79
 18022 0b19 00       		.sleb128 0
 18023 0b1a 08       		.byte	0x8
 18024 0b1b 7F       		.byte	0x7f
 18025 0b1c 1A       		.byte	0x1a
 18026 0b1d 9F       		.byte	0x9f
 18027 0b1e 64000000 		.4byte	.LVL193
 18028 0b22 6C000000 		.4byte	.LVL194
 18029 0b26 1200     		.2byte	0x12
 18030 0b28 79       		.byte	0x79
 18031 0b29 00       		.sleb128 0
 18032 0b2a 08       		.byte	0x8
 18033 0b2b 7F       		.byte	0x7f
 18034 0b2c 1A       		.byte	0x1a
 18035 0b2d 74       		.byte	0x74
 18036 0b2e 00       		.sleb128 0
 18037 0b2f 20       		.byte	0x20
 18038 0b30 22       		.byte	0x22
 18039 0b31 78       		.byte	0x78
 18040 0b32 00       		.sleb128 0
 18041 0b33 77       		.byte	0x77
 18042 0b34 00       		.sleb128 0
 18043 0b35 22       		.byte	0x22
 18044 0b36 23       		.byte	0x23
 18045 0b37 02       		.uleb128 0x2
 18046 0b38 22       		.byte	0x22
 18047 0b39 9F       		.byte	0x9f
 18048 0b3a 6C000000 		.4byte	.LVL194
 18049 0b3e 72000000 		.4byte	.LVL195
 18050 0b42 0D00     		.2byte	0xd
 18051 0b44 79       		.byte	0x79
ARM GAS  C:\Users\legoc\AppData\Local\Temp\ccMAvaOS.s 			page 340


 18052 0b45 00       		.sleb128 0
 18053 0b46 08       		.byte	0x8
 18054 0b47 7F       		.byte	0x7f
 18055 0b48 1A       		.byte	0x1a
 18056 0b49 74       		.byte	0x74
 18057 0b4a 00       		.sleb128 0
 18058 0b4b 20       		.byte	0x20
 18059 0b4c 22       		.byte	0x22
 18060 0b4d 76       		.byte	0x76
 18061 0b4e 02       		.sleb128 2
 18062 0b4f 22       		.byte	0x22
 18063 0b50 9F       		.byte	0x9f
 18064 0b51 7A000000 		.4byte	.LVL196
 18065 0b55 88000000 		.4byte	.LFE7
 18066 0b59 0D00     		.2byte	0xd
 18067 0b5b 79       		.byte	0x79
 18068 0b5c 00       		.sleb128 0
 18069 0b5d 08       		.byte	0x8
 18070 0b5e 7F       		.byte	0x7f
 18071 0b5f 1A       		.byte	0x1a
 18072 0b60 74       		.byte	0x74
 18073 0b61 00       		.sleb128 0
 18074 0b62 20       		.byte	0x20
 18075 0b63 22       		.byte	0x22
 18076 0b64 76       		.byte	0x76
 18077 0b65 02       		.sleb128 2
 18078 0b66 22       		.byte	0x22
 18079 0b67 9F       		.byte	0x9f
 18080 0b68 00000000 		.4byte	0
 18081 0b6c 00000000 		.4byte	0
 18082              	.LLST85:
 18083 0b70 00000000 		.4byte	.LVL178
 18084 0b74 08000000 		.4byte	.LVL179
 18085 0b78 0600     		.2byte	0x6
 18086 0b7a 03       		.byte	0x3
 18087 0b7b 01000000 		.4byte	initcmd+1
 18088 0b7f 9F       		.byte	0x9f
 18089 0b80 28000000 		.4byte	.LVL184
 18090 0b84 36000000 		.4byte	.LVL186
 18091 0b88 0100     		.2byte	0x1
 18092 0b8a 58       		.byte	0x58
 18093 0b8b 36000000 		.4byte	.LVL186
 18094 0b8f 3E000000 		.4byte	.LVL187
 18095 0b93 0100     		.2byte	0x1
 18096 0b95 54       		.byte	0x54
 18097 0b96 3E000000 		.4byte	.LVL187
 18098 0b9a 64000000 		.4byte	.LVL193
 18099 0b9e 0300     		.2byte	0x3
 18100 0ba0 74       		.byte	0x74
 18101 0ba1 7F       		.sleb128 -1
 18102 0ba2 9F       		.byte	0x9f
 18103 0ba3 64000000 		.4byte	.LVL193
 18104 0ba7 72000000 		.4byte	.LVL195
 18105 0bab 0100     		.2byte	0x1
 18106 0bad 54       		.byte	0x54
 18107 0bae 72000000 		.4byte	.LVL195
 18108 0bb2 7A000000 		.4byte	.LVL196
ARM GAS  C:\Users\legoc\AppData\Local\Temp\ccMAvaOS.s 			page 341


 18109 0bb6 0300     		.2byte	0x3
 18110 0bb8 76       		.byte	0x76
 18111 0bb9 01       		.sleb128 1
 18112 0bba 9F       		.byte	0x9f
 18113 0bbb 7A000000 		.4byte	.LVL196
 18114 0bbf 88000000 		.4byte	.LFE7
 18115 0bc3 0100     		.2byte	0x1
 18116 0bc5 54       		.byte	0x54
 18117 0bc6 00000000 		.4byte	0
 18118 0bca 00000000 		.4byte	0
 18119              	.LLST86:
 18120 0bce 3E000000 		.4byte	.LVL187
 18121 0bd2 64000000 		.4byte	.LVL193
 18122 0bd6 0100     		.2byte	0x1
 18123 0bd8 55       		.byte	0x55
 18124 0bd9 00000000 		.4byte	0
 18125 0bdd 00000000 		.4byte	0
 18126              	.LLST87:
 18127 0be1 00000000 		.4byte	.LVL198
 18128 0be5 1B000000 		.4byte	.LVL201-1
 18129 0be9 0100     		.2byte	0x1
 18130 0beb 50       		.byte	0x50
 18131 0bec 1B000000 		.4byte	.LVL201-1
 18132 0bf0 4C000000 		.4byte	.LFE8
 18133 0bf4 0400     		.2byte	0x4
 18134 0bf6 F3       		.byte	0xf3
 18135 0bf7 01       		.uleb128 0x1
 18136 0bf8 50       		.byte	0x50
 18137 0bf9 9F       		.byte	0x9f
 18138 0bfa 00000000 		.4byte	0
 18139 0bfe 00000000 		.4byte	0
 18140              	.LLST88:
 18141 0c02 00000000 		.4byte	.LVL198
 18142 0c06 0E000000 		.4byte	.LVL199
 18143 0c0a 0100     		.2byte	0x1
 18144 0c0c 51       		.byte	0x51
 18145 0c0d 0E000000 		.4byte	.LVL199
 18146 0c11 4C000000 		.4byte	.LFE8
 18147 0c15 0400     		.2byte	0x4
 18148 0c17 F3       		.byte	0xf3
 18149 0c18 01       		.uleb128 0x1
 18150 0c19 51       		.byte	0x51
 18151 0c1a 9F       		.byte	0x9f
 18152 0c1b 00000000 		.4byte	0
 18153 0c1f 00000000 		.4byte	0
 18154              	.LLST89:
 18155 0c23 00000000 		.4byte	.LVL198
 18156 0c27 18000000 		.4byte	.LVL200
 18157 0c2b 0100     		.2byte	0x1
 18158 0c2d 52       		.byte	0x52
 18159 0c2e 18000000 		.4byte	.LVL200
 18160 0c32 4C000000 		.4byte	.LFE8
 18161 0c36 0400     		.2byte	0x4
 18162 0c38 F3       		.byte	0xf3
 18163 0c39 01       		.uleb128 0x1
 18164 0c3a 52       		.byte	0x52
 18165 0c3b 9F       		.byte	0x9f
ARM GAS  C:\Users\legoc\AppData\Local\Temp\ccMAvaOS.s 			page 342


 18166 0c3c 00000000 		.4byte	0
 18167 0c40 00000000 		.4byte	0
 18168              	.LLST90:
 18169 0c44 36000000 		.4byte	.LVL206
 18170 0c48 48000000 		.4byte	.LVL209
 18171 0c4c 0100     		.2byte	0x1
 18172 0c4e 54       		.byte	0x54
 18173 0c4f 00000000 		.4byte	0
 18174 0c53 00000000 		.4byte	0
 18175              	.LLST91:
 18176 0c57 00000000 		.4byte	.LVL211
 18177 0c5b 10000000 		.4byte	.LVL214
 18178 0c5f 0100     		.2byte	0x1
 18179 0c61 50       		.byte	0x50
 18180 0c62 10000000 		.4byte	.LVL214
 18181 0c66 58000000 		.4byte	.LFE9
 18182 0c6a 0400     		.2byte	0x4
 18183 0c6c F3       		.byte	0xf3
 18184 0c6d 01       		.uleb128 0x1
 18185 0c6e 50       		.byte	0x50
 18186 0c6f 9F       		.byte	0x9f
 18187 0c70 00000000 		.4byte	0
 18188 0c74 00000000 		.4byte	0
 18189              	.LLST92:
 18190 0c78 00000000 		.4byte	.LVL211
 18191 0c7c 04000000 		.4byte	.LVL212
 18192 0c80 0100     		.2byte	0x1
 18193 0c82 51       		.byte	0x51
 18194 0c83 04000000 		.4byte	.LVL212
 18195 0c87 58000000 		.4byte	.LFE9
 18196 0c8b 0400     		.2byte	0x4
 18197 0c8d F3       		.byte	0xf3
 18198 0c8e 01       		.uleb128 0x1
 18199 0c8f 51       		.byte	0x51
 18200 0c90 9F       		.byte	0x9f
 18201 0c91 00000000 		.4byte	0
 18202 0c95 00000000 		.4byte	0
 18203              	.LLST93:
 18204 0c99 00000000 		.4byte	.LVL211
 18205 0c9d 20000000 		.4byte	.LVL215
 18206 0ca1 0100     		.2byte	0x1
 18207 0ca3 52       		.byte	0x52
 18208 0ca4 20000000 		.4byte	.LVL215
 18209 0ca8 56000000 		.4byte	.LVL225
 18210 0cac 0400     		.2byte	0x4
 18211 0cae F3       		.byte	0xf3
 18212 0caf 01       		.uleb128 0x1
 18213 0cb0 52       		.byte	0x52
 18214 0cb1 9F       		.byte	0x9f
 18215 0cb2 56000000 		.4byte	.LVL225
 18216 0cb6 58000000 		.4byte	.LFE9
 18217 0cba 0100     		.2byte	0x1
 18218 0cbc 52       		.byte	0x52
 18219 0cbd 00000000 		.4byte	0
 18220 0cc1 00000000 		.4byte	0
 18221              	.LLST94:
 18222 0cc5 08000000 		.4byte	.LVL213
ARM GAS  C:\Users\legoc\AppData\Local\Temp\ccMAvaOS.s 			page 343


 18223 0cc9 20000000 		.4byte	.LVL215
 18224 0ccd 0100     		.2byte	0x1
 18225 0ccf 52       		.byte	0x52
 18226 0cd0 20000000 		.4byte	.LVL215
 18227 0cd4 56000000 		.4byte	.LVL225
 18228 0cd8 0400     		.2byte	0x4
 18229 0cda F3       		.byte	0xf3
 18230 0cdb 01       		.uleb128 0x1
 18231 0cdc 52       		.byte	0x52
 18232 0cdd 9F       		.byte	0x9f
 18233 0cde 56000000 		.4byte	.LVL225
 18234 0ce2 58000000 		.4byte	.LFE9
 18235 0ce6 0100     		.2byte	0x1
 18236 0ce8 52       		.byte	0x52
 18237 0ce9 00000000 		.4byte	0
 18238 0ced 00000000 		.4byte	0
 18239              	.LLST95:
 18240 0cf1 08000000 		.4byte	.LVL213
 18241 0cf5 10000000 		.4byte	.LVL214
 18242 0cf9 0700     		.2byte	0x7
 18243 0cfb 0A       		.byte	0xa
 18244 0cfc 3F01     		.2byte	0x13f
 18245 0cfe 70       		.byte	0x70
 18246 0cff 00       		.sleb128 0
 18247 0d00 1C       		.byte	0x1c
 18248 0d01 9F       		.byte	0x9f
 18249 0d02 10000000 		.4byte	.LVL214
 18250 0d06 58000000 		.4byte	.LFE9
 18251 0d0a 0800     		.2byte	0x8
 18252 0d0c 0A       		.byte	0xa
 18253 0d0d 3F01     		.2byte	0x13f
 18254 0d0f F3       		.byte	0xf3
 18255 0d10 01       		.uleb128 0x1
 18256 0d11 50       		.byte	0x50
 18257 0d12 1C       		.byte	0x1c
 18258 0d13 9F       		.byte	0x9f
 18259 0d14 00000000 		.4byte	0
 18260 0d18 00000000 		.4byte	0
 18261              	.LLST96:
 18262 0d1c 08000000 		.4byte	.LVL213
 18263 0d20 52000000 		.4byte	.LVL224
 18264 0d24 0100     		.2byte	0x1
 18265 0d26 54       		.byte	0x54
 18266 0d27 56000000 		.4byte	.LVL225
 18267 0d2b 58000000 		.4byte	.LFE9
 18268 0d2f 0100     		.2byte	0x1
 18269 0d31 54       		.byte	0x54
 18270 0d32 00000000 		.4byte	0
 18271 0d36 00000000 		.4byte	0
 18272              	.LLST97:
 18273 0d3a 40000000 		.4byte	.LVL221
 18274 0d3e 52000000 		.4byte	.LVL224
 18275 0d42 0100     		.2byte	0x1
 18276 0d44 54       		.byte	0x54
 18277 0d45 00000000 		.4byte	0
 18278 0d49 00000000 		.4byte	0
 18279              	.LLST98:
ARM GAS  C:\Users\legoc\AppData\Local\Temp\ccMAvaOS.s 			page 344


 18280 0d4d 40000000 		.4byte	.LVL221
 18281 0d51 56000000 		.4byte	.LVL225
 18282 0d55 0800     		.2byte	0x8
 18283 0d57 0A       		.byte	0xa
 18284 0d58 3F01     		.2byte	0x13f
 18285 0d5a F3       		.byte	0xf3
 18286 0d5b 01       		.uleb128 0x1
 18287 0d5c 50       		.byte	0x50
 18288 0d5d 1C       		.byte	0x1c
 18289 0d5e 9F       		.byte	0x9f
 18290 0d5f 00000000 		.4byte	0
 18291 0d63 00000000 		.4byte	0
 18292              	.LLST99:
 18293 0d67 40000000 		.4byte	.LVL221
 18294 0d6b 52000000 		.4byte	.LVL224
 18295 0d6f 0100     		.2byte	0x1
 18296 0d71 55       		.byte	0x55
 18297 0d72 00000000 		.4byte	0
 18298 0d76 00000000 		.4byte	0
 18299              	.LLST100:
 18300 0d7a 00000000 		.4byte	.LVL226
 18301 0d7e 3A000000 		.4byte	.LVL230
 18302 0d82 0100     		.2byte	0x1
 18303 0d84 50       		.byte	0x50
 18304 0d85 3A000000 		.4byte	.LVL230
 18305 0d89 46000000 		.4byte	.LVL232
 18306 0d8d 0100     		.2byte	0x1
 18307 0d8f 55       		.byte	0x55
 18308 0d90 52000000 		.4byte	.LVL235
 18309 0d94 E4000000 		.4byte	.LVL254
 18310 0d98 0100     		.2byte	0x1
 18311 0d9a 55       		.byte	0x55
 18312 0d9b E6000000 		.4byte	.LVL255
 18313 0d9f 58010000 		.4byte	.LVL272
 18314 0da3 0100     		.2byte	0x1
 18315 0da5 55       		.byte	0x55
 18316 0da6 58010000 		.4byte	.LVL272
 18317 0daa 64010000 		.4byte	.LFE10
 18318 0dae 0100     		.2byte	0x1
 18319 0db0 50       		.byte	0x50
 18320 0db1 00000000 		.4byte	0
 18321 0db5 00000000 		.4byte	0
 18322              	.LLST101:
 18323 0db9 00000000 		.4byte	.LVL226
 18324 0dbd 36000000 		.4byte	.LVL229
 18325 0dc1 0100     		.2byte	0x1
 18326 0dc3 51       		.byte	0x51
 18327 0dc4 36000000 		.4byte	.LVL229
 18328 0dc8 3A000000 		.4byte	.LVL230
 18329 0dcc 0400     		.2byte	0x4
 18330 0dce F3       		.byte	0xf3
 18331 0dcf 01       		.uleb128 0x1
 18332 0dd0 51       		.byte	0x51
 18333 0dd1 9F       		.byte	0x9f
 18334 0dd2 3A000000 		.4byte	.LVL230
 18335 0dd6 44000000 		.4byte	.LVL231
 18336 0dda 0100     		.2byte	0x1
ARM GAS  C:\Users\legoc\AppData\Local\Temp\ccMAvaOS.s 			page 345


 18337 0ddc 58       		.byte	0x58
 18338 0ddd 52000000 		.4byte	.LVL235
 18339 0de1 58010000 		.4byte	.LVL272
 18340 0de5 0100     		.2byte	0x1
 18341 0de7 58       		.byte	0x58
 18342 0de8 58010000 		.4byte	.LVL272
 18343 0dec 60010000 		.4byte	.LVL274
 18344 0df0 0100     		.2byte	0x1
 18345 0df2 51       		.byte	0x51
 18346 0df3 60010000 		.4byte	.LVL274
 18347 0df7 64010000 		.4byte	.LFE10
 18348 0dfb 0400     		.2byte	0x4
 18349 0dfd F3       		.byte	0xf3
 18350 0dfe 01       		.uleb128 0x1
 18351 0dff 51       		.byte	0x51
 18352 0e00 9F       		.byte	0x9f
 18353 0e01 00000000 		.4byte	0
 18354 0e05 00000000 		.4byte	0
 18355              	.LLST102:
 18356 0e09 00000000 		.4byte	.LVL226
 18357 0e0d 2E000000 		.4byte	.LVL228
 18358 0e11 0100     		.2byte	0x1
 18359 0e13 52       		.byte	0x52
 18360 0e14 2E000000 		.4byte	.LVL228
 18361 0e18 3A000000 		.4byte	.LVL230
 18362 0e1c 0400     		.2byte	0x4
 18363 0e1e F3       		.byte	0xf3
 18364 0e1f 01       		.uleb128 0x1
 18365 0e20 52       		.byte	0x52
 18366 0e21 9F       		.byte	0x9f
 18367 0e22 3A000000 		.4byte	.LVL230
 18368 0e26 4A000000 		.4byte	.LVL234
 18369 0e2a 0100     		.2byte	0x1
 18370 0e2c 59       		.byte	0x59
 18371 0e2d 52000000 		.4byte	.LVL235
 18372 0e31 58010000 		.4byte	.LVL272
 18373 0e35 0100     		.2byte	0x1
 18374 0e37 59       		.byte	0x59
 18375 0e38 58010000 		.4byte	.LVL272
 18376 0e3c 64010000 		.4byte	.LFE10
 18377 0e40 0400     		.2byte	0x4
 18378 0e42 F3       		.byte	0xf3
 18379 0e43 01       		.uleb128 0x1
 18380 0e44 52       		.byte	0x52
 18381 0e45 9F       		.byte	0x9f
 18382 0e46 00000000 		.4byte	0
 18383 0e4a 00000000 		.4byte	0
 18384              	.LLST103:
 18385 0e4e 00000000 		.4byte	.LVL226
 18386 0e52 3A000000 		.4byte	.LVL230
 18387 0e56 0100     		.2byte	0x1
 18388 0e58 53       		.byte	0x53
 18389 0e59 3A000000 		.4byte	.LVL230
 18390 0e5d 48000000 		.4byte	.LVL233
 18391 0e61 0100     		.2byte	0x1
 18392 0e63 53       		.byte	0x53
 18393 0e64 52000000 		.4byte	.LVL235
ARM GAS  C:\Users\legoc\AppData\Local\Temp\ccMAvaOS.s 			page 346


 18394 0e68 6C000000 		.4byte	.LVL238
 18395 0e6c 0100     		.2byte	0x1
 18396 0e6e 53       		.byte	0x53
 18397 0e6f 4C010000 		.4byte	.LVL270
 18398 0e73 54010000 		.4byte	.LVL271
 18399 0e77 0100     		.2byte	0x1
 18400 0e79 53       		.byte	0x53
 18401 0e7a 58010000 		.4byte	.LVL272
 18402 0e7e 5E010000 		.4byte	.LVL273
 18403 0e82 0100     		.2byte	0x1
 18404 0e84 53       		.byte	0x53
 18405 0e85 5E010000 		.4byte	.LVL273
 18406 0e89 64010000 		.4byte	.LFE10
 18407 0e8d 0400     		.2byte	0x4
 18408 0e8f F3       		.byte	0xf3
 18409 0e90 01       		.uleb128 0x1
 18410 0e91 53       		.byte	0x53
 18411 0e92 9F       		.byte	0x9f
 18412 0e93 00000000 		.4byte	0
 18413 0e97 00000000 		.4byte	0
 18414              	.LLST104:
 18415 0e9b 00000000 		.4byte	.LVL226
 18416 0e9f F4000000 		.4byte	.LVL256
 18417 0ea3 0200     		.2byte	0x2
 18418 0ea5 91       		.byte	0x91
 18419 0ea6 00       		.sleb128 0
 18420 0ea7 F4000000 		.4byte	.LVL256
 18421 0eab 64010000 		.4byte	.LFE10
 18422 0eaf 0200     		.2byte	0x2
 18423 0eb1 91       		.byte	0x91
 18424 0eb2 00       		.sleb128 0
 18425 0eb3 00000000 		.4byte	0
 18426 0eb7 00000000 		.4byte	0
 18427              	.LLST105:
 18428 0ebb 64000000 		.4byte	.LVL236
 18429 0ebf 82000000 		.4byte	.LVL239
 18430 0ec3 0100     		.2byte	0x1
 18431 0ec5 50       		.byte	0x50
 18432 0ec6 82000000 		.4byte	.LVL239
 18433 0eca 4C010000 		.4byte	.LVL270
 18434 0ece 0200     		.2byte	0x2
 18435 0ed0 91       		.byte	0x91
 18436 0ed1 48       		.sleb128 -56
 18437 0ed2 4C010000 		.4byte	.LVL270
 18438 0ed6 58010000 		.4byte	.LVL272
 18439 0eda 0100     		.2byte	0x1
 18440 0edc 50       		.byte	0x50
 18441 0edd 00000000 		.4byte	0
 18442 0ee1 00000000 		.4byte	0
 18443              	.LLST106:
 18444 0ee5 64000000 		.4byte	.LVL236
 18445 0ee9 6C000000 		.4byte	.LVL238
 18446 0eed 0F00     		.2byte	0xf
 18447 0eef 73       		.byte	0x73
 18448 0ef0 00       		.sleb128 0
 18449 0ef1 40       		.byte	0x40
 18450 0ef2 24       		.byte	0x24
ARM GAS  C:\Users\legoc\AppData\Local\Temp\ccMAvaOS.s 			page 347


 18451 0ef3 40       		.byte	0x40
 18452 0ef4 26       		.byte	0x26
 18453 0ef5 78       		.byte	0x78
 18454 0ef6 00       		.sleb128 0
 18455 0ef7 40       		.byte	0x40
 18456 0ef8 24       		.byte	0x24
 18457 0ef9 40       		.byte	0x40
 18458 0efa 26       		.byte	0x26
 18459 0efb 1C       		.byte	0x1c
 18460 0efc 19       		.byte	0x19
 18461 0efd 9F       		.byte	0x9f
 18462 0efe 4C010000 		.4byte	.LVL270
 18463 0f02 54010000 		.4byte	.LVL271
 18464 0f06 0F00     		.2byte	0xf
 18465 0f08 73       		.byte	0x73
 18466 0f09 00       		.sleb128 0
 18467 0f0a 40       		.byte	0x40
 18468 0f0b 24       		.byte	0x24
 18469 0f0c 40       		.byte	0x40
 18470 0f0d 26       		.byte	0x26
 18471 0f0e 78       		.byte	0x78
 18472 0f0f 00       		.sleb128 0
 18473 0f10 40       		.byte	0x40
 18474 0f11 24       		.byte	0x24
 18475 0f12 40       		.byte	0x40
 18476 0f13 26       		.byte	0x26
 18477 0f14 1C       		.byte	0x1c
 18478 0f15 19       		.byte	0x19
 18479 0f16 9F       		.byte	0x9f
 18480 0f17 00000000 		.4byte	0
 18481 0f1b 00000000 		.4byte	0
 18482              	.LLST107:
 18483 0f1f 68000000 		.4byte	.LVL237
 18484 0f23 DA000000 		.4byte	.LVL252
 18485 0f27 0100     		.2byte	0x1
 18486 0f29 54       		.byte	0x54
 18487 0f2a DE000000 		.4byte	.LVL253
 18488 0f2e 48010000 		.4byte	.LVL268
 18489 0f32 0100     		.2byte	0x1
 18490 0f34 54       		.byte	0x54
 18491 0f35 48010000 		.4byte	.LVL268
 18492 0f39 4A010000 		.4byte	.LVL269
 18493 0f3d 0100     		.2byte	0x1
 18494 0f3f 53       		.byte	0x53
 18495 0f40 4A010000 		.4byte	.LVL269
 18496 0f44 58010000 		.4byte	.LVL272
 18497 0f48 0100     		.2byte	0x1
 18498 0f4a 54       		.byte	0x54
 18499 0f4b 00000000 		.4byte	0
 18500 0f4f 00000000 		.4byte	0
 18501              	.LLST108:
 18502 0f53 86000000 		.4byte	.LVL240
 18503 0f57 D2000000 		.4byte	.LVL250
 18504 0f5b 0100     		.2byte	0x1
 18505 0f5d 55       		.byte	0x55
 18506 0f5e 00000000 		.4byte	0
 18507 0f62 00000000 		.4byte	0
ARM GAS  C:\Users\legoc\AppData\Local\Temp\ccMAvaOS.s 			page 348


 18508              	.LLST109:
 18509 0f66 86000000 		.4byte	.LVL240
 18510 0f6a D2000000 		.4byte	.LVL250
 18511 0f6e 0100     		.2byte	0x1
 18512 0f70 58       		.byte	0x58
 18513 0f71 00000000 		.4byte	0
 18514 0f75 00000000 		.4byte	0
 18515              	.LLST110:
 18516 0f79 92000000 		.4byte	.LVL241
 18517 0f7d D2000000 		.4byte	.LVL250
 18518 0f81 0700     		.2byte	0x7
 18519 0f83 0A       		.byte	0xa
 18520 0f84 3F01     		.2byte	0x13f
 18521 0f86 77       		.byte	0x77
 18522 0f87 00       		.sleb128 0
 18523 0f88 1C       		.byte	0x1c
 18524 0f89 9F       		.byte	0x9f
 18525 0f8a 00000000 		.4byte	0
 18526 0f8e 00000000 		.4byte	0
 18527              	.LLST111:
 18528 0f92 92000000 		.4byte	.LVL241
 18529 0f96 A9000000 		.4byte	.LVL242-1
 18530 0f9a 0100     		.2byte	0x1
 18531 0f9c 50       		.byte	0x50
 18532 0f9d A9000000 		.4byte	.LVL242-1
 18533 0fa1 D2000000 		.4byte	.LVL250
 18534 0fa5 0400     		.2byte	0x4
 18535 0fa7 76       		.byte	0x76
 18536 0fa8 B07F     		.sleb128 -80
 18537 0faa 9F       		.byte	0x9f
 18538 0fab 00000000 		.4byte	0
 18539 0faf 00000000 		.4byte	0
 18540              	.LLST112:
 18541 0fb3 C4000000 		.4byte	.LVL247
 18542 0fb7 D2000000 		.4byte	.LVL250
 18543 0fbb 0400     		.2byte	0x4
 18544 0fbd 76       		.byte	0x76
 18545 0fbe B07F     		.sleb128 -80
 18546 0fc0 9F       		.byte	0x9f
 18547 0fc1 00000000 		.4byte	0
 18548 0fc5 00000000 		.4byte	0
 18549              	.LLST113:
 18550 0fc9 C4000000 		.4byte	.LVL247
 18551 0fcd D2000000 		.4byte	.LVL250
 18552 0fd1 0700     		.2byte	0x7
 18553 0fd3 0A       		.byte	0xa
 18554 0fd4 3F01     		.2byte	0x13f
 18555 0fd6 77       		.byte	0x77
 18556 0fd7 00       		.sleb128 0
 18557 0fd8 1C       		.byte	0x1c
 18558 0fd9 9F       		.byte	0x9f
 18559 0fda 00000000 		.4byte	0
 18560 0fde 00000000 		.4byte	0
 18561              	.LLST114:
 18562 0fe2 F4000000 		.4byte	.LVL256
 18563 0fe6 3C010000 		.4byte	.LVL266
 18564 0fea 0100     		.2byte	0x1
ARM GAS  C:\Users\legoc\AppData\Local\Temp\ccMAvaOS.s 			page 349


 18565 0fec 58       		.byte	0x58
 18566 0fed 00000000 		.4byte	0
 18567 0ff1 00000000 		.4byte	0
 18568              	.LLST115:
 18569 0ff5 F4000000 		.4byte	.LVL256
 18570 0ff9 3C010000 		.4byte	.LVL266
 18571 0ffd 0100     		.2byte	0x1
 18572 0fff 55       		.byte	0x55
 18573 1000 00000000 		.4byte	0
 18574 1004 00000000 		.4byte	0
 18575              	.LLST116:
 18576 1008 FE000000 		.4byte	.LVL257
 18577 100c 3C010000 		.4byte	.LVL266
 18578 1010 0700     		.2byte	0x7
 18579 1012 0A       		.byte	0xa
 18580 1013 3F01     		.2byte	0x13f
 18581 1015 75       		.byte	0x75
 18582 1016 00       		.sleb128 0
 18583 1017 1C       		.byte	0x1c
 18584 1018 9F       		.byte	0x9f
 18585 1019 00000000 		.4byte	0
 18586 101d 00000000 		.4byte	0
 18587              	.LLST117:
 18588 1021 FE000000 		.4byte	.LVL257
 18589 1025 11010000 		.4byte	.LVL258-1
 18590 1029 0100     		.2byte	0x1
 18591 102b 50       		.byte	0x50
 18592 102c 11010000 		.4byte	.LVL258-1
 18593 1030 3C010000 		.4byte	.LVL266
 18594 1034 0600     		.2byte	0x6
 18595 1036 08       		.byte	0x8
 18596 1037 EF       		.byte	0xef
 18597 1038 77       		.byte	0x77
 18598 1039 00       		.sleb128 0
 18599 103a 1C       		.byte	0x1c
 18600 103b 9F       		.byte	0x9f
 18601 103c 00000000 		.4byte	0
 18602 1040 00000000 		.4byte	0
 18603              	.LLST118:
 18604 1044 2C010000 		.4byte	.LVL263
 18605 1048 3C010000 		.4byte	.LVL266
 18606 104c 0600     		.2byte	0x6
 18607 104e 08       		.byte	0x8
 18608 104f EF       		.byte	0xef
 18609 1050 77       		.byte	0x77
 18610 1051 00       		.sleb128 0
 18611 1052 1C       		.byte	0x1c
 18612 1053 9F       		.byte	0x9f
 18613 1054 00000000 		.4byte	0
 18614 1058 00000000 		.4byte	0
 18615              	.LLST119:
 18616 105c 2C010000 		.4byte	.LVL263
 18617 1060 3C010000 		.4byte	.LVL266
 18618 1064 0700     		.2byte	0x7
 18619 1066 0A       		.byte	0xa
 18620 1067 3F01     		.2byte	0x13f
 18621 1069 75       		.byte	0x75
ARM GAS  C:\Users\legoc\AppData\Local\Temp\ccMAvaOS.s 			page 350


 18622 106a 00       		.sleb128 0
 18623 106b 1C       		.byte	0x1c
 18624 106c 9F       		.byte	0x9f
 18625 106d 00000000 		.4byte	0
 18626 1071 00000000 		.4byte	0
 18627              	.LLST120:
 18628 1075 00000000 		.4byte	.LVL275
 18629 1079 11000000 		.4byte	.LVL278-1
 18630 107d 0100     		.2byte	0x1
 18631 107f 50       		.byte	0x50
 18632 1080 11000000 		.4byte	.LVL278-1
 18633 1084 18000000 		.4byte	.LFE11
 18634 1088 0400     		.2byte	0x4
 18635 108a F3       		.byte	0xf3
 18636 108b 01       		.uleb128 0x1
 18637 108c 50       		.byte	0x50
 18638 108d 9F       		.byte	0x9f
 18639 108e 00000000 		.4byte	0
 18640 1092 00000000 		.4byte	0
 18641              	.LLST121:
 18642 1096 00000000 		.4byte	.LVL275
 18643 109a 11000000 		.4byte	.LVL278-1
 18644 109e 0100     		.2byte	0x1
 18645 10a0 51       		.byte	0x51
 18646 10a1 11000000 		.4byte	.LVL278-1
 18647 10a5 18000000 		.4byte	.LFE11
 18648 10a9 0400     		.2byte	0x4
 18649 10ab F3       		.byte	0xf3
 18650 10ac 01       		.uleb128 0x1
 18651 10ad 51       		.byte	0x51
 18652 10ae 9F       		.byte	0x9f
 18653 10af 00000000 		.4byte	0
 18654 10b3 00000000 		.4byte	0
 18655              	.LLST122:
 18656 10b7 00000000 		.4byte	.LVL275
 18657 10bb 04000000 		.4byte	.LVL276
 18658 10bf 0100     		.2byte	0x1
 18659 10c1 52       		.byte	0x52
 18660 10c2 04000000 		.4byte	.LVL276
 18661 10c6 18000000 		.4byte	.LFE11
 18662 10ca 0400     		.2byte	0x4
 18663 10cc F3       		.byte	0xf3
 18664 10cd 01       		.uleb128 0x1
 18665 10ce 52       		.byte	0x52
 18666 10cf 9F       		.byte	0x9f
 18667 10d0 00000000 		.4byte	0
 18668 10d4 00000000 		.4byte	0
 18669              	.LLST123:
 18670 10d8 00000000 		.4byte	.LVL275
 18671 10dc 0E000000 		.4byte	.LVL277
 18672 10e0 0100     		.2byte	0x1
 18673 10e2 53       		.byte	0x53
 18674 10e3 0E000000 		.4byte	.LVL277
 18675 10e7 18000000 		.4byte	.LFE11
 18676 10eb 0400     		.2byte	0x4
 18677 10ed F3       		.byte	0xf3
 18678 10ee 01       		.uleb128 0x1
ARM GAS  C:\Users\legoc\AppData\Local\Temp\ccMAvaOS.s 			page 351


 18679 10ef 53       		.byte	0x53
 18680 10f0 9F       		.byte	0x9f
 18681 10f1 00000000 		.4byte	0
 18682 10f5 00000000 		.4byte	0
 18683              	.LLST124:
 18684 10f9 00000000 		.4byte	.LVL279
 18685 10fd 11000000 		.4byte	.LVL282-1
 18686 1101 0100     		.2byte	0x1
 18687 1103 50       		.byte	0x50
 18688 1104 11000000 		.4byte	.LVL282-1
 18689 1108 16000000 		.4byte	.LFE12
 18690 110c 0400     		.2byte	0x4
 18691 110e F3       		.byte	0xf3
 18692 110f 01       		.uleb128 0x1
 18693 1110 50       		.byte	0x50
 18694 1111 9F       		.byte	0x9f
 18695 1112 00000000 		.4byte	0
 18696 1116 00000000 		.4byte	0
 18697              	.LLST125:
 18698 111a 00000000 		.4byte	.LVL279
 18699 111e 11000000 		.4byte	.LVL282-1
 18700 1122 0100     		.2byte	0x1
 18701 1124 51       		.byte	0x51
 18702 1125 11000000 		.4byte	.LVL282-1
 18703 1129 16000000 		.4byte	.LFE12
 18704 112d 0400     		.2byte	0x4
 18705 112f F3       		.byte	0xf3
 18706 1130 01       		.uleb128 0x1
 18707 1131 51       		.byte	0x51
 18708 1132 9F       		.byte	0x9f
 18709 1133 00000000 		.4byte	0
 18710 1137 00000000 		.4byte	0
 18711              	.LLST126:
 18712 113b 00000000 		.4byte	.LVL279
 18713 113f 04000000 		.4byte	.LVL280
 18714 1143 0100     		.2byte	0x1
 18715 1145 52       		.byte	0x52
 18716 1146 04000000 		.4byte	.LVL280
 18717 114a 16000000 		.4byte	.LFE12
 18718 114e 0400     		.2byte	0x4
 18719 1150 F3       		.byte	0xf3
 18720 1151 01       		.uleb128 0x1
 18721 1152 52       		.byte	0x52
 18722 1153 9F       		.byte	0x9f
 18723 1154 00000000 		.4byte	0
 18724 1158 00000000 		.4byte	0
 18725              	.LLST127:
 18726 115c 00000000 		.4byte	.LVL279
 18727 1160 0E000000 		.4byte	.LVL281
 18728 1164 0100     		.2byte	0x1
 18729 1166 53       		.byte	0x53
 18730 1167 0E000000 		.4byte	.LVL281
 18731 116b 16000000 		.4byte	.LFE12
 18732 116f 0400     		.2byte	0x4
 18733 1171 F3       		.byte	0xf3
 18734 1172 01       		.uleb128 0x1
 18735 1173 53       		.byte	0x53
ARM GAS  C:\Users\legoc\AppData\Local\Temp\ccMAvaOS.s 			page 352


 18736 1174 9F       		.byte	0x9f
 18737 1175 00000000 		.4byte	0
 18738 1179 00000000 		.4byte	0
 18739              	.LLST128:
 18740 117d 00000000 		.4byte	.LVL283
 18741 1181 1F000000 		.4byte	.LVL285-1
 18742 1185 0100     		.2byte	0x1
 18743 1187 50       		.byte	0x50
 18744 1188 1F000000 		.4byte	.LVL285-1
 18745 118c 20000000 		.4byte	.LVL285
 18746 1190 0400     		.2byte	0x4
 18747 1192 F3       		.byte	0xf3
 18748 1193 01       		.uleb128 0x1
 18749 1194 50       		.byte	0x50
 18750 1195 9F       		.byte	0x9f
 18751 1196 20000000 		.4byte	.LVL285
 18752 119a 2A000000 		.4byte	.LVL286
 18753 119e 0100     		.2byte	0x1
 18754 11a0 50       		.byte	0x50
 18755 11a1 2A000000 		.4byte	.LVL286
 18756 11a5 3A000000 		.4byte	.LVL290
 18757 11a9 0100     		.2byte	0x1
 18758 11ab 54       		.byte	0x54
 18759 11ac 3E000000 		.4byte	.LVL291
 18760 11b0 52000000 		.4byte	.LVL297
 18761 11b4 0100     		.2byte	0x1
 18762 11b6 50       		.byte	0x50
 18763 11b7 52000000 		.4byte	.LVL297
 18764 11bb 5A000000 		.4byte	.LFE13
 18765 11bf 0400     		.2byte	0x4
 18766 11c1 F3       		.byte	0xf3
 18767 11c2 01       		.uleb128 0x1
 18768 11c3 50       		.byte	0x50
 18769 11c4 9F       		.byte	0x9f
 18770 11c5 00000000 		.4byte	0
 18771 11c9 00000000 		.4byte	0
 18772              	.LLST129:
 18773 11cd 00000000 		.4byte	.LVL283
 18774 11d1 1F000000 		.4byte	.LVL285-1
 18775 11d5 0100     		.2byte	0x1
 18776 11d7 51       		.byte	0x51
 18777 11d8 1F000000 		.4byte	.LVL285-1
 18778 11dc 20000000 		.4byte	.LVL285
 18779 11e0 0400     		.2byte	0x4
 18780 11e2 F3       		.byte	0xf3
 18781 11e3 01       		.uleb128 0x1
 18782 11e4 51       		.byte	0x51
 18783 11e5 9F       		.byte	0x9f
 18784 11e6 20000000 		.4byte	.LVL285
 18785 11ea 36000000 		.4byte	.LVL289
 18786 11ee 0100     		.2byte	0x1
 18787 11f0 51       		.byte	0x51
 18788 11f1 36000000 		.4byte	.LVL289
 18789 11f5 3E000000 		.4byte	.LVL291
 18790 11f9 0400     		.2byte	0x4
 18791 11fb F3       		.byte	0xf3
 18792 11fc 01       		.uleb128 0x1
ARM GAS  C:\Users\legoc\AppData\Local\Temp\ccMAvaOS.s 			page 353


 18793 11fd 51       		.byte	0x51
 18794 11fe 9F       		.byte	0x9f
 18795 11ff 3E000000 		.4byte	.LVL291
 18796 1203 4E000000 		.4byte	.LVL295
 18797 1207 0100     		.2byte	0x1
 18798 1209 51       		.byte	0x51
 18799 120a 4E000000 		.4byte	.LVL295
 18800 120e 5A000000 		.4byte	.LFE13
 18801 1212 0400     		.2byte	0x4
 18802 1214 F3       		.byte	0xf3
 18803 1215 01       		.uleb128 0x1
 18804 1216 51       		.byte	0x51
 18805 1217 9F       		.byte	0x9f
 18806 1218 00000000 		.4byte	0
 18807 121c 00000000 		.4byte	0
 18808              	.LLST130:
 18809 1220 00000000 		.4byte	.LVL283
 18810 1224 1F000000 		.4byte	.LVL285-1
 18811 1228 0100     		.2byte	0x1
 18812 122a 52       		.byte	0x52
 18813 122b 1F000000 		.4byte	.LVL285-1
 18814 122f 20000000 		.4byte	.LVL285
 18815 1233 0400     		.2byte	0x4
 18816 1235 F3       		.byte	0xf3
 18817 1236 01       		.uleb128 0x1
 18818 1237 52       		.byte	0x52
 18819 1238 9F       		.byte	0x9f
 18820 1239 20000000 		.4byte	.LVL285
 18821 123d 2A000000 		.4byte	.LVL286
 18822 1241 0100     		.2byte	0x1
 18823 1243 52       		.byte	0x52
 18824 1244 2A000000 		.4byte	.LVL286
 18825 1248 3A000000 		.4byte	.LVL290
 18826 124c 0100     		.2byte	0x1
 18827 124e 55       		.byte	0x55
 18828 124f 3E000000 		.4byte	.LVL291
 18829 1253 50000000 		.4byte	.LVL296
 18830 1257 0100     		.2byte	0x1
 18831 1259 52       		.byte	0x52
 18832 125a 50000000 		.4byte	.LVL296
 18833 125e 5A000000 		.4byte	.LFE13
 18834 1262 0400     		.2byte	0x4
 18835 1264 F3       		.byte	0xf3
 18836 1265 01       		.uleb128 0x1
 18837 1266 52       		.byte	0x52
 18838 1267 9F       		.byte	0x9f
 18839 1268 00000000 		.4byte	0
 18840 126c 00000000 		.4byte	0
 18841              	.LLST131:
 18842 1270 00000000 		.4byte	.LVL283
 18843 1274 1F000000 		.4byte	.LVL285-1
 18844 1278 0100     		.2byte	0x1
 18845 127a 53       		.byte	0x53
 18846 127b 1F000000 		.4byte	.LVL285-1
 18847 127f 20000000 		.4byte	.LVL285
 18848 1283 0400     		.2byte	0x4
 18849 1285 F3       		.byte	0xf3
ARM GAS  C:\Users\legoc\AppData\Local\Temp\ccMAvaOS.s 			page 354


 18850 1286 01       		.uleb128 0x1
 18851 1287 53       		.byte	0x53
 18852 1288 9F       		.byte	0x9f
 18853 1289 20000000 		.4byte	.LVL285
 18854 128d 34000000 		.4byte	.LVL288
 18855 1291 0100     		.2byte	0x1
 18856 1293 53       		.byte	0x53
 18857 1294 34000000 		.4byte	.LVL288
 18858 1298 3E000000 		.4byte	.LVL291
 18859 129c 0400     		.2byte	0x4
 18860 129e F3       		.byte	0xf3
 18861 129f 01       		.uleb128 0x1
 18862 12a0 53       		.byte	0x53
 18863 12a1 9F       		.byte	0x9f
 18864 12a2 3E000000 		.4byte	.LVL291
 18865 12a6 4C000000 		.4byte	.LVL294
 18866 12aa 0100     		.2byte	0x1
 18867 12ac 53       		.byte	0x53
 18868 12ad 4C000000 		.4byte	.LVL294
 18869 12b1 5A000000 		.4byte	.LFE13
 18870 12b5 0400     		.2byte	0x4
 18871 12b7 F3       		.byte	0xf3
 18872 12b8 01       		.uleb128 0x1
 18873 12b9 53       		.byte	0x53
 18874 12ba 9F       		.byte	0x9f
 18875 12bb 00000000 		.4byte	0
 18876 12bf 00000000 		.4byte	0
 18877              	.LLST132:
 18878 12c3 00000000 		.4byte	.LVL283
 18879 12c7 18000000 		.4byte	.LVL284
 18880 12cb 0200     		.2byte	0x2
 18881 12cd 91       		.byte	0x91
 18882 12ce 00       		.sleb128 0
 18883 12cf 20000000 		.4byte	.LVL285
 18884 12d3 2E000000 		.4byte	.LVL287
 18885 12d7 0200     		.2byte	0x2
 18886 12d9 91       		.byte	0x91
 18887 12da 00       		.sleb128 0
 18888 12db 3E000000 		.4byte	.LVL291
 18889 12df 4A000000 		.4byte	.LVL293
 18890 12e3 0200     		.2byte	0x2
 18891 12e5 91       		.byte	0x91
 18892 12e6 00       		.sleb128 0
 18893 12e7 00000000 		.4byte	0
 18894 12eb 00000000 		.4byte	0
 18895              	.LLST133:
 18896 12ef 2A000000 		.4byte	.LVL286
 18897 12f3 3A000000 		.4byte	.LVL290
 18898 12f7 0100     		.2byte	0x1
 18899 12f9 5E       		.byte	0x5e
 18900 12fa 00000000 		.4byte	0
 18901 12fe 00000000 		.4byte	0
 18902              	.LLST134:
 18903 1302 2A000000 		.4byte	.LVL286
 18904 1306 3A000000 		.4byte	.LVL290
 18905 130a 0800     		.2byte	0x8
 18906 130c 75       		.byte	0x75
ARM GAS  C:\Users\legoc\AppData\Local\Temp\ccMAvaOS.s 			page 355


 18907 130d 00       		.sleb128 0
 18908 130e 74       		.byte	0x74
 18909 130f 00       		.sleb128 0
 18910 1310 1C       		.byte	0x1c
 18911 1311 23       		.byte	0x23
 18912 1312 01       		.uleb128 0x1
 18913 1313 9F       		.byte	0x9f
 18914 1314 00000000 		.4byte	0
 18915 1318 00000000 		.4byte	0
 18916              	.LLST135:
 18917 131c 2A000000 		.4byte	.LVL286
 18918 1320 3A000000 		.4byte	.LVL290
 18919 1324 0100     		.2byte	0x1
 18920 1326 56       		.byte	0x56
 18921 1327 00000000 		.4byte	0
 18922 132b 00000000 		.4byte	0
 18923              	.LLST136:
 18924 132f 2A000000 		.4byte	.LVL286
 18925 1333 3A000000 		.4byte	.LVL290
 18926 1337 0100     		.2byte	0x1
 18927 1339 54       		.byte	0x54
 18928 133a 00000000 		.4byte	0
 18929 133e 00000000 		.4byte	0
 18930              	.LLST137:
 18931 1342 3E000000 		.4byte	.LVL291
 18932 1346 56000000 		.4byte	.LVL298
 18933 134a 0100     		.2byte	0x1
 18934 134c 54       		.byte	0x54
 18935 134d 00000000 		.4byte	0
 18936 1351 00000000 		.4byte	0
 18937              	.LLST138:
 18938 1355 3E000000 		.4byte	.LVL291
 18939 1359 56000000 		.4byte	.LVL298
 18940 135d 0100     		.2byte	0x1
 18941 135f 5E       		.byte	0x5e
 18942 1360 00000000 		.4byte	0
 18943 1364 00000000 		.4byte	0
 18944              	.LLST139:
 18945 1368 3E000000 		.4byte	.LVL291
 18946 136c 46000000 		.4byte	.LVL292
 18947 1370 0100     		.2byte	0x1
 18948 1372 53       		.byte	0x53
 18949 1373 46000000 		.4byte	.LVL292
 18950 1377 56000000 		.4byte	.LVL298
 18951 137b 0100     		.2byte	0x1
 18952 137d 57       		.byte	0x57
 18953 137e 00000000 		.4byte	0
 18954 1382 00000000 		.4byte	0
 18955              	.LLST140:
 18956 1386 3E000000 		.4byte	.LVL291
 18957 138a 46000000 		.4byte	.LVL292
 18958 138e 0100     		.2byte	0x1
 18959 1390 51       		.byte	0x51
 18960 1391 46000000 		.4byte	.LVL292
 18961 1395 56000000 		.4byte	.LVL298
 18962 1399 0100     		.2byte	0x1
 18963 139b 56       		.byte	0x56
ARM GAS  C:\Users\legoc\AppData\Local\Temp\ccMAvaOS.s 			page 356


 18964 139c 00000000 		.4byte	0
 18965 13a0 00000000 		.4byte	0
 18966              	.LLST142:
 18967 13a4 46000000 		.4byte	.LVL292
 18968 13a8 56000000 		.4byte	.LVL298
 18969 13ac 0100     		.2byte	0x1
 18970 13ae 5E       		.byte	0x5e
 18971 13af 00000000 		.4byte	0
 18972 13b3 00000000 		.4byte	0
 18973              	.LLST143:
 18974 13b7 46000000 		.4byte	.LVL292
 18975 13bb 56000000 		.4byte	.LVL298
 18976 13bf 0800     		.2byte	0x8
 18977 13c1 77       		.byte	0x77
 18978 13c2 00       		.sleb128 0
 18979 13c3 76       		.byte	0x76
 18980 13c4 00       		.sleb128 0
 18981 13c5 1C       		.byte	0x1c
 18982 13c6 23       		.byte	0x23
 18983 13c7 01       		.uleb128 0x1
 18984 13c8 9F       		.byte	0x9f
 18985 13c9 00000000 		.4byte	0
 18986 13cd 00000000 		.4byte	0
 18987              	.LLST144:
 18988 13d1 46000000 		.4byte	.LVL292
 18989 13d5 56000000 		.4byte	.LVL298
 18990 13d9 0100     		.2byte	0x1
 18991 13db 56       		.byte	0x56
 18992 13dc 00000000 		.4byte	0
 18993 13e0 00000000 		.4byte	0
 18994              	.LLST145:
 18995 13e4 46000000 		.4byte	.LVL292
 18996 13e8 56000000 		.4byte	.LVL298
 18997 13ec 0100     		.2byte	0x1
 18998 13ee 54       		.byte	0x54
 18999 13ef 00000000 		.4byte	0
 19000 13f3 00000000 		.4byte	0
 19001              	.LLST146:
 19002 13f7 00000000 		.4byte	.LVL300
 19003 13fb 26000000 		.4byte	.LVL306
 19004 13ff 0100     		.2byte	0x1
 19005 1401 50       		.byte	0x50
 19006 1402 26000000 		.4byte	.LVL306
 19007 1406 34020000 		.4byte	.LFE14
 19008 140a 0400     		.2byte	0x4
 19009 140c F3       		.byte	0xf3
 19010 140d 01       		.uleb128 0x1
 19011 140e 50       		.byte	0x50
 19012 140f 9F       		.byte	0x9f
 19013 1410 00000000 		.4byte	0
 19014 1414 00000000 		.4byte	0
 19015              	.LLST147:
 19016 1418 00000000 		.4byte	.LVL300
 19017 141c 14000000 		.4byte	.LVL303
 19018 1420 0100     		.2byte	0x1
 19019 1422 51       		.byte	0x51
 19020 1423 14000000 		.4byte	.LVL303
ARM GAS  C:\Users\legoc\AppData\Local\Temp\ccMAvaOS.s 			page 357


 19021 1427 34020000 		.4byte	.LFE14
 19022 142b 0400     		.2byte	0x4
 19023 142d F3       		.byte	0xf3
 19024 142e 01       		.uleb128 0x1
 19025 142f 51       		.byte	0x51
 19026 1430 9F       		.byte	0x9f
 19027 1431 00000000 		.4byte	0
 19028 1435 00000000 		.4byte	0
 19029              	.LLST148:
 19030 1439 00000000 		.4byte	.LVL300
 19031 143d 16000000 		.4byte	.LVL304
 19032 1441 0100     		.2byte	0x1
 19033 1443 52       		.byte	0x52
 19034 1444 16000000 		.4byte	.LVL304
 19035 1448 34020000 		.4byte	.LFE14
 19036 144c 0400     		.2byte	0x4
 19037 144e F3       		.byte	0xf3
 19038 144f 01       		.uleb128 0x1
 19039 1450 52       		.byte	0x52
 19040 1451 9F       		.byte	0x9f
 19041 1452 00000000 		.4byte	0
 19042 1456 00000000 		.4byte	0
 19043              	.LLST149:
 19044 145a 00000000 		.4byte	.LVL300
 19045 145e 0E000000 		.4byte	.LVL302
 19046 1462 0100     		.2byte	0x1
 19047 1464 53       		.byte	0x53
 19048 1465 0E000000 		.4byte	.LVL302
 19049 1469 34020000 		.4byte	.LFE14
 19050 146d 0400     		.2byte	0x4
 19051 146f F3       		.byte	0xf3
 19052 1470 01       		.uleb128 0x1
 19053 1471 53       		.byte	0x53
 19054 1472 9F       		.byte	0x9f
 19055 1473 00000000 		.4byte	0
 19056 1477 00000000 		.4byte	0
 19057              	.LLST150:
 19058 147b 00000000 		.4byte	.LVL300
 19059 147f 20000000 		.4byte	.LVL305
 19060 1483 0200     		.2byte	0x2
 19061 1485 91       		.byte	0x91
 19062 1486 00       		.sleb128 0
 19063 1487 00000000 		.4byte	0
 19064 148b 00000000 		.4byte	0
 19065              	.LLST151:
 19066 148f 00000000 		.4byte	.LVL300
 19067 1493 0C000000 		.4byte	.LVL301
 19068 1497 0200     		.2byte	0x2
 19069 1499 91       		.byte	0x91
 19070 149a 04       		.sleb128 4
 19071 149b 00000000 		.4byte	0
 19072 149f 00000000 		.4byte	0
 19073              	.LLST152:
 19074 14a3 00000000 		.4byte	.LVL300
 19075 14a7 6E000000 		.4byte	.LVL309
 19076 14ab 0200     		.2byte	0x2
 19077 14ad 91       		.byte	0x91
ARM GAS  C:\Users\legoc\AppData\Local\Temp\ccMAvaOS.s 			page 358


 19078 14ae 08       		.sleb128 8
 19079 14af 6E000000 		.4byte	.LVL309
 19080 14b3 78000000 		.4byte	.LVL310
 19081 14b7 0100     		.2byte	0x1
 19082 14b9 58       		.byte	0x58
 19083 14ba 80010000 		.4byte	.LVL333
 19084 14be 08020000 		.4byte	.LVL354
 19085 14c2 0200     		.2byte	0x2
 19086 14c4 91       		.byte	0x91
 19087 14c5 08       		.sleb128 8
 19088 14c6 28020000 		.4byte	.LVL357
 19089 14ca 34020000 		.4byte	.LFE14
 19090 14ce 0100     		.2byte	0x1
 19091 14d0 58       		.byte	0x58
 19092 14d1 00000000 		.4byte	0
 19093 14d5 00000000 		.4byte	0
 19094              	.LLST153:
 19095 14d9 6E000000 		.4byte	.LVL309
 19096 14dd 80010000 		.4byte	.LVL333
 19097 14e1 0100     		.2byte	0x1
 19098 14e3 59       		.byte	0x59
 19099 14e4 08020000 		.4byte	.LVL354
 19100 14e8 34020000 		.4byte	.LFE14
 19101 14ec 0100     		.2byte	0x1
 19102 14ee 59       		.byte	0x59
 19103 14ef 00000000 		.4byte	0
 19104 14f3 00000000 		.4byte	0
 19105              	.LLST154:
 19106 14f7 6E000000 		.4byte	.LVL309
 19107 14fb 80010000 		.4byte	.LVL333
 19108 14ff 0100     		.2byte	0x1
 19109 1501 56       		.byte	0x56
 19110 1502 08020000 		.4byte	.LVL354
 19111 1506 34020000 		.4byte	.LFE14
 19112 150a 0100     		.2byte	0x1
 19113 150c 56       		.byte	0x56
 19114 150d 00000000 		.4byte	0
 19115 1511 00000000 		.4byte	0
 19116              	.LLST155:
 19117 1515 6E000000 		.4byte	.LVL309
 19118 1519 78000000 		.4byte	.LVL310
 19119 151d 0200     		.2byte	0x2
 19120 151f 30       		.byte	0x30
 19121 1520 9F       		.byte	0x9f
 19122 1521 78000000 		.4byte	.LVL310
 19123 1525 7A000000 		.4byte	.LVL311
 19124 1529 0100     		.2byte	0x1
 19125 152b 54       		.byte	0x54
 19126 152c 7A000000 		.4byte	.LVL311
 19127 1530 80000000 		.4byte	.LVL312
 19128 1534 0100     		.2byte	0x1
 19129 1536 53       		.byte	0x53
 19130 1537 80000000 		.4byte	.LVL312
 19131 153b A0000000 		.4byte	.LVL316
 19132 153f 0100     		.2byte	0x1
 19133 1541 54       		.byte	0x54
 19134 1542 28020000 		.4byte	.LVL357
ARM GAS  C:\Users\legoc\AppData\Local\Temp\ccMAvaOS.s 			page 359


 19135 1546 34020000 		.4byte	.LFE14
 19136 154a 0200     		.2byte	0x2
 19137 154c 30       		.byte	0x30
 19138 154d 9F       		.byte	0x9f
 19139 154e 00000000 		.4byte	0
 19140 1552 00000000 		.4byte	0
 19141              	.LLST156:
 19142 1556 90000000 		.4byte	.LVL314
 19143 155a 34010000 		.4byte	.LVL326
 19144 155e 0200     		.2byte	0x2
 19145 1560 75       		.byte	0x75
 19146 1561 00       		.sleb128 0
 19147 1562 08020000 		.4byte	.LVL354
 19148 1566 28020000 		.4byte	.LVL357
 19149 156a 0200     		.2byte	0x2
 19150 156c 75       		.byte	0x75
 19151 156d 00       		.sleb128 0
 19152 156e 28020000 		.4byte	.LVL357
 19153 1572 2C020000 		.4byte	.LVL358
 19154 1576 0200     		.2byte	0x2
 19155 1578 91       		.byte	0x91
 19156 1579 0C       		.sleb128 12
 19157 157a 2C020000 		.4byte	.LVL358
 19158 157e 34020000 		.4byte	.LFE14
 19159 1582 0200     		.2byte	0x2
 19160 1584 75       		.byte	0x75
 19161 1585 00       		.sleb128 0
 19162 1586 00000000 		.4byte	0
 19163 158a 00000000 		.4byte	0
 19164              	.LLST157:
 19165 158e 38000000 		.4byte	.LVL307
 19166 1592 54000000 		.4byte	.LVL308
 19167 1596 0200     		.2byte	0x2
 19168 1598 91       		.byte	0x91
 19169 1599 74       		.sleb128 -12
 19170 159a 80010000 		.4byte	.LVL333
 19171 159e 08020000 		.4byte	.LVL354
 19172 15a2 0200     		.2byte	0x2
 19173 15a4 91       		.byte	0x91
 19174 15a5 74       		.sleb128 -12
 19175 15a6 00000000 		.4byte	0
 19176 15aa 00000000 		.4byte	0
 19177              	.LLST158:
 19178 15ae 38000000 		.4byte	.LVL307
 19179 15b2 54000000 		.4byte	.LVL308
 19180 15b6 0200     		.2byte	0x2
 19181 15b8 91       		.byte	0x91
 19182 15b9 04       		.sleb128 4
 19183 15ba 80010000 		.4byte	.LVL333
 19184 15be 08020000 		.4byte	.LVL354
 19185 15c2 0200     		.2byte	0x2
 19186 15c4 91       		.byte	0x91
 19187 15c5 04       		.sleb128 4
 19188 15c6 00000000 		.4byte	0
 19189 15ca 00000000 		.4byte	0
 19190              	.LLST159:
 19191 15ce 38000000 		.4byte	.LVL307
ARM GAS  C:\Users\legoc\AppData\Local\Temp\ccMAvaOS.s 			page 360


 19192 15d2 54000000 		.4byte	.LVL308
 19193 15d6 0100     		.2byte	0x1
 19194 15d8 5A       		.byte	0x5a
 19195 15d9 80010000 		.4byte	.LVL333
 19196 15dd 08020000 		.4byte	.LVL354
 19197 15e1 0100     		.2byte	0x1
 19198 15e3 5A       		.byte	0x5a
 19199 15e4 00000000 		.4byte	0
 19200 15e8 00000000 		.4byte	0
 19201              	.LLST160:
 19202 15ec 38000000 		.4byte	.LVL307
 19203 15f0 54000000 		.4byte	.LVL308
 19204 15f4 0200     		.2byte	0x2
 19205 15f6 91       		.byte	0x91
 19206 15f7 7C       		.sleb128 -4
 19207 15f8 80010000 		.4byte	.LVL333
 19208 15fc 08020000 		.4byte	.LVL354
 19209 1600 0200     		.2byte	0x2
 19210 1602 91       		.byte	0x91
 19211 1603 7C       		.sleb128 -4
 19212 1604 00000000 		.4byte	0
 19213 1608 00000000 		.4byte	0
 19214              	.LLST161:
 19215 160c 38000000 		.4byte	.LVL307
 19216 1610 54000000 		.4byte	.LVL308
 19217 1614 0200     		.2byte	0x2
 19218 1616 91       		.byte	0x91
 19219 1617 00       		.sleb128 0
 19220 1618 80010000 		.4byte	.LVL333
 19221 161c 08020000 		.4byte	.LVL354
 19222 1620 0200     		.2byte	0x2
 19223 1622 91       		.byte	0x91
 19224 1623 00       		.sleb128 0
 19225 1624 00000000 		.4byte	0
 19226 1628 00000000 		.4byte	0
 19227              	.LLST165:
 19228 162c 38000000 		.4byte	.LVL307
 19229 1630 54000000 		.4byte	.LVL308
 19230 1634 0700     		.2byte	0x7
 19231 1636 0A       		.byte	0xa
 19232 1637 4001     		.2byte	0x140
 19233 1639 74       		.byte	0x74
 19234 163a 00       		.sleb128 0
 19235 163b 1C       		.byte	0x1c
 19236 163c 9F       		.byte	0x9f
 19237 163d 80010000 		.4byte	.LVL333
 19238 1641 C2010000 		.4byte	.LVL343
 19239 1645 0700     		.2byte	0x7
 19240 1647 0A       		.byte	0xa
 19241 1648 4001     		.2byte	0x140
 19242 164a 74       		.byte	0x74
 19243 164b 00       		.sleb128 0
 19244 164c 1C       		.byte	0x1c
 19245 164d 9F       		.byte	0x9f
 19246 164e C2010000 		.4byte	.LVL343
 19247 1652 08020000 		.4byte	.LVL354
 19248 1656 0F00     		.2byte	0xf
ARM GAS  C:\Users\legoc\AppData\Local\Temp\ccMAvaOS.s 			page 361


 19249 1658 0A       		.byte	0xa
 19250 1659 4001     		.2byte	0x140
 19251 165b 7A       		.byte	0x7a
 19252 165c 00       		.sleb128 0
 19253 165d 0A       		.byte	0xa
 19254 165e FFFF     		.2byte	0xffff
 19255 1660 1A       		.byte	0x1a
 19256 1661 91       		.byte	0x91
 19257 1662 00       		.sleb128 0
 19258 1663 06       		.byte	0x6
 19259 1664 22       		.byte	0x22
 19260 1665 1C       		.byte	0x1c
 19261 1666 9F       		.byte	0x9f
 19262 1667 00000000 		.4byte	0
 19263 166b 00000000 		.4byte	0
 19264              	.LLST166:
 19265 166f 38000000 		.4byte	.LVL307
 19266 1673 54000000 		.4byte	.LVL308
 19267 1677 0100     		.2byte	0x1
 19268 1679 56       		.byte	0x56
 19269 167a 80010000 		.4byte	.LVL333
 19270 167e 86010000 		.4byte	.LVL334
 19271 1682 0100     		.2byte	0x1
 19272 1684 56       		.byte	0x56
 19273 1685 86010000 		.4byte	.LVL334
 19274 1689 A9010000 		.4byte	.LVL338-1
 19275 168d 0100     		.2byte	0x1
 19276 168f 50       		.byte	0x50
 19277 1690 A9010000 		.4byte	.LVL338-1
 19278 1694 08020000 		.4byte	.LVL354
 19279 1698 1400     		.2byte	0x14
 19280 169a 08       		.byte	0x8
 19281 169b F0       		.byte	0xf0
 19282 169c 91       		.byte	0x91
 19283 169d 04       		.sleb128 4
 19284 169e 94       		.byte	0x94
 19285 169f 02       		.byte	0x2
 19286 16a0 0A       		.byte	0xa
 19287 16a1 FFFF     		.2byte	0xffff
 19288 16a3 1A       		.byte	0x1a
 19289 16a4 91       		.byte	0x91
 19290 16a5 7C       		.sleb128 -4
 19291 16a6 06       		.byte	0x6
 19292 16a7 22       		.byte	0x22
 19293 16a8 0A       		.byte	0xa
 19294 16a9 FFFF     		.2byte	0xffff
 19295 16ab 1A       		.byte	0x1a
 19296 16ac 1C       		.byte	0x1c
 19297 16ad 9F       		.byte	0x9f
 19298 16ae 00000000 		.4byte	0
 19299 16b2 00000000 		.4byte	0
 19300              	.LLST167:
 19301 16b6 80010000 		.4byte	.LVL333
 19302 16ba 08020000 		.4byte	.LVL354
 19303 16be 0200     		.2byte	0x2
 19304 16c0 91       		.byte	0x91
 19305 16c1 74       		.sleb128 -12
ARM GAS  C:\Users\legoc\AppData\Local\Temp\ccMAvaOS.s 			page 362


 19306 16c2 00000000 		.4byte	0
 19307 16c6 00000000 		.4byte	0
 19308              	.LLST168:
 19309 16ca 80010000 		.4byte	.LVL333
 19310 16ce A6010000 		.4byte	.LVL337
 19311 16d2 0100     		.2byte	0x1
 19312 16d4 5A       		.byte	0x5a
 19313 16d5 A6010000 		.4byte	.LVL337
 19314 16d9 C2010000 		.4byte	.LVL343
 19315 16dd 0100     		.2byte	0x1
 19316 16df 59       		.byte	0x59
 19317 16e0 00000000 		.4byte	0
 19318 16e4 00000000 		.4byte	0
 19319              	.LLST169:
 19320 16e8 80010000 		.4byte	.LVL333
 19321 16ec 90010000 		.4byte	.LVL335
 19322 16f0 0200     		.2byte	0x2
 19323 16f2 91       		.byte	0x91
 19324 16f3 04       		.sleb128 4
 19325 16f4 90010000 		.4byte	.LVL335
 19326 16f8 08020000 		.4byte	.LVL354
 19327 16fc 0100     		.2byte	0x1
 19328 16fe 5B       		.byte	0x5b
 19329 16ff 00000000 		.4byte	0
 19330 1703 00000000 		.4byte	0
 19331              	.LLST170:
 19332 1707 80010000 		.4byte	.LVL333
 19333 170b BC010000 		.4byte	.LVL342
 19334 170f 0700     		.2byte	0x7
 19335 1711 0A       		.byte	0xa
 19336 1712 4001     		.2byte	0x140
 19337 1714 74       		.byte	0x74
 19338 1715 00       		.sleb128 0
 19339 1716 1C       		.byte	0x1c
 19340 1717 9F       		.byte	0x9f
 19341 1718 BC010000 		.4byte	.LVL342
 19342 171c 08020000 		.4byte	.LVL354
 19343 1720 0100     		.2byte	0x1
 19344 1722 59       		.byte	0x59
 19345 1723 00000000 		.4byte	0
 19346 1727 00000000 		.4byte	0
 19347              	.LLST171:
 19348 172b 80010000 		.4byte	.LVL333
 19349 172f 86010000 		.4byte	.LVL334
 19350 1733 0100     		.2byte	0x1
 19351 1735 56       		.byte	0x56
 19352 1736 86010000 		.4byte	.LVL334
 19353 173a A9010000 		.4byte	.LVL338-1
 19354 173e 0100     		.2byte	0x1
 19355 1740 50       		.byte	0x50
 19356 1741 A9010000 		.4byte	.LVL338-1
 19357 1745 C2010000 		.4byte	.LVL343
 19358 1749 1400     		.2byte	0x14
 19359 174b 08       		.byte	0x8
 19360 174c F0       		.byte	0xf0
 19361 174d 91       		.byte	0x91
 19362 174e 04       		.sleb128 4
ARM GAS  C:\Users\legoc\AppData\Local\Temp\ccMAvaOS.s 			page 363


 19363 174f 94       		.byte	0x94
 19364 1750 02       		.byte	0x2
 19365 1751 0A       		.byte	0xa
 19366 1752 FFFF     		.2byte	0xffff
 19367 1754 1A       		.byte	0x1a
 19368 1755 91       		.byte	0x91
 19369 1756 7C       		.sleb128 -4
 19370 1757 06       		.byte	0x6
 19371 1758 22       		.byte	0x22
 19372 1759 0A       		.byte	0xa
 19373 175a FFFF     		.2byte	0xffff
 19374 175c 1A       		.byte	0x1a
 19375 175d 1C       		.byte	0x1c
 19376 175e 9F       		.byte	0x9f
 19377 175f C2010000 		.4byte	.LVL343
 19378 1763 CC010000 		.4byte	.LVL344
 19379 1767 0100     		.2byte	0x1
 19380 1769 5B       		.byte	0x5b
 19381 176a CC010000 		.4byte	.LVL344
 19382 176e EA010000 		.4byte	.LVL349
 19383 1772 0100     		.2byte	0x1
 19384 1774 54       		.byte	0x54
 19385 1775 EE010000 		.4byte	.LVL350
 19386 1779 F2010000 		.4byte	.LVL351
 19387 177d 0100     		.2byte	0x1
 19388 177f 54       		.byte	0x54
 19389 1780 00000000 		.4byte	0
 19390 1784 00000000 		.4byte	0
 19391              	.LLST172:
 19392 1788 B6010000 		.4byte	.LVL340
 19393 178c 08020000 		.4byte	.LVL354
 19394 1790 0100     		.2byte	0x1
 19395 1792 56       		.byte	0x56
 19396 1793 00000000 		.4byte	0
 19397 1797 00000000 		.4byte	0
 19398              	.LLST173:
 19399 179b B8010000 		.4byte	.LVL341
 19400 179f 08020000 		.4byte	.LVL354
 19401 17a3 0100     		.2byte	0x1
 19402 17a5 55       		.byte	0x55
 19403 17a6 00000000 		.4byte	0
 19404 17aa 00000000 		.4byte	0
 19405              	.LLST174:
 19406 17ae C2000000 		.4byte	.LVL317
 19407 17b2 CE000000 		.4byte	.LVL318
 19408 17b6 0100     		.2byte	0x1
 19409 17b8 58       		.byte	0x58
 19410 17b9 CE000000 		.4byte	.LVL318
 19411 17bd D2000000 		.4byte	.LVL319
 19412 17c1 0800     		.2byte	0x8
 19413 17c3 73       		.byte	0x73
 19414 17c4 00       		.sleb128 0
 19415 17c5 75       		.byte	0x75
 19416 17c6 00       		.sleb128 0
 19417 17c7 1C       		.byte	0x1c
 19418 17c8 23       		.byte	0x23
 19419 17c9 01       		.uleb128 0x1
ARM GAS  C:\Users\legoc\AppData\Local\Temp\ccMAvaOS.s 			page 364


 19420 17ca 9F       		.byte	0x9f
 19421 17cb D2000000 		.4byte	.LVL319
 19422 17cf 78010000 		.4byte	.LVL332
 19423 17d3 0100     		.2byte	0x1
 19424 17d5 58       		.byte	0x58
 19425 17d6 00000000 		.4byte	0
 19426 17da 00000000 		.4byte	0
 19427              	.LLST175:
 19428 17de F8000000 		.4byte	.LVL321
 19429 17e2 19010000 		.4byte	.LVL323-1
 19430 17e6 0200     		.2byte	0x2
 19431 17e8 73       		.byte	0x73
 19432 17e9 00       		.sleb128 0
 19433 17ea 19010000 		.4byte	.LVL323-1
 19434 17ee 78010000 		.4byte	.LVL332
 19435 17f2 0B00     		.2byte	0xb
 19436 17f4 91       		.byte	0x91
 19437 17f5 04       		.sleb128 4
 19438 17f6 06       		.byte	0x6
 19439 17f7 78       		.byte	0x78
 19440 17f8 08       		.sleb128 8
 19441 17f9 09       		.byte	0x9
 19442 17fa F8       		.byte	0xf8
 19443 17fb 1A       		.byte	0x1a
 19444 17fc 1C       		.byte	0x1c
 19445 17fd 23       		.byte	0x23
 19446 17fe 08       		.uleb128 0x8
 19447 17ff 00000000 		.4byte	0
 19448 1803 00000000 		.4byte	0
 19449              	.LLST176:
 19450 1807 08010000 		.4byte	.LVL322
 19451 180b 78010000 		.4byte	.LVL332
 19452 180f 0200     		.2byte	0x2
 19453 1811 7B       		.byte	0x7b
 19454 1812 00       		.sleb128 0
 19455 1813 00000000 		.4byte	0
 19456 1817 00000000 		.4byte	0
 19457              	.LLST177:
 19458 181b 3C010000 		.4byte	.LVL327
 19459 181f 40010000 		.4byte	.LVL328
 19460 1823 0100     		.2byte	0x1
 19461 1825 5A       		.byte	0x5a
 19462 1826 40010000 		.4byte	.LVL328
 19463 182a 78010000 		.4byte	.LVL332
 19464 182e 0300     		.2byte	0x3
 19465 1830 78       		.byte	0x78
 19466 1831 01       		.sleb128 1
 19467 1832 9F       		.byte	0x9f
 19468 1833 00000000 		.4byte	0
 19469 1837 00000000 		.4byte	0
 19470              	.LLST178:
 19471 183b 3C010000 		.4byte	.LVL327
 19472 183f 78010000 		.4byte	.LVL332
 19473 1843 0600     		.2byte	0x6
 19474 1845 91       		.byte	0x91
 19475 1846 00       		.sleb128 0
 19476 1847 06       		.byte	0x6
ARM GAS  C:\Users\legoc\AppData\Local\Temp\ccMAvaOS.s 			page 365


 19477 1848 31       		.byte	0x31
 19478 1849 1C       		.byte	0x1c
 19479 184a 9F       		.byte	0x9f
 19480 184b 00000000 		.4byte	0
 19481 184f 00000000 		.4byte	0
 19482              	.LLST179:
 19483 1853 3C010000 		.4byte	.LVL327
 19484 1857 40010000 		.4byte	.LVL328
 19485 185b 0D00     		.2byte	0xd
 19486 185d 7A       		.byte	0x7a
 19487 185e 00       		.sleb128 0
 19488 185f 37       		.byte	0x37
 19489 1860 1E       		.byte	0x1e
 19490 1861 09       		.byte	0x9
 19491 1862 FE       		.byte	0xfe
 19492 1863 1B       		.byte	0x1b
 19493 1864 79       		.byte	0x79
 19494 1865 00       		.sleb128 0
 19495 1866 22       		.byte	0x22
 19496 1867 23       		.byte	0x23
 19497 1868 05       		.uleb128 0x5
 19498 1869 9F       		.byte	0x9f
 19499 186a 40010000 		.4byte	.LVL328
 19500 186e 78010000 		.4byte	.LVL332
 19501 1872 0D00     		.2byte	0xd
 19502 1874 78       		.byte	0x78
 19503 1875 01       		.sleb128 1
 19504 1876 37       		.byte	0x37
 19505 1877 1E       		.byte	0x1e
 19506 1878 09       		.byte	0x9
 19507 1879 FE       		.byte	0xfe
 19508 187a 1B       		.byte	0x1b
 19509 187b 79       		.byte	0x79
 19510 187c 00       		.sleb128 0
 19511 187d 22       		.byte	0x22
 19512 187e 23       		.byte	0x23
 19513 187f 05       		.uleb128 0x5
 19514 1880 9F       		.byte	0x9f
 19515 1881 00000000 		.4byte	0
 19516 1885 00000000 		.4byte	0
 19517              	.LLST180:
 19518 1889 3C010000 		.4byte	.LVL327
 19519 188d 78010000 		.4byte	.LVL332
 19520 1891 1000     		.2byte	0x10
 19521 1893 91       		.byte	0x91
 19522 1894 00       		.sleb128 0
 19523 1895 06       		.byte	0x6
 19524 1896 31       		.byte	0x31
 19525 1897 1C       		.byte	0x1c
 19526 1898 37       		.byte	0x37
 19527 1899 1E       		.byte	0x1e
 19528 189a 09       		.byte	0x9
 19529 189b FE       		.byte	0xfe
 19530 189c 1B       		.byte	0x1b
 19531 189d 79       		.byte	0x79
 19532 189e 00       		.sleb128 0
 19533 189f 22       		.byte	0x22
ARM GAS  C:\Users\legoc\AppData\Local\Temp\ccMAvaOS.s 			page 366


 19534 18a0 23       		.byte	0x23
 19535 18a1 04       		.uleb128 0x4
 19536 18a2 9F       		.byte	0x9f
 19537 18a3 00000000 		.4byte	0
 19538 18a7 00000000 		.4byte	0
 19539              	.LLST181:
 19540 18ab 08010000 		.4byte	.LVL322
 19541 18af 78010000 		.4byte	.LVL332
 19542 18b3 0200     		.2byte	0x2
 19543 18b5 30       		.byte	0x30
 19544 18b6 9F       		.byte	0x9f
 19545 18b7 00000000 		.4byte	0
 19546 18bb 00000000 		.4byte	0
 19547              	.LLST182:
 19548 18bf 1C010000 		.4byte	.LVL324
 19549 18c3 78010000 		.4byte	.LVL332
 19550 18c7 0200     		.2byte	0x2
 19551 18c9 30       		.byte	0x30
 19552 18ca 9F       		.byte	0x9f
 19553 18cb 00000000 		.4byte	0
 19554 18cf 00000000 		.4byte	0
 19555              	.LLST183:
 19556 18d3 08020000 		.4byte	.LVL354
 19557 18d7 0C020000 		.4byte	.LVL355
 19558 18db 0B00     		.2byte	0xb
 19559 18dd 73       		.byte	0x73
 19560 18de 00       		.sleb128 0
 19561 18df 09       		.byte	0x9
 19562 18e0 FE       		.byte	0xfe
 19563 18e1 1B       		.byte	0x1b
 19564 18e2 79       		.byte	0x79
 19565 18e3 00       		.sleb128 0
 19566 18e4 22       		.byte	0x22
 19567 18e5 23       		.byte	0x23
 19568 18e6 03       		.uleb128 0x3
 19569 18e7 9F       		.byte	0x9f
 19570 18e8 00000000 		.4byte	0
 19571 18ec 00000000 		.4byte	0
 19572              	.LLST184:
 19573 18f0 00000000 		.4byte	.LVL359
 19574 18f4 14000000 		.4byte	.LVL361
 19575 18f8 0100     		.2byte	0x1
 19576 18fa 50       		.byte	0x50
 19577 18fb 14000000 		.4byte	.LVL361
 19578 18ff 16010000 		.4byte	.LVL391
 19579 1903 0100     		.2byte	0x1
 19580 1905 57       		.byte	0x57
 19581 1906 16010000 		.4byte	.LVL391
 19582 190a 96010000 		.4byte	.LVL402
 19583 190e 0400     		.2byte	0x4
 19584 1910 F3       		.byte	0xf3
 19585 1911 01       		.uleb128 0x1
 19586 1912 50       		.byte	0x50
 19587 1913 9F       		.byte	0x9f
 19588 1914 96010000 		.4byte	.LVL402
 19589 1918 D8010000 		.4byte	.LFE15
 19590 191c 0100     		.2byte	0x1
ARM GAS  C:\Users\legoc\AppData\Local\Temp\ccMAvaOS.s 			page 367


 19591 191e 57       		.byte	0x57
 19592 191f 00000000 		.4byte	0
 19593 1923 00000000 		.4byte	0
 19594              	.LLST185:
 19595 1927 00000000 		.4byte	.LVL359
 19596 192b 08000000 		.4byte	.LVL360
 19597 192f 0100     		.2byte	0x1
 19598 1931 51       		.byte	0x51
 19599 1932 08000000 		.4byte	.LVL360
 19600 1936 D0000000 		.4byte	.LVL382
 19601 193a 0100     		.2byte	0x1
 19602 193c 59       		.byte	0x59
 19603 193d D0000000 		.4byte	.LVL382
 19604 1941 96010000 		.4byte	.LVL402
 19605 1945 0400     		.2byte	0x4
 19606 1947 F3       		.byte	0xf3
 19607 1948 01       		.uleb128 0x1
 19608 1949 51       		.byte	0x51
 19609 194a 9F       		.byte	0x9f
 19610 194b 96010000 		.4byte	.LVL402
 19611 194f D8010000 		.4byte	.LFE15
 19612 1953 0100     		.2byte	0x1
 19613 1955 59       		.byte	0x59
 19614 1956 00000000 		.4byte	0
 19615 195a 00000000 		.4byte	0
 19616              	.LLST186:
 19617 195e 7E000000 		.4byte	.LVL375
 19618 1962 82000000 		.4byte	.LVL376
 19619 1966 0100     		.2byte	0x1
 19620 1968 50       		.byte	0x50
 19621 1969 82000000 		.4byte	.LVL376
 19622 196d 1E010000 		.4byte	.LVL392
 19623 1971 0100     		.2byte	0x1
 19624 1973 5A       		.byte	0x5a
 19625 1974 96010000 		.4byte	.LVL402
 19626 1978 D8010000 		.4byte	.LFE15
 19627 197c 0100     		.2byte	0x1
 19628 197e 5A       		.byte	0x5a
 19629 197f 00000000 		.4byte	0
 19630 1983 00000000 		.4byte	0
 19631              	.LLST187:
 19632 1987 DC000000 		.4byte	.LVL383
 19633 198b 06010000 		.4byte	.LVL387
 19634 198f 0100     		.2byte	0x1
 19635 1991 55       		.byte	0x55
 19636 1992 06010000 		.4byte	.LVL387
 19637 1996 14010000 		.4byte	.LVL390
 19638 199a 0300     		.2byte	0x3
 19639 199c 75       		.byte	0x75
 19640 199d 7B       		.sleb128 -5
 19641 199e 9F       		.byte	0x9f
 19642 199f 00000000 		.4byte	0
 19643 19a3 00000000 		.4byte	0
 19644              	.LLST188:
 19645 19a7 C4000000 		.4byte	.LVL381
 19646 19ab DC000000 		.4byte	.LVL383
 19647 19af 0200     		.2byte	0x2
ARM GAS  C:\Users\legoc\AppData\Local\Temp\ccMAvaOS.s 			page 368


 19648 19b1 31       		.byte	0x31
 19649 19b2 9F       		.byte	0x9f
 19650 19b3 14010000 		.4byte	.LVL390
 19651 19b7 2C010000 		.4byte	.LVL393
 19652 19bb 0200     		.2byte	0x2
 19653 19bd 31       		.byte	0x31
 19654 19be 9F       		.byte	0x9f
 19655 19bf 2C010000 		.4byte	.LVL393
 19656 19c3 56010000 		.4byte	.LVL397
 19657 19c7 0100     		.2byte	0x1
 19658 19c9 55       		.byte	0x55
 19659 19ca 56010000 		.4byte	.LVL397
 19660 19ce 5A010000 		.4byte	.LVL398
 19661 19d2 0300     		.2byte	0x3
 19662 19d4 75       		.byte	0x75
 19663 19d5 7F       		.sleb128 -1
 19664 19d6 9F       		.byte	0x9f
 19665 19d7 5A010000 		.4byte	.LVL398
 19666 19db 68010000 		.4byte	.LVL400
 19667 19df 0100     		.2byte	0x1
 19668 19e1 55       		.byte	0x55
 19669 19e2 00000000 		.4byte	0
 19670 19e6 00000000 		.4byte	0
 19671              	.LLST189:
 19672 19ea 00000000 		.4byte	.LVL359
 19673 19ee 5C000000 		.4byte	.LVL371
 19674 19f2 0200     		.2byte	0x2
 19675 19f4 30       		.byte	0x30
 19676 19f5 9F       		.byte	0x9f
 19677 19f6 00000000 		.4byte	0
 19678 19fa 00000000 		.4byte	0
 19679              	.LLST191:
 19680 19fe 00000000 		.4byte	.LVL359
 19681 1a02 5C000000 		.4byte	.LVL371
 19682 1a06 0300     		.2byte	0x3
 19683 1a08 08       		.byte	0x8
 19684 1a09 F0       		.byte	0xf0
 19685 1a0a 9F       		.byte	0x9f
 19686 1a0b 00000000 		.4byte	0
 19687 1a0f 00000000 		.4byte	0
 19688              	.LLST192:
 19689 1a13 00000000 		.4byte	.LVL359
 19690 1a17 5C000000 		.4byte	.LVL371
 19691 1a1b 0400     		.2byte	0x4
 19692 1a1d 0A       		.byte	0xa
 19693 1a1e 4001     		.2byte	0x140
 19694 1a20 9F       		.byte	0x9f
 19695 1a21 00000000 		.4byte	0
 19696 1a25 00000000 		.4byte	0
 19697              	.LLST200:
 19698 1a29 00000000 		.4byte	.LVL359
 19699 1a2d 28000000 		.4byte	.LVL365
 19700 1a31 0200     		.2byte	0x2
 19701 1a33 30       		.byte	0x30
 19702 1a34 9F       		.byte	0x9f
 19703 1a35 28000000 		.4byte	.LVL365
 19704 1a39 2A000000 		.4byte	.LVL366
ARM GAS  C:\Users\legoc\AppData\Local\Temp\ccMAvaOS.s 			page 369


 19705 1a3d 0300     		.2byte	0x3
 19706 1a3f 08       		.byte	0x8
 19707 1a40 F0       		.byte	0xf0
 19708 1a41 9F       		.byte	0x9f
 19709 1a42 00000000 		.4byte	0
 19710 1a46 00000000 		.4byte	0
 19711              	.LLST204:
 19712 1a4a 00000000 		.4byte	.LVL359
 19713 1a4e 24000000 		.4byte	.LVL364
 19714 1a52 0200     		.2byte	0x2
 19715 1a54 30       		.byte	0x30
 19716 1a55 9F       		.byte	0x9f
 19717 1a56 24000000 		.4byte	.LVL364
 19718 1a5a 28000000 		.4byte	.LVL365
 19719 1a5e 0400     		.2byte	0x4
 19720 1a60 0A       		.byte	0xa
 19721 1a61 4001     		.2byte	0x140
 19722 1a63 9F       		.byte	0x9f
 19723 1a64 00000000 		.4byte	0
 19724 1a68 00000000 		.4byte	0
 19725              	.LLST205:
 19726 1a6c 18000000 		.4byte	.LVL362
 19727 1a70 5C000000 		.4byte	.LVL371
 19728 1a74 0200     		.2byte	0x2
 19729 1a76 30       		.byte	0x30
 19730 1a77 9F       		.byte	0x9f
 19731 1a78 00000000 		.4byte	0
 19732 1a7c 00000000 		.4byte	0
 19733              	.LLST207:
 19734 1a80 7E000000 		.4byte	.LVL375
 19735 1a84 86000000 		.4byte	.LVL377
 19736 1a88 0300     		.2byte	0x3
 19737 1a8a 09       		.byte	0x9
 19738 1a8b FF       		.byte	0xff
 19739 1a8c 9F       		.byte	0x9f
 19740 1a8d 00000000 		.4byte	0
 19741 1a91 00000000 		.4byte	0
 19742              	.LLST208:
 19743 1a95 7E000000 		.4byte	.LVL375
 19744 1a99 86000000 		.4byte	.LVL377
 19745 1a9d 0200     		.2byte	0x2
 19746 1a9f 3A       		.byte	0x3a
 19747 1aa0 9F       		.byte	0x9f
 19748 1aa1 00000000 		.4byte	0
 19749 1aa5 00000000 		.4byte	0
 19750              	.LLST209:
 19751 1aa9 7E000000 		.4byte	.LVL375
 19752 1aad 86000000 		.4byte	.LVL377
 19753 1ab1 0300     		.2byte	0x3
 19754 1ab3 08       		.byte	0x8
 19755 1ab4 DC       		.byte	0xdc
 19756 1ab5 9F       		.byte	0x9f
 19757 1ab6 00000000 		.4byte	0
 19758 1aba 00000000 		.4byte	0
 19759              	.LLST211:
 19760 1abe 7E000000 		.4byte	.LVL375
 19761 1ac2 86000000 		.4byte	.LVL377
ARM GAS  C:\Users\legoc\AppData\Local\Temp\ccMAvaOS.s 			page 370


 19762 1ac6 0200     		.2byte	0x2
 19763 1ac8 4E       		.byte	0x4e
 19764 1ac9 9F       		.byte	0x9f
 19765 1aca 00000000 		.4byte	0
 19766 1ace 00000000 		.4byte	0
 19767              	.LLST212:
 19768 1ad2 86000000 		.4byte	.LVL377
 19769 1ad6 94000000 		.4byte	.LVL378
 19770 1ada 0300     		.2byte	0x3
 19771 1adc 09       		.byte	0x9
 19772 1add FF       		.byte	0xff
 19773 1ade 9F       		.byte	0x9f
 19774 1adf 00000000 		.4byte	0
 19775 1ae3 00000000 		.4byte	0
 19776              	.LLST213:
 19777 1ae7 86000000 		.4byte	.LVL377
 19778 1aeb 94000000 		.4byte	.LVL378
 19779 1aef 0300     		.2byte	0x3
 19780 1af1 08       		.byte	0x8
 19781 1af2 C9       		.byte	0xc9
 19782 1af3 9F       		.byte	0x9f
 19783 1af4 00000000 		.4byte	0
 19784 1af8 00000000 		.4byte	0
 19785              	.LLST214:
 19786 1afc 86000000 		.4byte	.LVL377
 19787 1b00 94000000 		.4byte	.LVL378
 19788 1b04 0200     		.2byte	0x2
 19789 1b06 4E       		.byte	0x4e
 19790 1b07 9F       		.byte	0x9f
 19791 1b08 00000000 		.4byte	0
 19792 1b0c 00000000 		.4byte	0
 19793              	.LLST215:
 19794 1b10 86000000 		.4byte	.LVL377
 19795 1b14 94000000 		.4byte	.LVL378
 19796 1b18 0200     		.2byte	0x2
 19797 1b1a 3A       		.byte	0x3a
 19798 1b1b 9F       		.byte	0x9f
 19799 1b1c 00000000 		.4byte	0
 19800 1b20 00000000 		.4byte	0
 19801              	.LLST222:
 19802 1b24 E8000000 		.4byte	.LVL385
 19803 1b28 F6000000 		.4byte	.LVL386
 19804 1b2c 0300     		.2byte	0x3
 19805 1b2e 09       		.byte	0x9
 19806 1b2f FF       		.byte	0xff
 19807 1b30 9F       		.byte	0x9f
 19808 1b31 00000000 		.4byte	0
 19809 1b35 00000000 		.4byte	0
 19810              	.LLST223:
 19811 1b39 E8000000 		.4byte	.LVL385
 19812 1b3d F5000000 		.4byte	.LVL386-1
 19813 1b41 0100     		.2byte	0x1
 19814 1b43 53       		.byte	0x53
 19815 1b44 F5000000 		.4byte	.LVL386-1
 19816 1b48 F6000000 		.4byte	.LVL386
 19817 1b4c 0100     		.2byte	0x1
 19818 1b4e 54       		.byte	0x54
ARM GAS  C:\Users\legoc\AppData\Local\Temp\ccMAvaOS.s 			page 371


 19819 1b4f 00000000 		.4byte	0
 19820 1b53 00000000 		.4byte	0
 19821              	.LLST224:
 19822 1b57 E8000000 		.4byte	.LVL385
 19823 1b5b F6000000 		.4byte	.LVL386
 19824 1b5f 0300     		.2byte	0x3
 19825 1b61 08       		.byte	0x8
 19826 1b62 DC       		.byte	0xdc
 19827 1b63 9F       		.byte	0x9f
 19828 1b64 00000000 		.4byte	0
 19829 1b68 00000000 		.4byte	0
 19830              	.LLST226:
 19831 1b6c E8000000 		.4byte	.LVL385
 19832 1b70 F6000000 		.4byte	.LVL386
 19833 1b74 0200     		.2byte	0x2
 19834 1b76 4E       		.byte	0x4e
 19835 1b77 9F       		.byte	0x9f
 19836 1b78 00000000 		.4byte	0
 19837 1b7c 00000000 		.4byte	0
 19838              	.LLST227:
 19839 1b80 E8000000 		.4byte	.LVL385
 19840 1b84 14010000 		.4byte	.LVL390
 19841 1b88 0300     		.2byte	0x3
 19842 1b8a 09       		.byte	0x9
 19843 1b8b FF       		.byte	0xff
 19844 1b8c 9F       		.byte	0x9f
 19845 1b8d 00000000 		.4byte	0
 19846 1b91 00000000 		.4byte	0
 19847              	.LLST228:
 19848 1b95 E8000000 		.4byte	.LVL385
 19849 1b99 14010000 		.4byte	.LVL390
 19850 1b9d 0300     		.2byte	0x3
 19851 1b9f 08       		.byte	0x8
 19852 1ba0 BF       		.byte	0xbf
 19853 1ba1 9F       		.byte	0x9f
 19854 1ba2 00000000 		.4byte	0
 19855 1ba6 00000000 		.4byte	0
 19856              	.LLST229:
 19857 1baa E8000000 		.4byte	.LVL385
 19858 1bae F5000000 		.4byte	.LVL386-1
 19859 1bb2 0100     		.2byte	0x1
 19860 1bb4 53       		.byte	0x53
 19861 1bb5 F5000000 		.4byte	.LVL386-1
 19862 1bb9 0C010000 		.4byte	.LVL389
 19863 1bbd 0100     		.2byte	0x1
 19864 1bbf 54       		.byte	0x54
 19865 1bc0 00000000 		.4byte	0
 19866 1bc4 00000000 		.4byte	0
 19867              	.LLST230:
 19868 1bc8 E8000000 		.4byte	.LVL385
 19869 1bcc 14010000 		.4byte	.LVL390
 19870 1bd0 0200     		.2byte	0x2
 19871 1bd2 4E       		.byte	0x4e
 19872 1bd3 9F       		.byte	0x9f
 19873 1bd4 00000000 		.4byte	0
 19874 1bd8 00000000 		.4byte	0
 19875              	.LLST231:
ARM GAS  C:\Users\legoc\AppData\Local\Temp\ccMAvaOS.s 			page 372


 19876 1bdc 38010000 		.4byte	.LVL395
 19877 1be0 46010000 		.4byte	.LVL396
 19878 1be4 0300     		.2byte	0x3
 19879 1be6 09       		.byte	0x9
 19880 1be7 FF       		.byte	0xff
 19881 1be8 9F       		.byte	0x9f
 19882 1be9 00000000 		.4byte	0
 19883 1bed 00000000 		.4byte	0
 19884              	.LLST232:
 19885 1bf1 38010000 		.4byte	.LVL395
 19886 1bf5 46010000 		.4byte	.LVL396
 19887 1bf9 0300     		.2byte	0x3
 19888 1bfb 08       		.byte	0x8
 19889 1bfc CA       		.byte	0xca
 19890 1bfd 9F       		.byte	0x9f
 19891 1bfe 00000000 		.4byte	0
 19892 1c02 00000000 		.4byte	0
 19893              	.LLST233:
 19894 1c06 38010000 		.4byte	.LVL395
 19895 1c0a 45010000 		.4byte	.LVL396-1
 19896 1c0e 0100     		.2byte	0x1
 19897 1c10 52       		.byte	0x52
 19898 1c11 45010000 		.4byte	.LVL396-1
 19899 1c15 46010000 		.4byte	.LVL396
 19900 1c19 0100     		.2byte	0x1
 19901 1c1b 54       		.byte	0x54
 19902 1c1c 00000000 		.4byte	0
 19903 1c20 00000000 		.4byte	0
 19904              	.LLST234:
 19905 1c24 38010000 		.4byte	.LVL395
 19906 1c28 46010000 		.4byte	.LVL396
 19907 1c2c 0200     		.2byte	0x2
 19908 1c2e 3A       		.byte	0x3a
 19909 1c2f 9F       		.byte	0x9f
 19910 1c30 00000000 		.4byte	0
 19911 1c34 00000000 		.4byte	0
 19912              	.LLST241:
 19913 1c38 38010000 		.4byte	.LVL395
 19914 1c3c 96010000 		.4byte	.LVL402
 19915 1c40 0300     		.2byte	0x3
 19916 1c42 09       		.byte	0x9
 19917 1c43 FF       		.byte	0xff
 19918 1c44 9F       		.byte	0x9f
 19919 1c45 00000000 		.4byte	0
 19920 1c49 00000000 		.4byte	0
 19921              	.LLST242:
 19922 1c4d 38010000 		.4byte	.LVL395
 19923 1c51 96010000 		.4byte	.LVL402
 19924 1c55 0300     		.2byte	0x3
 19925 1c57 08       		.byte	0x8
 19926 1c58 C1       		.byte	0xc1
 19927 1c59 9F       		.byte	0x9f
 19928 1c5a 00000000 		.4byte	0
 19929 1c5e 00000000 		.4byte	0
 19930              	.LLST243:
 19931 1c62 38010000 		.4byte	.LVL395
 19932 1c66 96010000 		.4byte	.LVL402
ARM GAS  C:\Users\legoc\AppData\Local\Temp\ccMAvaOS.s 			page 373


 19933 1c6a 0200     		.2byte	0x2
 19934 1c6c 3A       		.byte	0x3a
 19935 1c6d 9F       		.byte	0x9f
 19936 1c6e 00000000 		.4byte	0
 19937 1c72 00000000 		.4byte	0
 19938              	.LLST244:
 19939 1c76 38010000 		.4byte	.LVL395
 19940 1c7a 45010000 		.4byte	.LVL396-1
 19941 1c7e 0100     		.2byte	0x1
 19942 1c80 52       		.byte	0x52
 19943 1c81 45010000 		.4byte	.LVL396-1
 19944 1c85 5C010000 		.4byte	.LVL399
 19945 1c89 0100     		.2byte	0x1
 19946 1c8b 54       		.byte	0x54
 19947 1c8c 00000000 		.4byte	0
 19948 1c90 00000000 		.4byte	0
 19949              	.LLST245:
 19950 1c94 12000000 		.4byte	.LVL405
 19951 1c98 58000000 		.4byte	.LVL415
 19952 1c9c 0200     		.2byte	0x2
 19953 1c9e 4F       		.byte	0x4f
 19954 1c9f 9F       		.byte	0x9f
 19955 1ca0 00000000 		.4byte	0
 19956 1ca4 00000000 		.4byte	0
 19957              	.LLST246:
 19958 1ca8 12000000 		.4byte	.LVL405
 19959 1cac 58000000 		.4byte	.LVL415
 19960 1cb0 0300     		.2byte	0x3
 19961 1cb2 08       		.byte	0x8
 19962 1cb3 F0       		.byte	0xf0
 19963 1cb4 9F       		.byte	0x9f
 19964 1cb5 00000000 		.4byte	0
 19965 1cb9 00000000 		.4byte	0
 19966              	.LLST247:
 19967 1cbd 12000000 		.4byte	.LVL405
 19968 1cc1 58000000 		.4byte	.LVL415
 19969 1cc5 0300     		.2byte	0x3
 19970 1cc7 08       		.byte	0x8
 19971 1cc8 A0       		.byte	0xa0
 19972 1cc9 9F       		.byte	0x9f
 19973 1cca 00000000 		.4byte	0
 19974 1cce 00000000 		.4byte	0
 19975              	.LLST248:
 19976 1cd2 12000000 		.4byte	.LVL405
 19977 1cd6 58000000 		.4byte	.LVL415
 19978 1cda 0200     		.2byte	0x2
 19979 1cdc 30       		.byte	0x30
 19980 1cdd 9F       		.byte	0x9f
 19981 1cde 00000000 		.4byte	0
 19982 1ce2 00000000 		.4byte	0
 19983              	.LLST255:
 19984 1ce6 12000000 		.4byte	.LVL405
 19985 1cea 24000000 		.4byte	.LVL409
 19986 1cee 0200     		.2byte	0x2
 19987 1cf0 30       		.byte	0x30
 19988 1cf1 9F       		.byte	0x9f
 19989 1cf2 24000000 		.4byte	.LVL409
ARM GAS  C:\Users\legoc\AppData\Local\Temp\ccMAvaOS.s 			page 374


 19990 1cf6 26000000 		.4byte	.LVL410
 19991 1cfa 0300     		.2byte	0x3
 19992 1cfc 08       		.byte	0x8
 19993 1cfd F0       		.byte	0xf0
 19994 1cfe 9F       		.byte	0x9f
 19995 1cff 00000000 		.4byte	0
 19996 1d03 00000000 		.4byte	0
 19997              	.LLST259:
 19998 1d07 12000000 		.4byte	.LVL405
 19999 1d0b 24000000 		.4byte	.LVL409
 20000 1d0f 0300     		.2byte	0x3
 20001 1d11 08       		.byte	0x8
 20002 1d12 A0       		.byte	0xa0
 20003 1d13 9F       		.byte	0x9f
 20004 1d14 00000000 		.4byte	0
 20005 1d18 00000000 		.4byte	0
 20006              	.LLST260:
 20007 1d1c 16000000 		.4byte	.LVL406
 20008 1d20 58000000 		.4byte	.LVL415
 20009 1d24 0200     		.2byte	0x2
 20010 1d26 30       		.byte	0x30
 20011 1d27 9F       		.byte	0x9f
 20012 1d28 00000000 		.4byte	0
 20013 1d2c 00000000 		.4byte	0
 20014              	.LLST261:
 20015 1d30 16000000 		.4byte	.LVL406
 20016 1d34 58000000 		.4byte	.LVL415
 20017 1d38 0200     		.2byte	0x2
 20018 1d3a 4F       		.byte	0x4f
 20019 1d3b 9F       		.byte	0x9f
 20020 1d3c 00000000 		.4byte	0
 20021 1d40 00000000 		.4byte	0
 20022              	.LLST262:
 20023 1d44 58000000 		.4byte	.LVL415
 20024 1d48 A6000000 		.4byte	.LVL425
 20025 1d4c 0400     		.2byte	0x4
 20026 1d4e 0B       		.byte	0xb
 20027 1d4f 00F8     		.2byte	0xf800
 20028 1d51 9F       		.byte	0x9f
 20029 1d52 00000000 		.4byte	0
 20030 1d56 00000000 		.4byte	0
 20031              	.LLST263:
 20032 1d5a 58000000 		.4byte	.LVL415
 20033 1d5e A6000000 		.4byte	.LVL425
 20034 1d62 0300     		.2byte	0x3
 20035 1d64 08       		.byte	0x8
 20036 1d65 F0       		.byte	0xf0
 20037 1d66 9F       		.byte	0x9f
 20038 1d67 00000000 		.4byte	0
 20039 1d6b 00000000 		.4byte	0
 20040              	.LLST264:
 20041 1d6f 58000000 		.4byte	.LVL415
 20042 1d73 A6000000 		.4byte	.LVL425
 20043 1d77 0300     		.2byte	0x3
 20044 1d79 08       		.byte	0x8
 20045 1d7a A0       		.byte	0xa0
 20046 1d7b 9F       		.byte	0x9f
ARM GAS  C:\Users\legoc\AppData\Local\Temp\ccMAvaOS.s 			page 375


 20047 1d7c 00000000 		.4byte	0
 20048 1d80 00000000 		.4byte	0
 20049              	.LLST265:
 20050 1d84 58000000 		.4byte	.LVL415
 20051 1d88 A6000000 		.4byte	.LVL425
 20052 1d8c 0200     		.2byte	0x2
 20053 1d8e 30       		.byte	0x30
 20054 1d8f 9F       		.byte	0x9f
 20055 1d90 00000000 		.4byte	0
 20056 1d94 00000000 		.4byte	0
 20057              	.LLST272:
 20058 1d98 58000000 		.4byte	.LVL415
 20059 1d9c 72000000 		.4byte	.LVL419
 20060 1da0 0200     		.2byte	0x2
 20061 1da2 30       		.byte	0x30
 20062 1da3 9F       		.byte	0x9f
 20063 1da4 72000000 		.4byte	.LVL419
 20064 1da8 74000000 		.4byte	.LVL420
 20065 1dac 0300     		.2byte	0x3
 20066 1dae 08       		.byte	0x8
 20067 1daf F0       		.byte	0xf0
 20068 1db0 9F       		.byte	0x9f
 20069 1db1 00000000 		.4byte	0
 20070 1db5 00000000 		.4byte	0
 20071              	.LLST276:
 20072 1db9 58000000 		.4byte	.LVL415
 20073 1dbd 70000000 		.4byte	.LVL418
 20074 1dc1 0200     		.2byte	0x2
 20075 1dc3 30       		.byte	0x30
 20076 1dc4 9F       		.byte	0x9f
 20077 1dc5 70000000 		.4byte	.LVL418
 20078 1dc9 72000000 		.4byte	.LVL419
 20079 1dcd 0300     		.2byte	0x3
 20080 1dcf 08       		.byte	0x8
 20081 1dd0 A0       		.byte	0xa0
 20082 1dd1 9F       		.byte	0x9f
 20083 1dd2 00000000 		.4byte	0
 20084 1dd6 00000000 		.4byte	0
 20085              	.LLST277:
 20086 1dda 64000000 		.4byte	.LVL416
 20087 1dde A6000000 		.4byte	.LVL425
 20088 1de2 0300     		.2byte	0x3
 20089 1de4 09       		.byte	0x9
 20090 1de5 F8       		.byte	0xf8
 20091 1de6 9F       		.byte	0x9f
 20092 1de7 00000000 		.4byte	0
 20093 1deb 00000000 		.4byte	0
 20094              	.LLST278:
 20095 1def 64000000 		.4byte	.LVL416
 20096 1df3 A6000000 		.4byte	.LVL425
 20097 1df7 0200     		.2byte	0x2
 20098 1df9 30       		.byte	0x30
 20099 1dfa 9F       		.byte	0x9f
 20100 1dfb 00000000 		.4byte	0
 20101 1dff 00000000 		.4byte	0
 20102              	.LLST279:
 20103 1e03 A6000000 		.4byte	.LVL425
ARM GAS  C:\Users\legoc\AppData\Local\Temp\ccMAvaOS.s 			page 376


 20104 1e07 F4000000 		.4byte	.LVL435
 20105 1e0b 0200     		.2byte	0x2
 20106 1e0d 30       		.byte	0x30
 20107 1e0e 9F       		.byte	0x9f
 20108 1e0f 00000000 		.4byte	0
 20109 1e13 00000000 		.4byte	0
 20110              	.LLST280:
 20111 1e17 A6000000 		.4byte	.LVL425
 20112 1e1b F4000000 		.4byte	.LVL435
 20113 1e1f 0300     		.2byte	0x3
 20114 1e21 08       		.byte	0x8
 20115 1e22 F0       		.byte	0xf0
 20116 1e23 9F       		.byte	0x9f
 20117 1e24 00000000 		.4byte	0
 20118 1e28 00000000 		.4byte	0
 20119              	.LLST281:
 20120 1e2c A6000000 		.4byte	.LVL425
 20121 1e30 F4000000 		.4byte	.LVL435
 20122 1e34 0200     		.2byte	0x2
 20123 1e36 32       		.byte	0x32
 20124 1e37 9F       		.byte	0x9f
 20125 1e38 00000000 		.4byte	0
 20126 1e3c 00000000 		.4byte	0
 20127              	.LLST283:
 20128 1e40 A6000000 		.4byte	.LVL425
 20129 1e44 F4000000 		.4byte	.LVL435
 20130 1e48 0300     		.2byte	0x3
 20131 1e4a 08       		.byte	0x8
 20132 1e4b 9F       		.byte	0x9f
 20133 1e4c 9F       		.byte	0x9f
 20134 1e4d 00000000 		.4byte	0
 20135 1e51 00000000 		.4byte	0
 20136              	.LLST289:
 20137 1e55 A6000000 		.4byte	.LVL425
 20138 1e59 C0000000 		.4byte	.LVL429
 20139 1e5d 0200     		.2byte	0x2
 20140 1e5f 30       		.byte	0x30
 20141 1e60 9F       		.byte	0x9f
 20142 1e61 C0000000 		.4byte	.LVL429
 20143 1e65 C2000000 		.4byte	.LVL430
 20144 1e69 0300     		.2byte	0x3
 20145 1e6b 08       		.byte	0x8
 20146 1e6c F0       		.byte	0xf0
 20147 1e6d 9F       		.byte	0x9f
 20148 1e6e 00000000 		.4byte	0
 20149 1e72 00000000 		.4byte	0
 20150              	.LLST293:
 20151 1e76 A6000000 		.4byte	.LVL425
 20152 1e7a BE000000 		.4byte	.LVL428
 20153 1e7e 0300     		.2byte	0x3
 20154 1e80 08       		.byte	0x8
 20155 1e81 9F       		.byte	0x9f
 20156 1e82 9F       		.byte	0x9f
 20157 1e83 BE000000 		.4byte	.LVL428
 20158 1e87 C0000000 		.4byte	.LVL429
 20159 1e8b 0200     		.2byte	0x2
 20160 1e8d 32       		.byte	0x32
ARM GAS  C:\Users\legoc\AppData\Local\Temp\ccMAvaOS.s 			page 377


 20161 1e8e 9F       		.byte	0x9f
 20162 1e8f 00000000 		.4byte	0
 20163 1e93 00000000 		.4byte	0
 20164              	.LLST294:
 20165 1e97 B2000000 		.4byte	.LVL426
 20166 1e9b F4000000 		.4byte	.LVL435
 20167 1e9f 0200     		.2byte	0x2
 20168 1ea1 30       		.byte	0x30
 20169 1ea2 9F       		.byte	0x9f
 20170 1ea3 00000000 		.4byte	0
 20171 1ea7 00000000 		.4byte	0
 20172              	.LLST296:
 20173 1eab F4000000 		.4byte	.LVL435
 20174 1eaf 46010000 		.4byte	.LVL445
 20175 1eb3 0200     		.2byte	0x2
 20176 1eb5 30       		.byte	0x30
 20177 1eb6 9F       		.byte	0x9f
 20178 1eb7 00000000 		.4byte	0
 20179 1ebb 00000000 		.4byte	0
 20180              	.LLST297:
 20181 1ebf F4000000 		.4byte	.LVL435
 20182 1ec3 46010000 		.4byte	.LVL445
 20183 1ec7 0200     		.2byte	0x2
 20184 1ec9 32       		.byte	0x32
 20185 1eca 9F       		.byte	0x9f
 20186 1ecb 00000000 		.4byte	0
 20187 1ecf 00000000 		.4byte	0
 20188              	.LLST298:
 20189 1ed3 F4000000 		.4byte	.LVL435
 20190 1ed7 46010000 		.4byte	.LVL445
 20191 1edb 0400     		.2byte	0x4
 20192 1edd 0A       		.byte	0xa
 20193 1ede 4001     		.2byte	0x140
 20194 1ee0 9F       		.byte	0x9f
 20195 1ee1 00000000 		.4byte	0
 20196 1ee5 00000000 		.4byte	0
 20197              	.LLST299:
 20198 1ee9 F4000000 		.4byte	.LVL435
 20199 1eed 46010000 		.4byte	.LVL445
 20200 1ef1 0300     		.2byte	0x3
 20201 1ef3 08       		.byte	0x8
 20202 1ef4 77       		.byte	0x77
 20203 1ef5 9F       		.byte	0x9f
 20204 1ef6 00000000 		.4byte	0
 20205 1efa 00000000 		.4byte	0
 20206              	.LLST309:
 20207 1efe F4000000 		.4byte	.LVL435
 20208 1f02 0E010000 		.4byte	.LVL438
 20209 1f06 0200     		.2byte	0x2
 20210 1f08 30       		.byte	0x30
 20211 1f09 9F       		.byte	0x9f
 20212 1f0a 0E010000 		.4byte	.LVL438
 20213 1f0e 12010000 		.4byte	.LVL439
 20214 1f12 0400     		.2byte	0x4
 20215 1f14 0A       		.byte	0xa
 20216 1f15 4001     		.2byte	0x140
 20217 1f17 9F       		.byte	0x9f
ARM GAS  C:\Users\legoc\AppData\Local\Temp\ccMAvaOS.s 			page 378


 20218 1f18 00000000 		.4byte	0
 20219 1f1c 00000000 		.4byte	0
 20220              	.LLST310:
 20221 1f20 F4000000 		.4byte	.LVL435
 20222 1f24 12010000 		.4byte	.LVL439
 20223 1f28 0300     		.2byte	0x3
 20224 1f2a 08       		.byte	0x8
 20225 1f2b 77       		.byte	0x77
 20226 1f2c 9F       		.byte	0x9f
 20227 1f2d 12010000 		.4byte	.LVL439
 20228 1f31 14010000 		.4byte	.LVL440
 20229 1f35 0200     		.2byte	0x2
 20230 1f37 32       		.byte	0x32
 20231 1f38 9F       		.byte	0x9f
 20232 1f39 00000000 		.4byte	0
 20233 1f3d 00000000 		.4byte	0
 20234              	.LLST311:
 20235 1f41 02010000 		.4byte	.LVL436
 20236 1f45 46010000 		.4byte	.LVL445
 20237 1f49 0200     		.2byte	0x2
 20238 1f4b 30       		.byte	0x30
 20239 1f4c 9F       		.byte	0x9f
 20240 1f4d 00000000 		.4byte	0
 20241 1f51 00000000 		.4byte	0
 20242              	.LLST313:
 20243 1f55 46010000 		.4byte	.LVL445
 20244 1f59 9A010000 		.4byte	.LVL455
 20245 1f5d 0200     		.2byte	0x2
 20246 1f5f 30       		.byte	0x30
 20247 1f60 9F       		.byte	0x9f
 20248 1f61 00000000 		.4byte	0
 20249 1f65 00000000 		.4byte	0
 20250              	.LLST314:
 20251 1f69 46010000 		.4byte	.LVL445
 20252 1f6d 9A010000 		.4byte	.LVL455
 20253 1f71 0200     		.2byte	0x2
 20254 1f73 46       		.byte	0x46
 20255 1f74 9F       		.byte	0x9f
 20256 1f75 00000000 		.4byte	0
 20257 1f79 00000000 		.4byte	0
 20258              	.LLST315:
 20259 1f7d 46010000 		.4byte	.LVL445
 20260 1f81 9A010000 		.4byte	.LVL455
 20261 1f85 0300     		.2byte	0x3
 20262 1f87 08       		.byte	0x8
 20263 1f88 FC       		.byte	0xfc
 20264 1f89 9F       		.byte	0x9f
 20265 1f8a 00000000 		.4byte	0
 20266 1f8e 00000000 		.4byte	0
 20267              	.LLST316:
 20268 1f92 46010000 		.4byte	.LVL445
 20269 1f96 9A010000 		.4byte	.LVL455
 20270 1f9a 0300     		.2byte	0x3
 20271 1f9c 08       		.byte	0x8
 20272 1f9d 6D       		.byte	0x6d
 20273 1f9e 9F       		.byte	0x9f
 20274 1f9f 00000000 		.4byte	0
ARM GAS  C:\Users\legoc\AppData\Local\Temp\ccMAvaOS.s 			page 379


 20275 1fa3 00000000 		.4byte	0
 20276              	.LLST317:
 20277 1fa7 46010000 		.4byte	.LVL445
 20278 1fab 9A010000 		.4byte	.LVL455
 20279 1faf 0300     		.2byte	0x3
 20280 1fb1 08       		.byte	0x8
 20281 1fb2 21       		.byte	0x21
 20282 1fb3 9F       		.byte	0x9f
 20283 1fb4 00000000 		.4byte	0
 20284 1fb8 00000000 		.4byte	0
 20285              	.LLST321:
 20286 1fbc 46010000 		.4byte	.LVL445
 20287 1fc0 9A010000 		.4byte	.LVL455
 20288 1fc4 0300     		.2byte	0x3
 20289 1fc6 08       		.byte	0x8
 20290 1fc7 23       		.byte	0x23
 20291 1fc8 9F       		.byte	0x9f
 20292 1fc9 00000000 		.4byte	0
 20293 1fcd 00000000 		.4byte	0
 20294              	.LLST326:
 20295 1fd1 46010000 		.4byte	.LVL445
 20296 1fd5 5E010000 		.4byte	.LVL448
 20297 1fd9 0300     		.2byte	0x3
 20298 1fdb 08       		.byte	0x8
 20299 1fdc 23       		.byte	0x23
 20300 1fdd 9F       		.byte	0x9f
 20301 1fde 5E010000 		.4byte	.LVL448
 20302 1fe2 60010000 		.4byte	.LVL449
 20303 1fe6 0300     		.2byte	0x3
 20304 1fe8 08       		.byte	0x8
 20305 1fe9 FC       		.byte	0xfc
 20306 1fea 9F       		.byte	0x9f
 20307 1feb 00000000 		.4byte	0
 20308 1fef 00000000 		.4byte	0
 20309              	.LLST327:
 20310 1ff3 46010000 		.4byte	.LVL445
 20311 1ff7 60010000 		.4byte	.LVL449
 20312 1ffb 0300     		.2byte	0x3
 20313 1ffd 08       		.byte	0x8
 20314 1ffe 6D       		.byte	0x6d
 20315 1fff 9F       		.byte	0x9f
 20316 2000 60010000 		.4byte	.LVL449
 20317 2004 62010000 		.4byte	.LVL450
 20318 2008 0200     		.2byte	0x2
 20319 200a 46       		.byte	0x46
 20320 200b 9F       		.byte	0x9f
 20321 200c 00000000 		.4byte	0
 20322 2010 00000000 		.4byte	0
 20323              	.LLST328:
 20324 2014 52010000 		.4byte	.LVL446
 20325 2018 9A010000 		.4byte	.LVL455
 20326 201c 0200     		.2byte	0x2
 20327 201e 30       		.byte	0x30
 20328 201f 9F       		.byte	0x9f
 20329 2020 00000000 		.4byte	0
 20330 2024 00000000 		.4byte	0
 20331              	.LLST330:
ARM GAS  C:\Users\legoc\AppData\Local\Temp\ccMAvaOS.s 			page 380


 20332 2028 EA000000 		.4byte	.LVL466
 20333 202c 38010000 		.4byte	.LVL476
 20334 2030 0200     		.2byte	0x2
 20335 2032 30       		.byte	0x30
 20336 2033 9F       		.byte	0x9f
 20337 2034 00000000 		.4byte	0
 20338 2038 00000000 		.4byte	0
 20339              	.LLST331:
 20340 203c EA000000 		.4byte	.LVL466
 20341 2040 38010000 		.4byte	.LVL476
 20342 2044 0300     		.2byte	0x3
 20343 2046 08       		.byte	0x8
 20344 2047 F0       		.byte	0xf0
 20345 2048 9F       		.byte	0x9f
 20346 2049 00000000 		.4byte	0
 20347 204d 00000000 		.4byte	0
 20348              	.LLST332:
 20349 2051 EA000000 		.4byte	.LVL466
 20350 2055 38010000 		.4byte	.LVL476
 20351 2059 0200     		.2byte	0x2
 20352 205b 32       		.byte	0x32
 20353 205c 9F       		.byte	0x9f
 20354 205d 00000000 		.4byte	0
 20355 2061 00000000 		.4byte	0
 20356              	.LLST334:
 20357 2065 EA000000 		.4byte	.LVL466
 20358 2069 38010000 		.4byte	.LVL476
 20359 206d 0300     		.2byte	0x3
 20360 206f 08       		.byte	0x8
 20361 2070 77       		.byte	0x77
 20362 2071 9F       		.byte	0x9f
 20363 2072 00000000 		.4byte	0
 20364 2076 00000000 		.4byte	0
 20365              	.LLST338:
 20366 207a EA000000 		.4byte	.LVL466
 20367 207e 38010000 		.4byte	.LVL476
 20368 2082 0300     		.2byte	0x3
 20369 2084 08       		.byte	0x8
 20370 2085 C7       		.byte	0xc7
 20371 2086 9F       		.byte	0x9f
 20372 2087 00000000 		.4byte	0
 20373 208b 00000000 		.4byte	0
 20374              	.LLST340:
 20375 208f EA000000 		.4byte	.LVL466
 20376 2093 04010000 		.4byte	.LVL470
 20377 2097 0200     		.2byte	0x2
 20378 2099 30       		.byte	0x30
 20379 209a 9F       		.byte	0x9f
 20380 209b 04010000 		.4byte	.LVL470
 20381 209f 06010000 		.4byte	.LVL471
 20382 20a3 0300     		.2byte	0x3
 20383 20a5 08       		.byte	0x8
 20384 20a6 F0       		.byte	0xf0
 20385 20a7 9F       		.byte	0x9f
 20386 20a8 00000000 		.4byte	0
 20387 20ac 00000000 		.4byte	0
 20388              	.LLST344:
ARM GAS  C:\Users\legoc\AppData\Local\Temp\ccMAvaOS.s 			page 381


 20389 20b0 EA000000 		.4byte	.LVL466
 20390 20b4 02010000 		.4byte	.LVL469
 20391 20b8 0300     		.2byte	0x3
 20392 20ba 08       		.byte	0x8
 20393 20bb C7       		.byte	0xc7
 20394 20bc 9F       		.byte	0x9f
 20395 20bd 02010000 		.4byte	.LVL469
 20396 20c1 04010000 		.4byte	.LVL470
 20397 20c5 0200     		.2byte	0x2
 20398 20c7 32       		.byte	0x32
 20399 20c8 9F       		.byte	0x9f
 20400 20c9 00000000 		.4byte	0
 20401 20cd 00000000 		.4byte	0
 20402              	.LLST345:
 20403 20d1 F6000000 		.4byte	.LVL467
 20404 20d5 38010000 		.4byte	.LVL476
 20405 20d9 0200     		.2byte	0x2
 20406 20db 30       		.byte	0x30
 20407 20dc 9F       		.byte	0x9f
 20408 20dd 00000000 		.4byte	0
 20409 20e1 00000000 		.4byte	0
 20410              	.LLST347:
 20411 20e5 38010000 		.4byte	.LVL476
 20412 20e9 8A010000 		.4byte	.LVL486
 20413 20ed 0200     		.2byte	0x2
 20414 20ef 30       		.byte	0x30
 20415 20f0 9F       		.byte	0x9f
 20416 20f1 00000000 		.4byte	0
 20417 20f5 00000000 		.4byte	0
 20418              	.LLST348:
 20419 20f9 38010000 		.4byte	.LVL476
 20420 20fd 8A010000 		.4byte	.LVL486
 20421 2101 0200     		.2byte	0x2
 20422 2103 32       		.byte	0x32
 20423 2104 9F       		.byte	0x9f
 20424 2105 00000000 		.4byte	0
 20425 2109 00000000 		.4byte	0
 20426              	.LLST349:
 20427 210d 38010000 		.4byte	.LVL476
 20428 2111 8A010000 		.4byte	.LVL486
 20429 2115 0400     		.2byte	0x4
 20430 2117 0A       		.byte	0xa
 20431 2118 4001     		.2byte	0x140
 20432 211a 9F       		.byte	0x9f
 20433 211b 00000000 		.4byte	0
 20434 211f 00000000 		.4byte	0
 20435              	.LLST350:
 20436 2123 38010000 		.4byte	.LVL476
 20437 2127 8A010000 		.4byte	.LVL486
 20438 212b 0300     		.2byte	0x3
 20439 212d 08       		.byte	0x8
 20440 212e 77       		.byte	0x77
 20441 212f 9F       		.byte	0x9f
 20442 2130 00000000 		.4byte	0
 20443 2134 00000000 		.4byte	0
 20444              	.LLST360:
 20445 2138 38010000 		.4byte	.LVL476
ARM GAS  C:\Users\legoc\AppData\Local\Temp\ccMAvaOS.s 			page 382


 20446 213c 52010000 		.4byte	.LVL479
 20447 2140 0200     		.2byte	0x2
 20448 2142 30       		.byte	0x30
 20449 2143 9F       		.byte	0x9f
 20450 2144 52010000 		.4byte	.LVL479
 20451 2148 56010000 		.4byte	.LVL480
 20452 214c 0400     		.2byte	0x4
 20453 214e 0A       		.byte	0xa
 20454 214f 4001     		.2byte	0x140
 20455 2151 9F       		.byte	0x9f
 20456 2152 00000000 		.4byte	0
 20457 2156 00000000 		.4byte	0
 20458              	.LLST361:
 20459 215a 38010000 		.4byte	.LVL476
 20460 215e 56010000 		.4byte	.LVL480
 20461 2162 0300     		.2byte	0x3
 20462 2164 08       		.byte	0x8
 20463 2165 77       		.byte	0x77
 20464 2166 9F       		.byte	0x9f
 20465 2167 56010000 		.4byte	.LVL480
 20466 216b 58010000 		.4byte	.LVL481
 20467 216f 0200     		.2byte	0x2
 20468 2171 32       		.byte	0x32
 20469 2172 9F       		.byte	0x9f
 20470 2173 00000000 		.4byte	0
 20471 2177 00000000 		.4byte	0
 20472              	.LLST362:
 20473 217b 46010000 		.4byte	.LVL477
 20474 217f 8A010000 		.4byte	.LVL486
 20475 2183 0200     		.2byte	0x2
 20476 2185 30       		.byte	0x30
 20477 2186 9F       		.byte	0x9f
 20478 2187 00000000 		.4byte	0
 20479 218b 00000000 		.4byte	0
 20480              	.LLST364:
 20481 218f 8A010000 		.4byte	.LVL486
 20482 2193 D6010000 		.4byte	.LVL496
 20483 2197 0200     		.2byte	0x2
 20484 2199 30       		.byte	0x30
 20485 219a 9F       		.byte	0x9f
 20486 219b 00000000 		.4byte	0
 20487 219f 00000000 		.4byte	0
 20488              	.LLST365:
 20489 21a3 8A010000 		.4byte	.LVL486
 20490 21a7 D6010000 		.4byte	.LVL496
 20491 21ab 0300     		.2byte	0x3
 20492 21ad 08       		.byte	0x8
 20493 21ae F0       		.byte	0xf0
 20494 21af 9F       		.byte	0x9f
 20495 21b0 00000000 		.4byte	0
 20496 21b4 00000000 		.4byte	0
 20497              	.LLST366:
 20498 21b8 8A010000 		.4byte	.LVL486
 20499 21bc D6010000 		.4byte	.LVL496
 20500 21c0 0200     		.2byte	0x2
 20501 21c2 32       		.byte	0x32
 20502 21c3 9F       		.byte	0x9f
ARM GAS  C:\Users\legoc\AppData\Local\Temp\ccMAvaOS.s 			page 383


 20503 21c4 00000000 		.4byte	0
 20504 21c8 00000000 		.4byte	0
 20505              	.LLST368:
 20506 21cc 8A010000 		.4byte	.LVL486
 20507 21d0 D6010000 		.4byte	.LVL496
 20508 21d4 0300     		.2byte	0x3
 20509 21d6 08       		.byte	0x8
 20510 21d7 EF       		.byte	0xef
 20511 21d8 9F       		.byte	0x9f
 20512 21d9 00000000 		.4byte	0
 20513 21dd 00000000 		.4byte	0
 20514              	.LLST372:
 20515 21e1 8A010000 		.4byte	.LVL486
 20516 21e5 D6010000 		.4byte	.LVL496
 20517 21e9 0300     		.2byte	0x3
 20518 21eb 08       		.byte	0x8
 20519 21ec 4F       		.byte	0x4f
 20520 21ed 9F       		.byte	0x9f
 20521 21ee 00000000 		.4byte	0
 20522 21f2 00000000 		.4byte	0
 20523              	.LLST374:
 20524 21f6 8A010000 		.4byte	.LVL486
 20525 21fa A4010000 		.4byte	.LVL490
 20526 21fe 0200     		.2byte	0x2
 20527 2200 30       		.byte	0x30
 20528 2201 9F       		.byte	0x9f
 20529 2202 A4010000 		.4byte	.LVL490
 20530 2206 A6010000 		.4byte	.LVL491
 20531 220a 0300     		.2byte	0x3
 20532 220c 08       		.byte	0x8
 20533 220d F0       		.byte	0xf0
 20534 220e 9F       		.byte	0x9f
 20535 220f 00000000 		.4byte	0
 20536 2213 00000000 		.4byte	0
 20537              	.LLST378:
 20538 2217 8A010000 		.4byte	.LVL486
 20539 221b A2010000 		.4byte	.LVL489
 20540 221f 0300     		.2byte	0x3
 20541 2221 08       		.byte	0x8
 20542 2222 4F       		.byte	0x4f
 20543 2223 9F       		.byte	0x9f
 20544 2224 A2010000 		.4byte	.LVL489
 20545 2228 A4010000 		.4byte	.LVL490
 20546 222c 0200     		.2byte	0x2
 20547 222e 32       		.byte	0x32
 20548 222f 9F       		.byte	0x9f
 20549 2230 00000000 		.4byte	0
 20550 2234 00000000 		.4byte	0
 20551              	.LLST379:
 20552 2238 96010000 		.4byte	.LVL487
 20553 223c D6010000 		.4byte	.LVL496
 20554 2240 0200     		.2byte	0x2
 20555 2242 30       		.byte	0x30
 20556 2243 9F       		.byte	0x9f
 20557 2244 00000000 		.4byte	0
 20558 2248 00000000 		.4byte	0
 20559              	.LLST381:
ARM GAS  C:\Users\legoc\AppData\Local\Temp\ccMAvaOS.s 			page 384


 20560 224c 14000000 		.4byte	.LVL497
 20561 2250 5C000000 		.4byte	.LVL507
 20562 2254 0200     		.2byte	0x2
 20563 2256 30       		.byte	0x30
 20564 2257 9F       		.byte	0x9f
 20565 2258 00000000 		.4byte	0
 20566 225c 00000000 		.4byte	0
 20567              	.LLST383:
 20568 2260 14000000 		.4byte	.LVL497
 20569 2264 5C000000 		.4byte	.LVL507
 20570 2268 0300     		.2byte	0x3
 20571 226a 08       		.byte	0x8
 20572 226b F0       		.byte	0xf0
 20573 226c 9F       		.byte	0x9f
 20574 226d 00000000 		.4byte	0
 20575 2271 00000000 		.4byte	0
 20576              	.LLST384:
 20577 2275 14000000 		.4byte	.LVL497
 20578 2279 5C000000 		.4byte	.LVL507
 20579 227d 0400     		.2byte	0x4
 20580 227f 0A       		.byte	0xa
 20581 2280 4001     		.2byte	0x140
 20582 2282 9F       		.byte	0x9f
 20583 2283 00000000 		.4byte	0
 20584 2287 00000000 		.4byte	0
 20585              	.LLST392:
 20586 228b 14000000 		.4byte	.LVL497
 20587 228f 28000000 		.4byte	.LVL501
 20588 2293 0200     		.2byte	0x2
 20589 2295 30       		.byte	0x30
 20590 2296 9F       		.byte	0x9f
 20591 2297 28000000 		.4byte	.LVL501
 20592 229b 2A000000 		.4byte	.LVL502
 20593 229f 0300     		.2byte	0x3
 20594 22a1 08       		.byte	0x8
 20595 22a2 F0       		.byte	0xf0
 20596 22a3 9F       		.byte	0x9f
 20597 22a4 00000000 		.4byte	0
 20598 22a8 00000000 		.4byte	0
 20599              	.LLST396:
 20600 22ac 14000000 		.4byte	.LVL497
 20601 22b0 24000000 		.4byte	.LVL500
 20602 22b4 0200     		.2byte	0x2
 20603 22b6 30       		.byte	0x30
 20604 22b7 9F       		.byte	0x9f
 20605 22b8 24000000 		.4byte	.LVL500
 20606 22bc 28000000 		.4byte	.LVL501
 20607 22c0 0400     		.2byte	0x4
 20608 22c2 0A       		.byte	0xa
 20609 22c3 4001     		.2byte	0x140
 20610 22c5 9F       		.byte	0x9f
 20611 22c6 00000000 		.4byte	0
 20612 22ca 00000000 		.4byte	0
 20613              	.LLST397:
 20614 22ce 18000000 		.4byte	.LVL498
 20615 22d2 5C000000 		.4byte	.LVL507
 20616 22d6 0200     		.2byte	0x2
ARM GAS  C:\Users\legoc\AppData\Local\Temp\ccMAvaOS.s 			page 385


 20617 22d8 30       		.byte	0x30
 20618 22d9 9F       		.byte	0x9f
 20619 22da 00000000 		.4byte	0
 20620 22de 00000000 		.4byte	0
 20621              	.LLST399:
 20622 22e2 FA000000 		.4byte	.LVL517
 20623 22e6 44010000 		.4byte	.LVL526
 20624 22ea 0200     		.2byte	0x2
 20625 22ec 30       		.byte	0x30
 20626 22ed 9F       		.byte	0x9f
 20627 22ee 00000000 		.4byte	0
 20628 22f2 00000000 		.4byte	0
 20629              	.LLST400:
 20630 22f6 FA000000 		.4byte	.LVL517
 20631 22fa 44010000 		.4byte	.LVL526
 20632 22fe 0300     		.2byte	0x3
 20633 2300 08       		.byte	0x8
 20634 2301 F0       		.byte	0xf0
 20635 2302 9F       		.byte	0x9f
 20636 2303 00000000 		.4byte	0
 20637 2307 00000000 		.4byte	0
 20638              	.LLST401:
 20639 230b FA000000 		.4byte	.LVL517
 20640 230f 44010000 		.4byte	.LVL526
 20641 2313 0200     		.2byte	0x2
 20642 2315 32       		.byte	0x32
 20643 2316 9F       		.byte	0x9f
 20644 2317 00000000 		.4byte	0
 20645 231b 00000000 		.4byte	0
 20646              	.LLST403:
 20647 231f FA000000 		.4byte	.LVL517
 20648 2323 44010000 		.4byte	.LVL526
 20649 2327 0300     		.2byte	0x3
 20650 2329 08       		.byte	0x8
 20651 232a EF       		.byte	0xef
 20652 232b 9F       		.byte	0x9f
 20653 232c 00000000 		.4byte	0
 20654 2330 00000000 		.4byte	0
 20655              	.LLST407:
 20656 2334 FA000000 		.4byte	.LVL517
 20657 2338 44010000 		.4byte	.LVL526
 20658 233c 0300     		.2byte	0x3
 20659 233e 08       		.byte	0x8
 20660 233f 4F       		.byte	0x4f
 20661 2340 9F       		.byte	0x9f
 20662 2341 00000000 		.4byte	0
 20663 2345 00000000 		.4byte	0
 20664              	.LLST409:
 20665 2349 FA000000 		.4byte	.LVL517
 20666 234d 12010000 		.4byte	.LVL520
 20667 2351 0200     		.2byte	0x2
 20668 2353 30       		.byte	0x30
 20669 2354 9F       		.byte	0x9f
 20670 2355 12010000 		.4byte	.LVL520
 20671 2359 14010000 		.4byte	.LVL521
 20672 235d 0300     		.2byte	0x3
 20673 235f 08       		.byte	0x8
ARM GAS  C:\Users\legoc\AppData\Local\Temp\ccMAvaOS.s 			page 386


 20674 2360 F0       		.byte	0xf0
 20675 2361 9F       		.byte	0x9f
 20676 2362 00000000 		.4byte	0
 20677 2366 00000000 		.4byte	0
 20678              	.LLST413:
 20679 236a FA000000 		.4byte	.LVL517
 20680 236e 12010000 		.4byte	.LVL520
 20681 2372 0300     		.2byte	0x3
 20682 2374 08       		.byte	0x8
 20683 2375 4F       		.byte	0x4f
 20684 2376 9F       		.byte	0x9f
 20685 2377 00000000 		.4byte	0
 20686 237b 00000000 		.4byte	0
 20687              	.LLST414:
 20688 237f 06010000 		.4byte	.LVL518
 20689 2383 44010000 		.4byte	.LVL526
 20690 2387 0200     		.2byte	0x2
 20691 2389 30       		.byte	0x30
 20692 238a 9F       		.byte	0x9f
 20693 238b 00000000 		.4byte	0
 20694 238f 00000000 		.4byte	0
 20695              	.LLST416:
 20696 2393 14000000 		.4byte	.LVL527
 20697 2397 5A000000 		.4byte	.LVL537
 20698 239b 0200     		.2byte	0x2
 20699 239d 30       		.byte	0x30
 20700 239e 9F       		.byte	0x9f
 20701 239f 00000000 		.4byte	0
 20702 23a3 00000000 		.4byte	0
 20703              	.LLST418:
 20704 23a7 14000000 		.4byte	.LVL527
 20705 23ab 5A000000 		.4byte	.LVL537
 20706 23af 0300     		.2byte	0x3
 20707 23b1 08       		.byte	0x8
 20708 23b2 F0       		.byte	0xf0
 20709 23b3 9F       		.byte	0x9f
 20710 23b4 00000000 		.4byte	0
 20711 23b8 00000000 		.4byte	0
 20712              	.LLST419:
 20713 23bc 14000000 		.4byte	.LVL527
 20714 23c0 5A000000 		.4byte	.LVL537
 20715 23c4 0400     		.2byte	0x4
 20716 23c6 0A       		.byte	0xa
 20717 23c7 4001     		.2byte	0x140
 20718 23c9 9F       		.byte	0x9f
 20719 23ca 00000000 		.4byte	0
 20720 23ce 00000000 		.4byte	0
 20721              	.LLST427:
 20722 23d2 14000000 		.4byte	.LVL527
 20723 23d6 28000000 		.4byte	.LVL531
 20724 23da 0200     		.2byte	0x2
 20725 23dc 30       		.byte	0x30
 20726 23dd 9F       		.byte	0x9f
 20727 23de 28000000 		.4byte	.LVL531
 20728 23e2 2A000000 		.4byte	.LVL532
 20729 23e6 0300     		.2byte	0x3
 20730 23e8 08       		.byte	0x8
ARM GAS  C:\Users\legoc\AppData\Local\Temp\ccMAvaOS.s 			page 387


 20731 23e9 F0       		.byte	0xf0
 20732 23ea 9F       		.byte	0x9f
 20733 23eb 00000000 		.4byte	0
 20734 23ef 00000000 		.4byte	0
 20735              	.LLST431:
 20736 23f3 14000000 		.4byte	.LVL527
 20737 23f7 24000000 		.4byte	.LVL530
 20738 23fb 0200     		.2byte	0x2
 20739 23fd 30       		.byte	0x30
 20740 23fe 9F       		.byte	0x9f
 20741 23ff 24000000 		.4byte	.LVL530
 20742 2403 28000000 		.4byte	.LVL531
 20743 2407 0400     		.2byte	0x4
 20744 2409 0A       		.byte	0xa
 20745 240a 4001     		.2byte	0x140
 20746 240c 9F       		.byte	0x9f
 20747 240d 00000000 		.4byte	0
 20748 2411 00000000 		.4byte	0
 20749              	.LLST432:
 20750 2415 18000000 		.4byte	.LVL528
 20751 2419 5A000000 		.4byte	.LVL537
 20752 241d 0200     		.2byte	0x2
 20753 241f 30       		.byte	0x30
 20754 2420 9F       		.byte	0x9f
 20755 2421 00000000 		.4byte	0
 20756 2425 00000000 		.4byte	0
 20757              	.LLST434:
 20758 2429 C6000000 		.4byte	.LVL542
 20759 242d 12010000 		.4byte	.LVL552
 20760 2431 0200     		.2byte	0x2
 20761 2433 30       		.byte	0x30
 20762 2434 9F       		.byte	0x9f
 20763 2435 00000000 		.4byte	0
 20764 2439 00000000 		.4byte	0
 20765              	.LLST435:
 20766 243d C6000000 		.4byte	.LVL542
 20767 2441 12010000 		.4byte	.LVL552
 20768 2445 0300     		.2byte	0x3
 20769 2447 08       		.byte	0x8
 20770 2448 F0       		.byte	0xf0
 20771 2449 9F       		.byte	0x9f
 20772 244a 00000000 		.4byte	0
 20773 244e 00000000 		.4byte	0
 20774              	.LLST436:
 20775 2452 C6000000 		.4byte	.LVL542
 20776 2456 12010000 		.4byte	.LVL552
 20777 245a 0200     		.2byte	0x2
 20778 245c 32       		.byte	0x32
 20779 245d 9F       		.byte	0x9f
 20780 245e 00000000 		.4byte	0
 20781 2462 00000000 		.4byte	0
 20782              	.LLST438:
 20783 2466 C6000000 		.4byte	.LVL542
 20784 246a 12010000 		.4byte	.LVL552
 20785 246e 0300     		.2byte	0x3
 20786 2470 08       		.byte	0x8
 20787 2471 EF       		.byte	0xef
ARM GAS  C:\Users\legoc\AppData\Local\Temp\ccMAvaOS.s 			page 388


 20788 2472 9F       		.byte	0x9f
 20789 2473 00000000 		.4byte	0
 20790 2477 00000000 		.4byte	0
 20791              	.LLST442:
 20792 247b C6000000 		.4byte	.LVL542
 20793 247f 12010000 		.4byte	.LVL552
 20794 2483 0300     		.2byte	0x3
 20795 2485 08       		.byte	0x8
 20796 2486 4F       		.byte	0x4f
 20797 2487 9F       		.byte	0x9f
 20798 2488 00000000 		.4byte	0
 20799 248c 00000000 		.4byte	0
 20800              	.LLST444:
 20801 2490 C6000000 		.4byte	.LVL542
 20802 2494 E0000000 		.4byte	.LVL546
 20803 2498 0200     		.2byte	0x2
 20804 249a 30       		.byte	0x30
 20805 249b 9F       		.byte	0x9f
 20806 249c E0000000 		.4byte	.LVL546
 20807 24a0 E2000000 		.4byte	.LVL547
 20808 24a4 0300     		.2byte	0x3
 20809 24a6 08       		.byte	0x8
 20810 24a7 F0       		.byte	0xf0
 20811 24a8 9F       		.byte	0x9f
 20812 24a9 00000000 		.4byte	0
 20813 24ad 00000000 		.4byte	0
 20814              	.LLST448:
 20815 24b1 C6000000 		.4byte	.LVL542
 20816 24b5 DE000000 		.4byte	.LVL545
 20817 24b9 0300     		.2byte	0x3
 20818 24bb 08       		.byte	0x8
 20819 24bc 4F       		.byte	0x4f
 20820 24bd 9F       		.byte	0x9f
 20821 24be DE000000 		.4byte	.LVL545
 20822 24c2 E0000000 		.4byte	.LVL546
 20823 24c6 0200     		.2byte	0x2
 20824 24c8 32       		.byte	0x32
 20825 24c9 9F       		.byte	0x9f
 20826 24ca 00000000 		.4byte	0
 20827 24ce 00000000 		.4byte	0
 20828              	.LLST449:
 20829 24d2 D2000000 		.4byte	.LVL543
 20830 24d6 12010000 		.4byte	.LVL552
 20831 24da 0200     		.2byte	0x2
 20832 24dc 30       		.byte	0x30
 20833 24dd 9F       		.byte	0x9f
 20834 24de 00000000 		.4byte	0
 20835 24e2 00000000 		.4byte	0
 20836              	.LLST451:
 20837 24e6 14000000 		.4byte	.LVL556
 20838 24ea 5C000000 		.4byte	.LVL566
 20839 24ee 0200     		.2byte	0x2
 20840 24f0 30       		.byte	0x30
 20841 24f1 9F       		.byte	0x9f
 20842 24f2 00000000 		.4byte	0
 20843 24f6 00000000 		.4byte	0
 20844              	.LLST453:
ARM GAS  C:\Users\legoc\AppData\Local\Temp\ccMAvaOS.s 			page 389


 20845 24fa 14000000 		.4byte	.LVL556
 20846 24fe 5C000000 		.4byte	.LVL566
 20847 2502 0300     		.2byte	0x3
 20848 2504 08       		.byte	0x8
 20849 2505 F0       		.byte	0xf0
 20850 2506 9F       		.byte	0x9f
 20851 2507 00000000 		.4byte	0
 20852 250b 00000000 		.4byte	0
 20853              	.LLST454:
 20854 250f 14000000 		.4byte	.LVL556
 20855 2513 5C000000 		.4byte	.LVL566
 20856 2517 0400     		.2byte	0x4
 20857 2519 0A       		.byte	0xa
 20858 251a 4001     		.2byte	0x140
 20859 251c 9F       		.byte	0x9f
 20860 251d 00000000 		.4byte	0
 20861 2521 00000000 		.4byte	0
 20862              	.LLST462:
 20863 2525 14000000 		.4byte	.LVL556
 20864 2529 28000000 		.4byte	.LVL560
 20865 252d 0200     		.2byte	0x2
 20866 252f 30       		.byte	0x30
 20867 2530 9F       		.byte	0x9f
 20868 2531 28000000 		.4byte	.LVL560
 20869 2535 2A000000 		.4byte	.LVL561
 20870 2539 0300     		.2byte	0x3
 20871 253b 08       		.byte	0x8
 20872 253c F0       		.byte	0xf0
 20873 253d 9F       		.byte	0x9f
 20874 253e 00000000 		.4byte	0
 20875 2542 00000000 		.4byte	0
 20876              	.LLST466:
 20877 2546 14000000 		.4byte	.LVL556
 20878 254a 24000000 		.4byte	.LVL559
 20879 254e 0200     		.2byte	0x2
 20880 2550 30       		.byte	0x30
 20881 2551 9F       		.byte	0x9f
 20882 2552 24000000 		.4byte	.LVL559
 20883 2556 28000000 		.4byte	.LVL560
 20884 255a 0400     		.2byte	0x4
 20885 255c 0A       		.byte	0xa
 20886 255d 4001     		.2byte	0x140
 20887 255f 9F       		.byte	0x9f
 20888 2560 00000000 		.4byte	0
 20889 2564 00000000 		.4byte	0
 20890              	.LLST467:
 20891 2568 18000000 		.4byte	.LVL557
 20892 256c 5C000000 		.4byte	.LVL566
 20893 2570 0200     		.2byte	0x2
 20894 2572 30       		.byte	0x30
 20895 2573 9F       		.byte	0x9f
 20896 2574 00000000 		.4byte	0
 20897 2578 00000000 		.4byte	0
 20898              	.LLST469:
 20899 257c BA000000 		.4byte	.LVL572
 20900 2580 06010000 		.4byte	.LVL582
 20901 2584 0200     		.2byte	0x2
ARM GAS  C:\Users\legoc\AppData\Local\Temp\ccMAvaOS.s 			page 390


 20902 2586 30       		.byte	0x30
 20903 2587 9F       		.byte	0x9f
 20904 2588 00000000 		.4byte	0
 20905 258c 00000000 		.4byte	0
 20906              	.LLST470:
 20907 2590 BA000000 		.4byte	.LVL572
 20908 2594 06010000 		.4byte	.LVL582
 20909 2598 0300     		.2byte	0x3
 20910 259a 08       		.byte	0x8
 20911 259b F0       		.byte	0xf0
 20912 259c 9F       		.byte	0x9f
 20913 259d 00000000 		.4byte	0
 20914 25a1 00000000 		.4byte	0
 20915              	.LLST471:
 20916 25a5 BA000000 		.4byte	.LVL572
 20917 25a9 06010000 		.4byte	.LVL582
 20918 25ad 0200     		.2byte	0x2
 20919 25af 32       		.byte	0x32
 20920 25b0 9F       		.byte	0x9f
 20921 25b1 00000000 		.4byte	0
 20922 25b5 00000000 		.4byte	0
 20923              	.LLST473:
 20924 25b9 BA000000 		.4byte	.LVL572
 20925 25bd 06010000 		.4byte	.LVL582
 20926 25c1 0300     		.2byte	0x3
 20927 25c3 08       		.byte	0x8
 20928 25c4 EF       		.byte	0xef
 20929 25c5 9F       		.byte	0x9f
 20930 25c6 00000000 		.4byte	0
 20931 25ca 00000000 		.4byte	0
 20932              	.LLST477:
 20933 25ce BA000000 		.4byte	.LVL572
 20934 25d2 06010000 		.4byte	.LVL582
 20935 25d6 0300     		.2byte	0x3
 20936 25d8 08       		.byte	0x8
 20937 25d9 4F       		.byte	0x4f
 20938 25da 9F       		.byte	0x9f
 20939 25db 00000000 		.4byte	0
 20940 25df 00000000 		.4byte	0
 20941              	.LLST479:
 20942 25e3 BA000000 		.4byte	.LVL572
 20943 25e7 D4000000 		.4byte	.LVL576
 20944 25eb 0200     		.2byte	0x2
 20945 25ed 30       		.byte	0x30
 20946 25ee 9F       		.byte	0x9f
 20947 25ef D4000000 		.4byte	.LVL576
 20948 25f3 D6000000 		.4byte	.LVL577
 20949 25f7 0300     		.2byte	0x3
 20950 25f9 08       		.byte	0x8
 20951 25fa F0       		.byte	0xf0
 20952 25fb 9F       		.byte	0x9f
 20953 25fc 00000000 		.4byte	0
 20954 2600 00000000 		.4byte	0
 20955              	.LLST483:
 20956 2604 BA000000 		.4byte	.LVL572
 20957 2608 D2000000 		.4byte	.LVL575
 20958 260c 0300     		.2byte	0x3
ARM GAS  C:\Users\legoc\AppData\Local\Temp\ccMAvaOS.s 			page 391


 20959 260e 08       		.byte	0x8
 20960 260f 4F       		.byte	0x4f
 20961 2610 9F       		.byte	0x9f
 20962 2611 D2000000 		.4byte	.LVL575
 20963 2615 D4000000 		.4byte	.LVL576
 20964 2619 0200     		.2byte	0x2
 20965 261b 32       		.byte	0x32
 20966 261c 9F       		.byte	0x9f
 20967 261d 00000000 		.4byte	0
 20968 2621 00000000 		.4byte	0
 20969              	.LLST484:
 20970 2625 C6000000 		.4byte	.LVL573
 20971 2629 06010000 		.4byte	.LVL582
 20972 262d 0200     		.2byte	0x2
 20973 262f 30       		.byte	0x30
 20974 2630 9F       		.byte	0x9f
 20975 2631 00000000 		.4byte	0
 20976 2635 00000000 		.4byte	0
 20977              	.LLST486:
 20978 2639 14000000 		.4byte	.LVL583
 20979 263d 5C000000 		.4byte	.LVL593
 20980 2641 0200     		.2byte	0x2
 20981 2643 30       		.byte	0x30
 20982 2644 9F       		.byte	0x9f
 20983 2645 00000000 		.4byte	0
 20984 2649 00000000 		.4byte	0
 20985              	.LLST488:
 20986 264d 14000000 		.4byte	.LVL583
 20987 2651 5C000000 		.4byte	.LVL593
 20988 2655 0300     		.2byte	0x3
 20989 2657 08       		.byte	0x8
 20990 2658 F0       		.byte	0xf0
 20991 2659 9F       		.byte	0x9f
 20992 265a 00000000 		.4byte	0
 20993 265e 00000000 		.4byte	0
 20994              	.LLST489:
 20995 2662 14000000 		.4byte	.LVL583
 20996 2666 5C000000 		.4byte	.LVL593
 20997 266a 0400     		.2byte	0x4
 20998 266c 0A       		.byte	0xa
 20999 266d 4001     		.2byte	0x140
 21000 266f 9F       		.byte	0x9f
 21001 2670 00000000 		.4byte	0
 21002 2674 00000000 		.4byte	0
 21003              	.LLST497:
 21004 2678 14000000 		.4byte	.LVL583
 21005 267c 28000000 		.4byte	.LVL587
 21006 2680 0200     		.2byte	0x2
 21007 2682 30       		.byte	0x30
 21008 2683 9F       		.byte	0x9f
 21009 2684 28000000 		.4byte	.LVL587
 21010 2688 2A000000 		.4byte	.LVL588
 21011 268c 0300     		.2byte	0x3
 21012 268e 08       		.byte	0x8
 21013 268f F0       		.byte	0xf0
 21014 2690 9F       		.byte	0x9f
 21015 2691 00000000 		.4byte	0
ARM GAS  C:\Users\legoc\AppData\Local\Temp\ccMAvaOS.s 			page 392


 21016 2695 00000000 		.4byte	0
 21017              	.LLST501:
 21018 2699 14000000 		.4byte	.LVL583
 21019 269d 24000000 		.4byte	.LVL586
 21020 26a1 0200     		.2byte	0x2
 21021 26a3 30       		.byte	0x30
 21022 26a4 9F       		.byte	0x9f
 21023 26a5 24000000 		.4byte	.LVL586
 21024 26a9 28000000 		.4byte	.LVL587
 21025 26ad 0400     		.2byte	0x4
 21026 26af 0A       		.byte	0xa
 21027 26b0 4001     		.2byte	0x140
 21028 26b2 9F       		.byte	0x9f
 21029 26b3 00000000 		.4byte	0
 21030 26b7 00000000 		.4byte	0
 21031              	.LLST502:
 21032 26bb 18000000 		.4byte	.LVL584
 21033 26bf 5C000000 		.4byte	.LVL593
 21034 26c3 0200     		.2byte	0x2
 21035 26c5 30       		.byte	0x30
 21036 26c6 9F       		.byte	0x9f
 21037 26c7 00000000 		.4byte	0
 21038 26cb 00000000 		.4byte	0
 21039              	.LLST504:
 21040 26cf 7C000000 		.4byte	.LVL595
 21041 26d3 96000000 		.4byte	.LVL599
 21042 26d7 0200     		.2byte	0x2
 21043 26d9 30       		.byte	0x30
 21044 26da 9F       		.byte	0x9f
 21045 26db 96000000 		.4byte	.LVL599
 21046 26df 98000000 		.4byte	.LVL600
 21047 26e3 0300     		.2byte	0x3
 21048 26e5 08       		.byte	0x8
 21049 26e6 F0       		.byte	0xf0
 21050 26e7 9F       		.byte	0x9f
 21051 26e8 00000000 		.4byte	0
 21052 26ec 00000000 		.4byte	0
 21053              	.LLST505:
 21054 26f0 7C000000 		.4byte	.LVL595
 21055 26f4 94000000 		.4byte	.LVL598
 21056 26f8 0300     		.2byte	0x3
 21057 26fa 08       		.byte	0x8
 21058 26fb 4F       		.byte	0x4f
 21059 26fc 9F       		.byte	0x9f
 21060 26fd 94000000 		.4byte	.LVL598
 21061 2701 96000000 		.4byte	.LVL599
 21062 2705 0200     		.2byte	0x2
 21063 2707 32       		.byte	0x32
 21064 2708 9F       		.byte	0x9f
 21065 2709 00000000 		.4byte	0
 21066 270d 00000000 		.4byte	0
 21067              	.LLST506:
 21068 2711 00000000 		.4byte	.LVL606
 21069 2715 14000000 		.4byte	.LVL608
 21070 2719 0100     		.2byte	0x1
 21071 271b 50       		.byte	0x50
 21072 271c 14000000 		.4byte	.LVL608
ARM GAS  C:\Users\legoc\AppData\Local\Temp\ccMAvaOS.s 			page 393


 21073 2720 F4000000 		.4byte	.LFE22
 21074 2724 0400     		.2byte	0x4
 21075 2726 F3       		.byte	0xf3
 21076 2727 01       		.uleb128 0x1
 21077 2728 50       		.byte	0x50
 21078 2729 9F       		.byte	0x9f
 21079 272a 00000000 		.4byte	0
 21080 272e 00000000 		.4byte	0
 21081              	.LLST507:
 21082 2732 00000000 		.4byte	.LVL606
 21083 2736 08000000 		.4byte	.LVL607
 21084 273a 0100     		.2byte	0x1
 21085 273c 51       		.byte	0x51
 21086 273d 08000000 		.4byte	.LVL607
 21087 2741 F4000000 		.4byte	.LFE22
 21088 2745 0400     		.2byte	0x4
 21089 2747 F3       		.byte	0xf3
 21090 2748 01       		.uleb128 0x1
 21091 2749 51       		.byte	0x51
 21092 274a 9F       		.byte	0x9f
 21093 274b 00000000 		.4byte	0
 21094 274f 00000000 		.4byte	0
 21095              	.LLST508:
 21096 2753 00000000 		.4byte	.LVL606
 21097 2757 5C000000 		.4byte	.LVL618
 21098 275b 0200     		.2byte	0x2
 21099 275d 30       		.byte	0x30
 21100 275e 9F       		.byte	0x9f
 21101 275f 00000000 		.4byte	0
 21102 2763 00000000 		.4byte	0
 21103              	.LLST510:
 21104 2767 00000000 		.4byte	.LVL606
 21105 276b 5C000000 		.4byte	.LVL618
 21106 276f 0300     		.2byte	0x3
 21107 2771 08       		.byte	0x8
 21108 2772 F0       		.byte	0xf0
 21109 2773 9F       		.byte	0x9f
 21110 2774 00000000 		.4byte	0
 21111 2778 00000000 		.4byte	0
 21112              	.LLST511:
 21113 277c 00000000 		.4byte	.LVL606
 21114 2780 5C000000 		.4byte	.LVL618
 21115 2784 0400     		.2byte	0x4
 21116 2786 0A       		.byte	0xa
 21117 2787 4001     		.2byte	0x140
 21118 2789 9F       		.byte	0x9f
 21119 278a 00000000 		.4byte	0
 21120 278e 00000000 		.4byte	0
 21121              	.LLST519:
 21122 2792 00000000 		.4byte	.LVL606
 21123 2796 28000000 		.4byte	.LVL612
 21124 279a 0200     		.2byte	0x2
 21125 279c 30       		.byte	0x30
 21126 279d 9F       		.byte	0x9f
 21127 279e 28000000 		.4byte	.LVL612
 21128 27a2 2A000000 		.4byte	.LVL613
 21129 27a6 0300     		.2byte	0x3
ARM GAS  C:\Users\legoc\AppData\Local\Temp\ccMAvaOS.s 			page 394


 21130 27a8 08       		.byte	0x8
 21131 27a9 F0       		.byte	0xf0
 21132 27aa 9F       		.byte	0x9f
 21133 27ab 00000000 		.4byte	0
 21134 27af 00000000 		.4byte	0
 21135              	.LLST523:
 21136 27b3 00000000 		.4byte	.LVL606
 21137 27b7 24000000 		.4byte	.LVL611
 21138 27bb 0200     		.2byte	0x2
 21139 27bd 30       		.byte	0x30
 21140 27be 9F       		.byte	0x9f
 21141 27bf 24000000 		.4byte	.LVL611
 21142 27c3 28000000 		.4byte	.LVL612
 21143 27c7 0400     		.2byte	0x4
 21144 27c9 0A       		.byte	0xa
 21145 27ca 4001     		.2byte	0x140
 21146 27cc 9F       		.byte	0x9f
 21147 27cd 00000000 		.4byte	0
 21148 27d1 00000000 		.4byte	0
 21149              	.LLST524:
 21150 27d5 18000000 		.4byte	.LVL609
 21151 27d9 5C000000 		.4byte	.LVL618
 21152 27dd 0200     		.2byte	0x2
 21153 27df 30       		.byte	0x30
 21154 27e0 9F       		.byte	0x9f
 21155 27e1 00000000 		.4byte	0
 21156 27e5 00000000 		.4byte	0
 21157              		.section	.debug_aranges,"",%progbits
 21158 0000 CC000000 		.4byte	0xcc
 21159 0004 0200     		.2byte	0x2
 21160 0006 00000000 		.4byte	.Ldebug_info0
 21161 000a 04       		.byte	0x4
 21162 000b 00       		.byte	0
 21163 000c 0000     		.2byte	0
 21164 000e 0000     		.2byte	0
 21165 0010 00000000 		.4byte	.LFB1
 21166 0014 22000000 		.4byte	.LFE1-.LFB1
 21167 0018 00000000 		.4byte	.LFB2
 21168 001c 22000000 		.4byte	.LFE2-.LFB2
 21169 0020 00000000 		.4byte	.LFB3
 21170 0024 FE000000 		.4byte	.LFE3-.LFB3
 21171 0028 00000000 		.4byte	.LFB28
 21172 002c 0C020000 		.4byte	.LFE28-.LFB28
 21173 0030 00000000 		.4byte	.LFB4
 21174 0034 A6000000 		.4byte	.LFE4-.LFB4
 21175 0038 00000000 		.4byte	.LFB5
 21176 003c BE000000 		.4byte	.LFE5-.LFB5
 21177 0040 00000000 		.4byte	.LFB6
 21178 0044 5C000000 		.4byte	.LFE6-.LFB6
 21179 0048 00000000 		.4byte	.LFB7
 21180 004c 88000000 		.4byte	.LFE7-.LFB7
 21181 0050 00000000 		.4byte	.LFB8
 21182 0054 4C000000 		.4byte	.LFE8-.LFB8
 21183 0058 00000000 		.4byte	.LFB9
 21184 005c 58000000 		.4byte	.LFE9-.LFB9
 21185 0060 00000000 		.4byte	.LFB10
 21186 0064 64010000 		.4byte	.LFE10-.LFB10
ARM GAS  C:\Users\legoc\AppData\Local\Temp\ccMAvaOS.s 			page 395


 21187 0068 00000000 		.4byte	.LFB11
 21188 006c 18000000 		.4byte	.LFE11-.LFB11
 21189 0070 00000000 		.4byte	.LFB12
 21190 0074 16000000 		.4byte	.LFE12-.LFB12
 21191 0078 00000000 		.4byte	.LFB13
 21192 007c 5A000000 		.4byte	.LFE13-.LFB13
 21193 0080 00000000 		.4byte	.LFB14
 21194 0084 34020000 		.4byte	.LFE14-.LFB14
 21195 0088 00000000 		.4byte	.LFB15
 21196 008c D8010000 		.4byte	.LFE15-.LFB15
 21197 0090 00000000 		.4byte	.LFB16
 21198 0094 18020000 		.4byte	.LFE16-.LFB16
 21199 0098 00000000 		.4byte	.LFB17
 21200 009c F8010000 		.4byte	.LFE17-.LFB17
 21201 00a0 00000000 		.4byte	.LFB18
 21202 00a4 70010000 		.4byte	.LFE18-.LFB18
 21203 00a8 00000000 		.4byte	.LFB19
 21204 00ac 78010000 		.4byte	.LFE19-.LFB19
 21205 00b0 00000000 		.4byte	.LFB20
 21206 00b4 24010000 		.4byte	.LFE20-.LFB20
 21207 00b8 00000000 		.4byte	.LFB21
 21208 00bc DC000000 		.4byte	.LFE21-.LFB21
 21209 00c0 00000000 		.4byte	.LFB22
 21210 00c4 F4000000 		.4byte	.LFE22-.LFB22
 21211 00c8 00000000 		.4byte	0
 21212 00cc 00000000 		.4byte	0
 21213              		.section	.debug_ranges,"",%progbits
 21214              	.Ldebug_ranges0:
 21215 0000 0C000000 		.4byte	.LBB124
 21216 0004 0E000000 		.4byte	.LBE124
 21217 0008 16000000 		.4byte	.LBB127
 21218 000c 30000000 		.4byte	.LBE127
 21219 0010 00000000 		.4byte	0
 21220 0014 00000000 		.4byte	0
 21221 0018 0A000000 		.4byte	.LBB143
 21222 001c 0C000000 		.4byte	.LBE143
 21223 0020 1A000000 		.4byte	.LBB158
 21224 0024 30000000 		.4byte	.LBE158
 21225 0028 32000000 		.4byte	.LBB159
 21226 002c 48000000 		.4byte	.LBE159
 21227 0030 6A010000 		.4byte	.LBB164
 21228 0034 E0010000 		.4byte	.LBE164
 21229 0038 00000000 		.4byte	0
 21230 003c 00000000 		.4byte	0
 21231 0040 28000000 		.4byte	.LBB145
 21232 0044 30000000 		.4byte	.LBE145
 21233 0048 32000000 		.4byte	.LBB152
 21234 004c 36000000 		.4byte	.LBE152
 21235 0050 40000000 		.4byte	.LBB153
 21236 0054 48000000 		.4byte	.LBE153
 21237 0058 6A010000 		.4byte	.LBB154
 21238 005c E0010000 		.4byte	.LBE154
 21239 0060 00000000 		.4byte	0
 21240 0064 00000000 		.4byte	0
 21241 0068 DE000000 		.4byte	.LBB161
 21242 006c E0000000 		.4byte	.LBE161
 21243 0070 F2000000 		.4byte	.LBB162
ARM GAS  C:\Users\legoc\AppData\Local\Temp\ccMAvaOS.s 			page 396


 21244 0074 00010000 		.4byte	.LBE162
 21245 0078 00000000 		.4byte	0
 21246 007c 00000000 		.4byte	0
 21247 0080 16000000 		.4byte	.LBB168
 21248 0084 9A000000 		.4byte	.LBE168
 21249 0088 9E000000 		.4byte	.LBB171
 21250 008c A6000000 		.4byte	.LBE171
 21251 0090 00000000 		.4byte	0
 21252 0094 00000000 		.4byte	0
 21253 0098 1C000000 		.4byte	.LBB178
 21254 009c 22000000 		.4byte	.LBE178
 21255 00a0 26000000 		.4byte	.LBB187
 21256 00a4 2A000000 		.4byte	.LBE187
 21257 00a8 34000000 		.4byte	.LBB188
 21258 00ac B6000000 		.4byte	.LBE188
 21259 00b0 BA000000 		.4byte	.LBB189
 21260 00b4 BE000000 		.4byte	.LBE189
 21261 00b8 00000000 		.4byte	0
 21262 00bc 00000000 		.4byte	0
 21263 00c0 3E000000 		.4byte	.LBB180
 21264 00c4 B6000000 		.4byte	.LBE180
 21265 00c8 BA000000 		.4byte	.LBB183
 21266 00cc BE000000 		.4byte	.LBE183
 21267 00d0 00000000 		.4byte	0
 21268 00d4 00000000 		.4byte	0
 21269 00d8 00000000 		.4byte	.LBB195
 21270 00dc 02000000 		.4byte	.LBE195
 21271 00e0 04000000 		.4byte	.LBB216
 21272 00e4 06000000 		.4byte	.LBE216
 21273 00e8 08000000 		.4byte	.LBB217
 21274 00ec 26000000 		.4byte	.LBE217
 21275 00f0 28000000 		.4byte	.LBB218
 21276 00f4 54000000 		.4byte	.LBE218
 21277 00f8 58000000 		.4byte	.LBB219
 21278 00fc 5C000000 		.4byte	.LBE219
 21279 0100 00000000 		.4byte	0
 21280 0104 00000000 		.4byte	0
 21281 0108 36000000 		.4byte	.LBB230
 21282 010c 44000000 		.4byte	.LBE230
 21283 0110 48000000 		.4byte	.LBB233
 21284 0114 4C000000 		.4byte	.LBE233
 21285 0118 00000000 		.4byte	0
 21286 011c 00000000 		.4byte	0
 21287 0120 08000000 		.4byte	.LBB238
 21288 0124 0C000000 		.4byte	.LBE238
 21289 0128 14000000 		.4byte	.LBB246
 21290 012c 4E000000 		.4byte	.LBE246
 21291 0130 52000000 		.4byte	.LBB247
 21292 0134 58000000 		.4byte	.LBE247
 21293 0138 00000000 		.4byte	0
 21294 013c 00000000 		.4byte	0
 21295 0140 40000000 		.4byte	.LBB240
 21296 0144 4E000000 		.4byte	.LBE240
 21297 0148 52000000 		.4byte	.LBB243
 21298 014c 58000000 		.4byte	.LBE243
 21299 0150 00000000 		.4byte	0
 21300 0154 00000000 		.4byte	0
ARM GAS  C:\Users\legoc\AppData\Local\Temp\ccMAvaOS.s 			page 397


 21301 0158 42000000 		.4byte	.LBB264
 21302 015c 44000000 		.4byte	.LBE264
 21303 0160 46000000 		.4byte	.LBB265
 21304 0164 48000000 		.4byte	.LBE265
 21305 0168 00000000 		.4byte	0
 21306 016c 00000000 		.4byte	0
 21307 0170 76000000 		.4byte	.LBB266
 21308 0174 7C000000 		.4byte	.LBE266
 21309 0178 86000000 		.4byte	.LBB295
 21310 017c D2000000 		.4byte	.LBE295
 21311 0180 00000000 		.4byte	0
 21312 0184 00000000 		.4byte	0
 21313 0188 76000000 		.4byte	.LBB268
 21314 018c 7C000000 		.4byte	.LBE268
 21315 0190 8C000000 		.4byte	.LBB275
 21316 0194 8E000000 		.4byte	.LBE275
 21317 0198 92000000 		.4byte	.LBB276
 21318 019c 94000000 		.4byte	.LBE276
 21319 01a0 9C000000 		.4byte	.LBB277
 21320 01a4 D2000000 		.4byte	.LBE277
 21321 01a8 00000000 		.4byte	0
 21322 01ac 00000000 		.4byte	0
 21323 01b0 7C000000 		.4byte	.LBB279
 21324 01b4 82000000 		.4byte	.LBE279
 21325 01b8 D2000000 		.4byte	.LBB296
 21326 01bc D6000000 		.4byte	.LBE296
 21327 01c0 F4000000 		.4byte	.LBB297
 21328 01c4 3C010000 		.4byte	.LBE297
 21329 01c8 00000000 		.4byte	0
 21330 01cc 00000000 		.4byte	0
 21331 01d0 7C000000 		.4byte	.LBB281
 21332 01d4 82000000 		.4byte	.LBE281
 21333 01d8 D2000000 		.4byte	.LBB291
 21334 01dc D6000000 		.4byte	.LBE291
 21335 01e0 FE000000 		.4byte	.LBB292
 21336 01e4 3C010000 		.4byte	.LBE292
 21337 01e8 00000000 		.4byte	0
 21338 01ec 00000000 		.4byte	0
 21339 01f0 7C000000 		.4byte	.LBB283
 21340 01f4 82000000 		.4byte	.LBE283
 21341 01f8 D2000000 		.4byte	.LBB287
 21342 01fc D6000000 		.4byte	.LBE287
 21343 0200 2C010000 		.4byte	.LBB288
 21344 0204 3C010000 		.4byte	.LBE288
 21345 0208 00000000 		.4byte	0
 21346 020c 00000000 		.4byte	0
 21347 0210 58010000 		.4byte	.LBB298
 21348 0214 5A010000 		.4byte	.LBE298
 21349 0218 5C010000 		.4byte	.LBB300
 21350 021c 5E010000 		.4byte	.LBE300
 21351 0220 00000000 		.4byte	0
 21352 0224 00000000 		.4byte	0
 21353 0228 5A010000 		.4byte	.LBB299
 21354 022c 5C010000 		.4byte	.LBE299
 21355 0230 60010000 		.4byte	.LBB301
 21356 0234 64010000 		.4byte	.LBE301
 21357 0238 00000000 		.4byte	0
ARM GAS  C:\Users\legoc\AppData\Local\Temp\ccMAvaOS.s 			page 398


 21358 023c 00000000 		.4byte	0
 21359 0240 2A000000 		.4byte	.LBB313
 21360 0244 36000000 		.4byte	.LBE313
 21361 0248 3A000000 		.4byte	.LBB316
 21362 024c 3E000000 		.4byte	.LBE316
 21363 0250 00000000 		.4byte	0
 21364 0254 00000000 		.4byte	0
 21365 0258 3E000000 		.4byte	.LBB317
 21366 025c 52000000 		.4byte	.LBE317
 21367 0260 56000000 		.4byte	.LBB324
 21368 0264 5A000000 		.4byte	.LBE324
 21369 0268 00000000 		.4byte	0
 21370 026c 00000000 		.4byte	0
 21371 0270 46000000 		.4byte	.LBB319
 21372 0274 52000000 		.4byte	.LBE319
 21373 0278 56000000 		.4byte	.LBB322
 21374 027c 5A000000 		.4byte	.LBE322
 21375 0280 00000000 		.4byte	0
 21376 0284 00000000 		.4byte	0
 21377 0288 14000000 		.4byte	.LBB336
 21378 028c 1E000000 		.4byte	.LBE336
 21379 0290 22000000 		.4byte	.LBB353
 21380 0294 26000000 		.4byte	.LBE353
 21381 0298 2A000000 		.4byte	.LBB354
 21382 029c 2E000000 		.4byte	.LBE354
 21383 02a0 34000000 		.4byte	.LBB355
 21384 02a4 36000000 		.4byte	.LBE355
 21385 02a8 3C000000 		.4byte	.LBB356
 21386 02ac 54000000 		.4byte	.LBE356
 21387 02b0 80010000 		.4byte	.LBB361
 21388 02b4 08020000 		.4byte	.LBE361
 21389 02b8 00000000 		.4byte	0
 21390 02bc 00000000 		.4byte	0
 21391 02c0 34000000 		.4byte	.LBB338
 21392 02c4 36000000 		.4byte	.LBE338
 21393 02c8 3C000000 		.4byte	.LBB345
 21394 02cc 40000000 		.4byte	.LBE345
 21395 02d0 4C000000 		.4byte	.LBB346
 21396 02d4 54000000 		.4byte	.LBE346
 21397 02d8 80010000 		.4byte	.LBB347
 21398 02dc 08020000 		.4byte	.LBE347
 21399 02e0 00000000 		.4byte	0
 21400 02e4 00000000 		.4byte	0
 21401 02e8 F8000000 		.4byte	.LBB358
 21402 02ec FC000000 		.4byte	.LBE358
 21403 02f0 0E010000 		.4byte	.LBB359
 21404 02f4 1C010000 		.4byte	.LBE359
 21405 02f8 00000000 		.4byte	0
 21406 02fc 00000000 		.4byte	0
 21407 0300 06000000 		.4byte	.LBB425
 21408 0304 08000000 		.4byte	.LBE425
 21409 0308 0A000000 		.4byte	.LBB446
 21410 030c 10000000 		.4byte	.LBE446
 21411 0310 12000000 		.4byte	.LBB447
 21412 0314 28000000 		.4byte	.LBE447
 21413 0318 2A000000 		.4byte	.LBB448
 21414 031c 5C000000 		.4byte	.LBE448
ARM GAS  C:\Users\legoc\AppData\Local\Temp\ccMAvaOS.s 			page 399


 21415 0320 00000000 		.4byte	0
 21416 0324 00000000 		.4byte	0
 21417 0328 72000000 		.4byte	.LBB449
 21418 032c 7C000000 		.4byte	.LBE449
 21419 0330 7E000000 		.4byte	.LBB454
 21420 0334 86000000 		.4byte	.LBE454
 21421 0338 00000000 		.4byte	0
 21422 033c 00000000 		.4byte	0
 21423 0340 A6000000 		.4byte	.LBB459
 21424 0344 A8000000 		.4byte	.LBE459
 21425 0348 AA000000 		.4byte	.LBB460
 21426 034c C4000000 		.4byte	.LBE460
 21427 0350 00000000 		.4byte	0
 21428 0354 00000000 		.4byte	0
 21429 0358 C8000000 		.4byte	.LBB461
 21430 035c DA000000 		.4byte	.LBE461
 21431 0360 DC000000 		.4byte	.LBB468
 21432 0364 0C010000 		.4byte	.LBE468
 21433 0368 00000000 		.4byte	0
 21434 036c 00000000 		.4byte	0
 21435 0370 C8000000 		.4byte	.LBB462
 21436 0374 DA000000 		.4byte	.LBE462
 21437 0378 E8000000 		.4byte	.LBB467
 21438 037c F6000000 		.4byte	.LBE467
 21439 0380 00000000 		.4byte	0
 21440 0384 00000000 		.4byte	0
 21441 0388 1A010000 		.4byte	.LBB469
 21442 038c 2A010000 		.4byte	.LBE469
 21443 0390 2C010000 		.4byte	.LBB478
 21444 0394 54010000 		.4byte	.LBE478
 21445 0398 56010000 		.4byte	.LBB479
 21446 039c 5C010000 		.4byte	.LBE479
 21447 03a0 00000000 		.4byte	0
 21448 03a4 00000000 		.4byte	0
 21449 03a8 1A010000 		.4byte	.LBB470
 21450 03ac 2A010000 		.4byte	.LBE470
 21451 03b0 38010000 		.4byte	.LBB477
 21452 03b4 46010000 		.4byte	.LBE477
 21453 03b8 00000000 		.4byte	0
 21454 03bc 00000000 		.4byte	0
 21455 03c0 02000000 		.4byte	.LBB506
 21456 03c4 04000000 		.4byte	.LBE506
 21457 03c8 0A000000 		.4byte	.LBB527
 21458 03cc 10000000 		.4byte	.LBE527
 21459 03d0 12000000 		.4byte	.LBB528
 21460 03d4 24000000 		.4byte	.LBE528
 21461 03d8 26000000 		.4byte	.LBB529
 21462 03dc 58000000 		.4byte	.LBE529
 21463 03e0 72000000 		.4byte	.LBB543
 21464 03e4 74000000 		.4byte	.LBE543
 21465 03e8 00000000 		.4byte	0
 21466 03ec 00000000 		.4byte	0
 21467 03f0 58000000 		.4byte	.LBB530
 21468 03f4 72000000 		.4byte	.LBE530
 21469 03f8 74000000 		.4byte	.LBB544
 21470 03fc A6000000 		.4byte	.LBE544
 21471 0400 C0000000 		.4byte	.LBB558
ARM GAS  C:\Users\legoc\AppData\Local\Temp\ccMAvaOS.s 			page 400


 21472 0404 C2000000 		.4byte	.LBE558
 21473 0408 00000000 		.4byte	0
 21474 040c 00000000 		.4byte	0
 21475 0410 A6000000 		.4byte	.LBB545
 21476 0414 C0000000 		.4byte	.LBE545
 21477 0418 C2000000 		.4byte	.LBB559
 21478 041c F4000000 		.4byte	.LBE559
 21479 0420 12010000 		.4byte	.LBB573
 21480 0424 14010000 		.4byte	.LBE573
 21481 0428 00000000 		.4byte	0
 21482 042c 00000000 		.4byte	0
 21483 0430 F4000000 		.4byte	.LBB560
 21484 0434 12010000 		.4byte	.LBE560
 21485 0438 14010000 		.4byte	.LBB574
 21486 043c 46010000 		.4byte	.LBE574
 21487 0440 60010000 		.4byte	.LBB588
 21488 0444 62010000 		.4byte	.LBE588
 21489 0448 00000000 		.4byte	0
 21490 044c 00000000 		.4byte	0
 21491 0450 46010000 		.4byte	.LBB575
 21492 0454 60010000 		.4byte	.LBE575
 21493 0458 62010000 		.4byte	.LBB589
 21494 045c 8E010000 		.4byte	.LBE589
 21495 0460 96010000 		.4byte	.LBB590
 21496 0464 9A010000 		.4byte	.LBE590
 21497 0468 00000000 		.4byte	0
 21498 046c 00000000 		.4byte	0
 21499 0470 EA000000 		.4byte	.LBB606
 21500 0474 04010000 		.4byte	.LBE606
 21501 0478 06010000 		.4byte	.LBB619
 21502 047c 38010000 		.4byte	.LBE619
 21503 0480 56010000 		.4byte	.LBB633
 21504 0484 58010000 		.4byte	.LBE633
 21505 0488 00000000 		.4byte	0
 21506 048c 00000000 		.4byte	0
 21507 0490 38010000 		.4byte	.LBB620
 21508 0494 56010000 		.4byte	.LBE620
 21509 0498 58010000 		.4byte	.LBB634
 21510 049c 8A010000 		.4byte	.LBE634
 21511 04a0 A4010000 		.4byte	.LBB644
 21512 04a4 A6010000 		.4byte	.LBE644
 21513 04a8 00000000 		.4byte	0
 21514 04ac 00000000 		.4byte	0
 21515 04b0 8A010000 		.4byte	.LBB635
 21516 04b4 A4010000 		.4byte	.LBE635
 21517 04b8 A6010000 		.4byte	.LBB645
 21518 04bc D6010000 		.4byte	.LBE645
 21519 04c0 00000000 		.4byte	0
 21520 04c4 00000000 		.4byte	0
 21521 04c8 02000000 		.4byte	.LBB657
 21522 04cc 04000000 		.4byte	.LBE657
 21523 04d0 06000000 		.4byte	.LBB688
 21524 04d4 08000000 		.4byte	.LBE688
 21525 04d8 0A000000 		.4byte	.LBB689
 21526 04dc 10000000 		.4byte	.LBE689
 21527 04e0 14000000 		.4byte	.LBB690
 21528 04e4 28000000 		.4byte	.LBE690
ARM GAS  C:\Users\legoc\AppData\Local\Temp\ccMAvaOS.s 			page 401


 21529 04e8 2A000000 		.4byte	.LBB691
 21530 04ec 5C000000 		.4byte	.LBE691
 21531 04f0 12010000 		.4byte	.LBB701
 21532 04f4 14010000 		.4byte	.LBE701
 21533 04f8 00000000 		.4byte	0
 21534 04fc 00000000 		.4byte	0
 21535 0500 FA000000 		.4byte	.LBB692
 21536 0504 12010000 		.4byte	.LBE692
 21537 0508 14010000 		.4byte	.LBB702
 21538 050c 44010000 		.4byte	.LBE702
 21539 0510 00000000 		.4byte	0
 21540 0514 00000000 		.4byte	0
 21541 0518 02000000 		.4byte	.LBB714
 21542 051c 04000000 		.4byte	.LBE714
 21543 0520 06000000 		.4byte	.LBB745
 21544 0524 08000000 		.4byte	.LBE745
 21545 0528 0A000000 		.4byte	.LBB746
 21546 052c 10000000 		.4byte	.LBE746
 21547 0530 14000000 		.4byte	.LBB747
 21548 0534 28000000 		.4byte	.LBE747
 21549 0538 2A000000 		.4byte	.LBB748
 21550 053c 5A000000 		.4byte	.LBE748
 21551 0540 E0000000 		.4byte	.LBB758
 21552 0544 E2000000 		.4byte	.LBE758
 21553 0548 00000000 		.4byte	0
 21554 054c 00000000 		.4byte	0
 21555 0550 C6000000 		.4byte	.LBB749
 21556 0554 E0000000 		.4byte	.LBE749
 21557 0558 E2000000 		.4byte	.LBB759
 21558 055c 12010000 		.4byte	.LBE759
 21559 0560 00000000 		.4byte	0
 21560 0564 00000000 		.4byte	0
 21561 0568 02000000 		.4byte	.LBB771
 21562 056c 04000000 		.4byte	.LBE771
 21563 0570 06000000 		.4byte	.LBB802
 21564 0574 08000000 		.4byte	.LBE802
 21565 0578 0A000000 		.4byte	.LBB803
 21566 057c 10000000 		.4byte	.LBE803
 21567 0580 14000000 		.4byte	.LBB804
 21568 0584 28000000 		.4byte	.LBE804
 21569 0588 2A000000 		.4byte	.LBB805
 21570 058c 5C000000 		.4byte	.LBE805
 21571 0590 D4000000 		.4byte	.LBB815
 21572 0594 D6000000 		.4byte	.LBE815
 21573 0598 00000000 		.4byte	0
 21574 059c 00000000 		.4byte	0
 21575 05a0 BA000000 		.4byte	.LBB806
 21576 05a4 D4000000 		.4byte	.LBE806
 21577 05a8 D6000000 		.4byte	.LBB816
 21578 05ac 06010000 		.4byte	.LBE816
 21579 05b0 00000000 		.4byte	0
 21580 05b4 00000000 		.4byte	0
 21581 05b8 02000000 		.4byte	.LBB828
 21582 05bc 04000000 		.4byte	.LBE828
 21583 05c0 06000000 		.4byte	.LBB859
 21584 05c4 08000000 		.4byte	.LBE859
 21585 05c8 0A000000 		.4byte	.LBB860
ARM GAS  C:\Users\legoc\AppData\Local\Temp\ccMAvaOS.s 			page 402


 21586 05cc 10000000 		.4byte	.LBE860
 21587 05d0 14000000 		.4byte	.LBB861
 21588 05d4 28000000 		.4byte	.LBE861
 21589 05d8 2A000000 		.4byte	.LBB862
 21590 05dc 5C000000 		.4byte	.LBE862
 21591 05e0 96000000 		.4byte	.LBB876
 21592 05e4 98000000 		.4byte	.LBE876
 21593 05e8 00000000 		.4byte	0
 21594 05ec 00000000 		.4byte	0
 21595 05f0 7C000000 		.4byte	.LBB863
 21596 05f4 96000000 		.4byte	.LBE863
 21597 05f8 98000000 		.4byte	.LBB877
 21598 05fc C4000000 		.4byte	.LBE877
 21599 0600 CA000000 		.4byte	.LBB878
 21600 0604 DC000000 		.4byte	.LBE878
 21601 0608 00000000 		.4byte	0
 21602 060c 00000000 		.4byte	0
 21603 0610 06000000 		.4byte	.LBB885
 21604 0614 08000000 		.4byte	.LBE885
 21605 0618 0A000000 		.4byte	.LBB906
 21606 061c 10000000 		.4byte	.LBE906
 21607 0620 12000000 		.4byte	.LBB907
 21608 0624 28000000 		.4byte	.LBE907
 21609 0628 2A000000 		.4byte	.LBB908
 21610 062c 5C000000 		.4byte	.LBE908
 21611 0630 00000000 		.4byte	0
 21612 0634 00000000 		.4byte	0
 21613 0638 00000000 		.4byte	.LFB1
 21614 063c 22000000 		.4byte	.LFE1
 21615 0640 00000000 		.4byte	.LFB2
 21616 0644 22000000 		.4byte	.LFE2
 21617 0648 00000000 		.4byte	.LFB3
 21618 064c FE000000 		.4byte	.LFE3
 21619 0650 00000000 		.4byte	.LFB28
 21620 0654 0C020000 		.4byte	.LFE28
 21621 0658 00000000 		.4byte	.LFB4
 21622 065c A6000000 		.4byte	.LFE4
 21623 0660 00000000 		.4byte	.LFB5
 21624 0664 BE000000 		.4byte	.LFE5
 21625 0668 00000000 		.4byte	.LFB6
 21626 066c 5C000000 		.4byte	.LFE6
 21627 0670 00000000 		.4byte	.LFB7
 21628 0674 88000000 		.4byte	.LFE7
 21629 0678 00000000 		.4byte	.LFB8
 21630 067c 4C000000 		.4byte	.LFE8
 21631 0680 00000000 		.4byte	.LFB9
 21632 0684 58000000 		.4byte	.LFE9
 21633 0688 00000000 		.4byte	.LFB10
 21634 068c 64010000 		.4byte	.LFE10
 21635 0690 00000000 		.4byte	.LFB11
 21636 0694 18000000 		.4byte	.LFE11
 21637 0698 00000000 		.4byte	.LFB12
 21638 069c 16000000 		.4byte	.LFE12
 21639 06a0 00000000 		.4byte	.LFB13
 21640 06a4 5A000000 		.4byte	.LFE13
 21641 06a8 00000000 		.4byte	.LFB14
 21642 06ac 34020000 		.4byte	.LFE14
ARM GAS  C:\Users\legoc\AppData\Local\Temp\ccMAvaOS.s 			page 403


 21643 06b0 00000000 		.4byte	.LFB15
 21644 06b4 D8010000 		.4byte	.LFE15
 21645 06b8 00000000 		.4byte	.LFB16
 21646 06bc 18020000 		.4byte	.LFE16
 21647 06c0 00000000 		.4byte	.LFB17
 21648 06c4 F8010000 		.4byte	.LFE17
 21649 06c8 00000000 		.4byte	.LFB18
 21650 06cc 70010000 		.4byte	.LFE18
 21651 06d0 00000000 		.4byte	.LFB19
 21652 06d4 78010000 		.4byte	.LFE19
 21653 06d8 00000000 		.4byte	.LFB20
 21654 06dc 24010000 		.4byte	.LFE20
 21655 06e0 00000000 		.4byte	.LFB21
 21656 06e4 DC000000 		.4byte	.LFE21
 21657 06e8 00000000 		.4byte	.LFB22
 21658 06ec F4000000 		.4byte	.LFE22
 21659 06f0 00000000 		.4byte	0
 21660 06f4 00000000 		.4byte	0
 21661              		.section	.debug_line,"",%progbits
 21662              	.Ldebug_line0:
 21663 0000 08090000 		.section	.debug_str,"MS",%progbits,1
 21663      0200AE01 
 21663      00000201 
 21663      FB0E0D00 
 21663      01010101 
 21664              	.LASF70:
 21665 0000 64726177 		.ascii	"draw_choose_screen\000"
 21665      5F63686F 
 21665      6F73655F 
 21665      73637265 
 21665      656E00
 21666              	.LASF50:
 21667 0013 77726974 		.ascii	"writedata\000"
 21667      65646174 
 21667      6100
 21668              	.LASF35:
 21669 001d 72656374 		.ascii	"rect_center_x\000"
 21669      5F63656E 
 21669      7465725F 
 21669      7800
 21670              	.LASF36:
 21671 002b 72656374 		.ascii	"rect_center_y\000"
 21671      5F63656E 
 21671      7465725F 
 21671      7900
 21672              	.LASF32:
 21673 0039 62757474 		.ascii	"button_color\000"
 21673      6F6E5F63 
 21673      6F6C6F72 
 21673      00
 21674              	.LASF12:
 21675 0046 756E7369 		.ascii	"unsigned int\000"
 21675      676E6564 
 21675      20696E74 
 21675      00
 21676              	.LASF86:
 21677 0053 795F746F 		.ascii	"y_touch\000"
ARM GAS  C:\Users\legoc\AppData\Local\Temp\ccMAvaOS.s 			page 404


 21677      75636800 
 21678              	.LASF39:
 21679 005b 70697865 		.ascii	"pixel_start\000"
 21679      6C5F7374 
 21679      61727400 
 21680              	.LASF37:
 21681 0067 73747269 		.ascii	"string_length\000"
 21681      6E675F6C 
 21681      656E6774 
 21681      6800
 21682              	.LASF54:
 21683 0075 73657441 		.ascii	"setAddrWindow\000"
 21683      64647257 
 21683      696E646F 
 21683      7700
 21684              	.LASF69:
 21685 0083 53746172 		.ascii	"StartScreen\000"
 21685      74536372 
 21685      65656E00 
 21686              	.LASF41:
 21687 008f 6E65775F 		.ascii	"new_string_1\000"
 21687      73747269 
 21687      6E675F31 
 21687      00
 21688              	.LASF42:
 21689 009c 6E65775F 		.ascii	"new_string_2\000"
 21689      73747269 
 21689      6E675F32 
 21689      00
 21690              	.LASF48:
 21691 00a9 77726974 		.ascii	"writecommand\000"
 21691      65636F6D 
 21691      6D616E64 
 21691      00
 21692              	.LASF66:
 21693 00b6 73747269 		.ascii	"string_throwaway_x\000"
 21693      6E675F74 
 21693      68726F77 
 21693      61776179 
 21693      5F7800
 21694              	.LASF65:
 21695 00c9 73747269 		.ascii	"string_throwaway_y\000"
 21695      6E675F74 
 21695      68726F77 
 21695      61776179 
 21695      5F7900
 21696              	.LASF38:
 21697 00dc 7468655F 		.ascii	"the_string\000"
 21697      73747269 
 21697      6E6700
 21698              	.LASF16:
 21699 00e7 75696E74 		.ascii	"uint32_t\000"
 21699      33325F74 
 21699      00
 21700              	.LASF59:
 21701 00f0 795F6D61 		.ascii	"y_max\000"
 21701      7800
ARM GAS  C:\Users\legoc\AppData\Local\Temp\ccMAvaOS.s 			page 405


 21702              	.LASF67:
 21703 00f6 785F6D61 		.ascii	"x_max_step\000"
 21703      785F7374 
 21703      657000
 21704              	.LASF52:
 21705 0101 6E756D41 		.ascii	"numArgs\000"
 21705      72677300 
 21706              	.LASF33:
 21707 0109 74657874 		.ascii	"text_color\000"
 21707      5F636F6C 
 21707      6F7200
 21708              	.LASF17:
 21709 0114 666C6F61 		.ascii	"float\000"
 21709      7400
 21710              	.LASF130:
 21711 011a 433A5C55 		.ascii	"C:\\Users\\legoc\\Documents\\School\\Senior Year\\S"
 21711      73657273 
 21711      5C6C6567 
 21711      6F635C44 
 21711      6F63756D 
 21712 0147 656E696F 		.ascii	"enior Project\\Senior Project Integrated\\Senior Pr"
 21712      72205072 
 21712      6F6A6563 
 21712      745C5365 
 21712      6E696F72 
 21713 0178 6F6A6563 		.ascii	"oject Integrated\\Design01.cydsn\000"
 21713      7420496E 
 21713      74656772 
 21713      61746564 
 21713      5C446573 
 21714              	.LASF128:
 21715 0198 474E5520 		.ascii	"GNU C11 5.4.1 20160609 (release) [ARM/embedded-5-br"
 21715      43313120 
 21715      352E342E 
 21715      31203230 
 21715      31363036 
 21716 01cb 616E6368 		.ascii	"anch revision 237715] -mcpu=cortex-m3 -mthumb -g -O"
 21716      20726576 
 21716      6973696F 
 21716      6E203233 
 21716      37373135 
 21717 01fe 33202D66 		.ascii	"3 -ffunction-sections -ffat-lto-objects\000"
 21717      66756E63 
 21717      74696F6E 
 21717      2D736563 
 21717      74696F6E 
 21718              	.LASF61:
 21719 0226 795F6D61 		.ascii	"y_max_pixel\000"
 21719      785F7069 
 21719      78656C00 
 21720              	.LASF14:
 21721 0232 696E7431 		.ascii	"int16_t\000"
 21721      365F7400 
 21722              	.LASF11:
 21723 023a 6C6F6E67 		.ascii	"long long unsigned int\000"
 21723      206C6F6E 
 21723      6720756E 
ARM GAS  C:\Users\legoc\AppData\Local\Temp\ccMAvaOS.s 			page 406


 21723      7369676E 
 21723      65642069 
 21724              	.LASF124:
 21725 0251 53535F57 		.ascii	"SS_Write\000"
 21725      72697465 
 21725      00
 21726              	.LASF129:
 21727 025a 73637265 		.ascii	"screen.c\000"
 21727      656E2E63 
 21727      00
 21728              	.LASF44:
 21729 0263 6E65775F 		.ascii	"new_string_2_length\000"
 21729      73747269 
 21729      6E675F32 
 21729      5F6C656E 
 21729      67746800 
 21730              	.LASF5:
 21731 0277 5F5F7569 		.ascii	"__uint16_t\000"
 21731      6E743136 
 21731      5F7400
 21732              	.LASF120:
 21733 0282 6E756D5F 		.ascii	"num_avg\000"
 21733      61766700 
 21734              	.LASF87:
 21735 028a 666F6E74 		.ascii	"font_0\000"
 21735      5F3000
 21736              	.LASF88:
 21737 0291 666F6E74 		.ascii	"font_1\000"
 21737      5F3100
 21738              	.LASF89:
 21739 0298 666F6E74 		.ascii	"font_2\000"
 21739      5F3200
 21740              	.LASF90:
 21741 029f 666F6E74 		.ascii	"font_3\000"
 21741      5F3300
 21742              	.LASF91:
 21743 02a6 666F6E74 		.ascii	"font_4\000"
 21743      5F3400
 21744              	.LASF92:
 21745 02ad 666F6E74 		.ascii	"font_5\000"
 21745      5F3500
 21746              	.LASF72:
 21747 02b4 74656D70 		.ascii	"temp1\000"
 21747      3100
 21748              	.LASF73:
 21749 02ba 74656D70 		.ascii	"temp2\000"
 21749      3200
 21750              	.LASF74:
 21751 02c0 74656D70 		.ascii	"temp3\000"
 21751      3300
 21752              	.LASF75:
 21753 02c6 74656D70 		.ascii	"temp4\000"
 21753      3400
 21754              	.LASF76:
 21755 02cc 74656D70 		.ascii	"temp5\000"
 21755      3500
 21756              	.LASF77:
ARM GAS  C:\Users\legoc\AppData\Local\Temp\ccMAvaOS.s 			page 407


 21757 02d2 74656D70 		.ascii	"temp6\000"
 21757      3600
 21758              	.LASF24:
 21759 02d8 66696C6C 		.ascii	"fill_rect\000"
 21759      5F726563 
 21759      7400
 21760              	.LASF109:
 21761 02e2 666F6E74 		.ascii	"font_A\000"
 21761      5F4100
 21762              	.LASF110:
 21763 02e9 666F6E74 		.ascii	"font_B\000"
 21763      5F4200
 21764              	.LASF111:
 21765 02f0 666F6E74 		.ascii	"font_C\000"
 21765      5F4300
 21766              	.LASF112:
 21767 02f7 666F6E74 		.ascii	"font_D\000"
 21767      5F4400
 21768              	.LASF113:
 21769 02fe 666F6E74 		.ascii	"font_E\000"
 21769      5F4500
 21770              	.LASF114:
 21771 0305 666F6E74 		.ascii	"font_F\000"
 21771      5F4600
 21772              	.LASF115:
 21773 030c 666F6E74 		.ascii	"font_G\000"
 21773      5F4700
 21774              	.LASF81:
 21775 0313 64726177 		.ascii	"draw_options_curves_screen\000"
 21775      5F6F7074 
 21775      696F6E73 
 21775      5F637572 
 21775      7665735F 
 21776              	.LASF79:
 21777 032e 6176675F 		.ascii	"avg_num\000"
 21777      6E756D00 
 21778              	.LASF107:
 21779 0336 7373697A 		.ascii	"ssizetype\000"
 21779      65747970 
 21779      6500
 21780              	.LASF98:
 21781 0340 666F6E74 		.ascii	"font_a\000"
 21781      5F6100
 21782              	.LASF99:
 21783 0347 666F6E74 		.ascii	"font_b\000"
 21783      5F6200
 21784              	.LASF100:
 21785 034e 666F6E74 		.ascii	"font_c\000"
 21785      5F6300
 21786              	.LASF101:
 21787 0355 666F6E74 		.ascii	"font_d\000"
 21787      5F6400
 21788              	.LASF102:
 21789 035c 666F6E74 		.ascii	"font_e\000"
 21789      5F6500
 21790              	.LASF103:
 21791 0363 666F6E74 		.ascii	"font_f\000"
ARM GAS  C:\Users\legoc\AppData\Local\Temp\ccMAvaOS.s 			page 408


 21791      5F6600
 21792              	.LASF104:
 21793 036a 666F6E74 		.ascii	"font_g\000"
 21793      5F6700
 21794              	.LASF105:
 21795 0371 666F6E74 		.ascii	"font_h\000"
 21795      5F6800
 21796              	.LASF106:
 21797 0378 666F6E74 		.ascii	"font_i\000"
 21797      5F6900
 21798              	.LASF108:
 21799 037f 666F6E74 		.ascii	"font_j\000"
 21799      5F6A00
 21800              	.LASF19:
 21801 0386 63686172 		.ascii	"char\000"
 21801      00
 21802              	.LASF47:
 21803 038b 64726177 		.ascii	"draw_string\000"
 21803      5F737472 
 21803      696E6700 
 21804              	.LASF63:
 21805 0397 795F6C61 		.ascii	"y_label\000"
 21805      62656C00 
 21806              	.LASF82:
 21807 039f 6E756D5F 		.ascii	"num_curve\000"
 21807      63757276 
 21807      6500
 21808              	.LASF34:
 21809 03a9 73747269 		.ascii	"string\000"
 21809      6E6700
 21810              	.LASF31:
 21811 03b0 64726177 		.ascii	"draw_button\000"
 21811      5F627574 
 21811      746F6E00 
 21812              	.LASF125:
 21813 03bc 43794465 		.ascii	"CyDelay\000"
 21813      6C617900 
 21814              	.LASF51:
 21815 03c4 64617461 		.ascii	"data\000"
 21815      00
 21816              	.LASF13:
 21817 03c9 75696E74 		.ascii	"uint8_t\000"
 21817      385F7400 
 21818              	.LASF29:
 21819 03d1 64726177 		.ascii	"draw_line\000"
 21819      5F6C696E 
 21819      6500
 21820              	.LASF116:
 21821 03db 696E6974 		.ascii	"initcmd\000"
 21821      636D6400 
 21822              	.LASF56:
 21823 03e3 73746565 		.ascii	"steep\000"
 21823      7000
 21824              	.LASF10:
 21825 03e9 6C6F6E67 		.ascii	"long long int\000"
 21825      206C6F6E 
 21825      6720696E 
ARM GAS  C:\Users\legoc\AppData\Local\Temp\ccMAvaOS.s 			page 409


 21825      7400
 21826              	.LASF83:
 21827 03f7 64726177 		.ascii	"draw_options_settling_screen\000"
 21827      5F6F7074 
 21827      696F6E73 
 21827      5F736574 
 21827      746C696E 
 21828              	.LASF3:
 21829 0414 5F5F696E 		.ascii	"__int16_t\000"
 21829      7431365F 
 21829      7400
 21830              	.LASF127:
 21831 041e 69746F61 		.ascii	"itoa\000"
 21831      00
 21832              	.LASF62:
 21833 0423 66697665 		.ascii	"five_mA_pixel\000"
 21833      5F6D415F 
 21833      70697865 
 21833      6C00
 21834              	.LASF97:
 21835 0431 666F6E74 		.ascii	"font_period\000"
 21835      5F706572 
 21835      696F6400 
 21836              	.LASF118:
 21837 043d 63757276 		.ascii	"curve_nums\000"
 21837      655F6E75 
 21837      6D7300
 21838              	.LASF85:
 21839 0448 785F746F 		.ascii	"x_touch\000"
 21839      75636800 
 21840              	.LASF49:
 21841 0450 636F6D6D 		.ascii	"command\000"
 21841      616E6400 
 21842              	.LASF58:
 21843 0458 64726177 		.ascii	"draw_coordinates\000"
 21843      5F636F6F 
 21843      7264696E 
 21843      61746573 
 21843      00
 21844              	.LASF84:
 21845 0469 64726177 		.ascii	"draw_debug_screen\000"
 21845      5F646562 
 21845      75675F73 
 21845      63726565 
 21845      6E00
 21846              	.LASF40:
 21847 047b 62757474 		.ascii	"button_character_width\000"
 21847      6F6E5F63 
 21847      68617261 
 21847      63746572 
 21847      5F776964 
 21848              	.LASF28:
 21849 0492 64726177 		.ascii	"drawFastHLine\000"
 21849      46617374 
 21849      484C696E 
 21849      6500
 21850              	.LASF94:
ARM GAS  C:\Users\legoc\AppData\Local\Temp\ccMAvaOS.s 			page 410


 21851 04a0 666F6E74 		.ascii	"font_7\000"
 21851      5F3700
 21852              	.LASF95:
 21853 04a7 666F6E74 		.ascii	"font_8\000"
 21853      5F3800
 21854              	.LASF96:
 21855 04ae 666F6E74 		.ascii	"font_9\000"
 21855      5F3900
 21856              	.LASF25:
 21857 04b5 6368616E 		.ascii	"change_pixel\000"
 21857      67655F70 
 21857      6978656C 
 21857      00
 21858              	.LASF57:
 21859 04c2 79737465 		.ascii	"ystep\000"
 21859      7000
 21860              	.LASF20:
 21861 04c8 6C6F6E67 		.ascii	"long double\000"
 21861      20646F75 
 21861      626C6500 
 21862              	.LASF23:
 21863 04d4 64726177 		.ascii	"draw_rect\000"
 21863      5F726563 
 21863      7400
 21864              	.LASF126:
 21865 04de 73707269 		.ascii	"sprintf\000"
 21865      6E746600 
 21866              	.LASF15:
 21867 04e6 75696E74 		.ascii	"uint16_t\000"
 21867      31365F74 
 21867      00
 21868              	.LASF71:
 21869 04ef 64726177 		.ascii	"draw_options_screen\000"
 21869      5F6F7074 
 21869      696F6E73 
 21869      5F736372 
 21869      65656E00 
 21870              	.LASF4:
 21871 0503 73686F72 		.ascii	"short int\000"
 21871      7420696E 
 21871      7400
 21872              	.LASF26:
 21873 050d 64726177 		.ascii	"draw_pixel\000"
 21873      5F706978 
 21873      656C00
 21874              	.LASF7:
 21875 0518 6C6F6E67 		.ascii	"long int\000"
 21875      20696E74 
 21875      00
 21876              	.LASF78:
 21877 0521 64726177 		.ascii	"draw_options_averages_screen\000"
 21877      5F6F7074 
 21877      696F6E73 
 21877      5F617665 
 21877      72616765 
 21878              	.LASF27:
 21879 053e 64726177 		.ascii	"drawFastVLine\000"
ARM GAS  C:\Users\legoc\AppData\Local\Temp\ccMAvaOS.s 			page 411


 21879      46617374 
 21879      564C696E 
 21879      6500
 21880              	.LASF121:
 21881 054c 445F435F 		.ascii	"D_C_Write\000"
 21881      57726974 
 21881      6500
 21882              	.LASF68:
 21883 0556 74656D70 		.ascii	"temp\000"
 21883      00
 21884              	.LASF22:
 21885 055b 636F6C6F 		.ascii	"color\000"
 21885      7200
 21886              	.LASF2:
 21887 0561 5F5F7569 		.ascii	"__uint8_t\000"
 21887      6E74385F 
 21887      7400
 21888              	.LASF123:
 21889 056b 53535F52 		.ascii	"SS_Read\000"
 21889      65616400 
 21890              	.LASF45:
 21891 0573 70697865 		.ascii	"pixel_start_1\000"
 21891      6C5F7374 
 21891      6172745F 
 21891      3100
 21892              	.LASF46:
 21893 0581 70697865 		.ascii	"pixel_start_2\000"
 21893      6C5F7374 
 21893      6172745F 
 21893      3200
 21894              	.LASF21:
 21895 058f 73697A65 		.ascii	"sizetype\000"
 21895      74797065 
 21895      00
 21896              	.LASF9:
 21897 0598 6C6F6E67 		.ascii	"long unsigned int\000"
 21897      20756E73 
 21897      69676E65 
 21897      6420696E 
 21897      7400
 21898              	.LASF1:
 21899 05aa 756E7369 		.ascii	"unsigned char\000"
 21899      676E6564 
 21899      20636861 
 21899      7200
 21900              	.LASF8:
 21901 05b8 5F5F7569 		.ascii	"__uint32_t\000"
 21901      6E743332 
 21901      5F7400
 21902              	.LASF80:
 21903 05c3 64726177 		.ascii	"draw_options_sd_screen\000"
 21903      5F6F7074 
 21903      696F6E73 
 21903      5F73645F 
 21903      73637265 
 21904              	.LASF64:
 21905 05da 785F6C61 		.ascii	"x_label\000"
ARM GAS  C:\Users\legoc\AppData\Local\Temp\ccMAvaOS.s 			page 412


 21905      62656C00 
 21906              	.LASF53:
 21907 05e2 61646472 		.ascii	"addr\000"
 21907      00
 21908              	.LASF30:
 21909 05e7 66696C6C 		.ascii	"fill_screen\000"
 21909      5F736372 
 21909      65656E00 
 21910              	.LASF43:
 21911 05f3 6E65775F 		.ascii	"new_string_1_length\000"
 21911      73747269 
 21911      6E675F31 
 21911      5F6C656E 
 21911      67746800 
 21912              	.LASF93:
 21913 0607 666F6E74 		.ascii	"font_6\000"
 21913      5F3600
 21914              	.LASF0:
 21915 060e 7369676E 		.ascii	"signed char\000"
 21915      65642063 
 21915      68617200 
 21916              	.LASF6:
 21917 061a 73686F72 		.ascii	"short unsigned int\000"
 21917      7420756E 
 21917      7369676E 
 21917      65642069 
 21917      6E7400
 21918              	.LASF122:
 21919 062d 5350494D 		.ascii	"SPIM_WriteTxData\000"
 21919      5F577269 
 21919      74655478 
 21919      44617461 
 21919      00
 21920              	.LASF131:
 21921 063e 6D656D63 		.ascii	"memcpy\000"
 21921      707900
 21922              	.LASF119:
 21923 0645 77726974 		.ascii	"write_sd\000"
 21923      655F7364 
 21923      00
 21924              	.LASF18:
 21925 064e 646F7562 		.ascii	"double\000"
 21925      6C6500
 21926              	.LASF60:
 21927 0655 64657669 		.ascii	"device_selection\000"
 21927      63655F73 
 21927      656C6563 
 21927      74696F6E 
 21927      00
 21928              	.LASF117:
 21929 0666 73637265 		.ascii	"screen_state\000"
 21929      656E5F73 
 21929      74617465 
 21929      00
 21930              	.LASF55:
 21931 0673 77726974 		.ascii	"write_line\000"
 21931      655F6C69 
ARM GAS  C:\Users\legoc\AppData\Local\Temp\ccMAvaOS.s 			page 413


 21931      6E6500
 21932              		.ident	"GCC: (GNU Tools for ARM Embedded Processors) 5.4.1 20160609 (release) [ARM/embedded-5-bran
