ARM GAS  C:\Users\legoc\AppData\Local\Temp\ccOlrioX.s 			page 1


   1              		.syntax unified
   2              		.cpu cortex-m3
   3              		.fpu softvfp
   4              		.eabi_attribute 20, 1
   5              		.eabi_attribute 21, 1
   6              		.eabi_attribute 23, 3
   7              		.eabi_attribute 24, 1
   8              		.eabi_attribute 25, 1
   9              		.eabi_attribute 26, 1
  10              		.eabi_attribute 30, 2
  11              		.eabi_attribute 34, 1
  12              		.eabi_attribute 18, 4
  13              		.thumb
  14              		.syntax unified
  15              		.file	"screen.c"
  16              		.text
  17              	.Ltext0:
  18              		.cfi_sections	.debug_frame
  19              		.section	.text.writecommand,"ax",%progbits
  20              		.align	2
  21              		.global	writecommand
  22              		.thumb
  23              		.thumb_func
  24              		.type	writecommand, %function
  25              	writecommand:
  26              	.LFB1:
  27              		.file 1 "screen.c"
   1:screen.c      **** // Steven Andresen
   2:screen.c      **** // Senior Project Fall 2018
   3:screen.c      **** 
   4:screen.c      **** #include "project.h"
   5:screen.c      **** #include "screen.h"
   6:screen.c      **** #include "font.h"
   7:screen.c      **** #include "strings.h"
   8:screen.c      **** #include "string.h"
   9:screen.c      **** #include "stdio.h"
  10:screen.c      **** #include "stdlib.h"
  11:screen.c      **** #include "math.h"
  12:screen.c      **** #include "font.h"
  13:screen.c      **** #include "uifunctions.h"
  14:screen.c      **** 
  15:screen.c      **** // Initialization command/data
  16:screen.c      **** static const uint8_t initcmd[] = {
  17:screen.c      ****   0xEF, 3, 0x03, 0x80, 0x02,
  18:screen.c      ****   0xCF, 3, 0x00, 0xC1, 0x30,
  19:screen.c      ****   0xED, 4, 0x64, 0x03, 0x12, 0x81,
  20:screen.c      ****   0xE8, 3, 0x85, 0x00, 0x78,
  21:screen.c      ****   0xCB, 5, 0x39, 0x2C, 0x00, 0x34, 0x02,
  22:screen.c      ****   0xF7, 1, 0x20,
  23:screen.c      ****   0xEA, 2, 0x00, 0x00,
  24:screen.c      ****   ILI9341_PWCTR1  , 1, 0x23,             // Power control VRH[5:0]
  25:screen.c      ****   ILI9341_PWCTR2  , 1, 0x10,             // Power control SAP[2:0];BT[3:0]
  26:screen.c      ****   ILI9341_VMCTR1  , 2, 0x3e, 0x28,       // VCM control
  27:screen.c      ****   ILI9341_VMCTR2  , 1, 0x86,             // VCM control2
  28:screen.c      ****   ILI9341_MADCTL  , 1, 0x48,             // Memory Access Control
  29:screen.c      ****   ILI9341_VSCRSADD, 1, 0x00,             // Vertical scroll zero
  30:screen.c      ****   ILI9341_PIXFMT  , 1, 0x55,
ARM GAS  C:\Users\legoc\AppData\Local\Temp\ccOlrioX.s 			page 2


  31:screen.c      ****   ILI9341_FRMCTR1 , 2, 0x00, 0x18,
  32:screen.c      ****   ILI9341_DFUNCTR , 3, 0x08, 0x82, 0x27, // Display Function Control
  33:screen.c      ****   0xF2, 1, 0x00,                         // 3Gamma Function Disable
  34:screen.c      ****   ILI9341_GAMMASET , 1, 0x01,             // Gamma curve selected
  35:screen.c      ****   ILI9341_GMCTRP1 , 15, 0x0F, 0x31, 0x2B, 0x0C, 0x0E, 0x08, // Set Gamma
  36:screen.c      ****     0x4E, 0xF1, 0x37, 0x07, 0x10, 0x03, 0x0E, 0x09, 0x00,
  37:screen.c      ****   ILI9341_GMCTRN1 , 15, 0x00, 0x0E, 0x14, 0x03, 0x11, 0x07, // Set Gamma
  38:screen.c      ****     0x31, 0xC1, 0x48, 0x08, 0x0F, 0x0C, 0x31, 0x36, 0x0F,
  39:screen.c      ****   ILI9341_SLPOUT  , 0x80,                // Exit Sleep
  40:screen.c      ****   ILI9341_DISPON  , 0x80,                // Display on
  41:screen.c      ****   0x00                                   // End of list
  42:screen.c      **** };
  43:screen.c      **** 
  44:screen.c      **** // Write command over SPI buss
  45:screen.c      **** void writecommand(uint8_t command)
  46:screen.c      **** {
  28              		.loc 1 46 0
  29              		.cfi_startproc
  30              		@ args = 0, pretend = 0, frame = 0
  31              		@ frame_needed = 0, uses_anonymous_args = 0
  32              	.LVL0:
  33 0000 10B5     		push	{r4, lr}
  34              		.cfi_def_cfa_offset 8
  35              		.cfi_offset 4, -8
  36              		.cfi_offset 14, -4
  37              		.loc 1 46 0
  38 0002 0446     		mov	r4, r0
  47:screen.c      ****     // Set D_C to low for command
  48:screen.c      ****     D_C_Write(0);
  39              		.loc 1 48 0
  40 0004 0020     		movs	r0, #0
  41              	.LVL1:
  42 0006 FFF7FEFF 		bl	D_C_Write
  43              	.LVL2:
  49:screen.c      ****     SPIM_WriteTxData(command);
  44              		.loc 1 49 0
  45 000a 2046     		mov	r0, r4
  46 000c FFF7FEFF 		bl	SPIM_WriteTxData
  47              	.LVL3:
  48              	.L2:
  50:screen.c      ****     while(SS_Read() != 0){}
  49              		.loc 1 50 0 discriminator 1
  50 0010 FFF7FEFF 		bl	SS_Read
  51              	.LVL4:
  52 0014 0028     		cmp	r0, #0
  53 0016 FBD1     		bne	.L2
  54              	.L3:
  51:screen.c      ****     while(SS_Read() != 1){}
  55              		.loc 1 51 0 discriminator 1
  56 0018 FFF7FEFF 		bl	SS_Read
  57              	.LVL5:
  58 001c 0128     		cmp	r0, #1
  59 001e FBD1     		bne	.L3
  52:screen.c      **** }
  60              		.loc 1 52 0
  61 0020 10BD     		pop	{r4, pc}
  62              		.cfi_endproc
ARM GAS  C:\Users\legoc\AppData\Local\Temp\ccOlrioX.s 			page 3


  63              	.LFE1:
  64              		.size	writecommand, .-writecommand
  65 0022 00BF     		.section	.text.writedata,"ax",%progbits
  66              		.align	2
  67              		.global	writedata
  68              		.thumb
  69              		.thumb_func
  70              		.type	writedata, %function
  71              	writedata:
  72              	.LFB2:
  53:screen.c      **** 
  54:screen.c      **** // Writes data over SPI bus
  55:screen.c      **** void writedata(uint8_t data)
  56:screen.c      **** {
  73              		.loc 1 56 0
  74              		.cfi_startproc
  75              		@ args = 0, pretend = 0, frame = 0
  76              		@ frame_needed = 0, uses_anonymous_args = 0
  77              	.LVL6:
  78 0000 10B5     		push	{r4, lr}
  79              		.cfi_def_cfa_offset 8
  80              		.cfi_offset 4, -8
  81              		.cfi_offset 14, -4
  82              		.loc 1 56 0
  83 0002 0446     		mov	r4, r0
  57:screen.c      ****     // Set D_C to high for data
  58:screen.c      ****     D_C_Write(1);
  84              		.loc 1 58 0
  85 0004 0120     		movs	r0, #1
  86              	.LVL7:
  87 0006 FFF7FEFF 		bl	D_C_Write
  88              	.LVL8:
  59:screen.c      ****     SPIM_WriteTxData(data);
  89              		.loc 1 59 0
  90 000a 2046     		mov	r0, r4
  91 000c FFF7FEFF 		bl	SPIM_WriteTxData
  92              	.LVL9:
  93              	.L9:
  60:screen.c      ****     while(SS_Read() != 0){}
  94              		.loc 1 60 0 discriminator 1
  95 0010 FFF7FEFF 		bl	SS_Read
  96              	.LVL10:
  97 0014 0028     		cmp	r0, #0
  98 0016 FBD1     		bne	.L9
  99              	.L10:
  61:screen.c      ****     while(SS_Read() != 1){}
 100              		.loc 1 61 0 discriminator 1
 101 0018 FFF7FEFF 		bl	SS_Read
 102              	.LVL11:
 103 001c 0128     		cmp	r0, #1
 104 001e FBD1     		bne	.L10
  62:screen.c      **** }
 105              		.loc 1 62 0
 106 0020 10BD     		pop	{r4, pc}
 107              		.cfi_endproc
 108              	.LFE2:
 109              		.size	writedata, .-writedata
ARM GAS  C:\Users\legoc\AppData\Local\Temp\ccOlrioX.s 			page 4


 110 0022 00BF     		.section	.text.setAddrWindow,"ax",%progbits
 111              		.align	2
 112              		.global	setAddrWindow
 113              		.thumb
 114              		.thumb_func
 115              		.type	setAddrWindow, %function
 116              	setAddrWindow:
 117              	.LFB3:
  63:screen.c      **** 
  64:screen.c      **** // Sets addresses in memory to write to
  65:screen.c      **** void setAddrWindow(uint16_t x, uint16_t y, uint16_t w, uint16_t h) {
 118              		.loc 1 65 0
 119              		.cfi_startproc
 120              		@ args = 0, pretend = 0, frame = 0
 121              		@ frame_needed = 0, uses_anonymous_args = 0
 122              	.LVL12:
 123 0000 38B5     		push	{r3, r4, r5, lr}
 124              		.cfi_def_cfa_offset 16
 125              		.cfi_offset 3, -16
 126              		.cfi_offset 4, -12
 127              		.cfi_offset 5, -8
 128              		.cfi_offset 14, -4
 129              		.loc 1 65 0
 130 0002 0546     		mov	r5, r0
  66:screen.c      ****     uint32_t xa = ((uint32_t)x << 16) | (x+w-1);
 131              		.loc 1 66 0
 132 0004 0244     		add	r2, r2, r0
 133              	.LVL13:
  67:screen.c      ****     uint32_t ya = ((uint32_t)y << 16) | (y+h-1);
 134              		.loc 1 67 0
 135 0006 0B44     		add	r3, r3, r1
 136              	.LVL14:
  66:screen.c      ****     uint32_t xa = ((uint32_t)x << 16) | (x+w-1);
 137              		.loc 1 66 0
 138 0008 013A     		subs	r2, r2, #1
 139              		.loc 1 67 0
 140 000a 013B     		subs	r3, r3, #1
 141              	.LBB76:
 142              	.LBB77:
  48:screen.c      ****     SPIM_WriteTxData(command);
 143              		.loc 1 48 0
 144 000c 0020     		movs	r0, #0
 145              	.LVL15:
 146              	.LBE77:
 147              	.LBE76:
  66:screen.c      ****     uint32_t xa = ((uint32_t)x << 16) | (x+w-1);
 148              		.loc 1 66 0
 149 000e 42EA0545 		orr	r5, r2, r5, lsl #16
 150              	.LVL16:
 151              		.loc 1 67 0
 152 0012 43EA0144 		orr	r4, r3, r1, lsl #16
 153              	.LVL17:
 154              	.LBB79:
 155              	.LBB78:
  48:screen.c      ****     SPIM_WriteTxData(command);
 156              		.loc 1 48 0
 157 0016 FFF7FEFF 		bl	D_C_Write
ARM GAS  C:\Users\legoc\AppData\Local\Temp\ccOlrioX.s 			page 5


 158              	.LVL18:
  49:screen.c      ****     while(SS_Read() != 0){}
 159              		.loc 1 49 0
 160 001a 2A20     		movs	r0, #42
 161 001c FFF7FEFF 		bl	SPIM_WriteTxData
 162              	.LVL19:
 163              	.L15:
  50:screen.c      ****     while(SS_Read() != 1){}
 164              		.loc 1 50 0
 165 0020 FFF7FEFF 		bl	SS_Read
 166              	.LVL20:
 167 0024 0028     		cmp	r0, #0
 168 0026 FBD1     		bne	.L15
 169              	.L16:
  51:screen.c      **** }
 170              		.loc 1 51 0
 171 0028 FFF7FEFF 		bl	SS_Read
 172              	.LVL21:
 173 002c 0128     		cmp	r0, #1
 174 002e FBD1     		bne	.L16
 175              	.LVL22:
 176              	.LBE78:
 177              	.LBE79:
  68:screen.c      ****     
  69:screen.c      ****     // Column address set
  70:screen.c      ****     writecommand(ILI9341_CASET);
  71:screen.c      ****     
  72:screen.c      ****     // Splits 'x' addresses 32-bit into 4 bytes
  73:screen.c      ****     D_C_Write(1);
 178              		.loc 1 73 0
 179 0030 FFF7FEFF 		bl	D_C_Write
 180              	.LVL23:
  74:screen.c      ****     SS_Write(0);
 181              		.loc 1 74 0
 182 0034 0020     		movs	r0, #0
 183 0036 FFF7FEFF 		bl	SS_Write
 184              	.LVL24:
  75:screen.c      ****     SPIM_WriteTxData(xa >> 24);
 185              		.loc 1 75 0
 186 003a 280E     		lsrs	r0, r5, #24
 187 003c FFF7FEFF 		bl	SPIM_WriteTxData
 188              	.LVL25:
 189              	.L17:
  76:screen.c      ****     while(SS_Read() != 1){}
 190              		.loc 1 76 0 discriminator 1
 191 0040 FFF7FEFF 		bl	SS_Read
 192              	.LVL26:
 193 0044 0128     		cmp	r0, #1
 194 0046 FBD1     		bne	.L17
  77:screen.c      ****     SPIM_WriteTxData(xa >> 16);
 195              		.loc 1 77 0
 196 0048 C5F30740 		ubfx	r0, r5, #16, #8
 197 004c FFF7FEFF 		bl	SPIM_WriteTxData
 198              	.LVL27:
 199              	.L18:
  78:screen.c      ****     while(SS_Read() != 1){}
 200              		.loc 1 78 0 discriminator 1
ARM GAS  C:\Users\legoc\AppData\Local\Temp\ccOlrioX.s 			page 6


 201 0050 FFF7FEFF 		bl	SS_Read
 202              	.LVL28:
 203 0054 0128     		cmp	r0, #1
 204 0056 FBD1     		bne	.L18
  79:screen.c      ****     SPIM_WriteTxData(xa >> 8);
 205              		.loc 1 79 0
 206 0058 C5F30720 		ubfx	r0, r5, #8, #8
 207 005c FFF7FEFF 		bl	SPIM_WriteTxData
 208              	.LVL29:
 209              	.L19:
  80:screen.c      ****     while(SS_Read() != 1){}
 210              		.loc 1 80 0 discriminator 1
 211 0060 FFF7FEFF 		bl	SS_Read
 212              	.LVL30:
 213 0064 0128     		cmp	r0, #1
 214 0066 FBD1     		bne	.L19
  81:screen.c      ****     SPIM_WriteTxData(xa >> 0);
 215              		.loc 1 81 0
 216 0068 E8B2     		uxtb	r0, r5
 217 006a FFF7FEFF 		bl	SPIM_WriteTxData
 218              	.LVL31:
 219              	.L20:
  82:screen.c      ****     while(SS_Read() != 1){}
 220              		.loc 1 82 0 discriminator 1
 221 006e FFF7FEFF 		bl	SS_Read
 222              	.LVL32:
 223 0072 0128     		cmp	r0, #1
 224 0074 FBD1     		bne	.L20
  83:screen.c      ****     SS_Write(1);
 225              		.loc 1 83 0
 226 0076 FFF7FEFF 		bl	SS_Write
 227              	.LVL33:
 228              	.LBB80:
 229              	.LBB81:
  48:screen.c      ****     SPIM_WriteTxData(command);
 230              		.loc 1 48 0
 231 007a 0020     		movs	r0, #0
 232 007c FFF7FEFF 		bl	D_C_Write
 233              	.LVL34:
  49:screen.c      ****     while(SS_Read() != 0){}
 234              		.loc 1 49 0
 235 0080 2B20     		movs	r0, #43
 236 0082 FFF7FEFF 		bl	SPIM_WriteTxData
 237              	.LVL35:
 238              	.L21:
  50:screen.c      ****     while(SS_Read() != 1){}
 239              		.loc 1 50 0
 240 0086 FFF7FEFF 		bl	SS_Read
 241              	.LVL36:
 242 008a 0028     		cmp	r0, #0
 243 008c FBD1     		bne	.L21
 244              	.L22:
  51:screen.c      **** }
 245              		.loc 1 51 0
 246 008e FFF7FEFF 		bl	SS_Read
 247              	.LVL37:
 248 0092 0128     		cmp	r0, #1
ARM GAS  C:\Users\legoc\AppData\Local\Temp\ccOlrioX.s 			page 7


 249 0094 FBD1     		bne	.L22
 250              	.LVL38:
 251              	.LBE81:
 252              	.LBE80:
  84:screen.c      ****     
  85:screen.c      ****     // Page address set
  86:screen.c      ****     writecommand(ILI9341_PASET);
  87:screen.c      ****     
  88:screen.c      ****     // Splits 'y' addresses 32-bit into 4 bytes
  89:screen.c      ****     D_C_Write(1);
 253              		.loc 1 89 0
 254 0096 FFF7FEFF 		bl	D_C_Write
 255              	.LVL39:
  90:screen.c      ****     SS_Write(0);
 256              		.loc 1 90 0
 257 009a 0020     		movs	r0, #0
 258 009c FFF7FEFF 		bl	SS_Write
 259              	.LVL40:
  91:screen.c      ****     SPIM_WriteTxData(ya >> 24);
 260              		.loc 1 91 0
 261 00a0 200E     		lsrs	r0, r4, #24
 262 00a2 FFF7FEFF 		bl	SPIM_WriteTxData
 263              	.LVL41:
 264              	.L23:
  92:screen.c      ****     while(SS_Read() != 1){}
 265              		.loc 1 92 0 discriminator 1
 266 00a6 FFF7FEFF 		bl	SS_Read
 267              	.LVL42:
 268 00aa 0128     		cmp	r0, #1
 269 00ac FBD1     		bne	.L23
  93:screen.c      ****     SPIM_WriteTxData(ya >> 16);
 270              		.loc 1 93 0
 271 00ae C4F30740 		ubfx	r0, r4, #16, #8
 272 00b2 FFF7FEFF 		bl	SPIM_WriteTxData
 273              	.LVL43:
 274              	.L24:
  94:screen.c      ****     while(SS_Read() != 1){}
 275              		.loc 1 94 0 discriminator 1
 276 00b6 FFF7FEFF 		bl	SS_Read
 277              	.LVL44:
 278 00ba 0128     		cmp	r0, #1
 279 00bc FBD1     		bne	.L24
  95:screen.c      ****     SPIM_WriteTxData(ya >> 8);
 280              		.loc 1 95 0
 281 00be C4F30720 		ubfx	r0, r4, #8, #8
 282 00c2 FFF7FEFF 		bl	SPIM_WriteTxData
 283              	.LVL45:
 284              	.L25:
  96:screen.c      ****     while(SS_Read() != 1){}
 285              		.loc 1 96 0 discriminator 1
 286 00c6 FFF7FEFF 		bl	SS_Read
 287              	.LVL46:
 288 00ca 0128     		cmp	r0, #1
 289 00cc FBD1     		bne	.L25
  97:screen.c      ****     SPIM_WriteTxData(ya >> 0);
 290              		.loc 1 97 0
 291 00ce E0B2     		uxtb	r0, r4
ARM GAS  C:\Users\legoc\AppData\Local\Temp\ccOlrioX.s 			page 8


 292 00d0 FFF7FEFF 		bl	SPIM_WriteTxData
 293              	.LVL47:
 294              	.L26:
  98:screen.c      ****     while(SS_Read() != 1){}
 295              		.loc 1 98 0 discriminator 1
 296 00d4 FFF7FEFF 		bl	SS_Read
 297              	.LVL48:
 298 00d8 0128     		cmp	r0, #1
 299 00da FBD1     		bne	.L26
  99:screen.c      ****     SS_Write(1);
 300              		.loc 1 99 0
 301 00dc FFF7FEFF 		bl	SS_Write
 302              	.LVL49:
 303              	.LBB82:
 304              	.LBB83:
  48:screen.c      ****     SPIM_WriteTxData(command);
 305              		.loc 1 48 0
 306 00e0 0020     		movs	r0, #0
 307 00e2 FFF7FEFF 		bl	D_C_Write
 308              	.LVL50:
  49:screen.c      ****     while(SS_Read() != 0){}
 309              		.loc 1 49 0
 310 00e6 2C20     		movs	r0, #44
 311 00e8 FFF7FEFF 		bl	SPIM_WriteTxData
 312              	.LVL51:
 313              	.L27:
  50:screen.c      ****     while(SS_Read() != 1){}
 314              		.loc 1 50 0
 315 00ec FFF7FEFF 		bl	SS_Read
 316              	.LVL52:
 317 00f0 0028     		cmp	r0, #0
 318 00f2 FBD1     		bne	.L27
 319              	.L28:
  51:screen.c      **** }
 320              		.loc 1 51 0
 321 00f4 FFF7FEFF 		bl	SS_Read
 322              	.LVL53:
 323 00f8 0128     		cmp	r0, #1
 324 00fa FBD1     		bne	.L28
 325              	.LBE83:
 326              	.LBE82:
 100:screen.c      ****     
 101:screen.c      ****     writecommand(ILI9341_RAMWR);
 102:screen.c      **** }
 327              		.loc 1 102 0
 328 00fc 38BD     		pop	{r3, r4, r5, pc}
 329              		.cfi_endproc
 330              	.LFE3:
 331              		.size	setAddrWindow, .-setAddrWindow
 332 00fe 00BF     		.section	.text.draw_rect,"ax",%progbits
 333              		.align	2
 334              		.global	draw_rect
 335              		.thumb
 336              		.thumb_func
 337              		.type	draw_rect, %function
 338              	draw_rect:
 339              	.LFB4:
ARM GAS  C:\Users\legoc\AppData\Local\Temp\ccOlrioX.s 			page 9


 103:screen.c      **** 
 104:screen.c      **** // Fills in a rectangle of color on the screen
 105:screen.c      **** void draw_rect(int16_t x, int16_t y, int16_t w, int16_t h,
 106:screen.c      ****   uint16_t color) 
 107:screen.c      **** {
 340              		.loc 1 107 0
 341              		.cfi_startproc
 342              		@ args = 4, pretend = 0, frame = 0
 343              		@ frame_needed = 0, uses_anonymous_args = 0
 344              	.LVL54:
 345 0000 2DE9F041 		push	{r4, r5, r6, r7, r8, lr}
 346              		.cfi_def_cfa_offset 24
 347              		.cfi_offset 4, -24
 348              		.cfi_offset 5, -20
 349              		.cfi_offset 6, -16
 350              		.cfi_offset 7, -12
 351              		.cfi_offset 8, -8
 352              		.cfi_offset 14, -4
 108:screen.c      **** 
 109:screen.c      ****     // rudimentary clipping (drawChar w/big text requires this)
 110:screen.c      ****     if((x >= _width) || (y >= _height)) return;
 353              		.loc 1 110 0
 354 0004 EF28     		cmp	r0, #239
 107:screen.c      **** 
 355              		.loc 1 107 0
 356 0006 BDF81850 		ldrh	r5, [sp, #24]
 357              		.loc 1 110 0
 358 000a 4ADC     		bgt	.L44
 359              		.loc 1 110 0 is_stmt 0 discriminator 1
 360 000c B1F5A07F 		cmp	r1, #320
 361 0010 47DA     		bge	.L44
 362 0012 9846     		mov	r8, r3
 363              	.LVL55:
 364 0014 1746     		mov	r7, r2
 365              	.LBB86:
 366              	.LBB87:
 111:screen.c      ****     if((x + w - 1) >= _width)  w = _width  - x;
 367              		.loc 1 111 0 is_stmt 1
 368 0016 8318     		adds	r3, r0, r2
 369              	.LVL56:
 370 0018 F02B     		cmp	r3, #240
 371 001a 80B2     		uxth	r0, r0
 372 001c C8BF     		it	gt
 373 001e C0F1F007 		rsbgt	r7, r0, #240
 112:screen.c      ****     if((y + h - 1) >= _height) h = _height - y;
 374              		.loc 1 112 0
 375 0022 01EB0803 		add	r3, r1, r8
 111:screen.c      ****     if((x + w - 1) >= _width)  w = _width  - x;
 376              		.loc 1 111 0
 377 0026 C8BF     		it	gt
 378 0028 3FB2     		sxthgt	r7, r7
 379              	.LVL57:
 380              		.loc 1 112 0
 381 002a 89B2     		uxth	r1, r1
 382 002c B3F5A07F 		cmp	r3, #320
 383 0030 C4BF     		itt	gt
 384 0032 C1F5A073 		rsbgt	r3, r1, #320
ARM GAS  C:\Users\legoc\AppData\Local\Temp\ccOlrioX.s 			page 10


 385 0036 0FFA83F8 		sxthgt	r8, r3
 386              	.LVL58:
 113:screen.c      **** 
 114:screen.c      ****     // Sets addresses in memory to write to
 115:screen.c      ****     setAddrWindow(x, y, w, h);
 387              		.loc 1 115 0
 388 003a 1FFA88F3 		uxth	r3, r8
 389 003e BAB2     		uxth	r2, r7
 390              	.LVL59:
 391 0040 FFF7FEFF 		bl	setAddrWindow
 392              	.LVL60:
 116:screen.c      **** 
 117:screen.c      ****     // Splits color into two bytes
 118:screen.c      ****     uint8_t hi = color >> 8, lo = color;
 119:screen.c      ****     
 120:screen.c      ****     #if defined (SPI_HAS_TRANSACTION)
 121:screen.c      ****       if (hwSPI)      SPI.beginTransaction(mySPISettings);
 122:screen.c      ****     #endif
 123:screen.c      **** 
 124:screen.c      ****     D_C_Write(1);
 393              		.loc 1 124 0
 394 0044 0120     		movs	r0, #1
 395 0046 FFF7FEFF 		bl	D_C_Write
 396              	.LVL61:
 125:screen.c      ****     SS_Write(0);
 397              		.loc 1 125 0
 398 004a 0020     		movs	r0, #0
 399 004c FFF7FEFF 		bl	SS_Write
 400              	.LVL62:
 126:screen.c      ****     // Writes color to addresses
 127:screen.c      ****     for(y=h; y>0; y--) 
 401              		.loc 1 127 0
 402 0050 B8F1000F 		cmp	r8, #0
 118:screen.c      ****     
 403              		.loc 1 118 0
 404 0054 4FEA1526 		lsr	r6, r5, #8
 405              	.LVL63:
 406 0058 EDB2     		uxtb	r5, r5
 407              	.LVL64:
 408              		.loc 1 127 0
 409 005a 1DDD     		ble	.L51
 410              	.LVL65:
 411              	.L55:
 128:screen.c      ****     {
 129:screen.c      ****         for(x=w; x>0; x--) 
 412              		.loc 1 129 0
 413 005c 002F     		cmp	r7, #0
 414 005e C8BF     		it	gt
 415 0060 3C46     		movgt	r4, r7
 416 0062 12DD     		ble	.L57
 417              	.LVL66:
 418              	.L54:
 130:screen.c      ****         {
 131:screen.c      ****             SPIM_WriteTxData(hi);
 419              		.loc 1 131 0
 420 0064 3046     		mov	r0, r6
 421 0066 FFF7FEFF 		bl	SPIM_WriteTxData
ARM GAS  C:\Users\legoc\AppData\Local\Temp\ccOlrioX.s 			page 11


 422              	.LVL67:
 423              	.L52:
 132:screen.c      ****             while(SS_Read() != 1){}
 424              		.loc 1 132 0
 425 006a FFF7FEFF 		bl	SS_Read
 426              	.LVL68:
 427 006e 0128     		cmp	r0, #1
 428 0070 FBD1     		bne	.L52
 133:screen.c      ****             SPIM_WriteTxData(lo);
 429              		.loc 1 133 0
 430 0072 2846     		mov	r0, r5
 431 0074 FFF7FEFF 		bl	SPIM_WriteTxData
 432              	.LVL69:
 433              	.L53:
 134:screen.c      ****             while(SS_Read() != 1){}
 434              		.loc 1 134 0
 435 0078 FFF7FEFF 		bl	SS_Read
 436              	.LVL70:
 437 007c 0128     		cmp	r0, #1
 438 007e FBD1     		bne	.L53
 439 0080 013C     		subs	r4, r4, #1
 440              	.LVL71:
 441 0082 A3B2     		uxth	r3, r4
 442 0084 1CB2     		sxth	r4, r3
 443              	.LVL72:
 129:screen.c      ****         {
 444              		.loc 1 129 0
 445 0086 002B     		cmp	r3, #0
 446 0088 ECD1     		bne	.L54
 447              	.LVL73:
 448              	.L57:
 449 008a 08F1FF33 		add	r3, r8, #-1
 450 008e 9BB2     		uxth	r3, r3
 451 0090 0FFA83F8 		sxth	r8, r3
 452              	.LVL74:
 127:screen.c      ****     {
 453              		.loc 1 127 0
 454 0094 002B     		cmp	r3, #0
 455 0096 E1D1     		bne	.L55
 456              	.L51:
 135:screen.c      ****         }
 136:screen.c      ****     }
 137:screen.c      ****     SS_Write(1);
 457              		.loc 1 137 0
 458 0098 0120     		movs	r0, #1
 459              	.LBE87:
 460              	.LBE86:
 138:screen.c      **** 
 139:screen.c      ****     #if defined (SPI_HAS_TRANSACTION)
 140:screen.c      ****       if (hwSPI)      SPI.endTransaction();
 141:screen.c      ****     #endif
 142:screen.c      **** }
 461              		.loc 1 142 0
 462 009a BDE8F041 		pop	{r4, r5, r6, r7, r8, lr}
 463              		.cfi_remember_state
 464              		.cfi_restore 14
 465              		.cfi_restore 8
ARM GAS  C:\Users\legoc\AppData\Local\Temp\ccOlrioX.s 			page 12


 466              		.cfi_restore 7
 467              		.cfi_restore 6
 468              		.cfi_restore 5
 469              		.cfi_restore 4
 470              		.cfi_def_cfa_offset 0
 471              	.LVL75:
 472              	.LBB89:
 473              	.LBB88:
 137:screen.c      **** 
 474              		.loc 1 137 0
 475 009e FFF7FEBF 		b	SS_Write
 476              	.LVL76:
 477              	.L44:
 478              		.cfi_restore_state
 479 00a2 BDE8F081 		pop	{r4, r5, r6, r7, r8, pc}
 480              	.LBE88:
 481              	.LBE89:
 482              		.cfi_endproc
 483              	.LFE4:
 484              		.size	draw_rect, .-draw_rect
 485 00a6 00BF     		.section	.text.fill_rect,"ax",%progbits
 486              		.align	2
 487              		.global	fill_rect
 488              		.thumb
 489              		.thumb_func
 490              		.type	fill_rect, %function
 491              	fill_rect:
 492              	.LFB5:
 143:screen.c      **** 
 144:screen.c      **** 
 145:screen.c      **** 
 146:screen.c      **** void fill_rect(int16_t x, int16_t y, int16_t w, int16_t h,
 147:screen.c      ****   uint16_t color)
 148:screen.c      **** {
 493              		.loc 1 148 0
 494              		.cfi_startproc
 495              		@ args = 4, pretend = 0, frame = 0
 496              		@ frame_needed = 0, uses_anonymous_args = 0
 497              	.LVL77:
 498 0000 2DE9F041 		push	{r4, r5, r6, r7, r8, lr}
 499              		.cfi_def_cfa_offset 24
 500              		.cfi_offset 4, -24
 501              		.cfi_offset 5, -20
 502              		.cfi_offset 6, -16
 503              		.cfi_offset 7, -12
 504              		.cfi_offset 8, -8
 505              		.cfi_offset 14, -4
 506              		.loc 1 148 0
 507 0004 9046     		mov	r8, r2
 149:screen.c      ****     draw_rect((240-y-h), (320-x-w), h, w, color);
 508              		.loc 1 149 0
 509 0006 9AB2     		uxth	r2, r3
 510              	.LVL78:
 511 0008 1144     		add	r1, r1, r2
 512              	.LVL79:
 148:screen.c      ****     draw_rect((240-y-h), (320-x-w), h, w, color);
 513              		.loc 1 148 0
ARM GAS  C:\Users\legoc\AppData\Local\Temp\ccOlrioX.s 			page 13


 514 000a 1F46     		mov	r7, r3
 515 000c 8BB2     		uxth	r3, r1
 516              	.LVL80:
 517              		.loc 1 149 0
 518 000e C3F1F004 		rsb	r4, r3, #240
 519 0012 A4B2     		uxth	r4, r4
 520 0014 0FFA84FE 		sxth	lr, r4
 521 0018 1FFA88F6 		uxth	r6, r8
 522              	.LBB96:
 523              	.LBB97:
 110:screen.c      ****     if((x + w - 1) >= _width)  w = _width  - x;
 524              		.loc 1 110 0
 525 001c BEF1EF0F 		cmp	lr, #239
 526 0020 3044     		add	r0, r0, r6
 527              	.LVL81:
 528              	.LBE97:
 529              	.LBE96:
 148:screen.c      ****     draw_rect((240-y-h), (320-x-w), h, w, color);
 530              		.loc 1 148 0
 531 0022 BDF81850 		ldrh	r5, [sp, #24]
 532              	.LVL82:
 533              	.LBB105:
 534              	.LBB102:
 110:screen.c      ****     if((x + w - 1) >= _width)  w = _width  - x;
 535              		.loc 1 110 0
 536 0026 08DC     		bgt	.L63
 537 0028 80B2     		uxth	r0, r0
 538              	.LBE102:
 539              	.LBE105:
 540              		.loc 1 149 0
 541 002a C0F5A071 		rsb	r1, r0, #320
 542 002e 89B2     		uxth	r1, r1
 543 0030 0FFA81FC 		sxth	ip, r1
 544              	.LBB106:
 545              	.LBB103:
 110:screen.c      ****     if((x + w - 1) >= _width)  w = _width  - x;
 546              		.loc 1 110 0
 547 0034 BCF5A07F 		cmp	ip, #320
 548 0038 01DB     		blt	.L82
 549              	.LVL83:
 550              	.L63:
 551 003a BDE8F081 		pop	{r4, r5, r6, r7, r8, pc}
 552              	.LVL84:
 553              	.L82:
 554              	.LBB98:
 555              	.LBB99:
 111:screen.c      ****     if((y + h - 1) >= _height) h = _height - y;
 556              		.loc 1 111 0
 557 003e BE44     		add	lr, lr, r7
 558              	.LVL85:
 559 0040 BEF1F00F 		cmp	lr, #240
 112:screen.c      **** 
 560              		.loc 1 112 0
 561 0044 C444     		add	ip, ip, r8
 111:screen.c      ****     if((y + h - 1) >= _height) h = _height - y;
 562              		.loc 1 111 0
 563 0046 C4BF     		itt	gt
ARM GAS  C:\Users\legoc\AppData\Local\Temp\ccOlrioX.s 			page 14


 564 0048 1FB2     		sxthgt	r7, r3
 565              	.LVL86:
 566 004a 1A46     		movgt	r2, r3
 567              	.LVL87:
 112:screen.c      **** 
 568              		.loc 1 112 0
 569 004c BCF5A07F 		cmp	ip, #320
 570 0050 C6BF     		itte	gt
 571 0052 0FFA80F8 		sxthgt	r8, r0
 572              	.LVL88:
 573 0056 0346     		movgt	r3, r0
 574 0058 3346     		movle	r3, r6
 115:screen.c      **** 
 575              		.loc 1 115 0
 576 005a 2046     		mov	r0, r4
 577              	.LVL89:
 578 005c FFF7FEFF 		bl	setAddrWindow
 579              	.LVL90:
 124:screen.c      ****     SS_Write(0);
 580              		.loc 1 124 0
 581 0060 0120     		movs	r0, #1
 582 0062 FFF7FEFF 		bl	D_C_Write
 583              	.LVL91:
 125:screen.c      ****     // Writes color to addresses
 584              		.loc 1 125 0
 585 0066 0020     		movs	r0, #0
 586 0068 FFF7FEFF 		bl	SS_Write
 587              	.LVL92:
 127:screen.c      ****     {
 588              		.loc 1 127 0
 589 006c B8F1000F 		cmp	r8, #0
 118:screen.c      ****     
 590              		.loc 1 118 0
 591 0070 4FEA1526 		lsr	r6, r5, #8
 592              	.LVL93:
 593 0074 EDB2     		uxtb	r5, r5
 594              	.LVL94:
 127:screen.c      ****     {
 595              		.loc 1 127 0
 596 0076 1DDD     		ble	.L68
 597              	.LVL95:
 598              	.L72:
 129:screen.c      ****         {
 599              		.loc 1 129 0
 600 0078 002F     		cmp	r7, #0
 601 007a C8BF     		it	gt
 602 007c 3C46     		movgt	r4, r7
 603 007e 12DD     		ble	.L74
 604              	.LVL96:
 605              	.L71:
 131:screen.c      ****             while(SS_Read() != 1){}
 606              		.loc 1 131 0
 607 0080 3046     		mov	r0, r6
 608 0082 FFF7FEFF 		bl	SPIM_WriteTxData
 609              	.LVL97:
 610              	.L69:
 132:screen.c      ****             SPIM_WriteTxData(lo);
ARM GAS  C:\Users\legoc\AppData\Local\Temp\ccOlrioX.s 			page 15


 611              		.loc 1 132 0
 612 0086 FFF7FEFF 		bl	SS_Read
 613              	.LVL98:
 614 008a 0128     		cmp	r0, #1
 615 008c FBD1     		bne	.L69
 133:screen.c      ****             while(SS_Read() != 1){}
 616              		.loc 1 133 0
 617 008e 2846     		mov	r0, r5
 618 0090 FFF7FEFF 		bl	SPIM_WriteTxData
 619              	.LVL99:
 620              	.L70:
 134:screen.c      ****         }
 621              		.loc 1 134 0
 622 0094 FFF7FEFF 		bl	SS_Read
 623              	.LVL100:
 624 0098 0128     		cmp	r0, #1
 625 009a FBD1     		bne	.L70
 626 009c 013C     		subs	r4, r4, #1
 627              	.LVL101:
 628 009e A3B2     		uxth	r3, r4
 629 00a0 1CB2     		sxth	r4, r3
 630              	.LVL102:
 129:screen.c      ****         {
 631              		.loc 1 129 0
 632 00a2 002B     		cmp	r3, #0
 633 00a4 ECD1     		bne	.L71
 634              	.LVL103:
 635              	.L74:
 636 00a6 08F1FF33 		add	r3, r8, #-1
 637 00aa 9BB2     		uxth	r3, r3
 638 00ac 0FFA83F8 		sxth	r8, r3
 639              	.LVL104:
 127:screen.c      ****     {
 640              		.loc 1 127 0
 641 00b0 002B     		cmp	r3, #0
 642 00b2 E1D1     		bne	.L72
 643              	.L68:
 137:screen.c      **** 
 644              		.loc 1 137 0
 645 00b4 0120     		movs	r0, #1
 646              	.LBE99:
 647              	.LBE98:
 648              	.LBE103:
 649              	.LBE106:
 150:screen.c      **** }
 650              		.loc 1 150 0
 651 00b6 BDE8F041 		pop	{r4, r5, r6, r7, r8, lr}
 652              		.cfi_restore 14
 653              		.cfi_restore 8
 654              		.cfi_restore 7
 655              		.cfi_restore 6
 656              		.cfi_restore 5
 657              		.cfi_restore 4
 658              		.cfi_def_cfa_offset 0
 659              	.LVL105:
 660              	.LBB107:
 661              	.LBB104:
ARM GAS  C:\Users\legoc\AppData\Local\Temp\ccOlrioX.s 			page 16


 662              	.LBB101:
 663              	.LBB100:
 137:screen.c      **** 
 664              		.loc 1 137 0
 665 00ba FFF7FEBF 		b	SS_Write
 666              	.LVL106:
 667              	.LBE100:
 668              	.LBE101:
 669              	.LBE104:
 670              	.LBE107:
 671              		.cfi_endproc
 672              	.LFE5:
 673              		.size	fill_rect, .-fill_rect
 674 00be 00BF     		.section	.text.fill_screen,"ax",%progbits
 675              		.align	2
 676              		.global	fill_screen
 677              		.thumb
 678              		.thumb_func
 679              		.type	fill_screen, %function
 680              	fill_screen:
 681              	.LFB6:
 151:screen.c      **** 
 152:screen.c      **** // Fills screen a single color
 153:screen.c      **** void fill_screen(uint16_t color) 
 154:screen.c      **** {
 682              		.loc 1 154 0
 683              		.cfi_startproc
 684              		@ args = 0, pretend = 0, frame = 0
 685              		@ frame_needed = 0, uses_anonymous_args = 0
 686              	.LVL107:
 687              	.LBB113:
 688              	.LBB114:
 689              	.LBB115:
 690              	.LBB116:
 691              	.LBB117:
 115:screen.c      **** 
 692              		.loc 1 115 0
 693 0000 0021     		movs	r1, #0
 694              	.LBE117:
 695              	.LBE116:
 696              	.LBE115:
 697              	.LBE114:
 698              	.LBE113:
 699              		.loc 1 154 0
 700 0002 F8B5     		push	{r3, r4, r5, r6, r7, lr}
 701              		.cfi_def_cfa_offset 24
 702              		.cfi_offset 3, -24
 703              		.cfi_offset 4, -20
 704              		.cfi_offset 5, -16
 705              		.cfi_offset 6, -12
 706              		.cfi_offset 7, -8
 707              		.cfi_offset 14, -4
 708              	.LBB134:
 709              	.LBB130:
 710              	.LBB126:
 711              	.LBB122:
 712              	.LBB118:
ARM GAS  C:\Users\legoc\AppData\Local\Temp\ccOlrioX.s 			page 17


 115:screen.c      **** 
 713              		.loc 1 115 0
 714 0004 F022     		movs	r2, #240
 715              	.LBE118:
 716              	.LBE122:
 717              	.LBE126:
 718              	.LBE130:
 719              	.LBE134:
 720              		.loc 1 154 0
 721 0006 0546     		mov	r5, r0
 722              	.LVL108:
 723              	.LBB135:
 724              	.LBB131:
 725              	.LBB127:
 726              	.LBB123:
 727              	.LBB119:
 115:screen.c      **** 
 728              		.loc 1 115 0
 729 0008 4FF4A073 		mov	r3, #320
 730 000c 0846     		mov	r0, r1
 731              	.LVL109:
 732 000e FFF7FEFF 		bl	setAddrWindow
 733              	.LVL110:
 124:screen.c      ****     SS_Write(0);
 734              		.loc 1 124 0
 735 0012 0120     		movs	r0, #1
 736 0014 FFF7FEFF 		bl	D_C_Write
 737              	.LVL111:
 125:screen.c      ****     // Writes color to addresses
 738              		.loc 1 125 0
 739 0018 0020     		movs	r0, #0
 740 001a FFF7FEFF 		bl	SS_Write
 741              	.LVL112:
 118:screen.c      ****     
 742              		.loc 1 118 0
 743 001e 2E0A     		lsrs	r6, r5, #8
 744              	.LVL113:
 125:screen.c      ****     // Writes color to addresses
 745              		.loc 1 125 0
 746 0020 4FF4A077 		mov	r7, #320
 118:screen.c      ****     
 747              		.loc 1 118 0
 748 0024 EDB2     		uxtb	r5, r5
 749              	.LVL114:
 750              	.L84:
 751              	.LBE119:
 752              	.LBE123:
 753              	.LBE127:
 754              	.LBE131:
 755              	.LBE135:
 756              		.loc 1 154 0
 757 0026 F024     		movs	r4, #240
 758              	.LVL115:
 759              	.L87:
 760              	.LBB136:
 761              	.LBB132:
 762              	.LBB128:
ARM GAS  C:\Users\legoc\AppData\Local\Temp\ccOlrioX.s 			page 18


 763              	.LBB124:
 764              	.LBB120:
 131:screen.c      ****             while(SS_Read() != 1){}
 765              		.loc 1 131 0
 766 0028 3046     		mov	r0, r6
 767 002a FFF7FEFF 		bl	SPIM_WriteTxData
 768              	.LVL116:
 769              	.L85:
 132:screen.c      ****             SPIM_WriteTxData(lo);
 770              		.loc 1 132 0
 771 002e FFF7FEFF 		bl	SS_Read
 772              	.LVL117:
 773 0032 0128     		cmp	r0, #1
 774 0034 FBD1     		bne	.L85
 133:screen.c      ****             while(SS_Read() != 1){}
 775              		.loc 1 133 0
 776 0036 2846     		mov	r0, r5
 777 0038 FFF7FEFF 		bl	SPIM_WriteTxData
 778              	.LVL118:
 779              	.L86:
 134:screen.c      ****         }
 780              		.loc 1 134 0
 781 003c FFF7FEFF 		bl	SS_Read
 782              	.LVL119:
 783 0040 0128     		cmp	r0, #1
 784 0042 FBD1     		bne	.L86
 785 0044 013C     		subs	r4, r4, #1
 786 0046 A4B2     		uxth	r4, r4
 129:screen.c      ****         {
 787              		.loc 1 129 0
 788 0048 002C     		cmp	r4, #0
 789 004a EDD1     		bne	.L87
 790 004c 013F     		subs	r7, r7, #1
 791 004e BFB2     		uxth	r7, r7
 127:screen.c      ****     {
 792              		.loc 1 127 0
 793 0050 002F     		cmp	r7, #0
 794 0052 E8D1     		bne	.L84
 795              	.LBE120:
 796              	.LBE124:
 797              	.LBE128:
 798              	.LBE132:
 799              	.LBE136:
 155:screen.c      ****   fill_rect(0, 0,  _height, _width, color);
 156:screen.c      **** }
 800              		.loc 1 156 0
 801 0054 BDE8F840 		pop	{r3, r4, r5, r6, r7, lr}
 802              		.cfi_restore 14
 803              		.cfi_restore 7
 804              		.cfi_restore 6
 805              		.cfi_restore 5
 806              		.cfi_restore 4
 807              		.cfi_restore 3
 808              		.cfi_def_cfa_offset 0
 809              	.LVL120:
 810              	.LBB137:
 811              	.LBB133:
ARM GAS  C:\Users\legoc\AppData\Local\Temp\ccOlrioX.s 			page 19


 812              	.LBB129:
 813              	.LBB125:
 814              	.LBB121:
 137:screen.c      **** 
 815              		.loc 1 137 0
 816 0058 FFF7FEBF 		b	SS_Write
 817              	.LVL121:
 818              	.LBE121:
 819              	.LBE125:
 820              	.LBE129:
 821              	.LBE133:
 822              	.LBE137:
 823              		.cfi_endproc
 824              	.LFE6:
 825              		.size	fill_screen, .-fill_screen
 826              		.section	.text.StartScreen,"ax",%progbits
 827              		.align	2
 828              		.global	StartScreen
 829              		.thumb
 830              		.thumb_func
 831              		.type	StartScreen, %function
 832              	StartScreen:
 833              	.LFB7:
 157:screen.c      **** 
 158:screen.c      **** // Sends commands and data to configure screen for display
 159:screen.c      **** void StartScreen() 
 160:screen.c      **** {
 834              		.loc 1 160 0
 835              		.cfi_startproc
 836              		@ args = 0, pretend = 0, frame = 0
 837              		@ frame_needed = 0, uses_anonymous_args = 0
 838              	.LVL122:
 839 0000 2DE9F843 		push	{r3, r4, r5, r6, r7, r8, r9, lr}
 840              		.cfi_def_cfa_offset 32
 841              		.cfi_offset 3, -32
 842              		.cfi_offset 4, -28
 843              		.cfi_offset 5, -24
 844              		.cfi_offset 6, -20
 845              		.cfi_offset 7, -16
 846              		.cfi_offset 8, -12
 847              		.cfi_offset 9, -8
 848              		.cfi_offset 14, -4
 161:screen.c      ****     uint8_t        cmd, x, numArgs;
 162:screen.c      ****     const uint8_t *addr = initcmd;
 849              		.loc 1 162 0
 850 0004 1F4E     		ldr	r6, .L111
 160:screen.c      ****     uint8_t        cmd, x, numArgs;
 851              		.loc 1 160 0
 852 0006 EF24     		movs	r4, #239
 853              	.LVL123:
 854              	.L101:
 855              	.LBB142:
 856              	.LBB143:
  48:screen.c      ****     SPIM_WriteTxData(command);
 857              		.loc 1 48 0
 858 0008 0020     		movs	r0, #0
 859 000a FFF7FEFF 		bl	D_C_Write
ARM GAS  C:\Users\legoc\AppData\Local\Temp\ccOlrioX.s 			page 20


 860              	.LVL124:
  49:screen.c      ****     while(SS_Read() != 0){}
 861              		.loc 1 49 0
 862 000e 2046     		mov	r0, r4
 863 0010 FFF7FEFF 		bl	SPIM_WriteTxData
 864              	.LVL125:
 865              	.L94:
  50:screen.c      ****     while(SS_Read() != 1){}
 866              		.loc 1 50 0
 867 0014 FFF7FEFF 		bl	SS_Read
 868              	.LVL126:
 869 0018 0028     		cmp	r0, #0
 870 001a FBD1     		bne	.L94
 871              	.L95:
  51:screen.c      **** }
 872              		.loc 1 51 0
 873 001c FFF7FEFF 		bl	SS_Read
 874              	.LVL127:
 875 0020 0128     		cmp	r0, #1
 876 0022 FBD1     		bne	.L95
 877              	.LBE143:
 878              	.LBE142:
 163:screen.c      ****     
 164:screen.c      ****     // Iterates through cmd/data array
 165:screen.c      ****     while((cmd = pgm_read_byte(addr++)) > 0) 
 166:screen.c      ****     {
 167:screen.c      ****         writecommand(cmd);
 168:screen.c      ****         x       = pgm_read_byte(addr++);
 879              		.loc 1 168 0
 880 0024 06F10208 		add	r8, r6, #2
 881              	.LVL128:
 882 0028 4446     		mov	r4, r8
 883 002a 96F80190 		ldrb	r9, [r6, #1]	@ zero_extendqisi2
 884              	.LVL129:
 885 002e 09F07F07 		and	r7, r9, #127
 886 0032 BB1C     		adds	r3, r7, #2
 887 0034 1E44     		add	r6, r6, r3
 888              	.LVL130:
 889              	.L96:
 169:screen.c      ****         numArgs = x & 0x7F;
 170:screen.c      ****         while(numArgs--)
 890              		.loc 1 170 0
 891 0036 B442     		cmp	r4, r6
 892 0038 14D0     		beq	.L109
 171:screen.c      ****         {
 172:screen.c      ****             writedata(pgm_read_byte(addr++));
 893              		.loc 1 172 0
 894 003a 14F8015B 		ldrb	r5, [r4], #1	@ zero_extendqisi2
 895              	.LVL131:
 896              	.LBB144:
 897              	.LBB145:
  58:screen.c      ****     SPIM_WriteTxData(data);
 898              		.loc 1 58 0
 899 003e 0120     		movs	r0, #1
 900 0040 FFF7FEFF 		bl	D_C_Write
 901              	.LVL132:
  59:screen.c      ****     while(SS_Read() != 0){}
ARM GAS  C:\Users\legoc\AppData\Local\Temp\ccOlrioX.s 			page 21


 902              		.loc 1 59 0
 903 0044 2846     		mov	r0, r5
 904 0046 FFF7FEFF 		bl	SPIM_WriteTxData
 905              	.LVL133:
 906              	.L97:
  60:screen.c      ****     while(SS_Read() != 1){}
 907              		.loc 1 60 0
 908 004a FFF7FEFF 		bl	SS_Read
 909              	.LVL134:
 910 004e 0028     		cmp	r0, #0
 911 0050 FBD1     		bne	.L97
 912              	.L98:
  61:screen.c      **** }
 913              		.loc 1 61 0
 914 0052 FFF7FEFF 		bl	SS_Read
 915              	.LVL135:
 916 0056 0128     		cmp	r0, #1
 917 0058 EDD0     		beq	.L96
 918 005a FFF7FEFF 		bl	SS_Read
 919              	.LVL136:
 920 005e 0128     		cmp	r0, #1
 921 0060 F7D1     		bne	.L98
 922 0062 E8E7     		b	.L96
 923              	.LVL137:
 924              	.L109:
 925              	.LBE145:
 926              	.LBE144:
 173:screen.c      ****         }
 174:screen.c      ****         if(x & 0x80) CyDelay(120);
 927              		.loc 1 174 0
 928 0064 19F0800F 		tst	r9, #128
 929 0068 08EB0706 		add	r6, r8, r7
 930              	.LVL138:
 931 006c 05D1     		bne	.L110
 932              	.L100:
 933 006e 18F80740 		ldrb	r4, [r8, r7]	@ zero_extendqisi2
 934              	.LVL139:
 165:screen.c      ****     {
 935              		.loc 1 165 0
 936 0072 002C     		cmp	r4, #0
 937 0074 C8D1     		bne	.L101
 175:screen.c      ****     }
 176:screen.c      **** }
 938              		.loc 1 176 0
 939 0076 BDE8F883 		pop	{r3, r4, r5, r6, r7, r8, r9, pc}
 940              	.LVL140:
 941              	.L110:
 174:screen.c      ****     }
 942              		.loc 1 174 0 discriminator 1
 943 007a 7820     		movs	r0, #120
 944 007c FFF7FEFF 		bl	CyDelay
 945              	.LVL141:
 946 0080 F5E7     		b	.L100
 947              	.L112:
 948 0082 00BF     		.align	2
 949              	.L111:
 950 0084 00000000 		.word	.LANCHOR0
ARM GAS  C:\Users\legoc\AppData\Local\Temp\ccOlrioX.s 			page 22


 951              		.cfi_endproc
 952              	.LFE7:
 953              		.size	StartScreen, .-StartScreen
 954              		.section	.text.change_pixel,"ax",%progbits
 955              		.align	2
 956              		.global	change_pixel
 957              		.thumb
 958              		.thumb_func
 959              		.type	change_pixel, %function
 960              	change_pixel:
 961              	.LFB8:
 177:screen.c      **** 
 178:screen.c      **** void change_pixel(int16_t x, int16_t y, uint16_t color)
 179:screen.c      **** {
 962              		.loc 1 179 0
 963              		.cfi_startproc
 964              		@ args = 0, pretend = 0, frame = 0
 965              		@ frame_needed = 0, uses_anonymous_args = 0
 966              	.LVL142:
 180:screen.c      ****     //Make sure pixel is on screen
 181:screen.c      ****     if((x < 0) ||(x >= _width) || (y < 0) || (y >= _height)) return;
 967              		.loc 1 181 0
 968 0000 80B2     		uxth	r0, r0
 969 0002 EF28     		cmp	r0, #239
 970 0004 03D8     		bhi	.L120
 971              		.loc 1 181 0 is_stmt 0 discriminator 2
 972 0006 89B2     		uxth	r1, r1
 973 0008 B1F5A07F 		cmp	r1, #320
 974 000c 00D3     		bcc	.L121
 975              	.LVL143:
 976              	.L120:
 977 000e 7047     		bx	lr
 978              	.L121:
 179:screen.c      ****     //Make sure pixel is on screen
 979              		.loc 1 179 0 is_stmt 1
 980 0010 10B5     		push	{r4, lr}
 981              		.cfi_def_cfa_offset 8
 982              		.cfi_offset 4, -8
 983              		.cfi_offset 14, -4
 984 0012 1446     		mov	r4, r2
 182:screen.c      **** 
 183:screen.c      ****     //Sets memory address to write to
 184:screen.c      ****     setAddrWindow(x,y,1,1);
 985              		.loc 1 184 0
 986 0014 0123     		movs	r3, #1
 987 0016 1A46     		mov	r2, r3
 988              	.LVL144:
 989 0018 FFF7FEFF 		bl	setAddrWindow
 990              	.LVL145:
 185:screen.c      **** 
 186:screen.c      ****     #if defined (SPI_HAS_TRANSACTION)
 187:screen.c      ****         if (hwSPI)     SPI.beginTransaction(mySPISettings);
 188:screen.c      ****     #endif
 189:screen.c      **** 
 190:screen.c      ****     //Writes 2-byte color to memory
 191:screen.c      ****     D_C_Write(1);
 991              		.loc 1 191 0
ARM GAS  C:\Users\legoc\AppData\Local\Temp\ccOlrioX.s 			page 23


 992 001c 0120     		movs	r0, #1
 993 001e FFF7FEFF 		bl	D_C_Write
 994              	.LVL146:
 192:screen.c      ****     SS_Write(0);
 995              		.loc 1 192 0
 996 0022 0020     		movs	r0, #0
 997 0024 FFF7FEFF 		bl	SS_Write
 998              	.LVL147:
 193:screen.c      ****     SPIM_WriteTxData(color >> 8);
 999              		.loc 1 193 0
 1000 0028 200A     		lsrs	r0, r4, #8
 1001 002a FFF7FEFF 		bl	SPIM_WriteTxData
 1002              	.LVL148:
 1003              	.L115:
 194:screen.c      ****     while(SS_Read() != 1){}
 1004              		.loc 1 194 0 discriminator 1
 1005 002e FFF7FEFF 		bl	SS_Read
 1006              	.LVL149:
 1007 0032 0128     		cmp	r0, #1
 1008 0034 FBD1     		bne	.L115
 1009              	.LVL150:
 1010              	.LBB148:
 1011              	.LBB149:
 195:screen.c      ****     SPIM_WriteTxData(color);
 1012              		.loc 1 195 0
 1013 0036 E0B2     		uxtb	r0, r4
 1014 0038 FFF7FEFF 		bl	SPIM_WriteTxData
 1015              	.LVL151:
 1016              	.L116:
 196:screen.c      ****     while(SS_Read() != 1){}
 1017              		.loc 1 196 0
 1018 003c FFF7FEFF 		bl	SS_Read
 1019              	.LVL152:
 1020 0040 0128     		cmp	r0, #1
 1021 0042 FBD1     		bne	.L116
 1022              	.LBE149:
 1023              	.LBE148:
 197:screen.c      ****     SS_Write(1);
 198:screen.c      **** 
 199:screen.c      ****     #if defined (SPI_HAS_TRANSACTION)
 200:screen.c      ****         if (hwSPI)     SPI.endTransaction();
 201:screen.c      ****     #endif
 202:screen.c      **** }
 1024              		.loc 1 202 0
 1025 0044 BDE81040 		pop	{r4, lr}
 1026              		.cfi_restore 14
 1027              		.cfi_restore 4
 1028              		.cfi_def_cfa_offset 0
 1029              	.LVL153:
 1030              	.LBB151:
 1031              	.LBB150:
 197:screen.c      ****     SS_Write(1);
 1032              		.loc 1 197 0
 1033 0048 FFF7FEBF 		b	SS_Write
 1034              	.LVL154:
 1035              	.LBE150:
 1036              	.LBE151:
ARM GAS  C:\Users\legoc\AppData\Local\Temp\ccOlrioX.s 			page 24


 1037              		.cfi_endproc
 1038              	.LFE8:
 1039              		.size	change_pixel, .-change_pixel
 1040              		.section	.text.draw_pixel,"ax",%progbits
 1041              		.align	2
 1042              		.global	draw_pixel
 1043              		.thumb
 1044              		.thumb_func
 1045              		.type	draw_pixel, %function
 1046              	draw_pixel:
 1047              	.LFB9:
 203:screen.c      **** 
 204:screen.c      **** // Changes pixel color at specified coordinates
 205:screen.c      **** void draw_pixel(int16_t x, int16_t y, uint16_t color) 
 206:screen.c      **** {    
 1048              		.loc 1 206 0
 1049              		.cfi_startproc
 1050              		@ args = 0, pretend = 0, frame = 0
 1051              		@ frame_needed = 0, uses_anonymous_args = 0
 1052              	.LVL155:
 207:screen.c      ****     change_pixel(239-y, 319-x, color);
 1053              		.loc 1 207 0
 1054 0000 C1F1EF01 		rsb	r1, r1, #239
 1055              	.LVL156:
 206:screen.c      ****     change_pixel(239-y, 319-x, color);
 1056              		.loc 1 206 0
 1057 0004 38B5     		push	{r3, r4, r5, lr}
 1058              		.cfi_def_cfa_offset 16
 1059              		.cfi_offset 3, -16
 1060              		.cfi_offset 4, -12
 1061              		.cfi_offset 5, -8
 1062              		.cfi_offset 14, -4
 1063              		.loc 1 207 0
 1064 0006 8CB2     		uxth	r4, r1
 1065              	.LVL157:
 1066              	.LBB156:
 1067              	.LBB157:
 181:screen.c      **** 
 1068              		.loc 1 181 0
 1069 0008 EF2C     		cmp	r4, #239
 1070 000a 24D8     		bhi	.L122
 1071              	.LBE157:
 1072              	.LBE156:
 1073              		.loc 1 207 0
 1074 000c C0F59F70 		rsb	r0, r0, #318
 1075              	.LVL158:
 1076 0010 0130     		adds	r0, r0, #1
 1077 0012 81B2     		uxth	r1, r0
 1078              	.LBB164:
 1079              	.LBB162:
 181:screen.c      **** 
 1080              		.loc 1 181 0
 1081 0014 B1F5A07F 		cmp	r1, #320
 1082 0018 1DD2     		bcs	.L122
 1083 001a 1546     		mov	r5, r2
 184:screen.c      **** 
 1084              		.loc 1 184 0
ARM GAS  C:\Users\legoc\AppData\Local\Temp\ccOlrioX.s 			page 25


 1085 001c 0123     		movs	r3, #1
 1086 001e 1A46     		mov	r2, r3
 1087              	.LVL159:
 1088 0020 2046     		mov	r0, r4
 1089 0022 FFF7FEFF 		bl	setAddrWindow
 1090              	.LVL160:
 191:screen.c      ****     SS_Write(0);
 1091              		.loc 1 191 0
 1092 0026 0120     		movs	r0, #1
 1093 0028 FFF7FEFF 		bl	D_C_Write
 1094              	.LVL161:
 192:screen.c      ****     SPIM_WriteTxData(color >> 8);
 1095              		.loc 1 192 0
 1096 002c 0020     		movs	r0, #0
 1097 002e FFF7FEFF 		bl	SS_Write
 1098              	.LVL162:
 193:screen.c      ****     while(SS_Read() != 1){}
 1099              		.loc 1 193 0
 1100 0032 280A     		lsrs	r0, r5, #8
 1101 0034 FFF7FEFF 		bl	SPIM_WriteTxData
 1102              	.LVL163:
 1103              	.L124:
 194:screen.c      ****     SPIM_WriteTxData(color);
 1104              		.loc 1 194 0
 1105 0038 FFF7FEFF 		bl	SS_Read
 1106              	.LVL164:
 1107 003c 0128     		cmp	r0, #1
 1108 003e FBD1     		bne	.L124
 1109              	.LVL165:
 1110              	.LBB158:
 1111              	.LBB159:
 195:screen.c      ****     while(SS_Read() != 1){}
 1112              		.loc 1 195 0
 1113 0040 E8B2     		uxtb	r0, r5
 1114 0042 FFF7FEFF 		bl	SPIM_WriteTxData
 1115              	.LVL166:
 1116              	.L125:
 196:screen.c      ****     SS_Write(1);
 1117              		.loc 1 196 0
 1118 0046 FFF7FEFF 		bl	SS_Read
 1119              	.LVL167:
 1120 004a 0128     		cmp	r0, #1
 1121 004c FBD1     		bne	.L125
 1122              	.LBE159:
 1123              	.LBE158:
 1124              	.LBE162:
 1125              	.LBE164:
 208:screen.c      **** //    change_pixel(y, x, color);
 209:screen.c      **** }
 1126              		.loc 1 209 0
 1127 004e BDE83840 		pop	{r3, r4, r5, lr}
 1128              		.cfi_remember_state
 1129              		.cfi_restore 14
 1130              		.cfi_restore 5
 1131              		.cfi_restore 4
 1132              		.cfi_restore 3
 1133              		.cfi_def_cfa_offset 0
ARM GAS  C:\Users\legoc\AppData\Local\Temp\ccOlrioX.s 			page 26


 1134              	.LVL168:
 1135              	.LBB165:
 1136              	.LBB163:
 1137              	.LBB161:
 1138              	.LBB160:
 197:screen.c      **** 
 1139              		.loc 1 197 0
 1140 0052 FFF7FEBF 		b	SS_Write
 1141              	.LVL169:
 1142              	.L122:
 1143              		.cfi_restore_state
 1144 0056 38BD     		pop	{r3, r4, r5, pc}
 1145              	.LBE160:
 1146              	.LBE161:
 1147              	.LBE163:
 1148              	.LBE165:
 1149              		.cfi_endproc
 1150              	.LFE9:
 1151              		.size	draw_pixel, .-draw_pixel
 1152              		.section	.text.write_line,"ax",%progbits
 1153              		.align	2
 1154              		.global	write_line
 1155              		.thumb
 1156              		.thumb_func
 1157              		.type	write_line, %function
 1158              	write_line:
 1159              	.LFB10:
 210:screen.c      **** 
 211:screen.c      **** // Draws 1 pixel lines on the screen from one coordinate to another
 212:screen.c      **** void write_line(int16_t x0, int16_t y0, int16_t x1, int16_t y1,
 213:screen.c      ****         uint16_t color) 
 214:screen.c      **** {
 1160              		.loc 1 214 0
 1161              		.cfi_startproc
 1162              		@ args = 4, pretend = 0, frame = 24
 1163              		@ frame_needed = 0, uses_anonymous_args = 0
 1164              	.LVL170:
 1165 0000 2DE9F04F 		push	{r4, r5, r6, r7, r8, r9, r10, fp, lr}
 1166              		.cfi_def_cfa_offset 36
 1167              		.cfi_offset 4, -36
 1168              		.cfi_offset 5, -32
 1169              		.cfi_offset 6, -28
 1170              		.cfi_offset 7, -24
 1171              		.cfi_offset 8, -20
 1172              		.cfi_offset 9, -16
 1173              		.cfi_offset 10, -12
 1174              		.cfi_offset 11, -8
 1175              		.cfi_offset 14, -4
 215:screen.c      ****     int16_t steep = abs(y1 - y0) > abs(x1 - x0);
 1176              		.loc 1 215 0
 1177 0004 C1EB030A 		rsb	r10, r1, r3
 1178 0008 C0EB020B 		rsb	fp, r0, r2
 1179 000c BAF1000F 		cmp	r10, #0
 1180 0010 B8BF     		it	lt
 1181 0012 CAF1000A 		rsblt	r10, r10, #0
 1182 0016 BBF1000F 		cmp	fp, #0
 1183 001a B8BF     		it	lt
ARM GAS  C:\Users\legoc\AppData\Local\Temp\ccOlrioX.s 			page 27


 1184 001c CBF1000B 		rsblt	fp, fp, #0
 1185              	.LVL171:
 214:screen.c      ****     int16_t steep = abs(y1 - y0) > abs(x1 - x0);
 1186              		.loc 1 214 0
 1187 0020 87B0     		sub	sp, sp, #28
 1188              		.cfi_def_cfa_offset 64
 216:screen.c      ****     if (steep) 
 1189              		.loc 1 216 0
 1190 0022 DA45     		cmp	r10, fp
 214:screen.c      ****     int16_t steep = abs(y1 - y0) > abs(x1 - x0);
 1191              		.loc 1 214 0
 1192 0024 9146     		mov	r9, r2
 215:screen.c      ****     int16_t steep = abs(y1 - y0) > abs(x1 - x0);
 1193              		.loc 1 215 0
 1194 0026 1446     		mov	r4, r2
 214:screen.c      ****     int16_t steep = abs(y1 - y0) > abs(x1 - x0);
 1195              		.loc 1 214 0
 1196 0028 8846     		mov	r8, r1
 1197 002a BDF84020 		ldrh	r2, [sp, #64]
 1198              	.LVL172:
 1199              		.loc 1 216 0
 1200 002e 00F39380 		bgt	.L143
 1201 0032 0546     		mov	r5, r0
 1202 0034 5146     		mov	r1, r10
 1203              	.LVL173:
 1204 0036 1C46     		mov	r4, r3
 1205 0038 4046     		mov	r0, r8
 1206              	.LVL174:
 1207              	.L130:
 217:screen.c      ****     {
 218:screen.c      ****         _swap_int16_t(x0, y0);
 219:screen.c      ****         _swap_int16_t(x1, y1);
 220:screen.c      ****     }
 221:screen.c      ****     if (x0 > x1)
 1208              		.loc 1 221 0
 1209 003a 4D45     		cmp	r5, r9
 1210 003c 09DD     		ble	.L131
 1211 003e 4746     		mov	r7, r8
 1212 0040 2E46     		mov	r6, r5
 1213              	.LBB182:
 222:screen.c      ****     {
 223:screen.c      ****         _swap_int16_t(x0, x1);
 224:screen.c      ****         _swap_int16_t(y0, y1);
 1214              		.loc 1 224 0
 1215 0042 9846     		mov	r8, r3
 1216              	.LVL175:
 1217              	.LBE182:
 221:screen.c      ****     {
 1218              		.loc 1 221 0
 1219 0044 4D46     		mov	r5, r9
 1220              	.LVL176:
 1221              	.LBB183:
 1222              		.loc 1 224 0
 1223 0046 3B46     		mov	r3, r7
 1224              	.LVL177:
 1225              	.LBE183:
 221:screen.c      ****     {
ARM GAS  C:\Users\legoc\AppData\Local\Temp\ccOlrioX.s 			page 28


 1226              		.loc 1 221 0
 1227 0048 B146     		mov	r9, r6
 1228              	.LVL178:
 1229 004a 011B     		subs	r1, r0, r4
 1230 004c 0029     		cmp	r1, #0
 1231 004e B8BF     		it	lt
 1232 0050 4942     		rsblt	r1, r1, #0
 1233              	.L131:
 1234              	.LVL179:
 225:screen.c      ****     }
 226:screen.c      **** 
 227:screen.c      ****     int16_t dx, dy;
 228:screen.c      ****     dx = x1 - x0;
 1235              		.loc 1 228 0
 1236 0052 AEB2     		uxth	r6, r5
 1237 0054 C6EB0900 		rsb	r0, r6, r9
 1238 0058 80B2     		uxth	r0, r0
 229:screen.c      ****     dy = abs(y1 - y0);
 230:screen.c      **** 
 231:screen.c      ****     int16_t err = dx / 2;
 1239              		.loc 1 231 0
 1240 005a 04B2     		sxth	r4, r0
 1241 005c 04EBD474 		add	r4, r4, r4, lsr #31
 232:screen.c      ****     int16_t ystep;
 233:screen.c      **** 
 234:screen.c      ****     if (y0 < y1) 
 1242              		.loc 1 234 0
 1243 0060 4345     		cmp	r3, r8
 228:screen.c      ****     dy = abs(y1 - y0);
 1244              		.loc 1 228 0
 1245 0062 0290     		str	r0, [sp, #8]
 1246              	.LVL180:
 231:screen.c      ****     int16_t ystep;
 1247              		.loc 1 231 0
 1248 0064 4FEA6404 		asr	r4, r4, #1
 1249              	.LVL181:
 1250              		.loc 1 234 0
 1251 0068 70DD     		ble	.L155
 1252 006a 0123     		movs	r3, #1
 1253              	.LVL182:
 1254 006c 0393     		str	r3, [sp, #12]
 1255              	.L132:
 1256 006e 8BB2     		uxth	r3, r1
 1257 0070 C6F59F76 		rsb	r6, r6, #318
 1258 0074 0193     		str	r3, [sp, #4]
 1259              	.LBB184:
 1260              	.LBB185:
 1261              	.LBB186:
 1262              	.LBB187:
 193:screen.c      ****     while(SS_Read() != 1){}
 1263              		.loc 1 193 0
 1264 0076 130A     		lsrs	r3, r2, #8
 1265 0078 0136     		adds	r6, r6, #1
 1266 007a 0493     		str	r3, [sp, #16]
 1267              	.LBE187:
 1268              	.LBE186:
 1269              	.LBE185:
ARM GAS  C:\Users\legoc\AppData\Local\Temp\ccOlrioX.s 			page 29


 1270              	.LBE184:
 1271              	.LBB197:
 1272              	.LBB198:
 1273              	.LBB199:
 1274              	.LBB200:
 1275              	.LBB201:
 1276              	.LBB202:
 195:screen.c      ****     while(SS_Read() != 1){}
 1277              		.loc 1 195 0
 1278 007c D3B2     		uxtb	r3, r2
 1279 007e B6B2     		uxth	r6, r6
 1280 0080 0593     		str	r3, [sp, #20]
 1281              	.LVL183:
 1282              	.L140:
 1283              	.LBE202:
 1284              	.LBE201:
 1285              	.LBE200:
 1286              	.LBE199:
 1287              	.LBE198:
 1288              	.LBE197:
 235:screen.c      ****     {
 236:screen.c      ****         ystep = 1;
 237:screen.c      ****     } else {
 238:screen.c      ****         ystep = -1;
 239:screen.c      ****     }
 240:screen.c      **** 
 241:screen.c      ****     for (; x0<=x1; x0++) 
 242:screen.c      ****     {
 243:screen.c      ****         if (steep) 
 1289              		.loc 1 243 0
 1290 0082 DA45     		cmp	r10, fp
 1291 0084 36DD     		ble	.L133
 1292              	.LVL184:
 1293              	.LBB213:
 1294              	.LBB196:
 207:screen.c      **** //    change_pixel(y, x, color);
 1295              		.loc 1 207 0
 1296 0086 A6F15000 		sub	r0, r6, #80
 1297 008a 80B2     		uxth	r0, r0
 1298              	.LBB193:
 1299              	.LBB190:
 181:screen.c      **** 
 1300              		.loc 1 181 0
 1301 008c EF28     		cmp	r0, #239
 1302              	.LBE190:
 1303              	.LBE193:
 207:screen.c      **** //    change_pixel(y, x, color);
 1304              		.loc 1 207 0
 1305 008e 1FFA88F7 		uxth	r7, r8
 1306              	.LVL185:
 1307              	.LBB194:
 1308              	.LBB191:
 181:screen.c      **** 
 1309              		.loc 1 181 0
 1310 0092 20D8     		bhi	.L134
 1311              	.LBE191:
 1312              	.LBE194:
ARM GAS  C:\Users\legoc\AppData\Local\Temp\ccOlrioX.s 			page 30


 207:screen.c      **** //    change_pixel(y, x, color);
 1313              		.loc 1 207 0
 1314 0094 C7F59F71 		rsb	r1, r7, #318
 1315 0098 0131     		adds	r1, r1, #1
 1316 009a 89B2     		uxth	r1, r1
 1317              	.LBB195:
 1318              	.LBB192:
 181:screen.c      **** 
 1319              		.loc 1 181 0
 1320 009c B1F5A07F 		cmp	r1, #320
 1321 00a0 19D2     		bcs	.L134
 184:screen.c      **** 
 1322              		.loc 1 184 0
 1323 00a2 0123     		movs	r3, #1
 1324 00a4 1A46     		mov	r2, r3
 1325 00a6 FFF7FEFF 		bl	setAddrWindow
 1326              	.LVL186:
 191:screen.c      ****     SS_Write(0);
 1327              		.loc 1 191 0
 1328 00aa 0120     		movs	r0, #1
 1329 00ac FFF7FEFF 		bl	D_C_Write
 1330              	.LVL187:
 192:screen.c      ****     SPIM_WriteTxData(color >> 8);
 1331              		.loc 1 192 0
 1332 00b0 0020     		movs	r0, #0
 1333 00b2 FFF7FEFF 		bl	SS_Write
 1334              	.LVL188:
 193:screen.c      ****     while(SS_Read() != 1){}
 1335              		.loc 1 193 0
 1336 00b6 0498     		ldr	r0, [sp, #16]
 1337 00b8 FFF7FEFF 		bl	SPIM_WriteTxData
 1338              	.LVL189:
 1339              	.L135:
 194:screen.c      ****     SPIM_WriteTxData(color);
 1340              		.loc 1 194 0
 1341 00bc FFF7FEFF 		bl	SS_Read
 1342              	.LVL190:
 1343 00c0 0128     		cmp	r0, #1
 1344 00c2 FBD1     		bne	.L135
 1345              	.LVL191:
 1346              	.LBB188:
 1347              	.LBB189:
 195:screen.c      ****     while(SS_Read() != 1){}
 1348              		.loc 1 195 0
 1349 00c4 0598     		ldr	r0, [sp, #20]
 1350 00c6 FFF7FEFF 		bl	SPIM_WriteTxData
 1351              	.LVL192:
 1352              	.L136:
 196:screen.c      ****     SS_Write(1);
 1353              		.loc 1 196 0
 1354 00ca FFF7FEFF 		bl	SS_Read
 1355              	.LVL193:
 1356 00ce 0128     		cmp	r0, #1
 1357 00d0 FBD1     		bne	.L136
 1358              	.LVL194:
 1359              	.L153:
 1360              	.LBE189:
ARM GAS  C:\Users\legoc\AppData\Local\Temp\ccOlrioX.s 			page 31


 1361              	.LBE188:
 1362              	.LBE192:
 1363              	.LBE195:
 1364              	.LBE196:
 1365              	.LBE213:
 1366              	.LBB214:
 1367              	.LBB211:
 1368              	.LBB209:
 1369              	.LBB207:
 1370              	.LBB205:
 1371              	.LBB203:
 197:screen.c      **** 
 1372              		.loc 1 197 0
 1373 00d2 FFF7FEFF 		bl	SS_Write
 1374              	.LVL195:
 1375              	.L134:
 1376              	.LBE203:
 1377              	.LBE205:
 1378              	.LBE207:
 1379              	.LBE209:
 1380              	.LBE211:
 1381              	.LBE214:
 244:screen.c      ****         {
 245:screen.c      ****             draw_pixel(y0, x0, color);
 246:screen.c      ****         } else 
 247:screen.c      ****         {
 248:screen.c      ****             draw_pixel(x0, y0, color);
 249:screen.c      ****         }
 250:screen.c      ****         err -= dy;
 1382              		.loc 1 250 0
 1383 00d6 019B     		ldr	r3, [sp, #4]
 1384 00d8 E41A     		subs	r4, r4, r3
 1385              	.LVL196:
 1386 00da A3B2     		uxth	r3, r4
 1387 00dc 1CB2     		sxth	r4, r3
 1388              	.LVL197:
 251:screen.c      ****         if (err < 0) 
 1389              		.loc 1 251 0
 1390 00de 002C     		cmp	r4, #0
 1391 00e0 2CDB     		blt	.L156
 1392              	.L139:
 1393 00e2 0135     		adds	r5, r5, #1
 1394              	.LVL198:
 1395 00e4 2DB2     		sxth	r5, r5
 1396              	.LVL199:
 1397 00e6 013E     		subs	r6, r6, #1
 241:screen.c      ****     {
 1398              		.loc 1 241 0
 1399 00e8 A945     		cmp	r9, r5
 1400 00ea B6B2     		uxth	r6, r6
 1401 00ec C9DA     		bge	.L140
 1402              	.L129:
 252:screen.c      ****         {
 253:screen.c      ****             y0 += ystep;
 254:screen.c      ****             err += dx;
 255:screen.c      ****         }
 256:screen.c      ****     }
ARM GAS  C:\Users\legoc\AppData\Local\Temp\ccOlrioX.s 			page 32


 257:screen.c      **** }
 1403              		.loc 1 257 0
 1404 00ee 07B0     		add	sp, sp, #28
 1405              		.cfi_remember_state
 1406              		.cfi_def_cfa_offset 36
 1407              		@ sp needed
 1408 00f0 BDE8F08F 		pop	{r4, r5, r6, r7, r8, r9, r10, fp, pc}
 1409              	.LVL200:
 1410              	.L133:
 1411              		.cfi_restore_state
 1412              	.LBB215:
 1413              	.LBB212:
 207:screen.c      **** //    change_pixel(y, x, color);
 1414              		.loc 1 207 0
 1415 00f4 1FFA88F7 		uxth	r7, r8
 1416 00f8 C7F1EF00 		rsb	r0, r7, #239
 1417 00fc 80B2     		uxth	r0, r0
 1418              	.LVL201:
 1419              	.LBB210:
 1420              	.LBB208:
 181:screen.c      **** 
 1421              		.loc 1 181 0
 1422 00fe EF28     		cmp	r0, #239
 1423 0100 E9D8     		bhi	.L134
 1424 0102 B6F5A07F 		cmp	r6, #320
 1425 0106 E6D2     		bcs	.L134
 184:screen.c      **** 
 1426              		.loc 1 184 0
 1427 0108 0123     		movs	r3, #1
 1428 010a 1A46     		mov	r2, r3
 1429 010c 3146     		mov	r1, r6
 1430 010e FFF7FEFF 		bl	setAddrWindow
 1431              	.LVL202:
 191:screen.c      ****     SS_Write(0);
 1432              		.loc 1 191 0
 1433 0112 0120     		movs	r0, #1
 1434 0114 FFF7FEFF 		bl	D_C_Write
 1435              	.LVL203:
 192:screen.c      ****     SPIM_WriteTxData(color >> 8);
 1436              		.loc 1 192 0
 1437 0118 0020     		movs	r0, #0
 1438 011a FFF7FEFF 		bl	SS_Write
 1439              	.LVL204:
 193:screen.c      ****     while(SS_Read() != 1){}
 1440              		.loc 1 193 0
 1441 011e 0498     		ldr	r0, [sp, #16]
 1442 0120 FFF7FEFF 		bl	SPIM_WriteTxData
 1443              	.LVL205:
 1444              	.L137:
 194:screen.c      ****     SPIM_WriteTxData(color);
 1445              		.loc 1 194 0
 1446 0124 FFF7FEFF 		bl	SS_Read
 1447              	.LVL206:
 1448 0128 0128     		cmp	r0, #1
 1449 012a FBD1     		bne	.L137
 1450              	.LVL207:
 1451              	.LBB206:
ARM GAS  C:\Users\legoc\AppData\Local\Temp\ccOlrioX.s 			page 33


 1452              	.LBB204:
 195:screen.c      ****     while(SS_Read() != 1){}
 1453              		.loc 1 195 0
 1454 012c 0598     		ldr	r0, [sp, #20]
 1455 012e FFF7FEFF 		bl	SPIM_WriteTxData
 1456              	.LVL208:
 1457              	.L138:
 196:screen.c      ****     SS_Write(1);
 1458              		.loc 1 196 0
 1459 0132 FFF7FEFF 		bl	SS_Read
 1460              	.LVL209:
 1461 0136 0128     		cmp	r0, #1
 1462 0138 FBD1     		bne	.L138
 1463 013a CAE7     		b	.L153
 1464              	.LVL210:
 1465              	.L156:
 1466              	.LBE204:
 1467              	.LBE206:
 1468              	.LBE208:
 1469              	.LBE210:
 1470              	.LBE212:
 1471              	.LBE215:
 253:screen.c      ****             err += dx;
 1472              		.loc 1 253 0
 1473 013c 039A     		ldr	r2, [sp, #12]
 1474 013e 1744     		add	r7, r7, r2
 254:screen.c      ****         }
 1475              		.loc 1 254 0
 1476 0140 029A     		ldr	r2, [sp, #8]
 253:screen.c      ****             err += dx;
 1477              		.loc 1 253 0
 1478 0142 0FFA87F8 		sxth	r8, r7
 1479              	.LVL211:
 254:screen.c      ****         }
 1480              		.loc 1 254 0
 1481 0146 9C18     		adds	r4, r3, r2
 1482              	.LVL212:
 1483 0148 24B2     		sxth	r4, r4
 1484              	.LVL213:
 1485 014a CAE7     		b	.L139
 1486              	.LVL214:
 1487              	.L155:
 241:screen.c      ****     {
 1488              		.loc 1 241 0 discriminator 1
 1489 014c A945     		cmp	r9, r5
 1490 014e CEDB     		blt	.L129
 241:screen.c      ****     {
 1491              		.loc 1 241 0 is_stmt 0
 1492 0150 4FF6FF73 		movw	r3, #65535
 1493              	.LVL215:
 1494 0154 0393     		str	r3, [sp, #12]
 1495 0156 8AE7     		b	.L132
 1496              	.LVL216:
 1497              	.L143:
 1498              	.LBB216:
 219:screen.c      ****     }
 1499              		.loc 1 219 0 is_stmt 1
ARM GAS  C:\Users\legoc\AppData\Local\Temp\ccOlrioX.s 			page 34


 1500 0158 9946     		mov	r9, r3
 1501              	.LBE216:
 1502              	.LBB217:
 218:screen.c      ****         _swap_int16_t(x1, y1);
 1503              		.loc 1 218 0
 1504 015a 0D46     		mov	r5, r1
 1505              	.LBE217:
 1506              	.LBB218:
 219:screen.c      ****     }
 1507              		.loc 1 219 0
 1508 015c 2346     		mov	r3, r4
 1509              	.LVL217:
 1510              	.LBE218:
 1511 015e 5946     		mov	r1, fp
 1512              	.LVL218:
 1513              	.LBB219:
 218:screen.c      ****         _swap_int16_t(x1, y1);
 1514              		.loc 1 218 0
 1515 0160 8046     		mov	r8, r0
 1516 0162 6AE7     		b	.L130
 1517              	.LBE219:
 1518              		.cfi_endproc
 1519              	.LFE10:
 1520              		.size	write_line, .-write_line
 1521              		.section	.text.drawFastHLine,"ax",%progbits
 1522              		.align	2
 1523              		.global	drawFastHLine
 1524              		.thumb
 1525              		.thumb_func
 1526              		.type	drawFastHLine, %function
 1527              	drawFastHLine:
 1528              	.LFB11:
 258:screen.c      ****     
 259:screen.c      **** // Draws horizontal line
 260:screen.c      **** void drawFastHLine(int16_t x, int16_t y,
 261:screen.c      **** int16_t w, uint16_t color)
 262:screen.c      **** {
 1529              		.loc 1 262 0
 1530              		.cfi_startproc
 1531              		@ args = 0, pretend = 0, frame = 0
 1532              		@ frame_needed = 0, uses_anonymous_args = 0
 1533              	.LVL219:
 1534 0000 00B5     		push	{lr}
 1535              		.cfi_def_cfa_offset 4
 1536              		.cfi_offset 14, -4
 263:screen.c      ****     // Calls write_line
 264:screen.c      ****     write_line(x, y, x+w-1, y, color);
 1537              		.loc 1 264 0
 1538 0002 013A     		subs	r2, r2, #1
 1539              	.LVL220:
 262:screen.c      ****     // Calls write_line
 1540              		.loc 1 262 0
 1541 0004 83B0     		sub	sp, sp, #12
 1542              		.cfi_def_cfa_offset 16
 1543              		.loc 1 264 0
 1544 0006 0244     		add	r2, r2, r0
 1545 0008 0093     		str	r3, [sp]
ARM GAS  C:\Users\legoc\AppData\Local\Temp\ccOlrioX.s 			page 35


 1546 000a 12B2     		sxth	r2, r2
 1547 000c 0B46     		mov	r3, r1
 1548              	.LVL221:
 1549 000e FFF7FEFF 		bl	write_line
 1550              	.LVL222:
 265:screen.c      **** }
 1551              		.loc 1 265 0
 1552 0012 03B0     		add	sp, sp, #12
 1553              		.cfi_def_cfa_offset 4
 1554              		@ sp needed
 1555 0014 5DF804FB 		ldr	pc, [sp], #4
 1556              		.cfi_endproc
 1557              	.LFE11:
 1558              		.size	drawFastHLine, .-drawFastHLine
 1559              		.section	.text.drawFastVLine,"ax",%progbits
 1560              		.align	2
 1561              		.global	drawFastVLine
 1562              		.thumb
 1563              		.thumb_func
 1564              		.type	drawFastVLine, %function
 1565              	drawFastVLine:
 1566              	.LFB12:
 266:screen.c      **** 
 267:screen.c      **** // Draws vertical line
 268:screen.c      **** void drawFastVLine(int16_t x, int16_t y,
 269:screen.c      ****         int16_t h, uint16_t color) 
 270:screen.c      **** {
 1567              		.loc 1 270 0
 1568              		.cfi_startproc
 1569              		@ args = 0, pretend = 0, frame = 0
 1570              		@ frame_needed = 0, uses_anonymous_args = 0
 1571              	.LVL223:
 1572 0000 10B5     		push	{r4, lr}
 1573              		.cfi_def_cfa_offset 8
 1574              		.cfi_offset 4, -8
 1575              		.cfi_offset 14, -4
 271:screen.c      ****     // Calls write_line
 272:screen.c      ****     write_line(x, y, x, y+h-1, color);
 1576              		.loc 1 272 0
 1577 0002 013A     		subs	r2, r2, #1
 1578              	.LVL224:
 1579 0004 5418     		adds	r4, r2, r1
 270:screen.c      ****     // Calls write_line
 1580              		.loc 1 270 0
 1581 0006 82B0     		sub	sp, sp, #8
 1582              		.cfi_def_cfa_offset 16
 1583              		.loc 1 272 0
 1584 0008 0093     		str	r3, [sp]
 1585 000a 0246     		mov	r2, r0
 1586 000c 23B2     		sxth	r3, r4
 1587              	.LVL225:
 1588 000e FFF7FEFF 		bl	write_line
 1589              	.LVL226:
 273:screen.c      **** }
 1590              		.loc 1 273 0
 1591 0012 02B0     		add	sp, sp, #8
 1592              		.cfi_def_cfa_offset 8
ARM GAS  C:\Users\legoc\AppData\Local\Temp\ccOlrioX.s 			page 36


 1593              		@ sp needed
 1594 0014 10BD     		pop	{r4, pc}
 1595              		.cfi_endproc
 1596              	.LFE12:
 1597              		.size	drawFastVLine, .-drawFastVLine
 1598 0016 00BF     		.section	.text.draw_line,"ax",%progbits
 1599              		.align	2
 1600              		.global	draw_line
 1601              		.thumb
 1602              		.thumb_func
 1603              		.type	draw_line, %function
 1604              	draw_line:
 1605              	.LFB13:
 274:screen.c      **** 
 275:screen.c      **** // Calls proper way to draw a line
 276:screen.c      **** void draw_line(int16_t x0, int16_t y0, int16_t x1, int16_t y1,
 277:screen.c      ****         uint16_t color)
 278:screen.c      **** {
 1606              		.loc 1 278 0
 1607              		.cfi_startproc
 1608              		@ args = 4, pretend = 0, frame = 0
 1609              		@ frame_needed = 0, uses_anonymous_args = 0
 1610              	.LVL227:
 1611 0000 F0B5     		push	{r4, r5, r6, r7, lr}
 1612              		.cfi_def_cfa_offset 20
 1613              		.cfi_offset 4, -20
 1614              		.cfi_offset 5, -16
 1615              		.cfi_offset 6, -12
 1616              		.cfi_offset 7, -8
 1617              		.cfi_offset 14, -4
 279:screen.c      ****     // Checks is line is vertical
 280:screen.c      ****     if(x0 == x1)
 1618              		.loc 1 280 0
 1619 0002 9042     		cmp	r0, r2
 278:screen.c      ****     // Checks is line is vertical
 1620              		.loc 1 278 0
 1621 0004 0446     		mov	r4, r0
 1622 0006 0E46     		mov	r6, r1
 1623 0008 1F46     		mov	r7, r3
 1624 000a BDF814E0 		ldrh	lr, [sp, #20]
 1625              		.loc 1 280 0
 1626 000e 16D0     		beq	.L167
 281:screen.c      ****     {
 282:screen.c      ****         if(y0 > y1) _swap_int16_t(y0, y1);
 283:screen.c      ****         drawFastVLine(x0, y0, y1 - y0 + 1, color);
 284:screen.c      ****     } 
 285:screen.c      ****     // Checks if line is horizontal
 286:screen.c      ****     else if(y0 == y1)
 1627              		.loc 1 286 0
 1628 0010 9942     		cmp	r1, r3
 1629 0012 05D0     		beq	.L168
 287:screen.c      ****     {
 288:screen.c      ****         if(x0 > x1) _swap_int16_t(x0, x1);
 289:screen.c      ****         drawFastHLine(x0, y0, x1 - x0 + 1, color);
 290:screen.c      ****     } 
 291:screen.c      ****     else 
 292:screen.c      ****     {
ARM GAS  C:\Users\legoc\AppData\Local\Temp\ccOlrioX.s 			page 37


 293:screen.c      ****         write_line(x0, y0, x1, y1, color);
 1630              		.loc 1 293 0
 1631 0014 CDF814E0 		str	lr, [sp, #20]
 1632              	.LVL228:
 294:screen.c      ****     }
 295:screen.c      **** }
 1633              		.loc 1 295 0
 1634 0018 BDE8F040 		pop	{r4, r5, r6, r7, lr}
 1635              		.cfi_remember_state
 1636              		.cfi_restore 14
 1637              		.cfi_restore 7
 1638              		.cfi_restore 6
 1639              		.cfi_restore 5
 1640              		.cfi_restore 4
 1641              		.cfi_def_cfa_offset 0
 293:screen.c      ****     }
 1642              		.loc 1 293 0
 1643 001c FFF7FEBF 		b	write_line
 1644              	.LVL229:
 1645              	.L168:
 1646              		.cfi_restore_state
 288:screen.c      ****         drawFastHLine(x0, y0, x1 - x0 + 1, color);
 1647              		.loc 1 288 0
 1648 0020 9042     		cmp	r0, r2
 1649 0022 1546     		mov	r5, r2
 1650 0024 01DD     		ble	.L165
 1651 0026 1446     		mov	r4, r2
 1652 0028 0546     		mov	r5, r0
 1653              	.L165:
 1654              	.LVL230:
 1655              	.LBB231:
 1656              	.LBB232:
 264:screen.c      **** }
 1657              		.loc 1 264 0
 1658 002a CDF814E0 		str	lr, [sp, #20]
 1659              	.LVL231:
 1660 002e 2A46     		mov	r2, r5
 1661 0030 2046     		mov	r0, r4
 1662 0032 3346     		mov	r3, r6
 1663              	.LVL232:
 1664 0034 3146     		mov	r1, r6
 1665              	.LVL233:
 1666              	.LBE232:
 1667              	.LBE231:
 1668              		.loc 1 295 0
 1669 0036 BDE8F040 		pop	{r4, r5, r6, r7, lr}
 1670              		.cfi_remember_state
 1671              		.cfi_restore 14
 1672              		.cfi_restore 7
 1673              		.cfi_restore 6
 1674              		.cfi_restore 5
 1675              		.cfi_restore 4
 1676              		.cfi_def_cfa_offset 0
 1677              	.LVL234:
 1678              	.LBB234:
 1679              	.LBB233:
 264:screen.c      **** }
ARM GAS  C:\Users\legoc\AppData\Local\Temp\ccOlrioX.s 			page 38


 1680              		.loc 1 264 0
 1681 003a FFF7FEBF 		b	write_line
 1682              	.LVL235:
 1683              	.L167:
 1684              		.cfi_restore_state
 1685              	.LBE233:
 1686              	.LBE234:
 1687              	.LBB235:
 1688              	.LBB236:
 282:screen.c      ****         drawFastVLine(x0, y0, y1 - y0 + 1, color);
 1689              		.loc 1 282 0
 1690 003e 9942     		cmp	r1, r3
 1691 0040 01DD     		ble	.L163
 1692 0042 3E46     		mov	r6, r7
 1693 0044 0F46     		mov	r7, r1
 1694              	.L163:
 1695              	.LVL236:
 1696              	.LBB237:
 1697              	.LBB238:
 272:screen.c      **** }
 1698              		.loc 1 272 0
 1699 0046 CDF814E0 		str	lr, [sp, #20]
 1700              	.LVL237:
 1701 004a 3B46     		mov	r3, r7
 1702              	.LVL238:
 1703 004c 3146     		mov	r1, r6
 1704              	.LVL239:
 1705 004e 2246     		mov	r2, r4
 1706              	.LVL240:
 1707 0050 2046     		mov	r0, r4
 1708              	.LVL241:
 1709              	.LBE238:
 1710              	.LBE237:
 1711              	.LBE236:
 1712              	.LBE235:
 1713              		.loc 1 295 0
 1714 0052 BDE8F040 		pop	{r4, r5, r6, r7, lr}
 1715              		.cfi_restore 14
 1716              		.cfi_restore 7
 1717              		.cfi_restore 6
 1718              		.cfi_restore 5
 1719              		.cfi_restore 4
 1720              		.cfi_def_cfa_offset 0
 1721              	.LVL242:
 1722              	.LBB242:
 1723              	.LBB241:
 1724              	.LBB240:
 1725              	.LBB239:
 272:screen.c      **** }
 1726              		.loc 1 272 0
 1727 0056 FFF7FEBF 		b	write_line
 1728              	.LVL243:
 1729              	.LBE239:
 1730              	.LBE240:
 1731              	.LBE241:
 1732              	.LBE242:
 1733              		.cfi_endproc
ARM GAS  C:\Users\legoc\AppData\Local\Temp\ccOlrioX.s 			page 39


 1734              	.LFE13:
 1735              		.size	draw_line, .-draw_line
 1736 005a 00BF     		.section	.text.draw_button,"ax",%progbits
 1737              		.align	2
 1738              		.global	draw_button
 1739              		.thumb
 1740              		.thumb_func
 1741              		.type	draw_button, %function
 1742              	draw_button:
 1743              	.LFB14:
 296:screen.c      **** 
 297:screen.c      **** void draw_button(int16_t x, int16_t y, int16_t w, int16_t h, 
 298:screen.c      ****         uint16_t button_color, uint16_t text_color, char string[])
 299:screen.c      **** {
 1744              		.loc 1 299 0
 1745              		.cfi_startproc
 1746              		@ args = 12, pretend = 0, frame = 32
 1747              		@ frame_needed = 1, uses_anonymous_args = 0
 1748              	.LVL244:
 1749 0000 2DE9F04F 		push	{r4, r5, r6, r7, r8, r9, r10, fp, lr}
 1750              		.cfi_def_cfa_offset 36
 1751              		.cfi_offset 4, -36
 1752              		.cfi_offset 5, -32
 1753              		.cfi_offset 6, -28
 1754              		.cfi_offset 7, -24
 1755              		.cfi_offset 8, -20
 1756              		.cfi_offset 9, -16
 1757              		.cfi_offset 10, -12
 1758              		.cfi_offset 11, -8
 1759              		.cfi_offset 14, -4
 1760 0004 89B0     		sub	sp, sp, #36
 1761              		.cfi_def_cfa_offset 72
 1762 0006 1C46     		mov	r4, r3
 1763 0008 00AF     		add	r7, sp, #0
 1764              		.cfi_def_cfa_register 7
 1765              		.loc 1 299 0
 1766 000a 7B61     		str	r3, [r7, #20]
 1767              	.LVL245:
 1768 000c 0B46     		mov	r3, r1
 1769              	.LVL246:
 1770 000e 9246     		mov	r10, r2
 1771 0010 F960     		str	r1, [r7, #12]
 1772 0012 0146     		mov	r1, r0
 1773              	.LVL247:
 1774              	.LBB249:
 1775              	.LBB250:
 149:screen.c      **** }
 1776              		.loc 1 149 0
 1777 0014 A2B2     		uxth	r2, r4
 1778              	.LVL248:
 1779 0016 D318     		adds	r3, r2, r3
 1780 0018 9BB2     		uxth	r3, r3
 1781 001a 1FFA8AF6 		uxth	r6, r10
 1782              	.LBE250:
 1783              	.LBE249:
 1784              		.loc 1 299 0
 1785 001e 3861     		str	r0, [r7, #16]
ARM GAS  C:\Users\legoc\AppData\Local\Temp\ccOlrioX.s 			page 40


 1786              	.LVL249:
 1787 0020 7418     		adds	r4, r6, r1
 1788              	.LBB266:
 1789              	.LBB261:
 149:screen.c      **** }
 1790              		.loc 1 149 0
 1791 0022 C3F1F000 		rsb	r0, r3, #240
 1792              	.LVL250:
 1793              	.LBE261:
 1794              	.LBE266:
 1795              		.loc 1 299 0
 1796 0026 B7F84810 		ldrh	r1, [r7, #72]
 1797              	.LBB267:
 1798              	.LBB262:
 149:screen.c      **** }
 1799              		.loc 1 149 0
 1800 002a 80B2     		uxth	r0, r0
 1801 002c 0FFA80FE 		sxth	lr, r0
 1802              	.LBE262:
 1803              	.LBE267:
 1804              		.loc 1 299 0
 1805 0030 7960     		str	r1, [r7, #4]
 1806 0032 B7F84C10 		ldrh	r1, [r7, #76]
 1807              	.LBB268:
 1808              	.LBB263:
 1809              	.LBB251:
 1810              	.LBB252:
 110:screen.c      ****     if((x + w - 1) >= _width)  w = _width  - x;
 1811              		.loc 1 110 0
 1812 0036 BEF1EF0F 		cmp	lr, #239
 1813              	.LBE252:
 1814              	.LBE251:
 1815              	.LBE263:
 1816              	.LBE268:
 1817              		.loc 1 299 0
 1818 003a B960     		str	r1, [r7, #8]
 1819              	.LVL251:
 1820 003c 3D6D     		ldr	r5, [r7, #80]
 1821              	.LBB269:
 1822              	.LBB264:
 1823              	.LBB258:
 1824              	.LBB255:
 110:screen.c      ****     if((x + w - 1) >= _width)  w = _width  - x;
 1825              		.loc 1 110 0
 1826 003e 09DC     		bgt	.L170
 1827 0040 A4B2     		uxth	r4, r4
 1828              	.LBE255:
 1829              	.LBE258:
 149:screen.c      **** }
 1830              		.loc 1 149 0
 1831 0042 C4F5A071 		rsb	r1, r4, #320
 1832 0046 1FFA81F8 		uxth	r8, r1
 1833 004a 0FFA88FC 		sxth	ip, r8
 1834              	.LBB259:
 1835              	.LBB256:
 110:screen.c      ****     if((x + w - 1) >= _width)  w = _width  - x;
 1836              		.loc 1 110 0
ARM GAS  C:\Users\legoc\AppData\Local\Temp\ccOlrioX.s 			page 41


 1837 004e BCF5A07F 		cmp	ip, #320
 1838 0052 35DB     		blt	.L198
 1839              	.LVL252:
 1840              	.L170:
 1841              	.LBE256:
 1842              	.LBE259:
 1843              	.LBE264:
 1844              	.LBE269:
 300:screen.c      ****     //fills in the rectangle on the screen for the button
 301:screen.c      ****     fill_rect(x,y,w,h,button_color);
 302:screen.c      ****     
 303:screen.c      ****     //defines needed variables
 304:screen.c      ****     int rect_center_x = x+(w/2);
 305:screen.c      ****     int rect_center_y = y+(h/2);
 1845              		.loc 1 305 0
 1846 0054 7B69     		ldr	r3, [r7, #20]
 304:screen.c      ****     int rect_center_y = y+(h/2);
 1847              		.loc 1 304 0
 1848 0056 0AEBDA7A 		add	r10, r10, r10, lsr #31
 1849              		.loc 1 305 0
 1850 005a 03EBD371 		add	r1, r3, r3, lsr #31
 304:screen.c      ****     int rect_center_y = y+(h/2);
 1851              		.loc 1 304 0
 1852 005e 3B69     		ldr	r3, [r7, #16]
 306:screen.c      ****     int string_length = 0;
 307:screen.c      ****     
 308:screen.c      ****     //gets the length of the string
 309:screen.c      ****     while(*string != 0)
 1853              		.loc 1 309 0
 1854 0060 2A78     		ldrb	r2, [r5]	@ zero_extendqisi2
 304:screen.c      ****     int rect_center_y = y+(h/2);
 1855              		.loc 1 304 0
 1856 0062 03EB6A04 		add	r4, r3, r10, asr #1
 1857              	.LVL253:
 305:screen.c      ****     int string_length = 0;
 1858              		.loc 1 305 0
 1859 0066 FB68     		ldr	r3, [r7, #12]
 1860 0068 03EB6101 		add	r1, r3, r1, asr #1
 1861              	.LVL254:
 1862              		.loc 1 309 0
 1863 006c 002A     		cmp	r2, #0
 1864 006e 6DD0     		beq	.L181
 1865 0070 0022     		movs	r2, #0
 1866              	.LVL255:
 1867              	.L182:
 1868 0072 15F8013F 		ldrb	r3, [r5, #1]!	@ zero_extendqisi2
 310:screen.c      ****     {
 311:screen.c      ****         string_length++;
 1869              		.loc 1 311 0
 1870 0076 0132     		adds	r2, r2, #1
 1871              	.LVL256:
 309:screen.c      ****     {
 1872              		.loc 1 309 0
 1873 0078 002B     		cmp	r3, #0
 1874 007a FAD1     		bne	.L182
 1875              	.LVL257:
 312:screen.c      ****         string++;
ARM GAS  C:\Users\legoc\AppData\Local\Temp\ccOlrioX.s 			page 42


 313:screen.c      ****     }
 314:screen.c      ****     
 315:screen.c      ****     char the_string[string_length];
 316:screen.c      ****     int i = 0;
 317:screen.c      ****     string = string-string_length; //resets string pointer
 1876              		.loc 1 317 0
 1877 007c AD1A     		subs	r5, r5, r2
 315:screen.c      ****     int i = 0;
 1878              		.loc 1 315 0
 1879 007e D31D     		adds	r3, r2, #7
 1880 0080 23F00703 		bic	r3, r3, #7
 318:screen.c      ****     
 319:screen.c      ****     //recreates the string as a character array
 320:screen.c      ****     while(*string != 0)
 1881              		.loc 1 320 0
 1882 0084 2878     		ldrb	r0, [r5]	@ zero_extendqisi2
 315:screen.c      ****     int i = 0;
 1883              		.loc 1 315 0
 1884 0086 ADEB030D 		sub	sp, sp, r3
 1885 008a 6B46     		mov	r3, sp
 1886              	.LVL258:
 1887 008c 0DF1FF36 		add	r6, sp, #-1
 1888              		.loc 1 320 0
 1889 0090 0028     		cmp	r0, #0
 1890 0092 5ED0     		beq	.L199
 1891              	.LVL259:
 1892              	.L185:
 321:screen.c      ****     {
 322:screen.c      ****         the_string[i] = *string;
 1893              		.loc 1 322 0
 1894 0094 06F8010F 		strb	r0, [r6, #1]!
 320:screen.c      ****     {
 1895              		.loc 1 320 0
 1896 0098 15F8010F 		ldrb	r0, [r5, #1]!	@ zero_extendqisi2
 1897              	.LVL260:
 1898 009c 0028     		cmp	r0, #0
 1899 009e F9D1     		bne	.L185
 1900 00a0 C2EBC202 		rsb	r2, r2, r2, lsl #3
 1901              	.LVL261:
 1902 00a4 02EBD272 		add	r2, r2, r2, lsr #31
 1903 00a8 5010     		asrs	r0, r2, #1
 1904 00aa 4242     		negs	r2, r0
 1905              	.LVL262:
 1906              	.L184:
 323:screen.c      ****         string++;
 324:screen.c      ****         i++;
 325:screen.c      ****     }
 326:screen.c      ****     
 327:screen.c      ****     int pixel_start = rect_center_x - string_length*7/2 + 3;
 328:screen.c      ****     
 329:screen.c      ****     //prints string to center of button rectangle
 330:screen.c      ****     draw_string(pixel_start,rect_center_y-1,text_color,the_string);
 1907              		.loc 1 330 0
 1908 00ac A018     		adds	r0, r4, r2
 1909 00ae 0139     		subs	r1, r1, #1
 1910              	.LVL263:
 1911 00b0 BA68     		ldr	r2, [r7, #8]
ARM GAS  C:\Users\legoc\AppData\Local\Temp\ccOlrioX.s 			page 43


 1912              	.LVL264:
 1913 00b2 0330     		adds	r0, r0, #3
 1914              	.LVL265:
 1915 00b4 FFF7FEFF 		bl	draw_string
 1916              	.LVL266:
 331:screen.c      **** }
 1917              		.loc 1 331 0
 1918 00b8 2437     		adds	r7, r7, #36
 1919              		.cfi_remember_state
 1920              		.cfi_def_cfa_offset 36
 1921 00ba BD46     		mov	sp, r7
 1922              		.cfi_def_cfa_register 13
 1923              		@ sp needed
 1924 00bc BDE8F08F 		pop	{r4, r5, r6, r7, r8, r9, r10, fp, pc}
 1925              	.LVL267:
 1926              	.L198:
 1927              		.cfi_restore_state
 1928              	.LBB270:
 1929              	.LBB265:
 1930              	.LBB260:
 1931              	.LBB257:
 1932              	.LBB253:
 1933              	.LBB254:
 111:screen.c      ****     if((y + h - 1) >= _height) h = _height - y;
 1934              		.loc 1 111 0
 1935 00c0 7969     		ldr	r1, [r7, #20]
 112:screen.c      **** 
 1936              		.loc 1 112 0
 1937 00c2 D444     		add	ip, ip, r10
 111:screen.c      ****     if((y + h - 1) >= _height) h = _height - y;
 1938              		.loc 1 111 0
 1939 00c4 8E44     		add	lr, lr, r1
 1940              	.LVL268:
 1941 00c6 BEF1F00F 		cmp	lr, #240
 1942 00ca C6BF     		itte	gt
 1943 00cc 1A46     		movgt	r2, r3
 1944 00ce 0FFA83FB 		sxthgt	fp, r3
 1945              	.LVL269:
 1946 00d2 8B46     		movle	fp, r1
 1947              	.LVL270:
 112:screen.c      **** 
 1948              		.loc 1 112 0
 1949 00d4 BCF5A07F 		cmp	ip, #320
 1950 00d8 DABF     		itte	le
 1951 00da D146     		movle	r9, r10
 1952 00dc 3346     		movle	r3, r6
 1953 00de 2346     		movgt	r3, r4
 115:screen.c      **** 
 1954              		.loc 1 115 0
 1955 00e0 4146     		mov	r1, r8
 112:screen.c      **** 
 1956              		.loc 1 112 0
 1957 00e2 C8BF     		it	gt
 1958 00e4 0FFA84F9 		sxthgt	r9, r4
 1959              	.LVL271:
 115:screen.c      **** 
 1960              		.loc 1 115 0
ARM GAS  C:\Users\legoc\AppData\Local\Temp\ccOlrioX.s 			page 44


 1961 00e8 FFF7FEFF 		bl	setAddrWindow
 1962              	.LVL272:
 124:screen.c      ****     SS_Write(0);
 1963              		.loc 1 124 0
 1964 00ec 0120     		movs	r0, #1
 1965 00ee FFF7FEFF 		bl	D_C_Write
 1966              	.LVL273:
 118:screen.c      ****     
 1967              		.loc 1 118 0
 1968 00f2 7A68     		ldr	r2, [r7, #4]
 125:screen.c      ****     // Writes color to addresses
 1969              		.loc 1 125 0
 1970 00f4 0020     		movs	r0, #0
 118:screen.c      ****     
 1971              		.loc 1 118 0
 1972 00f6 4FEA1228 		lsr	r8, r2, #8
 1973              	.LVL274:
 1974 00fa D6B2     		uxtb	r6, r2
 1975              	.LVL275:
 125:screen.c      ****     // Writes color to addresses
 1976              		.loc 1 125 0
 1977 00fc FFF7FEFF 		bl	SS_Write
 1978              	.LVL276:
 127:screen.c      ****     {
 1979              		.loc 1 127 0
 1980 0100 B9F1000F 		cmp	r9, #0
 1981 0104 1EDD     		ble	.L174
 1982              	.LVL277:
 1983              	.L178:
 129:screen.c      ****         {
 1984              		.loc 1 129 0
 1985 0106 BBF1000F 		cmp	fp, #0
 1986 010a C8BF     		it	gt
 1987 010c 5C46     		movgt	r4, fp
 1988 010e 12DD     		ble	.L180
 1989              	.LVL278:
 1990              	.L177:
 131:screen.c      ****             while(SS_Read() != 1){}
 1991              		.loc 1 131 0
 1992 0110 4046     		mov	r0, r8
 1993 0112 FFF7FEFF 		bl	SPIM_WriteTxData
 1994              	.LVL279:
 1995              	.L175:
 132:screen.c      ****             SPIM_WriteTxData(lo);
 1996              		.loc 1 132 0
 1997 0116 FFF7FEFF 		bl	SS_Read
 1998              	.LVL280:
 1999 011a 0128     		cmp	r0, #1
 2000 011c FBD1     		bne	.L175
 133:screen.c      ****             while(SS_Read() != 1){}
 2001              		.loc 1 133 0
 2002 011e 3046     		mov	r0, r6
 2003 0120 FFF7FEFF 		bl	SPIM_WriteTxData
 2004              	.LVL281:
 2005              	.L176:
 134:screen.c      ****         }
 2006              		.loc 1 134 0
ARM GAS  C:\Users\legoc\AppData\Local\Temp\ccOlrioX.s 			page 45


 2007 0124 FFF7FEFF 		bl	SS_Read
 2008              	.LVL282:
 2009 0128 0128     		cmp	r0, #1
 2010 012a FBD1     		bne	.L176
 2011 012c 013C     		subs	r4, r4, #1
 2012              	.LVL283:
 2013 012e A3B2     		uxth	r3, r4
 2014 0130 1CB2     		sxth	r4, r3
 2015              	.LVL284:
 129:screen.c      ****         {
 2016              		.loc 1 129 0
 2017 0132 002B     		cmp	r3, #0
 2018 0134 ECD1     		bne	.L177
 2019              	.LVL285:
 2020              	.L180:
 2021 0136 09F1FF33 		add	r3, r9, #-1
 2022 013a 9BB2     		uxth	r3, r3
 2023 013c 0FFA83F9 		sxth	r9, r3
 2024              	.LVL286:
 127:screen.c      ****     {
 2025              		.loc 1 127 0
 2026 0140 002B     		cmp	r3, #0
 2027 0142 E0D1     		bne	.L178
 2028              	.L174:
 137:screen.c      **** 
 2029              		.loc 1 137 0
 2030 0144 0120     		movs	r0, #1
 2031 0146 FFF7FEFF 		bl	SS_Write
 2032              	.LVL287:
 2033 014a 83E7     		b	.L170
 2034              	.LVL288:
 2035              	.L181:
 2036              	.LBE254:
 2037              	.LBE253:
 2038              	.LBE257:
 2039              	.LBE260:
 2040              	.LBE265:
 2041              	.LBE270:
 315:screen.c      ****     int i = 0;
 2042              		.loc 1 315 0
 2043 014c 07F11C03 		add	r3, r7, #28
 2044              	.LVL289:
 2045 0150 ACE7     		b	.L184
 2046              	.LVL290:
 2047              	.L199:
 2048 0152 C2EBC202 		rsb	r2, r2, r2, lsl #3
 2049              	.LVL291:
 2050 0156 02EBD272 		add	r2, r2, r2, lsr #31
 2051 015a 5210     		asrs	r2, r2, #1
 2052 015c 5242     		negs	r2, r2
 2053 015e A5E7     		b	.L184
 2054              		.cfi_endproc
 2055              	.LFE14:
 2056              		.size	draw_button, .-draw_button
 2057              		.global	__aeabi_i2d
 2058              		.global	__aeabi_ddiv
 2059              		.global	__aeabi_d2iz
ARM GAS  C:\Users\legoc\AppData\Local\Temp\ccOlrioX.s 			page 46


 2060              		.section	.text.draw_coordinates,"ax",%progbits
 2061              		.align	2
 2062              		.global	draw_coordinates
 2063              		.thumb
 2064              		.thumb_func
 2065              		.type	draw_coordinates, %function
 2066              	draw_coordinates:
 2067              	.LFB15:
 332:screen.c      **** 
 333:screen.c      **** void draw_coordinates(int y_max, unsigned int device_selection)
 334:screen.c      **** {
 2068              		.loc 1 334 0
 2069              		.cfi_startproc
 2070              		@ args = 0, pretend = 0, frame = 32
 2071              		@ frame_needed = 1, uses_anonymous_args = 0
 2072              	.LVL292:
 2073 0000 2DE9F04F 		push	{r4, r5, r6, r7, r8, r9, r10, fp, lr}
 2074              		.cfi_def_cfa_offset 36
 2075              		.cfi_offset 4, -36
 2076              		.cfi_offset 5, -32
 2077              		.cfi_offset 6, -28
 2078              		.cfi_offset 7, -24
 2079              		.cfi_offset 8, -20
 2080              		.cfi_offset 9, -16
 2081              		.cfi_offset 10, -12
 2082              		.cfi_offset 11, -8
 2083              		.cfi_offset 14, -4
 2084 0004 0E46     		mov	r6, r1
 2085 0006 8BB0     		sub	sp, sp, #44
 2086              		.cfi_def_cfa_offset 80
 2087              	.LBB341:
 2088              	.LBB342:
 2089              	.LBB343:
 2090              	.LBB344:
 2091              	.LBB345:
 2092              	.LBB346:
 115:screen.c      **** 
 2093              		.loc 1 115 0
 2094 0008 0021     		movs	r1, #0
 2095              	.LVL293:
 2096 000a 4FF4A073 		mov	r3, #320
 2097 000e F022     		movs	r2, #240
 2098              	.LBE346:
 2099              	.LBE345:
 2100              	.LBE344:
 2101              	.LBE343:
 2102              	.LBE342:
 2103              	.LBE341:
 2104              		.loc 1 334 0
 2105 0010 8146     		mov	r9, r0
 2106 0012 02AF     		add	r7, sp, #8
 2107              		.cfi_def_cfa 7, 72
 2108              	.LBB357:
 2109              	.LBB355:
 2110              	.LBB353:
 2111              	.LBB351:
 2112              	.LBB349:
ARM GAS  C:\Users\legoc\AppData\Local\Temp\ccOlrioX.s 			page 47


 2113              	.LBB347:
 115:screen.c      **** 
 2114              		.loc 1 115 0
 2115 0014 0846     		mov	r0, r1
 2116              	.LVL294:
 2117 0016 FFF7FEFF 		bl	setAddrWindow
 2118              	.LVL295:
 124:screen.c      ****     SS_Write(0);
 2119              		.loc 1 124 0
 2120 001a 0120     		movs	r0, #1
 2121 001c FFF7FEFF 		bl	D_C_Write
 2122              	.LVL296:
 125:screen.c      ****     // Writes color to addresses
 2123              		.loc 1 125 0
 2124 0020 0020     		movs	r0, #0
 2125 0022 FFF7FEFF 		bl	SS_Write
 2126              	.LVL297:
 2127 0026 4FF4A075 		mov	r5, #320
 2128              	.LVL298:
 2129              	.L201:
 2130              	.LBE347:
 2131              	.LBE349:
 2132              	.LBE351:
 2133              	.LBE353:
 2134              	.LBE355:
 2135              	.LBE357:
 2136              		.loc 1 334 0
 2137 002a F024     		movs	r4, #240
 2138              	.LVL299:
 2139              	.L204:
 2140              	.LBB358:
 2141              	.LBB356:
 2142              	.LBB354:
 2143              	.LBB352:
 2144              	.LBB350:
 2145              	.LBB348:
 131:screen.c      ****             while(SS_Read() != 1){}
 2146              		.loc 1 131 0
 2147 002c 0020     		movs	r0, #0
 2148 002e FFF7FEFF 		bl	SPIM_WriteTxData
 2149              	.LVL300:
 2150              	.L202:
 132:screen.c      ****             SPIM_WriteTxData(lo);
 2151              		.loc 1 132 0
 2152 0032 FFF7FEFF 		bl	SS_Read
 2153              	.LVL301:
 2154 0036 0128     		cmp	r0, #1
 2155 0038 FBD1     		bne	.L202
 133:screen.c      ****             while(SS_Read() != 1){}
 2156              		.loc 1 133 0
 2157 003a 0020     		movs	r0, #0
 2158 003c FFF7FEFF 		bl	SPIM_WriteTxData
 2159              	.LVL302:
 2160              	.L203:
 134:screen.c      ****         }
 2161              		.loc 1 134 0
 2162 0040 FFF7FEFF 		bl	SS_Read
ARM GAS  C:\Users\legoc\AppData\Local\Temp\ccOlrioX.s 			page 48


 2163              	.LVL303:
 2164 0044 0128     		cmp	r0, #1
 2165 0046 FBD1     		bne	.L203
 2166 0048 013C     		subs	r4, r4, #1
 2167 004a A4B2     		uxth	r4, r4
 129:screen.c      ****         {
 2168              		.loc 1 129 0
 2169 004c 002C     		cmp	r4, #0
 2170 004e EDD1     		bne	.L204
 2171 0050 013D     		subs	r5, r5, #1
 2172 0052 ADB2     		uxth	r5, r5
 127:screen.c      ****     {
 2173              		.loc 1 127 0
 2174 0054 002D     		cmp	r5, #0
 2175 0056 E8D1     		bne	.L201
 137:screen.c      **** 
 2176              		.loc 1 137 0
 2177 0058 FFF7FEFF 		bl	SS_Write
 2178              	.LVL304:
 2179              	.LBE348:
 2180              	.LBE350:
 2181              	.LBE352:
 2182              	.LBE354:
 2183              	.LBE356:
 2184              	.LBE358:
 335:screen.c      ****     fill_screen(BLACK);
 336:screen.c      ****     
 337:screen.c      ****     int y_max_pixel = (int) 240/(1.25);
 338:screen.c      ****     int five_mA_pixel = (int) (y_max_pixel*5.0/y_max);
 2185              		.loc 1 338 0
 2186 005c 4846     		mov	r0, r9
 2187 005e FFF7FEFF 		bl	__aeabi_i2d
 2188              	.LVL305:
 2189 0062 0246     		mov	r2, r0
 2190 0064 0B46     		mov	r3, r1
 2191 0066 0020     		movs	r0, #0
 2192 0068 7249     		ldr	r1, .L244
 2193 006a FFF7FEFF 		bl	__aeabi_ddiv
 2194              	.LVL306:
 2195 006e FFF7FEFF 		bl	__aeabi_d2iz
 2196              	.LVL307:
 2197              	.LBB359:
 2198              	.LBB360:
 2199              	.LBB361:
 264:screen.c      **** }
 2200              		.loc 1 264 0
 2201 0072 4FF6FF74 		movw	r4, #65535
 2202 0076 0A23     		movs	r3, #10
 2203 0078 1946     		mov	r1, r3
 2204 007a DC22     		movs	r2, #220
 2205              	.LBE361:
 2206              	.LBE360:
 2207              	.LBE359:
 2208              		.loc 1 338 0
 2209 007c 8246     		mov	r10, r0
 2210              	.LVL308:
 2211              	.LBB364:
ARM GAS  C:\Users\legoc\AppData\Local\Temp\ccOlrioX.s 			page 49


 2212              	.LBB363:
 2213              	.LBB362:
 264:screen.c      **** }
 2214              		.loc 1 264 0
 2215 007e 0094     		str	r4, [sp]
 2216 0080 1E20     		movs	r0, #30
 2217              	.LVL309:
 2218 0082 FFF7FEFF 		bl	write_line
 2219              	.LVL310:
 2220              	.LBE362:
 2221              	.LBE363:
 2222              	.LBE364:
 2223              	.LBB365:
 2224              	.LBB366:
 2225              	.LBB367:
 2226              	.LBB368:
 272:screen.c      **** }
 2227              		.loc 1 272 0
 2228 0086 1E22     		movs	r2, #30
 2229 0088 C923     		movs	r3, #201
 2230 008a 0094     		str	r4, [sp]
 2231 008c 1046     		mov	r0, r2
 2232 008e 0A21     		movs	r1, #10
 2233 0090 FFF7FEFF 		bl	write_line
 2234              	.LVL311:
 2235              	.LBE368:
 2236              	.LBE367:
 2237              	.LBE366:
 2238              	.LBE365:
 339:screen.c      ****     int y_label;
 340:screen.c      ****     int x_label;
 341:screen.c      ****     char string_throwaway_y[10];
 342:screen.c      ****     char string_throwaway_x[4]; //= NULL;
 343:screen.c      ****     //string_print = malloc(sizeof(**string_print)*3);
 344:screen.c      ****     int x_max_step;
 345:screen.c      ****     int i;
 346:screen.c      ****     int k;
 347:screen.c      ****     draw_line(30,10,220,10,WHITE); //draw x axis line
 348:screen.c      ****     draw_line(30,10,30,y_max_pixel+9,WHITE);//draw y axis line
 349:screen.c      ****     
 350:screen.c      ****     if(device_selection < 2)
 351:screen.c      ****     {
 352:screen.c      ****         x_max_step = 189/9;
 2239              		.loc 1 352 0
 2240 0094 012E     		cmp	r6, #1
 2241 0096 8CBF     		ite	hi
 2242 0098 4FF00C08 		movhi	r8, #12
 2243 009c 4FF01508 		movls	r8, #21
 2244              	.LVL312:
 353:screen.c      ****     }
 354:screen.c      ****     else
 355:screen.c      ****     {
 356:screen.c      ****         x_max_step = 189/15;
 357:screen.c      ****     }
 358:screen.c      ****     
 359:screen.c      ****     if((device_selection)%2 == 0)
 2245              		.loc 1 359 0
ARM GAS  C:\Users\legoc\AppData\Local\Temp\ccOlrioX.s 			page 50


 2246 00a0 F307     		lsls	r3, r6, #31
 2247 00a2 00F1B680 		bmi	.L207
 2248              	.LBB369:
 360:screen.c      ****     {
 361:screen.c      ****         draw_string(230,4,WHITE,"VDS V");
 2249              		.loc 1 361 0
 2250 00a6 644B     		ldr	r3, .L244+4
 2251 00a8 2246     		mov	r2, r4
 2252 00aa 0421     		movs	r1, #4
 2253 00ac E620     		movs	r0, #230
 2254 00ae FFF7FEFF 		bl	draw_string
 2255              	.LVL313:
 362:screen.c      ****         draw_string(3,y_max_pixel + 25,WHITE,"ID MIL A");
 2256              		.loc 1 362 0
 2257 00b2 2246     		mov	r2, r4
 2258 00b4 614B     		ldr	r3, .L244+8
 2259 00b6 D921     		movs	r1, #217
 2260 00b8 0320     		movs	r0, #3
 2261 00ba FFF7FEFF 		bl	draw_string
 2262              	.LVL314:
 2263              	.L208:
 2264              	.LBE369:
 363:screen.c      ****     }
 364:screen.c      ****     else
 365:screen.c      ****     {
 366:screen.c      ****         draw_string(230,4,WHITE,"VCE V");
 367:screen.c      ****         draw_string(3,y_max_pixel+ 25,WHITE,"IC MIL A");
 368:screen.c      ****     }
 369:screen.c      ****     
 370:screen.c      ****     for(i=1; 5*i <= y_max ;i++)
 2265              		.loc 1 370 0
 2266 00be B9F1040F 		cmp	r9, #4
 2267 00c2 24DD     		ble	.L240
 2268 00c4 1FFA8AFB 		uxth	fp, r10
 2269 00c8 0BF10A04 		add	r4, fp, #10
 2270 00cc A4B2     		uxth	r4, r4
 2271 00ce 0AF10A06 		add	r6, r10, #10
 2272              	.LVL315:
 2273 00d2 0525     		movs	r5, #5
 2274              	.LVL316:
 2275              	.L210:
 2276              	.LBB370:
 371:screen.c      ****     {
 372:screen.c      ****         y_label =  5 * i;
 373:screen.c      ****         sprintf(string_throwaway_y,"%d", y_label);
 2277              		.loc 1 373 0 discriminator 3
 2278 00d4 2A46     		mov	r2, r5
 2279 00d6 5A49     		ldr	r1, .L244+12
 2280 00d8 07F11400 		add	r0, r7, #20
 2281 00dc FFF7FEFF 		bl	sprintf
 2282              	.LVL317:
 2283              	.LBB371:
 2284              	.LBB372:
 2285              	.LBB373:
 264:screen.c      **** }
 2286              		.loc 1 264 0 discriminator 3
 2287 00e0 4FF6FF72 		movw	r2, #65535
ARM GAS  C:\Users\legoc\AppData\Local\Temp\ccOlrioX.s 			page 51


 2288              	.LBE373:
 2289              	.LBE372:
 2290              	.LBE371:
 374:screen.c      ****         
 375:screen.c      ****         draw_line(30,i*five_mA_pixel+10,220,i*five_mA_pixel+10,WHITE);//draw y major 
 2291              		.loc 1 375 0 discriminator 3
 2292 00e4 23B2     		sxth	r3, r4
 2293              	.LVL318:
 2294              	.LBB376:
 2295              	.LBB375:
 2296              	.LBB374:
 264:screen.c      **** }
 2297              		.loc 1 264 0 discriminator 3
 2298 00e6 1946     		mov	r1, r3
 2299 00e8 0092     		str	r2, [sp]
 2300 00ea 1E20     		movs	r0, #30
 2301 00ec DC22     		movs	r2, #220
 2302 00ee FFF7FEFF 		bl	write_line
 2303              	.LVL319:
 2304 00f2 0535     		adds	r5, r5, #5
 2305              	.LVL320:
 2306              	.LBE374:
 2307              	.LBE375:
 2308              	.LBE376:
 376:screen.c      ****         draw_string(3,i*five_mA_pixel+10,WHITE,string_throwaway_y);//draw y major label
 2309              		.loc 1 376 0 discriminator 3
 2310 00f4 3146     		mov	r1, r6
 2311 00f6 07F11403 		add	r3, r7, #20
 2312 00fa 4FF6FF72 		movw	r2, #65535
 2313 00fe 0320     		movs	r0, #3
 2314 0100 FFF7FEFF 		bl	draw_string
 2315              	.LVL321:
 2316 0104 5C44     		add	r4, r4, fp
 2317              	.LVL322:
 2318              	.LBE370:
 370:screen.c      ****     {
 2319              		.loc 1 370 0 discriminator 3
 2320 0106 A945     		cmp	r9, r5
 2321 0108 5644     		add	r6, r6, r10
 2322 010a A4B2     		uxth	r4, r4
 2323 010c E2DA     		bge	.L210
 2324              	.LVL323:
 2325              	.L240:
 377:screen.c      ****         
 378:screen.c      ****     }
 379:screen.c      ****     
 380:screen.c      ****     for(i = 1; i <= 189/x_max_step; i++)
 2326              		.loc 1 380 0
 2327 010e 4FF0BD09 		mov	r9, #189
 2328              	.LVL324:
 2329 0112 99FBF8F9 		sdiv	r9, r9, r8
 2330              	.LBB377:
 2331              	.LBB378:
 2332              	.LBB379:
 2333              	.LBB380:
 2334              	.LBB381:
 272:screen.c      **** }
ARM GAS  C:\Users\legoc\AppData\Local\Temp\ccOlrioX.s 			page 52


 2335              		.loc 1 272 0
 2336 0116 4FF6FF7B 		movw	fp, #65535
 2337 011a 1FFA88FA 		uxth	r10, r8
 2338              	.LVL325:
 2339 011e 0AF11E04 		add	r4, r10, #30
 2340 0122 08F11E06 		add	r6, r8, #30
 2341              	.LBE381:
 2342              	.LBE380:
 2343              	.LBE379:
 2344              	.LBE378:
 2345              	.LBE377:
 370:screen.c      ****     {
 2346              		.loc 1 370 0
 2347 0126 0125     		movs	r5, #1
 2348              	.LVL326:
 2349              	.L213:
 2350              	.LBB386:
 381:screen.c      ****     {
 382:screen.c      ****         sprintf(string_throwaway_x,"%i", i);
 2351              		.loc 1 382 0 discriminator 3
 2352 0128 2A46     		mov	r2, r5
 2353 012a 4649     		ldr	r1, .L244+16
 2354 012c 07F10800 		add	r0, r7, #8
 2355 0130 FFF7FEFF 		bl	sprintf
 2356              	.LVL327:
 383:screen.c      ****         draw_line(i*x_max_step+30,10,i*x_max_step+30,y_max_pixel+10,WHITE);//draw x major
 2357              		.loc 1 383 0 discriminator 3
 2358 0134 22B2     		sxth	r2, r4
 2359              	.LVL328:
 2360              	.LBB385:
 2361              	.LBB384:
 2362              	.LBB383:
 2363              	.LBB382:
 272:screen.c      **** }
 2364              		.loc 1 272 0 discriminator 3
 2365 0136 1046     		mov	r0, r2
 2366 0138 CA23     		movs	r3, #202
 2367 013a 0A21     		movs	r1, #10
 2368 013c CDF800B0 		str	fp, [sp]
 2369 0140 FFF7FEFF 		bl	write_line
 2370              	.LVL329:
 2371              	.LBE382:
 2372              	.LBE383:
 2373              	.LBE384:
 2374              	.LBE385:
 2375              	.LBE386:
 380:screen.c      ****     {
 2376              		.loc 1 380 0 discriminator 3
 2377 0144 0135     		adds	r5, r5, #1
 2378              	.LVL330:
 2379              	.LBB387:
 384:screen.c      ****         draw_string(i*x_max_step+30,4,WHITE,string_throwaway_x);//draw x major label
 2380              		.loc 1 384 0 discriminator 3
 2381 0146 3046     		mov	r0, r6
 2382 0148 07F10803 		add	r3, r7, #8
 2383 014c 4FF6FF72 		movw	r2, #65535
 2384 0150 0421     		movs	r1, #4
ARM GAS  C:\Users\legoc\AppData\Local\Temp\ccOlrioX.s 			page 53


 2385 0152 FFF7FEFF 		bl	draw_string
 2386              	.LVL331:
 2387 0156 5444     		add	r4, r4, r10
 2388              	.LVL332:
 2389              	.LBE387:
 380:screen.c      ****     {
 2390              		.loc 1 380 0 discriminator 3
 2391 0158 4D45     		cmp	r5, r9
 2392 015a A4B2     		uxth	r4, r4
 2393 015c 4644     		add	r6, r6, r8
 2394 015e E3DD     		ble	.L213
 385:screen.c      ****     }
 386:screen.c      ****     
 387:screen.c      ****     char temp[] = "STOP";
 2395              		.loc 1 387 0
 2396 0160 394A     		ldr	r2, .L244+20
 2397              	.LBB388:
 2398              	.LBB389:
 2399              	.LBB390:
 2400              	.LBB391:
 2401              	.LBB392:
 2402              	.LBB393:
 2403              	.LBB394:
 115:screen.c      **** 
 2404              		.loc 1 115 0
 2405 0162 3C23     		movs	r3, #60
 2406              	.LBE394:
 2407              	.LBE393:
 2408              	.LBE392:
 2409              	.LBE391:
 2410              	.LBE390:
 2411              	.LBE389:
 2412              	.LBE388:
 2413              		.loc 1 387 0
 2414 0164 92E80300 		ldmia	r2, {r0, r1}
 2415              	.LBB414:
 2416              	.LBB410:
 2417              	.LBB407:
 2418              	.LBB404:
 2419              	.LBB401:
 2420              	.LBB398:
 2421              	.LBB395:
 115:screen.c      **** 
 2422              		.loc 1 115 0
 2423 0168 1E22     		movs	r2, #30
 2424              	.LBE395:
 2425              	.LBE398:
 2426              	.LBE401:
 2427              	.LBE404:
 2428              	.LBE407:
 2429              	.LBE410:
 2430              	.LBE414:
 2431              		.loc 1 387 0
 2432 016a F860     		str	r0, [r7, #12]
 2433 016c 3974     		strb	r1, [r7, #16]
 2434              	.LVL333:
 2435              	.LBB415:
ARM GAS  C:\Users\legoc\AppData\Local\Temp\ccOlrioX.s 			page 54


 2436              	.LBB411:
 2437              	.LBB408:
 2438              	.LBB405:
 2439              	.LBB402:
 2440              	.LBB399:
 2441              	.LBB396:
 115:screen.c      **** 
 2442              		.loc 1 115 0
 2443 016e 0120     		movs	r0, #1
 2444 0170 8221     		movs	r1, #130
 2445 0172 FFF7FEFF 		bl	setAddrWindow
 2446              	.LVL334:
 124:screen.c      ****     SS_Write(0);
 2447              		.loc 1 124 0
 2448 0176 0120     		movs	r0, #1
 2449 0178 FFF7FEFF 		bl	D_C_Write
 2450              	.LVL335:
 125:screen.c      ****     // Writes color to addresses
 2451              		.loc 1 125 0
 2452 017c 0020     		movs	r0, #0
 2453 017e FFF7FEFF 		bl	SS_Write
 2454              	.LVL336:
 2455 0182 3C25     		movs	r5, #60
 2456              	.LVL337:
 2457              	.L212:
 2458              	.LBE396:
 2459              	.LBE399:
 2460              	.LBE402:
 2461              	.LBE405:
 2462              	.LBE408:
 2463              	.LBE411:
 2464              	.LBE415:
 370:screen.c      ****     {
 2465              		.loc 1 370 0
 2466 0184 1E24     		movs	r4, #30
 2467              	.LVL338:
 2468              	.L217:
 2469              	.LBB416:
 2470              	.LBB412:
 2471              	.LBB409:
 2472              	.LBB406:
 2473              	.LBB403:
 2474              	.LBB400:
 2475              	.LBB397:
 131:screen.c      ****             while(SS_Read() != 1){}
 2476              		.loc 1 131 0
 2477 0186 F820     		movs	r0, #248
 2478 0188 FFF7FEFF 		bl	SPIM_WriteTxData
 2479              	.LVL339:
 2480              	.L215:
 132:screen.c      ****             SPIM_WriteTxData(lo);
 2481              		.loc 1 132 0
 2482 018c FFF7FEFF 		bl	SS_Read
 2483              	.LVL340:
 2484 0190 0128     		cmp	r0, #1
 2485 0192 FBD1     		bne	.L215
 133:screen.c      ****             while(SS_Read() != 1){}
ARM GAS  C:\Users\legoc\AppData\Local\Temp\ccOlrioX.s 			page 55


 2486              		.loc 1 133 0
 2487 0194 0020     		movs	r0, #0
 2488 0196 FFF7FEFF 		bl	SPIM_WriteTxData
 2489              	.LVL341:
 2490              	.L216:
 134:screen.c      ****         }
 2491              		.loc 1 134 0
 2492 019a FFF7FEFF 		bl	SS_Read
 2493              	.LVL342:
 2494 019e 0128     		cmp	r0, #1
 2495 01a0 FBD1     		bne	.L216
 2496 01a2 013C     		subs	r4, r4, #1
 2497 01a4 A4B2     		uxth	r4, r4
 129:screen.c      ****         {
 2498              		.loc 1 129 0
 2499 01a6 002C     		cmp	r4, #0
 2500 01a8 EDD1     		bne	.L217
 2501 01aa 6A1E     		subs	r2, r5, #1
 2502 01ac 95B2     		uxth	r5, r2
 127:screen.c      ****     {
 2503              		.loc 1 127 0
 2504 01ae 002D     		cmp	r5, #0
 2505 01b0 E8D1     		bne	.L212
 137:screen.c      **** 
 2506              		.loc 1 137 0
 2507 01b2 FFF7FEFF 		bl	SS_Write
 2508              	.LVL343:
 2509              	.LBE397:
 2510              	.LBE400:
 2511              	.LBE403:
 2512              	.LBE406:
 2513              	.LBE409:
 309:screen.c      ****     {
 2514              		.loc 1 309 0
 2515 01b6 3B7B     		ldrb	r3, [r7, #12]	@ zero_extendqisi2
 2516 01b8 002B     		cmp	r3, #0
 2517 01ba 37D0     		beq	.L219
 2518 01bc 2A46     		mov	r2, r5
 2519 01be 07F10C01 		add	r1, r7, #12
 2520              	.LVL344:
 2521              	.L220:
 2522 01c2 11F8013F 		ldrb	r3, [r1, #1]!	@ zero_extendqisi2
 2523              	.LVL345:
 311:screen.c      ****         string++;
 2524              		.loc 1 311 0
 2525 01c6 0132     		adds	r2, r2, #1
 2526              	.LVL346:
 309:screen.c      ****     {
 2527              		.loc 1 309 0
 2528 01c8 002B     		cmp	r3, #0
 2529 01ca FAD1     		bne	.L220
 2530              	.LVL347:
 317:screen.c      ****     
 2531              		.loc 1 317 0
 2532 01cc 891A     		subs	r1, r1, r2
 315:screen.c      ****     int i = 0;
 2533              		.loc 1 315 0
ARM GAS  C:\Users\legoc\AppData\Local\Temp\ccOlrioX.s 			page 56


 2534 01ce D31D     		adds	r3, r2, #7
 2535 01d0 23F00703 		bic	r3, r3, #7
 320:screen.c      ****     {
 2536              		.loc 1 320 0
 2537 01d4 0878     		ldrb	r0, [r1]	@ zero_extendqisi2
 315:screen.c      ****     int i = 0;
 2538              		.loc 1 315 0
 2539 01d6 ADEB030D 		sub	sp, sp, r3
 2540 01da 02AB     		add	r3, sp, #8
 2541              	.LVL348:
 320:screen.c      ****     {
 2542              		.loc 1 320 0
 2543 01dc 38B1     		cbz	r0, .L242
 2544 01de 0DF10704 		add	r4, sp, #7
 2545              	.LVL349:
 2546              	.L223:
 322:screen.c      ****         string++;
 2547              		.loc 1 322 0
 2548 01e2 04F8010F 		strb	r0, [r4, #1]!
 2549              	.LVL350:
 320:screen.c      ****     {
 2550              		.loc 1 320 0
 2551 01e6 11F8010F 		ldrb	r0, [r1, #1]!	@ zero_extendqisi2
 2552              	.LVL351:
 2553 01ea 0028     		cmp	r0, #0
 2554 01ec F9D1     		bne	.L223
 2555              	.LVL352:
 2556              	.L242:
 2557 01ee C2EBC202 		rsb	r2, r2, r2, lsl #3
 2558              	.LVL353:
 2559 01f2 02EBD272 		add	r2, r2, r2, lsr #31
 2560 01f6 5010     		asrs	r0, r2, #1
 2561 01f8 C0F1A300 		rsb	r0, r0, #163
 2562              	.LVL354:
 2563              	.L222:
 330:screen.c      **** }
 2564              		.loc 1 330 0
 2565 01fc 0022     		movs	r2, #0
 2566 01fe DF21     		movs	r1, #223
 2567 0200 FFF7FEFF 		bl	draw_string
 2568              	.LVL355:
 2569              	.LBE412:
 2570              	.LBE416:
 388:screen.c      ****     draw_button(130,209,60,30,RED,BLACK,temp);
 389:screen.c      ****         
 390:screen.c      ****     screen_state = 2;   //sets screen state to graph screen
 2571              		.loc 1 390 0
 2572 0204 114B     		ldr	r3, .L244+24
 2573 0206 0222     		movs	r2, #2
 391:screen.c      **** }
 2574              		.loc 1 391 0
 2575 0208 2437     		adds	r7, r7, #36
 2576              		.cfi_remember_state
 2577              		.cfi_def_cfa_offset 36
 390:screen.c      **** }
 2578              		.loc 1 390 0
 2579 020a 1A60     		str	r2, [r3]
ARM GAS  C:\Users\legoc\AppData\Local\Temp\ccOlrioX.s 			page 57


 2580              		.loc 1 391 0
 2581 020c BD46     		mov	sp, r7
 2582              		.cfi_def_cfa_register 13
 2583              		@ sp needed
 2584 020e BDE8F08F 		pop	{r4, r5, r6, r7, r8, r9, r10, fp, pc}
 2585              	.LVL356:
 2586              	.L207:
 2587              		.cfi_restore_state
 2588              	.LBB417:
 366:screen.c      ****         draw_string(3,y_max_pixel+ 25,WHITE,"IC MIL A");
 2589              		.loc 1 366 0
 2590 0212 2246     		mov	r2, r4
 2591 0214 0E4B     		ldr	r3, .L244+28
 2592 0216 0421     		movs	r1, #4
 2593 0218 E620     		movs	r0, #230
 2594 021a FFF7FEFF 		bl	draw_string
 2595              	.LVL357:
 367:screen.c      ****     }
 2596              		.loc 1 367 0
 2597 021e 2246     		mov	r2, r4
 2598 0220 0C4B     		ldr	r3, .L244+32
 2599 0222 D921     		movs	r1, #217
 2600 0224 0320     		movs	r0, #3
 2601 0226 FFF7FEFF 		bl	draw_string
 2602              	.LVL358:
 2603 022a 48E7     		b	.L208
 2604              	.LVL359:
 2605              	.L219:
 2606              	.LBE417:
 2607              	.LBB418:
 2608              	.LBB413:
 315:screen.c      ****     int i = 0;
 2609              		.loc 1 315 0
 2610 022c A320     		movs	r0, #163
 2611 022e 3B1D     		adds	r3, r7, #4
 2612              	.LVL360:
 2613 0230 E4E7     		b	.L222
 2614              	.L245:
 2615 0232 00BF     		.align	2
 2616              	.L244:
 2617 0234 00008E40 		.word	1083047936
 2618 0238 00000000 		.word	.LC0
 2619 023c 08000000 		.word	.LC1
 2620 0240 28000000 		.word	.LC4
 2621 0244 2C000000 		.word	.LC6
 2622 0248 30000000 		.word	.LC5
 2623 024c 00000000 		.word	screen_state
 2624 0250 14000000 		.word	.LC2
 2625 0254 1C000000 		.word	.LC3
 2626              	.LBE413:
 2627              	.LBE418:
 2628              		.cfi_endproc
 2629              	.LFE15:
 2630              		.size	draw_coordinates, .-draw_coordinates
 2631              		.section	.text.draw_choose_screen,"ax",%progbits
 2632              		.align	2
 2633              		.global	draw_choose_screen
ARM GAS  C:\Users\legoc\AppData\Local\Temp\ccOlrioX.s 			page 58


 2634              		.thumb
 2635              		.thumb_func
 2636              		.type	draw_choose_screen, %function
 2637              	draw_choose_screen:
 2638              	.LFB16:
 392:screen.c      **** 
 393:screen.c      **** void draw_choose_screen()
 394:screen.c      **** {
 2639              		.loc 1 394 0
 2640              		.cfi_startproc
 2641              		@ args = 0, pretend = 0, frame = 0
 2642              		@ frame_needed = 1, uses_anonymous_args = 0
 2643              	.LVL361:
 2644 0000 F8B5     		push	{r3, r4, r5, r6, r7, lr}
 2645              		.cfi_def_cfa_offset 24
 2646              		.cfi_offset 3, -24
 2647              		.cfi_offset 4, -20
 2648              		.cfi_offset 5, -16
 2649              		.cfi_offset 6, -12
 2650              		.cfi_offset 7, -8
 2651              		.cfi_offset 14, -4
 2652              	.LBB484:
 2653              	.LBB485:
 2654              	.LBB486:
 2655              	.LBB487:
 2656              	.LBB488:
 115:screen.c      **** 
 2657              		.loc 1 115 0
 2658 0002 A023     		movs	r3, #160
 2659              	.LBE488:
 2660              	.LBE487:
 2661              	.LBE486:
 2662              	.LBE485:
 2663              	.LBE484:
 2664              		.loc 1 394 0
 2665 0004 00AF     		add	r7, sp, #0
 2666              		.cfi_def_cfa_register 7
 2667              	.LBB501:
 2668              	.LBB498:
 2669              	.LBB495:
 2670              	.LBB492:
 2671              	.LBB489:
 115:screen.c      **** 
 2672              		.loc 1 115 0
 2673 0006 1946     		mov	r1, r3
 2674 0008 F022     		movs	r2, #240
 2675 000a 0020     		movs	r0, #0
 2676 000c FFF7FEFF 		bl	setAddrWindow
 2677              	.LVL362:
 124:screen.c      ****     SS_Write(0);
 2678              		.loc 1 124 0
 2679 0010 0120     		movs	r0, #1
 2680 0012 FFF7FEFF 		bl	D_C_Write
 2681              	.LVL363:
 125:screen.c      ****     // Writes color to addresses
 2682              		.loc 1 125 0
 2683 0016 0020     		movs	r0, #0
ARM GAS  C:\Users\legoc\AppData\Local\Temp\ccOlrioX.s 			page 59


 2684 0018 FFF7FEFF 		bl	SS_Write
 2685              	.LVL364:
 2686 001c A026     		movs	r6, #160
 2687              	.LVL365:
 2688              	.L247:
 2689              	.LBE489:
 2690              	.LBE492:
 2691              	.LBE495:
 2692              	.LBE498:
 2693              	.LBE501:
 2694              		.loc 1 394 0
 2695 001e F025     		movs	r5, #240
 2696              	.LVL366:
 2697              	.L250:
 2698              	.LBB502:
 2699              	.LBB499:
 2700              	.LBB496:
 2701              	.LBB493:
 2702              	.LBB490:
 131:screen.c      ****             while(SS_Read() != 1){}
 2703              		.loc 1 131 0
 2704 0020 0020     		movs	r0, #0
 2705 0022 FFF7FEFF 		bl	SPIM_WriteTxData
 2706              	.LVL367:
 2707              	.L248:
 132:screen.c      ****             SPIM_WriteTxData(lo);
 2708              		.loc 1 132 0
 2709 0026 FFF7FEFF 		bl	SS_Read
 2710              	.LVL368:
 2711 002a 0128     		cmp	r0, #1
 2712 002c FBD1     		bne	.L248
 133:screen.c      ****             while(SS_Read() != 1){}
 2713              		.loc 1 133 0
 2714 002e 1F20     		movs	r0, #31
 2715 0030 FFF7FEFF 		bl	SPIM_WriteTxData
 2716              	.LVL369:
 2717              	.L249:
 134:screen.c      ****         }
 2718              		.loc 1 134 0
 2719 0034 FFF7FEFF 		bl	SS_Read
 2720              	.LVL370:
 2721 0038 0128     		cmp	r0, #1
 2722 003a 0446     		mov	r4, r0
 2723 003c FAD1     		bne	.L249
 2724 003e 013D     		subs	r5, r5, #1
 2725 0040 ADB2     		uxth	r5, r5
 129:screen.c      ****         {
 2726              		.loc 1 129 0
 2727 0042 002D     		cmp	r5, #0
 2728 0044 ECD1     		bne	.L250
 2729 0046 013E     		subs	r6, r6, #1
 2730 0048 B6B2     		uxth	r6, r6
 127:screen.c      ****     {
 2731              		.loc 1 127 0
 2732 004a 002E     		cmp	r6, #0
 2733 004c E7D1     		bne	.L247
 137:screen.c      **** 
ARM GAS  C:\Users\legoc\AppData\Local\Temp\ccOlrioX.s 			page 60


 2734              		.loc 1 137 0
 2735 004e FFF7FEFF 		bl	SS_Write
 2736              	.LVL371:
 2737              	.LBE490:
 2738              	.LBE493:
 2739              	.LBE496:
 2740              	.LBE499:
 2741              	.LBE502:
 2742              	.LBB503:
 2743              	.LBB504:
 2744              	.LBB505:
 2745              	.LBB506:
 2746              	.LBB507:
 115:screen.c      **** 
 2747              		.loc 1 115 0
 2748 0052 3146     		mov	r1, r6
 2749 0054 A023     		movs	r3, #160
 2750 0056 F022     		movs	r2, #240
 2751 0058 3046     		mov	r0, r6
 2752 005a FFF7FEFF 		bl	setAddrWindow
 2753              	.LVL372:
 124:screen.c      ****     SS_Write(0);
 2754              		.loc 1 124 0
 2755 005e 2046     		mov	r0, r4
 2756 0060 FFF7FEFF 		bl	D_C_Write
 2757              	.LVL373:
 125:screen.c      ****     // Writes color to addresses
 2758              		.loc 1 125 0
 2759 0064 3046     		mov	r0, r6
 2760 0066 FFF7FEFF 		bl	SS_Write
 2761              	.LVL374:
 2762 006a A026     		movs	r6, #160
 2763              	.LVL375:
 2764              	.L252:
 2765              	.LBE507:
 2766              	.LBE506:
 2767              	.LBE505:
 2768              	.LBE504:
 2769              	.LBE503:
 2770              	.LBB516:
 2771              	.LBB500:
 2772              	.LBB497:
 2773              	.LBB494:
 2774              	.LBB491:
 2775 006c F025     		movs	r5, #240
 2776              	.LVL376:
 2777              	.L255:
 2778              	.LBE491:
 2779              	.LBE494:
 2780              	.LBE497:
 2781              	.LBE500:
 2782              	.LBE516:
 2783              	.LBB517:
 2784              	.LBB514:
 2785              	.LBB512:
 2786              	.LBB510:
 2787              	.LBB508:
ARM GAS  C:\Users\legoc\AppData\Local\Temp\ccOlrioX.s 			page 61


 131:screen.c      ****             while(SS_Read() != 1){}
 2788              		.loc 1 131 0
 2789 006e F820     		movs	r0, #248
 2790 0070 FFF7FEFF 		bl	SPIM_WriteTxData
 2791              	.LVL377:
 2792              	.L253:
 132:screen.c      ****             SPIM_WriteTxData(lo);
 2793              		.loc 1 132 0
 2794 0074 FFF7FEFF 		bl	SS_Read
 2795              	.LVL378:
 2796 0078 0128     		cmp	r0, #1
 2797 007a FBD1     		bne	.L253
 133:screen.c      ****             while(SS_Read() != 1){}
 2798              		.loc 1 133 0
 2799 007c 0020     		movs	r0, #0
 2800 007e FFF7FEFF 		bl	SPIM_WriteTxData
 2801              	.LVL379:
 2802              	.L254:
 134:screen.c      ****         }
 2803              		.loc 1 134 0
 2804 0082 FFF7FEFF 		bl	SS_Read
 2805              	.LVL380:
 2806 0086 0128     		cmp	r0, #1
 2807 0088 0446     		mov	r4, r0
 2808 008a FAD1     		bne	.L254
 2809 008c 013D     		subs	r5, r5, #1
 2810 008e ADB2     		uxth	r5, r5
 129:screen.c      ****         {
 2811              		.loc 1 129 0
 2812 0090 002D     		cmp	r5, #0
 2813 0092 ECD1     		bne	.L255
 2814 0094 013E     		subs	r6, r6, #1
 2815 0096 B6B2     		uxth	r6, r6
 127:screen.c      ****     {
 2816              		.loc 1 127 0
 2817 0098 002E     		cmp	r6, #0
 2818 009a E7D1     		bne	.L252
 137:screen.c      **** 
 2819              		.loc 1 137 0
 2820 009c FFF7FEFF 		bl	SS_Write
 2821              	.LVL381:
 2822              	.LBE508:
 2823              	.LBE510:
 2824              	.LBE512:
 2825              	.LBE514:
 2826              	.LBE517:
 2827              	.LBB518:
 2828              	.LBB519:
 2829              	.LBB520:
 2830              	.LBB521:
 2831              	.LBB522:
 115:screen.c      **** 
 2832              		.loc 1 115 0
 2833 00a0 0223     		movs	r3, #2
 2834 00a2 F022     		movs	r2, #240
 2835 00a4 9F21     		movs	r1, #159
 2836 00a6 3046     		mov	r0, r6
ARM GAS  C:\Users\legoc\AppData\Local\Temp\ccOlrioX.s 			page 62


 2837 00a8 FFF7FEFF 		bl	setAddrWindow
 2838              	.LVL382:
 124:screen.c      ****     SS_Write(0);
 2839              		.loc 1 124 0
 2840 00ac 2046     		mov	r0, r4
 2841 00ae FFF7FEFF 		bl	D_C_Write
 2842              	.LVL383:
 125:screen.c      ****     // Writes color to addresses
 2843              		.loc 1 125 0
 2844 00b2 3046     		mov	r0, r6
 2845 00b4 FFF7FEFF 		bl	SS_Write
 2846              	.LVL384:
 2847 00b8 0226     		movs	r6, #2
 2848              	.LVL385:
 2849              	.L257:
 2850              	.LBE522:
 2851              	.LBE521:
 2852              	.LBE520:
 2853              	.LBE519:
 2854              	.LBE518:
 2855              	.LBB531:
 2856              	.LBB515:
 2857              	.LBB513:
 2858              	.LBB511:
 2859              	.LBB509:
 2860 00ba F025     		movs	r5, #240
 2861              	.LVL386:
 2862              	.L260:
 2863              	.LBE509:
 2864              	.LBE511:
 2865              	.LBE513:
 2866              	.LBE515:
 2867              	.LBE531:
 2868              	.LBB532:
 2869              	.LBB529:
 2870              	.LBB527:
 2871              	.LBB525:
 2872              	.LBB523:
 131:screen.c      ****             while(SS_Read() != 1){}
 2873              		.loc 1 131 0
 2874 00bc 0020     		movs	r0, #0
 2875 00be FFF7FEFF 		bl	SPIM_WriteTxData
 2876              	.LVL387:
 2877              	.L258:
 132:screen.c      ****             SPIM_WriteTxData(lo);
 2878              		.loc 1 132 0
 2879 00c2 FFF7FEFF 		bl	SS_Read
 2880              	.LVL388:
 2881 00c6 0128     		cmp	r0, #1
 2882 00c8 FBD1     		bne	.L258
 133:screen.c      ****             while(SS_Read() != 1){}
 2883              		.loc 1 133 0
 2884 00ca 0020     		movs	r0, #0
 2885 00cc FFF7FEFF 		bl	SPIM_WriteTxData
 2886              	.LVL389:
 2887              	.L259:
 134:screen.c      ****         }
ARM GAS  C:\Users\legoc\AppData\Local\Temp\ccOlrioX.s 			page 63


 2888              		.loc 1 134 0
 2889 00d0 FFF7FEFF 		bl	SS_Read
 2890              	.LVL390:
 2891 00d4 0128     		cmp	r0, #1
 2892 00d6 0446     		mov	r4, r0
 2893 00d8 FAD1     		bne	.L259
 2894 00da 013D     		subs	r5, r5, #1
 2895 00dc ADB2     		uxth	r5, r5
 129:screen.c      ****         {
 2896              		.loc 1 129 0
 2897 00de 002D     		cmp	r5, #0
 2898 00e0 ECD1     		bne	.L260
 2899 00e2 013E     		subs	r6, r6, #1
 2900 00e4 B6B2     		uxth	r6, r6
 127:screen.c      ****     {
 2901              		.loc 1 127 0
 2902 00e6 002E     		cmp	r6, #0
 2903 00e8 E7D1     		bne	.L257
 137:screen.c      **** 
 2904              		.loc 1 137 0
 2905 00ea FFF7FEFF 		bl	SS_Write
 2906              	.LVL391:
 2907              	.LBE523:
 2908              	.LBE525:
 2909              	.LBE527:
 2910              	.LBE529:
 2911              	.LBE532:
 2912              	.LBB533:
 2913              	.LBB534:
 2914              	.LBB535:
 2915              	.LBB536:
 2916              	.LBB537:
 115:screen.c      **** 
 2917              		.loc 1 115 0
 2918 00ee 3146     		mov	r1, r6
 2919 00f0 4FF4A073 		mov	r3, #320
 2920 00f4 0222     		movs	r2, #2
 2921 00f6 7720     		movs	r0, #119
 2922 00f8 FFF7FEFF 		bl	setAddrWindow
 2923              	.LVL392:
 124:screen.c      ****     SS_Write(0);
 2924              		.loc 1 124 0
 2925 00fc 2046     		mov	r0, r4
 2926 00fe FFF7FEFF 		bl	D_C_Write
 2927              	.LVL393:
 125:screen.c      ****     // Writes color to addresses
 2928              		.loc 1 125 0
 2929 0102 3046     		mov	r0, r6
 2930 0104 FFF7FEFF 		bl	SS_Write
 2931              	.LVL394:
 2932 0108 4FF4A076 		mov	r6, #320
 2933              	.LVL395:
 2934              	.L262:
 2935              	.LBE537:
 2936              	.LBE536:
 2937              	.LBE535:
 2938              	.LBE534:
ARM GAS  C:\Users\legoc\AppData\Local\Temp\ccOlrioX.s 			page 64


 2939              	.LBE533:
 2940              	.LBB546:
 2941              	.LBB530:
 2942              	.LBB528:
 2943              	.LBB526:
 2944              	.LBB524:
 2945 010c 0225     		movs	r5, #2
 2946              	.LVL396:
 2947              	.L265:
 2948              	.LBE524:
 2949              	.LBE526:
 2950              	.LBE528:
 2951              	.LBE530:
 2952              	.LBE546:
 2953              	.LBB547:
 2954              	.LBB544:
 2955              	.LBB542:
 2956              	.LBB540:
 2957              	.LBB538:
 131:screen.c      ****             while(SS_Read() != 1){}
 2958              		.loc 1 131 0
 2959 010e 0020     		movs	r0, #0
 2960 0110 FFF7FEFF 		bl	SPIM_WriteTxData
 2961              	.LVL397:
 2962              	.L263:
 132:screen.c      ****             SPIM_WriteTxData(lo);
 2963              		.loc 1 132 0
 2964 0114 FFF7FEFF 		bl	SS_Read
 2965              	.LVL398:
 2966 0118 0128     		cmp	r0, #1
 2967 011a FBD1     		bne	.L263
 133:screen.c      ****             while(SS_Read() != 1){}
 2968              		.loc 1 133 0
 2969 011c 0020     		movs	r0, #0
 2970 011e FFF7FEFF 		bl	SPIM_WriteTxData
 2971              	.LVL399:
 2972              	.L264:
 134:screen.c      ****         }
 2973              		.loc 1 134 0
 2974 0122 FFF7FEFF 		bl	SS_Read
 2975              	.LVL400:
 2976 0126 0128     		cmp	r0, #1
 2977 0128 0446     		mov	r4, r0
 2978 012a FAD1     		bne	.L264
 2979 012c 013D     		subs	r5, r5, #1
 2980 012e ADB2     		uxth	r5, r5
 129:screen.c      ****         {
 2981              		.loc 1 129 0
 2982 0130 002D     		cmp	r5, #0
 2983 0132 ECD1     		bne	.L265
 2984 0134 013E     		subs	r6, r6, #1
 2985 0136 B6B2     		uxth	r6, r6
 127:screen.c      ****     {
 2986              		.loc 1 127 0
 2987 0138 002E     		cmp	r6, #0
 2988 013a E7D1     		bne	.L262
 137:screen.c      **** 
ARM GAS  C:\Users\legoc\AppData\Local\Temp\ccOlrioX.s 			page 65


 2989              		.loc 1 137 0
 2990 013c FFF7FEFF 		bl	SS_Write
 2991              	.LVL401:
 2992              	.LBE538:
 2993              	.LBE540:
 2994              	.LBE542:
 2995              	.LBE544:
 2996              	.LBE547:
 2997              	.LBB548:
 2998              	.LBB549:
 2999              	.LBB550:
 3000              	.LBB551:
 3001              	.LBB552:
 115:screen.c      **** 
 3002              		.loc 1 115 0
 3003 0140 FC23     		movs	r3, #252
 3004 0142 1622     		movs	r2, #22
 3005 0144 2321     		movs	r1, #35
 3006 0146 6D20     		movs	r0, #109
 3007 0148 FFF7FEFF 		bl	setAddrWindow
 3008              	.LVL402:
 124:screen.c      ****     SS_Write(0);
 3009              		.loc 1 124 0
 3010 014c 2046     		mov	r0, r4
 3011 014e FFF7FEFF 		bl	D_C_Write
 3012              	.LVL403:
 125:screen.c      ****     // Writes color to addresses
 3013              		.loc 1 125 0
 3014 0152 3046     		mov	r0, r6
 3015 0154 FFF7FEFF 		bl	SS_Write
 3016              	.LVL404:
 3017 0158 FC26     		movs	r6, #252
 3018              	.LVL405:
 3019              	.L267:
 3020              	.LBE552:
 3021              	.LBE551:
 3022              	.LBE550:
 3023              	.LBE549:
 3024              	.LBE548:
 3025              	.LBB561:
 3026              	.LBB545:
 3027              	.LBB543:
 3028              	.LBB541:
 3029              	.LBB539:
 3030 015a 1625     		movs	r5, #22
 3031              	.LVL406:
 3032              	.L270:
 3033              	.LBE539:
 3034              	.LBE541:
 3035              	.LBE543:
 3036              	.LBE545:
 3037              	.LBE561:
 3038              	.LBB562:
 3039              	.LBB559:
 3040              	.LBB557:
 3041              	.LBB555:
 3042              	.LBB553:
ARM GAS  C:\Users\legoc\AppData\Local\Temp\ccOlrioX.s 			page 66


 131:screen.c      ****             while(SS_Read() != 1){}
 3043              		.loc 1 131 0
 3044 015c 0020     		movs	r0, #0
 3045 015e FFF7FEFF 		bl	SPIM_WriteTxData
 3046              	.LVL407:
 3047              	.L268:
 132:screen.c      ****             SPIM_WriteTxData(lo);
 3048              		.loc 1 132 0
 3049 0162 FFF7FEFF 		bl	SS_Read
 3050              	.LVL408:
 3051 0166 0128     		cmp	r0, #1
 3052 0168 FBD1     		bne	.L268
 133:screen.c      ****             while(SS_Read() != 1){}
 3053              		.loc 1 133 0
 3054 016a 0020     		movs	r0, #0
 3055 016c FFF7FEFF 		bl	SPIM_WriteTxData
 3056              	.LVL409:
 3057              	.L269:
 134:screen.c      ****         }
 3058              		.loc 1 134 0
 3059 0170 FFF7FEFF 		bl	SS_Read
 3060              	.LVL410:
 3061 0174 0128     		cmp	r0, #1
 3062 0176 0446     		mov	r4, r0
 3063 0178 FAD1     		bne	.L269
 3064 017a 013D     		subs	r5, r5, #1
 3065 017c ADB2     		uxth	r5, r5
 129:screen.c      ****         {
 3066              		.loc 1 129 0
 3067 017e 002D     		cmp	r5, #0
 3068 0180 ECD1     		bne	.L270
 3069 0182 013E     		subs	r6, r6, #1
 3070 0184 B6B2     		uxth	r6, r6
 127:screen.c      ****     {
 3071              		.loc 1 127 0
 3072 0186 002E     		cmp	r6, #0
 3073 0188 E7D1     		bne	.L267
 137:screen.c      **** 
 3074              		.loc 1 137 0
 3075 018a FFF7FEFF 		bl	SS_Write
 3076              	.LVL411:
 3077              	.LBE553:
 3078              	.LBE555:
 3079              	.LBE557:
 3080              	.LBE559:
 3081              	.LBE562:
 3082              	.LBB563:
 3083              	.LBB564:
 3084              	.LBB565:
 3085              	.LBB566:
 3086              	.LBB567:
 3087              	.LBB568:
 3088              	.LBB569:
 115:screen.c      **** 
 3089              		.loc 1 115 0
 3090 018e F823     		movs	r3, #248
 3091 0190 1222     		movs	r2, #18
ARM GAS  C:\Users\legoc\AppData\Local\Temp\ccOlrioX.s 			page 67


 3092 0192 2521     		movs	r1, #37
 3093 0194 6F20     		movs	r0, #111
 3094 0196 FFF7FEFF 		bl	setAddrWindow
 3095              	.LVL412:
 124:screen.c      ****     SS_Write(0);
 3096              		.loc 1 124 0
 3097 019a 2046     		mov	r0, r4
 3098 019c FFF7FEFF 		bl	D_C_Write
 3099              	.LVL413:
 125:screen.c      ****     // Writes color to addresses
 3100              		.loc 1 125 0
 3101 01a0 3046     		mov	r0, r6
 3102 01a2 FFF7FEFF 		bl	SS_Write
 3103              	.LVL414:
 3104 01a6 F825     		movs	r5, #248
 3105              	.LVL415:
 3106              	.L272:
 3107              	.LBE569:
 3108              	.LBE568:
 3109              	.LBE567:
 3110              	.LBE566:
 3111              	.LBE565:
 3112              	.LBE564:
 3113              	.LBE563:
 3114              	.LBB583:
 3115              	.LBB560:
 3116              	.LBB558:
 3117              	.LBB556:
 3118              	.LBB554:
 3119 01a8 1224     		movs	r4, #18
 3120              	.LVL416:
 3121              	.L275:
 3122              	.LBE554:
 3123              	.LBE556:
 3124              	.LBE558:
 3125              	.LBE560:
 3126              	.LBE583:
 3127              	.LBB584:
 3128              	.LBB580:
 3129              	.LBB578:
 3130              	.LBB576:
 3131              	.LBB574:
 3132              	.LBB572:
 3133              	.LBB570:
 131:screen.c      ****             while(SS_Read() != 1){}
 3134              		.loc 1 131 0
 3135 01aa FF20     		movs	r0, #255
 3136 01ac FFF7FEFF 		bl	SPIM_WriteTxData
 3137              	.LVL417:
 3138              	.L273:
 132:screen.c      ****             SPIM_WriteTxData(lo);
 3139              		.loc 1 132 0
 3140 01b0 FFF7FEFF 		bl	SS_Read
 3141              	.LVL418:
 3142 01b4 0128     		cmp	r0, #1
 3143 01b6 FBD1     		bne	.L273
 133:screen.c      ****             while(SS_Read() != 1){}
ARM GAS  C:\Users\legoc\AppData\Local\Temp\ccOlrioX.s 			page 68


 3144              		.loc 1 133 0
 3145 01b8 FF20     		movs	r0, #255
 3146 01ba FFF7FEFF 		bl	SPIM_WriteTxData
 3147              	.LVL419:
 3148              	.L274:
 134:screen.c      ****         }
 3149              		.loc 1 134 0
 3150 01be FFF7FEFF 		bl	SS_Read
 3151              	.LVL420:
 3152 01c2 0128     		cmp	r0, #1
 3153 01c4 FBD1     		bne	.L274
 3154 01c6 013C     		subs	r4, r4, #1
 3155 01c8 A4B2     		uxth	r4, r4
 129:screen.c      ****         {
 3156              		.loc 1 129 0
 3157 01ca 002C     		cmp	r4, #0
 3158 01cc EDD1     		bne	.L275
 3159 01ce 6A1E     		subs	r2, r5, #1
 3160 01d0 95B2     		uxth	r5, r2
 127:screen.c      ****     {
 3161              		.loc 1 127 0
 3162 01d2 002D     		cmp	r5, #0
 3163 01d4 E8D1     		bne	.L272
 137:screen.c      **** 
 3164              		.loc 1 137 0
 3165 01d6 FFF7FEFF 		bl	SS_Write
 3166              	.LVL421:
 3167 01da 2A46     		mov	r2, r5
 3168 01dc A949     		ldr	r1, .L359
 3169              	.LVL422:
 3170              	.L277:
 3171              	.LBE570:
 3172              	.LBE572:
 3173              	.LBE574:
 3174              	.LBE576:
 3175              	.LBE578:
 309:screen.c      ****     {
 3176              		.loc 1 309 0
 3177 01de 11F8013F 		ldrb	r3, [r1, #1]!	@ zero_extendqisi2
 3178              	.LVL423:
 311:screen.c      ****         string++;
 3179              		.loc 1 311 0
 3180 01e2 0132     		adds	r2, r2, #1
 3181              	.LVL424:
 309:screen.c      ****     {
 3182              		.loc 1 309 0
 3183 01e4 002B     		cmp	r3, #0
 3184 01e6 FAD1     		bne	.L277
 317:screen.c      ****     
 3185              		.loc 1 317 0
 3186 01e8 891A     		subs	r1, r1, r2
 315:screen.c      ****     int i = 0;
 3187              		.loc 1 315 0
 3188 01ea D31D     		adds	r3, r2, #7
 3189 01ec 23F00703 		bic	r3, r3, #7
 320:screen.c      ****     {
 3190              		.loc 1 320 0
ARM GAS  C:\Users\legoc\AppData\Local\Temp\ccOlrioX.s 			page 69


 3191 01f0 0878     		ldrb	r0, [r1]	@ zero_extendqisi2
 315:screen.c      ****     int i = 0;
 3192              		.loc 1 315 0
 3193 01f2 6C46     		mov	r4, sp
 3194              	.LVL425:
 3195 01f4 ADEB030D 		sub	sp, sp, r3
 3196 01f8 6B46     		mov	r3, sp
 3197              	.LVL426:
 3198 01fa 0DF1FF35 		add	r5, sp, #-1
 320:screen.c      ****     {
 3199              		.loc 1 320 0
 3200 01fe 28B1     		cbz	r0, .L281
 3201              	.LVL427:
 3202              	.L280:
 322:screen.c      ****         string++;
 3203              		.loc 1 322 0
 3204 0200 05F8010F 		strb	r0, [r5, #1]!
 320:screen.c      ****     {
 3205              		.loc 1 320 0
 3206 0204 11F8010F 		ldrb	r0, [r1, #1]!	@ zero_extendqisi2
 3207              	.LVL428:
 3208 0208 0028     		cmp	r0, #0
 3209 020a F9D1     		bne	.L280
 3210              	.LVL429:
 3211              	.L281:
 330:screen.c      **** }
 3212              		.loc 1 330 0
 3213 020c C2EBC202 		rsb	r2, r2, r2, lsl #3
 3214              	.LVL430:
 3215 0210 02EBD272 		add	r2, r2, r2, lsr #31
 3216 0214 5010     		asrs	r0, r2, #1
 3217 0216 7721     		movs	r1, #119
 3218 0218 0022     		movs	r2, #0
 3219 021a C0F1A200 		rsb	r0, r0, #162
 3220 021e FFF7FEFF 		bl	draw_string
 3221              	.LVL431:
 3222              	.LBE580:
 3223              	.LBE584:
 3224              	.LBB585:
 3225              	.LBB586:
 3226              	.LBB587:
 3227              	.LBB588:
 3228              	.LBB589:
 3229              	.LBB590:
 3230              	.LBB591:
 115:screen.c      **** 
 3231              		.loc 1 115 0
 3232 0222 8B23     		movs	r3, #139
 3233              	.LBE591:
 3234              	.LBE590:
 3235              	.LBE589:
 3236              	.LBE588:
 3237              	.LBE587:
 3238              	.LBE586:
 3239              	.LBE585:
 3240              	.LBB611:
 3241              	.LBB581:
ARM GAS  C:\Users\legoc\AppData\Local\Temp\ccOlrioX.s 			page 70


 3242 0224 A546     		mov	sp, r4
 3243              	.LVL432:
 3244              	.LBE581:
 3245              	.LBE611:
 3246              	.LBB612:
 3247              	.LBB607:
 3248              	.LBB604:
 3249              	.LBB601:
 3250              	.LBB598:
 3251              	.LBB595:
 3252              	.LBB592:
 3253 0226 6322     		movs	r2, #99
 3254 0228 AB21     		movs	r1, #171
 3255 022a 8320     		movs	r0, #131
 3256 022c FFF7FEFF 		bl	setAddrWindow
 3257              	.LVL433:
 124:screen.c      ****     SS_Write(0);
 3258              		.loc 1 124 0
 3259 0230 0120     		movs	r0, #1
 3260 0232 FFF7FEFF 		bl	D_C_Write
 3261              	.LVL434:
 125:screen.c      ****     // Writes color to addresses
 3262              		.loc 1 125 0
 3263 0236 0020     		movs	r0, #0
 3264 0238 FFF7FEFF 		bl	SS_Write
 3265              	.LVL435:
 3266 023c 8B25     		movs	r5, #139
 3267              	.LVL436:
 3268              	.L279:
 3269              	.LBE592:
 3270              	.LBE595:
 3271              	.LBE598:
 3272              	.LBE601:
 3273              	.LBE604:
 3274              	.LBE607:
 3275              	.LBE612:
 3276              	.LBB613:
 3277              	.LBB582:
 3278              	.LBB579:
 3279              	.LBB577:
 3280              	.LBB575:
 3281              	.LBB573:
 3282              	.LBB571:
 137:screen.c      **** 
 3283              		.loc 1 137 0
 3284 023e 6324     		movs	r4, #99
 3285              	.LVL437:
 3286              	.L284:
 3287              	.LBE571:
 3288              	.LBE573:
 3289              	.LBE575:
 3290              	.LBE577:
 3291              	.LBE579:
 3292              	.LBE582:
 3293              	.LBE613:
 3294              	.LBB614:
 3295              	.LBB608:
ARM GAS  C:\Users\legoc\AppData\Local\Temp\ccOlrioX.s 			page 71


 3296              	.LBB605:
 3297              	.LBB602:
 3298              	.LBB599:
 3299              	.LBB596:
 3300              	.LBB593:
 131:screen.c      ****             while(SS_Read() != 1){}
 3301              		.loc 1 131 0
 3302 0240 9E20     		movs	r0, #158
 3303 0242 FFF7FEFF 		bl	SPIM_WriteTxData
 3304              	.LVL438:
 3305              	.L282:
 132:screen.c      ****             SPIM_WriteTxData(lo);
 3306              		.loc 1 132 0
 3307 0246 FFF7FEFF 		bl	SS_Read
 3308              	.LVL439:
 3309 024a 0128     		cmp	r0, #1
 3310 024c FBD1     		bne	.L282
 133:screen.c      ****             while(SS_Read() != 1){}
 3311              		.loc 1 133 0
 3312 024e 9F20     		movs	r0, #159
 3313 0250 FFF7FEFF 		bl	SPIM_WriteTxData
 3314              	.LVL440:
 3315              	.L283:
 134:screen.c      ****         }
 3316              		.loc 1 134 0
 3317 0254 FFF7FEFF 		bl	SS_Read
 3318              	.LVL441:
 3319 0258 0128     		cmp	r0, #1
 3320 025a FBD1     		bne	.L283
 3321 025c 013C     		subs	r4, r4, #1
 3322 025e A4B2     		uxth	r4, r4
 129:screen.c      ****         {
 3323              		.loc 1 129 0
 3324 0260 002C     		cmp	r4, #0
 3325 0262 EDD1     		bne	.L284
 3326 0264 6A1E     		subs	r2, r5, #1
 3327 0266 95B2     		uxth	r5, r2
 127:screen.c      ****     {
 3328              		.loc 1 127 0
 3329 0268 002D     		cmp	r5, #0
 3330 026a E8D1     		bne	.L279
 137:screen.c      **** 
 3331              		.loc 1 137 0
 3332 026c FFF7FEFF 		bl	SS_Write
 3333              	.LVL442:
 3334 0270 2A46     		mov	r2, r5
 3335 0272 8549     		ldr	r1, .L359+4
 3336              	.LVL443:
 3337              	.L286:
 3338              	.LBE593:
 3339              	.LBE596:
 3340              	.LBE599:
 3341              	.LBE602:
 3342              	.LBE605:
 309:screen.c      ****     {
 3343              		.loc 1 309 0
 3344 0274 11F8013F 		ldrb	r3, [r1, #1]!	@ zero_extendqisi2
ARM GAS  C:\Users\legoc\AppData\Local\Temp\ccOlrioX.s 			page 72


 3345              	.LVL444:
 311:screen.c      ****         string++;
 3346              		.loc 1 311 0
 3347 0278 0132     		adds	r2, r2, #1
 3348              	.LVL445:
 309:screen.c      ****     {
 3349              		.loc 1 309 0
 3350 027a 002B     		cmp	r3, #0
 3351 027c FAD1     		bne	.L286
 317:screen.c      ****     
 3352              		.loc 1 317 0
 3353 027e 891A     		subs	r1, r1, r2
 315:screen.c      ****     int i = 0;
 3354              		.loc 1 315 0
 3355 0280 D31D     		adds	r3, r2, #7
 3356 0282 23F00703 		bic	r3, r3, #7
 320:screen.c      ****     {
 3357              		.loc 1 320 0
 3358 0286 0878     		ldrb	r0, [r1]	@ zero_extendqisi2
 315:screen.c      ****     int i = 0;
 3359              		.loc 1 315 0
 3360 0288 6C46     		mov	r4, sp
 3361              	.LVL446:
 3362 028a ADEB030D 		sub	sp, sp, r3
 3363 028e 6B46     		mov	r3, sp
 3364              	.LVL447:
 3365 0290 0DF1FF35 		add	r5, sp, #-1
 320:screen.c      ****     {
 3366              		.loc 1 320 0
 3367 0294 28B1     		cbz	r0, .L290
 3368              	.LVL448:
 3369              	.L289:
 322:screen.c      ****         string++;
 3370              		.loc 1 322 0
 3371 0296 05F8010F 		strb	r0, [r5, #1]!
 320:screen.c      ****     {
 3372              		.loc 1 320 0
 3373 029a 11F8010F 		ldrb	r0, [r1, #1]!	@ zero_extendqisi2
 3374              	.LVL449:
 3375 029e 0028     		cmp	r0, #0
 3376 02a0 F9D1     		bne	.L289
 3377              	.LVL450:
 3378              	.L290:
 330:screen.c      **** }
 3379              		.loc 1 330 0
 3380 02a2 C2EBC202 		rsb	r2, r2, r2, lsl #3
 3381              	.LVL451:
 3382 02a6 02EBD272 		add	r2, r2, r2, lsr #31
 3383 02aa 5010     		asrs	r0, r2, #1
 3384 02ac 3A21     		movs	r1, #58
 3385 02ae 0022     		movs	r2, #0
 3386 02b0 C0F15200 		rsb	r0, r0, #82
 3387 02b4 FFF7FEFF 		bl	draw_string
 3388              	.LVL452:
 3389              	.LBE608:
 3390              	.LBE614:
 3391              	.LBB615:
ARM GAS  C:\Users\legoc\AppData\Local\Temp\ccOlrioX.s 			page 73


 3392              	.LBB616:
 3393              	.LBB617:
 3394              	.LBB618:
 3395              	.LBB619:
 3396              	.LBB620:
 3397              	.LBB621:
 115:screen.c      **** 
 3398              		.loc 1 115 0
 3399 02b8 8B23     		movs	r3, #139
 3400              	.LBE621:
 3401              	.LBE620:
 3402              	.LBE619:
 3403              	.LBE618:
 3404              	.LBE617:
 3405              	.LBE616:
 3406              	.LBE615:
 3407              	.LBB641:
 3408              	.LBB609:
 3409 02ba A546     		mov	sp, r4
 3410              	.LVL453:
 3411              	.LBE609:
 3412              	.LBE641:
 3413              	.LBB642:
 3414              	.LBB637:
 3415              	.LBB634:
 3416              	.LBB631:
 3417              	.LBB628:
 3418              	.LBB625:
 3419              	.LBB622:
 3420 02bc 6322     		movs	r2, #99
 3421 02be AB21     		movs	r1, #171
 3422 02c0 0A20     		movs	r0, #10
 3423 02c2 FFF7FEFF 		bl	setAddrWindow
 3424              	.LVL454:
 124:screen.c      ****     SS_Write(0);
 3425              		.loc 1 124 0
 3426 02c6 0120     		movs	r0, #1
 3427 02c8 FFF7FEFF 		bl	D_C_Write
 3428              	.LVL455:
 125:screen.c      ****     // Writes color to addresses
 3429              		.loc 1 125 0
 3430 02cc 0020     		movs	r0, #0
 3431 02ce FFF7FEFF 		bl	SS_Write
 3432              	.LVL456:
 3433 02d2 8B25     		movs	r5, #139
 3434              	.LVL457:
 3435              	.L288:
 3436              	.LBE622:
 3437              	.LBE625:
 3438              	.LBE628:
 3439              	.LBE631:
 3440              	.LBE634:
 3441              	.LBE637:
 3442              	.LBE642:
 3443              	.LBB643:
 3444              	.LBB610:
 3445              	.LBB606:
ARM GAS  C:\Users\legoc\AppData\Local\Temp\ccOlrioX.s 			page 74


 3446              	.LBB603:
 3447              	.LBB600:
 3448              	.LBB597:
 3449              	.LBB594:
 137:screen.c      **** 
 3450              		.loc 1 137 0
 3451 02d4 6324     		movs	r4, #99
 3452              	.LVL458:
 3453              	.L293:
 3454              	.LBE594:
 3455              	.LBE597:
 3456              	.LBE600:
 3457              	.LBE603:
 3458              	.LBE606:
 3459              	.LBE610:
 3460              	.LBE643:
 3461              	.LBB644:
 3462              	.LBB638:
 3463              	.LBB635:
 3464              	.LBB632:
 3465              	.LBB629:
 3466              	.LBB626:
 3467              	.LBB623:
 131:screen.c      ****             while(SS_Read() != 1){}
 3468              		.loc 1 131 0
 3469 02d6 9E20     		movs	r0, #158
 3470 02d8 FFF7FEFF 		bl	SPIM_WriteTxData
 3471              	.LVL459:
 3472              	.L291:
 132:screen.c      ****             SPIM_WriteTxData(lo);
 3473              		.loc 1 132 0
 3474 02dc FFF7FEFF 		bl	SS_Read
 3475              	.LVL460:
 3476 02e0 0128     		cmp	r0, #1
 3477 02e2 FBD1     		bne	.L291
 133:screen.c      ****             while(SS_Read() != 1){}
 3478              		.loc 1 133 0
 3479 02e4 9F20     		movs	r0, #159
 3480 02e6 FFF7FEFF 		bl	SPIM_WriteTxData
 3481              	.LVL461:
 3482              	.L292:
 134:screen.c      ****         }
 3483              		.loc 1 134 0
 3484 02ea FFF7FEFF 		bl	SS_Read
 3485              	.LVL462:
 3486 02ee 0128     		cmp	r0, #1
 3487 02f0 FBD1     		bne	.L292
 3488 02f2 013C     		subs	r4, r4, #1
 3489 02f4 A4B2     		uxth	r4, r4
 129:screen.c      ****         {
 3490              		.loc 1 129 0
 3491 02f6 002C     		cmp	r4, #0
 3492 02f8 EDD1     		bne	.L293
 3493 02fa 6A1E     		subs	r2, r5, #1
 3494 02fc 95B2     		uxth	r5, r2
 127:screen.c      ****     {
 3495              		.loc 1 127 0
ARM GAS  C:\Users\legoc\AppData\Local\Temp\ccOlrioX.s 			page 75


 3496 02fe 002D     		cmp	r5, #0
 3497 0300 E8D1     		bne	.L288
 137:screen.c      **** 
 3498              		.loc 1 137 0
 3499 0302 FFF7FEFF 		bl	SS_Write
 3500              	.LVL463:
 3501 0306 2A46     		mov	r2, r5
 3502 0308 6049     		ldr	r1, .L359+8
 3503              	.LVL464:
 3504              	.L295:
 3505              	.LBE623:
 3506              	.LBE626:
 3507              	.LBE629:
 3508              	.LBE632:
 3509              	.LBE635:
 309:screen.c      ****     {
 3510              		.loc 1 309 0
 3511 030a 11F8013F 		ldrb	r3, [r1, #1]!	@ zero_extendqisi2
 3512              	.LVL465:
 311:screen.c      ****         string++;
 3513              		.loc 1 311 0
 3514 030e 0132     		adds	r2, r2, #1
 3515              	.LVL466:
 309:screen.c      ****     {
 3516              		.loc 1 309 0
 3517 0310 002B     		cmp	r3, #0
 3518 0312 FAD1     		bne	.L295
 317:screen.c      ****     
 3519              		.loc 1 317 0
 3520 0314 891A     		subs	r1, r1, r2
 315:screen.c      ****     int i = 0;
 3521              		.loc 1 315 0
 3522 0316 D31D     		adds	r3, r2, #7
 3523 0318 23F00703 		bic	r3, r3, #7
 320:screen.c      ****     {
 3524              		.loc 1 320 0
 3525 031c 0878     		ldrb	r0, [r1]	@ zero_extendqisi2
 315:screen.c      ****     int i = 0;
 3526              		.loc 1 315 0
 3527 031e 6C46     		mov	r4, sp
 3528              	.LVL467:
 3529 0320 ADEB030D 		sub	sp, sp, r3
 3530 0324 6B46     		mov	r3, sp
 3531              	.LVL468:
 3532 0326 0DF1FF35 		add	r5, sp, #-1
 320:screen.c      ****     {
 3533              		.loc 1 320 0
 3534 032a 28B1     		cbz	r0, .L299
 3535              	.LVL469:
 3536              	.L298:
 322:screen.c      ****         string++;
 3537              		.loc 1 322 0
 3538 032c 05F8010F 		strb	r0, [r5, #1]!
 320:screen.c      ****     {
 3539              		.loc 1 320 0
 3540 0330 11F8010F 		ldrb	r0, [r1, #1]!	@ zero_extendqisi2
 3541              	.LVL470:
ARM GAS  C:\Users\legoc\AppData\Local\Temp\ccOlrioX.s 			page 76


 3542 0334 0028     		cmp	r0, #0
 3543 0336 F9D1     		bne	.L298
 3544              	.LVL471:
 3545              	.L299:
 330:screen.c      **** }
 3546              		.loc 1 330 0
 3547 0338 C2EBC202 		rsb	r2, r2, r2, lsl #3
 3548              	.LVL472:
 3549 033c 02EBD272 		add	r2, r2, r2, lsr #31
 3550 0340 5010     		asrs	r0, r2, #1
 3551 0342 B321     		movs	r1, #179
 3552 0344 0022     		movs	r2, #0
 3553 0346 C0F15200 		rsb	r0, r0, #82
 3554 034a FFF7FEFF 		bl	draw_string
 3555              	.LVL473:
 3556              	.LBE638:
 3557              	.LBE644:
 3558              	.LBB645:
 3559              	.LBB646:
 3560              	.LBB647:
 3561              	.LBB648:
 3562              	.LBB649:
 3563              	.LBB650:
 3564              	.LBB651:
 115:screen.c      **** 
 3565              		.loc 1 115 0
 3566 034e 8B23     		movs	r3, #139
 3567              	.LBE651:
 3568              	.LBE650:
 3569              	.LBE649:
 3570              	.LBE648:
 3571              	.LBE647:
 3572              	.LBE646:
 3573              	.LBE645:
 3574              	.LBB671:
 3575              	.LBB639:
 3576 0350 A546     		mov	sp, r4
 3577              	.LVL474:
 3578              	.LBE639:
 3579              	.LBE671:
 3580              	.LBB672:
 3581              	.LBB667:
 3582              	.LBB664:
 3583              	.LBB661:
 3584              	.LBB658:
 3585              	.LBB655:
 3586              	.LBB652:
 3587 0352 6322     		movs	r2, #99
 3588 0354 0A21     		movs	r1, #10
 3589 0356 8320     		movs	r0, #131
 3590 0358 FFF7FEFF 		bl	setAddrWindow
 3591              	.LVL475:
 124:screen.c      ****     SS_Write(0);
 3592              		.loc 1 124 0
 3593 035c 0120     		movs	r0, #1
 3594 035e FFF7FEFF 		bl	D_C_Write
 3595              	.LVL476:
ARM GAS  C:\Users\legoc\AppData\Local\Temp\ccOlrioX.s 			page 77


 125:screen.c      ****     // Writes color to addresses
 3596              		.loc 1 125 0
 3597 0362 0020     		movs	r0, #0
 3598 0364 FFF7FEFF 		bl	SS_Write
 3599              	.LVL477:
 3600 0368 8B25     		movs	r5, #139
 3601              	.LVL478:
 3602              	.L297:
 3603              	.LBE652:
 3604              	.LBE655:
 3605              	.LBE658:
 3606              	.LBE661:
 3607              	.LBE664:
 3608              	.LBE667:
 3609              	.LBE672:
 3610              	.LBB673:
 3611              	.LBB640:
 3612              	.LBB636:
 3613              	.LBB633:
 3614              	.LBB630:
 3615              	.LBB627:
 3616              	.LBB624:
 137:screen.c      **** 
 3617              		.loc 1 137 0
 3618 036a 6324     		movs	r4, #99
 3619              	.LVL479:
 3620              	.L302:
 3621              	.LBE624:
 3622              	.LBE627:
 3623              	.LBE630:
 3624              	.LBE633:
 3625              	.LBE636:
 3626              	.LBE640:
 3627              	.LBE673:
 3628              	.LBB674:
 3629              	.LBB668:
 3630              	.LBB665:
 3631              	.LBB662:
 3632              	.LBB659:
 3633              	.LBB656:
 3634              	.LBB653:
 131:screen.c      ****             while(SS_Read() != 1){}
 3635              		.loc 1 131 0
 3636 036c FC20     		movs	r0, #252
 3637 036e FFF7FEFF 		bl	SPIM_WriteTxData
 3638              	.LVL480:
 3639              	.L300:
 132:screen.c      ****             SPIM_WriteTxData(lo);
 3640              		.loc 1 132 0
 3641 0372 FFF7FEFF 		bl	SS_Read
 3642              	.LVL481:
 3643 0376 0128     		cmp	r0, #1
 3644 0378 FBD1     		bne	.L300
 133:screen.c      ****             while(SS_Read() != 1){}
 3645              		.loc 1 133 0
 3646 037a F320     		movs	r0, #243
 3647 037c FFF7FEFF 		bl	SPIM_WriteTxData
ARM GAS  C:\Users\legoc\AppData\Local\Temp\ccOlrioX.s 			page 78


 3648              	.LVL482:
 3649              	.L301:
 134:screen.c      ****         }
 3650              		.loc 1 134 0
 3651 0380 FFF7FEFF 		bl	SS_Read
 3652              	.LVL483:
 3653 0384 0128     		cmp	r0, #1
 3654 0386 FBD1     		bne	.L301
 3655 0388 013C     		subs	r4, r4, #1
 3656 038a A4B2     		uxth	r4, r4
 129:screen.c      ****         {
 3657              		.loc 1 129 0
 3658 038c 002C     		cmp	r4, #0
 3659 038e EDD1     		bne	.L302
 3660 0390 6A1E     		subs	r2, r5, #1
 3661 0392 95B2     		uxth	r5, r2
 127:screen.c      ****     {
 3662              		.loc 1 127 0
 3663 0394 002D     		cmp	r5, #0
 3664 0396 E8D1     		bne	.L297
 137:screen.c      **** 
 3665              		.loc 1 137 0
 3666 0398 FFF7FEFF 		bl	SS_Write
 3667              	.LVL484:
 3668 039c 2A46     		mov	r2, r5
 3669 039e 3C49     		ldr	r1, .L359+12
 3670              	.LVL485:
 3671              	.L304:
 3672              	.LBE653:
 3673              	.LBE656:
 3674              	.LBE659:
 3675              	.LBE662:
 3676              	.LBE665:
 309:screen.c      ****     {
 3677              		.loc 1 309 0
 3678 03a0 11F8013F 		ldrb	r3, [r1, #1]!	@ zero_extendqisi2
 3679              	.LVL486:
 311:screen.c      ****         string++;
 3680              		.loc 1 311 0
 3681 03a4 0132     		adds	r2, r2, #1
 3682              	.LVL487:
 309:screen.c      ****     {
 3683              		.loc 1 309 0
 3684 03a6 002B     		cmp	r3, #0
 3685 03a8 FAD1     		bne	.L304
 317:screen.c      ****     
 3686              		.loc 1 317 0
 3687 03aa 891A     		subs	r1, r1, r2
 315:screen.c      ****     int i = 0;
 3688              		.loc 1 315 0
 3689 03ac D31D     		adds	r3, r2, #7
 3690 03ae 23F00703 		bic	r3, r3, #7
 320:screen.c      ****     {
 3691              		.loc 1 320 0
 3692 03b2 0878     		ldrb	r0, [r1]	@ zero_extendqisi2
 315:screen.c      ****     int i = 0;
 3693              		.loc 1 315 0
ARM GAS  C:\Users\legoc\AppData\Local\Temp\ccOlrioX.s 			page 79


 3694 03b4 6C46     		mov	r4, sp
 3695              	.LVL488:
 3696 03b6 ADEB030D 		sub	sp, sp, r3
 3697 03ba 6B46     		mov	r3, sp
 3698              	.LVL489:
 3699 03bc 0DF1FF35 		add	r5, sp, #-1
 320:screen.c      ****     {
 3700              		.loc 1 320 0
 3701 03c0 28B1     		cbz	r0, .L308
 3702              	.LVL490:
 3703              	.L307:
 322:screen.c      ****         string++;
 3704              		.loc 1 322 0
 3705 03c2 05F8010F 		strb	r0, [r5, #1]!
 320:screen.c      ****     {
 3706              		.loc 1 320 0
 3707 03c6 11F8010F 		ldrb	r0, [r1, #1]!	@ zero_extendqisi2
 3708              	.LVL491:
 3709 03ca 0028     		cmp	r0, #0
 3710 03cc F9D1     		bne	.L307
 3711              	.LVL492:
 3712              	.L308:
 330:screen.c      **** }
 3713              		.loc 1 330 0
 3714 03ce C2EBC202 		rsb	r2, r2, r2, lsl #3
 3715              	.LVL493:
 3716 03d2 02EBD272 		add	r2, r2, r2, lsr #31
 3717 03d6 5010     		asrs	r0, r2, #1
 3718 03d8 3A21     		movs	r1, #58
 3719 03da 0022     		movs	r2, #0
 3720 03dc C0F1F300 		rsb	r0, r0, #243
 3721 03e0 FFF7FEFF 		bl	draw_string
 3722              	.LVL494:
 3723              	.LBE668:
 3724              	.LBE674:
 3725              	.LBB675:
 3726              	.LBB676:
 3727              	.LBB677:
 3728              	.LBB678:
 3729              	.LBB679:
 3730              	.LBB680:
 3731              	.LBB681:
 115:screen.c      **** 
 3732              		.loc 1 115 0
 3733 03e4 0A21     		movs	r1, #10
 3734 03e6 0846     		mov	r0, r1
 3735              	.LBE681:
 3736              	.LBE680:
 3737              	.LBE679:
 3738              	.LBE678:
 3739              	.LBE677:
 3740              	.LBE676:
 3741              	.LBE675:
 3742              	.LBB694:
 3743              	.LBB669:
 3744 03e8 A546     		mov	sp, r4
 3745              	.LVL495:
ARM GAS  C:\Users\legoc\AppData\Local\Temp\ccOlrioX.s 			page 80


 3746              	.LBE669:
 3747              	.LBE694:
 3748              	.LBB695:
 3749              	.LBB692:
 3750              	.LBB690:
 3751              	.LBB688:
 3752              	.LBB686:
 3753              	.LBB684:
 3754              	.LBB682:
 3755 03ea 8B23     		movs	r3, #139
 3756 03ec 6322     		movs	r2, #99
 3757 03ee FFF7FEFF 		bl	setAddrWindow
 3758              	.LVL496:
 124:screen.c      ****     SS_Write(0);
 3759              		.loc 1 124 0
 3760 03f2 0120     		movs	r0, #1
 3761 03f4 FFF7FEFF 		bl	D_C_Write
 3762              	.LVL497:
 125:screen.c      ****     // Writes color to addresses
 3763              		.loc 1 125 0
 3764 03f8 0020     		movs	r0, #0
 3765 03fa FFF7FEFF 		bl	SS_Write
 3766              	.LVL498:
 3767 03fe 8B25     		movs	r5, #139
 3768              	.LVL499:
 3769              	.L306:
 3770              	.LBE682:
 3771              	.LBE684:
 3772              	.LBE686:
 3773              	.LBE688:
 3774              	.LBE690:
 3775              	.LBE692:
 3776              	.LBE695:
 3777              	.LBB696:
 3778              	.LBB670:
 3779              	.LBB666:
 3780              	.LBB663:
 3781              	.LBB660:
 3782              	.LBB657:
 3783              	.LBB654:
 137:screen.c      **** 
 3784              		.loc 1 137 0
 3785 0400 6324     		movs	r4, #99
 3786              	.LVL500:
 3787              	.L311:
 3788              	.LBE654:
 3789              	.LBE657:
 3790              	.LBE660:
 3791              	.LBE663:
 3792              	.LBE666:
 3793              	.LBE670:
 3794              	.LBE696:
 3795              	.LBB697:
 3796              	.LBB693:
 3797              	.LBB691:
 3798              	.LBB689:
 3799              	.LBB687:
ARM GAS  C:\Users\legoc\AppData\Local\Temp\ccOlrioX.s 			page 81


 3800              	.LBB685:
 3801              	.LBB683:
 131:screen.c      ****             while(SS_Read() != 1){}
 3802              		.loc 1 131 0
 3803 0402 FC20     		movs	r0, #252
 3804 0404 FFF7FEFF 		bl	SPIM_WriteTxData
 3805              	.LVL501:
 3806              	.L309:
 132:screen.c      ****             SPIM_WriteTxData(lo);
 3807              		.loc 1 132 0
 3808 0408 FFF7FEFF 		bl	SS_Read
 3809              	.LVL502:
 3810 040c 0128     		cmp	r0, #1
 3811 040e FBD1     		bne	.L309
 133:screen.c      ****             while(SS_Read() != 1){}
 3812              		.loc 1 133 0
 3813 0410 F320     		movs	r0, #243
 3814 0412 FFF7FEFF 		bl	SPIM_WriteTxData
 3815              	.LVL503:
 3816              	.L310:
 134:screen.c      ****         }
 3817              		.loc 1 134 0
 3818 0416 FFF7FEFF 		bl	SS_Read
 3819              	.LVL504:
 3820 041a 0128     		cmp	r0, #1
 3821 041c FBD1     		bne	.L310
 3822 041e 013C     		subs	r4, r4, #1
 3823 0420 A4B2     		uxth	r4, r4
 129:screen.c      ****         {
 3824              		.loc 1 129 0
 3825 0422 002C     		cmp	r4, #0
 3826 0424 EDD1     		bne	.L311
 3827 0426 6A1E     		subs	r2, r5, #1
 3828 0428 95B2     		uxth	r5, r2
 127:screen.c      ****     {
 3829              		.loc 1 127 0
 3830 042a 002D     		cmp	r5, #0
 3831 042c E8D1     		bne	.L306
 137:screen.c      **** 
 3832              		.loc 1 137 0
 3833 042e FFF7FEFF 		bl	SS_Write
 3834              	.LVL505:
 3835 0432 2A46     		mov	r2, r5
 3836 0434 1749     		ldr	r1, .L359+16
 3837              	.LVL506:
 3838              	.L313:
 3839              	.LBE683:
 3840              	.LBE685:
 3841              	.LBE687:
 3842              	.LBE689:
 3843              	.LBE691:
 309:screen.c      ****     {
 3844              		.loc 1 309 0
 3845 0436 11F8013F 		ldrb	r3, [r1, #1]!	@ zero_extendqisi2
 3846              	.LVL507:
 311:screen.c      ****         string++;
 3847              		.loc 1 311 0
ARM GAS  C:\Users\legoc\AppData\Local\Temp\ccOlrioX.s 			page 82


 3848 043a 0132     		adds	r2, r2, #1
 3849              	.LVL508:
 309:screen.c      ****     {
 3850              		.loc 1 309 0
 3851 043c 002B     		cmp	r3, #0
 3852 043e FAD1     		bne	.L313
 3853              	.LVL509:
 317:screen.c      ****     
 3854              		.loc 1 317 0
 3855 0440 891A     		subs	r1, r1, r2
 315:screen.c      ****     int i = 0;
 3856              		.loc 1 315 0
 3857 0442 D31D     		adds	r3, r2, #7
 3858 0444 23F00703 		bic	r3, r3, #7
 320:screen.c      ****     {
 3859              		.loc 1 320 0
 3860 0448 0878     		ldrb	r0, [r1]	@ zero_extendqisi2
 315:screen.c      ****     int i = 0;
 3861              		.loc 1 315 0
 3862 044a ADEB030D 		sub	sp, sp, r3
 3863 044e 6B46     		mov	r3, sp
 3864              	.LVL510:
 3865 0450 0DF1FF34 		add	r4, sp, #-1
 320:screen.c      ****     {
 3866              		.loc 1 320 0
 3867 0454 28B1     		cbz	r0, .L316
 3868              	.LVL511:
 3869              	.L315:
 322:screen.c      ****         string++;
 3870              		.loc 1 322 0
 3871 0456 04F8010F 		strb	r0, [r4, #1]!
 320:screen.c      ****     {
 3872              		.loc 1 320 0
 3873 045a 11F8010F 		ldrb	r0, [r1, #1]!	@ zero_extendqisi2
 3874              	.LVL512:
 3875 045e 0028     		cmp	r0, #0
 3876 0460 F9D1     		bne	.L315
 3877              	.LVL513:
 3878              	.L316:
 330:screen.c      **** }
 3879              		.loc 1 330 0
 3880 0462 C2EBC202 		rsb	r2, r2, r2, lsl #3
 3881              	.LVL514:
 3882 0466 02EBD272 		add	r2, r2, r2, lsr #31
 3883 046a 5010     		asrs	r0, r2, #1
 3884 046c B321     		movs	r1, #179
 3885 046e 0022     		movs	r2, #0
 3886 0470 C0F1F300 		rsb	r0, r0, #243
 3887 0474 FFF7FEFF 		bl	draw_string
 3888              	.LVL515:
 3889              	.LBE693:
 3890              	.LBE697:
 395:screen.c      ****     fill_rect(0,0,160,240,BLUE);
 396:screen.c      ****     fill_rect(160,0,160,240,RED);
 397:screen.c      ****     
 398:screen.c      ****     fill_rect(159,0,2,240,BLACK);
 399:screen.c      ****     fill_rect(0,119,320,2,BLACK);
ARM GAS  C:\Users\legoc\AppData\Local\Temp\ccOlrioX.s 			page 83


 400:screen.c      ****     
 401:screen.c      ****     fill_rect(33,109,252,22,BLACK);
 402:screen.c      ****     
 403:screen.c      ****     draw_button(35,111,248,18,WHITE,BLACK,"CHOOSE A SEMICONDUCTOR TYPE");
 404:screen.c      ****     draw_button(10,10,139,99,LIGHTBLUE,BLACK,"N TYPE FET");
 405:screen.c      ****     draw_button(10,131,139,99,LIGHTBLUE,BLACK,"NPN BJT");
 406:screen.c      ****     draw_button(171,10,139,99,LIGHTRED,BLACK,"P TYPE FET");
 407:screen.c      ****     draw_button(171,131,139,99,LIGHTRED,BLACK,"PNP BJT");
 408:screen.c      ****     
 409:screen.c      ****     screen_state = 0;
 3891              		.loc 1 409 0
 3892 0478 074B     		ldr	r3, .L359+20
 3893 047a 0022     		movs	r2, #0
 3894 047c 1A60     		str	r2, [r3]
 410:screen.c      **** }
 3895              		.loc 1 410 0
 3896 047e BD46     		mov	sp, r7
 3897              		.cfi_def_cfa_register 13
 3898              		@ sp needed
 3899 0480 F8BD     		pop	{r3, r4, r5, r6, r7, pc}
 3900              	.L360:
 3901 0482 00BF     		.align	2
 3902              	.L359:
 3903 0484 38000000 		.word	.LC7
 3904 0488 54000000 		.word	.LC8
 3905 048c 60000000 		.word	.LC9
 3906 0490 68000000 		.word	.LC10
 3907 0494 74000000 		.word	.LC11
 3908 0498 00000000 		.word	screen_state
 3909              		.cfi_endproc
 3910              	.LFE16:
 3911              		.size	draw_choose_screen, .-draw_choose_screen
 3912              		.section	.text.draw_options_screen,"ax",%progbits
 3913              		.align	2
 3914              		.global	draw_options_screen
 3915              		.thumb
 3916              		.thumb_func
 3917              		.type	draw_options_screen, %function
 3918              	draw_options_screen:
 3919              	.LFB17:
 411:screen.c      **** 
 412:screen.c      **** void draw_options_screen()
 413:screen.c      **** {
 3920              		.loc 1 413 0
 3921              		.cfi_startproc
 3922              		@ args = 0, pretend = 0, frame = 0
 3923              		@ frame_needed = 0, uses_anonymous_args = 0
 3924 0000 38B5     		push	{r3, r4, r5, lr}
 3925              		.cfi_def_cfa_offset 16
 3926              		.cfi_offset 3, -16
 3927              		.cfi_offset 4, -12
 3928              		.cfi_offset 5, -8
 3929              		.cfi_offset 14, -4
 3930              	.LBB704:
 3931              	.LBB705:
 3932              	.LBB706:
 3933              	.LBB707:
ARM GAS  C:\Users\legoc\AppData\Local\Temp\ccOlrioX.s 			page 84


 3934              	.LBB708:
 3935              	.LBB709:
 115:screen.c      **** 
 3936              		.loc 1 115 0
 3937 0002 0021     		movs	r1, #0
 3938              	.LBE709:
 3939              	.LBE708:
 3940              	.LBE707:
 3941              	.LBE706:
 3942              	.LBE705:
 3943              	.LBE704:
 414:screen.c      ****     screen_state = 1;
 3944              		.loc 1 414 0
 3945 0004 154D     		ldr	r5, .L371
 3946              	.LBB730:
 3947              	.LBB726:
 3948              	.LBB722:
 3949              	.LBB718:
 3950              	.LBB714:
 3951              	.LBB710:
 115:screen.c      **** 
 3952              		.loc 1 115 0
 3953 0006 0846     		mov	r0, r1
 3954 0008 4FF4A073 		mov	r3, #320
 3955 000c F022     		movs	r2, #240
 3956              	.LBE710:
 3957              	.LBE714:
 3958              	.LBE718:
 3959              	.LBE722:
 3960              	.LBE726:
 3961              	.LBE730:
 3962              		.loc 1 414 0
 3963 000e 0124     		movs	r4, #1
 3964 0010 2C60     		str	r4, [r5]
 3965              	.LVL516:
 3966              	.LBB731:
 3967              	.LBB727:
 3968              	.LBB723:
 3969              	.LBB719:
 3970              	.LBB715:
 3971              	.LBB711:
 115:screen.c      **** 
 3972              		.loc 1 115 0
 3973 0012 FFF7FEFF 		bl	setAddrWindow
 3974              	.LVL517:
 124:screen.c      ****     SS_Write(0);
 3975              		.loc 1 124 0
 3976 0016 2046     		mov	r0, r4
 3977 0018 FFF7FEFF 		bl	D_C_Write
 3978              	.LVL518:
 125:screen.c      ****     // Writes color to addresses
 3979              		.loc 1 125 0
 3980 001c 0020     		movs	r0, #0
 3981 001e FFF7FEFF 		bl	SS_Write
 3982              	.LVL519:
 3983 0022 4FF4A075 		mov	r5, #320
 3984              	.LVL520:
ARM GAS  C:\Users\legoc\AppData\Local\Temp\ccOlrioX.s 			page 85


 3985              	.L362:
 3986              	.LBE711:
 3987              	.LBE715:
 3988              	.LBE719:
 3989              	.LBE723:
 3990              	.LBE727:
 3991              	.LBE731:
 413:screen.c      ****     screen_state = 1;
 3992              		.loc 1 413 0
 3993 0026 F024     		movs	r4, #240
 3994              	.LVL521:
 3995              	.L365:
 3996              	.LBB732:
 3997              	.LBB728:
 3998              	.LBB724:
 3999              	.LBB720:
 4000              	.LBB716:
 4001              	.LBB712:
 131:screen.c      ****             while(SS_Read() != 1){}
 4002              		.loc 1 131 0
 4003 0028 0020     		movs	r0, #0
 4004 002a FFF7FEFF 		bl	SPIM_WriteTxData
 4005              	.LVL522:
 4006              	.L363:
 132:screen.c      ****             SPIM_WriteTxData(lo);
 4007              		.loc 1 132 0
 4008 002e FFF7FEFF 		bl	SS_Read
 4009              	.LVL523:
 4010 0032 0128     		cmp	r0, #1
 4011 0034 FBD1     		bne	.L363
 133:screen.c      ****             while(SS_Read() != 1){}
 4012              		.loc 1 133 0
 4013 0036 0020     		movs	r0, #0
 4014 0038 FFF7FEFF 		bl	SPIM_WriteTxData
 4015              	.LVL524:
 4016              	.L364:
 134:screen.c      ****         }
 4017              		.loc 1 134 0
 4018 003c FFF7FEFF 		bl	SS_Read
 4019              	.LVL525:
 4020 0040 0128     		cmp	r0, #1
 4021 0042 FBD1     		bne	.L364
 4022 0044 013C     		subs	r4, r4, #1
 4023 0046 A4B2     		uxth	r4, r4
 129:screen.c      ****         {
 4024              		.loc 1 129 0
 4025 0048 002C     		cmp	r4, #0
 4026 004a EDD1     		bne	.L365
 4027 004c 013D     		subs	r5, r5, #1
 4028 004e ADB2     		uxth	r5, r5
 127:screen.c      ****     {
 4029              		.loc 1 127 0
 4030 0050 002D     		cmp	r5, #0
 4031 0052 E8D1     		bne	.L362
 4032              	.LBE712:
 4033              	.LBE716:
 4034              	.LBE720:
ARM GAS  C:\Users\legoc\AppData\Local\Temp\ccOlrioX.s 			page 86


 4035              	.LBE724:
 4036              	.LBE728:
 4037              	.LBE732:
 415:screen.c      ****     fill_screen(BLACK);
 416:screen.c      **** }
 4038              		.loc 1 416 0
 4039 0054 BDE83840 		pop	{r3, r4, r5, lr}
 4040              		.cfi_restore 14
 4041              		.cfi_restore 5
 4042              		.cfi_restore 4
 4043              		.cfi_restore 3
 4044              		.cfi_def_cfa_offset 0
 4045              	.LBB733:
 4046              	.LBB729:
 4047              	.LBB725:
 4048              	.LBB721:
 4049              	.LBB717:
 4050              	.LBB713:
 137:screen.c      **** 
 4051              		.loc 1 137 0
 4052 0058 FFF7FEBF 		b	SS_Write
 4053              	.LVL526:
 4054              	.L372:
 4055              		.align	2
 4056              	.L371:
 4057 005c 00000000 		.word	screen_state
 4058              	.LBE713:
 4059              	.LBE717:
 4060              	.LBE721:
 4061              	.LBE725:
 4062              	.LBE729:
 4063              	.LBE733:
 4064              		.cfi_endproc
 4065              	.LFE17:
 4066              		.size	draw_options_screen, .-draw_options_screen
 4067              		.section	.text.draw_debug_screen,"ax",%progbits
 4068              		.align	2
 4069              		.global	draw_debug_screen
 4070              		.thumb
 4071              		.thumb_func
 4072              		.type	draw_debug_screen, %function
 4073              	draw_debug_screen:
 4074              	.LFB18:
 417:screen.c      **** 
 418:screen.c      **** void draw_debug_screen(uint16_t x, uint16_t y)
 419:screen.c      **** {
 4075              		.loc 1 419 0
 4076              		.cfi_startproc
 4077              		@ args = 0, pretend = 0, frame = 40
 4078              		@ frame_needed = 1, uses_anonymous_args = 0
 4079              	.LVL527:
 4080 0000 2DE9F043 		push	{r4, r5, r6, r7, r8, r9, lr}
 4081              		.cfi_def_cfa_offset 28
 4082              		.cfi_offset 4, -28
 4083              		.cfi_offset 5, -24
 4084              		.cfi_offset 6, -20
 4085              		.cfi_offset 7, -16
ARM GAS  C:\Users\legoc\AppData\Local\Temp\ccOlrioX.s 			page 87


 4086              		.cfi_offset 8, -12
 4087              		.cfi_offset 9, -8
 4088              		.cfi_offset 14, -4
 4089 0004 8846     		mov	r8, r1
 4090 0006 8BB0     		sub	sp, sp, #44
 4091              		.cfi_def_cfa_offset 72
 4092              	.LBB748:
 4093              	.LBB749:
 4094              	.LBB750:
 4095              	.LBB751:
 4096              	.LBB752:
 4097              	.LBB753:
 115:screen.c      **** 
 4098              		.loc 1 115 0
 4099 0008 0021     		movs	r1, #0
 4100              	.LVL528:
 4101 000a 4FF4A073 		mov	r3, #320
 4102 000e F022     		movs	r2, #240
 4103              	.LBE753:
 4104              	.LBE752:
 4105              	.LBE751:
 4106              	.LBE750:
 4107              	.LBE749:
 4108              	.LBE748:
 4109              		.loc 1 419 0
 4110 0010 8146     		mov	r9, r0
 4111 0012 00AF     		add	r7, sp, #0
 4112              		.cfi_def_cfa_register 7
 4113              	.LBB769:
 4114              	.LBB766:
 4115              	.LBB763:
 4116              	.LBB760:
 4117              	.LBB757:
 4118              	.LBB754:
 115:screen.c      **** 
 4119              		.loc 1 115 0
 4120 0014 0846     		mov	r0, r1
 4121              	.LVL529:
 4122 0016 FFF7FEFF 		bl	setAddrWindow
 4123              	.LVL530:
 124:screen.c      ****     SS_Write(0);
 4124              		.loc 1 124 0
 4125 001a 0120     		movs	r0, #1
 4126 001c FFF7FEFF 		bl	D_C_Write
 4127              	.LVL531:
 125:screen.c      ****     // Writes color to addresses
 4128              		.loc 1 125 0
 4129 0020 0020     		movs	r0, #0
 4130 0022 FFF7FEFF 		bl	SS_Write
 4131              	.LVL532:
 4132 0026 4FF4A076 		mov	r6, #320
 4133              	.LVL533:
 4134              	.L374:
 4135              	.LBE754:
 4136              	.LBE757:
 4137              	.LBE760:
 4138              	.LBE763:
ARM GAS  C:\Users\legoc\AppData\Local\Temp\ccOlrioX.s 			page 88


 4139              	.LBE766:
 4140              	.LBE769:
 4141              		.loc 1 419 0
 4142 002a F025     		movs	r5, #240
 4143              	.LVL534:
 4144              	.L377:
 4145              	.LBB770:
 4146              	.LBB767:
 4147              	.LBB764:
 4148              	.LBB761:
 4149              	.LBB758:
 4150              	.LBB755:
 131:screen.c      ****             while(SS_Read() != 1){}
 4151              		.loc 1 131 0
 4152 002c 0020     		movs	r0, #0
 4153 002e FFF7FEFF 		bl	SPIM_WriteTxData
 4154              	.LVL535:
 4155              	.L375:
 132:screen.c      ****             SPIM_WriteTxData(lo);
 4156              		.loc 1 132 0
 4157 0032 FFF7FEFF 		bl	SS_Read
 4158              	.LVL536:
 4159 0036 0128     		cmp	r0, #1
 4160 0038 FBD1     		bne	.L375
 133:screen.c      ****             while(SS_Read() != 1){}
 4161              		.loc 1 133 0
 4162 003a 0020     		movs	r0, #0
 4163 003c FFF7FEFF 		bl	SPIM_WriteTxData
 4164              	.LVL537:
 4165              	.L376:
 134:screen.c      ****         }
 4166              		.loc 1 134 0
 4167 0040 FFF7FEFF 		bl	SS_Read
 4168              	.LVL538:
 4169 0044 0128     		cmp	r0, #1
 4170 0046 0446     		mov	r4, r0
 4171 0048 FAD1     		bne	.L376
 4172 004a 013D     		subs	r5, r5, #1
 4173 004c ADB2     		uxth	r5, r5
 129:screen.c      ****         {
 4174              		.loc 1 129 0
 4175 004e 002D     		cmp	r5, #0
 4176 0050 ECD1     		bne	.L377
 4177 0052 013E     		subs	r6, r6, #1
 4178 0054 B6B2     		uxth	r6, r6
 127:screen.c      ****     {
 4179              		.loc 1 127 0
 4180 0056 002E     		cmp	r6, #0
 4181 0058 E7D1     		bne	.L374
 137:screen.c      **** 
 4182              		.loc 1 137 0
 4183 005a FFF7FEFF 		bl	SS_Write
 4184              	.LVL539:
 4185              	.LBE755:
 4186              	.LBE758:
 4187              	.LBE761:
 4188              	.LBE764:
ARM GAS  C:\Users\legoc\AppData\Local\Temp\ccOlrioX.s 			page 89


 4189              	.LBE767:
 4190              	.LBE770:
 420:screen.c      ****     fill_screen(BLACK);
 421:screen.c      ****     
 422:screen.c      ****     screen_state = 3;
 4191              		.loc 1 422 0
 4192 005e 404B     		ldr	r3, .L400
 4193 0060 0325     		movs	r5, #3
 423:screen.c      ****     
 424:screen.c      ****     char x_touch[10];
 425:screen.c      ****     char y_touch[10];
 426:screen.c      **** 
 427:screen.c      ****     itoa(x, x_touch, 10);
 4194              		.loc 1 427 0
 4195 0062 07F11001 		add	r1, r7, #16
 4196 0066 0A22     		movs	r2, #10
 4197 0068 4846     		mov	r0, r9
 422:screen.c      ****     
 4198              		.loc 1 422 0
 4199 006a 1D60     		str	r5, [r3]
 4200              		.loc 1 427 0
 4201 006c FFF7FEFF 		bl	itoa
 4202              	.LVL540:
 428:screen.c      ****     itoa(y, y_touch, 10);
 4203              		.loc 1 428 0
 4204 0070 07F11C01 		add	r1, r7, #28
 4205 0074 0A22     		movs	r2, #10
 4206 0076 4046     		mov	r0, r8
 4207 0078 FFF7FEFF 		bl	itoa
 4208              	.LVL541:
 429:screen.c      ****     
 430:screen.c      ****     draw_string(100,110,WHITE,x_touch);
 4209              		.loc 1 430 0
 4210 007c 07F11003 		add	r3, r7, #16
 4211 0080 4FF6FF72 		movw	r2, #65535
 4212 0084 6E21     		movs	r1, #110
 4213 0086 6420     		movs	r0, #100
 4214 0088 FFF7FEFF 		bl	draw_string
 4215              	.LVL542:
 431:screen.c      ****     draw_string(100,100,WHITE,y_touch);
 4216              		.loc 1 431 0
 4217 008c 6421     		movs	r1, #100
 4218 008e 07F11C03 		add	r3, r7, #28
 4219 0092 0846     		mov	r0, r1
 4220 0094 4FF6FF72 		movw	r2, #65535
 4221 0098 FFF7FEFF 		bl	draw_string
 4222              	.LVL543:
 432:screen.c      ****     
 433:screen.c      ****     draw_string(100,200,WHITE,"TOUCH COORDINATES");
 4223              		.loc 1 433 0
 4224 009c 314B     		ldr	r3, .L400+4
 4225 009e 4FF6FF72 		movw	r2, #65535
 4226 00a2 C821     		movs	r1, #200
 4227 00a4 6420     		movs	r0, #100
 4228 00a6 FFF7FEFF 		bl	draw_string
 4229              	.LVL544:
 434:screen.c      ****     
ARM GAS  C:\Users\legoc\AppData\Local\Temp\ccOlrioX.s 			page 90


 435:screen.c      ****     char temp[] = "RETURN";
 4230              		.loc 1 435 0
 4231 00aa 2F4A     		ldr	r2, .L400+8
 4232              	.LBB771:
 4233              	.LBB772:
 4234              	.LBB773:
 4235              	.LBB774:
 4236              	.LBB775:
 4237              	.LBB776:
 4238              	.LBB777:
 115:screen.c      **** 
 4239              		.loc 1 115 0
 4240 00ac 3223     		movs	r3, #50
 4241              	.LBE777:
 4242              	.LBE776:
 4243              	.LBE775:
 4244              	.LBE774:
 4245              	.LBE773:
 4246              	.LBE772:
 4247              	.LBE771:
 4248              		.loc 1 435 0
 4249 00ae 92E80300 		ldmia	r2, {r0, r1}
 4250              	.LBB803:
 4251              	.LBB798:
 4252              	.LBB794:
 4253              	.LBB790:
 4254              	.LBB786:
 4255              	.LBB782:
 4256              	.LBB778:
 115:screen.c      **** 
 4257              		.loc 1 115 0
 4258 00b2 1E22     		movs	r2, #30
 4259              	.LBE778:
 4260              	.LBE782:
 4261              	.LBE786:
 4262              	.LBE790:
 4263              	.LBE794:
 4264              	.LBE798:
 4265              	.LBE803:
 4266              		.loc 1 435 0
 4267 00b4 0D0C     		lsrs	r5, r1, #16
 4268 00b6 B860     		str	r0, [r7, #8]
 4269 00b8 B981     		strh	r1, [r7, #12]	@ movhi
 4270              	.LBB804:
 4271              	.LBB799:
 4272              	.LBB795:
 4273              	.LBB791:
 4274              	.LBB787:
 4275              	.LBB783:
 4276              	.LBB779:
 115:screen.c      **** 
 4277              		.loc 1 115 0
 4278 00ba D220     		movs	r0, #210
 4279 00bc 4FF48771 		mov	r1, #270
 4280              	.LBE779:
 4281              	.LBE783:
 4282              	.LBE787:
ARM GAS  C:\Users\legoc\AppData\Local\Temp\ccOlrioX.s 			page 91


 4283              	.LBE791:
 4284              	.LBE795:
 4285              	.LBE799:
 4286              	.LBE804:
 4287              		.loc 1 435 0
 4288 00c0 BD73     		strb	r5, [r7, #14]
 4289              	.LVL545:
 4290              	.LBB805:
 4291              	.LBB800:
 4292              	.LBB796:
 4293              	.LBB792:
 4294              	.LBB788:
 4295              	.LBB784:
 4296              	.LBB780:
 115:screen.c      **** 
 4297              		.loc 1 115 0
 4298 00c2 FFF7FEFF 		bl	setAddrWindow
 4299              	.LVL546:
 124:screen.c      ****     SS_Write(0);
 4300              		.loc 1 124 0
 4301 00c6 2046     		mov	r0, r4
 4302 00c8 FFF7FEFF 		bl	D_C_Write
 4303              	.LVL547:
 125:screen.c      ****     // Writes color to addresses
 4304              		.loc 1 125 0
 4305 00cc 3046     		mov	r0, r6
 4306 00ce FFF7FEFF 		bl	SS_Write
 4307              	.LVL548:
 4308 00d2 3225     		movs	r5, #50
 4309              	.LVL549:
 4310              	.L379:
 4311              	.LBE780:
 4312              	.LBE784:
 4313              	.LBE788:
 4314              	.LBE792:
 4315              	.LBE796:
 4316              	.LBE800:
 4317              	.LBE805:
 4318              	.LBB806:
 4319              	.LBB768:
 4320              	.LBB765:
 4321              	.LBB762:
 4322              	.LBB759:
 4323              	.LBB756:
 4324 00d4 1E24     		movs	r4, #30
 4325              	.LVL550:
 4326              	.L382:
 4327              	.LBE756:
 4328              	.LBE759:
 4329              	.LBE762:
 4330              	.LBE765:
 4331              	.LBE768:
 4332              	.LBE806:
 4333              	.LBB807:
 4334              	.LBB801:
 4335              	.LBB797:
 4336              	.LBB793:
ARM GAS  C:\Users\legoc\AppData\Local\Temp\ccOlrioX.s 			page 92


 4337              	.LBB789:
 4338              	.LBB785:
 4339              	.LBB781:
 131:screen.c      ****             while(SS_Read() != 1){}
 4340              		.loc 1 131 0
 4341 00d6 FF20     		movs	r0, #255
 4342 00d8 FFF7FEFF 		bl	SPIM_WriteTxData
 4343              	.LVL551:
 4344              	.L380:
 132:screen.c      ****             SPIM_WriteTxData(lo);
 4345              		.loc 1 132 0
 4346 00dc FFF7FEFF 		bl	SS_Read
 4347              	.LVL552:
 4348 00e0 0128     		cmp	r0, #1
 4349 00e2 FBD1     		bne	.L380
 133:screen.c      ****             while(SS_Read() != 1){}
 4350              		.loc 1 133 0
 4351 00e4 FF20     		movs	r0, #255
 4352 00e6 FFF7FEFF 		bl	SPIM_WriteTxData
 4353              	.LVL553:
 4354              	.L381:
 134:screen.c      ****         }
 4355              		.loc 1 134 0
 4356 00ea FFF7FEFF 		bl	SS_Read
 4357              	.LVL554:
 4358 00ee 0128     		cmp	r0, #1
 4359 00f0 FBD1     		bne	.L381
 4360 00f2 013C     		subs	r4, r4, #1
 4361 00f4 A4B2     		uxth	r4, r4
 129:screen.c      ****         {
 4362              		.loc 1 129 0
 4363 00f6 002C     		cmp	r4, #0
 4364 00f8 EDD1     		bne	.L382
 4365 00fa 6A1E     		subs	r2, r5, #1
 4366 00fc 95B2     		uxth	r5, r2
 127:screen.c      ****     {
 4367              		.loc 1 127 0
 4368 00fe 002D     		cmp	r5, #0
 4369 0100 E8D1     		bne	.L379
 137:screen.c      **** 
 4370              		.loc 1 137 0
 4371 0102 FFF7FEFF 		bl	SS_Write
 4372              	.LVL555:
 4373              	.LBE781:
 4374              	.LBE785:
 4375              	.LBE789:
 4376              	.LBE793:
 4377              	.LBE797:
 309:screen.c      ****     {
 4378              		.loc 1 309 0
 4379 0106 3B7A     		ldrb	r3, [r7, #8]	@ zero_extendqisi2
 4380 0108 3BB3     		cbz	r3, .L384
 4381 010a 2A46     		mov	r2, r5
 4382 010c 07F10801 		add	r1, r7, #8
 4383              	.LVL556:
 4384              	.L385:
 4385 0110 11F8013F 		ldrb	r3, [r1, #1]!	@ zero_extendqisi2
ARM GAS  C:\Users\legoc\AppData\Local\Temp\ccOlrioX.s 			page 93


 4386              	.LVL557:
 311:screen.c      ****         string++;
 4387              		.loc 1 311 0
 4388 0114 0132     		adds	r2, r2, #1
 4389              	.LVL558:
 309:screen.c      ****     {
 4390              		.loc 1 309 0
 4391 0116 002B     		cmp	r3, #0
 4392 0118 FAD1     		bne	.L385
 4393              	.LVL559:
 317:screen.c      ****     
 4394              		.loc 1 317 0
 4395 011a 891A     		subs	r1, r1, r2
 315:screen.c      ****     int i = 0;
 4396              		.loc 1 315 0
 4397 011c D31D     		adds	r3, r2, #7
 4398 011e 23F00703 		bic	r3, r3, #7
 320:screen.c      ****     {
 4399              		.loc 1 320 0
 4400 0122 0878     		ldrb	r0, [r1]	@ zero_extendqisi2
 315:screen.c      ****     int i = 0;
 4401              		.loc 1 315 0
 4402 0124 ADEB030D 		sub	sp, sp, r3
 4403 0128 6B46     		mov	r3, sp
 4404              	.LVL560:
 320:screen.c      ****     {
 4405              		.loc 1 320 0
 4406 012a 38B1     		cbz	r0, .L399
 4407 012c 0DF1FF34 		add	r4, sp, #-1
 4408              	.LVL561:
 4409              	.L388:
 322:screen.c      ****         string++;
 4410              		.loc 1 322 0
 4411 0130 04F8010F 		strb	r0, [r4, #1]!
 320:screen.c      ****     {
 4412              		.loc 1 320 0
 4413 0134 11F8010F 		ldrb	r0, [r1, #1]!	@ zero_extendqisi2
 4414              	.LVL562:
 4415 0138 0028     		cmp	r0, #0
 4416 013a F9D1     		bne	.L388
 4417              	.LVL563:
 4418              	.L399:
 4419 013c C2EBC202 		rsb	r2, r2, r2, lsl #3
 4420              	.LVL564:
 4421 0140 02EBD272 		add	r2, r2, r2, lsr #31
 4422 0144 5010     		asrs	r0, r2, #1
 4423 0146 C0F11C00 		rsb	r0, r0, #28
 4424              	.L387:
 4425              	.LVL565:
 330:screen.c      **** }
 4426              		.loc 1 330 0
 4427 014a 0022     		movs	r2, #0
 4428 014c 0E21     		movs	r1, #14
 4429 014e FFF7FEFF 		bl	draw_string
 4430              	.LVL566:
 4431              	.LBE801:
 4432              	.LBE807:
ARM GAS  C:\Users\legoc\AppData\Local\Temp\ccOlrioX.s 			page 94


 436:screen.c      ****     draw_button(0,0,50,30,WHITE,BLACK,temp);
 437:screen.c      **** }...
 4433              		.loc 1 437 0
 4434 0152 2C37     		adds	r7, r7, #44
 4435              		.cfi_remember_state
 4436              		.cfi_def_cfa_offset 28
 4437 0154 BD46     		mov	sp, r7
 4438              		.cfi_def_cfa_register 13
 4439              		@ sp needed
 4440 0156 BDE8F083 		pop	{r4, r5, r6, r7, r8, r9, pc}
 4441              	.LVL567:
 4442              	.L384:
 4443              		.cfi_restore_state
 4444              	.LBB808:
 4445              	.LBB802:
 315:screen.c      ****     char the_string[string_length];
 4446              		.loc 1 315 0
 4447 015a 1C20     		movs	r0, #28
 4448 015c 3B1D     		adds	r3, r7, #4
 4449              	.LVL568:
 4450 015e F4E7     		b	.L387
 4451              	.L401:
 4452              		.align	2
 4453              	.L400:
 4454 0160 00000000 		.word	screen_state
 4455 0164 7C000000 		.word	.LC12
 4456 0168 90000000 		.word	.LC13
 4457              	.LBE802:
 4458              	.LBE808:
 4459              		.cfi_endproc
 4460              	.LFE18:
 4461              		.size	draw_debug_screen, .-draw_debug_screen
 4462              		.section	.rodata
 4463              		.align	2
 4464              		.set	.LANCHOR0,. + 0
 4465              		.type	initcmd, %object
 4466              		.size	initcmd, 111
 4467              	initcmd:
 4468 0000 EF       		.byte	-17
 4469 0001 03       		.byte	3
 4470 0002 03       		.byte	3
 4471 0003 80       		.byte	-128
 4472 0004 02       		.byte	2
 4473 0005 CF       		.byte	-49
 4474 0006 03       		.byte	3
 4475 0007 00       		.byte	0
 4476 0008 C1       		.byte	-63
 4477 0009 30       		.byte	48
 4478 000a ED       		.byte	-19
 4479 000b 04       		.byte	4
 4480 000c 64       		.byte	100
 4481 000d 03       		.byte	3
 4482 000e 12       		.byte	18
 4483 000f 81       		.byte	-127
 4484 0010 E8       		.byte	-24
 4485 0011 03       		.byte	3
 4486 0012 85       		.byte	-123
ARM GAS  C:\Users\legoc\AppData\Local\Temp\ccOlrioX.s 			page 95


 4487 0013 00       		.byte	0
 4488 0014 78       		.byte	120
 4489 0015 CB       		.byte	-53
 4490 0016 05       		.byte	5
 4491 0017 39       		.byte	57
 4492 0018 2C       		.byte	44
 4493 0019 00       		.byte	0
 4494 001a 34       		.byte	52
 4495 001b 02       		.byte	2
 4496 001c F7       		.byte	-9
 4497 001d 01       		.byte	1
 4498 001e 20       		.byte	32
 4499 001f EA       		.byte	-22
 4500 0020 02       		.byte	2
 4501 0021 00       		.byte	0
 4502 0022 00       		.byte	0
 4503 0023 C0       		.byte	-64
 4504 0024 01       		.byte	1
 4505 0025 23       		.byte	35
 4506 0026 C1       		.byte	-63
 4507 0027 01       		.byte	1
 4508 0028 10       		.byte	16
 4509 0029 C5       		.byte	-59
 4510 002a 02       		.byte	2
 4511 002b 3E       		.byte	62
 4512 002c 28       		.byte	40
 4513 002d C7       		.byte	-57
 4514 002e 01       		.byte	1
 4515 002f 86       		.byte	-122
 4516 0030 36       		.byte	54
 4517 0031 01       		.byte	1
 4518 0032 48       		.byte	72
 4519 0033 37       		.byte	55
 4520 0034 01       		.byte	1
 4521 0035 00       		.byte	0
 4522 0036 3A       		.byte	58
 4523 0037 01       		.byte	1
 4524 0038 55       		.byte	85
 4525 0039 B1       		.byte	-79
 4526 003a 02       		.byte	2
 4527 003b 00       		.byte	0
 4528 003c 18       		.byte	24
 4529 003d B6       		.byte	-74
 4530 003e 03       		.byte	3
 4531 003f 08       		.byte	8
 4532 0040 82       		.byte	-126
 4533 0041 27       		.byte	39
 4534 0042 F2       		.byte	-14
 4535 0043 01       		.byte	1
 4536 0044 00       		.byte	0
 4537 0045 26       		.byte	38
 4538 0046 01       		.byte	1
 4539 0047 01       		.byte	1
 4540 0048 E0       		.byte	-32
 4541 0049 0F       		.byte	15
 4542 004a 0F       		.byte	15
 4543 004b 31       		.byte	49
ARM GAS  C:\Users\legoc\AppData\Local\Temp\ccOlrioX.s 			page 96


 4544 004c 2B       		.byte	43
 4545 004d 0C       		.byte	12
 4546 004e 0E       		.byte	14
 4547 004f 08       		.byte	8
 4548 0050 4E       		.byte	78
 4549 0051 F1       		.byte	-15
 4550 0052 37       		.byte	55
 4551 0053 07       		.byte	7
 4552 0054 10       		.byte	16
 4553 0055 03       		.byte	3
 4554 0056 0E       		.byte	14
 4555 0057 09       		.byte	9
 4556 0058 00       		.byte	0
 4557 0059 E1       		.byte	-31
 4558 005a 0F       		.byte	15
 4559 005b 00       		.byte	0
 4560 005c 0E       		.byte	14
 4561 005d 14       		.byte	20
 4562 005e 03       		.byte	3
 4563 005f 11       		.byte	17
 4564 0060 07       		.byte	7
 4565 0061 31       		.byte	49
 4566 0062 C1       		.byte	-63
 4567 0063 48       		.byte	72
 4568 0064 08       		.byte	8
 4569 0065 0F       		.byte	15
 4570 0066 0C       		.byte	12
 4571 0067 31       		.byte	49
 4572 0068 36       		.byte	54
 4573 0069 0F       		.byte	15
 4574 006a 11       		.byte	17
 4575 006b 80       		.byte	-128
 4576 006c 29       		.byte	41
 4577 006d 80       		.byte	-128
 4578 006e 00       		.byte	0
 4579              		.section	.rodata.str1.4,"aMS",%progbits,1
 4580              		.align	2
 4581              	.LC0:
 4582 0000 56445320 		.ascii	"VDS V\000"
 4582      5600
 4583 0006 0000     		.space	2
 4584              	.LC1:
 4585 0008 4944204D 		.ascii	"ID MIL A\000"
 4585      494C2041 
 4585      00
 4586 0011 000000   		.space	3
 4587              	.LC2:
 4588 0014 56434520 		.ascii	"VCE V\000"
 4588      5600
 4589 001a 0000     		.space	2
 4590              	.LC3:
 4591 001c 4943204D 		.ascii	"IC MIL A\000"
 4591      494C2041 
 4591      00
 4592 0025 000000   		.space	3
 4593              	.LC4:
 4594 0028 256400   		.ascii	"%d\000"
ARM GAS  C:\Users\legoc\AppData\Local\Temp\ccOlrioX.s 			page 97


 4595 002b 00       		.space	1
 4596              	.LC6:
 4597 002c 256900   		.ascii	"%i\000"
 4598 002f 00       		.space	1
 4599              	.LC5:
 4600 0030 53544F50 		.ascii	"STOP\000"
 4600      00
 4601 0035 000000   		.space	3
 4602              	.LC7:
 4603 0038 43484F4F 		.ascii	"CHOOSE A SEMICONDUCTOR TYPE\000"
 4603      53452041 
 4603      2053454D 
 4603      49434F4E 
 4603      44554354 
 4604              	.LC8:
 4605 0054 4E205459 		.ascii	"N TYPE FET\000"
 4605      50452046 
 4605      455400
 4606 005f 00       		.space	1
 4607              	.LC9:
 4608 0060 4E504E20 		.ascii	"NPN BJT\000"
 4608      424A5400 
 4609              	.LC10:
 4610 0068 50205459 		.ascii	"P TYPE FET\000"
 4610      50452046 
 4610      455400
 4611 0073 00       		.space	1
 4612              	.LC11:
 4613 0074 504E5020 		.ascii	"PNP BJT\000"
 4613      424A5400 
 4614              	.LC12:
 4615 007c 544F5543 		.ascii	"TOUCH COORDINATES\000"
 4615      4820434F 
 4615      4F524449 
 4615      4E415445 
 4615      5300
 4616 008e 0000     		.space	2
 4617              	.LC13:
 4618 0090 52455455 		.ascii	"RETURN\000"
 4618      524E00
 4619              		.text
 4620              	.Letext0:
 4621              		.file 2 "d:\\psoc\\psoc creator\\4.2\\psoc creator\\import\\gnu\\arm\\5.4.1\\arm-none-eabi\\includ
 4622              		.file 3 "d:\\psoc\\psoc creator\\4.2\\psoc creator\\import\\gnu\\arm\\5.4.1\\arm-none-eabi\\includ
 4623              		.file 4 "font.h"
 4624              		.file 5 "Generated_Source\\PSoC5/D_C.h"
 4625              		.file 6 "Generated_Source\\PSoC5/SPIM.h"
 4626              		.file 7 "Generated_Source\\PSoC5/SS.h"
 4627              		.file 8 "Generated_Source\\PSoC5/CyLib.h"
 4628              		.file 9 "d:\\psoc\\psoc creator\\4.2\\psoc creator\\import\\gnu\\arm\\5.4.1\\arm-none-eabi\\includ
 4629              		.file 10 "d:\\psoc\\psoc creator\\4.2\\psoc creator\\import\\gnu\\arm\\5.4.1\\arm-none-eabi\\inclu
 4630              		.file 11 "uifunctions.h"
 4631              		.section	.debug_info,"",%progbits
 4632              	.Ldebug_info0:
 4633 0000 CC3B0000 		.4byte	0x3bcc
 4634 0004 0400     		.2byte	0x4
 4635 0006 00000000 		.4byte	.Ldebug_abbrev0
ARM GAS  C:\Users\legoc\AppData\Local\Temp\ccOlrioX.s 			page 98


 4636 000a 04       		.byte	0x4
 4637 000b 01       		.uleb128 0x1
 4638 000c 89010000 		.4byte	.LASF105
 4639 0010 0C       		.byte	0xc
 4640 0011 4B020000 		.4byte	.LASF106
 4641 0015 0B010000 		.4byte	.LASF107
 4642 0019 58060000 		.4byte	.Ldebug_ranges0+0x658
 4643 001d 00000000 		.4byte	0
 4644 0021 00000000 		.4byte	.Ldebug_line0
 4645 0025 02       		.uleb128 0x2
 4646 0026 01       		.byte	0x1
 4647 0027 06       		.byte	0x6
 4648 0028 EF040000 		.4byte	.LASF0
 4649 002c 03       		.uleb128 0x3
 4650 002d 8A040000 		.4byte	.LASF2
 4651 0031 02       		.byte	0x2
 4652 0032 1D       		.byte	0x1d
 4653 0033 37000000 		.4byte	0x37
 4654 0037 02       		.uleb128 0x2
 4655 0038 01       		.byte	0x1
 4656 0039 08       		.byte	0x8
 4657 003a BD040000 		.4byte	.LASF1
 4658 003e 03       		.uleb128 0x3
 4659 003f 97030000 		.4byte	.LASF3
 4660 0043 02       		.byte	0x2
 4661 0044 29       		.byte	0x29
 4662 0045 49000000 		.4byte	0x49
 4663 0049 02       		.uleb128 0x2
 4664 004a 02       		.byte	0x2
 4665 004b 05       		.byte	0x5
 4666 004c 49040000 		.4byte	.LASF4
 4667 0050 03       		.uleb128 0x3
 4668 0051 54020000 		.4byte	.LASF5
 4669 0055 02       		.byte	0x2
 4670 0056 2B       		.byte	0x2b
 4671 0057 5B000000 		.4byte	0x5b
 4672 005b 02       		.uleb128 0x2
 4673 005c 02       		.byte	0x2
 4674 005d 07       		.byte	0x7
 4675 005e FB040000 		.4byte	.LASF6
 4676 0062 02       		.uleb128 0x2
 4677 0063 04       		.byte	0x4
 4678 0064 05       		.byte	0x5
 4679 0065 5E040000 		.4byte	.LASF7
 4680 0069 03       		.uleb128 0x3
 4681 006a CB040000 		.4byte	.LASF8
 4682 006e 02       		.byte	0x2
 4683 006f 41       		.byte	0x41
 4684 0070 74000000 		.4byte	0x74
 4685 0074 02       		.uleb128 0x2
 4686 0075 04       		.byte	0x4
 4687 0076 07       		.byte	0x7
 4688 0077 AB040000 		.4byte	.LASF9
 4689 007b 02       		.uleb128 0x2
 4690 007c 08       		.byte	0x8
 4691 007d 05       		.byte	0x5
 4692 007e 89030000 		.4byte	.LASF10
ARM GAS  C:\Users\legoc\AppData\Local\Temp\ccOlrioX.s 			page 99


 4693 0082 02       		.uleb128 0x2
 4694 0083 08       		.byte	0x8
 4695 0084 07       		.byte	0x7
 4696 0085 2B020000 		.4byte	.LASF11
 4697 0089 04       		.uleb128 0x4
 4698 008a 04       		.byte	0x4
 4699 008b 05       		.byte	0x5
 4700 008c 696E7400 		.ascii	"int\000"
 4701 0090 02       		.uleb128 0x2
 4702 0091 04       		.byte	0x4
 4703 0092 07       		.byte	0x7
 4704 0093 46000000 		.4byte	.LASF12
 4705 0097 03       		.uleb128 0x3
 4706 0098 69030000 		.4byte	.LASF13
 4707 009c 03       		.byte	0x3
 4708 009d 18       		.byte	0x18
 4709 009e 2C000000 		.4byte	0x2c
 4710 00a2 03       		.uleb128 0x3
 4711 00a3 23020000 		.4byte	.LASF14
 4712 00a7 03       		.byte	0x3
 4713 00a8 20       		.byte	0x20
 4714 00a9 3E000000 		.4byte	0x3e
 4715 00ad 03       		.uleb128 0x3
 4716 00ae 2C040000 		.4byte	.LASF15
 4717 00b2 03       		.byte	0x3
 4718 00b3 24       		.byte	0x24
 4719 00b4 50000000 		.4byte	0x50
 4720 00b8 03       		.uleb128 0x3
 4721 00b9 D8000000 		.4byte	.LASF16
 4722 00bd 03       		.byte	0x3
 4723 00be 30       		.byte	0x30
 4724 00bf 69000000 		.4byte	0x69
 4725 00c3 02       		.uleb128 0x2
 4726 00c4 04       		.byte	0x4
 4727 00c5 04       		.byte	0x4
 4728 00c6 05010000 		.4byte	.LASF17
 4729 00ca 02       		.uleb128 0x2
 4730 00cb 08       		.byte	0x8
 4731 00cc 04       		.byte	0x4
 4732 00cd 1F050000 		.4byte	.LASF18
 4733 00d1 02       		.uleb128 0x2
 4734 00d2 01       		.byte	0x1
 4735 00d3 08       		.byte	0x8
 4736 00d4 30030000 		.4byte	.LASF19
 4737 00d8 02       		.uleb128 0x2
 4738 00d9 08       		.byte	0x8
 4739 00da 04       		.byte	0x4
 4740 00db 0E040000 		.4byte	.LASF20
 4741 00df 02       		.uleb128 0x2
 4742 00e0 04       		.byte	0x4
 4743 00e1 07       		.byte	0x7
 4744 00e2 A2040000 		.4byte	.LASF21
 4745 00e6 05       		.uleb128 0x5
 4746 00e7 04       		.byte	0x4
 4747 00e8 D1000000 		.4byte	0xd1
 4748 00ec 06       		.uleb128 0x6
 4749 00ed 1A040000 		.4byte	.LASF23
ARM GAS  C:\Users\legoc\AppData\Local\Temp\ccOlrioX.s 			page 100


 4750 00f1 01       		.byte	0x1
 4751 00f2 69       		.byte	0x69
 4752 00f3 01       		.byte	0x1
 4753 00f4 3C010000 		.4byte	0x13c
 4754 00f8 07       		.uleb128 0x7
 4755 00f9 7800     		.ascii	"x\000"
 4756 00fb 01       		.byte	0x1
 4757 00fc 69       		.byte	0x69
 4758 00fd A2000000 		.4byte	0xa2
 4759 0101 07       		.uleb128 0x7
 4760 0102 7900     		.ascii	"y\000"
 4761 0104 01       		.byte	0x1
 4762 0105 69       		.byte	0x69
 4763 0106 A2000000 		.4byte	0xa2
 4764 010a 07       		.uleb128 0x7
 4765 010b 7700     		.ascii	"w\000"
 4766 010d 01       		.byte	0x1
 4767 010e 69       		.byte	0x69
 4768 010f A2000000 		.4byte	0xa2
 4769 0113 07       		.uleb128 0x7
 4770 0114 6800     		.ascii	"h\000"
 4771 0116 01       		.byte	0x1
 4772 0117 69       		.byte	0x69
 4773 0118 A2000000 		.4byte	0xa2
 4774 011c 08       		.uleb128 0x8
 4775 011d 84040000 		.4byte	.LASF22
 4776 0121 01       		.byte	0x1
 4777 0122 6A       		.byte	0x6a
 4778 0123 AD000000 		.4byte	0xad
 4779 0127 09       		.uleb128 0x9
 4780 0128 686900   		.ascii	"hi\000"
 4781 012b 01       		.byte	0x1
 4782 012c 76       		.byte	0x76
 4783 012d 97000000 		.4byte	0x97
 4784 0131 09       		.uleb128 0x9
 4785 0132 6C6F00   		.ascii	"lo\000"
 4786 0135 01       		.byte	0x1
 4787 0136 76       		.byte	0x76
 4788 0137 97000000 		.4byte	0x97
 4789 013b 00       		.byte	0
 4790 013c 06       		.uleb128 0x6
 4791 013d A5020000 		.4byte	.LASF24
 4792 0141 01       		.byte	0x1
 4793 0142 92       		.byte	0x92
 4794 0143 01       		.byte	0x1
 4795 0144 78010000 		.4byte	0x178
 4796 0148 07       		.uleb128 0x7
 4797 0149 7800     		.ascii	"x\000"
 4798 014b 01       		.byte	0x1
 4799 014c 92       		.byte	0x92
 4800 014d A2000000 		.4byte	0xa2
 4801 0151 07       		.uleb128 0x7
 4802 0152 7900     		.ascii	"y\000"
 4803 0154 01       		.byte	0x1
 4804 0155 92       		.byte	0x92
 4805 0156 A2000000 		.4byte	0xa2
 4806 015a 07       		.uleb128 0x7
ARM GAS  C:\Users\legoc\AppData\Local\Temp\ccOlrioX.s 			page 101


 4807 015b 7700     		.ascii	"w\000"
 4808 015d 01       		.byte	0x1
 4809 015e 92       		.byte	0x92
 4810 015f A2000000 		.4byte	0xa2
 4811 0163 07       		.uleb128 0x7
 4812 0164 6800     		.ascii	"h\000"
 4813 0166 01       		.byte	0x1
 4814 0167 92       		.byte	0x92
 4815 0168 A2000000 		.4byte	0xa2
 4816 016c 08       		.uleb128 0x8
 4817 016d 84040000 		.4byte	.LASF22
 4818 0171 01       		.byte	0x1
 4819 0172 93       		.byte	0x93
 4820 0173 AD000000 		.4byte	0xad
 4821 0177 00       		.byte	0
 4822 0178 06       		.uleb128 0x6
 4823 0179 01040000 		.4byte	.LASF25
 4824 017d 01       		.byte	0x1
 4825 017e B2       		.byte	0xb2
 4826 017f 01       		.byte	0x1
 4827 0180 A2010000 		.4byte	0x1a2
 4828 0184 07       		.uleb128 0x7
 4829 0185 7800     		.ascii	"x\000"
 4830 0187 01       		.byte	0x1
 4831 0188 B2       		.byte	0xb2
 4832 0189 A2000000 		.4byte	0xa2
 4833 018d 07       		.uleb128 0x7
 4834 018e 7900     		.ascii	"y\000"
 4835 0190 01       		.byte	0x1
 4836 0191 B2       		.byte	0xb2
 4837 0192 A2000000 		.4byte	0xa2
 4838 0196 08       		.uleb128 0x8
 4839 0197 84040000 		.4byte	.LASF22
 4840 019b 01       		.byte	0x1
 4841 019c B2       		.byte	0xb2
 4842 019d AD000000 		.4byte	0xad
 4843 01a1 00       		.byte	0
 4844 01a2 06       		.uleb128 0x6
 4845 01a3 53040000 		.4byte	.LASF26
 4846 01a7 01       		.byte	0x1
 4847 01a8 CD       		.byte	0xcd
 4848 01a9 01       		.byte	0x1
 4849 01aa CC010000 		.4byte	0x1cc
 4850 01ae 07       		.uleb128 0x7
 4851 01af 7800     		.ascii	"x\000"
 4852 01b1 01       		.byte	0x1
 4853 01b2 CD       		.byte	0xcd
 4854 01b3 A2000000 		.4byte	0xa2
 4855 01b7 07       		.uleb128 0x7
 4856 01b8 7900     		.ascii	"y\000"
 4857 01ba 01       		.byte	0x1
 4858 01bb CD       		.byte	0xcd
 4859 01bc A2000000 		.4byte	0xa2
 4860 01c0 08       		.uleb128 0x8
 4861 01c1 84040000 		.4byte	.LASF22
 4862 01c5 01       		.byte	0x1
 4863 01c6 CD       		.byte	0xcd
ARM GAS  C:\Users\legoc\AppData\Local\Temp\ccOlrioX.s 			page 102


 4864 01c7 AD000000 		.4byte	0xad
 4865 01cb 00       		.byte	0
 4866 01cc 0A       		.uleb128 0xa
 4867 01cd 67040000 		.4byte	.LASF27
 4868 01d1 01       		.byte	0x1
 4869 01d2 0C01     		.2byte	0x10c
 4870 01d4 01       		.byte	0x1
 4871 01d5 04020000 		.4byte	0x204
 4872 01d9 0B       		.uleb128 0xb
 4873 01da 7800     		.ascii	"x\000"
 4874 01dc 01       		.byte	0x1
 4875 01dd 0C01     		.2byte	0x10c
 4876 01df A2000000 		.4byte	0xa2
 4877 01e3 0B       		.uleb128 0xb
 4878 01e4 7900     		.ascii	"y\000"
 4879 01e6 01       		.byte	0x1
 4880 01e7 0C01     		.2byte	0x10c
 4881 01e9 A2000000 		.4byte	0xa2
 4882 01ed 0B       		.uleb128 0xb
 4883 01ee 6800     		.ascii	"h\000"
 4884 01f0 01       		.byte	0x1
 4885 01f1 0D01     		.2byte	0x10d
 4886 01f3 A2000000 		.4byte	0xa2
 4887 01f7 0C       		.uleb128 0xc
 4888 01f8 84040000 		.4byte	.LASF22
 4889 01fc 01       		.byte	0x1
 4890 01fd 0D01     		.2byte	0x10d
 4891 01ff AD000000 		.4byte	0xad
 4892 0203 00       		.byte	0
 4893 0204 0A       		.uleb128 0xa
 4894 0205 F3030000 		.4byte	.LASF28
 4895 0209 01       		.byte	0x1
 4896 020a 0401     		.2byte	0x104
 4897 020c 01       		.byte	0x1
 4898 020d 3C020000 		.4byte	0x23c
 4899 0211 0B       		.uleb128 0xb
 4900 0212 7800     		.ascii	"x\000"
 4901 0214 01       		.byte	0x1
 4902 0215 0401     		.2byte	0x104
 4903 0217 A2000000 		.4byte	0xa2
 4904 021b 0B       		.uleb128 0xb
 4905 021c 7900     		.ascii	"y\000"
 4906 021e 01       		.byte	0x1
 4907 021f 0401     		.2byte	0x104
 4908 0221 A2000000 		.4byte	0xa2
 4909 0225 0B       		.uleb128 0xb
 4910 0226 7700     		.ascii	"w\000"
 4911 0228 01       		.byte	0x1
 4912 0229 0501     		.2byte	0x105
 4913 022b A2000000 		.4byte	0xa2
 4914 022f 0C       		.uleb128 0xc
 4915 0230 84040000 		.4byte	.LASF22
 4916 0234 01       		.byte	0x1
 4917 0235 0501     		.2byte	0x105
 4918 0237 AD000000 		.4byte	0xad
 4919 023b 00       		.byte	0
 4920 023c 0A       		.uleb128 0xa
ARM GAS  C:\Users\legoc\AppData\Local\Temp\ccOlrioX.s 			page 103


 4921 023d 71030000 		.4byte	.LASF29
 4922 0241 01       		.byte	0x1
 4923 0242 1401     		.2byte	0x114
 4924 0244 01       		.byte	0x1
 4925 0245 9E020000 		.4byte	0x29e
 4926 0249 0B       		.uleb128 0xb
 4927 024a 783000   		.ascii	"x0\000"
 4928 024d 01       		.byte	0x1
 4929 024e 1401     		.2byte	0x114
 4930 0250 A2000000 		.4byte	0xa2
 4931 0254 0B       		.uleb128 0xb
 4932 0255 793000   		.ascii	"y0\000"
 4933 0258 01       		.byte	0x1
 4934 0259 1401     		.2byte	0x114
 4935 025b A2000000 		.4byte	0xa2
 4936 025f 0B       		.uleb128 0xb
 4937 0260 783100   		.ascii	"x1\000"
 4938 0263 01       		.byte	0x1
 4939 0264 1401     		.2byte	0x114
 4940 0266 A2000000 		.4byte	0xa2
 4941 026a 0B       		.uleb128 0xb
 4942 026b 793100   		.ascii	"y1\000"
 4943 026e 01       		.byte	0x1
 4944 026f 1401     		.2byte	0x114
 4945 0271 A2000000 		.4byte	0xa2
 4946 0275 0C       		.uleb128 0xc
 4947 0276 84040000 		.4byte	.LASF22
 4948 027a 01       		.byte	0x1
 4949 027b 1501     		.2byte	0x115
 4950 027d AD000000 		.4byte	0xad
 4951 0281 0D       		.uleb128 0xd
 4952 0282 91020000 		.4byte	0x291
 4953 0286 0E       		.uleb128 0xe
 4954 0287 7400     		.ascii	"t\000"
 4955 0289 01       		.byte	0x1
 4956 028a 1A01     		.2byte	0x11a
 4957 028c A2000000 		.4byte	0xa2
 4958 0290 00       		.byte	0
 4959 0291 0F       		.uleb128 0xf
 4960 0292 0E       		.uleb128 0xe
 4961 0293 7400     		.ascii	"t\000"
 4962 0295 01       		.byte	0x1
 4963 0296 2001     		.2byte	0x120
 4964 0298 A2000000 		.4byte	0xa2
 4965 029c 00       		.byte	0
 4966 029d 00       		.byte	0
 4967 029e 06       		.uleb128 0x6
 4968 029f E3040000 		.4byte	.LASF30
 4969 02a3 01       		.byte	0x1
 4970 02a4 99       		.byte	0x99
 4971 02a5 01       		.byte	0x1
 4972 02a6 B6020000 		.4byte	0x2b6
 4973 02aa 08       		.uleb128 0x8
 4974 02ab 84040000 		.4byte	.LASF22
 4975 02af 01       		.byte	0x1
 4976 02b0 99       		.byte	0x99
 4977 02b1 AD000000 		.4byte	0xad
ARM GAS  C:\Users\legoc\AppData\Local\Temp\ccOlrioX.s 			page 104


 4978 02b5 00       		.byte	0
 4979 02b6 06       		.uleb128 0x6
 4980 02b7 9A000000 		.4byte	.LASF31
 4981 02bb 01       		.byte	0x1
 4982 02bc 2D       		.byte	0x2d
 4983 02bd 01       		.byte	0x1
 4984 02be CE020000 		.4byte	0x2ce
 4985 02c2 08       		.uleb128 0x8
 4986 02c3 C8030000 		.4byte	.LASF32
 4987 02c7 01       		.byte	0x1
 4988 02c8 2D       		.byte	0x2d
 4989 02c9 97000000 		.4byte	0x97
 4990 02cd 00       		.byte	0
 4991 02ce 10       		.uleb128 0x10
 4992 02cf B6020000 		.4byte	0x2b6
 4993 02d3 00000000 		.4byte	.LFB1
 4994 02d7 22000000 		.4byte	.LFE1-.LFB1
 4995 02db 01       		.uleb128 0x1
 4996 02dc 9C       		.byte	0x9c
 4997 02dd 24030000 		.4byte	0x324
 4998 02e1 11       		.uleb128 0x11
 4999 02e2 C2020000 		.4byte	0x2c2
 5000 02e6 00000000 		.4byte	.LLST0
 5001 02ea 12       		.uleb128 0x12
 5002 02eb 0A000000 		.4byte	.LVL2
 5003 02ef 763B0000 		.4byte	0x3b76
 5004 02f3 FD020000 		.4byte	0x2fd
 5005 02f7 13       		.uleb128 0x13
 5006 02f8 01       		.uleb128 0x1
 5007 02f9 50       		.byte	0x50
 5008 02fa 01       		.uleb128 0x1
 5009 02fb 30       		.byte	0x30
 5010 02fc 00       		.byte	0
 5011 02fd 12       		.uleb128 0x12
 5012 02fe 10000000 		.4byte	.LVL3
 5013 0302 813B0000 		.4byte	0x3b81
 5014 0306 11030000 		.4byte	0x311
 5015 030a 13       		.uleb128 0x13
 5016 030b 01       		.uleb128 0x1
 5017 030c 50       		.byte	0x50
 5018 030d 02       		.uleb128 0x2
 5019 030e 74       		.byte	0x74
 5020 030f 00       		.sleb128 0
 5021 0310 00       		.byte	0
 5022 0311 14       		.uleb128 0x14
 5023 0312 14000000 		.4byte	.LVL4
 5024 0316 8C3B0000 		.4byte	0x3b8c
 5025 031a 14       		.uleb128 0x14
 5026 031b 1C000000 		.4byte	.LVL5
 5027 031f 8C3B0000 		.4byte	0x3b8c
 5028 0323 00       		.byte	0
 5029 0324 06       		.uleb128 0x6
 5030 0325 13000000 		.4byte	.LASF33
 5031 0329 01       		.byte	0x1
 5032 032a 37       		.byte	0x37
 5033 032b 01       		.byte	0x1
 5034 032c 3C030000 		.4byte	0x33c
ARM GAS  C:\Users\legoc\AppData\Local\Temp\ccOlrioX.s 			page 105


 5035 0330 08       		.uleb128 0x8
 5036 0331 64030000 		.4byte	.LASF34
 5037 0335 01       		.byte	0x1
 5038 0336 37       		.byte	0x37
 5039 0337 97000000 		.4byte	0x97
 5040 033b 00       		.byte	0
 5041 033c 10       		.uleb128 0x10
 5042 033d 24030000 		.4byte	0x324
 5043 0341 00000000 		.4byte	.LFB2
 5044 0345 22000000 		.4byte	.LFE2-.LFB2
 5045 0349 01       		.uleb128 0x1
 5046 034a 9C       		.byte	0x9c
 5047 034b 92030000 		.4byte	0x392
 5048 034f 11       		.uleb128 0x11
 5049 0350 30030000 		.4byte	0x330
 5050 0354 21000000 		.4byte	.LLST1
 5051 0358 12       		.uleb128 0x12
 5052 0359 0A000000 		.4byte	.LVL8
 5053 035d 763B0000 		.4byte	0x3b76
 5054 0361 6B030000 		.4byte	0x36b
 5055 0365 13       		.uleb128 0x13
 5056 0366 01       		.uleb128 0x1
 5057 0367 50       		.byte	0x50
 5058 0368 01       		.uleb128 0x1
 5059 0369 31       		.byte	0x31
 5060 036a 00       		.byte	0
 5061 036b 12       		.uleb128 0x12
 5062 036c 10000000 		.4byte	.LVL9
 5063 0370 813B0000 		.4byte	0x3b81
 5064 0374 7F030000 		.4byte	0x37f
 5065 0378 13       		.uleb128 0x13
 5066 0379 01       		.uleb128 0x1
 5067 037a 50       		.byte	0x50
 5068 037b 02       		.uleb128 0x2
 5069 037c 74       		.byte	0x74
 5070 037d 00       		.sleb128 0
 5071 037e 00       		.byte	0
 5072 037f 14       		.uleb128 0x14
 5073 0380 14000000 		.4byte	.LVL10
 5074 0384 8C3B0000 		.4byte	0x3b8c
 5075 0388 14       		.uleb128 0x14
 5076 0389 1C000000 		.4byte	.LVL11
 5077 038d 8C3B0000 		.4byte	0x3b8c
 5078 0391 00       		.byte	0
 5079 0392 15       		.uleb128 0x15
 5080 0393 75000000 		.4byte	.LASF37
 5081 0397 01       		.byte	0x1
 5082 0398 41       		.byte	0x41
 5083 0399 00000000 		.4byte	.LFB3
 5084 039d FE000000 		.4byte	.LFE3-.LFB3
 5085 03a1 01       		.uleb128 0x1
 5086 03a2 9C       		.byte	0x9c
 5087 03a3 41060000 		.4byte	0x641
 5088 03a7 16       		.uleb128 0x16
 5089 03a8 7800     		.ascii	"x\000"
 5090 03aa 01       		.byte	0x1
 5091 03ab 41       		.byte	0x41
ARM GAS  C:\Users\legoc\AppData\Local\Temp\ccOlrioX.s 			page 106


 5092 03ac AD000000 		.4byte	0xad
 5093 03b0 42000000 		.4byte	.LLST2
 5094 03b4 16       		.uleb128 0x16
 5095 03b5 7900     		.ascii	"y\000"
 5096 03b7 01       		.byte	0x1
 5097 03b8 41       		.byte	0x41
 5098 03b9 AD000000 		.4byte	0xad
 5099 03bd 63000000 		.4byte	.LLST3
 5100 03c1 16       		.uleb128 0x16
 5101 03c2 7700     		.ascii	"w\000"
 5102 03c4 01       		.byte	0x1
 5103 03c5 41       		.byte	0x41
 5104 03c6 AD000000 		.4byte	0xad
 5105 03ca 84000000 		.4byte	.LLST4
 5106 03ce 16       		.uleb128 0x16
 5107 03cf 6800     		.ascii	"h\000"
 5108 03d1 01       		.byte	0x1
 5109 03d2 41       		.byte	0x41
 5110 03d3 AD000000 		.4byte	0xad
 5111 03d7 A5000000 		.4byte	.LLST5
 5112 03db 17       		.uleb128 0x17
 5113 03dc 786100   		.ascii	"xa\000"
 5114 03df 01       		.byte	0x1
 5115 03e0 42       		.byte	0x42
 5116 03e1 B8000000 		.4byte	0xb8
 5117 03e5 01       		.uleb128 0x1
 5118 03e6 55       		.byte	0x55
 5119 03e7 17       		.uleb128 0x17
 5120 03e8 796100   		.ascii	"ya\000"
 5121 03eb 01       		.byte	0x1
 5122 03ec 43       		.byte	0x43
 5123 03ed B8000000 		.4byte	0xb8
 5124 03f1 01       		.uleb128 0x1
 5125 03f2 54       		.byte	0x54
 5126 03f3 18       		.uleb128 0x18
 5127 03f4 B6020000 		.4byte	0x2b6
 5128 03f8 0C000000 		.4byte	.LBB76
 5129 03fc 00000000 		.4byte	.Ldebug_ranges0+0
 5130 0400 01       		.byte	0x1
 5131 0401 46       		.byte	0x46
 5132 0402 49040000 		.4byte	0x449
 5133 0406 11       		.uleb128 0x11
 5134 0407 C2020000 		.4byte	0x2c2
 5135 040b C6000000 		.4byte	.LLST6
 5136 040f 12       		.uleb128 0x12
 5137 0410 1A000000 		.4byte	.LVL18
 5138 0414 763B0000 		.4byte	0x3b76
 5139 0418 22040000 		.4byte	0x422
 5140 041c 13       		.uleb128 0x13
 5141 041d 01       		.uleb128 0x1
 5142 041e 50       		.byte	0x50
 5143 041f 01       		.uleb128 0x1
 5144 0420 30       		.byte	0x30
 5145 0421 00       		.byte	0
 5146 0422 12       		.uleb128 0x12
 5147 0423 20000000 		.4byte	.LVL19
 5148 0427 813B0000 		.4byte	0x3b81
ARM GAS  C:\Users\legoc\AppData\Local\Temp\ccOlrioX.s 			page 107


 5149 042b 36040000 		.4byte	0x436
 5150 042f 13       		.uleb128 0x13
 5151 0430 01       		.uleb128 0x1
 5152 0431 50       		.byte	0x50
 5153 0432 02       		.uleb128 0x2
 5154 0433 08       		.byte	0x8
 5155 0434 2A       		.byte	0x2a
 5156 0435 00       		.byte	0
 5157 0436 14       		.uleb128 0x14
 5158 0437 24000000 		.4byte	.LVL20
 5159 043b 8C3B0000 		.4byte	0x3b8c
 5160 043f 14       		.uleb128 0x14
 5161 0440 2C000000 		.4byte	.LVL21
 5162 0444 8C3B0000 		.4byte	0x3b8c
 5163 0448 00       		.byte	0
 5164 0449 19       		.uleb128 0x19
 5165 044a B6020000 		.4byte	0x2b6
 5166 044e 7A000000 		.4byte	.LBB80
 5167 0452 1C000000 		.4byte	.LBE80-.LBB80
 5168 0456 01       		.byte	0x1
 5169 0457 56       		.byte	0x56
 5170 0458 9F040000 		.4byte	0x49f
 5171 045c 11       		.uleb128 0x11
 5172 045d C2020000 		.4byte	0x2c2
 5173 0461 DB000000 		.4byte	.LLST7
 5174 0465 12       		.uleb128 0x12
 5175 0466 80000000 		.4byte	.LVL34
 5176 046a 763B0000 		.4byte	0x3b76
 5177 046e 78040000 		.4byte	0x478
 5178 0472 13       		.uleb128 0x13
 5179 0473 01       		.uleb128 0x1
 5180 0474 50       		.byte	0x50
 5181 0475 01       		.uleb128 0x1
 5182 0476 30       		.byte	0x30
 5183 0477 00       		.byte	0
 5184 0478 12       		.uleb128 0x12
 5185 0479 86000000 		.4byte	.LVL35
 5186 047d 813B0000 		.4byte	0x3b81
 5187 0481 8C040000 		.4byte	0x48c
 5188 0485 13       		.uleb128 0x13
 5189 0486 01       		.uleb128 0x1
 5190 0487 50       		.byte	0x50
 5191 0488 02       		.uleb128 0x2
 5192 0489 08       		.byte	0x8
 5193 048a 2B       		.byte	0x2b
 5194 048b 00       		.byte	0
 5195 048c 14       		.uleb128 0x14
 5196 048d 8A000000 		.4byte	.LVL36
 5197 0491 8C3B0000 		.4byte	0x3b8c
 5198 0495 14       		.uleb128 0x14
 5199 0496 92000000 		.4byte	.LVL37
 5200 049a 8C3B0000 		.4byte	0x3b8c
 5201 049e 00       		.byte	0
 5202 049f 19       		.uleb128 0x19
 5203 04a0 B6020000 		.4byte	0x2b6
 5204 04a4 E0000000 		.4byte	.LBB82
 5205 04a8 1C000000 		.4byte	.LBE82-.LBB82
ARM GAS  C:\Users\legoc\AppData\Local\Temp\ccOlrioX.s 			page 108


 5206 04ac 01       		.byte	0x1
 5207 04ad 65       		.byte	0x65
 5208 04ae F2040000 		.4byte	0x4f2
 5209 04b2 1A       		.uleb128 0x1a
 5210 04b3 C2020000 		.4byte	0x2c2
 5211 04b7 2C       		.byte	0x2c
 5212 04b8 12       		.uleb128 0x12
 5213 04b9 E6000000 		.4byte	.LVL50
 5214 04bd 763B0000 		.4byte	0x3b76
 5215 04c1 CB040000 		.4byte	0x4cb
 5216 04c5 13       		.uleb128 0x13
 5217 04c6 01       		.uleb128 0x1
 5218 04c7 50       		.byte	0x50
 5219 04c8 01       		.uleb128 0x1
 5220 04c9 30       		.byte	0x30
 5221 04ca 00       		.byte	0
 5222 04cb 12       		.uleb128 0x12
 5223 04cc EC000000 		.4byte	.LVL51
 5224 04d0 813B0000 		.4byte	0x3b81
 5225 04d4 DF040000 		.4byte	0x4df
 5226 04d8 13       		.uleb128 0x13
 5227 04d9 01       		.uleb128 0x1
 5228 04da 50       		.byte	0x50
 5229 04db 02       		.uleb128 0x2
 5230 04dc 08       		.byte	0x8
 5231 04dd 2C       		.byte	0x2c
 5232 04de 00       		.byte	0
 5233 04df 14       		.uleb128 0x14
 5234 04e0 F0000000 		.4byte	.LVL52
 5235 04e4 8C3B0000 		.4byte	0x3b8c
 5236 04e8 14       		.uleb128 0x14
 5237 04e9 F8000000 		.4byte	.LVL53
 5238 04ed 8C3B0000 		.4byte	0x3b8c
 5239 04f1 00       		.byte	0
 5240 04f2 14       		.uleb128 0x14
 5241 04f3 34000000 		.4byte	.LVL23
 5242 04f7 763B0000 		.4byte	0x3b76
 5243 04fb 12       		.uleb128 0x12
 5244 04fc 3A000000 		.4byte	.LVL24
 5245 0500 973B0000 		.4byte	0x3b97
 5246 0504 0E050000 		.4byte	0x50e
 5247 0508 13       		.uleb128 0x13
 5248 0509 01       		.uleb128 0x1
 5249 050a 50       		.byte	0x50
 5250 050b 01       		.uleb128 0x1
 5251 050c 30       		.byte	0x30
 5252 050d 00       		.byte	0
 5253 050e 12       		.uleb128 0x12
 5254 050f 40000000 		.4byte	.LVL25
 5255 0513 813B0000 		.4byte	0x3b81
 5256 0517 24050000 		.4byte	0x524
 5257 051b 13       		.uleb128 0x13
 5258 051c 01       		.uleb128 0x1
 5259 051d 50       		.byte	0x50
 5260 051e 04       		.uleb128 0x4
 5261 051f 75       		.byte	0x75
 5262 0520 00       		.sleb128 0
ARM GAS  C:\Users\legoc\AppData\Local\Temp\ccOlrioX.s 			page 109


 5263 0521 48       		.byte	0x48
 5264 0522 25       		.byte	0x25
 5265 0523 00       		.byte	0
 5266 0524 14       		.uleb128 0x14
 5267 0525 44000000 		.4byte	.LVL26
 5268 0529 8C3B0000 		.4byte	0x3b8c
 5269 052d 12       		.uleb128 0x12
 5270 052e 50000000 		.4byte	.LVL27
 5271 0532 813B0000 		.4byte	0x3b81
 5272 0536 47050000 		.4byte	0x547
 5273 053a 13       		.uleb128 0x13
 5274 053b 01       		.uleb128 0x1
 5275 053c 50       		.byte	0x50
 5276 053d 08       		.uleb128 0x8
 5277 053e 75       		.byte	0x75
 5278 053f 00       		.sleb128 0
 5279 0540 09       		.byte	0x9
 5280 0541 EC       		.byte	0xec
 5281 0542 24       		.byte	0x24
 5282 0543 09       		.byte	0x9
 5283 0544 FC       		.byte	0xfc
 5284 0545 25       		.byte	0x25
 5285 0546 00       		.byte	0
 5286 0547 14       		.uleb128 0x14
 5287 0548 54000000 		.4byte	.LVL28
 5288 054c 8C3B0000 		.4byte	0x3b8c
 5289 0550 12       		.uleb128 0x12
 5290 0551 60000000 		.4byte	.LVL29
 5291 0555 813B0000 		.4byte	0x3b81
 5292 0559 6A050000 		.4byte	0x56a
 5293 055d 13       		.uleb128 0x13
 5294 055e 01       		.uleb128 0x1
 5295 055f 50       		.byte	0x50
 5296 0560 08       		.uleb128 0x8
 5297 0561 75       		.byte	0x75
 5298 0562 00       		.sleb128 0
 5299 0563 09       		.byte	0x9
 5300 0564 F4       		.byte	0xf4
 5301 0565 24       		.byte	0x24
 5302 0566 09       		.byte	0x9
 5303 0567 FC       		.byte	0xfc
 5304 0568 25       		.byte	0x25
 5305 0569 00       		.byte	0
 5306 056a 14       		.uleb128 0x14
 5307 056b 64000000 		.4byte	.LVL30
 5308 056f 8C3B0000 		.4byte	0x3b8c
 5309 0573 12       		.uleb128 0x12
 5310 0574 6E000000 		.4byte	.LVL31
 5311 0578 813B0000 		.4byte	0x3b81
 5312 057c 87050000 		.4byte	0x587
 5313 0580 13       		.uleb128 0x13
 5314 0581 01       		.uleb128 0x1
 5315 0582 50       		.byte	0x50
 5316 0583 02       		.uleb128 0x2
 5317 0584 75       		.byte	0x75
 5318 0585 00       		.sleb128 0
 5319 0586 00       		.byte	0
ARM GAS  C:\Users\legoc\AppData\Local\Temp\ccOlrioX.s 			page 110


 5320 0587 14       		.uleb128 0x14
 5321 0588 72000000 		.4byte	.LVL32
 5322 058c 8C3B0000 		.4byte	0x3b8c
 5323 0590 14       		.uleb128 0x14
 5324 0591 7A000000 		.4byte	.LVL33
 5325 0595 973B0000 		.4byte	0x3b97
 5326 0599 14       		.uleb128 0x14
 5327 059a 9A000000 		.4byte	.LVL39
 5328 059e 763B0000 		.4byte	0x3b76
 5329 05a2 12       		.uleb128 0x12
 5330 05a3 A0000000 		.4byte	.LVL40
 5331 05a7 973B0000 		.4byte	0x3b97
 5332 05ab B5050000 		.4byte	0x5b5
 5333 05af 13       		.uleb128 0x13
 5334 05b0 01       		.uleb128 0x1
 5335 05b1 50       		.byte	0x50
 5336 05b2 01       		.uleb128 0x1
 5337 05b3 30       		.byte	0x30
 5338 05b4 00       		.byte	0
 5339 05b5 12       		.uleb128 0x12
 5340 05b6 A6000000 		.4byte	.LVL41
 5341 05ba 813B0000 		.4byte	0x3b81
 5342 05be CB050000 		.4byte	0x5cb
 5343 05c2 13       		.uleb128 0x13
 5344 05c3 01       		.uleb128 0x1
 5345 05c4 50       		.byte	0x50
 5346 05c5 04       		.uleb128 0x4
 5347 05c6 74       		.byte	0x74
 5348 05c7 00       		.sleb128 0
 5349 05c8 48       		.byte	0x48
 5350 05c9 25       		.byte	0x25
 5351 05ca 00       		.byte	0
 5352 05cb 14       		.uleb128 0x14
 5353 05cc AA000000 		.4byte	.LVL42
 5354 05d0 8C3B0000 		.4byte	0x3b8c
 5355 05d4 12       		.uleb128 0x12
 5356 05d5 B6000000 		.4byte	.LVL43
 5357 05d9 813B0000 		.4byte	0x3b81
 5358 05dd EE050000 		.4byte	0x5ee
 5359 05e1 13       		.uleb128 0x13
 5360 05e2 01       		.uleb128 0x1
 5361 05e3 50       		.byte	0x50
 5362 05e4 08       		.uleb128 0x8
 5363 05e5 74       		.byte	0x74
 5364 05e6 00       		.sleb128 0
 5365 05e7 09       		.byte	0x9
 5366 05e8 EC       		.byte	0xec
 5367 05e9 24       		.byte	0x24
 5368 05ea 09       		.byte	0x9
 5369 05eb FC       		.byte	0xfc
 5370 05ec 25       		.byte	0x25
 5371 05ed 00       		.byte	0
 5372 05ee 14       		.uleb128 0x14
 5373 05ef BA000000 		.4byte	.LVL44
 5374 05f3 8C3B0000 		.4byte	0x3b8c
 5375 05f7 12       		.uleb128 0x12
 5376 05f8 C6000000 		.4byte	.LVL45
ARM GAS  C:\Users\legoc\AppData\Local\Temp\ccOlrioX.s 			page 111


 5377 05fc 813B0000 		.4byte	0x3b81
 5378 0600 11060000 		.4byte	0x611
 5379 0604 13       		.uleb128 0x13
 5380 0605 01       		.uleb128 0x1
 5381 0606 50       		.byte	0x50
 5382 0607 08       		.uleb128 0x8
 5383 0608 74       		.byte	0x74
 5384 0609 00       		.sleb128 0
 5385 060a 09       		.byte	0x9
 5386 060b F4       		.byte	0xf4
 5387 060c 24       		.byte	0x24
 5388 060d 09       		.byte	0x9
 5389 060e FC       		.byte	0xfc
 5390 060f 25       		.byte	0x25
 5391 0610 00       		.byte	0
 5392 0611 14       		.uleb128 0x14
 5393 0612 CA000000 		.4byte	.LVL46
 5394 0616 8C3B0000 		.4byte	0x3b8c
 5395 061a 12       		.uleb128 0x12
 5396 061b D4000000 		.4byte	.LVL47
 5397 061f 813B0000 		.4byte	0x3b81
 5398 0623 2E060000 		.4byte	0x62e
 5399 0627 13       		.uleb128 0x13
 5400 0628 01       		.uleb128 0x1
 5401 0629 50       		.byte	0x50
 5402 062a 02       		.uleb128 0x2
 5403 062b 74       		.byte	0x74
 5404 062c 00       		.sleb128 0
 5405 062d 00       		.byte	0
 5406 062e 14       		.uleb128 0x14
 5407 062f D8000000 		.4byte	.LVL48
 5408 0633 8C3B0000 		.4byte	0x3b8c
 5409 0637 14       		.uleb128 0x14
 5410 0638 E0000000 		.4byte	.LVL49
 5411 063c 973B0000 		.4byte	0x3b97
 5412 0640 00       		.byte	0
 5413 0641 10       		.uleb128 0x10
 5414 0642 EC000000 		.4byte	0xec
 5415 0646 00000000 		.4byte	.LFB4
 5416 064a A6000000 		.4byte	.LFE4-.LFB4
 5417 064e 01       		.uleb128 0x1
 5418 064f 9C       		.byte	0x9c
 5419 0650 6E070000 		.4byte	0x76e
 5420 0654 11       		.uleb128 0x11
 5421 0655 F8000000 		.4byte	0xf8
 5422 0659 F0000000 		.4byte	.LLST8
 5423 065d 11       		.uleb128 0x11
 5424 065e 01010000 		.4byte	0x101
 5425 0662 1C010000 		.4byte	.LLST9
 5426 0666 11       		.uleb128 0x11
 5427 0667 0A010000 		.4byte	0x10a
 5428 066b 48010000 		.4byte	.LLST10
 5429 066f 11       		.uleb128 0x11
 5430 0670 13010000 		.4byte	0x113
 5431 0674 74010000 		.4byte	.LLST11
 5432 0678 11       		.uleb128 0x11
 5433 0679 1C010000 		.4byte	0x11c
ARM GAS  C:\Users\legoc\AppData\Local\Temp\ccOlrioX.s 			page 112


 5434 067d A0010000 		.4byte	.LLST12
 5435 0681 1B       		.uleb128 0x1b
 5436 0682 27010000 		.4byte	0x127
 5437 0686 1B       		.uleb128 0x1b
 5438 0687 31010000 		.4byte	0x131
 5439 068b 1C       		.uleb128 0x1c
 5440 068c 18000000 		.4byte	.Ldebug_ranges0+0x18
 5441 0690 11       		.uleb128 0x11
 5442 0691 1C010000 		.4byte	0x11c
 5443 0695 CC010000 		.4byte	.LLST13
 5444 0699 11       		.uleb128 0x11
 5445 069a 13010000 		.4byte	0x113
 5446 069e F7010000 		.4byte	.LLST14
 5447 06a2 11       		.uleb128 0x11
 5448 06a3 0A010000 		.4byte	0x10a
 5449 06a7 0A020000 		.4byte	.LLST15
 5450 06ab 11       		.uleb128 0x11
 5451 06ac 01010000 		.4byte	0x101
 5452 06b0 28020000 		.4byte	.LLST16
 5453 06b4 11       		.uleb128 0x11
 5454 06b5 F8000000 		.4byte	0xf8
 5455 06b9 54020000 		.4byte	.LLST17
 5456 06bd 1C       		.uleb128 0x1c
 5457 06be 18000000 		.4byte	.Ldebug_ranges0+0x18
 5458 06c2 1D       		.uleb128 0x1d
 5459 06c3 27010000 		.4byte	0x127
 5460 06c7 96020000 		.4byte	.LLST18
 5461 06cb 1D       		.uleb128 0x1d
 5462 06cc 31010000 		.4byte	0x131
 5463 06d0 BE020000 		.4byte	.LLST19
 5464 06d4 12       		.uleb128 0x12
 5465 06d5 44000000 		.4byte	.LVL60
 5466 06d9 92030000 		.4byte	0x392
 5467 06dd FC060000 		.4byte	0x6fc
 5468 06e1 13       		.uleb128 0x13
 5469 06e2 01       		.uleb128 0x1
 5470 06e3 50       		.byte	0x50
 5471 06e4 03       		.uleb128 0x3
 5472 06e5 F3       		.byte	0xf3
 5473 06e6 01       		.uleb128 0x1
 5474 06e7 50       		.byte	0x50
 5475 06e8 13       		.uleb128 0x13
 5476 06e9 01       		.uleb128 0x1
 5477 06ea 51       		.byte	0x51
 5478 06eb 03       		.uleb128 0x3
 5479 06ec F3       		.byte	0xf3
 5480 06ed 01       		.uleb128 0x1
 5481 06ee 51       		.byte	0x51
 5482 06ef 13       		.uleb128 0x13
 5483 06f0 01       		.uleb128 0x1
 5484 06f1 52       		.byte	0x52
 5485 06f2 02       		.uleb128 0x2
 5486 06f3 77       		.byte	0x77
 5487 06f4 00       		.sleb128 0
 5488 06f5 13       		.uleb128 0x13
 5489 06f6 01       		.uleb128 0x1
 5490 06f7 53       		.byte	0x53
ARM GAS  C:\Users\legoc\AppData\Local\Temp\ccOlrioX.s 			page 113


 5491 06f8 02       		.uleb128 0x2
 5492 06f9 78       		.byte	0x78
 5493 06fa 00       		.sleb128 0
 5494 06fb 00       		.byte	0
 5495 06fc 12       		.uleb128 0x12
 5496 06fd 4A000000 		.4byte	.LVL61
 5497 0701 763B0000 		.4byte	0x3b76
 5498 0705 0F070000 		.4byte	0x70f
 5499 0709 13       		.uleb128 0x13
 5500 070a 01       		.uleb128 0x1
 5501 070b 50       		.byte	0x50
 5502 070c 01       		.uleb128 0x1
 5503 070d 31       		.byte	0x31
 5504 070e 00       		.byte	0
 5505 070f 12       		.uleb128 0x12
 5506 0710 50000000 		.4byte	.LVL62
 5507 0714 973B0000 		.4byte	0x3b97
 5508 0718 22070000 		.4byte	0x722
 5509 071c 13       		.uleb128 0x13
 5510 071d 01       		.uleb128 0x1
 5511 071e 50       		.byte	0x50
 5512 071f 01       		.uleb128 0x1
 5513 0720 30       		.byte	0x30
 5514 0721 00       		.byte	0
 5515 0722 12       		.uleb128 0x12
 5516 0723 6A000000 		.4byte	.LVL67
 5517 0727 813B0000 		.4byte	0x3b81
 5518 072b 36070000 		.4byte	0x736
 5519 072f 13       		.uleb128 0x13
 5520 0730 01       		.uleb128 0x1
 5521 0731 50       		.byte	0x50
 5522 0732 02       		.uleb128 0x2
 5523 0733 76       		.byte	0x76
 5524 0734 00       		.sleb128 0
 5525 0735 00       		.byte	0
 5526 0736 14       		.uleb128 0x14
 5527 0737 6E000000 		.4byte	.LVL68
 5528 073b 8C3B0000 		.4byte	0x3b8c
 5529 073f 12       		.uleb128 0x12
 5530 0740 78000000 		.4byte	.LVL69
 5531 0744 813B0000 		.4byte	0x3b81
 5532 0748 53070000 		.4byte	0x753
 5533 074c 13       		.uleb128 0x13
 5534 074d 01       		.uleb128 0x1
 5535 074e 50       		.byte	0x50
 5536 074f 02       		.uleb128 0x2
 5537 0750 75       		.byte	0x75
 5538 0751 00       		.sleb128 0
 5539 0752 00       		.byte	0
 5540 0753 14       		.uleb128 0x14
 5541 0754 7C000000 		.4byte	.LVL70
 5542 0758 8C3B0000 		.4byte	0x3b8c
 5543 075c 1E       		.uleb128 0x1e
 5544 075d A2000000 		.4byte	.LVL76
 5545 0761 973B0000 		.4byte	0x3b97
 5546 0765 13       		.uleb128 0x13
 5547 0766 01       		.uleb128 0x1
ARM GAS  C:\Users\legoc\AppData\Local\Temp\ccOlrioX.s 			page 114


 5548 0767 50       		.byte	0x50
 5549 0768 01       		.uleb128 0x1
 5550 0769 31       		.byte	0x31
 5551 076a 00       		.byte	0
 5552 076b 00       		.byte	0
 5553 076c 00       		.byte	0
 5554 076d 00       		.byte	0
 5555 076e 10       		.uleb128 0x10
 5556 076f 3C010000 		.4byte	0x13c
 5557 0773 00000000 		.4byte	.LFB5
 5558 0777 BE000000 		.4byte	.LFE5-.LFB5
 5559 077b 01       		.uleb128 0x1
 5560 077c 9C       		.byte	0x9c
 5561 077d CA080000 		.4byte	0x8ca
 5562 0781 11       		.uleb128 0x11
 5563 0782 48010000 		.4byte	0x148
 5564 0786 DD020000 		.4byte	.LLST20
 5565 078a 11       		.uleb128 0x11
 5566 078b 51010000 		.4byte	0x151
 5567 078f FE020000 		.4byte	.LLST21
 5568 0793 11       		.uleb128 0x11
 5569 0794 5A010000 		.4byte	0x15a
 5570 0798 1F030000 		.4byte	.LLST22
 5571 079c 11       		.uleb128 0x11
 5572 079d 63010000 		.4byte	0x163
 5573 07a1 40030000 		.4byte	.LLST23
 5574 07a5 11       		.uleb128 0x11
 5575 07a6 6C010000 		.4byte	0x16c
 5576 07aa 6C030000 		.4byte	.LLST24
 5577 07ae 1F       		.uleb128 0x1f
 5578 07af EC000000 		.4byte	0xec
 5579 07b3 1C000000 		.4byte	.LBB96
 5580 07b7 30000000 		.4byte	.Ldebug_ranges0+0x30
 5581 07bb 01       		.byte	0x1
 5582 07bc 95       		.byte	0x95
 5583 07bd 11       		.uleb128 0x11
 5584 07be 1C010000 		.4byte	0x11c
 5585 07c2 98030000 		.4byte	.LLST25
 5586 07c6 11       		.uleb128 0x11
 5587 07c7 13010000 		.4byte	0x113
 5588 07cb C3030000 		.4byte	.LLST26
 5589 07cf 11       		.uleb128 0x11
 5590 07d0 0A010000 		.4byte	0x10a
 5591 07d4 E1030000 		.4byte	.LLST27
 5592 07d8 11       		.uleb128 0x11
 5593 07d9 01010000 		.4byte	0x101
 5594 07dd F4030000 		.4byte	.LLST28
 5595 07e1 11       		.uleb128 0x11
 5596 07e2 F8000000 		.4byte	0xf8
 5597 07e6 1E040000 		.4byte	.LLST29
 5598 07ea 1C       		.uleb128 0x1c
 5599 07eb 30000000 		.4byte	.Ldebug_ranges0+0x30
 5600 07ef 1B       		.uleb128 0x1b
 5601 07f0 27010000 		.4byte	0x127
 5602 07f4 1B       		.uleb128 0x1b
 5603 07f5 31010000 		.4byte	0x131
 5604 07f9 1C       		.uleb128 0x1c
ARM GAS  C:\Users\legoc\AppData\Local\Temp\ccOlrioX.s 			page 115


 5605 07fa 58000000 		.4byte	.Ldebug_ranges0+0x58
 5606 07fe 11       		.uleb128 0x11
 5607 07ff 1C010000 		.4byte	0x11c
 5608 0803 3C040000 		.4byte	.LLST30
 5609 0807 11       		.uleb128 0x11
 5610 0808 13010000 		.4byte	0x113
 5611 080c 67040000 		.4byte	.LLST31
 5612 0810 11       		.uleb128 0x11
 5613 0811 0A010000 		.4byte	0x10a
 5614 0815 7A040000 		.4byte	.LLST32
 5615 0819 11       		.uleb128 0x11
 5616 081a 01010000 		.4byte	0x101
 5617 081e 8D040000 		.4byte	.LLST33
 5618 0822 11       		.uleb128 0x11
 5619 0823 F8000000 		.4byte	0xf8
 5620 0827 B1040000 		.4byte	.LLST34
 5621 082b 1C       		.uleb128 0x1c
 5622 082c 58000000 		.4byte	.Ldebug_ranges0+0x58
 5623 0830 1D       		.uleb128 0x1d
 5624 0831 27010000 		.4byte	0x127
 5625 0835 F0040000 		.4byte	.LLST35
 5626 0839 1D       		.uleb128 0x1d
 5627 083a 31010000 		.4byte	0x131
 5628 083e 18050000 		.4byte	.LLST36
 5629 0842 12       		.uleb128 0x12
 5630 0843 60000000 		.4byte	.LVL90
 5631 0847 92030000 		.4byte	0x392
 5632 084b 56080000 		.4byte	0x856
 5633 084f 13       		.uleb128 0x13
 5634 0850 01       		.uleb128 0x1
 5635 0851 50       		.byte	0x50
 5636 0852 02       		.uleb128 0x2
 5637 0853 74       		.byte	0x74
 5638 0854 00       		.sleb128 0
 5639 0855 00       		.byte	0
 5640 0856 12       		.uleb128 0x12
 5641 0857 66000000 		.4byte	.LVL91
 5642 085b 763B0000 		.4byte	0x3b76
 5643 085f 69080000 		.4byte	0x869
 5644 0863 13       		.uleb128 0x13
 5645 0864 01       		.uleb128 0x1
 5646 0865 50       		.byte	0x50
 5647 0866 01       		.uleb128 0x1
 5648 0867 31       		.byte	0x31
 5649 0868 00       		.byte	0
 5650 0869 12       		.uleb128 0x12
 5651 086a 6C000000 		.4byte	.LVL92
 5652 086e 973B0000 		.4byte	0x3b97
 5653 0872 7C080000 		.4byte	0x87c
 5654 0876 13       		.uleb128 0x13
 5655 0877 01       		.uleb128 0x1
 5656 0878 50       		.byte	0x50
 5657 0879 01       		.uleb128 0x1
 5658 087a 30       		.byte	0x30
 5659 087b 00       		.byte	0
 5660 087c 12       		.uleb128 0x12
 5661 087d 86000000 		.4byte	.LVL97
ARM GAS  C:\Users\legoc\AppData\Local\Temp\ccOlrioX.s 			page 116


 5662 0881 813B0000 		.4byte	0x3b81
 5663 0885 90080000 		.4byte	0x890
 5664 0889 13       		.uleb128 0x13
 5665 088a 01       		.uleb128 0x1
 5666 088b 50       		.byte	0x50
 5667 088c 02       		.uleb128 0x2
 5668 088d 76       		.byte	0x76
 5669 088e 00       		.sleb128 0
 5670 088f 00       		.byte	0
 5671 0890 14       		.uleb128 0x14
 5672 0891 8A000000 		.4byte	.LVL98
 5673 0895 8C3B0000 		.4byte	0x3b8c
 5674 0899 12       		.uleb128 0x12
 5675 089a 94000000 		.4byte	.LVL99
 5676 089e 813B0000 		.4byte	0x3b81
 5677 08a2 AD080000 		.4byte	0x8ad
 5678 08a6 13       		.uleb128 0x13
 5679 08a7 01       		.uleb128 0x1
 5680 08a8 50       		.byte	0x50
 5681 08a9 02       		.uleb128 0x2
 5682 08aa 75       		.byte	0x75
 5683 08ab 00       		.sleb128 0
 5684 08ac 00       		.byte	0
 5685 08ad 14       		.uleb128 0x14
 5686 08ae 98000000 		.4byte	.LVL100
 5687 08b2 8C3B0000 		.4byte	0x3b8c
 5688 08b6 1E       		.uleb128 0x1e
 5689 08b7 BE000000 		.4byte	.LVL106
 5690 08bb 973B0000 		.4byte	0x3b97
 5691 08bf 13       		.uleb128 0x13
 5692 08c0 01       		.uleb128 0x1
 5693 08c1 50       		.byte	0x50
 5694 08c2 01       		.uleb128 0x1
 5695 08c3 31       		.byte	0x31
 5696 08c4 00       		.byte	0
 5697 08c5 00       		.byte	0
 5698 08c6 00       		.byte	0
 5699 08c7 00       		.byte	0
 5700 08c8 00       		.byte	0
 5701 08c9 00       		.byte	0
 5702 08ca 10       		.uleb128 0x10
 5703 08cb 9E020000 		.4byte	0x29e
 5704 08cf 00000000 		.4byte	.LFB6
 5705 08d3 5C000000 		.4byte	.LFE6-.LFB6
 5706 08d7 01       		.uleb128 0x1
 5707 08d8 9C       		.byte	0x9c
 5708 08d9 2F0A0000 		.4byte	0xa2f
 5709 08dd 11       		.uleb128 0x11
 5710 08de AA020000 		.4byte	0x2aa
 5711 08e2 2B050000 		.4byte	.LLST37
 5712 08e6 1F       		.uleb128 0x1f
 5713 08e7 3C010000 		.4byte	0x13c
 5714 08eb 00000000 		.4byte	.LBB113
 5715 08ef 70000000 		.4byte	.Ldebug_ranges0+0x70
 5716 08f3 01       		.byte	0x1
 5717 08f4 9B       		.byte	0x9b
 5718 08f5 11       		.uleb128 0x11
ARM GAS  C:\Users\legoc\AppData\Local\Temp\ccOlrioX.s 			page 117


 5719 08f6 6C010000 		.4byte	0x16c
 5720 08fa 4C050000 		.4byte	.LLST38
 5721 08fe 1A       		.uleb128 0x1a
 5722 08ff 63010000 		.4byte	0x163
 5723 0903 F0       		.byte	0xf0
 5724 0904 20       		.uleb128 0x20
 5725 0905 5A010000 		.4byte	0x15a
 5726 0909 4001     		.2byte	0x140
 5727 090b 1A       		.uleb128 0x1a
 5728 090c 51010000 		.4byte	0x151
 5729 0910 00       		.byte	0
 5730 0911 1A       		.uleb128 0x1a
 5731 0912 48010000 		.4byte	0x148
 5732 0916 00       		.byte	0
 5733 0917 1F       		.uleb128 0x1f
 5734 0918 EC000000 		.4byte	0xec
 5735 091c 00000000 		.4byte	.LBB114
 5736 0920 70000000 		.4byte	.Ldebug_ranges0+0x70
 5737 0924 01       		.byte	0x1
 5738 0925 95       		.byte	0x95
 5739 0926 11       		.uleb128 0x11
 5740 0927 1C010000 		.4byte	0x11c
 5741 092b 4C050000 		.4byte	.LLST38
 5742 092f 20       		.uleb128 0x20
 5743 0930 13010000 		.4byte	0x113
 5744 0934 4001     		.2byte	0x140
 5745 0936 1A       		.uleb128 0x1a
 5746 0937 0A010000 		.4byte	0x10a
 5747 093b F0       		.byte	0xf0
 5748 093c 1A       		.uleb128 0x1a
 5749 093d 01010000 		.4byte	0x101
 5750 0941 00       		.byte	0
 5751 0942 1A       		.uleb128 0x1a
 5752 0943 F8000000 		.4byte	0xf8
 5753 0947 00       		.byte	0
 5754 0948 1C       		.uleb128 0x1c
 5755 0949 70000000 		.4byte	.Ldebug_ranges0+0x70
 5756 094d 1B       		.uleb128 0x1b
 5757 094e 27010000 		.4byte	0x127
 5758 0952 1B       		.uleb128 0x1b
 5759 0953 31010000 		.4byte	0x131
 5760 0957 1C       		.uleb128 0x1c
 5761 0958 70000000 		.4byte	.Ldebug_ranges0+0x70
 5762 095c 11       		.uleb128 0x11
 5763 095d 1C010000 		.4byte	0x11c
 5764 0961 4C050000 		.4byte	.LLST38
 5765 0965 20       		.uleb128 0x20
 5766 0966 13010000 		.4byte	0x113
 5767 096a 4001     		.2byte	0x140
 5768 096c 1A       		.uleb128 0x1a
 5769 096d 0A010000 		.4byte	0x10a
 5770 0971 F0       		.byte	0xf0
 5771 0972 11       		.uleb128 0x11
 5772 0973 01010000 		.4byte	0x101
 5773 0977 5F050000 		.4byte	.LLST41
 5774 097b 11       		.uleb128 0x11
 5775 097c F8000000 		.4byte	0xf8
ARM GAS  C:\Users\legoc\AppData\Local\Temp\ccOlrioX.s 			page 118


 5776 0980 73050000 		.4byte	.LLST42
 5777 0984 1C       		.uleb128 0x1c
 5778 0985 70000000 		.4byte	.Ldebug_ranges0+0x70
 5779 0989 1D       		.uleb128 0x1d
 5780 098a 27010000 		.4byte	0x127
 5781 098e 94050000 		.4byte	.LLST43
 5782 0992 1D       		.uleb128 0x1d
 5783 0993 31010000 		.4byte	0x131
 5784 0997 A7050000 		.4byte	.LLST44
 5785 099b 12       		.uleb128 0x12
 5786 099c 12000000 		.4byte	.LVL110
 5787 09a0 92030000 		.4byte	0x392
 5788 09a4 C0090000 		.4byte	0x9c0
 5789 09a8 13       		.uleb128 0x13
 5790 09a9 01       		.uleb128 0x1
 5791 09aa 50       		.byte	0x50
 5792 09ab 01       		.uleb128 0x1
 5793 09ac 30       		.byte	0x30
 5794 09ad 13       		.uleb128 0x13
 5795 09ae 01       		.uleb128 0x1
 5796 09af 51       		.byte	0x51
 5797 09b0 01       		.uleb128 0x1
 5798 09b1 30       		.byte	0x30
 5799 09b2 13       		.uleb128 0x13
 5800 09b3 01       		.uleb128 0x1
 5801 09b4 52       		.byte	0x52
 5802 09b5 02       		.uleb128 0x2
 5803 09b6 08       		.byte	0x8
 5804 09b7 F0       		.byte	0xf0
 5805 09b8 13       		.uleb128 0x13
 5806 09b9 01       		.uleb128 0x1
 5807 09ba 53       		.byte	0x53
 5808 09bb 03       		.uleb128 0x3
 5809 09bc 0A       		.byte	0xa
 5810 09bd 4001     		.2byte	0x140
 5811 09bf 00       		.byte	0
 5812 09c0 12       		.uleb128 0x12
 5813 09c1 18000000 		.4byte	.LVL111
 5814 09c5 763B0000 		.4byte	0x3b76
 5815 09c9 D3090000 		.4byte	0x9d3
 5816 09cd 13       		.uleb128 0x13
 5817 09ce 01       		.uleb128 0x1
 5818 09cf 50       		.byte	0x50
 5819 09d0 01       		.uleb128 0x1
 5820 09d1 31       		.byte	0x31
 5821 09d2 00       		.byte	0
 5822 09d3 12       		.uleb128 0x12
 5823 09d4 1E000000 		.4byte	.LVL112
 5824 09d8 973B0000 		.4byte	0x3b97
 5825 09dc E6090000 		.4byte	0x9e6
 5826 09e0 13       		.uleb128 0x13
 5827 09e1 01       		.uleb128 0x1
 5828 09e2 50       		.byte	0x50
 5829 09e3 01       		.uleb128 0x1
 5830 09e4 30       		.byte	0x30
 5831 09e5 00       		.byte	0
 5832 09e6 12       		.uleb128 0x12
ARM GAS  C:\Users\legoc\AppData\Local\Temp\ccOlrioX.s 			page 119


 5833 09e7 2E000000 		.4byte	.LVL116
 5834 09eb 813B0000 		.4byte	0x3b81
 5835 09ef FA090000 		.4byte	0x9fa
 5836 09f3 13       		.uleb128 0x13
 5837 09f4 01       		.uleb128 0x1
 5838 09f5 50       		.byte	0x50
 5839 09f6 02       		.uleb128 0x2
 5840 09f7 76       		.byte	0x76
 5841 09f8 00       		.sleb128 0
 5842 09f9 00       		.byte	0
 5843 09fa 14       		.uleb128 0x14
 5844 09fb 32000000 		.4byte	.LVL117
 5845 09ff 8C3B0000 		.4byte	0x3b8c
 5846 0a03 12       		.uleb128 0x12
 5847 0a04 3C000000 		.4byte	.LVL118
 5848 0a08 813B0000 		.4byte	0x3b81
 5849 0a0c 170A0000 		.4byte	0xa17
 5850 0a10 13       		.uleb128 0x13
 5851 0a11 01       		.uleb128 0x1
 5852 0a12 50       		.byte	0x50
 5853 0a13 02       		.uleb128 0x2
 5854 0a14 75       		.byte	0x75
 5855 0a15 00       		.sleb128 0
 5856 0a16 00       		.byte	0
 5857 0a17 14       		.uleb128 0x14
 5858 0a18 40000000 		.4byte	.LVL119
 5859 0a1c 8C3B0000 		.4byte	0x3b8c
 5860 0a20 21       		.uleb128 0x21
 5861 0a21 5C000000 		.4byte	.LVL121
 5862 0a25 973B0000 		.4byte	0x3b97
 5863 0a29 00       		.byte	0
 5864 0a2a 00       		.byte	0
 5865 0a2b 00       		.byte	0
 5866 0a2c 00       		.byte	0
 5867 0a2d 00       		.byte	0
 5868 0a2e 00       		.byte	0
 5869 0a2f 22       		.uleb128 0x22
 5870 0a30 83000000 		.4byte	.LASF62
 5871 0a34 01       		.byte	0x1
 5872 0a35 9F       		.byte	0x9f
 5873 0a36 00000000 		.4byte	.LFB7
 5874 0a3a 88000000 		.4byte	.LFE7-.LFB7
 5875 0a3e 01       		.uleb128 0x1
 5876 0a3f 9C       		.byte	0x9c
 5877 0a40 3E0B0000 		.4byte	0xb3e
 5878 0a44 23       		.uleb128 0x23
 5879 0a45 636D6400 		.ascii	"cmd\000"
 5880 0a49 01       		.byte	0x1
 5881 0a4a A1       		.byte	0xa1
 5882 0a4b 97000000 		.4byte	0x97
 5883 0a4f BA050000 		.4byte	.LLST45
 5884 0a53 17       		.uleb128 0x17
 5885 0a54 7800     		.ascii	"x\000"
 5886 0a56 01       		.byte	0x1
 5887 0a57 A1       		.byte	0xa1
 5888 0a58 97000000 		.4byte	0x97
 5889 0a5c 01       		.uleb128 0x1
ARM GAS  C:\Users\legoc\AppData\Local\Temp\ccOlrioX.s 			page 120


 5890 0a5d 59       		.byte	0x59
 5891 0a5e 24       		.uleb128 0x24
 5892 0a5f F2000000 		.4byte	.LASF35
 5893 0a63 01       		.byte	0x1
 5894 0a64 A1       		.byte	0xa1
 5895 0a65 97000000 		.4byte	0x97
 5896 0a69 DB050000 		.4byte	.LLST46
 5897 0a6d 24       		.uleb128 0x24
 5898 0a6e DE040000 		.4byte	.LASF36
 5899 0a72 01       		.byte	0x1
 5900 0a73 A2       		.byte	0xa2
 5901 0a74 3E0B0000 		.4byte	0xb3e
 5902 0a78 3D060000 		.4byte	.LLST47
 5903 0a7c 19       		.uleb128 0x19
 5904 0a7d B6020000 		.4byte	0x2b6
 5905 0a81 08000000 		.4byte	.LBB142
 5906 0a85 1C000000 		.4byte	.LBE142-.LBB142
 5907 0a89 01       		.byte	0x1
 5908 0a8a A7       		.byte	0xa7
 5909 0a8b CE0A0000 		.4byte	0xace
 5910 0a8f 25       		.uleb128 0x25
 5911 0a90 C2020000 		.4byte	0x2c2
 5912 0a94 12       		.uleb128 0x12
 5913 0a95 0E000000 		.4byte	.LVL124
 5914 0a99 763B0000 		.4byte	0x3b76
 5915 0a9d A70A0000 		.4byte	0xaa7
 5916 0aa1 13       		.uleb128 0x13
 5917 0aa2 01       		.uleb128 0x1
 5918 0aa3 50       		.byte	0x50
 5919 0aa4 01       		.uleb128 0x1
 5920 0aa5 30       		.byte	0x30
 5921 0aa6 00       		.byte	0
 5922 0aa7 12       		.uleb128 0x12
 5923 0aa8 14000000 		.4byte	.LVL125
 5924 0aac 813B0000 		.4byte	0x3b81
 5925 0ab0 BB0A0000 		.4byte	0xabb
 5926 0ab4 13       		.uleb128 0x13
 5927 0ab5 01       		.uleb128 0x1
 5928 0ab6 50       		.byte	0x50
 5929 0ab7 02       		.uleb128 0x2
 5930 0ab8 74       		.byte	0x74
 5931 0ab9 00       		.sleb128 0
 5932 0aba 00       		.byte	0
 5933 0abb 14       		.uleb128 0x14
 5934 0abc 18000000 		.4byte	.LVL126
 5935 0ac0 8C3B0000 		.4byte	0x3b8c
 5936 0ac4 14       		.uleb128 0x14
 5937 0ac5 20000000 		.4byte	.LVL127
 5938 0ac9 8C3B0000 		.4byte	0x3b8c
 5939 0acd 00       		.byte	0
 5940 0ace 19       		.uleb128 0x19
 5941 0acf 24030000 		.4byte	0x324
 5942 0ad3 3E000000 		.4byte	.LBB144
 5943 0ad7 26000000 		.4byte	.LBE144-.LBB144
 5944 0adb 01       		.byte	0x1
 5945 0adc AC       		.byte	0xac
 5946 0add 2D0B0000 		.4byte	0xb2d
ARM GAS  C:\Users\legoc\AppData\Local\Temp\ccOlrioX.s 			page 121


 5947 0ae1 11       		.uleb128 0x11
 5948 0ae2 30030000 		.4byte	0x330
 5949 0ae6 9B060000 		.4byte	.LLST48
 5950 0aea 12       		.uleb128 0x12
 5951 0aeb 44000000 		.4byte	.LVL132
 5952 0aef 763B0000 		.4byte	0x3b76
 5953 0af3 FD0A0000 		.4byte	0xafd
 5954 0af7 13       		.uleb128 0x13
 5955 0af8 01       		.uleb128 0x1
 5956 0af9 50       		.byte	0x50
 5957 0afa 01       		.uleb128 0x1
 5958 0afb 31       		.byte	0x31
 5959 0afc 00       		.byte	0
 5960 0afd 12       		.uleb128 0x12
 5961 0afe 4A000000 		.4byte	.LVL133
 5962 0b02 813B0000 		.4byte	0x3b81
 5963 0b06 110B0000 		.4byte	0xb11
 5964 0b0a 13       		.uleb128 0x13
 5965 0b0b 01       		.uleb128 0x1
 5966 0b0c 50       		.byte	0x50
 5967 0b0d 02       		.uleb128 0x2
 5968 0b0e 75       		.byte	0x75
 5969 0b0f 00       		.sleb128 0
 5970 0b10 00       		.byte	0
 5971 0b11 14       		.uleb128 0x14
 5972 0b12 4E000000 		.4byte	.LVL134
 5973 0b16 8C3B0000 		.4byte	0x3b8c
 5974 0b1a 14       		.uleb128 0x14
 5975 0b1b 56000000 		.4byte	.LVL135
 5976 0b1f 8C3B0000 		.4byte	0x3b8c
 5977 0b23 14       		.uleb128 0x14
 5978 0b24 5E000000 		.4byte	.LVL136
 5979 0b28 8C3B0000 		.4byte	0x3b8c
 5980 0b2c 00       		.byte	0
 5981 0b2d 26       		.uleb128 0x26
 5982 0b2e 80000000 		.4byte	.LVL141
 5983 0b32 A23B0000 		.4byte	0x3ba2
 5984 0b36 13       		.uleb128 0x13
 5985 0b37 01       		.uleb128 0x1
 5986 0b38 50       		.byte	0x50
 5987 0b39 02       		.uleb128 0x2
 5988 0b3a 08       		.byte	0x8
 5989 0b3b 78       		.byte	0x78
 5990 0b3c 00       		.byte	0
 5991 0b3d 00       		.byte	0
 5992 0b3e 05       		.uleb128 0x5
 5993 0b3f 04       		.byte	0x4
 5994 0b40 440B0000 		.4byte	0xb44
 5995 0b44 27       		.uleb128 0x27
 5996 0b45 97000000 		.4byte	0x97
 5997 0b49 10       		.uleb128 0x10
 5998 0b4a 78010000 		.4byte	0x178
 5999 0b4e 00000000 		.4byte	.LFB8
 6000 0b52 4C000000 		.4byte	.LFE8-.LFB8
 6001 0b56 01       		.uleb128 0x1
 6002 0b57 9C       		.byte	0x9c
 6003 0b58 180C0000 		.4byte	0xc18
ARM GAS  C:\Users\legoc\AppData\Local\Temp\ccOlrioX.s 			page 122


 6004 0b5c 11       		.uleb128 0x11
 6005 0b5d 84010000 		.4byte	0x184
 6006 0b61 AE060000 		.4byte	.LLST49
 6007 0b65 11       		.uleb128 0x11
 6008 0b66 8D010000 		.4byte	0x18d
 6009 0b6a CF060000 		.4byte	.LLST50
 6010 0b6e 11       		.uleb128 0x11
 6011 0b6f 96010000 		.4byte	0x196
 6012 0b73 F0060000 		.4byte	.LLST51
 6013 0b77 28       		.uleb128 0x28
 6014 0b78 A0000000 		.4byte	.Ldebug_ranges0+0xa0
 6015 0b7c BA0B0000 		.4byte	0xbba
 6016 0b80 25       		.uleb128 0x25
 6017 0b81 84010000 		.4byte	0x184
 6018 0b85 25       		.uleb128 0x25
 6019 0b86 8D010000 		.4byte	0x18d
 6020 0b8a 11       		.uleb128 0x11
 6021 0b8b 96010000 		.4byte	0x196
 6022 0b8f 11070000 		.4byte	.LLST52
 6023 0b93 12       		.uleb128 0x12
 6024 0b94 3C000000 		.4byte	.LVL151
 6025 0b98 813B0000 		.4byte	0x3b81
 6026 0b9c A70B0000 		.4byte	0xba7
 6027 0ba0 13       		.uleb128 0x13
 6028 0ba1 01       		.uleb128 0x1
 6029 0ba2 50       		.byte	0x50
 6030 0ba3 02       		.uleb128 0x2
 6031 0ba4 74       		.byte	0x74
 6032 0ba5 00       		.sleb128 0
 6033 0ba6 00       		.byte	0
 6034 0ba7 14       		.uleb128 0x14
 6035 0ba8 40000000 		.4byte	.LVL152
 6036 0bac 8C3B0000 		.4byte	0x3b8c
 6037 0bb0 21       		.uleb128 0x21
 6038 0bb1 4C000000 		.4byte	.LVL154
 6039 0bb5 973B0000 		.4byte	0x3b97
 6040 0bb9 00       		.byte	0
 6041 0bba 12       		.uleb128 0x12
 6042 0bbb 1C000000 		.4byte	.LVL145
 6043 0bbf 92030000 		.4byte	0x392
 6044 0bc3 D20B0000 		.4byte	0xbd2
 6045 0bc7 13       		.uleb128 0x13
 6046 0bc8 01       		.uleb128 0x1
 6047 0bc9 52       		.byte	0x52
 6048 0bca 01       		.uleb128 0x1
 6049 0bcb 31       		.byte	0x31
 6050 0bcc 13       		.uleb128 0x13
 6051 0bcd 01       		.uleb128 0x1
 6052 0bce 53       		.byte	0x53
 6053 0bcf 01       		.uleb128 0x1
 6054 0bd0 31       		.byte	0x31
 6055 0bd1 00       		.byte	0
 6056 0bd2 12       		.uleb128 0x12
 6057 0bd3 22000000 		.4byte	.LVL146
 6058 0bd7 763B0000 		.4byte	0x3b76
 6059 0bdb E50B0000 		.4byte	0xbe5
 6060 0bdf 13       		.uleb128 0x13
ARM GAS  C:\Users\legoc\AppData\Local\Temp\ccOlrioX.s 			page 123


 6061 0be0 01       		.uleb128 0x1
 6062 0be1 50       		.byte	0x50
 6063 0be2 01       		.uleb128 0x1
 6064 0be3 31       		.byte	0x31
 6065 0be4 00       		.byte	0
 6066 0be5 12       		.uleb128 0x12
 6067 0be6 28000000 		.4byte	.LVL147
 6068 0bea 973B0000 		.4byte	0x3b97
 6069 0bee F80B0000 		.4byte	0xbf8
 6070 0bf2 13       		.uleb128 0x13
 6071 0bf3 01       		.uleb128 0x1
 6072 0bf4 50       		.byte	0x50
 6073 0bf5 01       		.uleb128 0x1
 6074 0bf6 30       		.byte	0x30
 6075 0bf7 00       		.byte	0
 6076 0bf8 12       		.uleb128 0x12
 6077 0bf9 2E000000 		.4byte	.LVL148
 6078 0bfd 813B0000 		.4byte	0x3b81
 6079 0c01 0E0C0000 		.4byte	0xc0e
 6080 0c05 13       		.uleb128 0x13
 6081 0c06 01       		.uleb128 0x1
 6082 0c07 50       		.byte	0x50
 6083 0c08 04       		.uleb128 0x4
 6084 0c09 74       		.byte	0x74
 6085 0c0a 00       		.sleb128 0
 6086 0c0b 38       		.byte	0x38
 6087 0c0c 25       		.byte	0x25
 6088 0c0d 00       		.byte	0
 6089 0c0e 14       		.uleb128 0x14
 6090 0c0f 32000000 		.4byte	.LVL149
 6091 0c13 8C3B0000 		.4byte	0x3b8c
 6092 0c17 00       		.byte	0
 6093 0c18 10       		.uleb128 0x10
 6094 0c19 A2010000 		.4byte	0x1a2
 6095 0c1d 00000000 		.4byte	.LFB9
 6096 0c21 58000000 		.4byte	.LFE9-.LFB9
 6097 0c25 01       		.uleb128 0x1
 6098 0c26 9C       		.byte	0x9c
 6099 0c27 200D0000 		.4byte	0xd20
 6100 0c2b 11       		.uleb128 0x11
 6101 0c2c AE010000 		.4byte	0x1ae
 6102 0c30 24070000 		.4byte	.LLST53
 6103 0c34 11       		.uleb128 0x11
 6104 0c35 B7010000 		.4byte	0x1b7
 6105 0c39 45070000 		.4byte	.LLST54
 6106 0c3d 11       		.uleb128 0x11
 6107 0c3e C0010000 		.4byte	0x1c0
 6108 0c42 66070000 		.4byte	.LLST55
 6109 0c46 1F       		.uleb128 0x1f
 6110 0c47 78010000 		.4byte	0x178
 6111 0c4b 08000000 		.4byte	.LBB156
 6112 0c4f B8000000 		.4byte	.Ldebug_ranges0+0xb8
 6113 0c53 01       		.byte	0x1
 6114 0c54 CF       		.byte	0xcf
 6115 0c55 11       		.uleb128 0x11
 6116 0c56 96010000 		.4byte	0x196
 6117 0c5a 92070000 		.4byte	.LLST56
ARM GAS  C:\Users\legoc\AppData\Local\Temp\ccOlrioX.s 			page 124


 6118 0c5e 11       		.uleb128 0x11
 6119 0c5f 8D010000 		.4byte	0x18d
 6120 0c63 BE070000 		.4byte	.LLST57
 6121 0c67 11       		.uleb128 0x11
 6122 0c68 84010000 		.4byte	0x184
 6123 0c6c E9070000 		.4byte	.LLST58
 6124 0c70 28       		.uleb128 0x28
 6125 0c71 D8000000 		.4byte	.Ldebug_ranges0+0xd8
 6126 0c75 BB0C0000 		.4byte	0xcbb
 6127 0c79 11       		.uleb128 0x11
 6128 0c7a 84010000 		.4byte	0x184
 6129 0c7e 07080000 		.4byte	.LLST59
 6130 0c82 11       		.uleb128 0x11
 6131 0c83 8D010000 		.4byte	0x18d
 6132 0c87 1A080000 		.4byte	.LLST60
 6133 0c8b 11       		.uleb128 0x11
 6134 0c8c 96010000 		.4byte	0x196
 6135 0c90 34080000 		.4byte	.LLST61
 6136 0c94 12       		.uleb128 0x12
 6137 0c95 46000000 		.4byte	.LVL166
 6138 0c99 813B0000 		.4byte	0x3b81
 6139 0c9d A80C0000 		.4byte	0xca8
 6140 0ca1 13       		.uleb128 0x13
 6141 0ca2 01       		.uleb128 0x1
 6142 0ca3 50       		.byte	0x50
 6143 0ca4 02       		.uleb128 0x2
 6144 0ca5 75       		.byte	0x75
 6145 0ca6 00       		.sleb128 0
 6146 0ca7 00       		.byte	0
 6147 0ca8 14       		.uleb128 0x14
 6148 0ca9 4A000000 		.4byte	.LVL167
 6149 0cad 8C3B0000 		.4byte	0x3b8c
 6150 0cb1 21       		.uleb128 0x21
 6151 0cb2 56000000 		.4byte	.LVL169
 6152 0cb6 973B0000 		.4byte	0x3b97
 6153 0cba 00       		.byte	0
 6154 0cbb 12       		.uleb128 0x12
 6155 0cbc 26000000 		.4byte	.LVL160
 6156 0cc0 92030000 		.4byte	0x392
 6157 0cc4 D90C0000 		.4byte	0xcd9
 6158 0cc8 13       		.uleb128 0x13
 6159 0cc9 01       		.uleb128 0x1
 6160 0cca 50       		.byte	0x50
 6161 0ccb 02       		.uleb128 0x2
 6162 0ccc 74       		.byte	0x74
 6163 0ccd 00       		.sleb128 0
 6164 0cce 13       		.uleb128 0x13
 6165 0ccf 01       		.uleb128 0x1
 6166 0cd0 52       		.byte	0x52
 6167 0cd1 01       		.uleb128 0x1
 6168 0cd2 31       		.byte	0x31
 6169 0cd3 13       		.uleb128 0x13
 6170 0cd4 01       		.uleb128 0x1
 6171 0cd5 53       		.byte	0x53
 6172 0cd6 01       		.uleb128 0x1
 6173 0cd7 31       		.byte	0x31
 6174 0cd8 00       		.byte	0
ARM GAS  C:\Users\legoc\AppData\Local\Temp\ccOlrioX.s 			page 125


 6175 0cd9 12       		.uleb128 0x12
 6176 0cda 2C000000 		.4byte	.LVL161
 6177 0cde 763B0000 		.4byte	0x3b76
 6178 0ce2 EC0C0000 		.4byte	0xcec
 6179 0ce6 13       		.uleb128 0x13
 6180 0ce7 01       		.uleb128 0x1
 6181 0ce8 50       		.byte	0x50
 6182 0ce9 01       		.uleb128 0x1
 6183 0cea 31       		.byte	0x31
 6184 0ceb 00       		.byte	0
 6185 0cec 12       		.uleb128 0x12
 6186 0ced 32000000 		.4byte	.LVL162
 6187 0cf1 973B0000 		.4byte	0x3b97
 6188 0cf5 FF0C0000 		.4byte	0xcff
 6189 0cf9 13       		.uleb128 0x13
 6190 0cfa 01       		.uleb128 0x1
 6191 0cfb 50       		.byte	0x50
 6192 0cfc 01       		.uleb128 0x1
 6193 0cfd 30       		.byte	0x30
 6194 0cfe 00       		.byte	0
 6195 0cff 12       		.uleb128 0x12
 6196 0d00 38000000 		.4byte	.LVL163
 6197 0d04 813B0000 		.4byte	0x3b81
 6198 0d08 150D0000 		.4byte	0xd15
 6199 0d0c 13       		.uleb128 0x13
 6200 0d0d 01       		.uleb128 0x1
 6201 0d0e 50       		.byte	0x50
 6202 0d0f 04       		.uleb128 0x4
 6203 0d10 75       		.byte	0x75
 6204 0d11 00       		.sleb128 0
 6205 0d12 38       		.byte	0x38
 6206 0d13 25       		.byte	0x25
 6207 0d14 00       		.byte	0
 6208 0d15 14       		.uleb128 0x14
 6209 0d16 3C000000 		.4byte	.LVL164
 6210 0d1a 8C3B0000 		.4byte	0x3b8c
 6211 0d1e 00       		.byte	0
 6212 0d1f 00       		.byte	0
 6213 0d20 15       		.uleb128 0x15
 6214 0d21 8F000000 		.4byte	.LASF38
 6215 0d25 01       		.byte	0x1
 6216 0d26 D4       		.byte	0xd4
 6217 0d27 00000000 		.4byte	.LFB10
 6218 0d2b 64010000 		.4byte	.LFE10-.LFB10
 6219 0d2f 01       		.uleb128 0x1
 6220 0d30 9C       		.byte	0x9c
 6221 0d31 08100000 		.4byte	0x1008
 6222 0d35 16       		.uleb128 0x16
 6223 0d36 783000   		.ascii	"x0\000"
 6224 0d39 01       		.byte	0x1
 6225 0d3a D4       		.byte	0xd4
 6226 0d3b A2000000 		.4byte	0xa2
 6227 0d3f 47080000 		.4byte	.LLST62
 6228 0d43 16       		.uleb128 0x16
 6229 0d44 793000   		.ascii	"y0\000"
 6230 0d47 01       		.byte	0x1
 6231 0d48 D4       		.byte	0xd4
ARM GAS  C:\Users\legoc\AppData\Local\Temp\ccOlrioX.s 			page 126


 6232 0d49 A2000000 		.4byte	0xa2
 6233 0d4d 86080000 		.4byte	.LLST63
 6234 0d51 16       		.uleb128 0x16
 6235 0d52 783100   		.ascii	"x1\000"
 6236 0d55 01       		.byte	0x1
 6237 0d56 D4       		.byte	0xd4
 6238 0d57 A2000000 		.4byte	0xa2
 6239 0d5b D6080000 		.4byte	.LLST64
 6240 0d5f 16       		.uleb128 0x16
 6241 0d60 793100   		.ascii	"y1\000"
 6242 0d63 01       		.byte	0x1
 6243 0d64 D4       		.byte	0xd4
 6244 0d65 A2000000 		.4byte	0xa2
 6245 0d69 1B090000 		.4byte	.LLST65
 6246 0d6d 29       		.uleb128 0x29
 6247 0d6e 84040000 		.4byte	.LASF22
 6248 0d72 01       		.byte	0x1
 6249 0d73 D5       		.byte	0xd5
 6250 0d74 AD000000 		.4byte	0xad
 6251 0d78 68090000 		.4byte	.LLST66
 6252 0d7c 2A       		.uleb128 0x2a
 6253 0d7d 83030000 		.4byte	.LASF39
 6254 0d81 01       		.byte	0x1
 6255 0d82 D7       		.byte	0xd7
 6256 0d83 A2000000 		.4byte	0xa2
 6257 0d87 09       		.uleb128 0x9
 6258 0d88 7A       		.byte	0x7a
 6259 0d89 00       		.sleb128 0
 6260 0d8a 7B       		.byte	0x7b
 6261 0d8b 00       		.sleb128 0
 6262 0d8c 2B       		.byte	0x2b
 6263 0d8d 08       		.byte	0x8
 6264 0d8e FF       		.byte	0xff
 6265 0d8f 1A       		.byte	0x1a
 6266 0d90 9F       		.byte	0x9f
 6267 0d91 23       		.uleb128 0x23
 6268 0d92 647800   		.ascii	"dx\000"
 6269 0d95 01       		.byte	0x1
 6270 0d96 E3       		.byte	0xe3
 6271 0d97 A2000000 		.4byte	0xa2
 6272 0d9b 88090000 		.4byte	.LLST67
 6273 0d9f 23       		.uleb128 0x23
 6274 0da0 647900   		.ascii	"dy\000"
 6275 0da3 01       		.byte	0x1
 6276 0da4 E3       		.byte	0xe3
 6277 0da5 A2000000 		.4byte	0xa2
 6278 0da9 B2090000 		.4byte	.LLST68
 6279 0dad 23       		.uleb128 0x23
 6280 0dae 65727200 		.ascii	"err\000"
 6281 0db2 01       		.byte	0x1
 6282 0db3 E7       		.byte	0xe7
 6283 0db4 A2000000 		.4byte	0xa2
 6284 0db8 EC090000 		.4byte	.LLST69
 6285 0dbc 2B       		.uleb128 0x2b
 6286 0dbd 9C040000 		.4byte	.LASF40
 6287 0dc1 01       		.byte	0x1
 6288 0dc2 E8       		.byte	0xe8
ARM GAS  C:\Users\legoc\AppData\Local\Temp\ccOlrioX.s 			page 127


 6289 0dc3 A2000000 		.4byte	0xa2
 6290 0dc7 28       		.uleb128 0x28
 6291 0dc8 F0000000 		.4byte	.Ldebug_ranges0+0xf0
 6292 0dcc DA0D0000 		.4byte	0xdda
 6293 0dd0 09       		.uleb128 0x9
 6294 0dd1 7400     		.ascii	"t\000"
 6295 0dd3 01       		.byte	0x1
 6296 0dd4 E0       		.byte	0xe0
 6297 0dd5 A2000000 		.4byte	0xa2
 6298 0dd9 00       		.byte	0
 6299 0dda 18       		.uleb128 0x18
 6300 0ddb A2010000 		.4byte	0x1a2
 6301 0ddf 76000000 		.4byte	.LBB184
 6302 0de3 08010000 		.4byte	.Ldebug_ranges0+0x108
 6303 0de7 01       		.byte	0x1
 6304 0de8 F5       		.byte	0xf5
 6305 0de9 DE0E0000 		.4byte	0xede
 6306 0ded 25       		.uleb128 0x25
 6307 0dee C0010000 		.4byte	0x1c0
 6308 0df2 11       		.uleb128 0x11
 6309 0df3 B7010000 		.4byte	0x1b7
 6310 0df7 200A0000 		.4byte	.LLST70
 6311 0dfb 11       		.uleb128 0x11
 6312 0dfc AE010000 		.4byte	0x1ae
 6313 0e00 330A0000 		.4byte	.LLST71
 6314 0e04 1F       		.uleb128 0x1f
 6315 0e05 78010000 		.4byte	0x178
 6316 0e09 76000000 		.4byte	.LBB186
 6317 0e0d 20010000 		.4byte	.Ldebug_ranges0+0x120
 6318 0e11 01       		.byte	0x1
 6319 0e12 CF       		.byte	0xcf
 6320 0e13 25       		.uleb128 0x25
 6321 0e14 96010000 		.4byte	0x196
 6322 0e18 11       		.uleb128 0x11
 6323 0e19 8D010000 		.4byte	0x18d
 6324 0e1d 460A0000 		.4byte	.LLST72
 6325 0e21 11       		.uleb128 0x11
 6326 0e22 84010000 		.4byte	0x184
 6327 0e26 5F0A0000 		.4byte	.LLST73
 6328 0e2a 2C       		.uleb128 0x2c
 6329 0e2b C4000000 		.4byte	.LBB188
 6330 0e2f 0E000000 		.4byte	.LBE188-.LBB188
 6331 0e33 6E0E0000 		.4byte	0xe6e
 6332 0e37 11       		.uleb128 0x11
 6333 0e38 84010000 		.4byte	0x184
 6334 0e3c 800A0000 		.4byte	.LLST74
 6335 0e40 11       		.uleb128 0x11
 6336 0e41 8D010000 		.4byte	0x18d
 6337 0e45 960A0000 		.4byte	.LLST75
 6338 0e49 25       		.uleb128 0x25
 6339 0e4a 96010000 		.4byte	0x196
 6340 0e4e 12       		.uleb128 0x12
 6341 0e4f CA000000 		.4byte	.LVL192
 6342 0e53 813B0000 		.4byte	0x3b81
 6343 0e57 640E0000 		.4byte	0xe64
 6344 0e5b 13       		.uleb128 0x13
 6345 0e5c 01       		.uleb128 0x1
ARM GAS  C:\Users\legoc\AppData\Local\Temp\ccOlrioX.s 			page 128


 6346 0e5d 50       		.byte	0x50
 6347 0e5e 04       		.uleb128 0x4
 6348 0e5f 91       		.byte	0x91
 6349 0e60 54       		.sleb128 -44
 6350 0e61 94       		.byte	0x94
 6351 0e62 01       		.byte	0x1
 6352 0e63 00       		.byte	0
 6353 0e64 14       		.uleb128 0x14
 6354 0e65 CE000000 		.4byte	.LVL193
 6355 0e69 8C3B0000 		.4byte	0x3b8c
 6356 0e6d 00       		.byte	0
 6357 0e6e 12       		.uleb128 0x12
 6358 0e6f AA000000 		.4byte	.LVL186
 6359 0e73 92030000 		.4byte	0x392
 6360 0e77 970E0000 		.4byte	0xe97
 6361 0e7b 13       		.uleb128 0x13
 6362 0e7c 01       		.uleb128 0x1
 6363 0e7d 50       		.byte	0x50
 6364 0e7e 03       		.uleb128 0x3
 6365 0e7f 76       		.byte	0x76
 6366 0e80 B07F     		.sleb128 -80
 6367 0e82 13       		.uleb128 0x13
 6368 0e83 01       		.uleb128 0x1
 6369 0e84 51       		.byte	0x51
 6370 0e85 06       		.uleb128 0x6
 6371 0e86 0A       		.byte	0xa
 6372 0e87 3F01     		.2byte	0x13f
 6373 0e89 77       		.byte	0x77
 6374 0e8a 00       		.sleb128 0
 6375 0e8b 1C       		.byte	0x1c
 6376 0e8c 13       		.uleb128 0x13
 6377 0e8d 01       		.uleb128 0x1
 6378 0e8e 52       		.byte	0x52
 6379 0e8f 01       		.uleb128 0x1
 6380 0e90 31       		.byte	0x31
 6381 0e91 13       		.uleb128 0x13
 6382 0e92 01       		.uleb128 0x1
 6383 0e93 53       		.byte	0x53
 6384 0e94 01       		.uleb128 0x1
 6385 0e95 31       		.byte	0x31
 6386 0e96 00       		.byte	0
 6387 0e97 12       		.uleb128 0x12
 6388 0e98 B0000000 		.4byte	.LVL187
 6389 0e9c 763B0000 		.4byte	0x3b76
 6390 0ea0 AA0E0000 		.4byte	0xeaa
 6391 0ea4 13       		.uleb128 0x13
 6392 0ea5 01       		.uleb128 0x1
 6393 0ea6 50       		.byte	0x50
 6394 0ea7 01       		.uleb128 0x1
 6395 0ea8 31       		.byte	0x31
 6396 0ea9 00       		.byte	0
 6397 0eaa 12       		.uleb128 0x12
 6398 0eab B6000000 		.4byte	.LVL188
 6399 0eaf 973B0000 		.4byte	0x3b97
 6400 0eb3 BD0E0000 		.4byte	0xebd
 6401 0eb7 13       		.uleb128 0x13
 6402 0eb8 01       		.uleb128 0x1
ARM GAS  C:\Users\legoc\AppData\Local\Temp\ccOlrioX.s 			page 129


 6403 0eb9 50       		.byte	0x50
 6404 0eba 01       		.uleb128 0x1
 6405 0ebb 30       		.byte	0x30
 6406 0ebc 00       		.byte	0
 6407 0ebd 12       		.uleb128 0x12
 6408 0ebe BC000000 		.4byte	.LVL189
 6409 0ec2 813B0000 		.4byte	0x3b81
 6410 0ec6 D30E0000 		.4byte	0xed3
 6411 0eca 13       		.uleb128 0x13
 6412 0ecb 01       		.uleb128 0x1
 6413 0ecc 50       		.byte	0x50
 6414 0ecd 04       		.uleb128 0x4
 6415 0ece 91       		.byte	0x91
 6416 0ecf 50       		.sleb128 -48
 6417 0ed0 94       		.byte	0x94
 6418 0ed1 01       		.byte	0x1
 6419 0ed2 00       		.byte	0
 6420 0ed3 14       		.uleb128 0x14
 6421 0ed4 C0000000 		.4byte	.LVL190
 6422 0ed8 8C3B0000 		.4byte	0x3b8c
 6423 0edc 00       		.byte	0
 6424 0edd 00       		.byte	0
 6425 0ede 18       		.uleb128 0x18
 6426 0edf A2010000 		.4byte	0x1a2
 6427 0ee3 7C000000 		.4byte	.LBB197
 6428 0ee7 48010000 		.4byte	.Ldebug_ranges0+0x148
 6429 0eeb 01       		.byte	0x1
 6430 0eec F8       		.byte	0xf8
 6431 0eed E50F0000 		.4byte	0xfe5
 6432 0ef1 25       		.uleb128 0x25
 6433 0ef2 C0010000 		.4byte	0x1c0
 6434 0ef6 11       		.uleb128 0x11
 6435 0ef7 B7010000 		.4byte	0x1b7
 6436 0efb AF0A0000 		.4byte	.LLST76
 6437 0eff 11       		.uleb128 0x11
 6438 0f00 AE010000 		.4byte	0x1ae
 6439 0f04 C20A0000 		.4byte	.LLST77
 6440 0f08 1F       		.uleb128 0x1f
 6441 0f09 78010000 		.4byte	0x178
 6442 0f0d 7C000000 		.4byte	.LBB199
 6443 0f11 68010000 		.4byte	.Ldebug_ranges0+0x168
 6444 0f15 01       		.byte	0x1
 6445 0f16 CF       		.byte	0xcf
 6446 0f17 25       		.uleb128 0x25
 6447 0f18 96010000 		.4byte	0x196
 6448 0f1c 11       		.uleb128 0x11
 6449 0f1d 8D010000 		.4byte	0x18d
 6450 0f21 D50A0000 		.4byte	.LLST78
 6451 0f25 11       		.uleb128 0x11
 6452 0f26 84010000 		.4byte	0x184
 6453 0f2a EE0A0000 		.4byte	.LLST79
 6454 0f2e 28       		.uleb128 0x28
 6455 0f2f 88010000 		.4byte	.Ldebug_ranges0+0x188
 6456 0f33 770F0000 		.4byte	0xf77
 6457 0f37 11       		.uleb128 0x11
 6458 0f38 84010000 		.4byte	0x184
 6459 0f3c 110B0000 		.4byte	.LLST80
ARM GAS  C:\Users\legoc\AppData\Local\Temp\ccOlrioX.s 			page 130


 6460 0f40 11       		.uleb128 0x11
 6461 0f41 8D010000 		.4byte	0x18d
 6462 0f45 290B0000 		.4byte	.LLST81
 6463 0f49 25       		.uleb128 0x25
 6464 0f4a 96010000 		.4byte	0x196
 6465 0f4e 14       		.uleb128 0x14
 6466 0f4f D6000000 		.4byte	.LVL195
 6467 0f53 973B0000 		.4byte	0x3b97
 6468 0f57 12       		.uleb128 0x12
 6469 0f58 32010000 		.4byte	.LVL208
 6470 0f5c 813B0000 		.4byte	0x3b81
 6471 0f60 6D0F0000 		.4byte	0xf6d
 6472 0f64 13       		.uleb128 0x13
 6473 0f65 01       		.uleb128 0x1
 6474 0f66 50       		.byte	0x50
 6475 0f67 04       		.uleb128 0x4
 6476 0f68 91       		.byte	0x91
 6477 0f69 54       		.sleb128 -44
 6478 0f6a 94       		.byte	0x94
 6479 0f6b 01       		.byte	0x1
 6480 0f6c 00       		.byte	0
 6481 0f6d 14       		.uleb128 0x14
 6482 0f6e 36010000 		.4byte	.LVL209
 6483 0f72 8C3B0000 		.4byte	0x3b8c
 6484 0f76 00       		.byte	0
 6485 0f77 12       		.uleb128 0x12
 6486 0f78 12010000 		.4byte	.LVL202
 6487 0f7c 92030000 		.4byte	0x392
 6488 0f80 9E0F0000 		.4byte	0xf9e
 6489 0f84 13       		.uleb128 0x13
 6490 0f85 01       		.uleb128 0x1
 6491 0f86 50       		.byte	0x50
 6492 0f87 05       		.uleb128 0x5
 6493 0f88 08       		.byte	0x8
 6494 0f89 EF       		.byte	0xef
 6495 0f8a 77       		.byte	0x77
 6496 0f8b 00       		.sleb128 0
 6497 0f8c 1C       		.byte	0x1c
 6498 0f8d 13       		.uleb128 0x13
 6499 0f8e 01       		.uleb128 0x1
 6500 0f8f 51       		.byte	0x51
 6501 0f90 02       		.uleb128 0x2
 6502 0f91 76       		.byte	0x76
 6503 0f92 00       		.sleb128 0
 6504 0f93 13       		.uleb128 0x13
 6505 0f94 01       		.uleb128 0x1
 6506 0f95 52       		.byte	0x52
 6507 0f96 01       		.uleb128 0x1
 6508 0f97 31       		.byte	0x31
 6509 0f98 13       		.uleb128 0x13
 6510 0f99 01       		.uleb128 0x1
 6511 0f9a 53       		.byte	0x53
 6512 0f9b 01       		.uleb128 0x1
 6513 0f9c 31       		.byte	0x31
 6514 0f9d 00       		.byte	0
 6515 0f9e 12       		.uleb128 0x12
 6516 0f9f 18010000 		.4byte	.LVL203
ARM GAS  C:\Users\legoc\AppData\Local\Temp\ccOlrioX.s 			page 131


 6517 0fa3 763B0000 		.4byte	0x3b76
 6518 0fa7 B10F0000 		.4byte	0xfb1
 6519 0fab 13       		.uleb128 0x13
 6520 0fac 01       		.uleb128 0x1
 6521 0fad 50       		.byte	0x50
 6522 0fae 01       		.uleb128 0x1
 6523 0faf 31       		.byte	0x31
 6524 0fb0 00       		.byte	0
 6525 0fb1 12       		.uleb128 0x12
 6526 0fb2 1E010000 		.4byte	.LVL204
 6527 0fb6 973B0000 		.4byte	0x3b97
 6528 0fba C40F0000 		.4byte	0xfc4
 6529 0fbe 13       		.uleb128 0x13
 6530 0fbf 01       		.uleb128 0x1
 6531 0fc0 50       		.byte	0x50
 6532 0fc1 01       		.uleb128 0x1
 6533 0fc2 30       		.byte	0x30
 6534 0fc3 00       		.byte	0
 6535 0fc4 12       		.uleb128 0x12
 6536 0fc5 24010000 		.4byte	.LVL205
 6537 0fc9 813B0000 		.4byte	0x3b81
 6538 0fcd DA0F0000 		.4byte	0xfda
 6539 0fd1 13       		.uleb128 0x13
 6540 0fd2 01       		.uleb128 0x1
 6541 0fd3 50       		.byte	0x50
 6542 0fd4 04       		.uleb128 0x4
 6543 0fd5 91       		.byte	0x91
 6544 0fd6 50       		.sleb128 -48
 6545 0fd7 94       		.byte	0x94
 6546 0fd8 01       		.byte	0x1
 6547 0fd9 00       		.byte	0
 6548 0fda 14       		.uleb128 0x14
 6549 0fdb 28010000 		.4byte	.LVL206
 6550 0fdf 8C3B0000 		.4byte	0x3b8c
 6551 0fe3 00       		.byte	0
 6552 0fe4 00       		.byte	0
 6553 0fe5 28       		.uleb128 0x28
 6554 0fe6 A8010000 		.4byte	.Ldebug_ranges0+0x1a8
 6555 0fea F80F0000 		.4byte	0xff8
 6556 0fee 09       		.uleb128 0x9
 6557 0fef 7400     		.ascii	"t\000"
 6558 0ff1 01       		.byte	0x1
 6559 0ff2 DB       		.byte	0xdb
 6560 0ff3 A2000000 		.4byte	0xa2
 6561 0ff7 00       		.byte	0
 6562 0ff8 1C       		.uleb128 0x1c
 6563 0ff9 C0010000 		.4byte	.Ldebug_ranges0+0x1c0
 6564 0ffd 09       		.uleb128 0x9
 6565 0ffe 7400     		.ascii	"t\000"
 6566 1000 01       		.byte	0x1
 6567 1001 DA       		.byte	0xda
 6568 1002 A2000000 		.4byte	0xa2
 6569 1006 00       		.byte	0
 6570 1007 00       		.byte	0
 6571 1008 10       		.uleb128 0x10
 6572 1009 04020000 		.4byte	0x204
 6573 100d 00000000 		.4byte	.LFB11
ARM GAS  C:\Users\legoc\AppData\Local\Temp\ccOlrioX.s 			page 132


 6574 1011 18000000 		.4byte	.LFE11-.LFB11
 6575 1015 01       		.uleb128 0x1
 6576 1016 9C       		.byte	0x9c
 6577 1017 49100000 		.4byte	0x1049
 6578 101b 11       		.uleb128 0x11
 6579 101c 11020000 		.4byte	0x211
 6580 1020 420B0000 		.4byte	.LLST82
 6581 1024 11       		.uleb128 0x11
 6582 1025 1B020000 		.4byte	0x21b
 6583 1029 630B0000 		.4byte	.LLST83
 6584 102d 11       		.uleb128 0x11
 6585 102e 25020000 		.4byte	0x225
 6586 1032 840B0000 		.4byte	.LLST84
 6587 1036 11       		.uleb128 0x11
 6588 1037 2F020000 		.4byte	0x22f
 6589 103b A50B0000 		.4byte	.LLST85
 6590 103f 14       		.uleb128 0x14
 6591 1040 12000000 		.4byte	.LVL222
 6592 1044 200D0000 		.4byte	0xd20
 6593 1048 00       		.byte	0
 6594 1049 10       		.uleb128 0x10
 6595 104a CC010000 		.4byte	0x1cc
 6596 104e 00000000 		.4byte	.LFB12
 6597 1052 16000000 		.4byte	.LFE12-.LFB12
 6598 1056 01       		.uleb128 0x1
 6599 1057 9C       		.byte	0x9c
 6600 1058 91100000 		.4byte	0x1091
 6601 105c 11       		.uleb128 0x11
 6602 105d D9010000 		.4byte	0x1d9
 6603 1061 C60B0000 		.4byte	.LLST86
 6604 1065 11       		.uleb128 0x11
 6605 1066 E3010000 		.4byte	0x1e3
 6606 106a E70B0000 		.4byte	.LLST87
 6607 106e 11       		.uleb128 0x11
 6608 106f ED010000 		.4byte	0x1ed
 6609 1073 080C0000 		.4byte	.LLST88
 6610 1077 11       		.uleb128 0x11
 6611 1078 F7010000 		.4byte	0x1f7
 6612 107c 290C0000 		.4byte	.LLST89
 6613 1080 26       		.uleb128 0x26
 6614 1081 12000000 		.4byte	.LVL226
 6615 1085 200D0000 		.4byte	0xd20
 6616 1089 13       		.uleb128 0x13
 6617 108a 01       		.uleb128 0x1
 6618 108b 53       		.byte	0x53
 6619 108c 02       		.uleb128 0x2
 6620 108d 74       		.byte	0x74
 6621 108e 00       		.sleb128 0
 6622 108f 00       		.byte	0
 6623 1090 00       		.byte	0
 6624 1091 10       		.uleb128 0x10
 6625 1092 3C020000 		.4byte	0x23c
 6626 1096 00000000 		.4byte	.LFB13
 6627 109a 5A000000 		.4byte	.LFE13-.LFB13
 6628 109e 01       		.uleb128 0x1
 6629 109f 9C       		.byte	0x9c
 6630 10a0 92110000 		.4byte	0x1192
ARM GAS  C:\Users\legoc\AppData\Local\Temp\ccOlrioX.s 			page 133


 6631 10a4 11       		.uleb128 0x11
 6632 10a5 49020000 		.4byte	0x249
 6633 10a9 4A0C0000 		.4byte	.LLST90
 6634 10ad 11       		.uleb128 0x11
 6635 10ae 54020000 		.4byte	0x254
 6636 10b2 9A0C0000 		.4byte	.LLST91
 6637 10b6 11       		.uleb128 0x11
 6638 10b7 5F020000 		.4byte	0x25f
 6639 10bb ED0C0000 		.4byte	.LLST92
 6640 10bf 11       		.uleb128 0x11
 6641 10c0 6A020000 		.4byte	0x26a
 6642 10c4 3D0D0000 		.4byte	.LLST93
 6643 10c8 11       		.uleb128 0x11
 6644 10c9 75020000 		.4byte	0x275
 6645 10cd 900D0000 		.4byte	.LLST94
 6646 10d1 2D       		.uleb128 0x2d
 6647 10d2 04020000 		.4byte	0x204
 6648 10d6 2A000000 		.4byte	.LBB231
 6649 10da D8010000 		.4byte	.Ldebug_ranges0+0x1d8
 6650 10de 01       		.byte	0x1
 6651 10df 2101     		.2byte	0x121
 6652 10e1 13110000 		.4byte	0x1113
 6653 10e5 11       		.uleb128 0x11
 6654 10e6 2F020000 		.4byte	0x22f
 6655 10ea BC0D0000 		.4byte	.LLST95
 6656 10ee 11       		.uleb128 0x11
 6657 10ef 25020000 		.4byte	0x225
 6658 10f3 CF0D0000 		.4byte	.LLST96
 6659 10f7 11       		.uleb128 0x11
 6660 10f8 1B020000 		.4byte	0x21b
 6661 10fc E90D0000 		.4byte	.LLST97
 6662 1100 11       		.uleb128 0x11
 6663 1101 11020000 		.4byte	0x211
 6664 1105 FC0D0000 		.4byte	.LLST98
 6665 1109 21       		.uleb128 0x21
 6666 110a 3E000000 		.4byte	.LVL235
 6667 110e 200D0000 		.4byte	0xd20
 6668 1112 00       		.byte	0
 6669 1113 28       		.uleb128 0x28
 6670 1114 F0010000 		.4byte	.Ldebug_ranges0+0x1f0
 6671 1118 88110000 		.4byte	0x1188
 6672 111c 11       		.uleb128 0x11
 6673 111d 5F020000 		.4byte	0x25f
 6674 1121 0F0E0000 		.4byte	.LLST99
 6675 1125 11       		.uleb128 0x11
 6676 1126 75020000 		.4byte	0x275
 6677 112a 220E0000 		.4byte	.LLST100
 6678 112e 11       		.uleb128 0x11
 6679 112f 6A020000 		.4byte	0x26a
 6680 1133 350E0000 		.4byte	.LLST101
 6681 1137 11       		.uleb128 0x11
 6682 1138 54020000 		.4byte	0x254
 6683 113c 530E0000 		.4byte	.LLST102
 6684 1140 11       		.uleb128 0x11
 6685 1141 49020000 		.4byte	0x249
 6686 1145 0F0E0000 		.4byte	.LLST99
 6687 1149 2E       		.uleb128 0x2e
ARM GAS  C:\Users\legoc\AppData\Local\Temp\ccOlrioX.s 			page 134


 6688 114a CC010000 		.4byte	0x1cc
 6689 114e 46000000 		.4byte	.LBB237
 6690 1152 08020000 		.4byte	.Ldebug_ranges0+0x208
 6691 1156 01       		.byte	0x1
 6692 1157 1B01     		.2byte	0x11b
 6693 1159 11       		.uleb128 0x11
 6694 115a F7010000 		.4byte	0x1f7
 6695 115e 710E0000 		.4byte	.LLST104
 6696 1162 11       		.uleb128 0x11
 6697 1163 ED010000 		.4byte	0x1ed
 6698 1167 840E0000 		.4byte	.LLST105
 6699 116b 11       		.uleb128 0x11
 6700 116c E3010000 		.4byte	0x1e3
 6701 1170 9E0E0000 		.4byte	.LLST106
 6702 1174 11       		.uleb128 0x11
 6703 1175 D9010000 		.4byte	0x1d9
 6704 1179 B10E0000 		.4byte	.LLST107
 6705 117d 21       		.uleb128 0x21
 6706 117e 5A000000 		.4byte	.LVL243
 6707 1182 200D0000 		.4byte	0xd20
 6708 1186 00       		.byte	0
 6709 1187 00       		.byte	0
 6710 1188 21       		.uleb128 0x21
 6711 1189 20000000 		.4byte	.LVL229
 6712 118d 200D0000 		.4byte	0xd20
 6713 1191 00       		.byte	0
 6714 1192 0A       		.uleb128 0xa
 6715 1193 50030000 		.4byte	.LASF41
 6716 1197 01       		.byte	0x1
 6717 1198 2901     		.2byte	0x129
 6718 119a 01       		.byte	0x1
 6719 119b 40120000 		.4byte	0x1240
 6720 119f 0B       		.uleb128 0xb
 6721 11a0 7800     		.ascii	"x\000"
 6722 11a2 01       		.byte	0x1
 6723 11a3 2901     		.2byte	0x129
 6724 11a5 A2000000 		.4byte	0xa2
 6725 11a9 0B       		.uleb128 0xb
 6726 11aa 7900     		.ascii	"y\000"
 6727 11ac 01       		.byte	0x1
 6728 11ad 2901     		.2byte	0x129
 6729 11af A2000000 		.4byte	0xa2
 6730 11b3 0B       		.uleb128 0xb
 6731 11b4 7700     		.ascii	"w\000"
 6732 11b6 01       		.byte	0x1
 6733 11b7 2901     		.2byte	0x129
 6734 11b9 A2000000 		.4byte	0xa2
 6735 11bd 0B       		.uleb128 0xb
 6736 11be 6800     		.ascii	"h\000"
 6737 11c0 01       		.byte	0x1
 6738 11c1 2901     		.2byte	0x129
 6739 11c3 A2000000 		.4byte	0xa2
 6740 11c7 0C       		.uleb128 0xc
 6741 11c8 39000000 		.4byte	.LASF42
 6742 11cc 01       		.byte	0x1
 6743 11cd 2A01     		.2byte	0x12a
 6744 11cf AD000000 		.4byte	0xad
ARM GAS  C:\Users\legoc\AppData\Local\Temp\ccOlrioX.s 			page 135


 6745 11d3 0C       		.uleb128 0xc
 6746 11d4 FA000000 		.4byte	.LASF43
 6747 11d8 01       		.byte	0x1
 6748 11d9 2A01     		.2byte	0x12a
 6749 11db AD000000 		.4byte	0xad
 6750 11df 0C       		.uleb128 0xc
 6751 11e0 49030000 		.4byte	.LASF44
 6752 11e4 01       		.byte	0x1
 6753 11e5 2A01     		.2byte	0x12a
 6754 11e7 E6000000 		.4byte	0xe6
 6755 11eb 2F       		.uleb128 0x2f
 6756 11ec 1D000000 		.4byte	.LASF45
 6757 11f0 01       		.byte	0x1
 6758 11f1 3001     		.2byte	0x130
 6759 11f3 89000000 		.4byte	0x89
 6760 11f7 2F       		.uleb128 0x2f
 6761 11f8 2B000000 		.4byte	.LASF46
 6762 11fc 01       		.byte	0x1
 6763 11fd 3101     		.2byte	0x131
 6764 11ff 89000000 		.4byte	0x89
 6765 1203 2F       		.uleb128 0x2f
 6766 1204 67000000 		.4byte	.LASF47
 6767 1208 01       		.byte	0x1
 6768 1209 3201     		.2byte	0x132
 6769 120b 89000000 		.4byte	0x89
 6770 120f 2F       		.uleb128 0x2f
 6771 1210 CD000000 		.4byte	.LASF48
 6772 1214 01       		.byte	0x1
 6773 1215 3B01     		.2byte	0x13b
 6774 1217 40120000 		.4byte	0x1240
 6775 121b 0E       		.uleb128 0xe
 6776 121c 6900     		.ascii	"i\000"
 6777 121e 01       		.byte	0x1
 6778 121f 3C01     		.2byte	0x13c
 6779 1221 89000000 		.4byte	0x89
 6780 1225 2F       		.uleb128 0x2f
 6781 1226 5B000000 		.4byte	.LASF49
 6782 122a 01       		.byte	0x1
 6783 122b 4701     		.2byte	0x147
 6784 122d 89000000 		.4byte	0x89
 6785 1231 30       		.uleb128 0x30
 6786 1232 35030000 		.4byte	.LASF61
 6787 1236 01       		.byte	0x1
 6788 1237 4A01     		.2byte	0x14a
 6789 1239 89000000 		.4byte	0x89
 6790 123d 31       		.uleb128 0x31
 6791 123e 00       		.byte	0
 6792 123f 00       		.byte	0
 6793 1240 32       		.uleb128 0x32
 6794 1241 D1000000 		.4byte	0xd1
 6795 1245 4F120000 		.4byte	0x124f
 6796 1249 33       		.uleb128 0x33
 6797 124a DF000000 		.4byte	0xdf
 6798 124e 00       		.byte	0
 6799 124f 10       		.uleb128 0x10
 6800 1250 92110000 		.4byte	0x1192
 6801 1254 00000000 		.4byte	.LFB14
ARM GAS  C:\Users\legoc\AppData\Local\Temp\ccOlrioX.s 			page 136


 6802 1258 60010000 		.4byte	.LFE14-.LFB14
 6803 125c 01       		.uleb128 0x1
 6804 125d 9C       		.byte	0x9c
 6805 125e EF140000 		.4byte	0x14ef
 6806 1262 11       		.uleb128 0x11
 6807 1263 9F110000 		.4byte	0x119f
 6808 1267 C40E0000 		.4byte	.LLST108
 6809 126b 11       		.uleb128 0x11
 6810 126c A9110000 		.4byte	0x11a9
 6811 1270 E50E0000 		.4byte	.LLST109
 6812 1274 11       		.uleb128 0x11
 6813 1275 B3110000 		.4byte	0x11b3
 6814 1279 060F0000 		.4byte	.LLST110
 6815 127d 11       		.uleb128 0x11
 6816 127e BD110000 		.4byte	0x11bd
 6817 1282 270F0000 		.4byte	.LLST111
 6818 1286 11       		.uleb128 0x11
 6819 1287 C7110000 		.4byte	0x11c7
 6820 128b 480F0000 		.4byte	.LLST112
 6821 128f 11       		.uleb128 0x11
 6822 1290 D3110000 		.4byte	0x11d3
 6823 1294 5C0F0000 		.4byte	.LLST113
 6824 1298 11       		.uleb128 0x11
 6825 1299 DF110000 		.4byte	0x11df
 6826 129d 700F0000 		.4byte	.LLST114
 6827 12a1 1D       		.uleb128 0x1d
 6828 12a2 EB110000 		.4byte	0x11eb
 6829 12a6 BE0F0000 		.4byte	.LLST115
 6830 12aa 1D       		.uleb128 0x1d
 6831 12ab F7110000 		.4byte	0x11f7
 6832 12af DC0F0000 		.4byte	.LLST116
 6833 12b3 1D       		.uleb128 0x1d
 6834 12b4 03120000 		.4byte	0x1203
 6835 12b8 21100000 		.4byte	.LLST117
 6836 12bc 34       		.uleb128 0x34
 6837 12bd 0F120000 		.4byte	0x120f
 6838 12c1 40120000 		.4byte	0x1240
 6839 12c5 57100000 		.4byte	.LLST118
 6840 12c9 1D       		.uleb128 0x1d
 6841 12ca 1B120000 		.4byte	0x121b
 6842 12ce 83100000 		.4byte	.LLST119
 6843 12d2 1D       		.uleb128 0x1d
 6844 12d3 25120000 		.4byte	0x1225
 6845 12d7 A3100000 		.4byte	.LLST120
 6846 12db 35       		.uleb128 0x35
 6847 12dc 31120000 		.4byte	0x1231
 6848 12e0 00       		.byte	0
 6849 12e1 E8120000 		.4byte	0x12e8
 6850 12e5 31       		.uleb128 0x31
 6851 12e6 31       		.uleb128 0x31
 6852 12e7 00       		.byte	0
 6853 12e8 2D       		.uleb128 0x2d
 6854 12e9 3C010000 		.4byte	0x13c
 6855 12ed 14000000 		.4byte	.LBB249
 6856 12f1 20020000 		.4byte	.Ldebug_ranges0+0x220
 6857 12f5 01       		.byte	0x1
 6858 12f6 2D01     		.2byte	0x12d
ARM GAS  C:\Users\legoc\AppData\Local\Temp\ccOlrioX.s 			page 137


 6859 12f8 C8140000 		.4byte	0x14c8
 6860 12fc 11       		.uleb128 0x11
 6861 12fd 6C010000 		.4byte	0x16c
 6862 1301 C8100000 		.4byte	.LLST121
 6863 1305 11       		.uleb128 0x11
 6864 1306 63010000 		.4byte	0x163
 6865 130a E8100000 		.4byte	.LLST122
 6866 130e 11       		.uleb128 0x11
 6867 130f 5A010000 		.4byte	0x15a
 6868 1313 08110000 		.4byte	.LLST123
 6869 1317 11       		.uleb128 0x11
 6870 1318 51010000 		.4byte	0x151
 6871 131c 26110000 		.4byte	.LLST124
 6872 1320 11       		.uleb128 0x11
 6873 1321 48010000 		.4byte	0x148
 6874 1325 46110000 		.4byte	.LLST125
 6875 1329 1F       		.uleb128 0x1f
 6876 132a EC000000 		.4byte	0xec
 6877 132e 36000000 		.4byte	.LBB251
 6878 1332 58020000 		.4byte	.Ldebug_ranges0+0x258
 6879 1336 01       		.byte	0x1
 6880 1337 95       		.byte	0x95
 6881 1338 11       		.uleb128 0x11
 6882 1339 1C010000 		.4byte	0x11c
 6883 133d C8100000 		.4byte	.LLST121
 6884 1341 11       		.uleb128 0x11
 6885 1342 13010000 		.4byte	0x113
 6886 1346 08110000 		.4byte	.LLST123
 6887 134a 11       		.uleb128 0x11
 6888 134b 0A010000 		.4byte	0x10a
 6889 134f E8100000 		.4byte	.LLST122
 6890 1353 11       		.uleb128 0x11
 6891 1354 01010000 		.4byte	0x101
 6892 1358 66110000 		.4byte	.LLST129
 6893 135c 11       		.uleb128 0x11
 6894 135d F8000000 		.4byte	0xf8
 6895 1361 A9110000 		.4byte	.LLST130
 6896 1365 1C       		.uleb128 0x1c
 6897 1366 58020000 		.4byte	.Ldebug_ranges0+0x258
 6898 136a 1B       		.uleb128 0x1b
 6899 136b 27010000 		.4byte	0x127
 6900 136f 1B       		.uleb128 0x1b
 6901 1370 31010000 		.4byte	0x131
 6902 1374 36       		.uleb128 0x36
 6903 1375 C0000000 		.4byte	.LBB253
 6904 1379 8C000000 		.4byte	.LBE253-.LBB253
 6905 137d 11       		.uleb128 0x11
 6906 137e 1C010000 		.4byte	0x11c
 6907 1382 F0110000 		.4byte	.LLST131
 6908 1386 11       		.uleb128 0x11
 6909 1387 13010000 		.4byte	0x113
 6910 138b 04120000 		.4byte	.LLST132
 6911 138f 11       		.uleb128 0x11
 6912 1390 0A010000 		.4byte	0x10a
 6913 1394 22120000 		.4byte	.LLST133
 6914 1398 11       		.uleb128 0x11
 6915 1399 01010000 		.4byte	0x101
ARM GAS  C:\Users\legoc\AppData\Local\Temp\ccOlrioX.s 			page 138


 6916 139d 41120000 		.4byte	.LLST134
 6917 13a1 11       		.uleb128 0x11
 6918 13a2 F8000000 		.4byte	0xf8
 6919 13a6 65120000 		.4byte	.LLST135
 6920 13aa 36       		.uleb128 0x36
 6921 13ab C0000000 		.4byte	.LBB254
 6922 13af 8C000000 		.4byte	.LBE254-.LBB254
 6923 13b3 1D       		.uleb128 0x1d
 6924 13b4 27010000 		.4byte	0x127
 6925 13b8 C2120000 		.4byte	.LLST136
 6926 13bc 1D       		.uleb128 0x1d
 6927 13bd 31010000 		.4byte	0x131
 6928 13c1 D5120000 		.4byte	.LLST137
 6929 13c5 12       		.uleb128 0x12
 6930 13c6 EC000000 		.4byte	.LVL272
 6931 13ca 92030000 		.4byte	0x392
 6932 13ce 54140000 		.4byte	0x1454
 6933 13d2 13       		.uleb128 0x13
 6934 13d3 01       		.uleb128 0x1
 6935 13d4 51       		.byte	0x51
 6936 13d5 02       		.uleb128 0x2
 6937 13d6 78       		.byte	0x78
 6938 13d7 00       		.sleb128 0
 6939 13d8 13       		.uleb128 0x13
 6940 13d9 01       		.uleb128 0x1
 6941 13da 52       		.byte	0x52
 6942 13db 3B       		.uleb128 0x3b
 6943 13dc 91       		.byte	0x91
 6944 13dd 04       		.sleb128 4
 6945 13de 94       		.byte	0x94
 6946 13df 02       		.byte	0x2
 6947 13e0 0A       		.byte	0xa
 6948 13e1 FFFF     		.2byte	0xffff
 6949 13e3 1A       		.byte	0x1a
 6950 13e4 91       		.byte	0x91
 6951 13e5 7C       		.sleb128 -4
 6952 13e6 06       		.byte	0x6
 6953 13e7 22       		.byte	0x22
 6954 13e8 0A       		.byte	0xa
 6955 13e9 FFFF     		.2byte	0xffff
 6956 13eb 1A       		.byte	0x1a
 6957 13ec 91       		.byte	0x91
 6958 13ed 04       		.sleb128 4
 6959 13ee 94       		.byte	0x94
 6960 13ef 02       		.byte	0x2
 6961 13f0 0A       		.byte	0xa
 6962 13f1 FFFF     		.2byte	0xffff
 6963 13f3 1A       		.byte	0x1a
 6964 13f4 08       		.byte	0x8
 6965 13f5 F0       		.byte	0xf0
 6966 13f6 91       		.byte	0x91
 6967 13f7 04       		.sleb128 4
 6968 13f8 94       		.byte	0x94
 6969 13f9 02       		.byte	0x2
 6970 13fa 0A       		.byte	0xa
 6971 13fb FFFF     		.2byte	0xffff
 6972 13fd 1A       		.byte	0x1a
ARM GAS  C:\Users\legoc\AppData\Local\Temp\ccOlrioX.s 			page 139


 6973 13fe 91       		.byte	0x91
 6974 13ff 7C       		.sleb128 -4
 6975 1400 06       		.byte	0x6
 6976 1401 22       		.byte	0x22
 6977 1402 0A       		.byte	0xa
 6978 1403 FFFF     		.2byte	0xffff
 6979 1405 1A       		.byte	0x1a
 6980 1406 1C       		.byte	0x1c
 6981 1407 40       		.byte	0x40
 6982 1408 24       		.byte	0x24
 6983 1409 40       		.byte	0x40
 6984 140a 26       		.byte	0x26
 6985 140b 91       		.byte	0x91
 6986 140c 04       		.sleb128 4
 6987 140d 06       		.byte	0x6
 6988 140e 22       		.byte	0x22
 6989 140f 08       		.byte	0x8
 6990 1410 F0       		.byte	0xf0
 6991 1411 2B       		.byte	0x2b
 6992 1412 28       		.byte	0x28
 6993 1413 0100     		.2byte	0x1
 6994 1415 16       		.byte	0x16
 6995 1416 13       		.byte	0x13
 6996 1417 13       		.uleb128 0x13
 6997 1418 01       		.uleb128 0x1
 6998 1419 53       		.byte	0x53
 6999 141a 38       		.uleb128 0x38
 7000 141b 74       		.byte	0x74
 7001 141c 00       		.sleb128 0
 7002 141d 76       		.byte	0x76
 7003 141e 00       		.sleb128 0
 7004 141f 91       		.byte	0x91
 7005 1420 04       		.sleb128 4
 7006 1421 94       		.byte	0x94
 7007 1422 02       		.byte	0x2
 7008 1423 0A       		.byte	0xa
 7009 1424 FFFF     		.2byte	0xffff
 7010 1426 1A       		.byte	0x1a
 7011 1427 91       		.byte	0x91
 7012 1428 7C       		.sleb128 -4
 7013 1429 06       		.byte	0x6
 7014 142a 22       		.byte	0x22
 7015 142b 0A       		.byte	0xa
 7016 142c FFFF     		.2byte	0xffff
 7017 142e 1A       		.byte	0x1a
 7018 142f 78       		.byte	0x78
 7019 1430 00       		.sleb128 0
 7020 1431 40       		.byte	0x40
 7021 1432 24       		.byte	0x24
 7022 1433 40       		.byte	0x40
 7023 1434 26       		.byte	0x26
 7024 1435 7A       		.byte	0x7a
 7025 1436 00       		.sleb128 0
 7026 1437 22       		.byte	0x22
 7027 1438 0A       		.byte	0xa
 7028 1439 4001     		.2byte	0x140
 7029 143b 2C       		.byte	0x2c
ARM GAS  C:\Users\legoc\AppData\Local\Temp\ccOlrioX.s 			page 140


 7030 143c 28       		.byte	0x28
 7031 143d 0100     		.2byte	0x1
 7032 143f 16       		.byte	0x16
 7033 1440 13       		.byte	0x13
 7034 1441 78       		.byte	0x78
 7035 1442 00       		.sleb128 0
 7036 1443 40       		.byte	0x40
 7037 1444 24       		.byte	0x24
 7038 1445 40       		.byte	0x40
 7039 1446 26       		.byte	0x26
 7040 1447 7A       		.byte	0x7a
 7041 1448 00       		.sleb128 0
 7042 1449 22       		.byte	0x22
 7043 144a 0A       		.byte	0xa
 7044 144b 4001     		.2byte	0x140
 7045 144d 2B       		.byte	0x2b
 7046 144e 28       		.byte	0x28
 7047 144f 0100     		.2byte	0x1
 7048 1451 16       		.byte	0x16
 7049 1452 13       		.byte	0x13
 7050 1453 00       		.byte	0
 7051 1454 12       		.uleb128 0x12
 7052 1455 F2000000 		.4byte	.LVL273
 7053 1459 763B0000 		.4byte	0x3b76
 7054 145d 67140000 		.4byte	0x1467
 7055 1461 13       		.uleb128 0x13
 7056 1462 01       		.uleb128 0x1
 7057 1463 50       		.byte	0x50
 7058 1464 01       		.uleb128 0x1
 7059 1465 31       		.byte	0x31
 7060 1466 00       		.byte	0
 7061 1467 12       		.uleb128 0x12
 7062 1468 00010000 		.4byte	.LVL276
 7063 146c 973B0000 		.4byte	0x3b97
 7064 1470 7A140000 		.4byte	0x147a
 7065 1474 13       		.uleb128 0x13
 7066 1475 01       		.uleb128 0x1
 7067 1476 50       		.byte	0x50
 7068 1477 01       		.uleb128 0x1
 7069 1478 30       		.byte	0x30
 7070 1479 00       		.byte	0
 7071 147a 12       		.uleb128 0x12
 7072 147b 16010000 		.4byte	.LVL279
 7073 147f 813B0000 		.4byte	0x3b81
 7074 1483 8E140000 		.4byte	0x148e
 7075 1487 13       		.uleb128 0x13
 7076 1488 01       		.uleb128 0x1
 7077 1489 50       		.byte	0x50
 7078 148a 02       		.uleb128 0x2
 7079 148b 78       		.byte	0x78
 7080 148c 00       		.sleb128 0
 7081 148d 00       		.byte	0
 7082 148e 14       		.uleb128 0x14
 7083 148f 1A010000 		.4byte	.LVL280
 7084 1493 8C3B0000 		.4byte	0x3b8c
 7085 1497 12       		.uleb128 0x12
 7086 1498 24010000 		.4byte	.LVL281
ARM GAS  C:\Users\legoc\AppData\Local\Temp\ccOlrioX.s 			page 141


 7087 149c 813B0000 		.4byte	0x3b81
 7088 14a0 AB140000 		.4byte	0x14ab
 7089 14a4 13       		.uleb128 0x13
 7090 14a5 01       		.uleb128 0x1
 7091 14a6 50       		.byte	0x50
 7092 14a7 02       		.uleb128 0x2
 7093 14a8 76       		.byte	0x76
 7094 14a9 00       		.sleb128 0
 7095 14aa 00       		.byte	0
 7096 14ab 14       		.uleb128 0x14
 7097 14ac 28010000 		.4byte	.LVL282
 7098 14b0 8C3B0000 		.4byte	0x3b8c
 7099 14b4 26       		.uleb128 0x26
 7100 14b5 4A010000 		.4byte	.LVL287
 7101 14b9 973B0000 		.4byte	0x3b97
 7102 14bd 13       		.uleb128 0x13
 7103 14be 01       		.uleb128 0x1
 7104 14bf 50       		.byte	0x50
 7105 14c0 01       		.uleb128 0x1
 7106 14c1 31       		.byte	0x31
 7107 14c2 00       		.byte	0
 7108 14c3 00       		.byte	0
 7109 14c4 00       		.byte	0
 7110 14c5 00       		.byte	0
 7111 14c6 00       		.byte	0
 7112 14c7 00       		.byte	0
 7113 14c8 26       		.uleb128 0x26
 7114 14c9 B8000000 		.4byte	.LVL266
 7115 14cd AD3B0000 		.4byte	0x3bad
 7116 14d1 13       		.uleb128 0x13
 7117 14d2 01       		.uleb128 0x1
 7118 14d3 51       		.byte	0x51
 7119 14d4 11       		.uleb128 0x11
 7120 14d5 91       		.byte	0x91
 7121 14d6 04       		.sleb128 4
 7122 14d7 06       		.byte	0x6
 7123 14d8 4F       		.byte	0x4f
 7124 14d9 25       		.byte	0x25
 7125 14da 91       		.byte	0x91
 7126 14db 04       		.sleb128 4
 7127 14dc 06       		.byte	0x6
 7128 14dd 22       		.byte	0x22
 7129 14de 31       		.byte	0x31
 7130 14df 26       		.byte	0x26
 7131 14e0 91       		.byte	0x91
 7132 14e1 7C       		.sleb128 -4
 7133 14e2 06       		.byte	0x6
 7134 14e3 22       		.byte	0x22
 7135 14e4 31       		.byte	0x31
 7136 14e5 1C       		.byte	0x1c
 7137 14e6 13       		.uleb128 0x13
 7138 14e7 01       		.uleb128 0x1
 7139 14e8 52       		.byte	0x52
 7140 14e9 03       		.uleb128 0x3
 7141 14ea 91       		.byte	0x91
 7142 14eb 78       		.sleb128 -8
 7143 14ec 06       		.byte	0x6
ARM GAS  C:\Users\legoc\AppData\Local\Temp\ccOlrioX.s 			page 142


 7144 14ed 00       		.byte	0
 7145 14ee 00       		.byte	0
 7146 14ef 37       		.uleb128 0x37
 7147 14f0 D0030000 		.4byte	.LASF50
 7148 14f4 01       		.byte	0x1
 7149 14f5 4D01     		.2byte	0x14d
 7150 14f7 00000000 		.4byte	.LFB15
 7151 14fb 58020000 		.4byte	.LFE15-.LFB15
 7152 14ff 01       		.uleb128 0x1
 7153 1500 9C       		.byte	0x9c
 7154 1501 A81D0000 		.4byte	0x1da8
 7155 1505 38       		.uleb128 0x38
 7156 1506 E1000000 		.4byte	.LASF51
 7157 150a 01       		.byte	0x1
 7158 150b 4D01     		.2byte	0x14d
 7159 150d 89000000 		.4byte	0x89
 7160 1511 E8120000 		.4byte	.LLST138
 7161 1515 38       		.uleb128 0x38
 7162 1516 26050000 		.4byte	.LASF52
 7163 151a 01       		.byte	0x1
 7164 151b 4D01     		.2byte	0x14d
 7165 151d 90000000 		.4byte	0x90
 7166 1521 2D130000 		.4byte	.LLST139
 7167 1525 39       		.uleb128 0x39
 7168 1526 17020000 		.4byte	.LASF53
 7169 152a 01       		.byte	0x1
 7170 152b 5101     		.2byte	0x151
 7171 152d 89000000 		.4byte	0x89
 7172 1531 C0       		.byte	0xc0
 7173 1532 3A       		.uleb128 0x3a
 7174 1533 A6030000 		.4byte	.LASF54
 7175 1537 01       		.byte	0x1
 7176 1538 5201     		.2byte	0x152
 7177 153a 89000000 		.4byte	0x89
 7178 153e 72130000 		.4byte	.LLST140
 7179 1542 3A       		.uleb128 0x3a
 7180 1543 41030000 		.4byte	.LASF55
 7181 1547 01       		.byte	0x1
 7182 1548 5301     		.2byte	0x153
 7183 154a 89000000 		.4byte	0x89
 7184 154e 9B130000 		.4byte	.LLST141
 7185 1552 2F       		.uleb128 0x2f
 7186 1553 D6040000 		.4byte	.LASF56
 7187 1557 01       		.byte	0x1
 7188 1558 5401     		.2byte	0x154
 7189 155a 89000000 		.4byte	0x89
 7190 155e 3B       		.uleb128 0x3b
 7191 155f BA000000 		.4byte	.LASF57
 7192 1563 01       		.byte	0x1
 7193 1564 5501     		.2byte	0x155
 7194 1566 A81D0000 		.4byte	0x1da8
 7195 156a 02       		.uleb128 0x2
 7196 156b 91       		.byte	0x91
 7197 156c 4C       		.sleb128 -52
 7198 156d 3B       		.uleb128 0x3b
 7199 156e A7000000 		.4byte	.LASF58
 7200 1572 01       		.byte	0x1
ARM GAS  C:\Users\legoc\AppData\Local\Temp\ccOlrioX.s 			page 143


 7201 1573 5601     		.2byte	0x156
 7202 1575 B81D0000 		.4byte	0x1db8
 7203 1579 02       		.uleb128 0x2
 7204 157a 91       		.byte	0x91
 7205 157b 40       		.sleb128 -64
 7206 157c 3B       		.uleb128 0x3b
 7207 157d E7000000 		.4byte	.LASF59
 7208 1581 01       		.byte	0x1
 7209 1582 5801     		.2byte	0x158
 7210 1584 89000000 		.4byte	0x89
 7211 1588 01       		.uleb128 0x1
 7212 1589 58       		.byte	0x58
 7213 158a 3C       		.uleb128 0x3c
 7214 158b 6900     		.ascii	"i\000"
 7215 158d 01       		.byte	0x1
 7216 158e 5901     		.2byte	0x159
 7217 1590 89000000 		.4byte	0x89
 7218 1594 BB130000 		.4byte	.LLST142
 7219 1598 0E       		.uleb128 0xe
 7220 1599 6B00     		.ascii	"k\000"
 7221 159b 01       		.byte	0x1
 7222 159c 5A01     		.2byte	0x15a
 7223 159e 89000000 		.4byte	0x89
 7224 15a2 3B       		.uleb128 0x3b
 7225 15a3 7F040000 		.4byte	.LASF60
 7226 15a7 01       		.byte	0x1
 7227 15a8 8301     		.2byte	0x183
 7228 15aa C81D0000 		.4byte	0x1dc8
 7229 15ae 02       		.uleb128 0x2
 7230 15af 91       		.byte	0x91
 7231 15b0 44       		.sleb128 -60
 7232 15b1 2D       		.uleb128 0x2d
 7233 15b2 9E020000 		.4byte	0x29e
 7234 15b6 08000000 		.4byte	.LBB341
 7235 15ba 80020000 		.4byte	.Ldebug_ranges0+0x280
 7236 15be 01       		.byte	0x1
 7237 15bf 4F01     		.2byte	0x14f
 7238 15c1 30170000 		.4byte	0x1730
 7239 15c5 11       		.uleb128 0x11
 7240 15c6 AA020000 		.4byte	0x2aa
 7241 15ca FE130000 		.4byte	.LLST143
 7242 15ce 1F       		.uleb128 0x1f
 7243 15cf 3C010000 		.4byte	0x13c
 7244 15d3 08000000 		.4byte	.LBB342
 7245 15d7 80020000 		.4byte	.Ldebug_ranges0+0x280
 7246 15db 01       		.byte	0x1
 7247 15dc 9B       		.byte	0x9b
 7248 15dd 11       		.uleb128 0x11
 7249 15de 6C010000 		.4byte	0x16c
 7250 15e2 FE130000 		.4byte	.LLST143
 7251 15e6 11       		.uleb128 0x11
 7252 15e7 63010000 		.4byte	0x163
 7253 15eb 12140000 		.4byte	.LLST145
 7254 15ef 11       		.uleb128 0x11
 7255 15f0 5A010000 		.4byte	0x15a
 7256 15f4 27140000 		.4byte	.LLST146
 7257 15f8 11       		.uleb128 0x11
ARM GAS  C:\Users\legoc\AppData\Local\Temp\ccOlrioX.s 			page 144


 7258 15f9 51010000 		.4byte	0x151
 7259 15fd FE130000 		.4byte	.LLST143
 7260 1601 11       		.uleb128 0x11
 7261 1602 48010000 		.4byte	0x148
 7262 1606 FE130000 		.4byte	.LLST143
 7263 160a 1F       		.uleb128 0x1f
 7264 160b EC000000 		.4byte	0xec
 7265 160f 08000000 		.4byte	.LBB343
 7266 1613 80020000 		.4byte	.Ldebug_ranges0+0x280
 7267 1617 01       		.byte	0x1
 7268 1618 95       		.byte	0x95
 7269 1619 11       		.uleb128 0x11
 7270 161a 1C010000 		.4byte	0x11c
 7271 161e FE130000 		.4byte	.LLST143
 7272 1622 11       		.uleb128 0x11
 7273 1623 13010000 		.4byte	0x113
 7274 1627 27140000 		.4byte	.LLST146
 7275 162b 11       		.uleb128 0x11
 7276 162c 0A010000 		.4byte	0x10a
 7277 1630 12140000 		.4byte	.LLST145
 7278 1634 11       		.uleb128 0x11
 7279 1635 01010000 		.4byte	0x101
 7280 1639 FE130000 		.4byte	.LLST143
 7281 163d 11       		.uleb128 0x11
 7282 163e F8000000 		.4byte	0xf8
 7283 1642 FE130000 		.4byte	.LLST143
 7284 1646 1C       		.uleb128 0x1c
 7285 1647 80020000 		.4byte	.Ldebug_ranges0+0x280
 7286 164b 1B       		.uleb128 0x1b
 7287 164c 27010000 		.4byte	0x127
 7288 1650 1B       		.uleb128 0x1b
 7289 1651 31010000 		.4byte	0x131
 7290 1655 1C       		.uleb128 0x1c
 7291 1656 80020000 		.4byte	.Ldebug_ranges0+0x280
 7292 165a 11       		.uleb128 0x11
 7293 165b 1C010000 		.4byte	0x11c
 7294 165f FE130000 		.4byte	.LLST143
 7295 1663 11       		.uleb128 0x11
 7296 1664 13010000 		.4byte	0x113
 7297 1668 27140000 		.4byte	.LLST146
 7298 166c 11       		.uleb128 0x11
 7299 166d 0A010000 		.4byte	0x10a
 7300 1671 12140000 		.4byte	.LLST145
 7301 1675 11       		.uleb128 0x11
 7302 1676 01010000 		.4byte	0x101
 7303 167a 3D140000 		.4byte	.LLST157
 7304 167e 11       		.uleb128 0x11
 7305 167f F8000000 		.4byte	0xf8
 7306 1683 5F140000 		.4byte	.LLST158
 7307 1687 1C       		.uleb128 0x1c
 7308 1688 80020000 		.4byte	.Ldebug_ranges0+0x280
 7309 168c 1D       		.uleb128 0x1d
 7310 168d 27010000 		.4byte	0x127
 7311 1691 80140000 		.4byte	.LLST159
 7312 1695 1D       		.uleb128 0x1d
 7313 1696 31010000 		.4byte	0x131
 7314 169a 80140000 		.4byte	.LLST159
ARM GAS  C:\Users\legoc\AppData\Local\Temp\ccOlrioX.s 			page 145


 7315 169e 12       		.uleb128 0x12
 7316 169f 1A000000 		.4byte	.LVL295
 7317 16a3 92030000 		.4byte	0x392
 7318 16a7 C3160000 		.4byte	0x16c3
 7319 16ab 13       		.uleb128 0x13
 7320 16ac 01       		.uleb128 0x1
 7321 16ad 50       		.byte	0x50
 7322 16ae 01       		.uleb128 0x1
 7323 16af 30       		.byte	0x30
 7324 16b0 13       		.uleb128 0x13
 7325 16b1 01       		.uleb128 0x1
 7326 16b2 51       		.byte	0x51
 7327 16b3 01       		.uleb128 0x1
 7328 16b4 30       		.byte	0x30
 7329 16b5 13       		.uleb128 0x13
 7330 16b6 01       		.uleb128 0x1
 7331 16b7 52       		.byte	0x52
 7332 16b8 02       		.uleb128 0x2
 7333 16b9 08       		.byte	0x8
 7334 16ba F0       		.byte	0xf0
 7335 16bb 13       		.uleb128 0x13
 7336 16bc 01       		.uleb128 0x1
 7337 16bd 53       		.byte	0x53
 7338 16be 03       		.uleb128 0x3
 7339 16bf 0A       		.byte	0xa
 7340 16c0 4001     		.2byte	0x140
 7341 16c2 00       		.byte	0
 7342 16c3 12       		.uleb128 0x12
 7343 16c4 20000000 		.4byte	.LVL296
 7344 16c8 763B0000 		.4byte	0x3b76
 7345 16cc D6160000 		.4byte	0x16d6
 7346 16d0 13       		.uleb128 0x13
 7347 16d1 01       		.uleb128 0x1
 7348 16d2 50       		.byte	0x50
 7349 16d3 01       		.uleb128 0x1
 7350 16d4 31       		.byte	0x31
 7351 16d5 00       		.byte	0
 7352 16d6 12       		.uleb128 0x12
 7353 16d7 26000000 		.4byte	.LVL297
 7354 16db 973B0000 		.4byte	0x3b97
 7355 16df E9160000 		.4byte	0x16e9
 7356 16e3 13       		.uleb128 0x13
 7357 16e4 01       		.uleb128 0x1
 7358 16e5 50       		.byte	0x50
 7359 16e6 01       		.uleb128 0x1
 7360 16e7 30       		.byte	0x30
 7361 16e8 00       		.byte	0
 7362 16e9 12       		.uleb128 0x12
 7363 16ea 32000000 		.4byte	.LVL300
 7364 16ee 813B0000 		.4byte	0x3b81
 7365 16f2 FC160000 		.4byte	0x16fc
 7366 16f6 13       		.uleb128 0x13
 7367 16f7 01       		.uleb128 0x1
 7368 16f8 50       		.byte	0x50
 7369 16f9 01       		.uleb128 0x1
 7370 16fa 30       		.byte	0x30
 7371 16fb 00       		.byte	0
ARM GAS  C:\Users\legoc\AppData\Local\Temp\ccOlrioX.s 			page 146


 7372 16fc 14       		.uleb128 0x14
 7373 16fd 36000000 		.4byte	.LVL301
 7374 1701 8C3B0000 		.4byte	0x3b8c
 7375 1705 12       		.uleb128 0x12
 7376 1706 40000000 		.4byte	.LVL302
 7377 170a 813B0000 		.4byte	0x3b81
 7378 170e 18170000 		.4byte	0x1718
 7379 1712 13       		.uleb128 0x13
 7380 1713 01       		.uleb128 0x1
 7381 1714 50       		.byte	0x50
 7382 1715 01       		.uleb128 0x1
 7383 1716 30       		.byte	0x30
 7384 1717 00       		.byte	0
 7385 1718 14       		.uleb128 0x14
 7386 1719 44000000 		.4byte	.LVL303
 7387 171d 8C3B0000 		.4byte	0x3b8c
 7388 1721 14       		.uleb128 0x14
 7389 1722 5C000000 		.4byte	.LVL304
 7390 1726 973B0000 		.4byte	0x3b97
 7391 172a 00       		.byte	0
 7392 172b 00       		.byte	0
 7393 172c 00       		.byte	0
 7394 172d 00       		.byte	0
 7395 172e 00       		.byte	0
 7396 172f 00       		.byte	0
 7397 1730 2D       		.uleb128 0x2d
 7398 1731 3C020000 		.4byte	0x23c
 7399 1735 72000000 		.4byte	.LBB359
 7400 1739 A0020000 		.4byte	.Ldebug_ranges0+0x2a0
 7401 173d 01       		.byte	0x1
 7402 173e 5B01     		.2byte	0x15b
 7403 1740 C1170000 		.4byte	0x17c1
 7404 1744 11       		.uleb128 0x11
 7405 1745 75020000 		.4byte	0x275
 7406 1749 94140000 		.4byte	.LLST161
 7407 174d 11       		.uleb128 0x11
 7408 174e 6A020000 		.4byte	0x26a
 7409 1752 A9140000 		.4byte	.LLST162
 7410 1756 11       		.uleb128 0x11
 7411 1757 5F020000 		.4byte	0x25f
 7412 175b BD140000 		.4byte	.LLST163
 7413 175f 11       		.uleb128 0x11
 7414 1760 54020000 		.4byte	0x254
 7415 1764 A9140000 		.4byte	.LLST162
 7416 1768 11       		.uleb128 0x11
 7417 1769 49020000 		.4byte	0x249
 7418 176d D2140000 		.4byte	.LLST165
 7419 1771 2E       		.uleb128 0x2e
 7420 1772 04020000 		.4byte	0x204
 7421 1776 72000000 		.4byte	.LBB360
 7422 177a A0020000 		.4byte	.Ldebug_ranges0+0x2a0
 7423 177e 01       		.byte	0x1
 7424 177f 2101     		.2byte	0x121
 7425 1781 3D       		.uleb128 0x3d
 7426 1782 2F020000 		.4byte	0x22f
 7427 1786 7F       		.sleb128 -1
 7428 1787 1A       		.uleb128 0x1a
ARM GAS  C:\Users\legoc\AppData\Local\Temp\ccOlrioX.s 			page 147


 7429 1788 25020000 		.4byte	0x225
 7430 178c BF       		.byte	0xbf
 7431 178d 1A       		.uleb128 0x1a
 7432 178e 1B020000 		.4byte	0x21b
 7433 1792 0A       		.byte	0xa
 7434 1793 1A       		.uleb128 0x1a
 7435 1794 11020000 		.4byte	0x211
 7436 1798 1E       		.byte	0x1e
 7437 1799 26       		.uleb128 0x26
 7438 179a 86000000 		.4byte	.LVL310
 7439 179e 200D0000 		.4byte	0xd20
 7440 17a2 13       		.uleb128 0x13
 7441 17a3 01       		.uleb128 0x1
 7442 17a4 50       		.byte	0x50
 7443 17a5 01       		.uleb128 0x1
 7444 17a6 4E       		.byte	0x4e
 7445 17a7 13       		.uleb128 0x13
 7446 17a8 01       		.uleb128 0x1
 7447 17a9 51       		.byte	0x51
 7448 17aa 01       		.uleb128 0x1
 7449 17ab 3A       		.byte	0x3a
 7450 17ac 13       		.uleb128 0x13
 7451 17ad 01       		.uleb128 0x1
 7452 17ae 52       		.byte	0x52
 7453 17af 02       		.uleb128 0x2
 7454 17b0 08       		.byte	0x8
 7455 17b1 DC       		.byte	0xdc
 7456 17b2 13       		.uleb128 0x13
 7457 17b3 01       		.uleb128 0x1
 7458 17b4 53       		.byte	0x53
 7459 17b5 01       		.uleb128 0x1
 7460 17b6 3A       		.byte	0x3a
 7461 17b7 13       		.uleb128 0x13
 7462 17b8 02       		.uleb128 0x2
 7463 17b9 7D       		.byte	0x7d
 7464 17ba 00       		.sleb128 0
 7465 17bb 02       		.uleb128 0x2
 7466 17bc 74       		.byte	0x74
 7467 17bd 00       		.sleb128 0
 7468 17be 00       		.byte	0
 7469 17bf 00       		.byte	0
 7470 17c0 00       		.byte	0
 7471 17c1 3E       		.uleb128 0x3e
 7472 17c2 3C020000 		.4byte	0x23c
 7473 17c6 86000000 		.4byte	.LBB365
 7474 17ca 0E000000 		.4byte	.LBE365-.LBB365
 7475 17ce 01       		.byte	0x1
 7476 17cf 5C01     		.2byte	0x15c
 7477 17d1 89180000 		.4byte	0x1889
 7478 17d5 11       		.uleb128 0x11
 7479 17d6 75020000 		.4byte	0x275
 7480 17da E6140000 		.4byte	.LLST166
 7481 17de 11       		.uleb128 0x11
 7482 17df 6A020000 		.4byte	0x26a
 7483 17e3 FB140000 		.4byte	.LLST167
 7484 17e7 11       		.uleb128 0x11
 7485 17e8 5F020000 		.4byte	0x25f
ARM GAS  C:\Users\legoc\AppData\Local\Temp\ccOlrioX.s 			page 148


 7486 17ec 10150000 		.4byte	.LLST168
 7487 17f0 11       		.uleb128 0x11
 7488 17f1 54020000 		.4byte	0x254
 7489 17f5 24150000 		.4byte	.LLST169
 7490 17f9 11       		.uleb128 0x11
 7491 17fa 49020000 		.4byte	0x249
 7492 17fe 10150000 		.4byte	.LLST168
 7493 1802 36       		.uleb128 0x36
 7494 1803 86000000 		.4byte	.LBB366
 7495 1807 0E000000 		.4byte	.LBE366-.LBB366
 7496 180b 11       		.uleb128 0x11
 7497 180c 5F020000 		.4byte	0x25f
 7498 1810 10150000 		.4byte	.LLST168
 7499 1814 11       		.uleb128 0x11
 7500 1815 75020000 		.4byte	0x275
 7501 1819 E6140000 		.4byte	.LLST166
 7502 181d 11       		.uleb128 0x11
 7503 181e 6A020000 		.4byte	0x26a
 7504 1822 FB140000 		.4byte	.LLST167
 7505 1826 11       		.uleb128 0x11
 7506 1827 54020000 		.4byte	0x254
 7507 182b 24150000 		.4byte	.LLST169
 7508 182f 11       		.uleb128 0x11
 7509 1830 49020000 		.4byte	0x249
 7510 1834 10150000 		.4byte	.LLST168
 7511 1838 3F       		.uleb128 0x3f
 7512 1839 CC010000 		.4byte	0x1cc
 7513 183d 86000000 		.4byte	.LBB367
 7514 1841 0E000000 		.4byte	.LBE367-.LBB367
 7515 1845 01       		.byte	0x1
 7516 1846 1B01     		.2byte	0x11b
 7517 1848 3D       		.uleb128 0x3d
 7518 1849 F7010000 		.4byte	0x1f7
 7519 184d 7F       		.sleb128 -1
 7520 184e 1A       		.uleb128 0x1a
 7521 184f ED010000 		.4byte	0x1ed
 7522 1853 C0       		.byte	0xc0
 7523 1854 1A       		.uleb128 0x1a
 7524 1855 E3010000 		.4byte	0x1e3
 7525 1859 0A       		.byte	0xa
 7526 185a 1A       		.uleb128 0x1a
 7527 185b D9010000 		.4byte	0x1d9
 7528 185f 1E       		.byte	0x1e
 7529 1860 26       		.uleb128 0x26
 7530 1861 94000000 		.4byte	.LVL311
 7531 1865 200D0000 		.4byte	0xd20
 7532 1869 13       		.uleb128 0x13
 7533 186a 01       		.uleb128 0x1
 7534 186b 50       		.byte	0x50
 7535 186c 01       		.uleb128 0x1
 7536 186d 4E       		.byte	0x4e
 7537 186e 13       		.uleb128 0x13
 7538 186f 01       		.uleb128 0x1
 7539 1870 51       		.byte	0x51
 7540 1871 01       		.uleb128 0x1
 7541 1872 3A       		.byte	0x3a
 7542 1873 13       		.uleb128 0x13
ARM GAS  C:\Users\legoc\AppData\Local\Temp\ccOlrioX.s 			page 149


 7543 1874 01       		.uleb128 0x1
 7544 1875 52       		.byte	0x52
 7545 1876 01       		.uleb128 0x1
 7546 1877 4E       		.byte	0x4e
 7547 1878 13       		.uleb128 0x13
 7548 1879 01       		.uleb128 0x1
 7549 187a 53       		.byte	0x53
 7550 187b 02       		.uleb128 0x2
 7551 187c 08       		.byte	0x8
 7552 187d C9       		.byte	0xc9
 7553 187e 13       		.uleb128 0x13
 7554 187f 02       		.uleb128 0x2
 7555 1880 7D       		.byte	0x7d
 7556 1881 00       		.sleb128 0
 7557 1882 02       		.uleb128 0x2
 7558 1883 74       		.byte	0x74
 7559 1884 00       		.sleb128 0
 7560 1885 00       		.byte	0
 7561 1886 00       		.byte	0
 7562 1887 00       		.byte	0
 7563 1888 00       		.byte	0
 7564 1889 2C       		.uleb128 0x2c
 7565 188a A6000000 		.4byte	.LBB369
 7566 188e 18000000 		.4byte	.LBE369-.LBB369
 7567 1892 F5180000 		.4byte	0x18f5
 7568 1896 40       		.uleb128 0x40
 7569 1897 35030000 		.4byte	.LASF61
 7570 189b 01       		.byte	0x1
 7571 189c 4A01     		.2byte	0x14a
 7572 189e 89000000 		.4byte	0x89
 7573 18a2 A8180000 		.4byte	0x18a8
 7574 18a6 31       		.uleb128 0x31
 7575 18a7 00       		.byte	0
 7576 18a8 12       		.uleb128 0x12
 7577 18a9 B2000000 		.4byte	.LVL313
 7578 18ad AD3B0000 		.4byte	0x3bad
 7579 18b1 D0180000 		.4byte	0x18d0
 7580 18b5 13       		.uleb128 0x13
 7581 18b6 01       		.uleb128 0x1
 7582 18b7 50       		.byte	0x50
 7583 18b8 02       		.uleb128 0x2
 7584 18b9 08       		.byte	0x8
 7585 18ba E6       		.byte	0xe6
 7586 18bb 13       		.uleb128 0x13
 7587 18bc 01       		.uleb128 0x1
 7588 18bd 51       		.byte	0x51
 7589 18be 01       		.uleb128 0x1
 7590 18bf 34       		.byte	0x34
 7591 18c0 13       		.uleb128 0x13
 7592 18c1 01       		.uleb128 0x1
 7593 18c2 52       		.byte	0x52
 7594 18c3 02       		.uleb128 0x2
 7595 18c4 74       		.byte	0x74
 7596 18c5 00       		.sleb128 0
 7597 18c6 13       		.uleb128 0x13
 7598 18c7 01       		.uleb128 0x1
 7599 18c8 53       		.byte	0x53
ARM GAS  C:\Users\legoc\AppData\Local\Temp\ccOlrioX.s 			page 150


 7600 18c9 05       		.uleb128 0x5
 7601 18ca 03       		.byte	0x3
 7602 18cb 00000000 		.4byte	.LC0
 7603 18cf 00       		.byte	0
 7604 18d0 26       		.uleb128 0x26
 7605 18d1 BE000000 		.4byte	.LVL314
 7606 18d5 AD3B0000 		.4byte	0x3bad
 7607 18d9 13       		.uleb128 0x13
 7608 18da 01       		.uleb128 0x1
 7609 18db 50       		.byte	0x50
 7610 18dc 01       		.uleb128 0x1
 7611 18dd 33       		.byte	0x33
 7612 18de 13       		.uleb128 0x13
 7613 18df 01       		.uleb128 0x1
 7614 18e0 51       		.byte	0x51
 7615 18e1 02       		.uleb128 0x2
 7616 18e2 08       		.byte	0x8
 7617 18e3 D9       		.byte	0xd9
 7618 18e4 13       		.uleb128 0x13
 7619 18e5 01       		.uleb128 0x1
 7620 18e6 52       		.byte	0x52
 7621 18e7 02       		.uleb128 0x2
 7622 18e8 74       		.byte	0x74
 7623 18e9 00       		.sleb128 0
 7624 18ea 13       		.uleb128 0x13
 7625 18eb 01       		.uleb128 0x1
 7626 18ec 53       		.byte	0x53
 7627 18ed 05       		.uleb128 0x5
 7628 18ee 03       		.byte	0x3
 7629 18ef 08000000 		.4byte	.LC1
 7630 18f3 00       		.byte	0
 7631 18f4 00       		.byte	0
 7632 18f5 2C       		.uleb128 0x2c
 7633 18f6 D4000000 		.4byte	.LBB370
 7634 18fa 32000000 		.4byte	.LBE370-.LBB370
 7635 18fe F9190000 		.4byte	0x19f9
 7636 1902 40       		.uleb128 0x40
 7637 1903 35030000 		.4byte	.LASF61
 7638 1907 01       		.byte	0x1
 7639 1908 4A01     		.2byte	0x14a
 7640 190a 89000000 		.4byte	0x89
 7641 190e 14190000 		.4byte	0x1914
 7642 1912 31       		.uleb128 0x31
 7643 1913 00       		.byte	0
 7644 1914 2D       		.uleb128 0x2d
 7645 1915 3C020000 		.4byte	0x23c
 7646 1919 E0000000 		.4byte	.LBB371
 7647 191d B8020000 		.4byte	.Ldebug_ranges0+0x2b8
 7648 1921 01       		.byte	0x1
 7649 1922 7701     		.2byte	0x177
 7650 1924 B3190000 		.4byte	0x19b3
 7651 1928 11       		.uleb128 0x11
 7652 1929 75020000 		.4byte	0x275
 7653 192d 38150000 		.4byte	.LLST176
 7654 1931 11       		.uleb128 0x11
 7655 1932 6A020000 		.4byte	0x26a
 7656 1936 4D150000 		.4byte	.LLST177
ARM GAS  C:\Users\legoc\AppData\Local\Temp\ccOlrioX.s 			page 151


 7657 193a 11       		.uleb128 0x11
 7658 193b 5F020000 		.4byte	0x25f
 7659 193f 6B150000 		.4byte	.LLST178
 7660 1943 11       		.uleb128 0x11
 7661 1944 54020000 		.4byte	0x254
 7662 1948 4D150000 		.4byte	.LLST177
 7663 194c 11       		.uleb128 0x11
 7664 194d 49020000 		.4byte	0x249
 7665 1951 80150000 		.4byte	.LLST180
 7666 1955 2E       		.uleb128 0x2e
 7667 1956 04020000 		.4byte	0x204
 7668 195a E0000000 		.4byte	.LBB372
 7669 195e B8020000 		.4byte	.Ldebug_ranges0+0x2b8
 7670 1962 01       		.byte	0x1
 7671 1963 2101     		.2byte	0x121
 7672 1965 11       		.uleb128 0x11
 7673 1966 2F020000 		.4byte	0x22f
 7674 196a 94150000 		.4byte	.LLST181
 7675 196e 11       		.uleb128 0x11
 7676 196f 25020000 		.4byte	0x225
 7677 1973 A9150000 		.4byte	.LLST182
 7678 1977 11       		.uleb128 0x11
 7679 1978 1B020000 		.4byte	0x21b
 7680 197c BE150000 		.4byte	.LLST183
 7681 1980 11       		.uleb128 0x11
 7682 1981 11020000 		.4byte	0x211
 7683 1985 DC150000 		.4byte	.LLST184
 7684 1989 26       		.uleb128 0x26
 7685 198a F2000000 		.4byte	.LVL319
 7686 198e 200D0000 		.4byte	0xd20
 7687 1992 13       		.uleb128 0x13
 7688 1993 01       		.uleb128 0x1
 7689 1994 50       		.byte	0x50
 7690 1995 01       		.uleb128 0x1
 7691 1996 4E       		.byte	0x4e
 7692 1997 13       		.uleb128 0x13
 7693 1998 01       		.uleb128 0x1
 7694 1999 51       		.byte	0x51
 7695 199a 02       		.uleb128 0x2
 7696 199b 74       		.byte	0x74
 7697 199c 00       		.sleb128 0
 7698 199d 13       		.uleb128 0x13
 7699 199e 01       		.uleb128 0x1
 7700 199f 52       		.byte	0x52
 7701 19a0 02       		.uleb128 0x2
 7702 19a1 08       		.byte	0x8
 7703 19a2 DC       		.byte	0xdc
 7704 19a3 13       		.uleb128 0x13
 7705 19a4 01       		.uleb128 0x1
 7706 19a5 53       		.byte	0x53
 7707 19a6 02       		.uleb128 0x2
 7708 19a7 74       		.byte	0x74
 7709 19a8 00       		.sleb128 0
 7710 19a9 13       		.uleb128 0x13
 7711 19aa 02       		.uleb128 0x2
 7712 19ab 7D       		.byte	0x7d
 7713 19ac 00       		.sleb128 0
ARM GAS  C:\Users\legoc\AppData\Local\Temp\ccOlrioX.s 			page 152


 7714 19ad 02       		.uleb128 0x2
 7715 19ae 09       		.byte	0x9
 7716 19af FF       		.byte	0xff
 7717 19b0 00       		.byte	0
 7718 19b1 00       		.byte	0
 7719 19b2 00       		.byte	0
 7720 19b3 12       		.uleb128 0x12
 7721 19b4 E0000000 		.4byte	.LVL317
 7722 19b8 B93B0000 		.4byte	0x3bb9
 7723 19bc D6190000 		.4byte	0x19d6
 7724 19c0 13       		.uleb128 0x13
 7725 19c1 01       		.uleb128 0x1
 7726 19c2 50       		.byte	0x50
 7727 19c3 02       		.uleb128 0x2
 7728 19c4 7D       		.byte	0x7d
 7729 19c5 3C       		.sleb128 60
 7730 19c6 13       		.uleb128 0x13
 7731 19c7 01       		.uleb128 0x1
 7732 19c8 51       		.byte	0x51
 7733 19c9 05       		.uleb128 0x5
 7734 19ca 03       		.byte	0x3
 7735 19cb 28000000 		.4byte	.LC4
 7736 19cf 13       		.uleb128 0x13
 7737 19d0 01       		.uleb128 0x1
 7738 19d1 52       		.byte	0x52
 7739 19d2 02       		.uleb128 0x2
 7740 19d3 75       		.byte	0x75
 7741 19d4 00       		.sleb128 0
 7742 19d5 00       		.byte	0
 7743 19d6 26       		.uleb128 0x26
 7744 19d7 04010000 		.4byte	.LVL321
 7745 19db AD3B0000 		.4byte	0x3bad
 7746 19df 13       		.uleb128 0x13
 7747 19e0 01       		.uleb128 0x1
 7748 19e1 50       		.byte	0x50
 7749 19e2 01       		.uleb128 0x1
 7750 19e3 33       		.byte	0x33
 7751 19e4 13       		.uleb128 0x13
 7752 19e5 01       		.uleb128 0x1
 7753 19e6 51       		.byte	0x51
 7754 19e7 02       		.uleb128 0x2
 7755 19e8 76       		.byte	0x76
 7756 19e9 00       		.sleb128 0
 7757 19ea 13       		.uleb128 0x13
 7758 19eb 01       		.uleb128 0x1
 7759 19ec 52       		.byte	0x52
 7760 19ed 03       		.uleb128 0x3
 7761 19ee 0A       		.byte	0xa
 7762 19ef FFFF     		.2byte	0xffff
 7763 19f1 13       		.uleb128 0x13
 7764 19f2 01       		.uleb128 0x1
 7765 19f3 53       		.byte	0x53
 7766 19f4 02       		.uleb128 0x2
 7767 19f5 7D       		.byte	0x7d
 7768 19f6 3C       		.sleb128 60
 7769 19f7 00       		.byte	0
 7770 19f8 00       		.byte	0
ARM GAS  C:\Users\legoc\AppData\Local\Temp\ccOlrioX.s 			page 153


 7771 19f9 28       		.uleb128 0x28
 7772 19fa D0020000 		.4byte	.Ldebug_ranges0+0x2d0
 7773 19fe 2B1B0000 		.4byte	0x1b2b
 7774 1a02 40       		.uleb128 0x40
 7775 1a03 35030000 		.4byte	.LASF61
 7776 1a07 01       		.byte	0x1
 7777 1a08 4A01     		.2byte	0x14a
 7778 1a0a 89000000 		.4byte	0x89
 7779 1a0e 141A0000 		.4byte	0x1a14
 7780 1a12 31       		.uleb128 0x31
 7781 1a13 00       		.byte	0
 7782 1a14 2D       		.uleb128 0x2d
 7783 1a15 3C020000 		.4byte	0x23c
 7784 1a19 16010000 		.4byte	.LBB378
 7785 1a1d F0020000 		.4byte	.Ldebug_ranges0+0x2f0
 7786 1a21 01       		.byte	0x1
 7787 1a22 7F01     		.2byte	0x17f
 7788 1a24 E61A0000 		.4byte	0x1ae6
 7789 1a28 11       		.uleb128 0x11
 7790 1a29 75020000 		.4byte	0x275
 7791 1a2d F0150000 		.4byte	.LLST185
 7792 1a31 11       		.uleb128 0x11
 7793 1a32 6A020000 		.4byte	0x26a
 7794 1a36 05160000 		.4byte	.LLST186
 7795 1a3a 11       		.uleb128 0x11
 7796 1a3b 5F020000 		.4byte	0x25f
 7797 1a3f 1A160000 		.4byte	.LLST187
 7798 1a43 11       		.uleb128 0x11
 7799 1a44 54020000 		.4byte	0x254
 7800 1a48 38160000 		.4byte	.LLST188
 7801 1a4c 11       		.uleb128 0x11
 7802 1a4d 49020000 		.4byte	0x249
 7803 1a51 1A160000 		.4byte	.LLST187
 7804 1a55 1C       		.uleb128 0x1c
 7805 1a56 F0020000 		.4byte	.Ldebug_ranges0+0x2f0
 7806 1a5a 11       		.uleb128 0x11
 7807 1a5b 5F020000 		.4byte	0x25f
 7808 1a5f 1A160000 		.4byte	.LLST187
 7809 1a63 11       		.uleb128 0x11
 7810 1a64 75020000 		.4byte	0x275
 7811 1a68 F0150000 		.4byte	.LLST185
 7812 1a6c 11       		.uleb128 0x11
 7813 1a6d 6A020000 		.4byte	0x26a
 7814 1a71 05160000 		.4byte	.LLST186
 7815 1a75 11       		.uleb128 0x11
 7816 1a76 54020000 		.4byte	0x254
 7817 1a7a 38160000 		.4byte	.LLST188
 7818 1a7e 11       		.uleb128 0x11
 7819 1a7f 49020000 		.4byte	0x249
 7820 1a83 1A160000 		.4byte	.LLST187
 7821 1a87 2E       		.uleb128 0x2e
 7822 1a88 CC010000 		.4byte	0x1cc
 7823 1a8c 16010000 		.4byte	.LBB380
 7824 1a90 F0020000 		.4byte	.Ldebug_ranges0+0x2f0
 7825 1a94 01       		.byte	0x1
 7826 1a95 1B01     		.2byte	0x11b
 7827 1a97 11       		.uleb128 0x11
ARM GAS  C:\Users\legoc\AppData\Local\Temp\ccOlrioX.s 			page 154


 7828 1a98 F7010000 		.4byte	0x1f7
 7829 1a9c 4C160000 		.4byte	.LLST195
 7830 1aa0 11       		.uleb128 0x11
 7831 1aa1 ED010000 		.4byte	0x1ed
 7832 1aa5 6E160000 		.4byte	.LLST196
 7833 1aa9 11       		.uleb128 0x11
 7834 1aaa E3010000 		.4byte	0x1e3
 7835 1aae 90160000 		.4byte	.LLST197
 7836 1ab2 11       		.uleb128 0x11
 7837 1ab3 D9010000 		.4byte	0x1d9
 7838 1ab7 B0160000 		.4byte	.LLST198
 7839 1abb 26       		.uleb128 0x26
 7840 1abc 44010000 		.4byte	.LVL329
 7841 1ac0 200D0000 		.4byte	0xd20
 7842 1ac4 13       		.uleb128 0x13
 7843 1ac5 01       		.uleb128 0x1
 7844 1ac6 50       		.byte	0x50
 7845 1ac7 02       		.uleb128 0x2
 7846 1ac8 74       		.byte	0x74
 7847 1ac9 00       		.sleb128 0
 7848 1aca 13       		.uleb128 0x13
 7849 1acb 01       		.uleb128 0x1
 7850 1acc 51       		.byte	0x51
 7851 1acd 01       		.uleb128 0x1
 7852 1ace 3A       		.byte	0x3a
 7853 1acf 13       		.uleb128 0x13
 7854 1ad0 01       		.uleb128 0x1
 7855 1ad1 52       		.byte	0x52
 7856 1ad2 02       		.uleb128 0x2
 7857 1ad3 74       		.byte	0x74
 7858 1ad4 00       		.sleb128 0
 7859 1ad5 13       		.uleb128 0x13
 7860 1ad6 01       		.uleb128 0x1
 7861 1ad7 53       		.byte	0x53
 7862 1ad8 02       		.uleb128 0x2
 7863 1ad9 08       		.byte	0x8
 7864 1ada CA       		.byte	0xca
 7865 1adb 13       		.uleb128 0x13
 7866 1adc 02       		.uleb128 0x2
 7867 1add 7D       		.byte	0x7d
 7868 1ade 00       		.sleb128 0
 7869 1adf 02       		.uleb128 0x2
 7870 1ae0 7B       		.byte	0x7b
 7871 1ae1 00       		.sleb128 0
 7872 1ae2 00       		.byte	0
 7873 1ae3 00       		.byte	0
 7874 1ae4 00       		.byte	0
 7875 1ae5 00       		.byte	0
 7876 1ae6 12       		.uleb128 0x12
 7877 1ae7 34010000 		.4byte	.LVL327
 7878 1aeb B93B0000 		.4byte	0x3bb9
 7879 1aef 091B0000 		.4byte	0x1b09
 7880 1af3 13       		.uleb128 0x13
 7881 1af4 01       		.uleb128 0x1
 7882 1af5 50       		.byte	0x50
 7883 1af6 02       		.uleb128 0x2
 7884 1af7 7D       		.byte	0x7d
ARM GAS  C:\Users\legoc\AppData\Local\Temp\ccOlrioX.s 			page 155


 7885 1af8 30       		.sleb128 48
 7886 1af9 13       		.uleb128 0x13
 7887 1afa 01       		.uleb128 0x1
 7888 1afb 51       		.byte	0x51
 7889 1afc 05       		.uleb128 0x5
 7890 1afd 03       		.byte	0x3
 7891 1afe 2C000000 		.4byte	.LC6
 7892 1b02 13       		.uleb128 0x13
 7893 1b03 01       		.uleb128 0x1
 7894 1b04 52       		.byte	0x52
 7895 1b05 02       		.uleb128 0x2
 7896 1b06 75       		.byte	0x75
 7897 1b07 00       		.sleb128 0
 7898 1b08 00       		.byte	0
 7899 1b09 26       		.uleb128 0x26
 7900 1b0a 56010000 		.4byte	.LVL331
 7901 1b0e AD3B0000 		.4byte	0x3bad
 7902 1b12 13       		.uleb128 0x13
 7903 1b13 01       		.uleb128 0x1
 7904 1b14 50       		.byte	0x50
 7905 1b15 02       		.uleb128 0x2
 7906 1b16 76       		.byte	0x76
 7907 1b17 00       		.sleb128 0
 7908 1b18 13       		.uleb128 0x13
 7909 1b19 01       		.uleb128 0x1
 7910 1b1a 51       		.byte	0x51
 7911 1b1b 01       		.uleb128 0x1
 7912 1b1c 34       		.byte	0x34
 7913 1b1d 13       		.uleb128 0x13
 7914 1b1e 01       		.uleb128 0x1
 7915 1b1f 52       		.byte	0x52
 7916 1b20 02       		.uleb128 0x2
 7917 1b21 7B       		.byte	0x7b
 7918 1b22 00       		.sleb128 0
 7919 1b23 13       		.uleb128 0x13
 7920 1b24 01       		.uleb128 0x1
 7921 1b25 53       		.byte	0x53
 7922 1b26 02       		.uleb128 0x2
 7923 1b27 7D       		.byte	0x7d
 7924 1b28 30       		.sleb128 48
 7925 1b29 00       		.byte	0
 7926 1b2a 00       		.byte	0
 7927 1b2b 2D       		.uleb128 0x2d
 7928 1b2c 92110000 		.4byte	0x1192
 7929 1b30 62010000 		.4byte	.LBB388
 7930 1b34 08030000 		.4byte	.Ldebug_ranges0+0x308
 7931 1b38 01       		.byte	0x1
 7932 1b39 8401     		.2byte	0x184
 7933 1b3b 361D0000 		.4byte	0x1d36
 7934 1b3f 11       		.uleb128 0x11
 7935 1b40 DF110000 		.4byte	0x11df
 7936 1b44 CE160000 		.4byte	.LLST199
 7937 1b48 11       		.uleb128 0x11
 7938 1b49 D3110000 		.4byte	0x11d3
 7939 1b4d 20170000 		.4byte	.LLST200
 7940 1b51 11       		.uleb128 0x11
 7941 1b52 C7110000 		.4byte	0x11c7
ARM GAS  C:\Users\legoc\AppData\Local\Temp\ccOlrioX.s 			page 156


 7942 1b56 40170000 		.4byte	.LLST201
 7943 1b5a 11       		.uleb128 0x11
 7944 1b5b BD110000 		.4byte	0x11bd
 7945 1b5f 64170000 		.4byte	.LLST202
 7946 1b63 11       		.uleb128 0x11
 7947 1b64 B3110000 		.4byte	0x11b3
 7948 1b68 84170000 		.4byte	.LLST203
 7949 1b6c 11       		.uleb128 0x11
 7950 1b6d A9110000 		.4byte	0x11a9
 7951 1b71 A6170000 		.4byte	.LLST204
 7952 1b75 11       		.uleb128 0x11
 7953 1b76 9F110000 		.4byte	0x119f
 7954 1b7a C8170000 		.4byte	.LLST205
 7955 1b7e 1C       		.uleb128 0x1c
 7956 1b7f 08030000 		.4byte	.Ldebug_ranges0+0x308
 7957 1b83 1D       		.uleb128 0x1d
 7958 1b84 EB110000 		.4byte	0x11eb
 7959 1b88 EA170000 		.4byte	.LLST206
 7960 1b8c 1D       		.uleb128 0x1d
 7961 1b8d F7110000 		.4byte	0x11f7
 7962 1b91 0C180000 		.4byte	.LLST207
 7963 1b95 1D       		.uleb128 0x1d
 7964 1b96 03120000 		.4byte	0x1203
 7965 1b9a 2E180000 		.4byte	.LLST208
 7966 1b9e 34       		.uleb128 0x34
 7967 1b9f 0F120000 		.4byte	0x120f
 7968 1ba3 D81D0000 		.4byte	0x1dd8
 7969 1ba7 59180000 		.4byte	.LLST210
 7970 1bab 1D       		.uleb128 0x1d
 7971 1bac 1B120000 		.4byte	0x121b
 7972 1bb0 85180000 		.4byte	.LLST211
 7973 1bb4 1B       		.uleb128 0x1b
 7974 1bb5 25120000 		.4byte	0x1225
 7975 1bb9 2D       		.uleb128 0x2d
 7976 1bba 3C010000 		.4byte	0x13c
 7977 1bbe 62010000 		.4byte	.LBB390
 7978 1bc2 38030000 		.4byte	.Ldebug_ranges0+0x338
 7979 1bc6 01       		.byte	0x1
 7980 1bc7 2D01     		.2byte	0x12d
 7981 1bc9 1F1D0000 		.4byte	0x1d1f
 7982 1bcd 11       		.uleb128 0x11
 7983 1bce 6C010000 		.4byte	0x16c
 7984 1bd2 B7180000 		.4byte	.LLST212
 7985 1bd6 11       		.uleb128 0x11
 7986 1bd7 63010000 		.4byte	0x163
 7987 1bdb CD180000 		.4byte	.LLST213
 7988 1bdf 11       		.uleb128 0x11
 7989 1be0 5A010000 		.4byte	0x15a
 7990 1be4 E1180000 		.4byte	.LLST214
 7991 1be8 11       		.uleb128 0x11
 7992 1be9 51010000 		.4byte	0x151
 7993 1bed F6180000 		.4byte	.LLST215
 7994 1bf1 11       		.uleb128 0x11
 7995 1bf2 48010000 		.4byte	0x148
 7996 1bf6 0B190000 		.4byte	.LLST216
 7997 1bfa 1F       		.uleb128 0x1f
 7998 1bfb EC000000 		.4byte	0xec
ARM GAS  C:\Users\legoc\AppData\Local\Temp\ccOlrioX.s 			page 157


 7999 1bff 62010000 		.4byte	.LBB391
 8000 1c03 38030000 		.4byte	.Ldebug_ranges0+0x338
 8001 1c07 01       		.byte	0x1
 8002 1c08 95       		.byte	0x95
 8003 1c09 11       		.uleb128 0x11
 8004 1c0a 1C010000 		.4byte	0x11c
 8005 1c0e B7180000 		.4byte	.LLST212
 8006 1c12 11       		.uleb128 0x11
 8007 1c13 13010000 		.4byte	0x113
 8008 1c17 E1180000 		.4byte	.LLST214
 8009 1c1b 11       		.uleb128 0x11
 8010 1c1c 0A010000 		.4byte	0x10a
 8011 1c20 CD180000 		.4byte	.LLST213
 8012 1c24 11       		.uleb128 0x11
 8013 1c25 01010000 		.4byte	0x101
 8014 1c29 0B190000 		.4byte	.LLST216
 8015 1c2d 11       		.uleb128 0x11
 8016 1c2e F8000000 		.4byte	0xf8
 8017 1c32 20190000 		.4byte	.LLST221
 8018 1c36 1C       		.uleb128 0x1c
 8019 1c37 38030000 		.4byte	.Ldebug_ranges0+0x338
 8020 1c3b 1B       		.uleb128 0x1b
 8021 1c3c 27010000 		.4byte	0x127
 8022 1c40 1B       		.uleb128 0x1b
 8023 1c41 31010000 		.4byte	0x131
 8024 1c45 1C       		.uleb128 0x1c
 8025 1c46 38030000 		.4byte	.Ldebug_ranges0+0x338
 8026 1c4a 11       		.uleb128 0x11
 8027 1c4b 1C010000 		.4byte	0x11c
 8028 1c4f 34190000 		.4byte	.LLST222
 8029 1c53 11       		.uleb128 0x11
 8030 1c54 13010000 		.4byte	0x113
 8031 1c58 58190000 		.4byte	.LLST223
 8032 1c5c 11       		.uleb128 0x11
 8033 1c5d 0A010000 		.4byte	0x10a
 8034 1c61 7A190000 		.4byte	.LLST224
 8035 1c65 11       		.uleb128 0x11
 8036 1c66 01010000 		.4byte	0x101
 8037 1c6a 9A190000 		.4byte	.LLST225
 8038 1c6e 11       		.uleb128 0x11
 8039 1c6f F8000000 		.4byte	0xf8
 8040 1c73 BC190000 		.4byte	.LLST226
 8041 1c77 1C       		.uleb128 0x1c
 8042 1c78 38030000 		.4byte	.Ldebug_ranges0+0x338
 8043 1c7c 1D       		.uleb128 0x1d
 8044 1c7d 27010000 		.4byte	0x127
 8045 1c81 DC190000 		.4byte	.LLST227
 8046 1c85 1D       		.uleb128 0x1d
 8047 1c86 31010000 		.4byte	0x131
 8048 1c8a FE190000 		.4byte	.LLST228
 8049 1c8e 12       		.uleb128 0x12
 8050 1c8f 76010000 		.4byte	.LVL334
 8051 1c93 92030000 		.4byte	0x392
 8052 1c97 B21C0000 		.4byte	0x1cb2
 8053 1c9b 13       		.uleb128 0x13
 8054 1c9c 01       		.uleb128 0x1
 8055 1c9d 50       		.byte	0x50
ARM GAS  C:\Users\legoc\AppData\Local\Temp\ccOlrioX.s 			page 158


 8056 1c9e 01       		.uleb128 0x1
 8057 1c9f 31       		.byte	0x31
 8058 1ca0 13       		.uleb128 0x13
 8059 1ca1 01       		.uleb128 0x1
 8060 1ca2 51       		.byte	0x51
 8061 1ca3 02       		.uleb128 0x2
 8062 1ca4 08       		.byte	0x8
 8063 1ca5 82       		.byte	0x82
 8064 1ca6 13       		.uleb128 0x13
 8065 1ca7 01       		.uleb128 0x1
 8066 1ca8 52       		.byte	0x52
 8067 1ca9 01       		.uleb128 0x1
 8068 1caa 4E       		.byte	0x4e
 8069 1cab 13       		.uleb128 0x13
 8070 1cac 01       		.uleb128 0x1
 8071 1cad 53       		.byte	0x53
 8072 1cae 02       		.uleb128 0x2
 8073 1caf 08       		.byte	0x8
 8074 1cb0 3C       		.byte	0x3c
 8075 1cb1 00       		.byte	0
 8076 1cb2 12       		.uleb128 0x12
 8077 1cb3 7C010000 		.4byte	.LVL335
 8078 1cb7 763B0000 		.4byte	0x3b76
 8079 1cbb C51C0000 		.4byte	0x1cc5
 8080 1cbf 13       		.uleb128 0x13
 8081 1cc0 01       		.uleb128 0x1
 8082 1cc1 50       		.byte	0x50
 8083 1cc2 01       		.uleb128 0x1
 8084 1cc3 31       		.byte	0x31
 8085 1cc4 00       		.byte	0
 8086 1cc5 12       		.uleb128 0x12
 8087 1cc6 82010000 		.4byte	.LVL336
 8088 1cca 973B0000 		.4byte	0x3b97
 8089 1cce D81C0000 		.4byte	0x1cd8
 8090 1cd2 13       		.uleb128 0x13
 8091 1cd3 01       		.uleb128 0x1
 8092 1cd4 50       		.byte	0x50
 8093 1cd5 01       		.uleb128 0x1
 8094 1cd6 30       		.byte	0x30
 8095 1cd7 00       		.byte	0
 8096 1cd8 12       		.uleb128 0x12
 8097 1cd9 8C010000 		.4byte	.LVL339
 8098 1cdd 813B0000 		.4byte	0x3b81
 8099 1ce1 EC1C0000 		.4byte	0x1cec
 8100 1ce5 13       		.uleb128 0x13
 8101 1ce6 01       		.uleb128 0x1
 8102 1ce7 50       		.byte	0x50
 8103 1ce8 02       		.uleb128 0x2
 8104 1ce9 09       		.byte	0x9
 8105 1cea F8       		.byte	0xf8
 8106 1ceb 00       		.byte	0
 8107 1cec 14       		.uleb128 0x14
 8108 1ced 90010000 		.4byte	.LVL340
 8109 1cf1 8C3B0000 		.4byte	0x3b8c
 8110 1cf5 12       		.uleb128 0x12
 8111 1cf6 9A010000 		.4byte	.LVL341
 8112 1cfa 813B0000 		.4byte	0x3b81
ARM GAS  C:\Users\legoc\AppData\Local\Temp\ccOlrioX.s 			page 159


 8113 1cfe 081D0000 		.4byte	0x1d08
 8114 1d02 13       		.uleb128 0x13
 8115 1d03 01       		.uleb128 0x1
 8116 1d04 50       		.byte	0x50
 8117 1d05 01       		.uleb128 0x1
 8118 1d06 30       		.byte	0x30
 8119 1d07 00       		.byte	0
 8120 1d08 14       		.uleb128 0x14
 8121 1d09 9E010000 		.4byte	.LVL342
 8122 1d0d 8C3B0000 		.4byte	0x3b8c
 8123 1d11 14       		.uleb128 0x14
 8124 1d12 B6010000 		.4byte	.LVL343
 8125 1d16 973B0000 		.4byte	0x3b97
 8126 1d1a 00       		.byte	0
 8127 1d1b 00       		.byte	0
 8128 1d1c 00       		.byte	0
 8129 1d1d 00       		.byte	0
 8130 1d1e 00       		.byte	0
 8131 1d1f 26       		.uleb128 0x26
 8132 1d20 04020000 		.4byte	.LVL355
 8133 1d24 AD3B0000 		.4byte	0x3bad
 8134 1d28 13       		.uleb128 0x13
 8135 1d29 01       		.uleb128 0x1
 8136 1d2a 51       		.byte	0x51
 8137 1d2b 02       		.uleb128 0x2
 8138 1d2c 08       		.byte	0x8
 8139 1d2d DF       		.byte	0xdf
 8140 1d2e 13       		.uleb128 0x13
 8141 1d2f 01       		.uleb128 0x1
 8142 1d30 52       		.byte	0x52
 8143 1d31 01       		.uleb128 0x1
 8144 1d32 30       		.byte	0x30
 8145 1d33 00       		.byte	0
 8146 1d34 00       		.byte	0
 8147 1d35 00       		.byte	0
 8148 1d36 41       		.uleb128 0x41
 8149 1d37 EB1D0000 		.4byte	0x1deb
 8150 1d3b 1E1A0000 		.4byte	.LLST209
 8151 1d3f 36       		.uleb128 0x36
 8152 1d40 12020000 		.4byte	.LBB417
 8153 1d44 1A000000 		.4byte	.LBE417-.LBB417
 8154 1d48 40       		.uleb128 0x40
 8155 1d49 35030000 		.4byte	.LASF61
 8156 1d4d 01       		.byte	0x1
 8157 1d4e 4A01     		.2byte	0x14a
 8158 1d50 89000000 		.4byte	0x89
 8159 1d54 5A1D0000 		.4byte	0x1d5a
 8160 1d58 31       		.uleb128 0x31
 8161 1d59 00       		.byte	0
 8162 1d5a 12       		.uleb128 0x12
 8163 1d5b 1E020000 		.4byte	.LVL357
 8164 1d5f AD3B0000 		.4byte	0x3bad
 8165 1d63 821D0000 		.4byte	0x1d82
 8166 1d67 13       		.uleb128 0x13
 8167 1d68 01       		.uleb128 0x1
 8168 1d69 50       		.byte	0x50
 8169 1d6a 02       		.uleb128 0x2
ARM GAS  C:\Users\legoc\AppData\Local\Temp\ccOlrioX.s 			page 160


 8170 1d6b 08       		.byte	0x8
 8171 1d6c E6       		.byte	0xe6
 8172 1d6d 13       		.uleb128 0x13
 8173 1d6e 01       		.uleb128 0x1
 8174 1d6f 51       		.byte	0x51
 8175 1d70 01       		.uleb128 0x1
 8176 1d71 34       		.byte	0x34
 8177 1d72 13       		.uleb128 0x13
 8178 1d73 01       		.uleb128 0x1
 8179 1d74 52       		.byte	0x52
 8180 1d75 02       		.uleb128 0x2
 8181 1d76 74       		.byte	0x74
 8182 1d77 00       		.sleb128 0
 8183 1d78 13       		.uleb128 0x13
 8184 1d79 01       		.uleb128 0x1
 8185 1d7a 53       		.byte	0x53
 8186 1d7b 05       		.uleb128 0x5
 8187 1d7c 03       		.byte	0x3
 8188 1d7d 14000000 		.4byte	.LC2
 8189 1d81 00       		.byte	0
 8190 1d82 26       		.uleb128 0x26
 8191 1d83 2A020000 		.4byte	.LVL358
 8192 1d87 AD3B0000 		.4byte	0x3bad
 8193 1d8b 13       		.uleb128 0x13
 8194 1d8c 01       		.uleb128 0x1
 8195 1d8d 50       		.byte	0x50
 8196 1d8e 01       		.uleb128 0x1
 8197 1d8f 33       		.byte	0x33
 8198 1d90 13       		.uleb128 0x13
 8199 1d91 01       		.uleb128 0x1
 8200 1d92 51       		.byte	0x51
 8201 1d93 02       		.uleb128 0x2
 8202 1d94 08       		.byte	0x8
 8203 1d95 D9       		.byte	0xd9
 8204 1d96 13       		.uleb128 0x13
 8205 1d97 01       		.uleb128 0x1
 8206 1d98 52       		.byte	0x52
 8207 1d99 02       		.uleb128 0x2
 8208 1d9a 74       		.byte	0x74
 8209 1d9b 00       		.sleb128 0
 8210 1d9c 13       		.uleb128 0x13
 8211 1d9d 01       		.uleb128 0x1
 8212 1d9e 53       		.byte	0x53
 8213 1d9f 05       		.uleb128 0x5
 8214 1da0 03       		.byte	0x3
 8215 1da1 1C000000 		.4byte	.LC3
 8216 1da5 00       		.byte	0
 8217 1da6 00       		.byte	0
 8218 1da7 00       		.byte	0
 8219 1da8 32       		.uleb128 0x32
 8220 1da9 D1000000 		.4byte	0xd1
 8221 1dad B81D0000 		.4byte	0x1db8
 8222 1db1 42       		.uleb128 0x42
 8223 1db2 DF000000 		.4byte	0xdf
 8224 1db6 09       		.byte	0x9
 8225 1db7 00       		.byte	0
 8226 1db8 32       		.uleb128 0x32
ARM GAS  C:\Users\legoc\AppData\Local\Temp\ccOlrioX.s 			page 161


 8227 1db9 D1000000 		.4byte	0xd1
 8228 1dbd C81D0000 		.4byte	0x1dc8
 8229 1dc1 42       		.uleb128 0x42
 8230 1dc2 DF000000 		.4byte	0xdf
 8231 1dc6 03       		.byte	0x3
 8232 1dc7 00       		.byte	0
 8233 1dc8 32       		.uleb128 0x32
 8234 1dc9 D1000000 		.4byte	0xd1
 8235 1dcd D81D0000 		.4byte	0x1dd8
 8236 1dd1 42       		.uleb128 0x42
 8237 1dd2 DF000000 		.4byte	0xdf
 8238 1dd6 04       		.byte	0x4
 8239 1dd7 00       		.byte	0
 8240 1dd8 32       		.uleb128 0x32
 8241 1dd9 D1000000 		.4byte	0xd1
 8242 1ddd EB1D0000 		.4byte	0x1deb
 8243 1de1 43       		.uleb128 0x43
 8244 1de2 DF000000 		.4byte	0xdf
 8245 1de6 361D0000 		.4byte	0x1d36
 8246 1dea 00       		.byte	0
 8247 1deb 27       		.uleb128 0x27
 8248 1dec DF000000 		.4byte	0xdf
 8249 1df0 44       		.uleb128 0x44
 8250 1df1 00000000 		.4byte	.LASF63
 8251 1df5 01       		.byte	0x1
 8252 1df6 8901     		.2byte	0x189
 8253 1df8 00000000 		.4byte	.LFB16
 8254 1dfc 9C040000 		.4byte	.LFE16-.LFB16
 8255 1e00 01       		.uleb128 0x1
 8256 1e01 9C       		.byte	0x9c
 8257 1e02 762F0000 		.4byte	0x2f76
 8258 1e06 2D       		.uleb128 0x2d
 8259 1e07 3C010000 		.4byte	0x13c
 8260 1e0b 02000000 		.4byte	.LBB484
 8261 1e0f 60030000 		.4byte	.Ldebug_ranges0+0x360
 8262 1e13 01       		.byte	0x1
 8263 1e14 8B01     		.2byte	0x18b
 8264 1e16 731F0000 		.4byte	0x1f73
 8265 1e1a 11       		.uleb128 0x11
 8266 1e1b 6C010000 		.4byte	0x16c
 8267 1e1f 401A0000 		.4byte	.LLST229
 8268 1e23 11       		.uleb128 0x11
 8269 1e24 63010000 		.4byte	0x163
 8270 1e28 541A0000 		.4byte	.LLST230
 8271 1e2c 11       		.uleb128 0x11
 8272 1e2d 5A010000 		.4byte	0x15a
 8273 1e31 691A0000 		.4byte	.LLST231
 8274 1e35 11       		.uleb128 0x11
 8275 1e36 51010000 		.4byte	0x151
 8276 1e3a 7E1A0000 		.4byte	.LLST232
 8277 1e3e 11       		.uleb128 0x11
 8278 1e3f 48010000 		.4byte	0x148
 8279 1e43 7E1A0000 		.4byte	.LLST232
 8280 1e47 1F       		.uleb128 0x1f
 8281 1e48 EC000000 		.4byte	0xec
 8282 1e4c 02000000 		.4byte	.LBB485
 8283 1e50 60030000 		.4byte	.Ldebug_ranges0+0x360
ARM GAS  C:\Users\legoc\AppData\Local\Temp\ccOlrioX.s 			page 162


 8284 1e54 01       		.byte	0x1
 8285 1e55 95       		.byte	0x95
 8286 1e56 11       		.uleb128 0x11
 8287 1e57 1C010000 		.4byte	0x11c
 8288 1e5b 401A0000 		.4byte	.LLST229
 8289 1e5f 11       		.uleb128 0x11
 8290 1e60 13010000 		.4byte	0x113
 8291 1e64 691A0000 		.4byte	.LLST231
 8292 1e68 11       		.uleb128 0x11
 8293 1e69 0A010000 		.4byte	0x10a
 8294 1e6d 541A0000 		.4byte	.LLST230
 8295 1e71 11       		.uleb128 0x11
 8296 1e72 01010000 		.4byte	0x101
 8297 1e76 691A0000 		.4byte	.LLST231
 8298 1e7a 11       		.uleb128 0x11
 8299 1e7b F8000000 		.4byte	0xf8
 8300 1e7f 7E1A0000 		.4byte	.LLST232
 8301 1e83 1C       		.uleb128 0x1c
 8302 1e84 60030000 		.4byte	.Ldebug_ranges0+0x360
 8303 1e88 1B       		.uleb128 0x1b
 8304 1e89 27010000 		.4byte	0x127
 8305 1e8d 1B       		.uleb128 0x1b
 8306 1e8e 31010000 		.4byte	0x131
 8307 1e92 1C       		.uleb128 0x1c
 8308 1e93 60030000 		.4byte	.Ldebug_ranges0+0x360
 8309 1e97 11       		.uleb128 0x11
 8310 1e98 1C010000 		.4byte	0x11c
 8311 1e9c 401A0000 		.4byte	.LLST229
 8312 1ea0 11       		.uleb128 0x11
 8313 1ea1 13010000 		.4byte	0x113
 8314 1ea5 691A0000 		.4byte	.LLST231
 8315 1ea9 11       		.uleb128 0x11
 8316 1eaa 0A010000 		.4byte	0x10a
 8317 1eae 541A0000 		.4byte	.LLST230
 8318 1eb2 11       		.uleb128 0x11
 8319 1eb3 01010000 		.4byte	0x101
 8320 1eb7 921A0000 		.4byte	.LLST242
 8321 1ebb 11       		.uleb128 0x11
 8322 1ebc F8000000 		.4byte	0xf8
 8323 1ec0 A71A0000 		.4byte	.LLST243
 8324 1ec4 1C       		.uleb128 0x1c
 8325 1ec5 60030000 		.4byte	.Ldebug_ranges0+0x360
 8326 1ec9 1D       		.uleb128 0x1d
 8327 1eca 27010000 		.4byte	0x127
 8328 1ece C81A0000 		.4byte	.LLST244
 8329 1ed2 1D       		.uleb128 0x1d
 8330 1ed3 31010000 		.4byte	0x131
 8331 1ed7 DC1A0000 		.4byte	.LLST245
 8332 1edb 12       		.uleb128 0x12
 8333 1edc 10000000 		.4byte	.LVL362
 8334 1ee0 92030000 		.4byte	0x392
 8335 1ee4 001F0000 		.4byte	0x1f00
 8336 1ee8 13       		.uleb128 0x13
 8337 1ee9 01       		.uleb128 0x1
 8338 1eea 50       		.byte	0x50
 8339 1eeb 01       		.uleb128 0x1
 8340 1eec 30       		.byte	0x30
ARM GAS  C:\Users\legoc\AppData\Local\Temp\ccOlrioX.s 			page 163


 8341 1eed 13       		.uleb128 0x13
 8342 1eee 01       		.uleb128 0x1
 8343 1eef 51       		.byte	0x51
 8344 1ef0 02       		.uleb128 0x2
 8345 1ef1 08       		.byte	0x8
 8346 1ef2 A0       		.byte	0xa0
 8347 1ef3 13       		.uleb128 0x13
 8348 1ef4 01       		.uleb128 0x1
 8349 1ef5 52       		.byte	0x52
 8350 1ef6 02       		.uleb128 0x2
 8351 1ef7 08       		.byte	0x8
 8352 1ef8 F0       		.byte	0xf0
 8353 1ef9 13       		.uleb128 0x13
 8354 1efa 01       		.uleb128 0x1
 8355 1efb 53       		.byte	0x53
 8356 1efc 02       		.uleb128 0x2
 8357 1efd 08       		.byte	0x8
 8358 1efe A0       		.byte	0xa0
 8359 1eff 00       		.byte	0
 8360 1f00 12       		.uleb128 0x12
 8361 1f01 16000000 		.4byte	.LVL363
 8362 1f05 763B0000 		.4byte	0x3b76
 8363 1f09 131F0000 		.4byte	0x1f13
 8364 1f0d 13       		.uleb128 0x13
 8365 1f0e 01       		.uleb128 0x1
 8366 1f0f 50       		.byte	0x50
 8367 1f10 01       		.uleb128 0x1
 8368 1f11 31       		.byte	0x31
 8369 1f12 00       		.byte	0
 8370 1f13 12       		.uleb128 0x12
 8371 1f14 1C000000 		.4byte	.LVL364
 8372 1f18 973B0000 		.4byte	0x3b97
 8373 1f1c 261F0000 		.4byte	0x1f26
 8374 1f20 13       		.uleb128 0x13
 8375 1f21 01       		.uleb128 0x1
 8376 1f22 50       		.byte	0x50
 8377 1f23 01       		.uleb128 0x1
 8378 1f24 30       		.byte	0x30
 8379 1f25 00       		.byte	0
 8380 1f26 12       		.uleb128 0x12
 8381 1f27 26000000 		.4byte	.LVL367
 8382 1f2b 813B0000 		.4byte	0x3b81
 8383 1f2f 391F0000 		.4byte	0x1f39
 8384 1f33 13       		.uleb128 0x13
 8385 1f34 01       		.uleb128 0x1
 8386 1f35 50       		.byte	0x50
 8387 1f36 01       		.uleb128 0x1
 8388 1f37 30       		.byte	0x30
 8389 1f38 00       		.byte	0
 8390 1f39 14       		.uleb128 0x14
 8391 1f3a 2A000000 		.4byte	.LVL368
 8392 1f3e 8C3B0000 		.4byte	0x3b8c
 8393 1f42 12       		.uleb128 0x12
 8394 1f43 34000000 		.4byte	.LVL369
 8395 1f47 813B0000 		.4byte	0x3b81
 8396 1f4b 551F0000 		.4byte	0x1f55
 8397 1f4f 13       		.uleb128 0x13
ARM GAS  C:\Users\legoc\AppData\Local\Temp\ccOlrioX.s 			page 164


 8398 1f50 01       		.uleb128 0x1
 8399 1f51 50       		.byte	0x50
 8400 1f52 01       		.uleb128 0x1
 8401 1f53 4F       		.byte	0x4f
 8402 1f54 00       		.byte	0
 8403 1f55 14       		.uleb128 0x14
 8404 1f56 38000000 		.4byte	.LVL370
 8405 1f5a 8C3B0000 		.4byte	0x3b8c
 8406 1f5e 26       		.uleb128 0x26
 8407 1f5f 52000000 		.4byte	.LVL371
 8408 1f63 973B0000 		.4byte	0x3b97
 8409 1f67 13       		.uleb128 0x13
 8410 1f68 01       		.uleb128 0x1
 8411 1f69 50       		.byte	0x50
 8412 1f6a 02       		.uleb128 0x2
 8413 1f6b 74       		.byte	0x74
 8414 1f6c 00       		.sleb128 0
 8415 1f6d 00       		.byte	0
 8416 1f6e 00       		.byte	0
 8417 1f6f 00       		.byte	0
 8418 1f70 00       		.byte	0
 8419 1f71 00       		.byte	0
 8420 1f72 00       		.byte	0
 8421 1f73 2D       		.uleb128 0x2d
 8422 1f74 3C010000 		.4byte	0x13c
 8423 1f78 52000000 		.4byte	.LBB503
 8424 1f7c 88030000 		.4byte	.Ldebug_ranges0+0x388
 8425 1f80 01       		.byte	0x1
 8426 1f81 8C01     		.2byte	0x18c
 8427 1f83 E4200000 		.4byte	0x20e4
 8428 1f87 11       		.uleb128 0x11
 8429 1f88 6C010000 		.4byte	0x16c
 8430 1f8c F01A0000 		.4byte	.LLST246
 8431 1f90 11       		.uleb128 0x11
 8432 1f91 63010000 		.4byte	0x163
 8433 1f95 061B0000 		.4byte	.LLST247
 8434 1f99 11       		.uleb128 0x11
 8435 1f9a 5A010000 		.4byte	0x15a
 8436 1f9e 1B1B0000 		.4byte	.LLST248
 8437 1fa2 11       		.uleb128 0x11
 8438 1fa3 51010000 		.4byte	0x151
 8439 1fa7 301B0000 		.4byte	.LLST249
 8440 1fab 11       		.uleb128 0x11
 8441 1fac 48010000 		.4byte	0x148
 8442 1fb0 1B1B0000 		.4byte	.LLST248
 8443 1fb4 1F       		.uleb128 0x1f
 8444 1fb5 EC000000 		.4byte	0xec
 8445 1fb9 52000000 		.4byte	.LBB504
 8446 1fbd 88030000 		.4byte	.Ldebug_ranges0+0x388
 8447 1fc1 01       		.byte	0x1
 8448 1fc2 95       		.byte	0x95
 8449 1fc3 11       		.uleb128 0x11
 8450 1fc4 1C010000 		.4byte	0x11c
 8451 1fc8 F01A0000 		.4byte	.LLST246
 8452 1fcc 11       		.uleb128 0x11
 8453 1fcd 13010000 		.4byte	0x113
 8454 1fd1 1B1B0000 		.4byte	.LLST248
ARM GAS  C:\Users\legoc\AppData\Local\Temp\ccOlrioX.s 			page 165


 8455 1fd5 11       		.uleb128 0x11
 8456 1fd6 0A010000 		.4byte	0x10a
 8457 1fda 061B0000 		.4byte	.LLST247
 8458 1fde 11       		.uleb128 0x11
 8459 1fdf 01010000 		.4byte	0x101
 8460 1fe3 301B0000 		.4byte	.LLST249
 8461 1fe7 11       		.uleb128 0x11
 8462 1fe8 F8000000 		.4byte	0xf8
 8463 1fec 301B0000 		.4byte	.LLST249
 8464 1ff0 1C       		.uleb128 0x1c
 8465 1ff1 88030000 		.4byte	.Ldebug_ranges0+0x388
 8466 1ff5 1B       		.uleb128 0x1b
 8467 1ff6 27010000 		.4byte	0x127
 8468 1ffa 1B       		.uleb128 0x1b
 8469 1ffb 31010000 		.4byte	0x131
 8470 1fff 1C       		.uleb128 0x1c
 8471 2000 88030000 		.4byte	.Ldebug_ranges0+0x388
 8472 2004 11       		.uleb128 0x11
 8473 2005 1C010000 		.4byte	0x11c
 8474 2009 F01A0000 		.4byte	.LLST246
 8475 200d 11       		.uleb128 0x11
 8476 200e 13010000 		.4byte	0x113
 8477 2012 1B1B0000 		.4byte	.LLST248
 8478 2016 11       		.uleb128 0x11
 8479 2017 0A010000 		.4byte	0x10a
 8480 201b 061B0000 		.4byte	.LLST247
 8481 201f 11       		.uleb128 0x11
 8482 2020 01010000 		.4byte	0x101
 8483 2024 441B0000 		.4byte	.LLST259
 8484 2028 11       		.uleb128 0x11
 8485 2029 F8000000 		.4byte	0xf8
 8486 202d 651B0000 		.4byte	.LLST260
 8487 2031 1C       		.uleb128 0x1c
 8488 2032 88030000 		.4byte	.Ldebug_ranges0+0x388
 8489 2036 1D       		.uleb128 0x1d
 8490 2037 27010000 		.4byte	0x127
 8491 203b 861B0000 		.4byte	.LLST261
 8492 203f 1D       		.uleb128 0x1d
 8493 2040 31010000 		.4byte	0x131
 8494 2044 9B1B0000 		.4byte	.LLST262
 8495 2048 12       		.uleb128 0x12
 8496 2049 5E000000 		.4byte	.LVL372
 8497 204d 92030000 		.4byte	0x392
 8498 2051 6E200000 		.4byte	0x206e
 8499 2055 13       		.uleb128 0x13
 8500 2056 01       		.uleb128 0x1
 8501 2057 50       		.byte	0x50
 8502 2058 02       		.uleb128 0x2
 8503 2059 76       		.byte	0x76
 8504 205a 00       		.sleb128 0
 8505 205b 13       		.uleb128 0x13
 8506 205c 01       		.uleb128 0x1
 8507 205d 51       		.byte	0x51
 8508 205e 02       		.uleb128 0x2
 8509 205f 76       		.byte	0x76
 8510 2060 00       		.sleb128 0
 8511 2061 13       		.uleb128 0x13
ARM GAS  C:\Users\legoc\AppData\Local\Temp\ccOlrioX.s 			page 166


 8512 2062 01       		.uleb128 0x1
 8513 2063 52       		.byte	0x52
 8514 2064 02       		.uleb128 0x2
 8515 2065 08       		.byte	0x8
 8516 2066 F0       		.byte	0xf0
 8517 2067 13       		.uleb128 0x13
 8518 2068 01       		.uleb128 0x1
 8519 2069 53       		.byte	0x53
 8520 206a 02       		.uleb128 0x2
 8521 206b 08       		.byte	0x8
 8522 206c A0       		.byte	0xa0
 8523 206d 00       		.byte	0
 8524 206e 12       		.uleb128 0x12
 8525 206f 64000000 		.4byte	.LVL373
 8526 2073 763B0000 		.4byte	0x3b76
 8527 2077 82200000 		.4byte	0x2082
 8528 207b 13       		.uleb128 0x13
 8529 207c 01       		.uleb128 0x1
 8530 207d 50       		.byte	0x50
 8531 207e 02       		.uleb128 0x2
 8532 207f 74       		.byte	0x74
 8533 2080 00       		.sleb128 0
 8534 2081 00       		.byte	0
 8535 2082 12       		.uleb128 0x12
 8536 2083 6A000000 		.4byte	.LVL374
 8537 2087 973B0000 		.4byte	0x3b97
 8538 208b 96200000 		.4byte	0x2096
 8539 208f 13       		.uleb128 0x13
 8540 2090 01       		.uleb128 0x1
 8541 2091 50       		.byte	0x50
 8542 2092 02       		.uleb128 0x2
 8543 2093 76       		.byte	0x76
 8544 2094 00       		.sleb128 0
 8545 2095 00       		.byte	0
 8546 2096 12       		.uleb128 0x12
 8547 2097 74000000 		.4byte	.LVL377
 8548 209b 813B0000 		.4byte	0x3b81
 8549 209f AA200000 		.4byte	0x20aa
 8550 20a3 13       		.uleb128 0x13
 8551 20a4 01       		.uleb128 0x1
 8552 20a5 50       		.byte	0x50
 8553 20a6 02       		.uleb128 0x2
 8554 20a7 09       		.byte	0x9
 8555 20a8 F8       		.byte	0xf8
 8556 20a9 00       		.byte	0
 8557 20aa 14       		.uleb128 0x14
 8558 20ab 78000000 		.4byte	.LVL378
 8559 20af 8C3B0000 		.4byte	0x3b8c
 8560 20b3 12       		.uleb128 0x12
 8561 20b4 82000000 		.4byte	.LVL379
 8562 20b8 813B0000 		.4byte	0x3b81
 8563 20bc C6200000 		.4byte	0x20c6
 8564 20c0 13       		.uleb128 0x13
 8565 20c1 01       		.uleb128 0x1
 8566 20c2 50       		.byte	0x50
 8567 20c3 01       		.uleb128 0x1
 8568 20c4 30       		.byte	0x30
ARM GAS  C:\Users\legoc\AppData\Local\Temp\ccOlrioX.s 			page 167


 8569 20c5 00       		.byte	0
 8570 20c6 14       		.uleb128 0x14
 8571 20c7 86000000 		.4byte	.LVL380
 8572 20cb 8C3B0000 		.4byte	0x3b8c
 8573 20cf 26       		.uleb128 0x26
 8574 20d0 A0000000 		.4byte	.LVL381
 8575 20d4 973B0000 		.4byte	0x3b97
 8576 20d8 13       		.uleb128 0x13
 8577 20d9 01       		.uleb128 0x1
 8578 20da 50       		.byte	0x50
 8579 20db 02       		.uleb128 0x2
 8580 20dc 74       		.byte	0x74
 8581 20dd 00       		.sleb128 0
 8582 20de 00       		.byte	0
 8583 20df 00       		.byte	0
 8584 20e0 00       		.byte	0
 8585 20e1 00       		.byte	0
 8586 20e2 00       		.byte	0
 8587 20e3 00       		.byte	0
 8588 20e4 2D       		.uleb128 0x2d
 8589 20e5 3C010000 		.4byte	0x13c
 8590 20e9 A0000000 		.4byte	.LBB518
 8591 20ed A8030000 		.4byte	.Ldebug_ranges0+0x3a8
 8592 20f1 01       		.byte	0x1
 8593 20f2 8E01     		.2byte	0x18e
 8594 20f4 53220000 		.4byte	0x2253
 8595 20f8 11       		.uleb128 0x11
 8596 20f9 6C010000 		.4byte	0x16c
 8597 20fd AF1B0000 		.4byte	.LLST263
 8598 2101 11       		.uleb128 0x11
 8599 2102 63010000 		.4byte	0x163
 8600 2106 C31B0000 		.4byte	.LLST264
 8601 210a 11       		.uleb128 0x11
 8602 210b 5A010000 		.4byte	0x15a
 8603 210f D81B0000 		.4byte	.LLST265
 8604 2113 11       		.uleb128 0x11
 8605 2114 51010000 		.4byte	0x151
 8606 2118 AF1B0000 		.4byte	.LLST263
 8607 211c 11       		.uleb128 0x11
 8608 211d 48010000 		.4byte	0x148
 8609 2121 EC1B0000 		.4byte	.LLST267
 8610 2125 1F       		.uleb128 0x1f
 8611 2126 EC000000 		.4byte	0xec
 8612 212a A0000000 		.4byte	.LBB519
 8613 212e A8030000 		.4byte	.Ldebug_ranges0+0x3a8
 8614 2132 01       		.byte	0x1
 8615 2133 95       		.byte	0x95
 8616 2134 11       		.uleb128 0x11
 8617 2135 1C010000 		.4byte	0x11c
 8618 2139 AF1B0000 		.4byte	.LLST263
 8619 213d 11       		.uleb128 0x11
 8620 213e 13010000 		.4byte	0x113
 8621 2142 D81B0000 		.4byte	.LLST265
 8622 2146 11       		.uleb128 0x11
 8623 2147 0A010000 		.4byte	0x10a
 8624 214b C31B0000 		.4byte	.LLST264
 8625 214f 11       		.uleb128 0x11
ARM GAS  C:\Users\legoc\AppData\Local\Temp\ccOlrioX.s 			page 168


 8626 2150 01010000 		.4byte	0x101
 8627 2154 EC1B0000 		.4byte	.LLST267
 8628 2158 11       		.uleb128 0x11
 8629 2159 F8000000 		.4byte	0xf8
 8630 215d AF1B0000 		.4byte	.LLST263
 8631 2161 1C       		.uleb128 0x1c
 8632 2162 A8030000 		.4byte	.Ldebug_ranges0+0x3a8
 8633 2166 1B       		.uleb128 0x1b
 8634 2167 27010000 		.4byte	0x127
 8635 216b 1B       		.uleb128 0x1b
 8636 216c 31010000 		.4byte	0x131
 8637 2170 1C       		.uleb128 0x1c
 8638 2171 A8030000 		.4byte	.Ldebug_ranges0+0x3a8
 8639 2175 11       		.uleb128 0x11
 8640 2176 1C010000 		.4byte	0x11c
 8641 217a AF1B0000 		.4byte	.LLST263
 8642 217e 11       		.uleb128 0x11
 8643 217f 13010000 		.4byte	0x113
 8644 2183 D81B0000 		.4byte	.LLST265
 8645 2187 11       		.uleb128 0x11
 8646 2188 0A010000 		.4byte	0x10a
 8647 218c C31B0000 		.4byte	.LLST264
 8648 2190 11       		.uleb128 0x11
 8649 2191 01010000 		.4byte	0x101
 8650 2195 011C0000 		.4byte	.LLST276
 8651 2199 11       		.uleb128 0x11
 8652 219a F8000000 		.4byte	0xf8
 8653 219e 221C0000 		.4byte	.LLST277
 8654 21a2 1C       		.uleb128 0x1c
 8655 21a3 A8030000 		.4byte	.Ldebug_ranges0+0x3a8
 8656 21a7 1D       		.uleb128 0x1d
 8657 21a8 27010000 		.4byte	0x127
 8658 21ac 431C0000 		.4byte	.LLST278
 8659 21b0 1D       		.uleb128 0x1d
 8660 21b1 31010000 		.4byte	0x131
 8661 21b5 431C0000 		.4byte	.LLST278
 8662 21b9 12       		.uleb128 0x12
 8663 21ba AC000000 		.4byte	.LVL382
 8664 21be 92030000 		.4byte	0x392
 8665 21c2 DE210000 		.4byte	0x21de
 8666 21c6 13       		.uleb128 0x13
 8667 21c7 01       		.uleb128 0x1
 8668 21c8 50       		.byte	0x50
 8669 21c9 02       		.uleb128 0x2
 8670 21ca 76       		.byte	0x76
 8671 21cb 00       		.sleb128 0
 8672 21cc 13       		.uleb128 0x13
 8673 21cd 01       		.uleb128 0x1
 8674 21ce 51       		.byte	0x51
 8675 21cf 02       		.uleb128 0x2
 8676 21d0 08       		.byte	0x8
 8677 21d1 9F       		.byte	0x9f
 8678 21d2 13       		.uleb128 0x13
 8679 21d3 01       		.uleb128 0x1
 8680 21d4 52       		.byte	0x52
 8681 21d5 02       		.uleb128 0x2
 8682 21d6 08       		.byte	0x8
ARM GAS  C:\Users\legoc\AppData\Local\Temp\ccOlrioX.s 			page 169


 8683 21d7 F0       		.byte	0xf0
 8684 21d8 13       		.uleb128 0x13
 8685 21d9 01       		.uleb128 0x1
 8686 21da 53       		.byte	0x53
 8687 21db 01       		.uleb128 0x1
 8688 21dc 32       		.byte	0x32
 8689 21dd 00       		.byte	0
 8690 21de 12       		.uleb128 0x12
 8691 21df B2000000 		.4byte	.LVL383
 8692 21e3 763B0000 		.4byte	0x3b76
 8693 21e7 F2210000 		.4byte	0x21f2
 8694 21eb 13       		.uleb128 0x13
 8695 21ec 01       		.uleb128 0x1
 8696 21ed 50       		.byte	0x50
 8697 21ee 02       		.uleb128 0x2
 8698 21ef 74       		.byte	0x74
 8699 21f0 00       		.sleb128 0
 8700 21f1 00       		.byte	0
 8701 21f2 12       		.uleb128 0x12
 8702 21f3 B8000000 		.4byte	.LVL384
 8703 21f7 973B0000 		.4byte	0x3b97
 8704 21fb 06220000 		.4byte	0x2206
 8705 21ff 13       		.uleb128 0x13
 8706 2200 01       		.uleb128 0x1
 8707 2201 50       		.byte	0x50
 8708 2202 02       		.uleb128 0x2
 8709 2203 76       		.byte	0x76
 8710 2204 00       		.sleb128 0
 8711 2205 00       		.byte	0
 8712 2206 12       		.uleb128 0x12
 8713 2207 C2000000 		.4byte	.LVL387
 8714 220b 813B0000 		.4byte	0x3b81
 8715 220f 19220000 		.4byte	0x2219
 8716 2213 13       		.uleb128 0x13
 8717 2214 01       		.uleb128 0x1
 8718 2215 50       		.byte	0x50
 8719 2216 01       		.uleb128 0x1
 8720 2217 30       		.byte	0x30
 8721 2218 00       		.byte	0
 8722 2219 14       		.uleb128 0x14
 8723 221a C6000000 		.4byte	.LVL388
 8724 221e 8C3B0000 		.4byte	0x3b8c
 8725 2222 12       		.uleb128 0x12
 8726 2223 D0000000 		.4byte	.LVL389
 8727 2227 813B0000 		.4byte	0x3b81
 8728 222b 35220000 		.4byte	0x2235
 8729 222f 13       		.uleb128 0x13
 8730 2230 01       		.uleb128 0x1
 8731 2231 50       		.byte	0x50
 8732 2232 01       		.uleb128 0x1
 8733 2233 30       		.byte	0x30
 8734 2234 00       		.byte	0
 8735 2235 14       		.uleb128 0x14
 8736 2236 D4000000 		.4byte	.LVL390
 8737 223a 8C3B0000 		.4byte	0x3b8c
 8738 223e 26       		.uleb128 0x26
 8739 223f EE000000 		.4byte	.LVL391
ARM GAS  C:\Users\legoc\AppData\Local\Temp\ccOlrioX.s 			page 170


 8740 2243 973B0000 		.4byte	0x3b97
 8741 2247 13       		.uleb128 0x13
 8742 2248 01       		.uleb128 0x1
 8743 2249 50       		.byte	0x50
 8744 224a 02       		.uleb128 0x2
 8745 224b 74       		.byte	0x74
 8746 224c 00       		.sleb128 0
 8747 224d 00       		.byte	0
 8748 224e 00       		.byte	0
 8749 224f 00       		.byte	0
 8750 2250 00       		.byte	0
 8751 2251 00       		.byte	0
 8752 2252 00       		.byte	0
 8753 2253 2D       		.uleb128 0x2d
 8754 2254 3C010000 		.4byte	0x13c
 8755 2258 EE000000 		.4byte	.LBB533
 8756 225c C8030000 		.4byte	.Ldebug_ranges0+0x3c8
 8757 2260 01       		.byte	0x1
 8758 2261 8F01     		.2byte	0x18f
 8759 2263 C3230000 		.4byte	0x23c3
 8760 2267 11       		.uleb128 0x11
 8761 2268 6C010000 		.4byte	0x16c
 8762 226c 571C0000 		.4byte	.LLST280
 8763 2270 11       		.uleb128 0x11
 8764 2271 63010000 		.4byte	0x163
 8765 2275 6B1C0000 		.4byte	.LLST281
 8766 2279 11       		.uleb128 0x11
 8767 227a 5A010000 		.4byte	0x15a
 8768 227e 7F1C0000 		.4byte	.LLST282
 8769 2282 11       		.uleb128 0x11
 8770 2283 51010000 		.4byte	0x151
 8771 2287 951C0000 		.4byte	.LLST283
 8772 228b 11       		.uleb128 0x11
 8773 228c 48010000 		.4byte	0x148
 8774 2290 571C0000 		.4byte	.LLST280
 8775 2294 1F       		.uleb128 0x1f
 8776 2295 EC000000 		.4byte	0xec
 8777 2299 EE000000 		.4byte	.LBB534
 8778 229d C8030000 		.4byte	.Ldebug_ranges0+0x3c8
 8779 22a1 01       		.byte	0x1
 8780 22a2 95       		.byte	0x95
 8781 22a3 11       		.uleb128 0x11
 8782 22a4 1C010000 		.4byte	0x11c
 8783 22a8 571C0000 		.4byte	.LLST280
 8784 22ac 11       		.uleb128 0x11
 8785 22ad 13010000 		.4byte	0x113
 8786 22b1 7F1C0000 		.4byte	.LLST282
 8787 22b5 11       		.uleb128 0x11
 8788 22b6 0A010000 		.4byte	0x10a
 8789 22ba 6B1C0000 		.4byte	.LLST281
 8790 22be 11       		.uleb128 0x11
 8791 22bf 01010000 		.4byte	0x101
 8792 22c3 571C0000 		.4byte	.LLST280
 8793 22c7 11       		.uleb128 0x11
 8794 22c8 F8000000 		.4byte	0xf8
 8795 22cc 951C0000 		.4byte	.LLST283
 8796 22d0 1C       		.uleb128 0x1c
ARM GAS  C:\Users\legoc\AppData\Local\Temp\ccOlrioX.s 			page 171


 8797 22d1 C8030000 		.4byte	.Ldebug_ranges0+0x3c8
 8798 22d5 1B       		.uleb128 0x1b
 8799 22d6 27010000 		.4byte	0x127
 8800 22da 1B       		.uleb128 0x1b
 8801 22db 31010000 		.4byte	0x131
 8802 22df 1C       		.uleb128 0x1c
 8803 22e0 C8030000 		.4byte	.Ldebug_ranges0+0x3c8
 8804 22e4 11       		.uleb128 0x11
 8805 22e5 1C010000 		.4byte	0x11c
 8806 22e9 571C0000 		.4byte	.LLST280
 8807 22ed 11       		.uleb128 0x11
 8808 22ee 13010000 		.4byte	0x113
 8809 22f2 7F1C0000 		.4byte	.LLST282
 8810 22f6 11       		.uleb128 0x11
 8811 22f7 0A010000 		.4byte	0x10a
 8812 22fb 6B1C0000 		.4byte	.LLST281
 8813 22ff 11       		.uleb128 0x11
 8814 2300 01010000 		.4byte	0x101
 8815 2304 AA1C0000 		.4byte	.LLST293
 8816 2308 11       		.uleb128 0x11
 8817 2309 F8000000 		.4byte	0xf8
 8818 230d CC1C0000 		.4byte	.LLST294
 8819 2311 1C       		.uleb128 0x1c
 8820 2312 C8030000 		.4byte	.Ldebug_ranges0+0x3c8
 8821 2316 1D       		.uleb128 0x1d
 8822 2317 27010000 		.4byte	0x127
 8823 231b ED1C0000 		.4byte	.LLST295
 8824 231f 1D       		.uleb128 0x1d
 8825 2320 31010000 		.4byte	0x131
 8826 2324 ED1C0000 		.4byte	.LLST295
 8827 2328 12       		.uleb128 0x12
 8828 2329 FC000000 		.4byte	.LVL392
 8829 232d 92030000 		.4byte	0x392
 8830 2331 4E230000 		.4byte	0x234e
 8831 2335 13       		.uleb128 0x13
 8832 2336 01       		.uleb128 0x1
 8833 2337 50       		.byte	0x50
 8834 2338 02       		.uleb128 0x2
 8835 2339 08       		.byte	0x8
 8836 233a 77       		.byte	0x77
 8837 233b 13       		.uleb128 0x13
 8838 233c 01       		.uleb128 0x1
 8839 233d 51       		.byte	0x51
 8840 233e 02       		.uleb128 0x2
 8841 233f 76       		.byte	0x76
 8842 2340 00       		.sleb128 0
 8843 2341 13       		.uleb128 0x13
 8844 2342 01       		.uleb128 0x1
 8845 2343 52       		.byte	0x52
 8846 2344 01       		.uleb128 0x1
 8847 2345 32       		.byte	0x32
 8848 2346 13       		.uleb128 0x13
 8849 2347 01       		.uleb128 0x1
 8850 2348 53       		.byte	0x53
 8851 2349 03       		.uleb128 0x3
 8852 234a 0A       		.byte	0xa
 8853 234b 4001     		.2byte	0x140
ARM GAS  C:\Users\legoc\AppData\Local\Temp\ccOlrioX.s 			page 172


 8854 234d 00       		.byte	0
 8855 234e 12       		.uleb128 0x12
 8856 234f 02010000 		.4byte	.LVL393
 8857 2353 763B0000 		.4byte	0x3b76
 8858 2357 62230000 		.4byte	0x2362
 8859 235b 13       		.uleb128 0x13
 8860 235c 01       		.uleb128 0x1
 8861 235d 50       		.byte	0x50
 8862 235e 02       		.uleb128 0x2
 8863 235f 74       		.byte	0x74
 8864 2360 00       		.sleb128 0
 8865 2361 00       		.byte	0
 8866 2362 12       		.uleb128 0x12
 8867 2363 08010000 		.4byte	.LVL394
 8868 2367 973B0000 		.4byte	0x3b97
 8869 236b 76230000 		.4byte	0x2376
 8870 236f 13       		.uleb128 0x13
 8871 2370 01       		.uleb128 0x1
 8872 2371 50       		.byte	0x50
 8873 2372 02       		.uleb128 0x2
 8874 2373 76       		.byte	0x76
 8875 2374 00       		.sleb128 0
 8876 2375 00       		.byte	0
 8877 2376 12       		.uleb128 0x12
 8878 2377 14010000 		.4byte	.LVL397
 8879 237b 813B0000 		.4byte	0x3b81
 8880 237f 89230000 		.4byte	0x2389
 8881 2383 13       		.uleb128 0x13
 8882 2384 01       		.uleb128 0x1
 8883 2385 50       		.byte	0x50
 8884 2386 01       		.uleb128 0x1
 8885 2387 30       		.byte	0x30
 8886 2388 00       		.byte	0
 8887 2389 14       		.uleb128 0x14
 8888 238a 18010000 		.4byte	.LVL398
 8889 238e 8C3B0000 		.4byte	0x3b8c
 8890 2392 12       		.uleb128 0x12
 8891 2393 22010000 		.4byte	.LVL399
 8892 2397 813B0000 		.4byte	0x3b81
 8893 239b A5230000 		.4byte	0x23a5
 8894 239f 13       		.uleb128 0x13
 8895 23a0 01       		.uleb128 0x1
 8896 23a1 50       		.byte	0x50
 8897 23a2 01       		.uleb128 0x1
 8898 23a3 30       		.byte	0x30
 8899 23a4 00       		.byte	0
 8900 23a5 14       		.uleb128 0x14
 8901 23a6 26010000 		.4byte	.LVL400
 8902 23aa 8C3B0000 		.4byte	0x3b8c
 8903 23ae 26       		.uleb128 0x26
 8904 23af 40010000 		.4byte	.LVL401
 8905 23b3 973B0000 		.4byte	0x3b97
 8906 23b7 13       		.uleb128 0x13
 8907 23b8 01       		.uleb128 0x1
 8908 23b9 50       		.byte	0x50
 8909 23ba 02       		.uleb128 0x2
 8910 23bb 74       		.byte	0x74
ARM GAS  C:\Users\legoc\AppData\Local\Temp\ccOlrioX.s 			page 173


 8911 23bc 00       		.sleb128 0
 8912 23bd 00       		.byte	0
 8913 23be 00       		.byte	0
 8914 23bf 00       		.byte	0
 8915 23c0 00       		.byte	0
 8916 23c1 00       		.byte	0
 8917 23c2 00       		.byte	0
 8918 23c3 2D       		.uleb128 0x2d
 8919 23c4 3C010000 		.4byte	0x13c
 8920 23c8 40010000 		.4byte	.LBB548
 8921 23cc E8030000 		.4byte	.Ldebug_ranges0+0x3e8
 8922 23d0 01       		.byte	0x1
 8923 23d1 9101     		.2byte	0x191
 8924 23d3 32250000 		.4byte	0x2532
 8925 23d7 11       		.uleb128 0x11
 8926 23d8 6C010000 		.4byte	0x16c
 8927 23dc 011D0000 		.4byte	.LLST297
 8928 23e0 11       		.uleb128 0x11
 8929 23e1 63010000 		.4byte	0x163
 8930 23e5 151D0000 		.4byte	.LLST298
 8931 23e9 11       		.uleb128 0x11
 8932 23ea 5A010000 		.4byte	0x15a
 8933 23ee 291D0000 		.4byte	.LLST299
 8934 23f2 11       		.uleb128 0x11
 8935 23f3 51010000 		.4byte	0x151
 8936 23f7 3E1D0000 		.4byte	.LLST300
 8937 23fb 11       		.uleb128 0x11
 8938 23fc 48010000 		.4byte	0x148
 8939 2400 531D0000 		.4byte	.LLST301
 8940 2404 1F       		.uleb128 0x1f
 8941 2405 EC000000 		.4byte	0xec
 8942 2409 40010000 		.4byte	.LBB549
 8943 240d E8030000 		.4byte	.Ldebug_ranges0+0x3e8
 8944 2411 01       		.byte	0x1
 8945 2412 95       		.byte	0x95
 8946 2413 11       		.uleb128 0x11
 8947 2414 1C010000 		.4byte	0x11c
 8948 2418 011D0000 		.4byte	.LLST297
 8949 241c 11       		.uleb128 0x11
 8950 241d 13010000 		.4byte	0x113
 8951 2421 291D0000 		.4byte	.LLST299
 8952 2425 11       		.uleb128 0x11
 8953 2426 0A010000 		.4byte	0x10a
 8954 242a 151D0000 		.4byte	.LLST298
 8955 242e 11       		.uleb128 0x11
 8956 242f 01010000 		.4byte	0x101
 8957 2433 681D0000 		.4byte	.LLST305
 8958 2437 11       		.uleb128 0x11
 8959 2438 F8000000 		.4byte	0xf8
 8960 243c 3E1D0000 		.4byte	.LLST300
 8961 2440 1C       		.uleb128 0x1c
 8962 2441 E8030000 		.4byte	.Ldebug_ranges0+0x3e8
 8963 2445 1B       		.uleb128 0x1b
 8964 2446 27010000 		.4byte	0x127
 8965 244a 1B       		.uleb128 0x1b
 8966 244b 31010000 		.4byte	0x131
 8967 244f 1C       		.uleb128 0x1c
ARM GAS  C:\Users\legoc\AppData\Local\Temp\ccOlrioX.s 			page 174


 8968 2450 E8030000 		.4byte	.Ldebug_ranges0+0x3e8
 8969 2454 11       		.uleb128 0x11
 8970 2455 1C010000 		.4byte	0x11c
 8971 2459 011D0000 		.4byte	.LLST297
 8972 245d 11       		.uleb128 0x11
 8973 245e 13010000 		.4byte	0x113
 8974 2462 291D0000 		.4byte	.LLST299
 8975 2466 11       		.uleb128 0x11
 8976 2467 0A010000 		.4byte	0x10a
 8977 246b 151D0000 		.4byte	.LLST298
 8978 246f 11       		.uleb128 0x11
 8979 2470 01010000 		.4byte	0x101
 8980 2474 7D1D0000 		.4byte	.LLST310
 8981 2478 11       		.uleb128 0x11
 8982 2479 F8000000 		.4byte	0xf8
 8983 247d 9F1D0000 		.4byte	.LLST311
 8984 2481 1C       		.uleb128 0x1c
 8985 2482 E8030000 		.4byte	.Ldebug_ranges0+0x3e8
 8986 2486 1D       		.uleb128 0x1d
 8987 2487 27010000 		.4byte	0x127
 8988 248b C01D0000 		.4byte	.LLST312
 8989 248f 1D       		.uleb128 0x1d
 8990 2490 31010000 		.4byte	0x131
 8991 2494 C01D0000 		.4byte	.LLST312
 8992 2498 12       		.uleb128 0x12
 8993 2499 4C010000 		.4byte	.LVL402
 8994 249d 92030000 		.4byte	0x392
 8995 24a1 BD240000 		.4byte	0x24bd
 8996 24a5 13       		.uleb128 0x13
 8997 24a6 01       		.uleb128 0x1
 8998 24a7 50       		.byte	0x50
 8999 24a8 02       		.uleb128 0x2
 9000 24a9 08       		.byte	0x8
 9001 24aa 6D       		.byte	0x6d
 9002 24ab 13       		.uleb128 0x13
 9003 24ac 01       		.uleb128 0x1
 9004 24ad 51       		.byte	0x51
 9005 24ae 02       		.uleb128 0x2
 9006 24af 08       		.byte	0x8
 9007 24b0 23       		.byte	0x23
 9008 24b1 13       		.uleb128 0x13
 9009 24b2 01       		.uleb128 0x1
 9010 24b3 52       		.byte	0x52
 9011 24b4 01       		.uleb128 0x1
 9012 24b5 46       		.byte	0x46
 9013 24b6 13       		.uleb128 0x13
 9014 24b7 01       		.uleb128 0x1
 9015 24b8 53       		.byte	0x53
 9016 24b9 02       		.uleb128 0x2
 9017 24ba 08       		.byte	0x8
 9018 24bb FC       		.byte	0xfc
 9019 24bc 00       		.byte	0
 9020 24bd 12       		.uleb128 0x12
 9021 24be 52010000 		.4byte	.LVL403
 9022 24c2 763B0000 		.4byte	0x3b76
 9023 24c6 D1240000 		.4byte	0x24d1
 9024 24ca 13       		.uleb128 0x13
ARM GAS  C:\Users\legoc\AppData\Local\Temp\ccOlrioX.s 			page 175


 9025 24cb 01       		.uleb128 0x1
 9026 24cc 50       		.byte	0x50
 9027 24cd 02       		.uleb128 0x2
 9028 24ce 74       		.byte	0x74
 9029 24cf 00       		.sleb128 0
 9030 24d0 00       		.byte	0
 9031 24d1 12       		.uleb128 0x12
 9032 24d2 58010000 		.4byte	.LVL404
 9033 24d6 973B0000 		.4byte	0x3b97
 9034 24da E5240000 		.4byte	0x24e5
 9035 24de 13       		.uleb128 0x13
 9036 24df 01       		.uleb128 0x1
 9037 24e0 50       		.byte	0x50
 9038 24e1 02       		.uleb128 0x2
 9039 24e2 76       		.byte	0x76
 9040 24e3 00       		.sleb128 0
 9041 24e4 00       		.byte	0
 9042 24e5 12       		.uleb128 0x12
 9043 24e6 62010000 		.4byte	.LVL407
 9044 24ea 813B0000 		.4byte	0x3b81
 9045 24ee F8240000 		.4byte	0x24f8
 9046 24f2 13       		.uleb128 0x13
 9047 24f3 01       		.uleb128 0x1
 9048 24f4 50       		.byte	0x50
 9049 24f5 01       		.uleb128 0x1
 9050 24f6 30       		.byte	0x30
 9051 24f7 00       		.byte	0
 9052 24f8 14       		.uleb128 0x14
 9053 24f9 66010000 		.4byte	.LVL408
 9054 24fd 8C3B0000 		.4byte	0x3b8c
 9055 2501 12       		.uleb128 0x12
 9056 2502 70010000 		.4byte	.LVL409
 9057 2506 813B0000 		.4byte	0x3b81
 9058 250a 14250000 		.4byte	0x2514
 9059 250e 13       		.uleb128 0x13
 9060 250f 01       		.uleb128 0x1
 9061 2510 50       		.byte	0x50
 9062 2511 01       		.uleb128 0x1
 9063 2512 30       		.byte	0x30
 9064 2513 00       		.byte	0
 9065 2514 14       		.uleb128 0x14
 9066 2515 74010000 		.4byte	.LVL410
 9067 2519 8C3B0000 		.4byte	0x3b8c
 9068 251d 26       		.uleb128 0x26
 9069 251e 8E010000 		.4byte	.LVL411
 9070 2522 973B0000 		.4byte	0x3b97
 9071 2526 13       		.uleb128 0x13
 9072 2527 01       		.uleb128 0x1
 9073 2528 50       		.byte	0x50
 9074 2529 02       		.uleb128 0x2
 9075 252a 74       		.byte	0x74
 9076 252b 00       		.sleb128 0
 9077 252c 00       		.byte	0
 9078 252d 00       		.byte	0
 9079 252e 00       		.byte	0
 9080 252f 00       		.byte	0
 9081 2530 00       		.byte	0
ARM GAS  C:\Users\legoc\AppData\Local\Temp\ccOlrioX.s 			page 176


 9082 2531 00       		.byte	0
 9083 2532 2D       		.uleb128 0x2d
 9084 2533 92110000 		.4byte	0x1192
 9085 2537 8E010000 		.4byte	.LBB563
 9086 253b 08040000 		.4byte	.Ldebug_ranges0+0x408
 9087 253f 01       		.byte	0x1
 9088 2540 9301     		.2byte	0x193
 9089 2542 36270000 		.4byte	0x2736
 9090 2546 11       		.uleb128 0x11
 9091 2547 DF110000 		.4byte	0x11df
 9092 254b D41D0000 		.4byte	.LLST314
 9093 254f 11       		.uleb128 0x11
 9094 2550 D3110000 		.4byte	0x11d3
 9095 2554 1C1E0000 		.4byte	.LLST315
 9096 2558 11       		.uleb128 0x11
 9097 2559 C7110000 		.4byte	0x11c7
 9098 255d 301E0000 		.4byte	.LLST316
 9099 2561 11       		.uleb128 0x11
 9100 2562 BD110000 		.4byte	0x11bd
 9101 2566 451E0000 		.4byte	.LLST317
 9102 256a 11       		.uleb128 0x11
 9103 256b B3110000 		.4byte	0x11b3
 9104 256f 591E0000 		.4byte	.LLST318
 9105 2573 11       		.uleb128 0x11
 9106 2574 A9110000 		.4byte	0x11a9
 9107 2578 6E1E0000 		.4byte	.LLST319
 9108 257c 11       		.uleb128 0x11
 9109 257d 9F110000 		.4byte	0x119f
 9110 2581 831E0000 		.4byte	.LLST320
 9111 2585 1C       		.uleb128 0x1c
 9112 2586 08040000 		.4byte	.Ldebug_ranges0+0x408
 9113 258a 1D       		.uleb128 0x1d
 9114 258b EB110000 		.4byte	0x11eb
 9115 258f 981E0000 		.4byte	.LLST321
 9116 2593 1D       		.uleb128 0x1d
 9117 2594 F7110000 		.4byte	0x11f7
 9118 2598 AD1E0000 		.4byte	.LLST322
 9119 259c 1D       		.uleb128 0x1d
 9120 259d 03120000 		.4byte	0x1203
 9121 25a1 C21E0000 		.4byte	.LLST323
 9122 25a5 34       		.uleb128 0x34
 9123 25a6 0F120000 		.4byte	0x120f
 9124 25aa 762F0000 		.4byte	0x2f76
 9125 25ae E11E0000 		.4byte	.LLST325
 9126 25b2 1D       		.uleb128 0x1d
 9127 25b3 1B120000 		.4byte	0x121b
 9128 25b7 011F0000 		.4byte	.LLST326
 9129 25bb 1D       		.uleb128 0x1d
 9130 25bc 25120000 		.4byte	0x1225
 9131 25c0 151F0000 		.4byte	.LLST327
 9132 25c4 2D       		.uleb128 0x2d
 9133 25c5 3C010000 		.4byte	0x13c
 9134 25c9 8E010000 		.4byte	.LBB565
 9135 25cd 30040000 		.4byte	.Ldebug_ranges0+0x430
 9136 25d1 01       		.byte	0x1
 9137 25d2 2D01     		.2byte	0x12d
 9138 25d4 1F270000 		.4byte	0x271f
ARM GAS  C:\Users\legoc\AppData\Local\Temp\ccOlrioX.s 			page 177


 9139 25d8 11       		.uleb128 0x11
 9140 25d9 6C010000 		.4byte	0x16c
 9141 25dd 321F0000 		.4byte	.LLST328
 9142 25e1 11       		.uleb128 0x11
 9143 25e2 63010000 		.4byte	0x163
 9144 25e6 471F0000 		.4byte	.LLST329
 9145 25ea 11       		.uleb128 0x11
 9146 25eb 5A010000 		.4byte	0x15a
 9147 25ef 5B1F0000 		.4byte	.LLST330
 9148 25f3 11       		.uleb128 0x11
 9149 25f4 51010000 		.4byte	0x151
 9150 25f8 701F0000 		.4byte	.LLST331
 9151 25fc 11       		.uleb128 0x11
 9152 25fd 48010000 		.4byte	0x148
 9153 2601 851F0000 		.4byte	.LLST332
 9154 2605 1F       		.uleb128 0x1f
 9155 2606 EC000000 		.4byte	0xec
 9156 260a 8E010000 		.4byte	.LBB566
 9157 260e 30040000 		.4byte	.Ldebug_ranges0+0x430
 9158 2612 01       		.byte	0x1
 9159 2613 95       		.byte	0x95
 9160 2614 11       		.uleb128 0x11
 9161 2615 1C010000 		.4byte	0x11c
 9162 2619 321F0000 		.4byte	.LLST328
 9163 261d 11       		.uleb128 0x11
 9164 261e 13010000 		.4byte	0x113
 9165 2622 5B1F0000 		.4byte	.LLST330
 9166 2626 11       		.uleb128 0x11
 9167 2627 0A010000 		.4byte	0x10a
 9168 262b 471F0000 		.4byte	.LLST329
 9169 262f 11       		.uleb128 0x11
 9170 2630 01010000 		.4byte	0x101
 9171 2634 9A1F0000 		.4byte	.LLST336
 9172 2638 11       		.uleb128 0x11
 9173 2639 F8000000 		.4byte	0xf8
 9174 263d 701F0000 		.4byte	.LLST331
 9175 2641 1C       		.uleb128 0x1c
 9176 2642 30040000 		.4byte	.Ldebug_ranges0+0x430
 9177 2646 1B       		.uleb128 0x1b
 9178 2647 27010000 		.4byte	0x127
 9179 264b 1B       		.uleb128 0x1b
 9180 264c 31010000 		.4byte	0x131
 9181 2650 1C       		.uleb128 0x1c
 9182 2651 30040000 		.4byte	.Ldebug_ranges0+0x430
 9183 2655 3D       		.uleb128 0x3d
 9184 2656 1C010000 		.4byte	0x11c
 9185 265a 7F       		.sleb128 -1
 9186 265b 1A       		.uleb128 0x1a
 9187 265c 13010000 		.4byte	0x113
 9188 2660 F8       		.byte	0xf8
 9189 2661 1A       		.uleb128 0x1a
 9190 2662 0A010000 		.4byte	0x10a
 9191 2666 12       		.byte	0x12
 9192 2667 11       		.uleb128 0x11
 9193 2668 01010000 		.4byte	0x101
 9194 266c AF1F0000 		.4byte	.LLST338
 9195 2670 11       		.uleb128 0x11
ARM GAS  C:\Users\legoc\AppData\Local\Temp\ccOlrioX.s 			page 178


 9196 2671 F8000000 		.4byte	0xf8
 9197 2675 D11F0000 		.4byte	.LLST339
 9198 2679 1C       		.uleb128 0x1c
 9199 267a 30040000 		.4byte	.Ldebug_ranges0+0x430
 9200 267e 45       		.uleb128 0x45
 9201 267f 27010000 		.4byte	0x127
 9202 2683 7F       		.sleb128 -1
 9203 2684 45       		.uleb128 0x45
 9204 2685 31010000 		.4byte	0x131
 9205 2689 7F       		.sleb128 -1
 9206 268a 12       		.uleb128 0x12
 9207 268b 9A010000 		.4byte	.LVL412
 9208 268f 92030000 		.4byte	0x392
 9209 2693 AF260000 		.4byte	0x26af
 9210 2697 13       		.uleb128 0x13
 9211 2698 01       		.uleb128 0x1
 9212 2699 50       		.byte	0x50
 9213 269a 02       		.uleb128 0x2
 9214 269b 08       		.byte	0x8
 9215 269c 6F       		.byte	0x6f
 9216 269d 13       		.uleb128 0x13
 9217 269e 01       		.uleb128 0x1
 9218 269f 51       		.byte	0x51
 9219 26a0 02       		.uleb128 0x2
 9220 26a1 08       		.byte	0x8
 9221 26a2 25       		.byte	0x25
 9222 26a3 13       		.uleb128 0x13
 9223 26a4 01       		.uleb128 0x1
 9224 26a5 52       		.byte	0x52
 9225 26a6 01       		.uleb128 0x1
 9226 26a7 42       		.byte	0x42
 9227 26a8 13       		.uleb128 0x13
 9228 26a9 01       		.uleb128 0x1
 9229 26aa 53       		.byte	0x53
 9230 26ab 02       		.uleb128 0x2
 9231 26ac 08       		.byte	0x8
 9232 26ad F8       		.byte	0xf8
 9233 26ae 00       		.byte	0
 9234 26af 12       		.uleb128 0x12
 9235 26b0 A0010000 		.4byte	.LVL413
 9236 26b4 763B0000 		.4byte	0x3b76
 9237 26b8 C3260000 		.4byte	0x26c3
 9238 26bc 13       		.uleb128 0x13
 9239 26bd 01       		.uleb128 0x1
 9240 26be 50       		.byte	0x50
 9241 26bf 02       		.uleb128 0x2
 9242 26c0 74       		.byte	0x74
 9243 26c1 00       		.sleb128 0
 9244 26c2 00       		.byte	0
 9245 26c3 12       		.uleb128 0x12
 9246 26c4 A6010000 		.4byte	.LVL414
 9247 26c8 973B0000 		.4byte	0x3b97
 9248 26cc D7260000 		.4byte	0x26d7
 9249 26d0 13       		.uleb128 0x13
 9250 26d1 01       		.uleb128 0x1
 9251 26d2 50       		.byte	0x50
 9252 26d3 02       		.uleb128 0x2
ARM GAS  C:\Users\legoc\AppData\Local\Temp\ccOlrioX.s 			page 179


 9253 26d4 76       		.byte	0x76
 9254 26d5 00       		.sleb128 0
 9255 26d6 00       		.byte	0
 9256 26d7 12       		.uleb128 0x12
 9257 26d8 B0010000 		.4byte	.LVL417
 9258 26dc 813B0000 		.4byte	0x3b81
 9259 26e0 EB260000 		.4byte	0x26eb
 9260 26e4 13       		.uleb128 0x13
 9261 26e5 01       		.uleb128 0x1
 9262 26e6 50       		.byte	0x50
 9263 26e7 02       		.uleb128 0x2
 9264 26e8 09       		.byte	0x9
 9265 26e9 FF       		.byte	0xff
 9266 26ea 00       		.byte	0
 9267 26eb 14       		.uleb128 0x14
 9268 26ec B4010000 		.4byte	.LVL418
 9269 26f0 8C3B0000 		.4byte	0x3b8c
 9270 26f4 12       		.uleb128 0x12
 9271 26f5 BE010000 		.4byte	.LVL419
 9272 26f9 813B0000 		.4byte	0x3b81
 9273 26fd 08270000 		.4byte	0x2708
 9274 2701 13       		.uleb128 0x13
 9275 2702 01       		.uleb128 0x1
 9276 2703 50       		.byte	0x50
 9277 2704 02       		.uleb128 0x2
 9278 2705 09       		.byte	0x9
 9279 2706 FF       		.byte	0xff
 9280 2707 00       		.byte	0
 9281 2708 14       		.uleb128 0x14
 9282 2709 C2010000 		.4byte	.LVL420
 9283 270d 8C3B0000 		.4byte	0x3b8c
 9284 2711 14       		.uleb128 0x14
 9285 2712 DA010000 		.4byte	.LVL421
 9286 2716 973B0000 		.4byte	0x3b97
 9287 271a 00       		.byte	0
 9288 271b 00       		.byte	0
 9289 271c 00       		.byte	0
 9290 271d 00       		.byte	0
 9291 271e 00       		.byte	0
 9292 271f 26       		.uleb128 0x26
 9293 2720 22020000 		.4byte	.LVL431
 9294 2724 AD3B0000 		.4byte	0x3bad
 9295 2728 13       		.uleb128 0x13
 9296 2729 01       		.uleb128 0x1
 9297 272a 51       		.byte	0x51
 9298 272b 02       		.uleb128 0x2
 9299 272c 08       		.byte	0x8
 9300 272d 77       		.byte	0x77
 9301 272e 13       		.uleb128 0x13
 9302 272f 01       		.uleb128 0x1
 9303 2730 52       		.byte	0x52
 9304 2731 01       		.uleb128 0x1
 9305 2732 30       		.byte	0x30
 9306 2733 00       		.byte	0
 9307 2734 00       		.byte	0
 9308 2735 00       		.byte	0
 9309 2736 41       		.uleb128 0x41
ARM GAS  C:\Users\legoc\AppData\Local\Temp\ccOlrioX.s 			page 180


 9310 2737 892F0000 		.4byte	0x2f89
 9311 273b F21F0000 		.4byte	.LLST324
 9312 273f 2D       		.uleb128 0x2d
 9313 2740 92110000 		.4byte	0x1192
 9314 2744 22020000 		.4byte	.LBB585
 9315 2748 50040000 		.4byte	.Ldebug_ranges0+0x450
 9316 274c 01       		.byte	0x1
 9317 274d 9401     		.2byte	0x194
 9318 274f 46290000 		.4byte	0x2946
 9319 2753 11       		.uleb128 0x11
 9320 2754 DF110000 		.4byte	0x11df
 9321 2758 3B200000 		.4byte	.LLST340
 9322 275c 11       		.uleb128 0x11
 9323 275d D3110000 		.4byte	0x11d3
 9324 2761 83200000 		.4byte	.LLST341
 9325 2765 11       		.uleb128 0x11
 9326 2766 C7110000 		.4byte	0x11c7
 9327 276a 97200000 		.4byte	.LLST342
 9328 276e 11       		.uleb128 0x11
 9329 276f BD110000 		.4byte	0x11bd
 9330 2773 AD200000 		.4byte	.LLST343
 9331 2777 11       		.uleb128 0x11
 9332 2778 B3110000 		.4byte	0x11b3
 9333 277c C2200000 		.4byte	.LLST344
 9334 2780 11       		.uleb128 0x11
 9335 2781 A9110000 		.4byte	0x11a9
 9336 2785 D7200000 		.4byte	.LLST345
 9337 2789 11       		.uleb128 0x11
 9338 278a 9F110000 		.4byte	0x119f
 9339 278e D7200000 		.4byte	.LLST345
 9340 2792 1C       		.uleb128 0x1c
 9341 2793 50040000 		.4byte	.Ldebug_ranges0+0x450
 9342 2797 1D       		.uleb128 0x1d
 9343 2798 EB110000 		.4byte	0x11eb
 9344 279c EB200000 		.4byte	.LLST347
 9345 27a0 1D       		.uleb128 0x1d
 9346 27a1 F7110000 		.4byte	0x11f7
 9347 27a5 00210000 		.4byte	.LLST348
 9348 27a9 1D       		.uleb128 0x1d
 9349 27aa 03120000 		.4byte	0x1203
 9350 27ae 15210000 		.4byte	.LLST349
 9351 27b2 34       		.uleb128 0x34
 9352 27b3 0F120000 		.4byte	0x120f
 9353 27b7 8E2F0000 		.4byte	0x2f8e
 9354 27bb 34210000 		.4byte	.LLST351
 9355 27bf 1D       		.uleb128 0x1d
 9356 27c0 1B120000 		.4byte	0x121b
 9357 27c4 54210000 		.4byte	.LLST352
 9358 27c8 1D       		.uleb128 0x1d
 9359 27c9 25120000 		.4byte	0x1225
 9360 27cd 68210000 		.4byte	.LLST353
 9361 27d1 2D       		.uleb128 0x2d
 9362 27d2 3C010000 		.4byte	0x13c
 9363 27d6 22020000 		.4byte	.LBB587
 9364 27da 80040000 		.4byte	.Ldebug_ranges0+0x480
 9365 27de 01       		.byte	0x1
 9366 27df 2D01     		.2byte	0x12d
ARM GAS  C:\Users\legoc\AppData\Local\Temp\ccOlrioX.s 			page 181


 9367 27e1 2F290000 		.4byte	0x292f
 9368 27e5 11       		.uleb128 0x11
 9369 27e6 6C010000 		.4byte	0x16c
 9370 27ea 84210000 		.4byte	.LLST354
 9371 27ee 11       		.uleb128 0x11
 9372 27ef 63010000 		.4byte	0x163
 9373 27f3 9A210000 		.4byte	.LLST355
 9374 27f7 11       		.uleb128 0x11
 9375 27f8 5A010000 		.4byte	0x15a
 9376 27fc AF210000 		.4byte	.LLST356
 9377 2800 11       		.uleb128 0x11
 9378 2801 51010000 		.4byte	0x151
 9379 2805 C4210000 		.4byte	.LLST357
 9380 2809 11       		.uleb128 0x11
 9381 280a 48010000 		.4byte	0x148
 9382 280e C4210000 		.4byte	.LLST357
 9383 2812 1F       		.uleb128 0x1f
 9384 2813 EC000000 		.4byte	0xec
 9385 2817 22020000 		.4byte	.LBB588
 9386 281b 80040000 		.4byte	.Ldebug_ranges0+0x480
 9387 281f 01       		.byte	0x1
 9388 2820 95       		.byte	0x95
 9389 2821 11       		.uleb128 0x11
 9390 2822 1C010000 		.4byte	0x11c
 9391 2826 84210000 		.4byte	.LLST354
 9392 282a 11       		.uleb128 0x11
 9393 282b 13010000 		.4byte	0x113
 9394 282f AF210000 		.4byte	.LLST356
 9395 2833 11       		.uleb128 0x11
 9396 2834 0A010000 		.4byte	0x10a
 9397 2838 9A210000 		.4byte	.LLST355
 9398 283c 11       		.uleb128 0x11
 9399 283d 01010000 		.4byte	0x101
 9400 2841 D8210000 		.4byte	.LLST362
 9401 2845 11       		.uleb128 0x11
 9402 2846 F8000000 		.4byte	0xf8
 9403 284a ED210000 		.4byte	.LLST363
 9404 284e 1C       		.uleb128 0x1c
 9405 284f 80040000 		.4byte	.Ldebug_ranges0+0x480
 9406 2853 1B       		.uleb128 0x1b
 9407 2854 27010000 		.4byte	0x127
 9408 2858 1B       		.uleb128 0x1b
 9409 2859 31010000 		.4byte	0x131
 9410 285d 1C       		.uleb128 0x1c
 9411 285e 80040000 		.4byte	.Ldebug_ranges0+0x480
 9412 2862 3D       		.uleb128 0x3d
 9413 2863 1C010000 		.4byte	0x11c
 9414 2867 9FBD7E   		.sleb128 -24929
 9415 286a 1A       		.uleb128 0x1a
 9416 286b 13010000 		.4byte	0x113
 9417 286f 8B       		.byte	0x8b
 9418 2870 1A       		.uleb128 0x1a
 9419 2871 0A010000 		.4byte	0x10a
 9420 2875 63       		.byte	0x63
 9421 2876 11       		.uleb128 0x11
 9422 2877 01010000 		.4byte	0x101
 9423 287b 02220000 		.4byte	.LLST364
ARM GAS  C:\Users\legoc\AppData\Local\Temp\ccOlrioX.s 			page 182


 9424 287f 11       		.uleb128 0x11
 9425 2880 F8000000 		.4byte	0xf8
 9426 2884 24220000 		.4byte	.LLST365
 9427 2888 1C       		.uleb128 0x1c
 9428 2889 80040000 		.4byte	.Ldebug_ranges0+0x480
 9429 288d 45       		.uleb128 0x45
 9430 288e 27010000 		.4byte	0x127
 9431 2892 9E7F     		.sleb128 -98
 9432 2894 45       		.uleb128 0x45
 9433 2895 31010000 		.4byte	0x131
 9434 2899 9F7F     		.sleb128 -97
 9435 289b 12       		.uleb128 0x12
 9436 289c 30020000 		.4byte	.LVL433
 9437 28a0 92030000 		.4byte	0x392
 9438 28a4 C1280000 		.4byte	0x28c1
 9439 28a8 13       		.uleb128 0x13
 9440 28a9 01       		.uleb128 0x1
 9441 28aa 50       		.byte	0x50
 9442 28ab 02       		.uleb128 0x2
 9443 28ac 08       		.byte	0x8
 9444 28ad 83       		.byte	0x83
 9445 28ae 13       		.uleb128 0x13
 9446 28af 01       		.uleb128 0x1
 9447 28b0 51       		.byte	0x51
 9448 28b1 02       		.uleb128 0x2
 9449 28b2 08       		.byte	0x8
 9450 28b3 AB       		.byte	0xab
 9451 28b4 13       		.uleb128 0x13
 9452 28b5 01       		.uleb128 0x1
 9453 28b6 52       		.byte	0x52
 9454 28b7 02       		.uleb128 0x2
 9455 28b8 08       		.byte	0x8
 9456 28b9 63       		.byte	0x63
 9457 28ba 13       		.uleb128 0x13
 9458 28bb 01       		.uleb128 0x1
 9459 28bc 53       		.byte	0x53
 9460 28bd 02       		.uleb128 0x2
 9461 28be 08       		.byte	0x8
 9462 28bf 8B       		.byte	0x8b
 9463 28c0 00       		.byte	0
 9464 28c1 12       		.uleb128 0x12
 9465 28c2 36020000 		.4byte	.LVL434
 9466 28c6 763B0000 		.4byte	0x3b76
 9467 28ca D4280000 		.4byte	0x28d4
 9468 28ce 13       		.uleb128 0x13
 9469 28cf 01       		.uleb128 0x1
 9470 28d0 50       		.byte	0x50
 9471 28d1 01       		.uleb128 0x1
 9472 28d2 31       		.byte	0x31
 9473 28d3 00       		.byte	0
 9474 28d4 12       		.uleb128 0x12
 9475 28d5 3C020000 		.4byte	.LVL435
 9476 28d9 973B0000 		.4byte	0x3b97
 9477 28dd E7280000 		.4byte	0x28e7
 9478 28e1 13       		.uleb128 0x13
 9479 28e2 01       		.uleb128 0x1
 9480 28e3 50       		.byte	0x50
ARM GAS  C:\Users\legoc\AppData\Local\Temp\ccOlrioX.s 			page 183


 9481 28e4 01       		.uleb128 0x1
 9482 28e5 30       		.byte	0x30
 9483 28e6 00       		.byte	0
 9484 28e7 12       		.uleb128 0x12
 9485 28e8 46020000 		.4byte	.LVL438
 9486 28ec 813B0000 		.4byte	0x3b81
 9487 28f0 FB280000 		.4byte	0x28fb
 9488 28f4 13       		.uleb128 0x13
 9489 28f5 01       		.uleb128 0x1
 9490 28f6 50       		.byte	0x50
 9491 28f7 02       		.uleb128 0x2
 9492 28f8 09       		.byte	0x9
 9493 28f9 9E       		.byte	0x9e
 9494 28fa 00       		.byte	0
 9495 28fb 14       		.uleb128 0x14
 9496 28fc 4A020000 		.4byte	.LVL439
 9497 2900 8C3B0000 		.4byte	0x3b8c
 9498 2904 12       		.uleb128 0x12
 9499 2905 54020000 		.4byte	.LVL440
 9500 2909 813B0000 		.4byte	0x3b81
 9501 290d 18290000 		.4byte	0x2918
 9502 2911 13       		.uleb128 0x13
 9503 2912 01       		.uleb128 0x1
 9504 2913 50       		.byte	0x50
 9505 2914 02       		.uleb128 0x2
 9506 2915 09       		.byte	0x9
 9507 2916 9F       		.byte	0x9f
 9508 2917 00       		.byte	0
 9509 2918 14       		.uleb128 0x14
 9510 2919 58020000 		.4byte	.LVL441
 9511 291d 8C3B0000 		.4byte	0x3b8c
 9512 2921 14       		.uleb128 0x14
 9513 2922 70020000 		.4byte	.LVL442
 9514 2926 973B0000 		.4byte	0x3b97
 9515 292a 00       		.byte	0
 9516 292b 00       		.byte	0
 9517 292c 00       		.byte	0
 9518 292d 00       		.byte	0
 9519 292e 00       		.byte	0
 9520 292f 26       		.uleb128 0x26
 9521 2930 B8020000 		.4byte	.LVL452
 9522 2934 AD3B0000 		.4byte	0x3bad
 9523 2938 13       		.uleb128 0x13
 9524 2939 01       		.uleb128 0x1
 9525 293a 51       		.byte	0x51
 9526 293b 02       		.uleb128 0x2
 9527 293c 08       		.byte	0x8
 9528 293d 3A       		.byte	0x3a
 9529 293e 13       		.uleb128 0x13
 9530 293f 01       		.uleb128 0x1
 9531 2940 52       		.byte	0x52
 9532 2941 01       		.uleb128 0x1
 9533 2942 30       		.byte	0x30
 9534 2943 00       		.byte	0
 9535 2944 00       		.byte	0
 9536 2945 00       		.byte	0
 9537 2946 41       		.uleb128 0x41
ARM GAS  C:\Users\legoc\AppData\Local\Temp\ccOlrioX.s 			page 184


 9538 2947 A12F0000 		.4byte	0x2fa1
 9539 294b 46220000 		.4byte	.LLST350
 9540 294f 2D       		.uleb128 0x2d
 9541 2950 92110000 		.4byte	0x1192
 9542 2954 B8020000 		.4byte	.LBB615
 9543 2958 A8040000 		.4byte	.Ldebug_ranges0+0x4a8
 9544 295c 01       		.byte	0x1
 9545 295d 9501     		.2byte	0x195
 9546 295f 552B0000 		.4byte	0x2b55
 9547 2963 11       		.uleb128 0x11
 9548 2964 DF110000 		.4byte	0x11df
 9549 2968 82220000 		.4byte	.LLST366
 9550 296c 11       		.uleb128 0x11
 9551 296d D3110000 		.4byte	0x11d3
 9552 2971 CA220000 		.4byte	.LLST367
 9553 2975 11       		.uleb128 0x11
 9554 2976 C7110000 		.4byte	0x11c7
 9555 297a DE220000 		.4byte	.LLST368
 9556 297e 11       		.uleb128 0x11
 9557 297f BD110000 		.4byte	0x11bd
 9558 2983 F4220000 		.4byte	.LLST369
 9559 2987 11       		.uleb128 0x11
 9560 2988 B3110000 		.4byte	0x11b3
 9561 298c 09230000 		.4byte	.LLST370
 9562 2990 11       		.uleb128 0x11
 9563 2991 A9110000 		.4byte	0x11a9
 9564 2995 1E230000 		.4byte	.LLST371
 9565 2999 11       		.uleb128 0x11
 9566 299a 9F110000 		.4byte	0x119f
 9567 299e 33230000 		.4byte	.LLST372
 9568 29a2 1C       		.uleb128 0x1c
 9569 29a3 A8040000 		.4byte	.Ldebug_ranges0+0x4a8
 9570 29a7 1D       		.uleb128 0x1d
 9571 29a8 EB110000 		.4byte	0x11eb
 9572 29ac 47230000 		.4byte	.LLST373
 9573 29b0 1D       		.uleb128 0x1d
 9574 29b1 F7110000 		.4byte	0x11f7
 9575 29b5 5C230000 		.4byte	.LLST374
 9576 29b9 1D       		.uleb128 0x1d
 9577 29ba 03120000 		.4byte	0x1203
 9578 29be 71230000 		.4byte	.LLST375
 9579 29c2 34       		.uleb128 0x34
 9580 29c3 0F120000 		.4byte	0x120f
 9581 29c7 A62F0000 		.4byte	0x2fa6
 9582 29cb 90230000 		.4byte	.LLST377
 9583 29cf 1D       		.uleb128 0x1d
 9584 29d0 1B120000 		.4byte	0x121b
 9585 29d4 B0230000 		.4byte	.LLST378
 9586 29d8 1D       		.uleb128 0x1d
 9587 29d9 25120000 		.4byte	0x1225
 9588 29dd C4230000 		.4byte	.LLST379
 9589 29e1 2D       		.uleb128 0x2d
 9590 29e2 3C010000 		.4byte	0x13c
 9591 29e6 B8020000 		.4byte	.LBB617
 9592 29ea D8040000 		.4byte	.Ldebug_ranges0+0x4d8
 9593 29ee 01       		.byte	0x1
 9594 29ef 2D01     		.2byte	0x12d
ARM GAS  C:\Users\legoc\AppData\Local\Temp\ccOlrioX.s 			page 185


 9595 29f1 3E2B0000 		.4byte	0x2b3e
 9596 29f5 11       		.uleb128 0x11
 9597 29f6 6C010000 		.4byte	0x16c
 9598 29fa E0230000 		.4byte	.LLST380
 9599 29fe 11       		.uleb128 0x11
 9600 29ff 63010000 		.4byte	0x163
 9601 2a03 F6230000 		.4byte	.LLST381
 9602 2a07 11       		.uleb128 0x11
 9603 2a08 5A010000 		.4byte	0x15a
 9604 2a0c 0B240000 		.4byte	.LLST382
 9605 2a10 11       		.uleb128 0x11
 9606 2a11 51010000 		.4byte	0x151
 9607 2a15 20240000 		.4byte	.LLST383
 9608 2a19 11       		.uleb128 0x11
 9609 2a1a 48010000 		.4byte	0x148
 9610 2a1e 35240000 		.4byte	.LLST384
 9611 2a22 1F       		.uleb128 0x1f
 9612 2a23 EC000000 		.4byte	0xec
 9613 2a27 B8020000 		.4byte	.LBB618
 9614 2a2b D8040000 		.4byte	.Ldebug_ranges0+0x4d8
 9615 2a2f 01       		.byte	0x1
 9616 2a30 95       		.byte	0x95
 9617 2a31 11       		.uleb128 0x11
 9618 2a32 1C010000 		.4byte	0x11c
 9619 2a36 E0230000 		.4byte	.LLST380
 9620 2a3a 11       		.uleb128 0x11
 9621 2a3b 13010000 		.4byte	0x113
 9622 2a3f 0B240000 		.4byte	.LLST382
 9623 2a43 11       		.uleb128 0x11
 9624 2a44 0A010000 		.4byte	0x10a
 9625 2a48 F6230000 		.4byte	.LLST381
 9626 2a4c 11       		.uleb128 0x11
 9627 2a4d 01010000 		.4byte	0x101
 9628 2a51 49240000 		.4byte	.LLST388
 9629 2a55 11       		.uleb128 0x11
 9630 2a56 F8000000 		.4byte	0xf8
 9631 2a5a 35240000 		.4byte	.LLST384
 9632 2a5e 1C       		.uleb128 0x1c
 9633 2a5f D8040000 		.4byte	.Ldebug_ranges0+0x4d8
 9634 2a63 1B       		.uleb128 0x1b
 9635 2a64 27010000 		.4byte	0x127
 9636 2a68 1B       		.uleb128 0x1b
 9637 2a69 31010000 		.4byte	0x131
 9638 2a6d 1C       		.uleb128 0x1c
 9639 2a6e D8040000 		.4byte	.Ldebug_ranges0+0x4d8
 9640 2a72 3D       		.uleb128 0x3d
 9641 2a73 1C010000 		.4byte	0x11c
 9642 2a77 9FBD7E   		.sleb128 -24929
 9643 2a7a 1A       		.uleb128 0x1a
 9644 2a7b 13010000 		.4byte	0x113
 9645 2a7f 8B       		.byte	0x8b
 9646 2a80 1A       		.uleb128 0x1a
 9647 2a81 0A010000 		.4byte	0x10a
 9648 2a85 63       		.byte	0x63
 9649 2a86 11       		.uleb128 0x11
 9650 2a87 01010000 		.4byte	0x101
 9651 2a8b 5E240000 		.4byte	.LLST390
ARM GAS  C:\Users\legoc\AppData\Local\Temp\ccOlrioX.s 			page 186


 9652 2a8f 11       		.uleb128 0x11
 9653 2a90 F8000000 		.4byte	0xf8
 9654 2a94 80240000 		.4byte	.LLST391
 9655 2a98 1C       		.uleb128 0x1c
 9656 2a99 D8040000 		.4byte	.Ldebug_ranges0+0x4d8
 9657 2a9d 45       		.uleb128 0x45
 9658 2a9e 27010000 		.4byte	0x127
 9659 2aa2 9E7F     		.sleb128 -98
 9660 2aa4 45       		.uleb128 0x45
 9661 2aa5 31010000 		.4byte	0x131
 9662 2aa9 9F7F     		.sleb128 -97
 9663 2aab 12       		.uleb128 0x12
 9664 2aac C6020000 		.4byte	.LVL454
 9665 2ab0 92030000 		.4byte	0x392
 9666 2ab4 D02A0000 		.4byte	0x2ad0
 9667 2ab8 13       		.uleb128 0x13
 9668 2ab9 01       		.uleb128 0x1
 9669 2aba 50       		.byte	0x50
 9670 2abb 01       		.uleb128 0x1
 9671 2abc 3A       		.byte	0x3a
 9672 2abd 13       		.uleb128 0x13
 9673 2abe 01       		.uleb128 0x1
 9674 2abf 51       		.byte	0x51
 9675 2ac0 02       		.uleb128 0x2
 9676 2ac1 08       		.byte	0x8
 9677 2ac2 AB       		.byte	0xab
 9678 2ac3 13       		.uleb128 0x13
 9679 2ac4 01       		.uleb128 0x1
 9680 2ac5 52       		.byte	0x52
 9681 2ac6 02       		.uleb128 0x2
 9682 2ac7 08       		.byte	0x8
 9683 2ac8 63       		.byte	0x63
 9684 2ac9 13       		.uleb128 0x13
 9685 2aca 01       		.uleb128 0x1
 9686 2acb 53       		.byte	0x53
 9687 2acc 02       		.uleb128 0x2
 9688 2acd 08       		.byte	0x8
 9689 2ace 8B       		.byte	0x8b
 9690 2acf 00       		.byte	0
 9691 2ad0 12       		.uleb128 0x12
 9692 2ad1 CC020000 		.4byte	.LVL455
 9693 2ad5 763B0000 		.4byte	0x3b76
 9694 2ad9 E32A0000 		.4byte	0x2ae3
 9695 2add 13       		.uleb128 0x13
 9696 2ade 01       		.uleb128 0x1
 9697 2adf 50       		.byte	0x50
 9698 2ae0 01       		.uleb128 0x1
 9699 2ae1 31       		.byte	0x31
 9700 2ae2 00       		.byte	0
 9701 2ae3 12       		.uleb128 0x12
 9702 2ae4 D2020000 		.4byte	.LVL456
 9703 2ae8 973B0000 		.4byte	0x3b97
 9704 2aec F62A0000 		.4byte	0x2af6
 9705 2af0 13       		.uleb128 0x13
 9706 2af1 01       		.uleb128 0x1
 9707 2af2 50       		.byte	0x50
 9708 2af3 01       		.uleb128 0x1
ARM GAS  C:\Users\legoc\AppData\Local\Temp\ccOlrioX.s 			page 187


 9709 2af4 30       		.byte	0x30
 9710 2af5 00       		.byte	0
 9711 2af6 12       		.uleb128 0x12
 9712 2af7 DC020000 		.4byte	.LVL459
 9713 2afb 813B0000 		.4byte	0x3b81
 9714 2aff 0A2B0000 		.4byte	0x2b0a
 9715 2b03 13       		.uleb128 0x13
 9716 2b04 01       		.uleb128 0x1
 9717 2b05 50       		.byte	0x50
 9718 2b06 02       		.uleb128 0x2
 9719 2b07 09       		.byte	0x9
 9720 2b08 9E       		.byte	0x9e
 9721 2b09 00       		.byte	0
 9722 2b0a 14       		.uleb128 0x14
 9723 2b0b E0020000 		.4byte	.LVL460
 9724 2b0f 8C3B0000 		.4byte	0x3b8c
 9725 2b13 12       		.uleb128 0x12
 9726 2b14 EA020000 		.4byte	.LVL461
 9727 2b18 813B0000 		.4byte	0x3b81
 9728 2b1c 272B0000 		.4byte	0x2b27
 9729 2b20 13       		.uleb128 0x13
 9730 2b21 01       		.uleb128 0x1
 9731 2b22 50       		.byte	0x50
 9732 2b23 02       		.uleb128 0x2
 9733 2b24 09       		.byte	0x9
 9734 2b25 9F       		.byte	0x9f
 9735 2b26 00       		.byte	0
 9736 2b27 14       		.uleb128 0x14
 9737 2b28 EE020000 		.4byte	.LVL462
 9738 2b2c 8C3B0000 		.4byte	0x3b8c
 9739 2b30 14       		.uleb128 0x14
 9740 2b31 06030000 		.4byte	.LVL463
 9741 2b35 973B0000 		.4byte	0x3b97
 9742 2b39 00       		.byte	0
 9743 2b3a 00       		.byte	0
 9744 2b3b 00       		.byte	0
 9745 2b3c 00       		.byte	0
 9746 2b3d 00       		.byte	0
 9747 2b3e 26       		.uleb128 0x26
 9748 2b3f 4E030000 		.4byte	.LVL473
 9749 2b43 AD3B0000 		.4byte	0x3bad
 9750 2b47 13       		.uleb128 0x13
 9751 2b48 01       		.uleb128 0x1
 9752 2b49 51       		.byte	0x51
 9753 2b4a 02       		.uleb128 0x2
 9754 2b4b 08       		.byte	0x8
 9755 2b4c B3       		.byte	0xb3
 9756 2b4d 13       		.uleb128 0x13
 9757 2b4e 01       		.uleb128 0x1
 9758 2b4f 52       		.byte	0x52
 9759 2b50 01       		.uleb128 0x1
 9760 2b51 30       		.byte	0x30
 9761 2b52 00       		.byte	0
 9762 2b53 00       		.byte	0
 9763 2b54 00       		.byte	0
 9764 2b55 41       		.uleb128 0x41
 9765 2b56 B92F0000 		.4byte	0x2fb9
ARM GAS  C:\Users\legoc\AppData\Local\Temp\ccOlrioX.s 			page 188


 9766 2b5a A1240000 		.4byte	.LLST376
 9767 2b5e 2D       		.uleb128 0x2d
 9768 2b5f 92110000 		.4byte	0x1192
 9769 2b63 4E030000 		.4byte	.LBB645
 9770 2b67 00050000 		.4byte	.Ldebug_ranges0+0x500
 9771 2b6b 01       		.byte	0x1
 9772 2b6c 9601     		.2byte	0x196
 9773 2b6e 612D0000 		.4byte	0x2d61
 9774 2b72 11       		.uleb128 0x11
 9775 2b73 DF110000 		.4byte	0x11df
 9776 2b77 D0240000 		.4byte	.LLST392
 9777 2b7b 11       		.uleb128 0x11
 9778 2b7c D3110000 		.4byte	0x11d3
 9779 2b80 18250000 		.4byte	.LLST393
 9780 2b84 11       		.uleb128 0x11
 9781 2b85 C7110000 		.4byte	0x11c7
 9782 2b89 2C250000 		.4byte	.LLST394
 9783 2b8d 11       		.uleb128 0x11
 9784 2b8e BD110000 		.4byte	0x11bd
 9785 2b92 42250000 		.4byte	.LLST395
 9786 2b96 11       		.uleb128 0x11
 9787 2b97 B3110000 		.4byte	0x11b3
 9788 2b9b 57250000 		.4byte	.LLST396
 9789 2b9f 11       		.uleb128 0x11
 9790 2ba0 A9110000 		.4byte	0x11a9
 9791 2ba4 6C250000 		.4byte	.LLST397
 9792 2ba8 11       		.uleb128 0x11
 9793 2ba9 9F110000 		.4byte	0x119f
 9794 2bad 80250000 		.4byte	.LLST398
 9795 2bb1 1C       		.uleb128 0x1c
 9796 2bb2 00050000 		.4byte	.Ldebug_ranges0+0x500
 9797 2bb6 1D       		.uleb128 0x1d
 9798 2bb7 EB110000 		.4byte	0x11eb
 9799 2bbb 95250000 		.4byte	.LLST399
 9800 2bbf 1D       		.uleb128 0x1d
 9801 2bc0 F7110000 		.4byte	0x11f7
 9802 2bc4 AA250000 		.4byte	.LLST400
 9803 2bc8 1D       		.uleb128 0x1d
 9804 2bc9 03120000 		.4byte	0x1203
 9805 2bcd BF250000 		.4byte	.LLST401
 9806 2bd1 34       		.uleb128 0x34
 9807 2bd2 0F120000 		.4byte	0x120f
 9808 2bd6 BE2F0000 		.4byte	0x2fbe
 9809 2bda DE250000 		.4byte	.LLST403
 9810 2bde 1D       		.uleb128 0x1d
 9811 2bdf 1B120000 		.4byte	0x121b
 9812 2be3 FE250000 		.4byte	.LLST404
 9813 2be7 1D       		.uleb128 0x1d
 9814 2be8 25120000 		.4byte	0x1225
 9815 2bec 12260000 		.4byte	.LLST405
 9816 2bf0 2D       		.uleb128 0x2d
 9817 2bf1 3C010000 		.4byte	0x13c
 9818 2bf5 4E030000 		.4byte	.LBB647
 9819 2bf9 30050000 		.4byte	.Ldebug_ranges0+0x530
 9820 2bfd 01       		.byte	0x1
 9821 2bfe 2D01     		.2byte	0x12d
 9822 2c00 4A2D0000 		.4byte	0x2d4a
ARM GAS  C:\Users\legoc\AppData\Local\Temp\ccOlrioX.s 			page 189


 9823 2c04 11       		.uleb128 0x11
 9824 2c05 6C010000 		.4byte	0x16c
 9825 2c09 2F260000 		.4byte	.LLST406
 9826 2c0d 11       		.uleb128 0x11
 9827 2c0e 63010000 		.4byte	0x163
 9828 2c12 45260000 		.4byte	.LLST407
 9829 2c16 11       		.uleb128 0x11
 9830 2c17 5A010000 		.4byte	0x15a
 9831 2c1b 5A260000 		.4byte	.LLST408
 9832 2c1f 11       		.uleb128 0x11
 9833 2c20 51010000 		.4byte	0x151
 9834 2c24 6F260000 		.4byte	.LLST409
 9835 2c28 11       		.uleb128 0x11
 9836 2c29 48010000 		.4byte	0x148
 9837 2c2d 83260000 		.4byte	.LLST410
 9838 2c31 1F       		.uleb128 0x1f
 9839 2c32 EC000000 		.4byte	0xec
 9840 2c36 4E030000 		.4byte	.LBB648
 9841 2c3a 30050000 		.4byte	.Ldebug_ranges0+0x530
 9842 2c3e 01       		.byte	0x1
 9843 2c3f 95       		.byte	0x95
 9844 2c40 11       		.uleb128 0x11
 9845 2c41 1C010000 		.4byte	0x11c
 9846 2c45 2F260000 		.4byte	.LLST406
 9847 2c49 11       		.uleb128 0x11
 9848 2c4a 13010000 		.4byte	0x113
 9849 2c4e 5A260000 		.4byte	.LLST408
 9850 2c52 11       		.uleb128 0x11
 9851 2c53 0A010000 		.4byte	0x10a
 9852 2c57 45260000 		.4byte	.LLST407
 9853 2c5b 11       		.uleb128 0x11
 9854 2c5c 01010000 		.4byte	0x101
 9855 2c60 6F260000 		.4byte	.LLST409
 9856 2c64 11       		.uleb128 0x11
 9857 2c65 F8000000 		.4byte	0xf8
 9858 2c69 98260000 		.4byte	.LLST415
 9859 2c6d 1C       		.uleb128 0x1c
 9860 2c6e 30050000 		.4byte	.Ldebug_ranges0+0x530
 9861 2c72 1B       		.uleb128 0x1b
 9862 2c73 27010000 		.4byte	0x127
 9863 2c77 1B       		.uleb128 0x1b
 9864 2c78 31010000 		.4byte	0x131
 9865 2c7c 1C       		.uleb128 0x1c
 9866 2c7d 30050000 		.4byte	.Ldebug_ranges0+0x530
 9867 2c81 3D       		.uleb128 0x3d
 9868 2c82 1C010000 		.4byte	0x11c
 9869 2c86 F379     		.sleb128 -781
 9870 2c88 1A       		.uleb128 0x1a
 9871 2c89 13010000 		.4byte	0x113
 9872 2c8d 8B       		.byte	0x8b
 9873 2c8e 1A       		.uleb128 0x1a
 9874 2c8f 0A010000 		.4byte	0x10a
 9875 2c93 63       		.byte	0x63
 9876 2c94 11       		.uleb128 0x11
 9877 2c95 01010000 		.4byte	0x101
 9878 2c99 AD260000 		.4byte	.LLST416
 9879 2c9d 11       		.uleb128 0x11
ARM GAS  C:\Users\legoc\AppData\Local\Temp\ccOlrioX.s 			page 190


 9880 2c9e F8000000 		.4byte	0xf8
 9881 2ca2 CE260000 		.4byte	.LLST417
 9882 2ca6 1C       		.uleb128 0x1c
 9883 2ca7 30050000 		.4byte	.Ldebug_ranges0+0x530
 9884 2cab 45       		.uleb128 0x45
 9885 2cac 27010000 		.4byte	0x127
 9886 2cb0 7C       		.sleb128 -4
 9887 2cb1 45       		.uleb128 0x45
 9888 2cb2 31010000 		.4byte	0x131
 9889 2cb6 73       		.sleb128 -13
 9890 2cb7 12       		.uleb128 0x12
 9891 2cb8 5C030000 		.4byte	.LVL475
 9892 2cbc 92030000 		.4byte	0x392
 9893 2cc0 DC2C0000 		.4byte	0x2cdc
 9894 2cc4 13       		.uleb128 0x13
 9895 2cc5 01       		.uleb128 0x1
 9896 2cc6 50       		.byte	0x50
 9897 2cc7 02       		.uleb128 0x2
 9898 2cc8 08       		.byte	0x8
 9899 2cc9 83       		.byte	0x83
 9900 2cca 13       		.uleb128 0x13
 9901 2ccb 01       		.uleb128 0x1
 9902 2ccc 51       		.byte	0x51
 9903 2ccd 01       		.uleb128 0x1
 9904 2cce 3A       		.byte	0x3a
 9905 2ccf 13       		.uleb128 0x13
 9906 2cd0 01       		.uleb128 0x1
 9907 2cd1 52       		.byte	0x52
 9908 2cd2 02       		.uleb128 0x2
 9909 2cd3 08       		.byte	0x8
 9910 2cd4 63       		.byte	0x63
 9911 2cd5 13       		.uleb128 0x13
 9912 2cd6 01       		.uleb128 0x1
 9913 2cd7 53       		.byte	0x53
 9914 2cd8 02       		.uleb128 0x2
 9915 2cd9 08       		.byte	0x8
 9916 2cda 8B       		.byte	0x8b
 9917 2cdb 00       		.byte	0
 9918 2cdc 12       		.uleb128 0x12
 9919 2cdd 62030000 		.4byte	.LVL476
 9920 2ce1 763B0000 		.4byte	0x3b76
 9921 2ce5 EF2C0000 		.4byte	0x2cef
 9922 2ce9 13       		.uleb128 0x13
 9923 2cea 01       		.uleb128 0x1
 9924 2ceb 50       		.byte	0x50
 9925 2cec 01       		.uleb128 0x1
 9926 2ced 31       		.byte	0x31
 9927 2cee 00       		.byte	0
 9928 2cef 12       		.uleb128 0x12
 9929 2cf0 68030000 		.4byte	.LVL477
 9930 2cf4 973B0000 		.4byte	0x3b97
 9931 2cf8 022D0000 		.4byte	0x2d02
 9932 2cfc 13       		.uleb128 0x13
 9933 2cfd 01       		.uleb128 0x1
 9934 2cfe 50       		.byte	0x50
 9935 2cff 01       		.uleb128 0x1
 9936 2d00 30       		.byte	0x30
ARM GAS  C:\Users\legoc\AppData\Local\Temp\ccOlrioX.s 			page 191


 9937 2d01 00       		.byte	0
 9938 2d02 12       		.uleb128 0x12
 9939 2d03 72030000 		.4byte	.LVL480
 9940 2d07 813B0000 		.4byte	0x3b81
 9941 2d0b 162D0000 		.4byte	0x2d16
 9942 2d0f 13       		.uleb128 0x13
 9943 2d10 01       		.uleb128 0x1
 9944 2d11 50       		.byte	0x50
 9945 2d12 02       		.uleb128 0x2
 9946 2d13 09       		.byte	0x9
 9947 2d14 FC       		.byte	0xfc
 9948 2d15 00       		.byte	0
 9949 2d16 14       		.uleb128 0x14
 9950 2d17 76030000 		.4byte	.LVL481
 9951 2d1b 8C3B0000 		.4byte	0x3b8c
 9952 2d1f 12       		.uleb128 0x12
 9953 2d20 80030000 		.4byte	.LVL482
 9954 2d24 813B0000 		.4byte	0x3b81
 9955 2d28 332D0000 		.4byte	0x2d33
 9956 2d2c 13       		.uleb128 0x13
 9957 2d2d 01       		.uleb128 0x1
 9958 2d2e 50       		.byte	0x50
 9959 2d2f 02       		.uleb128 0x2
 9960 2d30 09       		.byte	0x9
 9961 2d31 F3       		.byte	0xf3
 9962 2d32 00       		.byte	0
 9963 2d33 14       		.uleb128 0x14
 9964 2d34 84030000 		.4byte	.LVL483
 9965 2d38 8C3B0000 		.4byte	0x3b8c
 9966 2d3c 14       		.uleb128 0x14
 9967 2d3d 9C030000 		.4byte	.LVL484
 9968 2d41 973B0000 		.4byte	0x3b97
 9969 2d45 00       		.byte	0
 9970 2d46 00       		.byte	0
 9971 2d47 00       		.byte	0
 9972 2d48 00       		.byte	0
 9973 2d49 00       		.byte	0
 9974 2d4a 26       		.uleb128 0x26
 9975 2d4b E4030000 		.4byte	.LVL494
 9976 2d4f AD3B0000 		.4byte	0x3bad
 9977 2d53 13       		.uleb128 0x13
 9978 2d54 01       		.uleb128 0x1
 9979 2d55 51       		.byte	0x51
 9980 2d56 02       		.uleb128 0x2
 9981 2d57 08       		.byte	0x8
 9982 2d58 3A       		.byte	0x3a
 9983 2d59 13       		.uleb128 0x13
 9984 2d5a 01       		.uleb128 0x1
 9985 2d5b 52       		.byte	0x52
 9986 2d5c 01       		.uleb128 0x1
 9987 2d5d 30       		.byte	0x30
 9988 2d5e 00       		.byte	0
 9989 2d5f 00       		.byte	0
 9990 2d60 00       		.byte	0
 9991 2d61 41       		.uleb128 0x41
 9992 2d62 D12F0000 		.4byte	0x2fd1
 9993 2d66 F0260000 		.4byte	.LLST402
ARM GAS  C:\Users\legoc\AppData\Local\Temp\ccOlrioX.s 			page 192


 9994 2d6a 2D       		.uleb128 0x2d
 9995 2d6b 92110000 		.4byte	0x1192
 9996 2d6f E4030000 		.4byte	.LBB675
 9997 2d73 58050000 		.4byte	.Ldebug_ranges0+0x558
 9998 2d77 01       		.byte	0x1
 9999 2d78 9701     		.2byte	0x197
 10000 2d7a 6C2F0000 		.4byte	0x2f6c
 10001 2d7e 11       		.uleb128 0x11
 10002 2d7f DF110000 		.4byte	0x11df
 10003 2d83 12270000 		.4byte	.LLST418
 10004 2d87 11       		.uleb128 0x11
 10005 2d88 D3110000 		.4byte	0x11d3
 10006 2d8c 5A270000 		.4byte	.LLST419
 10007 2d90 11       		.uleb128 0x11
 10008 2d91 C7110000 		.4byte	0x11c7
 10009 2d95 6E270000 		.4byte	.LLST420
 10010 2d99 11       		.uleb128 0x11
 10011 2d9a BD110000 		.4byte	0x11bd
 10012 2d9e 84270000 		.4byte	.LLST421
 10013 2da2 11       		.uleb128 0x11
 10014 2da3 B3110000 		.4byte	0x11b3
 10015 2da7 99270000 		.4byte	.LLST422
 10016 2dab 11       		.uleb128 0x11
 10017 2dac A9110000 		.4byte	0x11a9
 10018 2db0 AE270000 		.4byte	.LLST423
 10019 2db4 11       		.uleb128 0x11
 10020 2db5 9F110000 		.4byte	0x119f
 10021 2db9 C3270000 		.4byte	.LLST424
 10022 2dbd 1C       		.uleb128 0x1c
 10023 2dbe 58050000 		.4byte	.Ldebug_ranges0+0x558
 10024 2dc2 1D       		.uleb128 0x1d
 10025 2dc3 EB110000 		.4byte	0x11eb
 10026 2dc7 D8270000 		.4byte	.LLST425
 10027 2dcb 1D       		.uleb128 0x1d
 10028 2dcc F7110000 		.4byte	0x11f7
 10029 2dd0 ED270000 		.4byte	.LLST426
 10030 2dd4 1D       		.uleb128 0x1d
 10031 2dd5 03120000 		.4byte	0x1203
 10032 2dd9 02280000 		.4byte	.LLST427
 10033 2ddd 34       		.uleb128 0x34
 10034 2dde 0F120000 		.4byte	0x120f
 10035 2de2 D62F0000 		.4byte	0x2fd6
 10036 2de6 21280000 		.4byte	.LLST429
 10037 2dea 1D       		.uleb128 0x1d
 10038 2deb 1B120000 		.4byte	0x121b
 10039 2def 41280000 		.4byte	.LLST430
 10040 2df3 1D       		.uleb128 0x1d
 10041 2df4 25120000 		.4byte	0x1225
 10042 2df8 55280000 		.4byte	.LLST431
 10043 2dfc 2D       		.uleb128 0x2d
 10044 2dfd 3C010000 		.4byte	0x13c
 10045 2e01 E4030000 		.4byte	.LBB677
 10046 2e05 78050000 		.4byte	.Ldebug_ranges0+0x578
 10047 2e09 01       		.byte	0x1
 10048 2e0a 2D01     		.2byte	0x12d
 10049 2e0c 552F0000 		.4byte	0x2f55
 10050 2e10 11       		.uleb128 0x11
ARM GAS  C:\Users\legoc\AppData\Local\Temp\ccOlrioX.s 			page 193


 10051 2e11 6C010000 		.4byte	0x16c
 10052 2e15 72280000 		.4byte	.LLST432
 10053 2e19 11       		.uleb128 0x11
 10054 2e1a 63010000 		.4byte	0x163
 10055 2e1e 88280000 		.4byte	.LLST433
 10056 2e22 11       		.uleb128 0x11
 10057 2e23 5A010000 		.4byte	0x15a
 10058 2e27 9D280000 		.4byte	.LLST434
 10059 2e2b 11       		.uleb128 0x11
 10060 2e2c 51010000 		.4byte	0x151
 10061 2e30 B2280000 		.4byte	.LLST435
 10062 2e34 11       		.uleb128 0x11
 10063 2e35 48010000 		.4byte	0x148
 10064 2e39 C7280000 		.4byte	.LLST436
 10065 2e3d 1F       		.uleb128 0x1f
 10066 2e3e EC000000 		.4byte	0xec
 10067 2e42 E4030000 		.4byte	.LBB678
 10068 2e46 78050000 		.4byte	.Ldebug_ranges0+0x578
 10069 2e4a 01       		.byte	0x1
 10070 2e4b 95       		.byte	0x95
 10071 2e4c 11       		.uleb128 0x11
 10072 2e4d 1C010000 		.4byte	0x11c
 10073 2e51 72280000 		.4byte	.LLST432
 10074 2e55 11       		.uleb128 0x11
 10075 2e56 13010000 		.4byte	0x113
 10076 2e5a 9D280000 		.4byte	.LLST434
 10077 2e5e 11       		.uleb128 0x11
 10078 2e5f 0A010000 		.4byte	0x10a
 10079 2e63 88280000 		.4byte	.LLST433
 10080 2e67 11       		.uleb128 0x11
 10081 2e68 01010000 		.4byte	0x101
 10082 2e6c DC280000 		.4byte	.LLST440
 10083 2e70 11       		.uleb128 0x11
 10084 2e71 F8000000 		.4byte	0xf8
 10085 2e75 DC280000 		.4byte	.LLST440
 10086 2e79 1C       		.uleb128 0x1c
 10087 2e7a 78050000 		.4byte	.Ldebug_ranges0+0x578
 10088 2e7e 1B       		.uleb128 0x1b
 10089 2e7f 27010000 		.4byte	0x127
 10090 2e83 1B       		.uleb128 0x1b
 10091 2e84 31010000 		.4byte	0x131
 10092 2e88 1C       		.uleb128 0x1c
 10093 2e89 78050000 		.4byte	.Ldebug_ranges0+0x578
 10094 2e8d 3D       		.uleb128 0x3d
 10095 2e8e 1C010000 		.4byte	0x11c
 10096 2e92 F379     		.sleb128 -781
 10097 2e94 1A       		.uleb128 0x1a
 10098 2e95 13010000 		.4byte	0x113
 10099 2e99 8B       		.byte	0x8b
 10100 2e9a 1A       		.uleb128 0x1a
 10101 2e9b 0A010000 		.4byte	0x10a
 10102 2e9f 63       		.byte	0x63
 10103 2ea0 11       		.uleb128 0x11
 10104 2ea1 01010000 		.4byte	0x101
 10105 2ea5 F0280000 		.4byte	.LLST442
 10106 2ea9 11       		.uleb128 0x11
 10107 2eaa F8000000 		.4byte	0xf8
ARM GAS  C:\Users\legoc\AppData\Local\Temp\ccOlrioX.s 			page 194


 10108 2eae 11290000 		.4byte	.LLST443
 10109 2eb2 1C       		.uleb128 0x1c
 10110 2eb3 78050000 		.4byte	.Ldebug_ranges0+0x578
 10111 2eb7 45       		.uleb128 0x45
 10112 2eb8 27010000 		.4byte	0x127
 10113 2ebc 7C       		.sleb128 -4
 10114 2ebd 45       		.uleb128 0x45
 10115 2ebe 31010000 		.4byte	0x131
 10116 2ec2 73       		.sleb128 -13
 10117 2ec3 12       		.uleb128 0x12
 10118 2ec4 F2030000 		.4byte	.LVL496
 10119 2ec8 92030000 		.4byte	0x392
 10120 2ecc E72E0000 		.4byte	0x2ee7
 10121 2ed0 13       		.uleb128 0x13
 10122 2ed1 01       		.uleb128 0x1
 10123 2ed2 50       		.byte	0x50
 10124 2ed3 01       		.uleb128 0x1
 10125 2ed4 3A       		.byte	0x3a
 10126 2ed5 13       		.uleb128 0x13
 10127 2ed6 01       		.uleb128 0x1
 10128 2ed7 51       		.byte	0x51
 10129 2ed8 01       		.uleb128 0x1
 10130 2ed9 3A       		.byte	0x3a
 10131 2eda 13       		.uleb128 0x13
 10132 2edb 01       		.uleb128 0x1
 10133 2edc 52       		.byte	0x52
 10134 2edd 02       		.uleb128 0x2
 10135 2ede 08       		.byte	0x8
 10136 2edf 63       		.byte	0x63
 10137 2ee0 13       		.uleb128 0x13
 10138 2ee1 01       		.uleb128 0x1
 10139 2ee2 53       		.byte	0x53
 10140 2ee3 02       		.uleb128 0x2
 10141 2ee4 08       		.byte	0x8
 10142 2ee5 8B       		.byte	0x8b
 10143 2ee6 00       		.byte	0
 10144 2ee7 12       		.uleb128 0x12
 10145 2ee8 F8030000 		.4byte	.LVL497
 10146 2eec 763B0000 		.4byte	0x3b76
 10147 2ef0 FA2E0000 		.4byte	0x2efa
 10148 2ef4 13       		.uleb128 0x13
 10149 2ef5 01       		.uleb128 0x1
 10150 2ef6 50       		.byte	0x50
 10151 2ef7 01       		.uleb128 0x1
 10152 2ef8 31       		.byte	0x31
 10153 2ef9 00       		.byte	0
 10154 2efa 12       		.uleb128 0x12
 10155 2efb FE030000 		.4byte	.LVL498
 10156 2eff 973B0000 		.4byte	0x3b97
 10157 2f03 0D2F0000 		.4byte	0x2f0d
 10158 2f07 13       		.uleb128 0x13
 10159 2f08 01       		.uleb128 0x1
 10160 2f09 50       		.byte	0x50
 10161 2f0a 01       		.uleb128 0x1
 10162 2f0b 30       		.byte	0x30
 10163 2f0c 00       		.byte	0
 10164 2f0d 12       		.uleb128 0x12
ARM GAS  C:\Users\legoc\AppData\Local\Temp\ccOlrioX.s 			page 195


 10165 2f0e 08040000 		.4byte	.LVL501
 10166 2f12 813B0000 		.4byte	0x3b81
 10167 2f16 212F0000 		.4byte	0x2f21
 10168 2f1a 13       		.uleb128 0x13
 10169 2f1b 01       		.uleb128 0x1
 10170 2f1c 50       		.byte	0x50
 10171 2f1d 02       		.uleb128 0x2
 10172 2f1e 09       		.byte	0x9
 10173 2f1f FC       		.byte	0xfc
 10174 2f20 00       		.byte	0
 10175 2f21 14       		.uleb128 0x14
 10176 2f22 0C040000 		.4byte	.LVL502
 10177 2f26 8C3B0000 		.4byte	0x3b8c
 10178 2f2a 12       		.uleb128 0x12
 10179 2f2b 16040000 		.4byte	.LVL503
 10180 2f2f 813B0000 		.4byte	0x3b81
 10181 2f33 3E2F0000 		.4byte	0x2f3e
 10182 2f37 13       		.uleb128 0x13
 10183 2f38 01       		.uleb128 0x1
 10184 2f39 50       		.byte	0x50
 10185 2f3a 02       		.uleb128 0x2
 10186 2f3b 09       		.byte	0x9
 10187 2f3c F3       		.byte	0xf3
 10188 2f3d 00       		.byte	0
 10189 2f3e 14       		.uleb128 0x14
 10190 2f3f 1A040000 		.4byte	.LVL504
 10191 2f43 8C3B0000 		.4byte	0x3b8c
 10192 2f47 14       		.uleb128 0x14
 10193 2f48 32040000 		.4byte	.LVL505
 10194 2f4c 973B0000 		.4byte	0x3b97
 10195 2f50 00       		.byte	0
 10196 2f51 00       		.byte	0
 10197 2f52 00       		.byte	0
 10198 2f53 00       		.byte	0
 10199 2f54 00       		.byte	0
 10200 2f55 26       		.uleb128 0x26
 10201 2f56 78040000 		.4byte	.LVL515
 10202 2f5a AD3B0000 		.4byte	0x3bad
 10203 2f5e 13       		.uleb128 0x13
 10204 2f5f 01       		.uleb128 0x1
 10205 2f60 51       		.byte	0x51
 10206 2f61 02       		.uleb128 0x2
 10207 2f62 08       		.byte	0x8
 10208 2f63 B3       		.byte	0xb3
 10209 2f64 13       		.uleb128 0x13
 10210 2f65 01       		.uleb128 0x1
 10211 2f66 52       		.byte	0x52
 10212 2f67 01       		.uleb128 0x1
 10213 2f68 30       		.byte	0x30
 10214 2f69 00       		.byte	0
 10215 2f6a 00       		.byte	0
 10216 2f6b 00       		.byte	0
 10217 2f6c 41       		.uleb128 0x41
 10218 2f6d E92F0000 		.4byte	0x2fe9
 10219 2f71 32290000 		.4byte	.LLST428
 10220 2f75 00       		.byte	0
 10221 2f76 32       		.uleb128 0x32
ARM GAS  C:\Users\legoc\AppData\Local\Temp\ccOlrioX.s 			page 196


 10222 2f77 D1000000 		.4byte	0xd1
 10223 2f7b 892F0000 		.4byte	0x2f89
 10224 2f7f 43       		.uleb128 0x43
 10225 2f80 DF000000 		.4byte	0xdf
 10226 2f84 36270000 		.4byte	0x2736
 10227 2f88 00       		.byte	0
 10228 2f89 27       		.uleb128 0x27
 10229 2f8a DF000000 		.4byte	0xdf
 10230 2f8e 32       		.uleb128 0x32
 10231 2f8f D1000000 		.4byte	0xd1
 10232 2f93 A12F0000 		.4byte	0x2fa1
 10233 2f97 43       		.uleb128 0x43
 10234 2f98 DF000000 		.4byte	0xdf
 10235 2f9c 46290000 		.4byte	0x2946
 10236 2fa0 00       		.byte	0
 10237 2fa1 27       		.uleb128 0x27
 10238 2fa2 DF000000 		.4byte	0xdf
 10239 2fa6 32       		.uleb128 0x32
 10240 2fa7 D1000000 		.4byte	0xd1
 10241 2fab B92F0000 		.4byte	0x2fb9
 10242 2faf 43       		.uleb128 0x43
 10243 2fb0 DF000000 		.4byte	0xdf
 10244 2fb4 552B0000 		.4byte	0x2b55
 10245 2fb8 00       		.byte	0
 10246 2fb9 27       		.uleb128 0x27
 10247 2fba DF000000 		.4byte	0xdf
 10248 2fbe 32       		.uleb128 0x32
 10249 2fbf D1000000 		.4byte	0xd1
 10250 2fc3 D12F0000 		.4byte	0x2fd1
 10251 2fc7 43       		.uleb128 0x43
 10252 2fc8 DF000000 		.4byte	0xdf
 10253 2fcc 612D0000 		.4byte	0x2d61
 10254 2fd0 00       		.byte	0
 10255 2fd1 27       		.uleb128 0x27
 10256 2fd2 DF000000 		.4byte	0xdf
 10257 2fd6 32       		.uleb128 0x32
 10258 2fd7 D1000000 		.4byte	0xd1
 10259 2fdb E92F0000 		.4byte	0x2fe9
 10260 2fdf 43       		.uleb128 0x43
 10261 2fe0 DF000000 		.4byte	0xdf
 10262 2fe4 6C2F0000 		.4byte	0x2f6c
 10263 2fe8 00       		.byte	0
 10264 2fe9 27       		.uleb128 0x27
 10265 2fea DF000000 		.4byte	0xdf
 10266 2fee 44       		.uleb128 0x44
 10267 2fef 35040000 		.4byte	.LASF64
 10268 2ff3 01       		.byte	0x1
 10269 2ff4 9C01     		.2byte	0x19c
 10270 2ff6 00000000 		.4byte	.LFB17
 10271 2ffa 60000000 		.4byte	.LFE17-.LFB17
 10272 2ffe 01       		.uleb128 0x1
 10273 2fff 9C       		.byte	0x9c
 10274 3000 54310000 		.4byte	0x3154
 10275 3004 2E       		.uleb128 0x2e
 10276 3005 9E020000 		.4byte	0x29e
 10277 3009 02000000 		.4byte	.LBB704
 10278 300d 98050000 		.4byte	.Ldebug_ranges0+0x598
ARM GAS  C:\Users\legoc\AppData\Local\Temp\ccOlrioX.s 			page 197


 10279 3011 01       		.byte	0x1
 10280 3012 9F01     		.2byte	0x19f
 10281 3014 1A       		.uleb128 0x1a
 10282 3015 AA020000 		.4byte	0x2aa
 10283 3019 00       		.byte	0
 10284 301a 1F       		.uleb128 0x1f
 10285 301b 3C010000 		.4byte	0x13c
 10286 301f 02000000 		.4byte	.LBB705
 10287 3023 98050000 		.4byte	.Ldebug_ranges0+0x598
 10288 3027 01       		.byte	0x1
 10289 3028 9B       		.byte	0x9b
 10290 3029 1A       		.uleb128 0x1a
 10291 302a 6C010000 		.4byte	0x16c
 10292 302e 00       		.byte	0
 10293 302f 1A       		.uleb128 0x1a
 10294 3030 63010000 		.4byte	0x163
 10295 3034 F0       		.byte	0xf0
 10296 3035 20       		.uleb128 0x20
 10297 3036 5A010000 		.4byte	0x15a
 10298 303a 4001     		.2byte	0x140
 10299 303c 1A       		.uleb128 0x1a
 10300 303d 51010000 		.4byte	0x151
 10301 3041 00       		.byte	0
 10302 3042 1A       		.uleb128 0x1a
 10303 3043 48010000 		.4byte	0x148
 10304 3047 00       		.byte	0
 10305 3048 1F       		.uleb128 0x1f
 10306 3049 EC000000 		.4byte	0xec
 10307 304d 02000000 		.4byte	.LBB706
 10308 3051 98050000 		.4byte	.Ldebug_ranges0+0x598
 10309 3055 01       		.byte	0x1
 10310 3056 95       		.byte	0x95
 10311 3057 1A       		.uleb128 0x1a
 10312 3058 1C010000 		.4byte	0x11c
 10313 305c 00       		.byte	0
 10314 305d 20       		.uleb128 0x20
 10315 305e 13010000 		.4byte	0x113
 10316 3062 4001     		.2byte	0x140
 10317 3064 1A       		.uleb128 0x1a
 10318 3065 0A010000 		.4byte	0x10a
 10319 3069 F0       		.byte	0xf0
 10320 306a 1A       		.uleb128 0x1a
 10321 306b 01010000 		.4byte	0x101
 10322 306f 00       		.byte	0
 10323 3070 1A       		.uleb128 0x1a
 10324 3071 F8000000 		.4byte	0xf8
 10325 3075 00       		.byte	0
 10326 3076 1C       		.uleb128 0x1c
 10327 3077 98050000 		.4byte	.Ldebug_ranges0+0x598
 10328 307b 1B       		.uleb128 0x1b
 10329 307c 27010000 		.4byte	0x127
 10330 3080 1B       		.uleb128 0x1b
 10331 3081 31010000 		.4byte	0x131
 10332 3085 1C       		.uleb128 0x1c
 10333 3086 98050000 		.4byte	.Ldebug_ranges0+0x598
 10334 308a 1A       		.uleb128 0x1a
 10335 308b 1C010000 		.4byte	0x11c
ARM GAS  C:\Users\legoc\AppData\Local\Temp\ccOlrioX.s 			page 198


 10336 308f 00       		.byte	0
 10337 3090 20       		.uleb128 0x20
 10338 3091 13010000 		.4byte	0x113
 10339 3095 4001     		.2byte	0x140
 10340 3097 1A       		.uleb128 0x1a
 10341 3098 0A010000 		.4byte	0x10a
 10342 309c F0       		.byte	0xf0
 10343 309d 11       		.uleb128 0x11
 10344 309e 01010000 		.4byte	0x101
 10345 30a2 47290000 		.4byte	.LLST444
 10346 30a6 11       		.uleb128 0x11
 10347 30a7 F8000000 		.4byte	0xf8
 10348 30ab 69290000 		.4byte	.LLST445
 10349 30af 1C       		.uleb128 0x1c
 10350 30b0 98050000 		.4byte	.Ldebug_ranges0+0x598
 10351 30b4 46       		.uleb128 0x46
 10352 30b5 27010000 		.4byte	0x127
 10353 30b9 00       		.byte	0
 10354 30ba 46       		.uleb128 0x46
 10355 30bb 31010000 		.4byte	0x131
 10356 30bf 00       		.byte	0
 10357 30c0 12       		.uleb128 0x12
 10358 30c1 16000000 		.4byte	.LVL517
 10359 30c5 92030000 		.4byte	0x392
 10360 30c9 E5300000 		.4byte	0x30e5
 10361 30cd 13       		.uleb128 0x13
 10362 30ce 01       		.uleb128 0x1
 10363 30cf 50       		.byte	0x50
 10364 30d0 01       		.uleb128 0x1
 10365 30d1 30       		.byte	0x30
 10366 30d2 13       		.uleb128 0x13
 10367 30d3 01       		.uleb128 0x1
 10368 30d4 51       		.byte	0x51
 10369 30d5 01       		.uleb128 0x1
 10370 30d6 30       		.byte	0x30
 10371 30d7 13       		.uleb128 0x13
 10372 30d8 01       		.uleb128 0x1
 10373 30d9 52       		.byte	0x52
 10374 30da 02       		.uleb128 0x2
 10375 30db 08       		.byte	0x8
 10376 30dc F0       		.byte	0xf0
 10377 30dd 13       		.uleb128 0x13
 10378 30de 01       		.uleb128 0x1
 10379 30df 53       		.byte	0x53
 10380 30e0 03       		.uleb128 0x3
 10381 30e1 0A       		.byte	0xa
 10382 30e2 4001     		.2byte	0x140
 10383 30e4 00       		.byte	0
 10384 30e5 12       		.uleb128 0x12
 10385 30e6 1C000000 		.4byte	.LVL518
 10386 30ea 763B0000 		.4byte	0x3b76
 10387 30ee F9300000 		.4byte	0x30f9
 10388 30f2 13       		.uleb128 0x13
 10389 30f3 01       		.uleb128 0x1
 10390 30f4 50       		.byte	0x50
 10391 30f5 02       		.uleb128 0x2
 10392 30f6 74       		.byte	0x74
ARM GAS  C:\Users\legoc\AppData\Local\Temp\ccOlrioX.s 			page 199


 10393 30f7 00       		.sleb128 0
 10394 30f8 00       		.byte	0
 10395 30f9 12       		.uleb128 0x12
 10396 30fa 22000000 		.4byte	.LVL519
 10397 30fe 973B0000 		.4byte	0x3b97
 10398 3102 0C310000 		.4byte	0x310c
 10399 3106 13       		.uleb128 0x13
 10400 3107 01       		.uleb128 0x1
 10401 3108 50       		.byte	0x50
 10402 3109 01       		.uleb128 0x1
 10403 310a 30       		.byte	0x30
 10404 310b 00       		.byte	0
 10405 310c 12       		.uleb128 0x12
 10406 310d 2E000000 		.4byte	.LVL522
 10407 3111 813B0000 		.4byte	0x3b81
 10408 3115 1F310000 		.4byte	0x311f
 10409 3119 13       		.uleb128 0x13
 10410 311a 01       		.uleb128 0x1
 10411 311b 50       		.byte	0x50
 10412 311c 01       		.uleb128 0x1
 10413 311d 30       		.byte	0x30
 10414 311e 00       		.byte	0
 10415 311f 14       		.uleb128 0x14
 10416 3120 32000000 		.4byte	.LVL523
 10417 3124 8C3B0000 		.4byte	0x3b8c
 10418 3128 12       		.uleb128 0x12
 10419 3129 3C000000 		.4byte	.LVL524
 10420 312d 813B0000 		.4byte	0x3b81
 10421 3131 3B310000 		.4byte	0x313b
 10422 3135 13       		.uleb128 0x13
 10423 3136 01       		.uleb128 0x1
 10424 3137 50       		.byte	0x50
 10425 3138 01       		.uleb128 0x1
 10426 3139 30       		.byte	0x30
 10427 313a 00       		.byte	0
 10428 313b 14       		.uleb128 0x14
 10429 313c 40000000 		.4byte	.LVL525
 10430 3140 8C3B0000 		.4byte	0x3b8c
 10431 3144 21       		.uleb128 0x21
 10432 3145 5C000000 		.4byte	.LVL526
 10433 3149 973B0000 		.4byte	0x3b97
 10434 314d 00       		.byte	0
 10435 314e 00       		.byte	0
 10436 314f 00       		.byte	0
 10437 3150 00       		.byte	0
 10438 3151 00       		.byte	0
 10439 3152 00       		.byte	0
 10440 3153 00       		.byte	0
 10441 3154 47       		.uleb128 0x47
 10442 3155 E1030000 		.4byte	.LASF65
 10443 3159 01       		.byte	0x1
 10444 315a A201     		.2byte	0x1a2
 10445 315c 00000000 		.4byte	.LFB18
 10446 3160 6C010000 		.4byte	.LFE18-.LFB18
 10447 3164 01       		.uleb128 0x1
 10448 3165 9C       		.byte	0x9c
 10449 3166 07360000 		.4byte	0x3607
ARM GAS  C:\Users\legoc\AppData\Local\Temp\ccOlrioX.s 			page 200


 10450 316a 48       		.uleb128 0x48
 10451 316b 7800     		.ascii	"x\000"
 10452 316d 01       		.byte	0x1
 10453 316e A201     		.2byte	0x1a2
 10454 3170 AD000000 		.4byte	0xad
 10455 3174 8A290000 		.4byte	.LLST446
 10456 3178 48       		.uleb128 0x48
 10457 3179 7900     		.ascii	"y\000"
 10458 317b 01       		.byte	0x1
 10459 317c A201     		.2byte	0x1a2
 10460 317e AD000000 		.4byte	0xad
 10461 3182 AB290000 		.4byte	.LLST447
 10462 3186 3B       		.uleb128 0x3b
 10463 3187 C0030000 		.4byte	.LASF66
 10464 318b 01       		.byte	0x1
 10465 318c A801     		.2byte	0x1a8
 10466 318e A81D0000 		.4byte	0x1da8
 10467 3192 02       		.uleb128 0x2
 10468 3193 91       		.byte	0x91
 10469 3194 48       		.sleb128 -56
 10470 3195 3B       		.uleb128 0x3b
 10471 3196 53000000 		.4byte	.LASF67
 10472 319a 01       		.byte	0x1
 10473 319b A901     		.2byte	0x1a9
 10474 319d A81D0000 		.4byte	0x1da8
 10475 31a1 02       		.uleb128 0x2
 10476 31a2 91       		.byte	0x91
 10477 31a3 54       		.sleb128 -44
 10478 31a4 40       		.uleb128 0x40
 10479 31a5 35030000 		.4byte	.LASF61
 10480 31a9 01       		.byte	0x1
 10481 31aa 4A01     		.2byte	0x14a
 10482 31ac 89000000 		.4byte	0x89
 10483 31b0 B6310000 		.4byte	0x31b6
 10484 31b4 31       		.uleb128 0x31
 10485 31b5 00       		.byte	0
 10486 31b6 3B       		.uleb128 0x3b
 10487 31b7 7F040000 		.4byte	.LASF60
 10488 31bb 01       		.byte	0x1
 10489 31bc B301     		.2byte	0x1b3
 10490 31be 07360000 		.4byte	0x3607
 10491 31c2 02       		.uleb128 0x2
 10492 31c3 91       		.byte	0x91
 10493 31c4 40       		.sleb128 -64
 10494 31c5 2D       		.uleb128 0x2d
 10495 31c6 9E020000 		.4byte	0x29e
 10496 31ca 08000000 		.4byte	.LBB748
 10497 31ce C8050000 		.4byte	.Ldebug_ranges0+0x5c8
 10498 31d2 01       		.byte	0x1
 10499 31d3 A401     		.2byte	0x1a4
 10500 31d5 4B330000 		.4byte	0x334b
 10501 31d9 11       		.uleb128 0x11
 10502 31da AA020000 		.4byte	0x2aa
 10503 31de CC290000 		.4byte	.LLST448
 10504 31e2 1F       		.uleb128 0x1f
 10505 31e3 3C010000 		.4byte	0x13c
 10506 31e7 08000000 		.4byte	.LBB749
ARM GAS  C:\Users\legoc\AppData\Local\Temp\ccOlrioX.s 			page 201


 10507 31eb C8050000 		.4byte	.Ldebug_ranges0+0x5c8
 10508 31ef 01       		.byte	0x1
 10509 31f0 9B       		.byte	0x9b
 10510 31f1 11       		.uleb128 0x11
 10511 31f2 6C010000 		.4byte	0x16c
 10512 31f6 CC290000 		.4byte	.LLST448
 10513 31fa 11       		.uleb128 0x11
 10514 31fb 63010000 		.4byte	0x163
 10515 31ff E0290000 		.4byte	.LLST450
 10516 3203 11       		.uleb128 0x11
 10517 3204 5A010000 		.4byte	0x15a
 10518 3208 F5290000 		.4byte	.LLST451
 10519 320c 11       		.uleb128 0x11
 10520 320d 51010000 		.4byte	0x151
 10521 3211 CC290000 		.4byte	.LLST448
 10522 3215 11       		.uleb128 0x11
 10523 3216 48010000 		.4byte	0x148
 10524 321a CC290000 		.4byte	.LLST448
 10525 321e 1F       		.uleb128 0x1f
 10526 321f EC000000 		.4byte	0xec
 10527 3223 08000000 		.4byte	.LBB750
 10528 3227 C8050000 		.4byte	.Ldebug_ranges0+0x5c8
 10529 322b 01       		.byte	0x1
 10530 322c 95       		.byte	0x95
 10531 322d 11       		.uleb128 0x11
 10532 322e 1C010000 		.4byte	0x11c
 10533 3232 CC290000 		.4byte	.LLST448
 10534 3236 11       		.uleb128 0x11
 10535 3237 13010000 		.4byte	0x113
 10536 323b F5290000 		.4byte	.LLST451
 10537 323f 11       		.uleb128 0x11
 10538 3240 0A010000 		.4byte	0x10a
 10539 3244 E0290000 		.4byte	.LLST450
 10540 3248 11       		.uleb128 0x11
 10541 3249 01010000 		.4byte	0x101
 10542 324d CC290000 		.4byte	.LLST448
 10543 3251 11       		.uleb128 0x11
 10544 3252 F8000000 		.4byte	0xf8
 10545 3256 CC290000 		.4byte	.LLST448
 10546 325a 1C       		.uleb128 0x1c
 10547 325b C8050000 		.4byte	.Ldebug_ranges0+0x5c8
 10548 325f 1B       		.uleb128 0x1b
 10549 3260 27010000 		.4byte	0x127
 10550 3264 1B       		.uleb128 0x1b
 10551 3265 31010000 		.4byte	0x131
 10552 3269 1C       		.uleb128 0x1c
 10553 326a C8050000 		.4byte	.Ldebug_ranges0+0x5c8
 10554 326e 11       		.uleb128 0x11
 10555 326f 1C010000 		.4byte	0x11c
 10556 3273 CC290000 		.4byte	.LLST448
 10557 3277 11       		.uleb128 0x11
 10558 3278 13010000 		.4byte	0x113
 10559 327c F5290000 		.4byte	.LLST451
 10560 3280 11       		.uleb128 0x11
 10561 3281 0A010000 		.4byte	0x10a
 10562 3285 E0290000 		.4byte	.LLST450
 10563 3289 11       		.uleb128 0x11
ARM GAS  C:\Users\legoc\AppData\Local\Temp\ccOlrioX.s 			page 202


 10564 328a 01010000 		.4byte	0x101
 10565 328e 0B2A0000 		.4byte	.LLST462
 10566 3292 11       		.uleb128 0x11
 10567 3293 F8000000 		.4byte	0xf8
 10568 3297 2D2A0000 		.4byte	.LLST463
 10569 329b 1C       		.uleb128 0x1c
 10570 329c C8050000 		.4byte	.Ldebug_ranges0+0x5c8
 10571 32a0 1D       		.uleb128 0x1d
 10572 32a1 27010000 		.4byte	0x127
 10573 32a5 4E2A0000 		.4byte	.LLST464
 10574 32a9 1D       		.uleb128 0x1d
 10575 32aa 31010000 		.4byte	0x131
 10576 32ae 4E2A0000 		.4byte	.LLST464
 10577 32b2 12       		.uleb128 0x12
 10578 32b3 1A000000 		.4byte	.LVL530
 10579 32b7 92030000 		.4byte	0x392
 10580 32bb D7320000 		.4byte	0x32d7
 10581 32bf 13       		.uleb128 0x13
 10582 32c0 01       		.uleb128 0x1
 10583 32c1 50       		.byte	0x50
 10584 32c2 01       		.uleb128 0x1
 10585 32c3 30       		.byte	0x30
 10586 32c4 13       		.uleb128 0x13
 10587 32c5 01       		.uleb128 0x1
 10588 32c6 51       		.byte	0x51
 10589 32c7 01       		.uleb128 0x1
 10590 32c8 30       		.byte	0x30
 10591 32c9 13       		.uleb128 0x13
 10592 32ca 01       		.uleb128 0x1
 10593 32cb 52       		.byte	0x52
 10594 32cc 02       		.uleb128 0x2
 10595 32cd 08       		.byte	0x8
 10596 32ce F0       		.byte	0xf0
 10597 32cf 13       		.uleb128 0x13
 10598 32d0 01       		.uleb128 0x1
 10599 32d1 53       		.byte	0x53
 10600 32d2 03       		.uleb128 0x3
 10601 32d3 0A       		.byte	0xa
 10602 32d4 4001     		.2byte	0x140
 10603 32d6 00       		.byte	0
 10604 32d7 12       		.uleb128 0x12
 10605 32d8 20000000 		.4byte	.LVL531
 10606 32dc 763B0000 		.4byte	0x3b76
 10607 32e0 EA320000 		.4byte	0x32ea
 10608 32e4 13       		.uleb128 0x13
 10609 32e5 01       		.uleb128 0x1
 10610 32e6 50       		.byte	0x50
 10611 32e7 01       		.uleb128 0x1
 10612 32e8 31       		.byte	0x31
 10613 32e9 00       		.byte	0
 10614 32ea 12       		.uleb128 0x12
 10615 32eb 26000000 		.4byte	.LVL532
 10616 32ef 973B0000 		.4byte	0x3b97
 10617 32f3 FD320000 		.4byte	0x32fd
 10618 32f7 13       		.uleb128 0x13
 10619 32f8 01       		.uleb128 0x1
 10620 32f9 50       		.byte	0x50
ARM GAS  C:\Users\legoc\AppData\Local\Temp\ccOlrioX.s 			page 203


 10621 32fa 01       		.uleb128 0x1
 10622 32fb 30       		.byte	0x30
 10623 32fc 00       		.byte	0
 10624 32fd 12       		.uleb128 0x12
 10625 32fe 32000000 		.4byte	.LVL535
 10626 3302 813B0000 		.4byte	0x3b81
 10627 3306 10330000 		.4byte	0x3310
 10628 330a 13       		.uleb128 0x13
 10629 330b 01       		.uleb128 0x1
 10630 330c 50       		.byte	0x50
 10631 330d 01       		.uleb128 0x1
 10632 330e 30       		.byte	0x30
 10633 330f 00       		.byte	0
 10634 3310 14       		.uleb128 0x14
 10635 3311 36000000 		.4byte	.LVL536
 10636 3315 8C3B0000 		.4byte	0x3b8c
 10637 3319 12       		.uleb128 0x12
 10638 331a 40000000 		.4byte	.LVL537
 10639 331e 813B0000 		.4byte	0x3b81
 10640 3322 2C330000 		.4byte	0x332c
 10641 3326 13       		.uleb128 0x13
 10642 3327 01       		.uleb128 0x1
 10643 3328 50       		.byte	0x50
 10644 3329 01       		.uleb128 0x1
 10645 332a 30       		.byte	0x30
 10646 332b 00       		.byte	0
 10647 332c 14       		.uleb128 0x14
 10648 332d 44000000 		.4byte	.LVL538
 10649 3331 8C3B0000 		.4byte	0x3b8c
 10650 3335 26       		.uleb128 0x26
 10651 3336 5E000000 		.4byte	.LVL539
 10652 333a 973B0000 		.4byte	0x3b97
 10653 333e 13       		.uleb128 0x13
 10654 333f 01       		.uleb128 0x1
 10655 3340 50       		.byte	0x50
 10656 3341 02       		.uleb128 0x2
 10657 3342 74       		.byte	0x74
 10658 3343 00       		.sleb128 0
 10659 3344 00       		.byte	0
 10660 3345 00       		.byte	0
 10661 3346 00       		.byte	0
 10662 3347 00       		.byte	0
 10663 3348 00       		.byte	0
 10664 3349 00       		.byte	0
 10665 334a 00       		.byte	0
 10666 334b 2D       		.uleb128 0x2d
 10667 334c 92110000 		.4byte	0x1192
 10668 3350 AC000000 		.4byte	.LBB771
 10669 3354 F0050000 		.4byte	.Ldebug_ranges0+0x5f0
 10670 3358 01       		.byte	0x1
 10671 3359 B401     		.2byte	0x1b4
 10672 335b 4B350000 		.4byte	0x354b
 10673 335f 11       		.uleb128 0x11
 10674 3360 DF110000 		.4byte	0x11df
 10675 3364 622A0000 		.4byte	.LLST466
 10676 3368 11       		.uleb128 0x11
 10677 3369 D3110000 		.4byte	0x11d3
ARM GAS  C:\Users\legoc\AppData\Local\Temp\ccOlrioX.s 			page 204


 10678 336d B42A0000 		.4byte	.LLST467
 10679 3371 11       		.uleb128 0x11
 10680 3372 C7110000 		.4byte	0x11c7
 10681 3376 D42A0000 		.4byte	.LLST468
 10682 337a 11       		.uleb128 0x11
 10683 337b BD110000 		.4byte	0x11bd
 10684 337f F62A0000 		.4byte	.LLST469
 10685 3383 11       		.uleb128 0x11
 10686 3384 B3110000 		.4byte	0x11b3
 10687 3388 162B0000 		.4byte	.LLST470
 10688 338c 11       		.uleb128 0x11
 10689 338d A9110000 		.4byte	0x11a9
 10690 3391 B42A0000 		.4byte	.LLST467
 10691 3395 11       		.uleb128 0x11
 10692 3396 9F110000 		.4byte	0x119f
 10693 339a B42A0000 		.4byte	.LLST467
 10694 339e 1C       		.uleb128 0x1c
 10695 339f F0050000 		.4byte	.Ldebug_ranges0+0x5f0
 10696 33a3 1D       		.uleb128 0x1d
 10697 33a4 EB110000 		.4byte	0x11eb
 10698 33a8 382B0000 		.4byte	.LLST473
 10699 33ac 1D       		.uleb128 0x1d
 10700 33ad F7110000 		.4byte	0x11f7
 10701 33b1 582B0000 		.4byte	.LLST474
 10702 33b5 1D       		.uleb128 0x1d
 10703 33b6 03120000 		.4byte	0x1203
 10704 33ba 782B0000 		.4byte	.LLST475
 10705 33be 34       		.uleb128 0x34
 10706 33bf 0F120000 		.4byte	0x120f
 10707 33c3 17360000 		.4byte	0x3617
 10708 33c7 A32B0000 		.4byte	.LLST477
 10709 33cb 1D       		.uleb128 0x1d
 10710 33cc 1B120000 		.4byte	0x121b
 10711 33d0 CF2B0000 		.4byte	.LLST478
 10712 33d4 1B       		.uleb128 0x1b
 10713 33d5 25120000 		.4byte	0x1225
 10714 33d9 2D       		.uleb128 0x2d
 10715 33da 3C010000 		.4byte	0x13c
 10716 33de AC000000 		.4byte	.LBB773
 10717 33e2 28060000 		.4byte	.Ldebug_ranges0+0x628
 10718 33e6 01       		.byte	0x1
 10719 33e7 2D01     		.2byte	0x12d
 10720 33e9 35350000 		.4byte	0x3535
 10721 33ed 11       		.uleb128 0x11
 10722 33ee 6C010000 		.4byte	0x16c
 10723 33f2 EF2B0000 		.4byte	.LLST479
 10724 33f6 11       		.uleb128 0x11
 10725 33f7 63010000 		.4byte	0x163
 10726 33fb 042C0000 		.4byte	.LLST480
 10727 33ff 11       		.uleb128 0x11
 10728 3400 5A010000 		.4byte	0x15a
 10729 3404 182C0000 		.4byte	.LLST481
 10730 3408 11       		.uleb128 0x11
 10731 3409 51010000 		.4byte	0x151
 10732 340d 2D2C0000 		.4byte	.LLST482
 10733 3411 11       		.uleb128 0x11
 10734 3412 48010000 		.4byte	0x148
ARM GAS  C:\Users\legoc\AppData\Local\Temp\ccOlrioX.s 			page 205


 10735 3416 2D2C0000 		.4byte	.LLST482
 10736 341a 1F       		.uleb128 0x1f
 10737 341b EC000000 		.4byte	0xec
 10738 341f AC000000 		.4byte	.LBB774
 10739 3423 28060000 		.4byte	.Ldebug_ranges0+0x628
 10740 3427 01       		.byte	0x1
 10741 3428 95       		.byte	0x95
 10742 3429 11       		.uleb128 0x11
 10743 342a 1C010000 		.4byte	0x11c
 10744 342e EF2B0000 		.4byte	.LLST479
 10745 3432 11       		.uleb128 0x11
 10746 3433 13010000 		.4byte	0x113
 10747 3437 182C0000 		.4byte	.LLST481
 10748 343b 11       		.uleb128 0x11
 10749 343c 0A010000 		.4byte	0x10a
 10750 3440 042C0000 		.4byte	.LLST480
 10751 3444 11       		.uleb128 0x11
 10752 3445 01010000 		.4byte	0x101
 10753 3449 412C0000 		.4byte	.LLST487
 10754 344d 11       		.uleb128 0x11
 10755 344e F8000000 		.4byte	0xf8
 10756 3452 572C0000 		.4byte	.LLST488
 10757 3456 1C       		.uleb128 0x1c
 10758 3457 28060000 		.4byte	.Ldebug_ranges0+0x628
 10759 345b 1B       		.uleb128 0x1b
 10760 345c 27010000 		.4byte	0x127
 10761 3460 1B       		.uleb128 0x1b
 10762 3461 31010000 		.4byte	0x131
 10763 3465 1C       		.uleb128 0x1c
 10764 3466 28060000 		.4byte	.Ldebug_ranges0+0x628
 10765 346a 3D       		.uleb128 0x3d
 10766 346b 1C010000 		.4byte	0x11c
 10767 346f 7F       		.sleb128 -1
 10768 3470 1A       		.uleb128 0x1a
 10769 3471 13010000 		.4byte	0x113
 10770 3475 32       		.byte	0x32
 10771 3476 1A       		.uleb128 0x1a
 10772 3477 0A010000 		.4byte	0x10a
 10773 347b 1E       		.byte	0x1e
 10774 347c 11       		.uleb128 0x11
 10775 347d 01010000 		.4byte	0x101
 10776 3481 6C2C0000 		.4byte	.LLST489
 10777 3485 11       		.uleb128 0x11
 10778 3486 F8000000 		.4byte	0xf8
 10779 348a 8F2C0000 		.4byte	.LLST490
 10780 348e 1C       		.uleb128 0x1c
 10781 348f 28060000 		.4byte	.Ldebug_ranges0+0x628
 10782 3493 45       		.uleb128 0x45
 10783 3494 27010000 		.4byte	0x127
 10784 3498 7F       		.sleb128 -1
 10785 3499 45       		.uleb128 0x45
 10786 349a 31010000 		.4byte	0x131
 10787 349e 7F       		.sleb128 -1
 10788 349f 12       		.uleb128 0x12
 10789 34a0 C6000000 		.4byte	.LVL546
 10790 34a4 92030000 		.4byte	0x392
 10791 34a8 C5340000 		.4byte	0x34c5
ARM GAS  C:\Users\legoc\AppData\Local\Temp\ccOlrioX.s 			page 206


 10792 34ac 13       		.uleb128 0x13
 10793 34ad 01       		.uleb128 0x1
 10794 34ae 50       		.byte	0x50
 10795 34af 02       		.uleb128 0x2
 10796 34b0 08       		.byte	0x8
 10797 34b1 D2       		.byte	0xd2
 10798 34b2 13       		.uleb128 0x13
 10799 34b3 01       		.uleb128 0x1
 10800 34b4 51       		.byte	0x51
 10801 34b5 03       		.uleb128 0x3
 10802 34b6 0A       		.byte	0xa
 10803 34b7 0E01     		.2byte	0x10e
 10804 34b9 13       		.uleb128 0x13
 10805 34ba 01       		.uleb128 0x1
 10806 34bb 52       		.byte	0x52
 10807 34bc 01       		.uleb128 0x1
 10808 34bd 4E       		.byte	0x4e
 10809 34be 13       		.uleb128 0x13
 10810 34bf 01       		.uleb128 0x1
 10811 34c0 53       		.byte	0x53
 10812 34c1 02       		.uleb128 0x2
 10813 34c2 08       		.byte	0x8
 10814 34c3 32       		.byte	0x32
 10815 34c4 00       		.byte	0
 10816 34c5 12       		.uleb128 0x12
 10817 34c6 CC000000 		.4byte	.LVL547
 10818 34ca 763B0000 		.4byte	0x3b76
 10819 34ce D9340000 		.4byte	0x34d9
 10820 34d2 13       		.uleb128 0x13
 10821 34d3 01       		.uleb128 0x1
 10822 34d4 50       		.byte	0x50
 10823 34d5 02       		.uleb128 0x2
 10824 34d6 74       		.byte	0x74
 10825 34d7 00       		.sleb128 0
 10826 34d8 00       		.byte	0
 10827 34d9 12       		.uleb128 0x12
 10828 34da D2000000 		.4byte	.LVL548
 10829 34de 973B0000 		.4byte	0x3b97
 10830 34e2 ED340000 		.4byte	0x34ed
 10831 34e6 13       		.uleb128 0x13
 10832 34e7 01       		.uleb128 0x1
 10833 34e8 50       		.byte	0x50
 10834 34e9 02       		.uleb128 0x2
 10835 34ea 76       		.byte	0x76
 10836 34eb 00       		.sleb128 0
 10837 34ec 00       		.byte	0
 10838 34ed 12       		.uleb128 0x12
 10839 34ee DC000000 		.4byte	.LVL551
 10840 34f2 813B0000 		.4byte	0x3b81
 10841 34f6 01350000 		.4byte	0x3501
 10842 34fa 13       		.uleb128 0x13
 10843 34fb 01       		.uleb128 0x1
 10844 34fc 50       		.byte	0x50
 10845 34fd 02       		.uleb128 0x2
 10846 34fe 09       		.byte	0x9
 10847 34ff FF       		.byte	0xff
 10848 3500 00       		.byte	0
ARM GAS  C:\Users\legoc\AppData\Local\Temp\ccOlrioX.s 			page 207


 10849 3501 14       		.uleb128 0x14
 10850 3502 E0000000 		.4byte	.LVL552
 10851 3506 8C3B0000 		.4byte	0x3b8c
 10852 350a 12       		.uleb128 0x12
 10853 350b EA000000 		.4byte	.LVL553
 10854 350f 813B0000 		.4byte	0x3b81
 10855 3513 1E350000 		.4byte	0x351e
 10856 3517 13       		.uleb128 0x13
 10857 3518 01       		.uleb128 0x1
 10858 3519 50       		.byte	0x50
 10859 351a 02       		.uleb128 0x2
 10860 351b 09       		.byte	0x9
 10861 351c FF       		.byte	0xff
 10862 351d 00       		.byte	0
 10863 351e 14       		.uleb128 0x14
 10864 351f EE000000 		.4byte	.LVL554
 10865 3523 8C3B0000 		.4byte	0x3b8c
 10866 3527 14       		.uleb128 0x14
 10867 3528 06010000 		.4byte	.LVL555
 10868 352c 973B0000 		.4byte	0x3b97
 10869 3530 00       		.byte	0
 10870 3531 00       		.byte	0
 10871 3532 00       		.byte	0
 10872 3533 00       		.byte	0
 10873 3534 00       		.byte	0
 10874 3535 26       		.uleb128 0x26
 10875 3536 52010000 		.4byte	.LVL566
 10876 353a AD3B0000 		.4byte	0x3bad
 10877 353e 13       		.uleb128 0x13
 10878 353f 01       		.uleb128 0x1
 10879 3540 51       		.byte	0x51
 10880 3541 01       		.uleb128 0x1
 10881 3542 3E       		.byte	0x3e
 10882 3543 13       		.uleb128 0x13
 10883 3544 01       		.uleb128 0x1
 10884 3545 52       		.byte	0x52
 10885 3546 01       		.uleb128 0x1
 10886 3547 30       		.byte	0x30
 10887 3548 00       		.byte	0
 10888 3549 00       		.byte	0
 10889 354a 00       		.byte	0
 10890 354b 41       		.uleb128 0x41
 10891 354c 2A360000 		.4byte	0x362a
 10892 3550 B02C0000 		.4byte	.LLST476
 10893 3554 12       		.uleb128 0x12
 10894 3555 70000000 		.4byte	.LVL540
 10895 3559 C43B0000 		.4byte	0x3bc4
 10896 355d 73350000 		.4byte	0x3573
 10897 3561 13       		.uleb128 0x13
 10898 3562 01       		.uleb128 0x1
 10899 3563 50       		.byte	0x50
 10900 3564 02       		.uleb128 0x2
 10901 3565 79       		.byte	0x79
 10902 3566 00       		.sleb128 0
 10903 3567 13       		.uleb128 0x13
 10904 3568 01       		.uleb128 0x1
 10905 3569 51       		.byte	0x51
ARM GAS  C:\Users\legoc\AppData\Local\Temp\ccOlrioX.s 			page 208


 10906 356a 02       		.uleb128 0x2
 10907 356b 7D       		.byte	0x7d
 10908 356c 28       		.sleb128 40
 10909 356d 13       		.uleb128 0x13
 10910 356e 01       		.uleb128 0x1
 10911 356f 52       		.byte	0x52
 10912 3570 01       		.uleb128 0x1
 10913 3571 3A       		.byte	0x3a
 10914 3572 00       		.byte	0
 10915 3573 12       		.uleb128 0x12
 10916 3574 7C000000 		.4byte	.LVL541
 10917 3578 C43B0000 		.4byte	0x3bc4
 10918 357c 92350000 		.4byte	0x3592
 10919 3580 13       		.uleb128 0x13
 10920 3581 01       		.uleb128 0x1
 10921 3582 50       		.byte	0x50
 10922 3583 02       		.uleb128 0x2
 10923 3584 78       		.byte	0x78
 10924 3585 00       		.sleb128 0
 10925 3586 13       		.uleb128 0x13
 10926 3587 01       		.uleb128 0x1
 10927 3588 51       		.byte	0x51
 10928 3589 02       		.uleb128 0x2
 10929 358a 7D       		.byte	0x7d
 10930 358b 34       		.sleb128 52
 10931 358c 13       		.uleb128 0x13
 10932 358d 01       		.uleb128 0x1
 10933 358e 52       		.byte	0x52
 10934 358f 01       		.uleb128 0x1
 10935 3590 3A       		.byte	0x3a
 10936 3591 00       		.byte	0
 10937 3592 12       		.uleb128 0x12
 10938 3593 8C000000 		.4byte	.LVL542
 10939 3597 AD3B0000 		.4byte	0x3bad
 10940 359b B9350000 		.4byte	0x35b9
 10941 359f 13       		.uleb128 0x13
 10942 35a0 01       		.uleb128 0x1
 10943 35a1 50       		.byte	0x50
 10944 35a2 02       		.uleb128 0x2
 10945 35a3 08       		.byte	0x8
 10946 35a4 64       		.byte	0x64
 10947 35a5 13       		.uleb128 0x13
 10948 35a6 01       		.uleb128 0x1
 10949 35a7 51       		.byte	0x51
 10950 35a8 02       		.uleb128 0x2
 10951 35a9 08       		.byte	0x8
 10952 35aa 6E       		.byte	0x6e
 10953 35ab 13       		.uleb128 0x13
 10954 35ac 01       		.uleb128 0x1
 10955 35ad 52       		.byte	0x52
 10956 35ae 03       		.uleb128 0x3
 10957 35af 0A       		.byte	0xa
 10958 35b0 FFFF     		.2byte	0xffff
 10959 35b2 13       		.uleb128 0x13
 10960 35b3 01       		.uleb128 0x1
 10961 35b4 53       		.byte	0x53
 10962 35b5 02       		.uleb128 0x2
ARM GAS  C:\Users\legoc\AppData\Local\Temp\ccOlrioX.s 			page 209


 10963 35b6 7D       		.byte	0x7d
 10964 35b7 28       		.sleb128 40
 10965 35b8 00       		.byte	0
 10966 35b9 12       		.uleb128 0x12
 10967 35ba 9C000000 		.4byte	.LVL543
 10968 35be AD3B0000 		.4byte	0x3bad
 10969 35c2 E0350000 		.4byte	0x35e0
 10970 35c6 13       		.uleb128 0x13
 10971 35c7 01       		.uleb128 0x1
 10972 35c8 50       		.byte	0x50
 10973 35c9 02       		.uleb128 0x2
 10974 35ca 08       		.byte	0x8
 10975 35cb 64       		.byte	0x64
 10976 35cc 13       		.uleb128 0x13
 10977 35cd 01       		.uleb128 0x1
 10978 35ce 51       		.byte	0x51
 10979 35cf 02       		.uleb128 0x2
 10980 35d0 08       		.byte	0x8
 10981 35d1 64       		.byte	0x64
 10982 35d2 13       		.uleb128 0x13
 10983 35d3 01       		.uleb128 0x1
 10984 35d4 52       		.byte	0x52
 10985 35d5 03       		.uleb128 0x3
 10986 35d6 0A       		.byte	0xa
 10987 35d7 FFFF     		.2byte	0xffff
 10988 35d9 13       		.uleb128 0x13
 10989 35da 01       		.uleb128 0x1
 10990 35db 53       		.byte	0x53
 10991 35dc 02       		.uleb128 0x2
 10992 35dd 7D       		.byte	0x7d
 10993 35de 34       		.sleb128 52
 10994 35df 00       		.byte	0
 10995 35e0 26       		.uleb128 0x26
 10996 35e1 AA000000 		.4byte	.LVL544
 10997 35e5 AD3B0000 		.4byte	0x3bad
 10998 35e9 13       		.uleb128 0x13
 10999 35ea 01       		.uleb128 0x1
 11000 35eb 50       		.byte	0x50
 11001 35ec 02       		.uleb128 0x2
 11002 35ed 08       		.byte	0x8
 11003 35ee 64       		.byte	0x64
 11004 35ef 13       		.uleb128 0x13
 11005 35f0 01       		.uleb128 0x1
 11006 35f1 51       		.byte	0x51
 11007 35f2 02       		.uleb128 0x2
 11008 35f3 08       		.byte	0x8
 11009 35f4 C8       		.byte	0xc8
 11010 35f5 13       		.uleb128 0x13
 11011 35f6 01       		.uleb128 0x1
 11012 35f7 52       		.byte	0x52
 11013 35f8 03       		.uleb128 0x3
 11014 35f9 0A       		.byte	0xa
 11015 35fa FFFF     		.2byte	0xffff
 11016 35fc 13       		.uleb128 0x13
 11017 35fd 01       		.uleb128 0x1
 11018 35fe 53       		.byte	0x53
 11019 35ff 05       		.uleb128 0x5
ARM GAS  C:\Users\legoc\AppData\Local\Temp\ccOlrioX.s 			page 210


 11020 3600 03       		.byte	0x3
 11021 3601 7C000000 		.4byte	.LC12
 11022 3605 00       		.byte	0
 11023 3606 00       		.byte	0
 11024 3607 32       		.uleb128 0x32
 11025 3608 D1000000 		.4byte	0xd1
 11026 360c 17360000 		.4byte	0x3617
 11027 3610 42       		.uleb128 0x42
 11028 3611 DF000000 		.4byte	0xdf
 11029 3615 06       		.byte	0x6
 11030 3616 00       		.byte	0
 11031 3617 32       		.uleb128 0x32
 11032 3618 D1000000 		.4byte	0xd1
 11033 361c 2A360000 		.4byte	0x362a
 11034 3620 43       		.uleb128 0x43
 11035 3621 DF000000 		.4byte	0xdf
 11036 3625 4B350000 		.4byte	0x354b
 11037 3629 00       		.byte	0
 11038 362a 27       		.uleb128 0x27
 11039 362b DF000000 		.4byte	0xdf
 11040 362f 32       		.uleb128 0x32
 11041 3630 440B0000 		.4byte	0xb44
 11042 3634 3F360000 		.4byte	0x363f
 11043 3638 42       		.uleb128 0x42
 11044 3639 DF000000 		.4byte	0xdf
 11045 363d 19       		.byte	0x19
 11046 363e 00       		.byte	0
 11047 363f 49       		.uleb128 0x49
 11048 3640 5F020000 		.4byte	.LASF68
 11049 3644 04       		.byte	0x4
 11050 3645 0F       		.byte	0xf
 11051 3646 65360000 		.4byte	0x3665
 11052 364a 1A       		.byte	0x1a
 11053 364b 03       		.byte	0x3
 11054 364c 01       		.byte	0x1
 11055 364d 02       		.byte	0x2
 11056 364e 03       		.byte	0x3
 11057 364f 02       		.byte	0x2
 11058 3650 00       		.byte	0
 11059 3651 04       		.byte	0x4
 11060 3652 03       		.byte	0x3
 11061 3653 00       		.byte	0
 11062 3654 01       		.byte	0x1
 11063 3655 04       		.byte	0x4
 11064 3656 03       		.byte	0x3
 11065 3657 00       		.byte	0
 11066 3658 02       		.byte	0x2
 11067 3659 04       		.byte	0x4
 11068 365a 03       		.byte	0x3
 11069 365b 00       		.byte	0
 11070 365c 03       		.byte	0x3
 11071 365d 04       		.byte	0x4
 11072 365e 02       		.byte	0x2
 11073 365f 00       		.byte	0
 11074 3660 04       		.byte	0x4
 11075 3661 03       		.byte	0x3
 11076 3662 01       		.byte	0x1
ARM GAS  C:\Users\legoc\AppData\Local\Temp\ccOlrioX.s 			page 211


 11077 3663 02       		.byte	0x2
 11078 3664 03       		.byte	0x3
 11079 3665 27       		.uleb128 0x27
 11080 3666 2F360000 		.4byte	0x362f
 11081 366a 32       		.uleb128 0x32
 11082 366b 440B0000 		.4byte	0xb44
 11083 366f 7A360000 		.4byte	0x367a
 11084 3673 42       		.uleb128 0x42
 11085 3674 DF000000 		.4byte	0xdf
 11086 3678 12       		.byte	0x12
 11087 3679 00       		.byte	0
 11088 367a 49       		.uleb128 0x49
 11089 367b 66020000 		.4byte	.LASF69
 11090 367f 04       		.byte	0x4
 11091 3680 21       		.byte	0x21
 11092 3681 99360000 		.4byte	0x3699
 11093 3685 13       		.byte	0x13
 11094 3686 05       		.byte	0x5
 11095 3687 00       		.byte	0
 11096 3688 01       		.byte	0x1
 11097 3689 02       		.byte	0x2
 11098 368a 03       		.byte	0x3
 11099 368b 04       		.byte	0x4
 11100 368c 01       		.byte	0x1
 11101 368d 02       		.byte	0x2
 11102 368e 01       		.byte	0x1
 11103 368f 02       		.byte	0x2
 11104 3690 01       		.byte	0x1
 11105 3691 02       		.byte	0x2
 11106 3692 01       		.byte	0x1
 11107 3693 02       		.byte	0x2
 11108 3694 02       		.byte	0x2
 11109 3695 01       		.byte	0x1
 11110 3696 02       		.byte	0x2
 11111 3697 01       		.byte	0x1
 11112 3698 02       		.byte	0x2
 11113 3699 27       		.uleb128 0x27
 11114 369a 6A360000 		.4byte	0x366a
 11115 369e 32       		.uleb128 0x32
 11116 369f 440B0000 		.4byte	0xb44
 11117 36a3 AE360000 		.4byte	0x36ae
 11118 36a7 42       		.uleb128 0x42
 11119 36a8 DF000000 		.4byte	0xdf
 11120 36ac 16       		.byte	0x16
 11121 36ad 00       		.byte	0
 11122 36ae 49       		.uleb128 0x49
 11123 36af 6D020000 		.4byte	.LASF70
 11124 36b3 04       		.byte	0x4
 11125 36b4 33       		.byte	0x33
 11126 36b5 D1360000 		.4byte	0x36d1
 11127 36b9 17       		.byte	0x17
 11128 36ba 05       		.byte	0x5
 11129 36bb 00       		.byte	0
 11130 36bc 01       		.byte	0x1
 11131 36bd 02       		.byte	0x2
 11132 36be 03       		.byte	0x3
 11133 36bf 04       		.byte	0x4
ARM GAS  C:\Users\legoc\AppData\Local\Temp\ccOlrioX.s 			page 212


 11134 36c0 02       		.byte	0x2
 11135 36c1 00       		.byte	0
 11136 36c2 04       		.byte	0x4
 11137 36c3 01       		.byte	0x1
 11138 36c4 01       		.byte	0x1
 11139 36c5 02       		.byte	0x2
 11140 36c6 02       		.byte	0x2
 11141 36c7 03       		.byte	0x3
 11142 36c8 01       		.byte	0x1
 11143 36c9 04       		.byte	0x4
 11144 36ca 02       		.byte	0x2
 11145 36cb 00       		.byte	0
 11146 36cc 04       		.byte	0x4
 11147 36cd 03       		.byte	0x3
 11148 36ce 01       		.byte	0x1
 11149 36cf 02       		.byte	0x2
 11150 36d0 03       		.byte	0x3
 11151 36d1 27       		.uleb128 0x27
 11152 36d2 9E360000 		.4byte	0x369e
 11153 36d6 32       		.uleb128 0x32
 11154 36d7 440B0000 		.4byte	0xb44
 11155 36db E6360000 		.4byte	0x36e6
 11156 36df 42       		.uleb128 0x42
 11157 36e0 DF000000 		.4byte	0xdf
 11158 36e4 14       		.byte	0x14
 11159 36e5 00       		.byte	0
 11160 36e6 49       		.uleb128 0x49
 11161 36e7 74020000 		.4byte	.LASF71
 11162 36eb 04       		.byte	0x4
 11163 36ec 45       		.byte	0x45
 11164 36ed 07370000 		.4byte	0x3707
 11165 36f1 15       		.byte	0x15
 11166 36f2 03       		.byte	0x3
 11167 36f3 01       		.byte	0x1
 11168 36f4 02       		.byte	0x2
 11169 36f5 03       		.byte	0x3
 11170 36f6 02       		.byte	0x2
 11171 36f7 00       		.byte	0
 11172 36f8 04       		.byte	0x4
 11173 36f9 01       		.byte	0x1
 11174 36fa 04       		.byte	0x4
 11175 36fb 02       		.byte	0x2
 11176 36fc 02       		.byte	0x2
 11177 36fd 03       		.byte	0x3
 11178 36fe 01       		.byte	0x1
 11179 36ff 04       		.byte	0x4
 11180 3700 02       		.byte	0x2
 11181 3701 00       		.byte	0
 11182 3702 04       		.byte	0x4
 11183 3703 03       		.byte	0x3
 11184 3704 01       		.byte	0x1
 11185 3705 02       		.byte	0x2
 11186 3706 03       		.byte	0x3
 11187 3707 27       		.uleb128 0x27
 11188 3708 D6360000 		.4byte	0x36d6
 11189 370c 32       		.uleb128 0x32
 11190 370d 440B0000 		.4byte	0xb44
ARM GAS  C:\Users\legoc\AppData\Local\Temp\ccOlrioX.s 			page 213


 11191 3711 1C370000 		.4byte	0x371c
 11192 3715 42       		.uleb128 0x42
 11193 3716 DF000000 		.4byte	0xdf
 11194 371a 15       		.byte	0x15
 11195 371b 00       		.byte	0
 11196 371c 49       		.uleb128 0x49
 11197 371d 7B020000 		.4byte	.LASF72
 11198 3721 04       		.byte	0x4
 11199 3722 57       		.byte	0x57
 11200 3723 3E370000 		.4byte	0x373e
 11201 3727 16       		.byte	0x16
 11202 3728 01       		.byte	0x1
 11203 3729 04       		.byte	0x4
 11204 372a 01       		.byte	0x1
 11205 372b 04       		.byte	0x4
 11206 372c 05       		.byte	0x5
 11207 372d 00       		.byte	0
 11208 372e 01       		.byte	0x1
 11209 372f 02       		.byte	0x2
 11210 3730 03       		.byte	0x3
 11211 3731 04       		.byte	0x4
 11212 3732 02       		.byte	0x2
 11213 3733 00       		.byte	0
 11214 3734 04       		.byte	0x4
 11215 3735 02       		.byte	0x2
 11216 3736 01       		.byte	0x1
 11217 3737 04       		.byte	0x4
 11218 3738 02       		.byte	0x2
 11219 3739 02       		.byte	0x2
 11220 373a 04       		.byte	0x4
 11221 373b 02       		.byte	0x2
 11222 373c 03       		.byte	0x3
 11223 373d 04       		.byte	0x4
 11224 373e 27       		.uleb128 0x27
 11225 373f 0C370000 		.4byte	0x370c
 11226 3743 32       		.uleb128 0x32
 11227 3744 440B0000 		.4byte	0xb44
 11228 3748 53370000 		.4byte	0x3753
 11229 374c 42       		.uleb128 0x42
 11230 374d DF000000 		.4byte	0xdf
 11231 3751 17       		.byte	0x17
 11232 3752 00       		.byte	0
 11233 3753 49       		.uleb128 0x49
 11234 3754 82020000 		.4byte	.LASF73
 11235 3758 04       		.byte	0x4
 11236 3759 69       		.byte	0x69
 11237 375a 77370000 		.4byte	0x3777
 11238 375e 18       		.byte	0x18
 11239 375f 03       		.byte	0x3
 11240 3760 01       		.byte	0x1
 11241 3761 02       		.byte	0x2
 11242 3762 03       		.byte	0x3
 11243 3763 02       		.byte	0x2
 11244 3764 00       		.byte	0
 11245 3765 04       		.byte	0x4
 11246 3766 01       		.byte	0x1
 11247 3767 04       		.byte	0x4
ARM GAS  C:\Users\legoc\AppData\Local\Temp\ccOlrioX.s 			page 214


 11248 3768 01       		.byte	0x1
 11249 3769 04       		.byte	0x4
 11250 376a 04       		.byte	0x4
 11251 376b 00       		.byte	0
 11252 376c 01       		.byte	0x1
 11253 376d 02       		.byte	0x2
 11254 376e 03       		.byte	0x3
 11255 376f 01       		.byte	0x1
 11256 3770 00       		.byte	0
 11257 3771 05       		.byte	0x5
 11258 3772 00       		.byte	0
 11259 3773 01       		.byte	0x1
 11260 3774 02       		.byte	0x2
 11261 3775 03       		.byte	0x3
 11262 3776 04       		.byte	0x4
 11263 3777 27       		.uleb128 0x27
 11264 3778 43370000 		.4byte	0x3743
 11265 377c 49       		.uleb128 0x49
 11266 377d 89020000 		.4byte	.LASF74
 11267 3781 04       		.byte	0x4
 11268 3782 7B       		.byte	0x7b
 11269 3783 9E370000 		.4byte	0x379e
 11270 3787 16       		.byte	0x16
 11271 3788 03       		.byte	0x3
 11272 3789 01       		.byte	0x1
 11273 378a 02       		.byte	0x2
 11274 378b 03       		.byte	0x3
 11275 378c 02       		.byte	0x2
 11276 378d 00       		.byte	0
 11277 378e 04       		.byte	0x4
 11278 378f 02       		.byte	0x2
 11279 3790 00       		.byte	0
 11280 3791 04       		.byte	0x4
 11281 3792 04       		.byte	0x4
 11282 3793 00       		.byte	0
 11283 3794 01       		.byte	0x1
 11284 3795 02       		.byte	0x2
 11285 3796 03       		.byte	0x3
 11286 3797 01       		.byte	0x1
 11287 3798 00       		.byte	0
 11288 3799 01       		.byte	0x1
 11289 379a 01       		.byte	0x1
 11290 379b 02       		.byte	0x2
 11291 379c 02       		.byte	0x2
 11292 379d 03       		.byte	0x3
 11293 379e 27       		.uleb128 0x27
 11294 379f 0C370000 		.4byte	0x370c
 11295 37a3 49       		.uleb128 0x49
 11296 37a4 90020000 		.4byte	.LASF75
 11297 37a8 04       		.byte	0x4
 11298 37a9 8D       		.byte	0x8d
 11299 37aa C2370000 		.4byte	0x37c2
 11300 37ae 13       		.byte	0x13
 11301 37af 01       		.byte	0x1
 11302 37b0 02       		.byte	0x2
 11303 37b1 01       		.byte	0x1
 11304 37b2 02       		.byte	0x2
ARM GAS  C:\Users\legoc\AppData\Local\Temp\ccOlrioX.s 			page 215


 11305 37b3 01       		.byte	0x1
 11306 37b4 02       		.byte	0x2
 11307 37b5 01       		.byte	0x1
 11308 37b6 03       		.byte	0x3
 11309 37b7 01       		.byte	0x1
 11310 37b8 04       		.byte	0x4
 11311 37b9 02       		.byte	0x2
 11312 37ba 00       		.byte	0
 11313 37bb 04       		.byte	0x4
 11314 37bc 05       		.byte	0x5
 11315 37bd 00       		.byte	0
 11316 37be 01       		.byte	0x1
 11317 37bf 02       		.byte	0x2
 11318 37c0 03       		.byte	0x3
 11319 37c1 04       		.byte	0x4
 11320 37c2 27       		.uleb128 0x27
 11321 37c3 6A360000 		.4byte	0x366a
 11322 37c7 49       		.uleb128 0x49
 11323 37c8 97020000 		.4byte	.LASF76
 11324 37cc 04       		.byte	0x4
 11325 37cd 9F       		.byte	0x9f
 11326 37ce EB370000 		.4byte	0x37eb
 11327 37d2 18       		.byte	0x18
 11328 37d3 03       		.byte	0x3
 11329 37d4 01       		.byte	0x1
 11330 37d5 02       		.byte	0x2
 11331 37d6 03       		.byte	0x3
 11332 37d7 02       		.byte	0x2
 11333 37d8 00       		.byte	0
 11334 37d9 04       		.byte	0x4
 11335 37da 02       		.byte	0x2
 11336 37db 00       		.byte	0
 11337 37dc 04       		.byte	0x4
 11338 37dd 03       		.byte	0x3
 11339 37de 01       		.byte	0x1
 11340 37df 02       		.byte	0x2
 11341 37e0 03       		.byte	0x3
 11342 37e1 02       		.byte	0x2
 11343 37e2 00       		.byte	0
 11344 37e3 04       		.byte	0x4
 11345 37e4 02       		.byte	0x2
 11346 37e5 00       		.byte	0
 11347 37e6 04       		.byte	0x4
 11348 37e7 03       		.byte	0x3
 11349 37e8 01       		.byte	0x1
 11350 37e9 02       		.byte	0x2
 11351 37ea 03       		.byte	0x3
 11352 37eb 27       		.uleb128 0x27
 11353 37ec 43370000 		.4byte	0x3743
 11354 37f0 49       		.uleb128 0x49
 11355 37f1 9E020000 		.4byte	.LASF77
 11356 37f5 04       		.byte	0x4
 11357 37f6 B1       		.byte	0xb1
 11358 37f7 12380000 		.4byte	0x3812
 11359 37fb 16       		.byte	0x16
 11360 37fc 02       		.byte	0x2
 11361 37fd 01       		.byte	0x1
ARM GAS  C:\Users\legoc\AppData\Local\Temp\ccOlrioX.s 			page 216


 11362 37fe 02       		.byte	0x2
 11363 37ff 01       		.byte	0x1
 11364 3800 03       		.byte	0x3
 11365 3801 01       		.byte	0x1
 11366 3802 04       		.byte	0x4
 11367 3803 04       		.byte	0x4
 11368 3804 01       		.byte	0x1
 11369 3805 02       		.byte	0x2
 11370 3806 03       		.byte	0x3
 11371 3807 04       		.byte	0x4
 11372 3808 02       		.byte	0x2
 11373 3809 00       		.byte	0
 11374 380a 04       		.byte	0x4
 11375 380b 02       		.byte	0x2
 11376 380c 00       		.byte	0
 11377 380d 04       		.byte	0x4
 11378 380e 03       		.byte	0x3
 11379 380f 01       		.byte	0x1
 11380 3810 02       		.byte	0x2
 11381 3811 03       		.byte	0x3
 11382 3812 27       		.uleb128 0x27
 11383 3813 0C370000 		.4byte	0x370c
 11384 3817 32       		.uleb128 0x32
 11385 3818 440B0000 		.4byte	0xb44
 11386 381c 27380000 		.4byte	0x3827
 11387 3820 42       		.uleb128 0x42
 11388 3821 DF000000 		.4byte	0xdf
 11389 3825 07       		.byte	0x7
 11390 3826 00       		.byte	0
 11391 3827 49       		.uleb128 0x49
 11392 3828 B4030000 		.4byte	.LASF78
 11393 382c 04       		.byte	0x4
 11394 382d C3       		.byte	0xc3
 11395 382e 3B380000 		.4byte	0x383b
 11396 3832 08       		.byte	0x8
 11397 3833 01       		.byte	0x1
 11398 3834 02       		.byte	0x2
 11399 3835 00       		.byte	0
 11400 3836 00       		.byte	0
 11401 3837 00       		.byte	0
 11402 3838 00       		.byte	0
 11403 3839 00       		.byte	0
 11404 383a 00       		.byte	0
 11405 383b 27       		.uleb128 0x27
 11406 383c 17380000 		.4byte	0x3817
 11407 3840 49       		.uleb128 0x49
 11408 3841 EA020000 		.4byte	.LASF79
 11409 3845 04       		.byte	0x4
 11410 3846 D4       		.byte	0xd4
 11411 3847 61380000 		.4byte	0x3861
 11412 384b 15       		.byte	0x15
 11413 384c 04       		.byte	0x4
 11414 384d 01       		.byte	0x1
 11415 384e 02       		.byte	0x2
 11416 384f 03       		.byte	0x3
 11417 3850 04       		.byte	0x4
 11418 3851 01       		.byte	0x1
ARM GAS  C:\Users\legoc\AppData\Local\Temp\ccOlrioX.s 			page 217


 11419 3852 00       		.byte	0
 11420 3853 04       		.byte	0x4
 11421 3854 04       		.byte	0x4
 11422 3855 01       		.byte	0x1
 11423 3856 02       		.byte	0x2
 11424 3857 03       		.byte	0x3
 11425 3858 04       		.byte	0x4
 11426 3859 01       		.byte	0x1
 11427 385a 04       		.byte	0x4
 11428 385b 03       		.byte	0x3
 11429 385c 02       		.byte	0x2
 11430 385d 03       		.byte	0x3
 11431 385e 04       		.byte	0x4
 11432 385f 00       		.byte	0
 11433 3860 00       		.byte	0
 11434 3861 27       		.uleb128 0x27
 11435 3862 D6360000 		.4byte	0x36d6
 11436 3866 49       		.uleb128 0x49
 11437 3867 F1020000 		.4byte	.LASF80
 11438 386b 04       		.byte	0x4
 11439 386c E5       		.byte	0xe5
 11440 386d 89380000 		.4byte	0x3889
 11441 3871 17       		.byte	0x17
 11442 3872 04       		.byte	0x4
 11443 3873 00       		.byte	0
 11444 3874 01       		.byte	0x1
 11445 3875 02       		.byte	0x2
 11446 3876 03       		.byte	0x3
 11447 3877 02       		.byte	0x2
 11448 3878 00       		.byte	0
 11449 3879 04       		.byte	0x4
 11450 387a 02       		.byte	0x2
 11451 387b 00       		.byte	0
 11452 387c 04       		.byte	0x4
 11453 387d 03       		.byte	0x3
 11454 387e 00       		.byte	0
 11455 387f 01       		.byte	0x1
 11456 3880 04       		.byte	0x4
 11457 3881 03       		.byte	0x3
 11458 3882 00       		.byte	0
 11459 3883 02       		.byte	0x2
 11460 3884 03       		.byte	0x3
 11461 3885 01       		.byte	0x1
 11462 3886 00       		.byte	0
 11463 3887 01       		.byte	0x1
 11464 3888 00       		.byte	0
 11465 3889 27       		.uleb128 0x27
 11466 388a 9E360000 		.4byte	0x369e
 11467 388e 32       		.uleb128 0x32
 11468 388f 440B0000 		.4byte	0xb44
 11469 3893 9E380000 		.4byte	0x389e
 11470 3897 42       		.uleb128 0x42
 11471 3898 DF000000 		.4byte	0xdf
 11472 389c 11       		.byte	0x11
 11473 389d 00       		.byte	0
 11474 389e 49       		.uleb128 0x49
 11475 389f F8020000 		.4byte	.LASF81
ARM GAS  C:\Users\legoc\AppData\Local\Temp\ccOlrioX.s 			page 218


 11476 38a3 04       		.byte	0x4
 11477 38a4 F7       		.byte	0xf7
 11478 38a5 BC380000 		.4byte	0x38bc
 11479 38a9 12       		.byte	0x12
 11480 38aa 03       		.byte	0x3
 11481 38ab 01       		.byte	0x1
 11482 38ac 02       		.byte	0x2
 11483 38ad 03       		.byte	0x3
 11484 38ae 02       		.byte	0x2
 11485 38af 00       		.byte	0
 11486 38b0 04       		.byte	0x4
 11487 38b1 01       		.byte	0x1
 11488 38b2 00       		.byte	0
 11489 38b3 02       		.byte	0x2
 11490 38b4 00       		.byte	0
 11491 38b5 04       		.byte	0x4
 11492 38b6 03       		.byte	0x3
 11493 38b7 01       		.byte	0x1
 11494 38b8 02       		.byte	0x2
 11495 38b9 03       		.byte	0x3
 11496 38ba 00       		.byte	0
 11497 38bb 00       		.byte	0
 11498 38bc 27       		.uleb128 0x27
 11499 38bd 8E380000 		.4byte	0x388e
 11500 38c1 4A       		.uleb128 0x4a
 11501 38c2 FF020000 		.4byte	.LASF82
 11502 38c6 04       		.byte	0x4
 11503 38c7 0801     		.2byte	0x108
 11504 38c9 E5380000 		.4byte	0x38e5
 11505 38cd 17       		.byte	0x17
 11506 38ce 04       		.byte	0x4
 11507 38cf 01       		.byte	0x1
 11508 38d0 02       		.byte	0x2
 11509 38d1 03       		.byte	0x3
 11510 38d2 04       		.byte	0x4
 11511 38d3 02       		.byte	0x2
 11512 38d4 00       		.byte	0
 11513 38d5 04       		.byte	0x4
 11514 38d6 02       		.byte	0x2
 11515 38d7 00       		.byte	0
 11516 38d8 04       		.byte	0x4
 11517 38d9 03       		.byte	0x3
 11518 38da 00       		.byte	0
 11519 38db 03       		.byte	0x3
 11520 38dc 04       		.byte	0x4
 11521 38dd 03       		.byte	0x3
 11522 38de 01       		.byte	0x1
 11523 38df 02       		.byte	0x2
 11524 38e0 04       		.byte	0x4
 11525 38e1 01       		.byte	0x1
 11526 38e2 04       		.byte	0x4
 11527 38e3 01       		.byte	0x1
 11528 38e4 04       		.byte	0x4
 11529 38e5 27       		.uleb128 0x27
 11530 38e6 9E360000 		.4byte	0x369e
 11531 38ea 4A       		.uleb128 0x4a
 11532 38eb 06030000 		.4byte	.LASF83
ARM GAS  C:\Users\legoc\AppData\Local\Temp\ccOlrioX.s 			page 219


 11533 38ef 04       		.byte	0x4
 11534 38f0 1A01     		.2byte	0x11a
 11535 38f2 0D390000 		.4byte	0x390d
 11536 38f6 16       		.byte	0x16
 11537 38f7 04       		.byte	0x4
 11538 38f8 01       		.byte	0x1
 11539 38f9 02       		.byte	0x2
 11540 38fa 03       		.byte	0x3
 11541 38fb 04       		.byte	0x4
 11542 38fc 01       		.byte	0x1
 11543 38fd 00       		.byte	0
 11544 38fe 05       		.byte	0x5
 11545 38ff 00       		.byte	0
 11546 3900 01       		.byte	0x1
 11547 3901 02       		.byte	0x2
 11548 3902 03       		.byte	0x3
 11549 3903 04       		.byte	0x4
 11550 3904 02       		.byte	0x2
 11551 3905 00       		.byte	0
 11552 3906 04       		.byte	0x4
 11553 3907 03       		.byte	0x3
 11554 3908 01       		.byte	0x1
 11555 3909 02       		.byte	0x2
 11556 390a 03       		.byte	0x3
 11557 390b 00       		.byte	0
 11558 390c 00       		.byte	0
 11559 390d 27       		.uleb128 0x27
 11560 390e 0C370000 		.4byte	0x370c
 11561 3912 4A       		.uleb128 0x4a
 11562 3913 0D030000 		.4byte	.LASF84
 11563 3917 04       		.byte	0x4
 11564 3918 2B01     		.2byte	0x12b
 11565 391a 31390000 		.4byte	0x3931
 11566 391e 12       		.byte	0x12
 11567 391f 01       		.byte	0x1
 11568 3920 02       		.byte	0x2
 11569 3921 01       		.byte	0x1
 11570 3922 02       		.byte	0x2
 11571 3923 01       		.byte	0x1
 11572 3924 02       		.byte	0x2
 11573 3925 01       		.byte	0x1
 11574 3926 02       		.byte	0x2
 11575 3927 04       		.byte	0x4
 11576 3928 01       		.byte	0x1
 11577 3929 02       		.byte	0x2
 11578 392a 03       		.byte	0x3
 11579 392b 04       		.byte	0x4
 11580 392c 01       		.byte	0x1
 11581 392d 02       		.byte	0x2
 11582 392e 02       		.byte	0x2
 11583 392f 03       		.byte	0x3
 11584 3930 04       		.byte	0x4
 11585 3931 27       		.uleb128 0x27
 11586 3932 8E380000 		.4byte	0x388e
 11587 3936 4A       		.uleb128 0x4a
 11588 3937 14030000 		.4byte	.LASF85
 11589 393b 04       		.byte	0x4
ARM GAS  C:\Users\legoc\AppData\Local\Temp\ccOlrioX.s 			page 220


 11590 393c 3F01     		.2byte	0x13f
 11591 393e 5B390000 		.4byte	0x395b
 11592 3942 18       		.byte	0x18
 11593 3943 04       		.byte	0x4
 11594 3944 00       		.byte	0
 11595 3945 01       		.byte	0x1
 11596 3946 02       		.byte	0x2
 11597 3947 03       		.byte	0x3
 11598 3948 01       		.byte	0x1
 11599 3949 04       		.byte	0x4
 11600 394a 04       		.byte	0x4
 11601 394b 01       		.byte	0x1
 11602 394c 02       		.byte	0x2
 11603 394d 03       		.byte	0x3
 11604 394e 04       		.byte	0x4
 11605 394f 02       		.byte	0x2
 11606 3950 00       		.byte	0
 11607 3951 04       		.byte	0x4
 11608 3952 02       		.byte	0x2
 11609 3953 00       		.byte	0
 11610 3954 04       		.byte	0x4
 11611 3955 04       		.byte	0x4
 11612 3956 01       		.byte	0x1
 11613 3957 02       		.byte	0x2
 11614 3958 03       		.byte	0x3
 11615 3959 04       		.byte	0x4
 11616 395a 00       		.byte	0
 11617 395b 27       		.uleb128 0x27
 11618 395c 43370000 		.4byte	0x3743
 11619 3960 4A       		.uleb128 0x4a
 11620 3961 1B030000 		.4byte	.LASF86
 11621 3965 04       		.byte	0x4
 11622 3966 5001     		.2byte	0x150
 11623 3968 82390000 		.4byte	0x3982
 11624 396c 15       		.byte	0x15
 11625 396d 02       		.byte	0x2
 11626 396e 00       		.byte	0
 11627 396f 04       		.byte	0x4
 11628 3970 02       		.byte	0x2
 11629 3971 00       		.byte	0
 11630 3972 04       		.byte	0x4
 11631 3973 02       		.byte	0x2
 11632 3974 00       		.byte	0
 11633 3975 04       		.byte	0x4
 11634 3976 03       		.byte	0x3
 11635 3977 00       		.byte	0
 11636 3978 01       		.byte	0x1
 11637 3979 04       		.byte	0x4
 11638 397a 03       		.byte	0x3
 11639 397b 00       		.byte	0
 11640 397c 02       		.byte	0x2
 11641 397d 03       		.byte	0x3
 11642 397e 01       		.byte	0x1
 11643 397f 00       		.byte	0
 11644 3980 01       		.byte	0x1
 11645 3981 00       		.byte	0
 11646 3982 27       		.uleb128 0x27
ARM GAS  C:\Users\legoc\AppData\Local\Temp\ccOlrioX.s 			page 221


 11647 3983 D6360000 		.4byte	0x36d6
 11648 3987 32       		.uleb128 0x32
 11649 3988 440B0000 		.4byte	0xb44
 11650 398c 97390000 		.4byte	0x3997
 11651 3990 42       		.uleb128 0x42
 11652 3991 DF000000 		.4byte	0xdf
 11653 3995 0C       		.byte	0xc
 11654 3996 00       		.byte	0
 11655 3997 4A       		.uleb128 0x4a
 11656 3998 22030000 		.4byte	.LASF87
 11657 399c 04       		.byte	0x4
 11658 399d 6201     		.2byte	0x162
 11659 399f B1390000 		.4byte	0x39b1
 11660 39a3 0D       		.byte	0xd
 11661 39a4 01       		.byte	0x1
 11662 39a5 02       		.byte	0x2
 11663 39a6 01       		.byte	0x1
 11664 39a7 02       		.byte	0x2
 11665 39a8 01       		.byte	0x1
 11666 39a9 02       		.byte	0x2
 11667 39aa 01       		.byte	0x1
 11668 39ab 02       		.byte	0x2
 11669 39ac 01       		.byte	0x1
 11670 39ad 02       		.byte	0x2
 11671 39ae 00       		.byte	0
 11672 39af 01       		.byte	0x1
 11673 39b0 02       		.byte	0x2
 11674 39b1 27       		.uleb128 0x27
 11675 39b2 87390000 		.4byte	0x3987
 11676 39b6 32       		.uleb128 0x32
 11677 39b7 440B0000 		.4byte	0xb44
 11678 39bb C6390000 		.4byte	0x39c6
 11679 39bf 4B       		.uleb128 0x4b
 11680 39c0 C6390000 		.4byte	0x39c6
 11681 39c4 7F       		.sleb128 -1
 11682 39c5 00       		.byte	0
 11683 39c6 02       		.uleb128 0x2
 11684 39c7 04       		.byte	0x4
 11685 39c8 05       		.byte	0x5
 11686 39c9 E0020000 		.4byte	.LASF88
 11687 39cd 2F       		.uleb128 0x2f
 11688 39ce 29030000 		.4byte	.LASF89
 11689 39d2 04       		.byte	0x4
 11690 39d3 7501     		.2byte	0x175
 11691 39d5 D9390000 		.4byte	0x39d9
 11692 39d9 27       		.uleb128 0x27
 11693 39da B6390000 		.4byte	0x39b6
 11694 39de 32       		.uleb128 0x32
 11695 39df 440B0000 		.4byte	0xb44
 11696 39e3 EE390000 		.4byte	0x39ee
 11697 39e7 42       		.uleb128 0x42
 11698 39e8 DF000000 		.4byte	0xdf
 11699 39ec 1B       		.byte	0x1b
 11700 39ed 00       		.byte	0
 11701 39ee 4A       		.uleb128 0x4a
 11702 39ef AF020000 		.4byte	.LASF90
 11703 39f3 04       		.byte	0x4
ARM GAS  C:\Users\legoc\AppData\Local\Temp\ccOlrioX.s 			page 222


 11704 39f4 7C01     		.2byte	0x17c
 11705 39f6 173A0000 		.4byte	0x3a17
 11706 39fa 1C       		.byte	0x1c
 11707 39fb 02       		.byte	0x2
 11708 39fc 00       		.byte	0
 11709 39fd 04       		.byte	0x4
 11710 39fe 02       		.byte	0x2
 11711 39ff 00       		.byte	0
 11712 3a00 04       		.byte	0x4
 11713 3a01 02       		.byte	0x2
 11714 3a02 00       		.byte	0
 11715 3a03 04       		.byte	0x4
 11716 3a04 02       		.byte	0x2
 11717 3a05 00       		.byte	0
 11718 3a06 04       		.byte	0x4
 11719 3a07 02       		.byte	0x2
 11720 3a08 00       		.byte	0
 11721 3a09 04       		.byte	0x4
 11722 3a0a 05       		.byte	0x5
 11723 3a0b 00       		.byte	0
 11724 3a0c 01       		.byte	0x1
 11725 3a0d 02       		.byte	0x2
 11726 3a0e 03       		.byte	0x3
 11727 3a0f 04       		.byte	0x4
 11728 3a10 02       		.byte	0x2
 11729 3a11 00       		.byte	0
 11730 3a12 04       		.byte	0x4
 11731 3a13 03       		.byte	0x3
 11732 3a14 01       		.byte	0x1
 11733 3a15 02       		.byte	0x2
 11734 3a16 03       		.byte	0x3
 11735 3a17 27       		.uleb128 0x27
 11736 3a18 DE390000 		.4byte	0x39de
 11737 3a1c 32       		.uleb128 0x32
 11738 3a1d 440B0000 		.4byte	0xb44
 11739 3a21 2C3A0000 		.4byte	0x3a2c
 11740 3a25 42       		.uleb128 0x42
 11741 3a26 DF000000 		.4byte	0xdf
 11742 3a2a 1A       		.byte	0x1a
 11743 3a2b 00       		.byte	0
 11744 3a2c 4A       		.uleb128 0x4a
 11745 3a2d B6020000 		.4byte	.LASF91
 11746 3a31 04       		.byte	0x4
 11747 3a32 9001     		.2byte	0x190
 11748 3a34 543A0000 		.4byte	0x3a54
 11749 3a38 1B       		.byte	0x1b
 11750 3a39 04       		.byte	0x4
 11751 3a3a 00       		.byte	0
 11752 3a3b 01       		.byte	0x1
 11753 3a3c 02       		.byte	0x2
 11754 3a3d 03       		.byte	0x3
 11755 3a3e 02       		.byte	0x2
 11756 3a3f 00       		.byte	0
 11757 3a40 04       		.byte	0x4
 11758 3a41 02       		.byte	0x2
 11759 3a42 00       		.byte	0
 11760 3a43 04       		.byte	0x4
ARM GAS  C:\Users\legoc\AppData\Local\Temp\ccOlrioX.s 			page 223


 11761 3a44 02       		.byte	0x2
 11762 3a45 00       		.byte	0
 11763 3a46 04       		.byte	0x4
 11764 3a47 04       		.byte	0x4
 11765 3a48 00       		.byte	0
 11766 3a49 01       		.byte	0x1
 11767 3a4a 02       		.byte	0x2
 11768 3a4b 03       		.byte	0x3
 11769 3a4c 02       		.byte	0x2
 11770 3a4d 00       		.byte	0
 11771 3a4e 04       		.byte	0x4
 11772 3a4f 04       		.byte	0x4
 11773 3a50 00       		.byte	0
 11774 3a51 01       		.byte	0x1
 11775 3a52 02       		.byte	0x2
 11776 3a53 03       		.byte	0x3
 11777 3a54 27       		.uleb128 0x27
 11778 3a55 1C3A0000 		.4byte	0x3a1c
 11779 3a59 32       		.uleb128 0x32
 11780 3a5a 440B0000 		.4byte	0xb44
 11781 3a5e 693A0000 		.4byte	0x3a69
 11782 3a62 42       		.uleb128 0x42
 11783 3a63 DF000000 		.4byte	0xdf
 11784 3a67 13       		.byte	0x13
 11785 3a68 00       		.byte	0
 11786 3a69 4A       		.uleb128 0x4a
 11787 3a6a BD020000 		.4byte	.LASF92
 11788 3a6e 04       		.byte	0x4
 11789 3a6f A201     		.2byte	0x1a2
 11790 3a71 8A3A0000 		.4byte	0x3a8a
 11791 3a75 14       		.byte	0x14
 11792 3a76 03       		.byte	0x3
 11793 3a77 01       		.byte	0x1
 11794 3a78 02       		.byte	0x2
 11795 3a79 03       		.byte	0x3
 11796 3a7a 02       		.byte	0x2
 11797 3a7b 00       		.byte	0
 11798 3a7c 04       		.byte	0x4
 11799 3a7d 01       		.byte	0x1
 11800 3a7e 00       		.byte	0
 11801 3a7f 01       		.byte	0x1
 11802 3a80 00       		.byte	0
 11803 3a81 01       		.byte	0x1
 11804 3a82 00       		.byte	0
 11805 3a83 02       		.byte	0x2
 11806 3a84 00       		.byte	0
 11807 3a85 04       		.byte	0x4
 11808 3a86 03       		.byte	0x3
 11809 3a87 01       		.byte	0x1
 11810 3a88 02       		.byte	0x2
 11811 3a89 03       		.byte	0x3
 11812 3a8a 27       		.uleb128 0x27
 11813 3a8b 593A0000 		.4byte	0x3a59
 11814 3a8f 32       		.uleb128 0x32
 11815 3a90 440B0000 		.4byte	0xb44
 11816 3a94 9F3A0000 		.4byte	0x3a9f
 11817 3a98 42       		.uleb128 0x42
ARM GAS  C:\Users\legoc\AppData\Local\Temp\ccOlrioX.s 			page 224


 11818 3a99 DF000000 		.4byte	0xdf
 11819 3a9d 18       		.byte	0x18
 11820 3a9e 00       		.byte	0
 11821 3a9f 4A       		.uleb128 0x4a
 11822 3aa0 C4020000 		.4byte	.LASF93
 11823 3aa4 04       		.byte	0x4
 11824 3aa5 B401     		.2byte	0x1b4
 11825 3aa7 C53A0000 		.4byte	0x3ac5
 11826 3aab 19       		.byte	0x19
 11827 3aac 04       		.byte	0x4
 11828 3aad 00       		.byte	0
 11829 3aae 01       		.byte	0x1
 11830 3aaf 02       		.byte	0x2
 11831 3ab0 03       		.byte	0x3
 11832 3ab1 02       		.byte	0x2
 11833 3ab2 00       		.byte	0
 11834 3ab3 04       		.byte	0x4
 11835 3ab4 02       		.byte	0x2
 11836 3ab5 00       		.byte	0
 11837 3ab6 04       		.byte	0x4
 11838 3ab7 02       		.byte	0x2
 11839 3ab8 00       		.byte	0
 11840 3ab9 04       		.byte	0x4
 11841 3aba 02       		.byte	0x2
 11842 3abb 00       		.byte	0
 11843 3abc 04       		.byte	0x4
 11844 3abd 02       		.byte	0x2
 11845 3abe 00       		.byte	0
 11846 3abf 04       		.byte	0x4
 11847 3ac0 04       		.byte	0x4
 11848 3ac1 00       		.byte	0
 11849 3ac2 01       		.byte	0x1
 11850 3ac3 02       		.byte	0x2
 11851 3ac4 03       		.byte	0x3
 11852 3ac5 27       		.uleb128 0x27
 11853 3ac6 8F3A0000 		.4byte	0x3a8f
 11854 3aca 4A       		.uleb128 0x4a
 11855 3acb CB020000 		.4byte	.LASF94
 11856 3acf 04       		.byte	0x4
 11857 3ad0 C701     		.2byte	0x1c7
 11858 3ad2 F03A0000 		.4byte	0x3af0
 11859 3ad6 19       		.byte	0x19
 11860 3ad7 05       		.byte	0x5
 11861 3ad8 00       		.byte	0
 11862 3ad9 01       		.byte	0x1
 11863 3ada 02       		.byte	0x2
 11864 3adb 03       		.byte	0x3
 11865 3adc 04       		.byte	0x4
 11866 3add 01       		.byte	0x1
 11867 3ade 00       		.byte	0
 11868 3adf 01       		.byte	0x1
 11869 3ae0 00       		.byte	0
 11870 3ae1 04       		.byte	0x4
 11871 3ae2 00       		.byte	0
 11872 3ae3 01       		.byte	0x1
 11873 3ae4 02       		.byte	0x2
 11874 3ae5 03       		.byte	0x3
ARM GAS  C:\Users\legoc\AppData\Local\Temp\ccOlrioX.s 			page 225


 11875 3ae6 01       		.byte	0x1
 11876 3ae7 00       		.byte	0
 11877 3ae8 01       		.byte	0x1
 11878 3ae9 00       		.byte	0
 11879 3aea 05       		.byte	0x5
 11880 3aeb 00       		.byte	0
 11881 3aec 01       		.byte	0x1
 11882 3aed 02       		.byte	0x2
 11883 3aee 03       		.byte	0x3
 11884 3aef 04       		.byte	0x4
 11885 3af0 27       		.uleb128 0x27
 11886 3af1 8F3A0000 		.4byte	0x3a8f
 11887 3af5 4A       		.uleb128 0x4a
 11888 3af6 D2020000 		.4byte	.LASF95
 11889 3afa 04       		.byte	0x4
 11890 3afb D901     		.2byte	0x1d9
 11891 3afd 163B0000 		.4byte	0x3b16
 11892 3b01 14       		.byte	0x14
 11893 3b02 01       		.byte	0x1
 11894 3b03 00       		.byte	0
 11895 3b04 01       		.byte	0x1
 11896 3b05 00       		.byte	0
 11897 3b06 01       		.byte	0x1
 11898 3b07 00       		.byte	0
 11899 3b08 01       		.byte	0x1
 11900 3b09 00       		.byte	0
 11901 3b0a 03       		.byte	0x3
 11902 3b0b 00       		.byte	0
 11903 3b0c 01       		.byte	0x1
 11904 3b0d 02       		.byte	0x2
 11905 3b0e 01       		.byte	0x1
 11906 3b0f 00       		.byte	0
 11907 3b10 05       		.byte	0x5
 11908 3b11 00       		.byte	0
 11909 3b12 01       		.byte	0x1
 11910 3b13 02       		.byte	0x2
 11911 3b14 03       		.byte	0x3
 11912 3b15 04       		.byte	0x4
 11913 3b16 27       		.uleb128 0x27
 11914 3b17 593A0000 		.4byte	0x3a59
 11915 3b1b 4A       		.uleb128 0x4a
 11916 3b1c D9020000 		.4byte	.LASF96
 11917 3b20 04       		.byte	0x4
 11918 3b21 EB01     		.2byte	0x1eb
 11919 3b23 403B0000 		.4byte	0x3b40
 11920 3b27 18       		.byte	0x18
 11921 3b28 03       		.byte	0x3
 11922 3b29 01       		.byte	0x1
 11923 3b2a 02       		.byte	0x2
 11924 3b2b 03       		.byte	0x3
 11925 3b2c 02       		.byte	0x2
 11926 3b2d 00       		.byte	0
 11927 3b2e 04       		.byte	0x4
 11928 3b2f 02       		.byte	0x2
 11929 3b30 00       		.byte	0
 11930 3b31 04       		.byte	0x4
 11931 3b32 02       		.byte	0x2
ARM GAS  C:\Users\legoc\AppData\Local\Temp\ccOlrioX.s 			page 226


 11932 3b33 00       		.byte	0
 11933 3b34 04       		.byte	0x4
 11934 3b35 03       		.byte	0x3
 11935 3b36 00       		.byte	0
 11936 3b37 03       		.byte	0x3
 11937 3b38 04       		.byte	0x4
 11938 3b39 01       		.byte	0x1
 11939 3b3a 00       		.byte	0
 11940 3b3b 04       		.byte	0x4
 11941 3b3c 01       		.byte	0x1
 11942 3b3d 02       		.byte	0x2
 11943 3b3e 03       		.byte	0x3
 11944 3b3f 04       		.byte	0x4
 11945 3b40 27       		.uleb128 0x27
 11946 3b41 43370000 		.4byte	0x3743
 11947 3b45 32       		.uleb128 0x32
 11948 3b46 440B0000 		.4byte	0xb44
 11949 3b4a 553B0000 		.4byte	0x3b55
 11950 3b4e 42       		.uleb128 0x42
 11951 3b4f DF000000 		.4byte	0xdf
 11952 3b53 6E       		.byte	0x6e
 11953 3b54 00       		.byte	0
 11954 3b55 2A       		.uleb128 0x2a
 11955 3b56 7B030000 		.4byte	.LASF97
 11956 3b5a 01       		.byte	0x1
 11957 3b5b 10       		.byte	0x10
 11958 3b5c 663B0000 		.4byte	0x3b66
 11959 3b60 05       		.uleb128 0x5
 11960 3b61 03       		.byte	0x3
 11961 3b62 00000000 		.4byte	initcmd
 11962 3b66 27       		.uleb128 0x27
 11963 3b67 453B0000 		.4byte	0x3b45
 11964 3b6b 4C       		.uleb128 0x4c
 11965 3b6c 37050000 		.4byte	.LASF108
 11966 3b70 0B       		.byte	0xb
 11967 3b71 07       		.byte	0x7
 11968 3b72 89000000 		.4byte	0x89
 11969 3b76 4D       		.uleb128 0x4d
 11970 3b77 75040000 		.4byte	.LASF98
 11971 3b7b 75040000 		.4byte	.LASF98
 11972 3b7f 05       		.byte	0x5
 11973 3b80 26       		.byte	0x26
 11974 3b81 4D       		.uleb128 0x4d
 11975 3b82 0E050000 		.4byte	.LASF99
 11976 3b86 0E050000 		.4byte	.LASF99
 11977 3b8a 06       		.byte	0x6
 11978 3b8b 5E       		.byte	0x5e
 11979 3b8c 4D       		.uleb128 0x4d
 11980 3b8d 94040000 		.4byte	.LASF100
 11981 3b91 94040000 		.4byte	.LASF100
 11982 3b95 07       		.byte	0x7
 11983 3b96 29       		.byte	0x29
 11984 3b97 4D       		.uleb128 0x4d
 11985 3b98 42020000 		.4byte	.LASF101
 11986 3b9c 42020000 		.4byte	.LASF101
 11987 3ba0 07       		.byte	0x7
 11988 3ba1 26       		.byte	0x26
ARM GAS  C:\Users\legoc\AppData\Local\Temp\ccOlrioX.s 			page 227


 11989 3ba2 4D       		.uleb128 0x4d
 11990 3ba3 5C030000 		.4byte	.LASF102
 11991 3ba7 5C030000 		.4byte	.LASF102
 11992 3bab 08       		.byte	0x8
 11993 3bac 76       		.byte	0x76
 11994 3bad 4E       		.uleb128 0x4e
 11995 3bae 35030000 		.4byte	.LASF61
 11996 3bb2 35030000 		.4byte	.LASF61
 11997 3bb6 01       		.byte	0x1
 11998 3bb7 4A01     		.2byte	0x14a
 11999 3bb9 4D       		.uleb128 0x4d
 12000 3bba 24040000 		.4byte	.LASF103
 12001 3bbe 24040000 		.4byte	.LASF103
 12002 3bc2 09       		.byte	0x9
 12003 3bc3 E7       		.byte	0xe7
 12004 3bc4 4D       		.uleb128 0x4d
 12005 3bc5 A1030000 		.4byte	.LASF104
 12006 3bc9 A1030000 		.4byte	.LASF104
 12007 3bcd 0A       		.byte	0xa
 12008 3bce CB       		.byte	0xcb
 12009 3bcf 00       		.byte	0
 12010              		.section	.debug_abbrev,"",%progbits
 12011              	.Ldebug_abbrev0:
 12012 0000 01       		.uleb128 0x1
 12013 0001 11       		.uleb128 0x11
 12014 0002 01       		.byte	0x1
 12015 0003 25       		.uleb128 0x25
 12016 0004 0E       		.uleb128 0xe
 12017 0005 13       		.uleb128 0x13
 12018 0006 0B       		.uleb128 0xb
 12019 0007 03       		.uleb128 0x3
 12020 0008 0E       		.uleb128 0xe
 12021 0009 1B       		.uleb128 0x1b
 12022 000a 0E       		.uleb128 0xe
 12023 000b 55       		.uleb128 0x55
 12024 000c 17       		.uleb128 0x17
 12025 000d 11       		.uleb128 0x11
 12026 000e 01       		.uleb128 0x1
 12027 000f 10       		.uleb128 0x10
 12028 0010 17       		.uleb128 0x17
 12029 0011 00       		.byte	0
 12030 0012 00       		.byte	0
 12031 0013 02       		.uleb128 0x2
 12032 0014 24       		.uleb128 0x24
 12033 0015 00       		.byte	0
 12034 0016 0B       		.uleb128 0xb
 12035 0017 0B       		.uleb128 0xb
 12036 0018 3E       		.uleb128 0x3e
 12037 0019 0B       		.uleb128 0xb
 12038 001a 03       		.uleb128 0x3
 12039 001b 0E       		.uleb128 0xe
 12040 001c 00       		.byte	0
 12041 001d 00       		.byte	0
 12042 001e 03       		.uleb128 0x3
 12043 001f 16       		.uleb128 0x16
 12044 0020 00       		.byte	0
 12045 0021 03       		.uleb128 0x3
ARM GAS  C:\Users\legoc\AppData\Local\Temp\ccOlrioX.s 			page 228


 12046 0022 0E       		.uleb128 0xe
 12047 0023 3A       		.uleb128 0x3a
 12048 0024 0B       		.uleb128 0xb
 12049 0025 3B       		.uleb128 0x3b
 12050 0026 0B       		.uleb128 0xb
 12051 0027 49       		.uleb128 0x49
 12052 0028 13       		.uleb128 0x13
 12053 0029 00       		.byte	0
 12054 002a 00       		.byte	0
 12055 002b 04       		.uleb128 0x4
 12056 002c 24       		.uleb128 0x24
 12057 002d 00       		.byte	0
 12058 002e 0B       		.uleb128 0xb
 12059 002f 0B       		.uleb128 0xb
 12060 0030 3E       		.uleb128 0x3e
 12061 0031 0B       		.uleb128 0xb
 12062 0032 03       		.uleb128 0x3
 12063 0033 08       		.uleb128 0x8
 12064 0034 00       		.byte	0
 12065 0035 00       		.byte	0
 12066 0036 05       		.uleb128 0x5
 12067 0037 0F       		.uleb128 0xf
 12068 0038 00       		.byte	0
 12069 0039 0B       		.uleb128 0xb
 12070 003a 0B       		.uleb128 0xb
 12071 003b 49       		.uleb128 0x49
 12072 003c 13       		.uleb128 0x13
 12073 003d 00       		.byte	0
 12074 003e 00       		.byte	0
 12075 003f 06       		.uleb128 0x6
 12076 0040 2E       		.uleb128 0x2e
 12077 0041 01       		.byte	0x1
 12078 0042 3F       		.uleb128 0x3f
 12079 0043 19       		.uleb128 0x19
 12080 0044 03       		.uleb128 0x3
 12081 0045 0E       		.uleb128 0xe
 12082 0046 3A       		.uleb128 0x3a
 12083 0047 0B       		.uleb128 0xb
 12084 0048 3B       		.uleb128 0x3b
 12085 0049 0B       		.uleb128 0xb
 12086 004a 27       		.uleb128 0x27
 12087 004b 19       		.uleb128 0x19
 12088 004c 20       		.uleb128 0x20
 12089 004d 0B       		.uleb128 0xb
 12090 004e 01       		.uleb128 0x1
 12091 004f 13       		.uleb128 0x13
 12092 0050 00       		.byte	0
 12093 0051 00       		.byte	0
 12094 0052 07       		.uleb128 0x7
 12095 0053 05       		.uleb128 0x5
 12096 0054 00       		.byte	0
 12097 0055 03       		.uleb128 0x3
 12098 0056 08       		.uleb128 0x8
 12099 0057 3A       		.uleb128 0x3a
 12100 0058 0B       		.uleb128 0xb
 12101 0059 3B       		.uleb128 0x3b
 12102 005a 0B       		.uleb128 0xb
ARM GAS  C:\Users\legoc\AppData\Local\Temp\ccOlrioX.s 			page 229


 12103 005b 49       		.uleb128 0x49
 12104 005c 13       		.uleb128 0x13
 12105 005d 00       		.byte	0
 12106 005e 00       		.byte	0
 12107 005f 08       		.uleb128 0x8
 12108 0060 05       		.uleb128 0x5
 12109 0061 00       		.byte	0
 12110 0062 03       		.uleb128 0x3
 12111 0063 0E       		.uleb128 0xe
 12112 0064 3A       		.uleb128 0x3a
 12113 0065 0B       		.uleb128 0xb
 12114 0066 3B       		.uleb128 0x3b
 12115 0067 0B       		.uleb128 0xb
 12116 0068 49       		.uleb128 0x49
 12117 0069 13       		.uleb128 0x13
 12118 006a 00       		.byte	0
 12119 006b 00       		.byte	0
 12120 006c 09       		.uleb128 0x9
 12121 006d 34       		.uleb128 0x34
 12122 006e 00       		.byte	0
 12123 006f 03       		.uleb128 0x3
 12124 0070 08       		.uleb128 0x8
 12125 0071 3A       		.uleb128 0x3a
 12126 0072 0B       		.uleb128 0xb
 12127 0073 3B       		.uleb128 0x3b
 12128 0074 0B       		.uleb128 0xb
 12129 0075 49       		.uleb128 0x49
 12130 0076 13       		.uleb128 0x13
 12131 0077 00       		.byte	0
 12132 0078 00       		.byte	0
 12133 0079 0A       		.uleb128 0xa
 12134 007a 2E       		.uleb128 0x2e
 12135 007b 01       		.byte	0x1
 12136 007c 3F       		.uleb128 0x3f
 12137 007d 19       		.uleb128 0x19
 12138 007e 03       		.uleb128 0x3
 12139 007f 0E       		.uleb128 0xe
 12140 0080 3A       		.uleb128 0x3a
 12141 0081 0B       		.uleb128 0xb
 12142 0082 3B       		.uleb128 0x3b
 12143 0083 05       		.uleb128 0x5
 12144 0084 27       		.uleb128 0x27
 12145 0085 19       		.uleb128 0x19
 12146 0086 20       		.uleb128 0x20
 12147 0087 0B       		.uleb128 0xb
 12148 0088 01       		.uleb128 0x1
 12149 0089 13       		.uleb128 0x13
 12150 008a 00       		.byte	0
 12151 008b 00       		.byte	0
 12152 008c 0B       		.uleb128 0xb
 12153 008d 05       		.uleb128 0x5
 12154 008e 00       		.byte	0
 12155 008f 03       		.uleb128 0x3
 12156 0090 08       		.uleb128 0x8
 12157 0091 3A       		.uleb128 0x3a
 12158 0092 0B       		.uleb128 0xb
 12159 0093 3B       		.uleb128 0x3b
ARM GAS  C:\Users\legoc\AppData\Local\Temp\ccOlrioX.s 			page 230


 12160 0094 05       		.uleb128 0x5
 12161 0095 49       		.uleb128 0x49
 12162 0096 13       		.uleb128 0x13
 12163 0097 00       		.byte	0
 12164 0098 00       		.byte	0
 12165 0099 0C       		.uleb128 0xc
 12166 009a 05       		.uleb128 0x5
 12167 009b 00       		.byte	0
 12168 009c 03       		.uleb128 0x3
 12169 009d 0E       		.uleb128 0xe
 12170 009e 3A       		.uleb128 0x3a
 12171 009f 0B       		.uleb128 0xb
 12172 00a0 3B       		.uleb128 0x3b
 12173 00a1 05       		.uleb128 0x5
 12174 00a2 49       		.uleb128 0x49
 12175 00a3 13       		.uleb128 0x13
 12176 00a4 00       		.byte	0
 12177 00a5 00       		.byte	0
 12178 00a6 0D       		.uleb128 0xd
 12179 00a7 0B       		.uleb128 0xb
 12180 00a8 01       		.byte	0x1
 12181 00a9 01       		.uleb128 0x1
 12182 00aa 13       		.uleb128 0x13
 12183 00ab 00       		.byte	0
 12184 00ac 00       		.byte	0
 12185 00ad 0E       		.uleb128 0xe
 12186 00ae 34       		.uleb128 0x34
 12187 00af 00       		.byte	0
 12188 00b0 03       		.uleb128 0x3
 12189 00b1 08       		.uleb128 0x8
 12190 00b2 3A       		.uleb128 0x3a
 12191 00b3 0B       		.uleb128 0xb
 12192 00b4 3B       		.uleb128 0x3b
 12193 00b5 05       		.uleb128 0x5
 12194 00b6 49       		.uleb128 0x49
 12195 00b7 13       		.uleb128 0x13
 12196 00b8 00       		.byte	0
 12197 00b9 00       		.byte	0
 12198 00ba 0F       		.uleb128 0xf
 12199 00bb 0B       		.uleb128 0xb
 12200 00bc 01       		.byte	0x1
 12201 00bd 00       		.byte	0
 12202 00be 00       		.byte	0
 12203 00bf 10       		.uleb128 0x10
 12204 00c0 2E       		.uleb128 0x2e
 12205 00c1 01       		.byte	0x1
 12206 00c2 31       		.uleb128 0x31
 12207 00c3 13       		.uleb128 0x13
 12208 00c4 11       		.uleb128 0x11
 12209 00c5 01       		.uleb128 0x1
 12210 00c6 12       		.uleb128 0x12
 12211 00c7 06       		.uleb128 0x6
 12212 00c8 40       		.uleb128 0x40
 12213 00c9 18       		.uleb128 0x18
 12214 00ca 9742     		.uleb128 0x2117
 12215 00cc 19       		.uleb128 0x19
 12216 00cd 01       		.uleb128 0x1
ARM GAS  C:\Users\legoc\AppData\Local\Temp\ccOlrioX.s 			page 231


 12217 00ce 13       		.uleb128 0x13
 12218 00cf 00       		.byte	0
 12219 00d0 00       		.byte	0
 12220 00d1 11       		.uleb128 0x11
 12221 00d2 05       		.uleb128 0x5
 12222 00d3 00       		.byte	0
 12223 00d4 31       		.uleb128 0x31
 12224 00d5 13       		.uleb128 0x13
 12225 00d6 02       		.uleb128 0x2
 12226 00d7 17       		.uleb128 0x17
 12227 00d8 00       		.byte	0
 12228 00d9 00       		.byte	0
 12229 00da 12       		.uleb128 0x12
 12230 00db 898201   		.uleb128 0x4109
 12231 00de 01       		.byte	0x1
 12232 00df 11       		.uleb128 0x11
 12233 00e0 01       		.uleb128 0x1
 12234 00e1 31       		.uleb128 0x31
 12235 00e2 13       		.uleb128 0x13
 12236 00e3 01       		.uleb128 0x1
 12237 00e4 13       		.uleb128 0x13
 12238 00e5 00       		.byte	0
 12239 00e6 00       		.byte	0
 12240 00e7 13       		.uleb128 0x13
 12241 00e8 8A8201   		.uleb128 0x410a
 12242 00eb 00       		.byte	0
 12243 00ec 02       		.uleb128 0x2
 12244 00ed 18       		.uleb128 0x18
 12245 00ee 9142     		.uleb128 0x2111
 12246 00f0 18       		.uleb128 0x18
 12247 00f1 00       		.byte	0
 12248 00f2 00       		.byte	0
 12249 00f3 14       		.uleb128 0x14
 12250 00f4 898201   		.uleb128 0x4109
 12251 00f7 00       		.byte	0
 12252 00f8 11       		.uleb128 0x11
 12253 00f9 01       		.uleb128 0x1
 12254 00fa 31       		.uleb128 0x31
 12255 00fb 13       		.uleb128 0x13
 12256 00fc 00       		.byte	0
 12257 00fd 00       		.byte	0
 12258 00fe 15       		.uleb128 0x15
 12259 00ff 2E       		.uleb128 0x2e
 12260 0100 01       		.byte	0x1
 12261 0101 3F       		.uleb128 0x3f
 12262 0102 19       		.uleb128 0x19
 12263 0103 03       		.uleb128 0x3
 12264 0104 0E       		.uleb128 0xe
 12265 0105 3A       		.uleb128 0x3a
 12266 0106 0B       		.uleb128 0xb
 12267 0107 3B       		.uleb128 0x3b
 12268 0108 0B       		.uleb128 0xb
 12269 0109 27       		.uleb128 0x27
 12270 010a 19       		.uleb128 0x19
 12271 010b 11       		.uleb128 0x11
 12272 010c 01       		.uleb128 0x1
 12273 010d 12       		.uleb128 0x12
ARM GAS  C:\Users\legoc\AppData\Local\Temp\ccOlrioX.s 			page 232


 12274 010e 06       		.uleb128 0x6
 12275 010f 40       		.uleb128 0x40
 12276 0110 18       		.uleb128 0x18
 12277 0111 9742     		.uleb128 0x2117
 12278 0113 19       		.uleb128 0x19
 12279 0114 01       		.uleb128 0x1
 12280 0115 13       		.uleb128 0x13
 12281 0116 00       		.byte	0
 12282 0117 00       		.byte	0
 12283 0118 16       		.uleb128 0x16
 12284 0119 05       		.uleb128 0x5
 12285 011a 00       		.byte	0
 12286 011b 03       		.uleb128 0x3
 12287 011c 08       		.uleb128 0x8
 12288 011d 3A       		.uleb128 0x3a
 12289 011e 0B       		.uleb128 0xb
 12290 011f 3B       		.uleb128 0x3b
 12291 0120 0B       		.uleb128 0xb
 12292 0121 49       		.uleb128 0x49
 12293 0122 13       		.uleb128 0x13
 12294 0123 02       		.uleb128 0x2
 12295 0124 17       		.uleb128 0x17
 12296 0125 00       		.byte	0
 12297 0126 00       		.byte	0
 12298 0127 17       		.uleb128 0x17
 12299 0128 34       		.uleb128 0x34
 12300 0129 00       		.byte	0
 12301 012a 03       		.uleb128 0x3
 12302 012b 08       		.uleb128 0x8
 12303 012c 3A       		.uleb128 0x3a
 12304 012d 0B       		.uleb128 0xb
 12305 012e 3B       		.uleb128 0x3b
 12306 012f 0B       		.uleb128 0xb
 12307 0130 49       		.uleb128 0x49
 12308 0131 13       		.uleb128 0x13
 12309 0132 02       		.uleb128 0x2
 12310 0133 18       		.uleb128 0x18
 12311 0134 00       		.byte	0
 12312 0135 00       		.byte	0
 12313 0136 18       		.uleb128 0x18
 12314 0137 1D       		.uleb128 0x1d
 12315 0138 01       		.byte	0x1
 12316 0139 31       		.uleb128 0x31
 12317 013a 13       		.uleb128 0x13
 12318 013b 52       		.uleb128 0x52
 12319 013c 01       		.uleb128 0x1
 12320 013d 55       		.uleb128 0x55
 12321 013e 17       		.uleb128 0x17
 12322 013f 58       		.uleb128 0x58
 12323 0140 0B       		.uleb128 0xb
 12324 0141 59       		.uleb128 0x59
 12325 0142 0B       		.uleb128 0xb
 12326 0143 01       		.uleb128 0x1
 12327 0144 13       		.uleb128 0x13
 12328 0145 00       		.byte	0
 12329 0146 00       		.byte	0
 12330 0147 19       		.uleb128 0x19
ARM GAS  C:\Users\legoc\AppData\Local\Temp\ccOlrioX.s 			page 233


 12331 0148 1D       		.uleb128 0x1d
 12332 0149 01       		.byte	0x1
 12333 014a 31       		.uleb128 0x31
 12334 014b 13       		.uleb128 0x13
 12335 014c 11       		.uleb128 0x11
 12336 014d 01       		.uleb128 0x1
 12337 014e 12       		.uleb128 0x12
 12338 014f 06       		.uleb128 0x6
 12339 0150 58       		.uleb128 0x58
 12340 0151 0B       		.uleb128 0xb
 12341 0152 59       		.uleb128 0x59
 12342 0153 0B       		.uleb128 0xb
 12343 0154 01       		.uleb128 0x1
 12344 0155 13       		.uleb128 0x13
 12345 0156 00       		.byte	0
 12346 0157 00       		.byte	0
 12347 0158 1A       		.uleb128 0x1a
 12348 0159 05       		.uleb128 0x5
 12349 015a 00       		.byte	0
 12350 015b 31       		.uleb128 0x31
 12351 015c 13       		.uleb128 0x13
 12352 015d 1C       		.uleb128 0x1c
 12353 015e 0B       		.uleb128 0xb
 12354 015f 00       		.byte	0
 12355 0160 00       		.byte	0
 12356 0161 1B       		.uleb128 0x1b
 12357 0162 34       		.uleb128 0x34
 12358 0163 00       		.byte	0
 12359 0164 31       		.uleb128 0x31
 12360 0165 13       		.uleb128 0x13
 12361 0166 00       		.byte	0
 12362 0167 00       		.byte	0
 12363 0168 1C       		.uleb128 0x1c
 12364 0169 0B       		.uleb128 0xb
 12365 016a 01       		.byte	0x1
 12366 016b 55       		.uleb128 0x55
 12367 016c 17       		.uleb128 0x17
 12368 016d 00       		.byte	0
 12369 016e 00       		.byte	0
 12370 016f 1D       		.uleb128 0x1d
 12371 0170 34       		.uleb128 0x34
 12372 0171 00       		.byte	0
 12373 0172 31       		.uleb128 0x31
 12374 0173 13       		.uleb128 0x13
 12375 0174 02       		.uleb128 0x2
 12376 0175 17       		.uleb128 0x17
 12377 0176 00       		.byte	0
 12378 0177 00       		.byte	0
 12379 0178 1E       		.uleb128 0x1e
 12380 0179 898201   		.uleb128 0x4109
 12381 017c 01       		.byte	0x1
 12382 017d 11       		.uleb128 0x11
 12383 017e 01       		.uleb128 0x1
 12384 017f 9542     		.uleb128 0x2115
 12385 0181 19       		.uleb128 0x19
 12386 0182 31       		.uleb128 0x31
 12387 0183 13       		.uleb128 0x13
ARM GAS  C:\Users\legoc\AppData\Local\Temp\ccOlrioX.s 			page 234


 12388 0184 00       		.byte	0
 12389 0185 00       		.byte	0
 12390 0186 1F       		.uleb128 0x1f
 12391 0187 1D       		.uleb128 0x1d
 12392 0188 01       		.byte	0x1
 12393 0189 31       		.uleb128 0x31
 12394 018a 13       		.uleb128 0x13
 12395 018b 52       		.uleb128 0x52
 12396 018c 01       		.uleb128 0x1
 12397 018d 55       		.uleb128 0x55
 12398 018e 17       		.uleb128 0x17
 12399 018f 58       		.uleb128 0x58
 12400 0190 0B       		.uleb128 0xb
 12401 0191 59       		.uleb128 0x59
 12402 0192 0B       		.uleb128 0xb
 12403 0193 00       		.byte	0
 12404 0194 00       		.byte	0
 12405 0195 20       		.uleb128 0x20
 12406 0196 05       		.uleb128 0x5
 12407 0197 00       		.byte	0
 12408 0198 31       		.uleb128 0x31
 12409 0199 13       		.uleb128 0x13
 12410 019a 1C       		.uleb128 0x1c
 12411 019b 05       		.uleb128 0x5
 12412 019c 00       		.byte	0
 12413 019d 00       		.byte	0
 12414 019e 21       		.uleb128 0x21
 12415 019f 898201   		.uleb128 0x4109
 12416 01a2 00       		.byte	0
 12417 01a3 11       		.uleb128 0x11
 12418 01a4 01       		.uleb128 0x1
 12419 01a5 9542     		.uleb128 0x2115
 12420 01a7 19       		.uleb128 0x19
 12421 01a8 31       		.uleb128 0x31
 12422 01a9 13       		.uleb128 0x13
 12423 01aa 00       		.byte	0
 12424 01ab 00       		.byte	0
 12425 01ac 22       		.uleb128 0x22
 12426 01ad 2E       		.uleb128 0x2e
 12427 01ae 01       		.byte	0x1
 12428 01af 3F       		.uleb128 0x3f
 12429 01b0 19       		.uleb128 0x19
 12430 01b1 03       		.uleb128 0x3
 12431 01b2 0E       		.uleb128 0xe
 12432 01b3 3A       		.uleb128 0x3a
 12433 01b4 0B       		.uleb128 0xb
 12434 01b5 3B       		.uleb128 0x3b
 12435 01b6 0B       		.uleb128 0xb
 12436 01b7 11       		.uleb128 0x11
 12437 01b8 01       		.uleb128 0x1
 12438 01b9 12       		.uleb128 0x12
 12439 01ba 06       		.uleb128 0x6
 12440 01bb 40       		.uleb128 0x40
 12441 01bc 18       		.uleb128 0x18
 12442 01bd 9742     		.uleb128 0x2117
 12443 01bf 19       		.uleb128 0x19
 12444 01c0 01       		.uleb128 0x1
ARM GAS  C:\Users\legoc\AppData\Local\Temp\ccOlrioX.s 			page 235


 12445 01c1 13       		.uleb128 0x13
 12446 01c2 00       		.byte	0
 12447 01c3 00       		.byte	0
 12448 01c4 23       		.uleb128 0x23
 12449 01c5 34       		.uleb128 0x34
 12450 01c6 00       		.byte	0
 12451 01c7 03       		.uleb128 0x3
 12452 01c8 08       		.uleb128 0x8
 12453 01c9 3A       		.uleb128 0x3a
 12454 01ca 0B       		.uleb128 0xb
 12455 01cb 3B       		.uleb128 0x3b
 12456 01cc 0B       		.uleb128 0xb
 12457 01cd 49       		.uleb128 0x49
 12458 01ce 13       		.uleb128 0x13
 12459 01cf 02       		.uleb128 0x2
 12460 01d0 17       		.uleb128 0x17
 12461 01d1 00       		.byte	0
 12462 01d2 00       		.byte	0
 12463 01d3 24       		.uleb128 0x24
 12464 01d4 34       		.uleb128 0x34
 12465 01d5 00       		.byte	0
 12466 01d6 03       		.uleb128 0x3
 12467 01d7 0E       		.uleb128 0xe
 12468 01d8 3A       		.uleb128 0x3a
 12469 01d9 0B       		.uleb128 0xb
 12470 01da 3B       		.uleb128 0x3b
 12471 01db 0B       		.uleb128 0xb
 12472 01dc 49       		.uleb128 0x49
 12473 01dd 13       		.uleb128 0x13
 12474 01de 02       		.uleb128 0x2
 12475 01df 17       		.uleb128 0x17
 12476 01e0 00       		.byte	0
 12477 01e1 00       		.byte	0
 12478 01e2 25       		.uleb128 0x25
 12479 01e3 05       		.uleb128 0x5
 12480 01e4 00       		.byte	0
 12481 01e5 31       		.uleb128 0x31
 12482 01e6 13       		.uleb128 0x13
 12483 01e7 00       		.byte	0
 12484 01e8 00       		.byte	0
 12485 01e9 26       		.uleb128 0x26
 12486 01ea 898201   		.uleb128 0x4109
 12487 01ed 01       		.byte	0x1
 12488 01ee 11       		.uleb128 0x11
 12489 01ef 01       		.uleb128 0x1
 12490 01f0 31       		.uleb128 0x31
 12491 01f1 13       		.uleb128 0x13
 12492 01f2 00       		.byte	0
 12493 01f3 00       		.byte	0
 12494 01f4 27       		.uleb128 0x27
 12495 01f5 26       		.uleb128 0x26
 12496 01f6 00       		.byte	0
 12497 01f7 49       		.uleb128 0x49
 12498 01f8 13       		.uleb128 0x13
 12499 01f9 00       		.byte	0
 12500 01fa 00       		.byte	0
 12501 01fb 28       		.uleb128 0x28
ARM GAS  C:\Users\legoc\AppData\Local\Temp\ccOlrioX.s 			page 236


 12502 01fc 0B       		.uleb128 0xb
 12503 01fd 01       		.byte	0x1
 12504 01fe 55       		.uleb128 0x55
 12505 01ff 17       		.uleb128 0x17
 12506 0200 01       		.uleb128 0x1
 12507 0201 13       		.uleb128 0x13
 12508 0202 00       		.byte	0
 12509 0203 00       		.byte	0
 12510 0204 29       		.uleb128 0x29
 12511 0205 05       		.uleb128 0x5
 12512 0206 00       		.byte	0
 12513 0207 03       		.uleb128 0x3
 12514 0208 0E       		.uleb128 0xe
 12515 0209 3A       		.uleb128 0x3a
 12516 020a 0B       		.uleb128 0xb
 12517 020b 3B       		.uleb128 0x3b
 12518 020c 0B       		.uleb128 0xb
 12519 020d 49       		.uleb128 0x49
 12520 020e 13       		.uleb128 0x13
 12521 020f 02       		.uleb128 0x2
 12522 0210 17       		.uleb128 0x17
 12523 0211 00       		.byte	0
 12524 0212 00       		.byte	0
 12525 0213 2A       		.uleb128 0x2a
 12526 0214 34       		.uleb128 0x34
 12527 0215 00       		.byte	0
 12528 0216 03       		.uleb128 0x3
 12529 0217 0E       		.uleb128 0xe
 12530 0218 3A       		.uleb128 0x3a
 12531 0219 0B       		.uleb128 0xb
 12532 021a 3B       		.uleb128 0x3b
 12533 021b 0B       		.uleb128 0xb
 12534 021c 49       		.uleb128 0x49
 12535 021d 13       		.uleb128 0x13
 12536 021e 02       		.uleb128 0x2
 12537 021f 18       		.uleb128 0x18
 12538 0220 00       		.byte	0
 12539 0221 00       		.byte	0
 12540 0222 2B       		.uleb128 0x2b
 12541 0223 34       		.uleb128 0x34
 12542 0224 00       		.byte	0
 12543 0225 03       		.uleb128 0x3
 12544 0226 0E       		.uleb128 0xe
 12545 0227 3A       		.uleb128 0x3a
 12546 0228 0B       		.uleb128 0xb
 12547 0229 3B       		.uleb128 0x3b
 12548 022a 0B       		.uleb128 0xb
 12549 022b 49       		.uleb128 0x49
 12550 022c 13       		.uleb128 0x13
 12551 022d 00       		.byte	0
 12552 022e 00       		.byte	0
 12553 022f 2C       		.uleb128 0x2c
 12554 0230 0B       		.uleb128 0xb
 12555 0231 01       		.byte	0x1
 12556 0232 11       		.uleb128 0x11
 12557 0233 01       		.uleb128 0x1
 12558 0234 12       		.uleb128 0x12
ARM GAS  C:\Users\legoc\AppData\Local\Temp\ccOlrioX.s 			page 237


 12559 0235 06       		.uleb128 0x6
 12560 0236 01       		.uleb128 0x1
 12561 0237 13       		.uleb128 0x13
 12562 0238 00       		.byte	0
 12563 0239 00       		.byte	0
 12564 023a 2D       		.uleb128 0x2d
 12565 023b 1D       		.uleb128 0x1d
 12566 023c 01       		.byte	0x1
 12567 023d 31       		.uleb128 0x31
 12568 023e 13       		.uleb128 0x13
 12569 023f 52       		.uleb128 0x52
 12570 0240 01       		.uleb128 0x1
 12571 0241 55       		.uleb128 0x55
 12572 0242 17       		.uleb128 0x17
 12573 0243 58       		.uleb128 0x58
 12574 0244 0B       		.uleb128 0xb
 12575 0245 59       		.uleb128 0x59
 12576 0246 05       		.uleb128 0x5
 12577 0247 01       		.uleb128 0x1
 12578 0248 13       		.uleb128 0x13
 12579 0249 00       		.byte	0
 12580 024a 00       		.byte	0
 12581 024b 2E       		.uleb128 0x2e
 12582 024c 1D       		.uleb128 0x1d
 12583 024d 01       		.byte	0x1
 12584 024e 31       		.uleb128 0x31
 12585 024f 13       		.uleb128 0x13
 12586 0250 52       		.uleb128 0x52
 12587 0251 01       		.uleb128 0x1
 12588 0252 55       		.uleb128 0x55
 12589 0253 17       		.uleb128 0x17
 12590 0254 58       		.uleb128 0x58
 12591 0255 0B       		.uleb128 0xb
 12592 0256 59       		.uleb128 0x59
 12593 0257 05       		.uleb128 0x5
 12594 0258 00       		.byte	0
 12595 0259 00       		.byte	0
 12596 025a 2F       		.uleb128 0x2f
 12597 025b 34       		.uleb128 0x34
 12598 025c 00       		.byte	0
 12599 025d 03       		.uleb128 0x3
 12600 025e 0E       		.uleb128 0xe
 12601 025f 3A       		.uleb128 0x3a
 12602 0260 0B       		.uleb128 0xb
 12603 0261 3B       		.uleb128 0x3b
 12604 0262 05       		.uleb128 0x5
 12605 0263 49       		.uleb128 0x49
 12606 0264 13       		.uleb128 0x13
 12607 0265 00       		.byte	0
 12608 0266 00       		.byte	0
 12609 0267 30       		.uleb128 0x30
 12610 0268 2E       		.uleb128 0x2e
 12611 0269 01       		.byte	0x1
 12612 026a 3F       		.uleb128 0x3f
 12613 026b 19       		.uleb128 0x19
 12614 026c 03       		.uleb128 0x3
 12615 026d 0E       		.uleb128 0xe
ARM GAS  C:\Users\legoc\AppData\Local\Temp\ccOlrioX.s 			page 238


 12616 026e 3A       		.uleb128 0x3a
 12617 026f 0B       		.uleb128 0xb
 12618 0270 3B       		.uleb128 0x3b
 12619 0271 05       		.uleb128 0x5
 12620 0272 49       		.uleb128 0x49
 12621 0273 13       		.uleb128 0x13
 12622 0274 3C       		.uleb128 0x3c
 12623 0275 19       		.uleb128 0x19
 12624 0276 00       		.byte	0
 12625 0277 00       		.byte	0
 12626 0278 31       		.uleb128 0x31
 12627 0279 18       		.uleb128 0x18
 12628 027a 00       		.byte	0
 12629 027b 00       		.byte	0
 12630 027c 00       		.byte	0
 12631 027d 32       		.uleb128 0x32
 12632 027e 01       		.uleb128 0x1
 12633 027f 01       		.byte	0x1
 12634 0280 49       		.uleb128 0x49
 12635 0281 13       		.uleb128 0x13
 12636 0282 01       		.uleb128 0x1
 12637 0283 13       		.uleb128 0x13
 12638 0284 00       		.byte	0
 12639 0285 00       		.byte	0
 12640 0286 33       		.uleb128 0x33
 12641 0287 21       		.uleb128 0x21
 12642 0288 00       		.byte	0
 12643 0289 49       		.uleb128 0x49
 12644 028a 13       		.uleb128 0x13
 12645 028b 00       		.byte	0
 12646 028c 00       		.byte	0
 12647 028d 34       		.uleb128 0x34
 12648 028e 34       		.uleb128 0x34
 12649 028f 00       		.byte	0
 12650 0290 31       		.uleb128 0x31
 12651 0291 13       		.uleb128 0x13
 12652 0292 49       		.uleb128 0x49
 12653 0293 13       		.uleb128 0x13
 12654 0294 02       		.uleb128 0x2
 12655 0295 17       		.uleb128 0x17
 12656 0296 00       		.byte	0
 12657 0297 00       		.byte	0
 12658 0298 35       		.uleb128 0x35
 12659 0299 2E       		.uleb128 0x2e
 12660 029a 01       		.byte	0x1
 12661 029b 47       		.uleb128 0x47
 12662 029c 13       		.uleb128 0x13
 12663 029d 20       		.uleb128 0x20
 12664 029e 0B       		.uleb128 0xb
 12665 029f 01       		.uleb128 0x1
 12666 02a0 13       		.uleb128 0x13
 12667 02a1 00       		.byte	0
 12668 02a2 00       		.byte	0
 12669 02a3 36       		.uleb128 0x36
 12670 02a4 0B       		.uleb128 0xb
 12671 02a5 01       		.byte	0x1
 12672 02a6 11       		.uleb128 0x11
ARM GAS  C:\Users\legoc\AppData\Local\Temp\ccOlrioX.s 			page 239


 12673 02a7 01       		.uleb128 0x1
 12674 02a8 12       		.uleb128 0x12
 12675 02a9 06       		.uleb128 0x6
 12676 02aa 00       		.byte	0
 12677 02ab 00       		.byte	0
 12678 02ac 37       		.uleb128 0x37
 12679 02ad 2E       		.uleb128 0x2e
 12680 02ae 01       		.byte	0x1
 12681 02af 3F       		.uleb128 0x3f
 12682 02b0 19       		.uleb128 0x19
 12683 02b1 03       		.uleb128 0x3
 12684 02b2 0E       		.uleb128 0xe
 12685 02b3 3A       		.uleb128 0x3a
 12686 02b4 0B       		.uleb128 0xb
 12687 02b5 3B       		.uleb128 0x3b
 12688 02b6 05       		.uleb128 0x5
 12689 02b7 27       		.uleb128 0x27
 12690 02b8 19       		.uleb128 0x19
 12691 02b9 11       		.uleb128 0x11
 12692 02ba 01       		.uleb128 0x1
 12693 02bb 12       		.uleb128 0x12
 12694 02bc 06       		.uleb128 0x6
 12695 02bd 40       		.uleb128 0x40
 12696 02be 18       		.uleb128 0x18
 12697 02bf 9642     		.uleb128 0x2116
 12698 02c1 19       		.uleb128 0x19
 12699 02c2 01       		.uleb128 0x1
 12700 02c3 13       		.uleb128 0x13
 12701 02c4 00       		.byte	0
 12702 02c5 00       		.byte	0
 12703 02c6 38       		.uleb128 0x38
 12704 02c7 05       		.uleb128 0x5
 12705 02c8 00       		.byte	0
 12706 02c9 03       		.uleb128 0x3
 12707 02ca 0E       		.uleb128 0xe
 12708 02cb 3A       		.uleb128 0x3a
 12709 02cc 0B       		.uleb128 0xb
 12710 02cd 3B       		.uleb128 0x3b
 12711 02ce 05       		.uleb128 0x5
 12712 02cf 49       		.uleb128 0x49
 12713 02d0 13       		.uleb128 0x13
 12714 02d1 02       		.uleb128 0x2
 12715 02d2 17       		.uleb128 0x17
 12716 02d3 00       		.byte	0
 12717 02d4 00       		.byte	0
 12718 02d5 39       		.uleb128 0x39
 12719 02d6 34       		.uleb128 0x34
 12720 02d7 00       		.byte	0
 12721 02d8 03       		.uleb128 0x3
 12722 02d9 0E       		.uleb128 0xe
 12723 02da 3A       		.uleb128 0x3a
 12724 02db 0B       		.uleb128 0xb
 12725 02dc 3B       		.uleb128 0x3b
 12726 02dd 05       		.uleb128 0x5
 12727 02de 49       		.uleb128 0x49
 12728 02df 13       		.uleb128 0x13
 12729 02e0 1C       		.uleb128 0x1c
ARM GAS  C:\Users\legoc\AppData\Local\Temp\ccOlrioX.s 			page 240


 12730 02e1 0B       		.uleb128 0xb
 12731 02e2 00       		.byte	0
 12732 02e3 00       		.byte	0
 12733 02e4 3A       		.uleb128 0x3a
 12734 02e5 34       		.uleb128 0x34
 12735 02e6 00       		.byte	0
 12736 02e7 03       		.uleb128 0x3
 12737 02e8 0E       		.uleb128 0xe
 12738 02e9 3A       		.uleb128 0x3a
 12739 02ea 0B       		.uleb128 0xb
 12740 02eb 3B       		.uleb128 0x3b
 12741 02ec 05       		.uleb128 0x5
 12742 02ed 49       		.uleb128 0x49
 12743 02ee 13       		.uleb128 0x13
 12744 02ef 02       		.uleb128 0x2
 12745 02f0 17       		.uleb128 0x17
 12746 02f1 00       		.byte	0
 12747 02f2 00       		.byte	0
 12748 02f3 3B       		.uleb128 0x3b
 12749 02f4 34       		.uleb128 0x34
 12750 02f5 00       		.byte	0
 12751 02f6 03       		.uleb128 0x3
 12752 02f7 0E       		.uleb128 0xe
 12753 02f8 3A       		.uleb128 0x3a
 12754 02f9 0B       		.uleb128 0xb
 12755 02fa 3B       		.uleb128 0x3b
 12756 02fb 05       		.uleb128 0x5
 12757 02fc 49       		.uleb128 0x49
 12758 02fd 13       		.uleb128 0x13
 12759 02fe 02       		.uleb128 0x2
 12760 02ff 18       		.uleb128 0x18
 12761 0300 00       		.byte	0
 12762 0301 00       		.byte	0
 12763 0302 3C       		.uleb128 0x3c
 12764 0303 34       		.uleb128 0x34
 12765 0304 00       		.byte	0
 12766 0305 03       		.uleb128 0x3
 12767 0306 08       		.uleb128 0x8
 12768 0307 3A       		.uleb128 0x3a
 12769 0308 0B       		.uleb128 0xb
 12770 0309 3B       		.uleb128 0x3b
 12771 030a 05       		.uleb128 0x5
 12772 030b 49       		.uleb128 0x49
 12773 030c 13       		.uleb128 0x13
 12774 030d 02       		.uleb128 0x2
 12775 030e 17       		.uleb128 0x17
 12776 030f 00       		.byte	0
 12777 0310 00       		.byte	0
 12778 0311 3D       		.uleb128 0x3d
 12779 0312 05       		.uleb128 0x5
 12780 0313 00       		.byte	0
 12781 0314 31       		.uleb128 0x31
 12782 0315 13       		.uleb128 0x13
 12783 0316 1C       		.uleb128 0x1c
 12784 0317 0D       		.uleb128 0xd
 12785 0318 00       		.byte	0
 12786 0319 00       		.byte	0
ARM GAS  C:\Users\legoc\AppData\Local\Temp\ccOlrioX.s 			page 241


 12787 031a 3E       		.uleb128 0x3e
 12788 031b 1D       		.uleb128 0x1d
 12789 031c 01       		.byte	0x1
 12790 031d 31       		.uleb128 0x31
 12791 031e 13       		.uleb128 0x13
 12792 031f 11       		.uleb128 0x11
 12793 0320 01       		.uleb128 0x1
 12794 0321 12       		.uleb128 0x12
 12795 0322 06       		.uleb128 0x6
 12796 0323 58       		.uleb128 0x58
 12797 0324 0B       		.uleb128 0xb
 12798 0325 59       		.uleb128 0x59
 12799 0326 05       		.uleb128 0x5
 12800 0327 01       		.uleb128 0x1
 12801 0328 13       		.uleb128 0x13
 12802 0329 00       		.byte	0
 12803 032a 00       		.byte	0
 12804 032b 3F       		.uleb128 0x3f
 12805 032c 1D       		.uleb128 0x1d
 12806 032d 01       		.byte	0x1
 12807 032e 31       		.uleb128 0x31
 12808 032f 13       		.uleb128 0x13
 12809 0330 11       		.uleb128 0x11
 12810 0331 01       		.uleb128 0x1
 12811 0332 12       		.uleb128 0x12
 12812 0333 06       		.uleb128 0x6
 12813 0334 58       		.uleb128 0x58
 12814 0335 0B       		.uleb128 0xb
 12815 0336 59       		.uleb128 0x59
 12816 0337 05       		.uleb128 0x5
 12817 0338 00       		.byte	0
 12818 0339 00       		.byte	0
 12819 033a 40       		.uleb128 0x40
 12820 033b 2E       		.uleb128 0x2e
 12821 033c 01       		.byte	0x1
 12822 033d 3F       		.uleb128 0x3f
 12823 033e 19       		.uleb128 0x19
 12824 033f 03       		.uleb128 0x3
 12825 0340 0E       		.uleb128 0xe
 12826 0341 3A       		.uleb128 0x3a
 12827 0342 0B       		.uleb128 0xb
 12828 0343 3B       		.uleb128 0x3b
 12829 0344 05       		.uleb128 0x5
 12830 0345 49       		.uleb128 0x49
 12831 0346 13       		.uleb128 0x13
 12832 0347 3C       		.uleb128 0x3c
 12833 0348 19       		.uleb128 0x19
 12834 0349 01       		.uleb128 0x1
 12835 034a 13       		.uleb128 0x13
 12836 034b 00       		.byte	0
 12837 034c 00       		.byte	0
 12838 034d 41       		.uleb128 0x41
 12839 034e 34       		.uleb128 0x34
 12840 034f 00       		.byte	0
 12841 0350 34       		.uleb128 0x34
 12842 0351 19       		.uleb128 0x19
 12843 0352 49       		.uleb128 0x49
ARM GAS  C:\Users\legoc\AppData\Local\Temp\ccOlrioX.s 			page 242


 12844 0353 13       		.uleb128 0x13
 12845 0354 02       		.uleb128 0x2
 12846 0355 17       		.uleb128 0x17
 12847 0356 00       		.byte	0
 12848 0357 00       		.byte	0
 12849 0358 42       		.uleb128 0x42
 12850 0359 21       		.uleb128 0x21
 12851 035a 00       		.byte	0
 12852 035b 49       		.uleb128 0x49
 12853 035c 13       		.uleb128 0x13
 12854 035d 2F       		.uleb128 0x2f
 12855 035e 0B       		.uleb128 0xb
 12856 035f 00       		.byte	0
 12857 0360 00       		.byte	0
 12858 0361 43       		.uleb128 0x43
 12859 0362 21       		.uleb128 0x21
 12860 0363 00       		.byte	0
 12861 0364 49       		.uleb128 0x49
 12862 0365 13       		.uleb128 0x13
 12863 0366 2F       		.uleb128 0x2f
 12864 0367 13       		.uleb128 0x13
 12865 0368 00       		.byte	0
 12866 0369 00       		.byte	0
 12867 036a 44       		.uleb128 0x44
 12868 036b 2E       		.uleb128 0x2e
 12869 036c 01       		.byte	0x1
 12870 036d 3F       		.uleb128 0x3f
 12871 036e 19       		.uleb128 0x19
 12872 036f 03       		.uleb128 0x3
 12873 0370 0E       		.uleb128 0xe
 12874 0371 3A       		.uleb128 0x3a
 12875 0372 0B       		.uleb128 0xb
 12876 0373 3B       		.uleb128 0x3b
 12877 0374 05       		.uleb128 0x5
 12878 0375 11       		.uleb128 0x11
 12879 0376 01       		.uleb128 0x1
 12880 0377 12       		.uleb128 0x12
 12881 0378 06       		.uleb128 0x6
 12882 0379 40       		.uleb128 0x40
 12883 037a 18       		.uleb128 0x18
 12884 037b 9742     		.uleb128 0x2117
 12885 037d 19       		.uleb128 0x19
 12886 037e 01       		.uleb128 0x1
 12887 037f 13       		.uleb128 0x13
 12888 0380 00       		.byte	0
 12889 0381 00       		.byte	0
 12890 0382 45       		.uleb128 0x45
 12891 0383 34       		.uleb128 0x34
 12892 0384 00       		.byte	0
 12893 0385 31       		.uleb128 0x31
 12894 0386 13       		.uleb128 0x13
 12895 0387 1C       		.uleb128 0x1c
 12896 0388 0D       		.uleb128 0xd
 12897 0389 00       		.byte	0
 12898 038a 00       		.byte	0
 12899 038b 46       		.uleb128 0x46
 12900 038c 34       		.uleb128 0x34
ARM GAS  C:\Users\legoc\AppData\Local\Temp\ccOlrioX.s 			page 243


 12901 038d 00       		.byte	0
 12902 038e 31       		.uleb128 0x31
 12903 038f 13       		.uleb128 0x13
 12904 0390 1C       		.uleb128 0x1c
 12905 0391 0B       		.uleb128 0xb
 12906 0392 00       		.byte	0
 12907 0393 00       		.byte	0
 12908 0394 47       		.uleb128 0x47
 12909 0395 2E       		.uleb128 0x2e
 12910 0396 01       		.byte	0x1
 12911 0397 3F       		.uleb128 0x3f
 12912 0398 19       		.uleb128 0x19
 12913 0399 03       		.uleb128 0x3
 12914 039a 0E       		.uleb128 0xe
 12915 039b 3A       		.uleb128 0x3a
 12916 039c 0B       		.uleb128 0xb
 12917 039d 3B       		.uleb128 0x3b
 12918 039e 05       		.uleb128 0x5
 12919 039f 27       		.uleb128 0x27
 12920 03a0 19       		.uleb128 0x19
 12921 03a1 11       		.uleb128 0x11
 12922 03a2 01       		.uleb128 0x1
 12923 03a3 12       		.uleb128 0x12
 12924 03a4 06       		.uleb128 0x6
 12925 03a5 40       		.uleb128 0x40
 12926 03a6 18       		.uleb128 0x18
 12927 03a7 9742     		.uleb128 0x2117
 12928 03a9 19       		.uleb128 0x19
 12929 03aa 01       		.uleb128 0x1
 12930 03ab 13       		.uleb128 0x13
 12931 03ac 00       		.byte	0
 12932 03ad 00       		.byte	0
 12933 03ae 48       		.uleb128 0x48
 12934 03af 05       		.uleb128 0x5
 12935 03b0 00       		.byte	0
 12936 03b1 03       		.uleb128 0x3
 12937 03b2 08       		.uleb128 0x8
 12938 03b3 3A       		.uleb128 0x3a
 12939 03b4 0B       		.uleb128 0xb
 12940 03b5 3B       		.uleb128 0x3b
 12941 03b6 05       		.uleb128 0x5
 12942 03b7 49       		.uleb128 0x49
 12943 03b8 13       		.uleb128 0x13
 12944 03b9 02       		.uleb128 0x2
 12945 03ba 17       		.uleb128 0x17
 12946 03bb 00       		.byte	0
 12947 03bc 00       		.byte	0
 12948 03bd 49       		.uleb128 0x49
 12949 03be 34       		.uleb128 0x34
 12950 03bf 00       		.byte	0
 12951 03c0 03       		.uleb128 0x3
 12952 03c1 0E       		.uleb128 0xe
 12953 03c2 3A       		.uleb128 0x3a
 12954 03c3 0B       		.uleb128 0xb
 12955 03c4 3B       		.uleb128 0x3b
 12956 03c5 0B       		.uleb128 0xb
 12957 03c6 49       		.uleb128 0x49
ARM GAS  C:\Users\legoc\AppData\Local\Temp\ccOlrioX.s 			page 244


 12958 03c7 13       		.uleb128 0x13
 12959 03c8 1C       		.uleb128 0x1c
 12960 03c9 0A       		.uleb128 0xa
 12961 03ca 00       		.byte	0
 12962 03cb 00       		.byte	0
 12963 03cc 4A       		.uleb128 0x4a
 12964 03cd 34       		.uleb128 0x34
 12965 03ce 00       		.byte	0
 12966 03cf 03       		.uleb128 0x3
 12967 03d0 0E       		.uleb128 0xe
 12968 03d1 3A       		.uleb128 0x3a
 12969 03d2 0B       		.uleb128 0xb
 12970 03d3 3B       		.uleb128 0x3b
 12971 03d4 05       		.uleb128 0x5
 12972 03d5 49       		.uleb128 0x49
 12973 03d6 13       		.uleb128 0x13
 12974 03d7 1C       		.uleb128 0x1c
 12975 03d8 0A       		.uleb128 0xa
 12976 03d9 00       		.byte	0
 12977 03da 00       		.byte	0
 12978 03db 4B       		.uleb128 0x4b
 12979 03dc 21       		.uleb128 0x21
 12980 03dd 00       		.byte	0
 12981 03de 49       		.uleb128 0x49
 12982 03df 13       		.uleb128 0x13
 12983 03e0 2F       		.uleb128 0x2f
 12984 03e1 0D       		.uleb128 0xd
 12985 03e2 00       		.byte	0
 12986 03e3 00       		.byte	0
 12987 03e4 4C       		.uleb128 0x4c
 12988 03e5 34       		.uleb128 0x34
 12989 03e6 00       		.byte	0
 12990 03e7 03       		.uleb128 0x3
 12991 03e8 0E       		.uleb128 0xe
 12992 03e9 3A       		.uleb128 0x3a
 12993 03ea 0B       		.uleb128 0xb
 12994 03eb 3B       		.uleb128 0x3b
 12995 03ec 0B       		.uleb128 0xb
 12996 03ed 49       		.uleb128 0x49
 12997 03ee 13       		.uleb128 0x13
 12998 03ef 3F       		.uleb128 0x3f
 12999 03f0 19       		.uleb128 0x19
 13000 03f1 3C       		.uleb128 0x3c
 13001 03f2 19       		.uleb128 0x19
 13002 03f3 00       		.byte	0
 13003 03f4 00       		.byte	0
 13004 03f5 4D       		.uleb128 0x4d
 13005 03f6 2E       		.uleb128 0x2e
 13006 03f7 00       		.byte	0
 13007 03f8 3F       		.uleb128 0x3f
 13008 03f9 19       		.uleb128 0x19
 13009 03fa 3C       		.uleb128 0x3c
 13010 03fb 19       		.uleb128 0x19
 13011 03fc 6E       		.uleb128 0x6e
 13012 03fd 0E       		.uleb128 0xe
 13013 03fe 03       		.uleb128 0x3
 13014 03ff 0E       		.uleb128 0xe
ARM GAS  C:\Users\legoc\AppData\Local\Temp\ccOlrioX.s 			page 245


 13015 0400 3A       		.uleb128 0x3a
 13016 0401 0B       		.uleb128 0xb
 13017 0402 3B       		.uleb128 0x3b
 13018 0403 0B       		.uleb128 0xb
 13019 0404 00       		.byte	0
 13020 0405 00       		.byte	0
 13021 0406 4E       		.uleb128 0x4e
 13022 0407 2E       		.uleb128 0x2e
 13023 0408 00       		.byte	0
 13024 0409 3F       		.uleb128 0x3f
 13025 040a 19       		.uleb128 0x19
 13026 040b 3C       		.uleb128 0x3c
 13027 040c 19       		.uleb128 0x19
 13028 040d 6E       		.uleb128 0x6e
 13029 040e 0E       		.uleb128 0xe
 13030 040f 03       		.uleb128 0x3
 13031 0410 0E       		.uleb128 0xe
 13032 0411 3A       		.uleb128 0x3a
 13033 0412 0B       		.uleb128 0xb
 13034 0413 3B       		.uleb128 0x3b
 13035 0414 05       		.uleb128 0x5
 13036 0415 00       		.byte	0
 13037 0416 00       		.byte	0
 13038 0417 00       		.byte	0
 13039              		.section	.debug_loc,"",%progbits
 13040              	.Ldebug_loc0:
 13041              	.LLST0:
 13042 0000 00000000 		.4byte	.LVL0
 13043 0004 06000000 		.4byte	.LVL1
 13044 0008 0100     		.2byte	0x1
 13045 000a 50       		.byte	0x50
 13046 000b 06000000 		.4byte	.LVL1
 13047 000f 22000000 		.4byte	.LFE1
 13048 0013 0400     		.2byte	0x4
 13049 0015 F3       		.byte	0xf3
 13050 0016 01       		.uleb128 0x1
 13051 0017 50       		.byte	0x50
 13052 0018 9F       		.byte	0x9f
 13053 0019 00000000 		.4byte	0
 13054 001d 00000000 		.4byte	0
 13055              	.LLST1:
 13056 0021 00000000 		.4byte	.LVL6
 13057 0025 06000000 		.4byte	.LVL7
 13058 0029 0100     		.2byte	0x1
 13059 002b 50       		.byte	0x50
 13060 002c 06000000 		.4byte	.LVL7
 13061 0030 22000000 		.4byte	.LFE2
 13062 0034 0400     		.2byte	0x4
 13063 0036 F3       		.byte	0xf3
 13064 0037 01       		.uleb128 0x1
 13065 0038 50       		.byte	0x50
 13066 0039 9F       		.byte	0x9f
 13067 003a 00000000 		.4byte	0
 13068 003e 00000000 		.4byte	0
 13069              	.LLST2:
 13070 0042 00000000 		.4byte	.LVL12
 13071 0046 0E000000 		.4byte	.LVL15
ARM GAS  C:\Users\legoc\AppData\Local\Temp\ccOlrioX.s 			page 246


 13072 004a 0100     		.2byte	0x1
 13073 004c 50       		.byte	0x50
 13074 004d 0E000000 		.4byte	.LVL15
 13075 0051 FE000000 		.4byte	.LFE3
 13076 0055 0400     		.2byte	0x4
 13077 0057 F3       		.byte	0xf3
 13078 0058 01       		.uleb128 0x1
 13079 0059 50       		.byte	0x50
 13080 005a 9F       		.byte	0x9f
 13081 005b 00000000 		.4byte	0
 13082 005f 00000000 		.4byte	0
 13083              	.LLST3:
 13084 0063 00000000 		.4byte	.LVL12
 13085 0067 19000000 		.4byte	.LVL18-1
 13086 006b 0100     		.2byte	0x1
 13087 006d 51       		.byte	0x51
 13088 006e 19000000 		.4byte	.LVL18-1
 13089 0072 FE000000 		.4byte	.LFE3
 13090 0076 0400     		.2byte	0x4
 13091 0078 F3       		.byte	0xf3
 13092 0079 01       		.uleb128 0x1
 13093 007a 51       		.byte	0x51
 13094 007b 9F       		.byte	0x9f
 13095 007c 00000000 		.4byte	0
 13096 0080 00000000 		.4byte	0
 13097              	.LLST4:
 13098 0084 00000000 		.4byte	.LVL12
 13099 0088 06000000 		.4byte	.LVL13
 13100 008c 0100     		.2byte	0x1
 13101 008e 52       		.byte	0x52
 13102 008f 06000000 		.4byte	.LVL13
 13103 0093 FE000000 		.4byte	.LFE3
 13104 0097 0400     		.2byte	0x4
 13105 0099 F3       		.byte	0xf3
 13106 009a 01       		.uleb128 0x1
 13107 009b 52       		.byte	0x52
 13108 009c 9F       		.byte	0x9f
 13109 009d 00000000 		.4byte	0
 13110 00a1 00000000 		.4byte	0
 13111              	.LLST5:
 13112 00a5 00000000 		.4byte	.LVL12
 13113 00a9 08000000 		.4byte	.LVL14
 13114 00ad 0100     		.2byte	0x1
 13115 00af 53       		.byte	0x53
 13116 00b0 08000000 		.4byte	.LVL14
 13117 00b4 FE000000 		.4byte	.LFE3
 13118 00b8 0400     		.2byte	0x4
 13119 00ba F3       		.byte	0xf3
 13120 00bb 01       		.uleb128 0x1
 13121 00bc 53       		.byte	0x53
 13122 00bd 9F       		.byte	0x9f
 13123 00be 00000000 		.4byte	0
 13124 00c2 00000000 		.4byte	0
 13125              	.LLST6:
 13126 00c6 16000000 		.4byte	.LVL17
 13127 00ca 30000000 		.4byte	.LVL22
 13128 00ce 0300     		.2byte	0x3
ARM GAS  C:\Users\legoc\AppData\Local\Temp\ccOlrioX.s 			page 247


 13129 00d0 08       		.byte	0x8
 13130 00d1 2A       		.byte	0x2a
 13131 00d2 9F       		.byte	0x9f
 13132 00d3 00000000 		.4byte	0
 13133 00d7 00000000 		.4byte	0
 13134              	.LLST7:
 13135 00db 7A000000 		.4byte	.LVL33
 13136 00df 96000000 		.4byte	.LVL38
 13137 00e3 0300     		.2byte	0x3
 13138 00e5 08       		.byte	0x8
 13139 00e6 2B       		.byte	0x2b
 13140 00e7 9F       		.byte	0x9f
 13141 00e8 00000000 		.4byte	0
 13142 00ec 00000000 		.4byte	0
 13143              	.LLST8:
 13144 00f0 00000000 		.4byte	.LVL54
 13145 00f4 43000000 		.4byte	.LVL60-1
 13146 00f8 0100     		.2byte	0x1
 13147 00fa 50       		.byte	0x50
 13148 00fb 43000000 		.4byte	.LVL60-1
 13149 00ff A2000000 		.4byte	.LVL76
 13150 0103 0400     		.2byte	0x4
 13151 0105 F3       		.byte	0xf3
 13152 0106 01       		.uleb128 0x1
 13153 0107 50       		.byte	0x50
 13154 0108 9F       		.byte	0x9f
 13155 0109 A2000000 		.4byte	.LVL76
 13156 010d A6000000 		.4byte	.LFE4
 13157 0111 0100     		.2byte	0x1
 13158 0113 50       		.byte	0x50
 13159 0114 00000000 		.4byte	0
 13160 0118 00000000 		.4byte	0
 13161              	.LLST9:
 13162 011c 00000000 		.4byte	.LVL54
 13163 0120 43000000 		.4byte	.LVL60-1
 13164 0124 0100     		.2byte	0x1
 13165 0126 51       		.byte	0x51
 13166 0127 43000000 		.4byte	.LVL60-1
 13167 012b A2000000 		.4byte	.LVL76
 13168 012f 0400     		.2byte	0x4
 13169 0131 F3       		.byte	0xf3
 13170 0132 01       		.uleb128 0x1
 13171 0133 51       		.byte	0x51
 13172 0134 9F       		.byte	0x9f
 13173 0135 A2000000 		.4byte	.LVL76
 13174 0139 A6000000 		.4byte	.LFE4
 13175 013d 0100     		.2byte	0x1
 13176 013f 51       		.byte	0x51
 13177 0140 00000000 		.4byte	0
 13178 0144 00000000 		.4byte	0
 13179              	.LLST10:
 13180 0148 00000000 		.4byte	.LVL54
 13181 014c 40000000 		.4byte	.LVL59
 13182 0150 0100     		.2byte	0x1
 13183 0152 52       		.byte	0x52
 13184 0153 40000000 		.4byte	.LVL59
 13185 0157 A2000000 		.4byte	.LVL76
ARM GAS  C:\Users\legoc\AppData\Local\Temp\ccOlrioX.s 			page 248


 13186 015b 0400     		.2byte	0x4
 13187 015d F3       		.byte	0xf3
 13188 015e 01       		.uleb128 0x1
 13189 015f 52       		.byte	0x52
 13190 0160 9F       		.byte	0x9f
 13191 0161 A2000000 		.4byte	.LVL76
 13192 0165 A6000000 		.4byte	.LFE4
 13193 0169 0100     		.2byte	0x1
 13194 016b 52       		.byte	0x52
 13195 016c 00000000 		.4byte	0
 13196 0170 00000000 		.4byte	0
 13197              	.LLST11:
 13198 0174 00000000 		.4byte	.LVL54
 13199 0178 18000000 		.4byte	.LVL56
 13200 017c 0100     		.2byte	0x1
 13201 017e 53       		.byte	0x53
 13202 017f 18000000 		.4byte	.LVL56
 13203 0183 A2000000 		.4byte	.LVL76
 13204 0187 0400     		.2byte	0x4
 13205 0189 F3       		.byte	0xf3
 13206 018a 01       		.uleb128 0x1
 13207 018b 53       		.byte	0x53
 13208 018c 9F       		.byte	0x9f
 13209 018d A2000000 		.4byte	.LVL76
 13210 0191 A6000000 		.4byte	.LFE4
 13211 0195 0100     		.2byte	0x1
 13212 0197 53       		.byte	0x53
 13213 0198 00000000 		.4byte	0
 13214 019c 00000000 		.4byte	0
 13215              	.LLST12:
 13216 01a0 00000000 		.4byte	.LVL54
 13217 01a4 9E000000 		.4byte	.LVL75
 13218 01a8 0200     		.2byte	0x2
 13219 01aa 91       		.byte	0x91
 13220 01ab 00       		.sleb128 0
 13221 01ac 9E000000 		.4byte	.LVL75
 13222 01b0 A2000000 		.4byte	.LVL76
 13223 01b4 0200     		.2byte	0x2
 13224 01b6 7D       		.byte	0x7d
 13225 01b7 00       		.sleb128 0
 13226 01b8 A2000000 		.4byte	.LVL76
 13227 01bc A6000000 		.4byte	.LFE4
 13228 01c0 0200     		.2byte	0x2
 13229 01c2 91       		.byte	0x91
 13230 01c3 00       		.sleb128 0
 13231 01c4 00000000 		.4byte	0
 13232 01c8 00000000 		.4byte	0
 13233              	.LLST13:
 13234 01cc 14000000 		.4byte	.LVL55
 13235 01d0 5A000000 		.4byte	.LVL64
 13236 01d4 0100     		.2byte	0x1
 13237 01d6 55       		.byte	0x55
 13238 01d7 5A000000 		.4byte	.LVL64
 13239 01db 9E000000 		.4byte	.LVL75
 13240 01df 0200     		.2byte	0x2
 13241 01e1 91       		.byte	0x91
 13242 01e2 00       		.sleb128 0
ARM GAS  C:\Users\legoc\AppData\Local\Temp\ccOlrioX.s 			page 249


 13243 01e3 9E000000 		.4byte	.LVL75
 13244 01e7 A2000000 		.4byte	.LVL76
 13245 01eb 0200     		.2byte	0x2
 13246 01ed 7D       		.byte	0x7d
 13247 01ee 00       		.sleb128 0
 13248 01ef 00000000 		.4byte	0
 13249 01f3 00000000 		.4byte	0
 13250              	.LLST14:
 13251 01f7 14000000 		.4byte	.LVL55
 13252 01fb 5C000000 		.4byte	.LVL65
 13253 01ff 0100     		.2byte	0x1
 13254 0201 58       		.byte	0x58
 13255 0202 00000000 		.4byte	0
 13256 0206 00000000 		.4byte	0
 13257              	.LLST15:
 13258 020a 14000000 		.4byte	.LVL55
 13259 020e 2A000000 		.4byte	.LVL57
 13260 0212 0100     		.2byte	0x1
 13261 0214 52       		.byte	0x52
 13262 0215 2A000000 		.4byte	.LVL57
 13263 0219 9E000000 		.4byte	.LVL75
 13264 021d 0100     		.2byte	0x1
 13265 021f 57       		.byte	0x57
 13266 0220 00000000 		.4byte	0
 13267 0224 00000000 		.4byte	0
 13268              	.LLST16:
 13269 0228 14000000 		.4byte	.LVL55
 13270 022c 43000000 		.4byte	.LVL60-1
 13271 0230 0100     		.2byte	0x1
 13272 0232 51       		.byte	0x51
 13273 0233 43000000 		.4byte	.LVL60-1
 13274 0237 5A000000 		.4byte	.LVL64
 13275 023b 0400     		.2byte	0x4
 13276 023d F3       		.byte	0xf3
 13277 023e 01       		.uleb128 0x1
 13278 023f 51       		.byte	0x51
 13279 0240 9F       		.byte	0x9f
 13280 0241 5A000000 		.4byte	.LVL64
 13281 0245 9E000000 		.4byte	.LVL75
 13282 0249 0100     		.2byte	0x1
 13283 024b 58       		.byte	0x58
 13284 024c 00000000 		.4byte	0
 13285 0250 00000000 		.4byte	0
 13286              	.LLST17:
 13287 0254 14000000 		.4byte	.LVL55
 13288 0258 43000000 		.4byte	.LVL60-1
 13289 025c 0100     		.2byte	0x1
 13290 025e 50       		.byte	0x50
 13291 025f 43000000 		.4byte	.LVL60-1
 13292 0263 5C000000 		.4byte	.LVL65
 13293 0267 0400     		.2byte	0x4
 13294 0269 F3       		.byte	0xf3
 13295 026a 01       		.uleb128 0x1
 13296 026b 50       		.byte	0x50
 13297 026c 9F       		.byte	0x9f
 13298 026d 5C000000 		.4byte	.LVL65
 13299 0271 64000000 		.4byte	.LVL66
ARM GAS  C:\Users\legoc\AppData\Local\Temp\ccOlrioX.s 			page 250


 13300 0275 0100     		.2byte	0x1
 13301 0277 57       		.byte	0x57
 13302 0278 64000000 		.4byte	.LVL66
 13303 027c 82000000 		.4byte	.LVL71
 13304 0280 0100     		.2byte	0x1
 13305 0282 54       		.byte	0x54
 13306 0283 86000000 		.4byte	.LVL72
 13307 0287 8A000000 		.4byte	.LVL73
 13308 028b 0100     		.2byte	0x1
 13309 028d 54       		.byte	0x54
 13310 028e 00000000 		.4byte	0
 13311 0292 00000000 		.4byte	0
 13312              	.LLST18:
 13313 0296 58000000 		.4byte	.LVL63
 13314 029a 9E000000 		.4byte	.LVL75
 13315 029e 0100     		.2byte	0x1
 13316 02a0 56       		.byte	0x56
 13317 02a1 9E000000 		.4byte	.LVL75
 13318 02a5 A2000000 		.4byte	.LVL76
 13319 02a9 0B00     		.2byte	0xb
 13320 02ab 7D       		.byte	0x7d
 13321 02ac 00       		.sleb128 0
 13322 02ad 94       		.byte	0x94
 13323 02ae 02       		.byte	0x2
 13324 02af 0A       		.byte	0xa
 13325 02b0 FFFF     		.2byte	0xffff
 13326 02b2 1A       		.byte	0x1a
 13327 02b3 38       		.byte	0x38
 13328 02b4 25       		.byte	0x25
 13329 02b5 9F       		.byte	0x9f
 13330 02b6 00000000 		.4byte	0
 13331 02ba 00000000 		.4byte	0
 13332              	.LLST19:
 13333 02be 5A000000 		.4byte	.LVL64
 13334 02c2 9E000000 		.4byte	.LVL75
 13335 02c6 0100     		.2byte	0x1
 13336 02c8 55       		.byte	0x55
 13337 02c9 9E000000 		.4byte	.LVL75
 13338 02cd A2000000 		.4byte	.LVL76
 13339 02d1 0200     		.2byte	0x2
 13340 02d3 7D       		.byte	0x7d
 13341 02d4 00       		.sleb128 0
 13342 02d5 00000000 		.4byte	0
 13343 02d9 00000000 		.4byte	0
 13344              	.LLST20:
 13345 02dd 00000000 		.4byte	.LVL77
 13346 02e1 22000000 		.4byte	.LVL81
 13347 02e5 0100     		.2byte	0x1
 13348 02e7 50       		.byte	0x50
 13349 02e8 22000000 		.4byte	.LVL81
 13350 02ec BE000000 		.4byte	.LFE5
 13351 02f0 0400     		.2byte	0x4
 13352 02f2 F3       		.byte	0xf3
 13353 02f3 01       		.uleb128 0x1
 13354 02f4 50       		.byte	0x50
 13355 02f5 9F       		.byte	0x9f
 13356 02f6 00000000 		.4byte	0
ARM GAS  C:\Users\legoc\AppData\Local\Temp\ccOlrioX.s 			page 251


 13357 02fa 00000000 		.4byte	0
 13358              	.LLST21:
 13359 02fe 00000000 		.4byte	.LVL77
 13360 0302 0A000000 		.4byte	.LVL79
 13361 0306 0100     		.2byte	0x1
 13362 0308 51       		.byte	0x51
 13363 0309 0A000000 		.4byte	.LVL79
 13364 030d BE000000 		.4byte	.LFE5
 13365 0311 0400     		.2byte	0x4
 13366 0313 F3       		.byte	0xf3
 13367 0314 01       		.uleb128 0x1
 13368 0315 51       		.byte	0x51
 13369 0316 9F       		.byte	0x9f
 13370 0317 00000000 		.4byte	0
 13371 031b 00000000 		.4byte	0
 13372              	.LLST22:
 13373 031f 00000000 		.4byte	.LVL77
 13374 0323 08000000 		.4byte	.LVL78
 13375 0327 0100     		.2byte	0x1
 13376 0329 52       		.byte	0x52
 13377 032a 08000000 		.4byte	.LVL78
 13378 032e BE000000 		.4byte	.LFE5
 13379 0332 0400     		.2byte	0x4
 13380 0334 F3       		.byte	0xf3
 13381 0335 01       		.uleb128 0x1
 13382 0336 52       		.byte	0x52
 13383 0337 9F       		.byte	0x9f
 13384 0338 00000000 		.4byte	0
 13385 033c 00000000 		.4byte	0
 13386              	.LLST23:
 13387 0340 00000000 		.4byte	.LVL77
 13388 0344 0E000000 		.4byte	.LVL80
 13389 0348 0100     		.2byte	0x1
 13390 034a 53       		.byte	0x53
 13391 034b 0E000000 		.4byte	.LVL80
 13392 034f 4C000000 		.4byte	.LVL87
 13393 0353 0100     		.2byte	0x1
 13394 0355 52       		.byte	0x52
 13395 0356 4C000000 		.4byte	.LVL87
 13396 035a BE000000 		.4byte	.LFE5
 13397 035e 0400     		.2byte	0x4
 13398 0360 F3       		.byte	0xf3
 13399 0361 01       		.uleb128 0x1
 13400 0362 53       		.byte	0x53
 13401 0363 9F       		.byte	0x9f
 13402 0364 00000000 		.4byte	0
 13403 0368 00000000 		.4byte	0
 13404              	.LLST24:
 13405 036c 00000000 		.4byte	.LVL77
 13406 0370 3E000000 		.4byte	.LVL84
 13407 0374 0200     		.2byte	0x2
 13408 0376 91       		.byte	0x91
 13409 0377 00       		.sleb128 0
 13410 0378 3E000000 		.4byte	.LVL84
 13411 037c BA000000 		.4byte	.LVL105
 13412 0380 0200     		.2byte	0x2
 13413 0382 91       		.byte	0x91
ARM GAS  C:\Users\legoc\AppData\Local\Temp\ccOlrioX.s 			page 252


 13414 0383 00       		.sleb128 0
 13415 0384 BA000000 		.4byte	.LVL105
 13416 0388 BE000000 		.4byte	.LFE5
 13417 038c 0200     		.2byte	0x2
 13418 038e 7D       		.byte	0x7d
 13419 038f 00       		.sleb128 0
 13420 0390 00000000 		.4byte	0
 13421 0394 00000000 		.4byte	0
 13422              	.LLST25:
 13423 0398 26000000 		.4byte	.LVL82
 13424 039c 76000000 		.4byte	.LVL94
 13425 03a0 0100     		.2byte	0x1
 13426 03a2 55       		.byte	0x55
 13427 03a3 76000000 		.4byte	.LVL94
 13428 03a7 BA000000 		.4byte	.LVL105
 13429 03ab 0200     		.2byte	0x2
 13430 03ad 91       		.byte	0x91
 13431 03ae 00       		.sleb128 0
 13432 03af BA000000 		.4byte	.LVL105
 13433 03b3 BE000000 		.4byte	.LFE5
 13434 03b7 0200     		.2byte	0x2
 13435 03b9 7D       		.byte	0x7d
 13436 03ba 00       		.sleb128 0
 13437 03bb 00000000 		.4byte	0
 13438 03bf 00000000 		.4byte	0
 13439              	.LLST26:
 13440 03c3 22000000 		.4byte	.LVL81
 13441 03c7 56000000 		.4byte	.LVL88
 13442 03cb 0100     		.2byte	0x1
 13443 03cd 58       		.byte	0x58
 13444 03ce 56000000 		.4byte	.LVL88
 13445 03d2 74000000 		.4byte	.LVL93
 13446 03d6 0100     		.2byte	0x1
 13447 03d8 56       		.byte	0x56
 13448 03d9 00000000 		.4byte	0
 13449 03dd 00000000 		.4byte	0
 13450              	.LLST27:
 13451 03e1 22000000 		.4byte	.LVL81
 13452 03e5 4A000000 		.4byte	.LVL86
 13453 03e9 0100     		.2byte	0x1
 13454 03eb 57       		.byte	0x57
 13455 03ec 00000000 		.4byte	0
 13456 03f0 00000000 		.4byte	0
 13457              	.LLST28:
 13458 03f4 22000000 		.4byte	.LVL81
 13459 03f8 3A000000 		.4byte	.LVL83
 13460 03fc 0700     		.2byte	0x7
 13461 03fe 0A       		.byte	0xa
 13462 03ff 4001     		.2byte	0x140
 13463 0401 70       		.byte	0x70
 13464 0402 00       		.sleb128 0
 13465 0403 1C       		.byte	0x1c
 13466 0404 9F       		.byte	0x9f
 13467 0405 3E000000 		.4byte	.LVL84
 13468 0409 5C000000 		.4byte	.LVL89
 13469 040d 0700     		.2byte	0x7
 13470 040f 0A       		.byte	0xa
ARM GAS  C:\Users\legoc\AppData\Local\Temp\ccOlrioX.s 			page 253


 13471 0410 4001     		.2byte	0x140
 13472 0412 70       		.byte	0x70
 13473 0413 00       		.sleb128 0
 13474 0414 1C       		.byte	0x1c
 13475 0415 9F       		.byte	0x9f
 13476 0416 00000000 		.4byte	0
 13477 041a 00000000 		.4byte	0
 13478              	.LLST29:
 13479 041e 22000000 		.4byte	.LVL81
 13480 0422 40000000 		.4byte	.LVL85
 13481 0426 0100     		.2byte	0x1
 13482 0428 5E       		.byte	0x5e
 13483 0429 40000000 		.4byte	.LVL85
 13484 042d 78000000 		.4byte	.LVL95
 13485 0431 0100     		.2byte	0x1
 13486 0433 54       		.byte	0x54
 13487 0434 00000000 		.4byte	0
 13488 0438 00000000 		.4byte	0
 13489              	.LLST30:
 13490 043c 3E000000 		.4byte	.LVL84
 13491 0440 76000000 		.4byte	.LVL94
 13492 0444 0100     		.2byte	0x1
 13493 0446 55       		.byte	0x55
 13494 0447 76000000 		.4byte	.LVL94
 13495 044b BA000000 		.4byte	.LVL105
 13496 044f 0200     		.2byte	0x2
 13497 0451 91       		.byte	0x91
 13498 0452 00       		.sleb128 0
 13499 0453 BA000000 		.4byte	.LVL105
 13500 0457 BE000000 		.4byte	.LFE5
 13501 045b 0200     		.2byte	0x2
 13502 045d 7D       		.byte	0x7d
 13503 045e 00       		.sleb128 0
 13504 045f 00000000 		.4byte	0
 13505 0463 00000000 		.4byte	0
 13506              	.LLST31:
 13507 0467 3E000000 		.4byte	.LVL84
 13508 046b 78000000 		.4byte	.LVL95
 13509 046f 0100     		.2byte	0x1
 13510 0471 58       		.byte	0x58
 13511 0472 00000000 		.4byte	0
 13512 0476 00000000 		.4byte	0
 13513              	.LLST32:
 13514 047a 3E000000 		.4byte	.LVL84
 13515 047e BA000000 		.4byte	.LVL105
 13516 0482 0100     		.2byte	0x1
 13517 0484 57       		.byte	0x57
 13518 0485 00000000 		.4byte	0
 13519 0489 00000000 		.4byte	0
 13520              	.LLST33:
 13521 048d 3E000000 		.4byte	.LVL84
 13522 0491 5C000000 		.4byte	.LVL89
 13523 0495 0700     		.2byte	0x7
 13524 0497 0A       		.byte	0xa
 13525 0498 4001     		.2byte	0x140
 13526 049a 70       		.byte	0x70
 13527 049b 00       		.sleb128 0
ARM GAS  C:\Users\legoc\AppData\Local\Temp\ccOlrioX.s 			page 254


 13528 049c 1C       		.byte	0x1c
 13529 049d 9F       		.byte	0x9f
 13530 049e 76000000 		.4byte	.LVL94
 13531 04a2 BA000000 		.4byte	.LVL105
 13532 04a6 0100     		.2byte	0x1
 13533 04a8 58       		.byte	0x58
 13534 04a9 00000000 		.4byte	0
 13535 04ad 00000000 		.4byte	0
 13536              	.LLST34:
 13537 04b1 3E000000 		.4byte	.LVL84
 13538 04b5 40000000 		.4byte	.LVL85
 13539 04b9 0100     		.2byte	0x1
 13540 04bb 5E       		.byte	0x5e
 13541 04bc 40000000 		.4byte	.LVL85
 13542 04c0 78000000 		.4byte	.LVL95
 13543 04c4 0100     		.2byte	0x1
 13544 04c6 54       		.byte	0x54
 13545 04c7 78000000 		.4byte	.LVL95
 13546 04cb 80000000 		.4byte	.LVL96
 13547 04cf 0100     		.2byte	0x1
 13548 04d1 57       		.byte	0x57
 13549 04d2 80000000 		.4byte	.LVL96
 13550 04d6 9E000000 		.4byte	.LVL101
 13551 04da 0100     		.2byte	0x1
 13552 04dc 54       		.byte	0x54
 13553 04dd A2000000 		.4byte	.LVL102
 13554 04e1 A6000000 		.4byte	.LVL103
 13555 04e5 0100     		.2byte	0x1
 13556 04e7 54       		.byte	0x54
 13557 04e8 00000000 		.4byte	0
 13558 04ec 00000000 		.4byte	0
 13559              	.LLST35:
 13560 04f0 74000000 		.4byte	.LVL93
 13561 04f4 BA000000 		.4byte	.LVL105
 13562 04f8 0100     		.2byte	0x1
 13563 04fa 56       		.byte	0x56
 13564 04fb BA000000 		.4byte	.LVL105
 13565 04ff BE000000 		.4byte	.LFE5
 13566 0503 0B00     		.2byte	0xb
 13567 0505 7D       		.byte	0x7d
 13568 0506 00       		.sleb128 0
 13569 0507 94       		.byte	0x94
 13570 0508 02       		.byte	0x2
 13571 0509 0A       		.byte	0xa
 13572 050a FFFF     		.2byte	0xffff
 13573 050c 1A       		.byte	0x1a
 13574 050d 38       		.byte	0x38
 13575 050e 25       		.byte	0x25
 13576 050f 9F       		.byte	0x9f
 13577 0510 00000000 		.4byte	0
 13578 0514 00000000 		.4byte	0
 13579              	.LLST36:
 13580 0518 76000000 		.4byte	.LVL94
 13581 051c BA000000 		.4byte	.LVL105
 13582 0520 0100     		.2byte	0x1
 13583 0522 55       		.byte	0x55
 13584 0523 00000000 		.4byte	0
ARM GAS  C:\Users\legoc\AppData\Local\Temp\ccOlrioX.s 			page 255


 13585 0527 00000000 		.4byte	0
 13586              	.LLST37:
 13587 052b 00000000 		.4byte	.LVL107
 13588 052f 0E000000 		.4byte	.LVL109
 13589 0533 0100     		.2byte	0x1
 13590 0535 50       		.byte	0x50
 13591 0536 0E000000 		.4byte	.LVL109
 13592 053a 5C000000 		.4byte	.LFE6
 13593 053e 0400     		.2byte	0x4
 13594 0540 F3       		.byte	0xf3
 13595 0541 01       		.uleb128 0x1
 13596 0542 50       		.byte	0x50
 13597 0543 9F       		.byte	0x9f
 13598 0544 00000000 		.4byte	0
 13599 0548 00000000 		.4byte	0
 13600              	.LLST38:
 13601 054c 08000000 		.4byte	.LVL108
 13602 0550 26000000 		.4byte	.LVL114
 13603 0554 0100     		.2byte	0x1
 13604 0556 55       		.byte	0x55
 13605 0557 00000000 		.4byte	0
 13606 055b 00000000 		.4byte	0
 13607              	.LLST41:
 13608 055f 08000000 		.4byte	.LVL108
 13609 0563 26000000 		.4byte	.LVL114
 13610 0567 0200     		.2byte	0x2
 13611 0569 30       		.byte	0x30
 13612 056a 9F       		.byte	0x9f
 13613 056b 00000000 		.4byte	0
 13614 056f 00000000 		.4byte	0
 13615              	.LLST42:
 13616 0573 08000000 		.4byte	.LVL108
 13617 0577 26000000 		.4byte	.LVL114
 13618 057b 0200     		.2byte	0x2
 13619 057d 30       		.byte	0x30
 13620 057e 9F       		.byte	0x9f
 13621 057f 26000000 		.4byte	.LVL114
 13622 0583 28000000 		.4byte	.LVL115
 13623 0587 0300     		.2byte	0x3
 13624 0589 08       		.byte	0x8
 13625 058a F0       		.byte	0xf0
 13626 058b 9F       		.byte	0x9f
 13627 058c 00000000 		.4byte	0
 13628 0590 00000000 		.4byte	0
 13629              	.LLST43:
 13630 0594 20000000 		.4byte	.LVL113
 13631 0598 58000000 		.4byte	.LVL120
 13632 059c 0100     		.2byte	0x1
 13633 059e 56       		.byte	0x56
 13634 059f 00000000 		.4byte	0
 13635 05a3 00000000 		.4byte	0
 13636              	.LLST44:
 13637 05a7 26000000 		.4byte	.LVL114
 13638 05ab 58000000 		.4byte	.LVL120
 13639 05af 0100     		.2byte	0x1
 13640 05b1 55       		.byte	0x55
 13641 05b2 00000000 		.4byte	0
ARM GAS  C:\Users\legoc\AppData\Local\Temp\ccOlrioX.s 			page 256


 13642 05b6 00000000 		.4byte	0
 13643              	.LLST45:
 13644 05ba 00000000 		.4byte	.LVL122
 13645 05be 08000000 		.4byte	.LVL123
 13646 05c2 0300     		.2byte	0x3
 13647 05c4 09       		.byte	0x9
 13648 05c5 EF       		.byte	0xef
 13649 05c6 9F       		.byte	0x9f
 13650 05c7 72000000 		.4byte	.LVL139
 13651 05cb 7A000000 		.4byte	.LVL140
 13652 05cf 0200     		.2byte	0x2
 13653 05d1 76       		.byte	0x76
 13654 05d2 00       		.sleb128 0
 13655 05d3 00000000 		.4byte	0
 13656 05d7 00000000 		.4byte	0
 13657              	.LLST46:
 13658 05db 2E000000 		.4byte	.LVL129
 13659 05df 36000000 		.4byte	.LVL130
 13660 05e3 0600     		.2byte	0x6
 13661 05e5 79       		.byte	0x79
 13662 05e6 00       		.sleb128 0
 13663 05e7 08       		.byte	0x8
 13664 05e8 7F       		.byte	0x7f
 13665 05e9 1A       		.byte	0x1a
 13666 05ea 9F       		.byte	0x9f
 13667 05eb 64000000 		.4byte	.LVL137
 13668 05ef 6C000000 		.4byte	.LVL138
 13669 05f3 1200     		.2byte	0x12
 13670 05f5 79       		.byte	0x79
 13671 05f6 00       		.sleb128 0
 13672 05f7 08       		.byte	0x8
 13673 05f8 7F       		.byte	0x7f
 13674 05f9 1A       		.byte	0x1a
 13675 05fa 74       		.byte	0x74
 13676 05fb 00       		.sleb128 0
 13677 05fc 20       		.byte	0x20
 13678 05fd 22       		.byte	0x22
 13679 05fe 78       		.byte	0x78
 13680 05ff 00       		.sleb128 0
 13681 0600 77       		.byte	0x77
 13682 0601 00       		.sleb128 0
 13683 0602 22       		.byte	0x22
 13684 0603 23       		.byte	0x23
 13685 0604 02       		.uleb128 0x2
 13686 0605 22       		.byte	0x22
 13687 0606 9F       		.byte	0x9f
 13688 0607 6C000000 		.4byte	.LVL138
 13689 060b 72000000 		.4byte	.LVL139
 13690 060f 0D00     		.2byte	0xd
 13691 0611 79       		.byte	0x79
 13692 0612 00       		.sleb128 0
 13693 0613 08       		.byte	0x8
 13694 0614 7F       		.byte	0x7f
 13695 0615 1A       		.byte	0x1a
 13696 0616 74       		.byte	0x74
 13697 0617 00       		.sleb128 0
 13698 0618 20       		.byte	0x20
ARM GAS  C:\Users\legoc\AppData\Local\Temp\ccOlrioX.s 			page 257


 13699 0619 22       		.byte	0x22
 13700 061a 76       		.byte	0x76
 13701 061b 02       		.sleb128 2
 13702 061c 22       		.byte	0x22
 13703 061d 9F       		.byte	0x9f
 13704 061e 7A000000 		.4byte	.LVL140
 13705 0622 88000000 		.4byte	.LFE7
 13706 0626 0D00     		.2byte	0xd
 13707 0628 79       		.byte	0x79
 13708 0629 00       		.sleb128 0
 13709 062a 08       		.byte	0x8
 13710 062b 7F       		.byte	0x7f
 13711 062c 1A       		.byte	0x1a
 13712 062d 74       		.byte	0x74
 13713 062e 00       		.sleb128 0
 13714 062f 20       		.byte	0x20
 13715 0630 22       		.byte	0x22
 13716 0631 76       		.byte	0x76
 13717 0632 02       		.sleb128 2
 13718 0633 22       		.byte	0x22
 13719 0634 9F       		.byte	0x9f
 13720 0635 00000000 		.4byte	0
 13721 0639 00000000 		.4byte	0
 13722              	.LLST47:
 13723 063d 00000000 		.4byte	.LVL122
 13724 0641 08000000 		.4byte	.LVL123
 13725 0645 0600     		.2byte	0x6
 13726 0647 03       		.byte	0x3
 13727 0648 01000000 		.4byte	initcmd+1
 13728 064c 9F       		.byte	0x9f
 13729 064d 28000000 		.4byte	.LVL128
 13730 0651 36000000 		.4byte	.LVL130
 13731 0655 0100     		.2byte	0x1
 13732 0657 58       		.byte	0x58
 13733 0658 36000000 		.4byte	.LVL130
 13734 065c 3E000000 		.4byte	.LVL131
 13735 0660 0100     		.2byte	0x1
 13736 0662 54       		.byte	0x54
 13737 0663 3E000000 		.4byte	.LVL131
 13738 0667 64000000 		.4byte	.LVL137
 13739 066b 0300     		.2byte	0x3
 13740 066d 74       		.byte	0x74
 13741 066e 7F       		.sleb128 -1
 13742 066f 9F       		.byte	0x9f
 13743 0670 64000000 		.4byte	.LVL137
 13744 0674 72000000 		.4byte	.LVL139
 13745 0678 0100     		.2byte	0x1
 13746 067a 54       		.byte	0x54
 13747 067b 72000000 		.4byte	.LVL139
 13748 067f 7A000000 		.4byte	.LVL140
 13749 0683 0300     		.2byte	0x3
 13750 0685 76       		.byte	0x76
 13751 0686 01       		.sleb128 1
 13752 0687 9F       		.byte	0x9f
 13753 0688 7A000000 		.4byte	.LVL140
 13754 068c 88000000 		.4byte	.LFE7
 13755 0690 0100     		.2byte	0x1
ARM GAS  C:\Users\legoc\AppData\Local\Temp\ccOlrioX.s 			page 258


 13756 0692 54       		.byte	0x54
 13757 0693 00000000 		.4byte	0
 13758 0697 00000000 		.4byte	0
 13759              	.LLST48:
 13760 069b 3E000000 		.4byte	.LVL131
 13761 069f 64000000 		.4byte	.LVL137
 13762 06a3 0100     		.2byte	0x1
 13763 06a5 55       		.byte	0x55
 13764 06a6 00000000 		.4byte	0
 13765 06aa 00000000 		.4byte	0
 13766              	.LLST49:
 13767 06ae 00000000 		.4byte	.LVL142
 13768 06b2 1B000000 		.4byte	.LVL145-1
 13769 06b6 0100     		.2byte	0x1
 13770 06b8 50       		.byte	0x50
 13771 06b9 1B000000 		.4byte	.LVL145-1
 13772 06bd 4C000000 		.4byte	.LFE8
 13773 06c1 0400     		.2byte	0x4
 13774 06c3 F3       		.byte	0xf3
 13775 06c4 01       		.uleb128 0x1
 13776 06c5 50       		.byte	0x50
 13777 06c6 9F       		.byte	0x9f
 13778 06c7 00000000 		.4byte	0
 13779 06cb 00000000 		.4byte	0
 13780              	.LLST50:
 13781 06cf 00000000 		.4byte	.LVL142
 13782 06d3 0E000000 		.4byte	.LVL143
 13783 06d7 0100     		.2byte	0x1
 13784 06d9 51       		.byte	0x51
 13785 06da 0E000000 		.4byte	.LVL143
 13786 06de 4C000000 		.4byte	.LFE8
 13787 06e2 0400     		.2byte	0x4
 13788 06e4 F3       		.byte	0xf3
 13789 06e5 01       		.uleb128 0x1
 13790 06e6 51       		.byte	0x51
 13791 06e7 9F       		.byte	0x9f
 13792 06e8 00000000 		.4byte	0
 13793 06ec 00000000 		.4byte	0
 13794              	.LLST51:
 13795 06f0 00000000 		.4byte	.LVL142
 13796 06f4 18000000 		.4byte	.LVL144
 13797 06f8 0100     		.2byte	0x1
 13798 06fa 52       		.byte	0x52
 13799 06fb 18000000 		.4byte	.LVL144
 13800 06ff 4C000000 		.4byte	.LFE8
 13801 0703 0400     		.2byte	0x4
 13802 0705 F3       		.byte	0xf3
 13803 0706 01       		.uleb128 0x1
 13804 0707 52       		.byte	0x52
 13805 0708 9F       		.byte	0x9f
 13806 0709 00000000 		.4byte	0
 13807 070d 00000000 		.4byte	0
 13808              	.LLST52:
 13809 0711 36000000 		.4byte	.LVL150
 13810 0715 48000000 		.4byte	.LVL153
 13811 0719 0100     		.2byte	0x1
 13812 071b 54       		.byte	0x54
ARM GAS  C:\Users\legoc\AppData\Local\Temp\ccOlrioX.s 			page 259


 13813 071c 00000000 		.4byte	0
 13814 0720 00000000 		.4byte	0
 13815              	.LLST53:
 13816 0724 00000000 		.4byte	.LVL155
 13817 0728 10000000 		.4byte	.LVL158
 13818 072c 0100     		.2byte	0x1
 13819 072e 50       		.byte	0x50
 13820 072f 10000000 		.4byte	.LVL158
 13821 0733 58000000 		.4byte	.LFE9
 13822 0737 0400     		.2byte	0x4
 13823 0739 F3       		.byte	0xf3
 13824 073a 01       		.uleb128 0x1
 13825 073b 50       		.byte	0x50
 13826 073c 9F       		.byte	0x9f
 13827 073d 00000000 		.4byte	0
 13828 0741 00000000 		.4byte	0
 13829              	.LLST54:
 13830 0745 00000000 		.4byte	.LVL155
 13831 0749 04000000 		.4byte	.LVL156
 13832 074d 0100     		.2byte	0x1
 13833 074f 51       		.byte	0x51
 13834 0750 04000000 		.4byte	.LVL156
 13835 0754 58000000 		.4byte	.LFE9
 13836 0758 0400     		.2byte	0x4
 13837 075a F3       		.byte	0xf3
 13838 075b 01       		.uleb128 0x1
 13839 075c 51       		.byte	0x51
 13840 075d 9F       		.byte	0x9f
 13841 075e 00000000 		.4byte	0
 13842 0762 00000000 		.4byte	0
 13843              	.LLST55:
 13844 0766 00000000 		.4byte	.LVL155
 13845 076a 20000000 		.4byte	.LVL159
 13846 076e 0100     		.2byte	0x1
 13847 0770 52       		.byte	0x52
 13848 0771 20000000 		.4byte	.LVL159
 13849 0775 56000000 		.4byte	.LVL169
 13850 0779 0400     		.2byte	0x4
 13851 077b F3       		.byte	0xf3
 13852 077c 01       		.uleb128 0x1
 13853 077d 52       		.byte	0x52
 13854 077e 9F       		.byte	0x9f
 13855 077f 56000000 		.4byte	.LVL169
 13856 0783 58000000 		.4byte	.LFE9
 13857 0787 0100     		.2byte	0x1
 13858 0789 52       		.byte	0x52
 13859 078a 00000000 		.4byte	0
 13860 078e 00000000 		.4byte	0
 13861              	.LLST56:
 13862 0792 08000000 		.4byte	.LVL157
 13863 0796 20000000 		.4byte	.LVL159
 13864 079a 0100     		.2byte	0x1
 13865 079c 52       		.byte	0x52
 13866 079d 20000000 		.4byte	.LVL159
 13867 07a1 56000000 		.4byte	.LVL169
 13868 07a5 0400     		.2byte	0x4
 13869 07a7 F3       		.byte	0xf3
ARM GAS  C:\Users\legoc\AppData\Local\Temp\ccOlrioX.s 			page 260


 13870 07a8 01       		.uleb128 0x1
 13871 07a9 52       		.byte	0x52
 13872 07aa 9F       		.byte	0x9f
 13873 07ab 56000000 		.4byte	.LVL169
 13874 07af 58000000 		.4byte	.LFE9
 13875 07b3 0100     		.2byte	0x1
 13876 07b5 52       		.byte	0x52
 13877 07b6 00000000 		.4byte	0
 13878 07ba 00000000 		.4byte	0
 13879              	.LLST57:
 13880 07be 08000000 		.4byte	.LVL157
 13881 07c2 10000000 		.4byte	.LVL158
 13882 07c6 0700     		.2byte	0x7
 13883 07c8 0A       		.byte	0xa
 13884 07c9 3F01     		.2byte	0x13f
 13885 07cb 70       		.byte	0x70
 13886 07cc 00       		.sleb128 0
 13887 07cd 1C       		.byte	0x1c
 13888 07ce 9F       		.byte	0x9f
 13889 07cf 10000000 		.4byte	.LVL158
 13890 07d3 58000000 		.4byte	.LFE9
 13891 07d7 0800     		.2byte	0x8
 13892 07d9 0A       		.byte	0xa
 13893 07da 3F01     		.2byte	0x13f
 13894 07dc F3       		.byte	0xf3
 13895 07dd 01       		.uleb128 0x1
 13896 07de 50       		.byte	0x50
 13897 07df 1C       		.byte	0x1c
 13898 07e0 9F       		.byte	0x9f
 13899 07e1 00000000 		.4byte	0
 13900 07e5 00000000 		.4byte	0
 13901              	.LLST58:
 13902 07e9 08000000 		.4byte	.LVL157
 13903 07ed 52000000 		.4byte	.LVL168
 13904 07f1 0100     		.2byte	0x1
 13905 07f3 54       		.byte	0x54
 13906 07f4 56000000 		.4byte	.LVL169
 13907 07f8 58000000 		.4byte	.LFE9
 13908 07fc 0100     		.2byte	0x1
 13909 07fe 54       		.byte	0x54
 13910 07ff 00000000 		.4byte	0
 13911 0803 00000000 		.4byte	0
 13912              	.LLST59:
 13913 0807 40000000 		.4byte	.LVL165
 13914 080b 52000000 		.4byte	.LVL168
 13915 080f 0100     		.2byte	0x1
 13916 0811 54       		.byte	0x54
 13917 0812 00000000 		.4byte	0
 13918 0816 00000000 		.4byte	0
 13919              	.LLST60:
 13920 081a 40000000 		.4byte	.LVL165
 13921 081e 56000000 		.4byte	.LVL169
 13922 0822 0800     		.2byte	0x8
 13923 0824 0A       		.byte	0xa
 13924 0825 3F01     		.2byte	0x13f
 13925 0827 F3       		.byte	0xf3
 13926 0828 01       		.uleb128 0x1
ARM GAS  C:\Users\legoc\AppData\Local\Temp\ccOlrioX.s 			page 261


 13927 0829 50       		.byte	0x50
 13928 082a 1C       		.byte	0x1c
 13929 082b 9F       		.byte	0x9f
 13930 082c 00000000 		.4byte	0
 13931 0830 00000000 		.4byte	0
 13932              	.LLST61:
 13933 0834 40000000 		.4byte	.LVL165
 13934 0838 52000000 		.4byte	.LVL168
 13935 083c 0100     		.2byte	0x1
 13936 083e 55       		.byte	0x55
 13937 083f 00000000 		.4byte	0
 13938 0843 00000000 		.4byte	0
 13939              	.LLST62:
 13940 0847 00000000 		.4byte	.LVL170
 13941 084b 3A000000 		.4byte	.LVL174
 13942 084f 0100     		.2byte	0x1
 13943 0851 50       		.byte	0x50
 13944 0852 3A000000 		.4byte	.LVL174
 13945 0856 46000000 		.4byte	.LVL176
 13946 085a 0100     		.2byte	0x1
 13947 085c 55       		.byte	0x55
 13948 085d 52000000 		.4byte	.LVL179
 13949 0861 E4000000 		.4byte	.LVL198
 13950 0865 0100     		.2byte	0x1
 13951 0867 55       		.byte	0x55
 13952 0868 E6000000 		.4byte	.LVL199
 13953 086c 58010000 		.4byte	.LVL216
 13954 0870 0100     		.2byte	0x1
 13955 0872 55       		.byte	0x55
 13956 0873 58010000 		.4byte	.LVL216
 13957 0877 64010000 		.4byte	.LFE10
 13958 087b 0100     		.2byte	0x1
 13959 087d 50       		.byte	0x50
 13960 087e 00000000 		.4byte	0
 13961 0882 00000000 		.4byte	0
 13962              	.LLST63:
 13963 0886 00000000 		.4byte	.LVL170
 13964 088a 36000000 		.4byte	.LVL173
 13965 088e 0100     		.2byte	0x1
 13966 0890 51       		.byte	0x51
 13967 0891 36000000 		.4byte	.LVL173
 13968 0895 3A000000 		.4byte	.LVL174
 13969 0899 0400     		.2byte	0x4
 13970 089b F3       		.byte	0xf3
 13971 089c 01       		.uleb128 0x1
 13972 089d 51       		.byte	0x51
 13973 089e 9F       		.byte	0x9f
 13974 089f 3A000000 		.4byte	.LVL174
 13975 08a3 44000000 		.4byte	.LVL175
 13976 08a7 0100     		.2byte	0x1
 13977 08a9 58       		.byte	0x58
 13978 08aa 52000000 		.4byte	.LVL179
 13979 08ae 58010000 		.4byte	.LVL216
 13980 08b2 0100     		.2byte	0x1
 13981 08b4 58       		.byte	0x58
 13982 08b5 58010000 		.4byte	.LVL216
 13983 08b9 60010000 		.4byte	.LVL218
ARM GAS  C:\Users\legoc\AppData\Local\Temp\ccOlrioX.s 			page 262


 13984 08bd 0100     		.2byte	0x1
 13985 08bf 51       		.byte	0x51
 13986 08c0 60010000 		.4byte	.LVL218
 13987 08c4 64010000 		.4byte	.LFE10
 13988 08c8 0400     		.2byte	0x4
 13989 08ca F3       		.byte	0xf3
 13990 08cb 01       		.uleb128 0x1
 13991 08cc 51       		.byte	0x51
 13992 08cd 9F       		.byte	0x9f
 13993 08ce 00000000 		.4byte	0
 13994 08d2 00000000 		.4byte	0
 13995              	.LLST64:
 13996 08d6 00000000 		.4byte	.LVL170
 13997 08da 2E000000 		.4byte	.LVL172
 13998 08de 0100     		.2byte	0x1
 13999 08e0 52       		.byte	0x52
 14000 08e1 2E000000 		.4byte	.LVL172
 14001 08e5 3A000000 		.4byte	.LVL174
 14002 08e9 0400     		.2byte	0x4
 14003 08eb F3       		.byte	0xf3
 14004 08ec 01       		.uleb128 0x1
 14005 08ed 52       		.byte	0x52
 14006 08ee 9F       		.byte	0x9f
 14007 08ef 3A000000 		.4byte	.LVL174
 14008 08f3 4A000000 		.4byte	.LVL178
 14009 08f7 0100     		.2byte	0x1
 14010 08f9 59       		.byte	0x59
 14011 08fa 52000000 		.4byte	.LVL179
 14012 08fe 58010000 		.4byte	.LVL216
 14013 0902 0100     		.2byte	0x1
 14014 0904 59       		.byte	0x59
 14015 0905 58010000 		.4byte	.LVL216
 14016 0909 64010000 		.4byte	.LFE10
 14017 090d 0400     		.2byte	0x4
 14018 090f F3       		.byte	0xf3
 14019 0910 01       		.uleb128 0x1
 14020 0911 52       		.byte	0x52
 14021 0912 9F       		.byte	0x9f
 14022 0913 00000000 		.4byte	0
 14023 0917 00000000 		.4byte	0
 14024              	.LLST65:
 14025 091b 00000000 		.4byte	.LVL170
 14026 091f 3A000000 		.4byte	.LVL174
 14027 0923 0100     		.2byte	0x1
 14028 0925 53       		.byte	0x53
 14029 0926 3A000000 		.4byte	.LVL174
 14030 092a 48000000 		.4byte	.LVL177
 14031 092e 0100     		.2byte	0x1
 14032 0930 53       		.byte	0x53
 14033 0931 52000000 		.4byte	.LVL179
 14034 0935 6C000000 		.4byte	.LVL182
 14035 0939 0100     		.2byte	0x1
 14036 093b 53       		.byte	0x53
 14037 093c 4C010000 		.4byte	.LVL214
 14038 0940 54010000 		.4byte	.LVL215
 14039 0944 0100     		.2byte	0x1
 14040 0946 53       		.byte	0x53
ARM GAS  C:\Users\legoc\AppData\Local\Temp\ccOlrioX.s 			page 263


 14041 0947 58010000 		.4byte	.LVL216
 14042 094b 5E010000 		.4byte	.LVL217
 14043 094f 0100     		.2byte	0x1
 14044 0951 53       		.byte	0x53
 14045 0952 5E010000 		.4byte	.LVL217
 14046 0956 64010000 		.4byte	.LFE10
 14047 095a 0400     		.2byte	0x4
 14048 095c F3       		.byte	0xf3
 14049 095d 01       		.uleb128 0x1
 14050 095e 53       		.byte	0x53
 14051 095f 9F       		.byte	0x9f
 14052 0960 00000000 		.4byte	0
 14053 0964 00000000 		.4byte	0
 14054              	.LLST66:
 14055 0968 00000000 		.4byte	.LVL170
 14056 096c F4000000 		.4byte	.LVL200
 14057 0970 0200     		.2byte	0x2
 14058 0972 91       		.byte	0x91
 14059 0973 00       		.sleb128 0
 14060 0974 F4000000 		.4byte	.LVL200
 14061 0978 64010000 		.4byte	.LFE10
 14062 097c 0200     		.2byte	0x2
 14063 097e 91       		.byte	0x91
 14064 097f 00       		.sleb128 0
 14065 0980 00000000 		.4byte	0
 14066 0984 00000000 		.4byte	0
 14067              	.LLST67:
 14068 0988 64000000 		.4byte	.LVL180
 14069 098c 82000000 		.4byte	.LVL183
 14070 0990 0100     		.2byte	0x1
 14071 0992 50       		.byte	0x50
 14072 0993 82000000 		.4byte	.LVL183
 14073 0997 4C010000 		.4byte	.LVL214
 14074 099b 0200     		.2byte	0x2
 14075 099d 91       		.byte	0x91
 14076 099e 48       		.sleb128 -56
 14077 099f 4C010000 		.4byte	.LVL214
 14078 09a3 58010000 		.4byte	.LVL216
 14079 09a7 0100     		.2byte	0x1
 14080 09a9 50       		.byte	0x50
 14081 09aa 00000000 		.4byte	0
 14082 09ae 00000000 		.4byte	0
 14083              	.LLST68:
 14084 09b2 64000000 		.4byte	.LVL180
 14085 09b6 6C000000 		.4byte	.LVL182
 14086 09ba 0F00     		.2byte	0xf
 14087 09bc 73       		.byte	0x73
 14088 09bd 00       		.sleb128 0
 14089 09be 40       		.byte	0x40
 14090 09bf 24       		.byte	0x24
 14091 09c0 40       		.byte	0x40
 14092 09c1 26       		.byte	0x26
 14093 09c2 78       		.byte	0x78
 14094 09c3 00       		.sleb128 0
 14095 09c4 40       		.byte	0x40
 14096 09c5 24       		.byte	0x24
 14097 09c6 40       		.byte	0x40
ARM GAS  C:\Users\legoc\AppData\Local\Temp\ccOlrioX.s 			page 264


 14098 09c7 26       		.byte	0x26
 14099 09c8 1C       		.byte	0x1c
 14100 09c9 19       		.byte	0x19
 14101 09ca 9F       		.byte	0x9f
 14102 09cb 4C010000 		.4byte	.LVL214
 14103 09cf 54010000 		.4byte	.LVL215
 14104 09d3 0F00     		.2byte	0xf
 14105 09d5 73       		.byte	0x73
 14106 09d6 00       		.sleb128 0
 14107 09d7 40       		.byte	0x40
 14108 09d8 24       		.byte	0x24
 14109 09d9 40       		.byte	0x40
 14110 09da 26       		.byte	0x26
 14111 09db 78       		.byte	0x78
 14112 09dc 00       		.sleb128 0
 14113 09dd 40       		.byte	0x40
 14114 09de 24       		.byte	0x24
 14115 09df 40       		.byte	0x40
 14116 09e0 26       		.byte	0x26
 14117 09e1 1C       		.byte	0x1c
 14118 09e2 19       		.byte	0x19
 14119 09e3 9F       		.byte	0x9f
 14120 09e4 00000000 		.4byte	0
 14121 09e8 00000000 		.4byte	0
 14122              	.LLST69:
 14123 09ec 68000000 		.4byte	.LVL181
 14124 09f0 DA000000 		.4byte	.LVL196
 14125 09f4 0100     		.2byte	0x1
 14126 09f6 54       		.byte	0x54
 14127 09f7 DE000000 		.4byte	.LVL197
 14128 09fb 48010000 		.4byte	.LVL212
 14129 09ff 0100     		.2byte	0x1
 14130 0a01 54       		.byte	0x54
 14131 0a02 48010000 		.4byte	.LVL212
 14132 0a06 4A010000 		.4byte	.LVL213
 14133 0a0a 0100     		.2byte	0x1
 14134 0a0c 53       		.byte	0x53
 14135 0a0d 4A010000 		.4byte	.LVL213
 14136 0a11 58010000 		.4byte	.LVL216
 14137 0a15 0100     		.2byte	0x1
 14138 0a17 54       		.byte	0x54
 14139 0a18 00000000 		.4byte	0
 14140 0a1c 00000000 		.4byte	0
 14141              	.LLST70:
 14142 0a20 86000000 		.4byte	.LVL184
 14143 0a24 D2000000 		.4byte	.LVL194
 14144 0a28 0100     		.2byte	0x1
 14145 0a2a 55       		.byte	0x55
 14146 0a2b 00000000 		.4byte	0
 14147 0a2f 00000000 		.4byte	0
 14148              	.LLST71:
 14149 0a33 86000000 		.4byte	.LVL184
 14150 0a37 D2000000 		.4byte	.LVL194
 14151 0a3b 0100     		.2byte	0x1
 14152 0a3d 58       		.byte	0x58
 14153 0a3e 00000000 		.4byte	0
 14154 0a42 00000000 		.4byte	0
ARM GAS  C:\Users\legoc\AppData\Local\Temp\ccOlrioX.s 			page 265


 14155              	.LLST72:
 14156 0a46 92000000 		.4byte	.LVL185
 14157 0a4a D2000000 		.4byte	.LVL194
 14158 0a4e 0700     		.2byte	0x7
 14159 0a50 0A       		.byte	0xa
 14160 0a51 3F01     		.2byte	0x13f
 14161 0a53 77       		.byte	0x77
 14162 0a54 00       		.sleb128 0
 14163 0a55 1C       		.byte	0x1c
 14164 0a56 9F       		.byte	0x9f
 14165 0a57 00000000 		.4byte	0
 14166 0a5b 00000000 		.4byte	0
 14167              	.LLST73:
 14168 0a5f 92000000 		.4byte	.LVL185
 14169 0a63 A9000000 		.4byte	.LVL186-1
 14170 0a67 0100     		.2byte	0x1
 14171 0a69 50       		.byte	0x50
 14172 0a6a A9000000 		.4byte	.LVL186-1
 14173 0a6e D2000000 		.4byte	.LVL194
 14174 0a72 0400     		.2byte	0x4
 14175 0a74 76       		.byte	0x76
 14176 0a75 B07F     		.sleb128 -80
 14177 0a77 9F       		.byte	0x9f
 14178 0a78 00000000 		.4byte	0
 14179 0a7c 00000000 		.4byte	0
 14180              	.LLST74:
 14181 0a80 C4000000 		.4byte	.LVL191
 14182 0a84 D2000000 		.4byte	.LVL194
 14183 0a88 0400     		.2byte	0x4
 14184 0a8a 76       		.byte	0x76
 14185 0a8b B07F     		.sleb128 -80
 14186 0a8d 9F       		.byte	0x9f
 14187 0a8e 00000000 		.4byte	0
 14188 0a92 00000000 		.4byte	0
 14189              	.LLST75:
 14190 0a96 C4000000 		.4byte	.LVL191
 14191 0a9a D2000000 		.4byte	.LVL194
 14192 0a9e 0700     		.2byte	0x7
 14193 0aa0 0A       		.byte	0xa
 14194 0aa1 3F01     		.2byte	0x13f
 14195 0aa3 77       		.byte	0x77
 14196 0aa4 00       		.sleb128 0
 14197 0aa5 1C       		.byte	0x1c
 14198 0aa6 9F       		.byte	0x9f
 14199 0aa7 00000000 		.4byte	0
 14200 0aab 00000000 		.4byte	0
 14201              	.LLST76:
 14202 0aaf F4000000 		.4byte	.LVL200
 14203 0ab3 3C010000 		.4byte	.LVL210
 14204 0ab7 0100     		.2byte	0x1
 14205 0ab9 58       		.byte	0x58
 14206 0aba 00000000 		.4byte	0
 14207 0abe 00000000 		.4byte	0
 14208              	.LLST77:
 14209 0ac2 F4000000 		.4byte	.LVL200
 14210 0ac6 3C010000 		.4byte	.LVL210
 14211 0aca 0100     		.2byte	0x1
ARM GAS  C:\Users\legoc\AppData\Local\Temp\ccOlrioX.s 			page 266


 14212 0acc 55       		.byte	0x55
 14213 0acd 00000000 		.4byte	0
 14214 0ad1 00000000 		.4byte	0
 14215              	.LLST78:
 14216 0ad5 FE000000 		.4byte	.LVL201
 14217 0ad9 3C010000 		.4byte	.LVL210
 14218 0add 0700     		.2byte	0x7
 14219 0adf 0A       		.byte	0xa
 14220 0ae0 3F01     		.2byte	0x13f
 14221 0ae2 75       		.byte	0x75
 14222 0ae3 00       		.sleb128 0
 14223 0ae4 1C       		.byte	0x1c
 14224 0ae5 9F       		.byte	0x9f
 14225 0ae6 00000000 		.4byte	0
 14226 0aea 00000000 		.4byte	0
 14227              	.LLST79:
 14228 0aee FE000000 		.4byte	.LVL201
 14229 0af2 11010000 		.4byte	.LVL202-1
 14230 0af6 0100     		.2byte	0x1
 14231 0af8 50       		.byte	0x50
 14232 0af9 11010000 		.4byte	.LVL202-1
 14233 0afd 3C010000 		.4byte	.LVL210
 14234 0b01 0600     		.2byte	0x6
 14235 0b03 08       		.byte	0x8
 14236 0b04 EF       		.byte	0xef
 14237 0b05 77       		.byte	0x77
 14238 0b06 00       		.sleb128 0
 14239 0b07 1C       		.byte	0x1c
 14240 0b08 9F       		.byte	0x9f
 14241 0b09 00000000 		.4byte	0
 14242 0b0d 00000000 		.4byte	0
 14243              	.LLST80:
 14244 0b11 2C010000 		.4byte	.LVL207
 14245 0b15 3C010000 		.4byte	.LVL210
 14246 0b19 0600     		.2byte	0x6
 14247 0b1b 08       		.byte	0x8
 14248 0b1c EF       		.byte	0xef
 14249 0b1d 77       		.byte	0x77
 14250 0b1e 00       		.sleb128 0
 14251 0b1f 1C       		.byte	0x1c
 14252 0b20 9F       		.byte	0x9f
 14253 0b21 00000000 		.4byte	0
 14254 0b25 00000000 		.4byte	0
 14255              	.LLST81:
 14256 0b29 2C010000 		.4byte	.LVL207
 14257 0b2d 3C010000 		.4byte	.LVL210
 14258 0b31 0700     		.2byte	0x7
 14259 0b33 0A       		.byte	0xa
 14260 0b34 3F01     		.2byte	0x13f
 14261 0b36 75       		.byte	0x75
 14262 0b37 00       		.sleb128 0
 14263 0b38 1C       		.byte	0x1c
 14264 0b39 9F       		.byte	0x9f
 14265 0b3a 00000000 		.4byte	0
 14266 0b3e 00000000 		.4byte	0
 14267              	.LLST82:
 14268 0b42 00000000 		.4byte	.LVL219
ARM GAS  C:\Users\legoc\AppData\Local\Temp\ccOlrioX.s 			page 267


 14269 0b46 11000000 		.4byte	.LVL222-1
 14270 0b4a 0100     		.2byte	0x1
 14271 0b4c 50       		.byte	0x50
 14272 0b4d 11000000 		.4byte	.LVL222-1
 14273 0b51 18000000 		.4byte	.LFE11
 14274 0b55 0400     		.2byte	0x4
 14275 0b57 F3       		.byte	0xf3
 14276 0b58 01       		.uleb128 0x1
 14277 0b59 50       		.byte	0x50
 14278 0b5a 9F       		.byte	0x9f
 14279 0b5b 00000000 		.4byte	0
 14280 0b5f 00000000 		.4byte	0
 14281              	.LLST83:
 14282 0b63 00000000 		.4byte	.LVL219
 14283 0b67 11000000 		.4byte	.LVL222-1
 14284 0b6b 0100     		.2byte	0x1
 14285 0b6d 51       		.byte	0x51
 14286 0b6e 11000000 		.4byte	.LVL222-1
 14287 0b72 18000000 		.4byte	.LFE11
 14288 0b76 0400     		.2byte	0x4
 14289 0b78 F3       		.byte	0xf3
 14290 0b79 01       		.uleb128 0x1
 14291 0b7a 51       		.byte	0x51
 14292 0b7b 9F       		.byte	0x9f
 14293 0b7c 00000000 		.4byte	0
 14294 0b80 00000000 		.4byte	0
 14295              	.LLST84:
 14296 0b84 00000000 		.4byte	.LVL219
 14297 0b88 04000000 		.4byte	.LVL220
 14298 0b8c 0100     		.2byte	0x1
 14299 0b8e 52       		.byte	0x52
 14300 0b8f 04000000 		.4byte	.LVL220
 14301 0b93 18000000 		.4byte	.LFE11
 14302 0b97 0400     		.2byte	0x4
 14303 0b99 F3       		.byte	0xf3
 14304 0b9a 01       		.uleb128 0x1
 14305 0b9b 52       		.byte	0x52
 14306 0b9c 9F       		.byte	0x9f
 14307 0b9d 00000000 		.4byte	0
 14308 0ba1 00000000 		.4byte	0
 14309              	.LLST85:
 14310 0ba5 00000000 		.4byte	.LVL219
 14311 0ba9 0E000000 		.4byte	.LVL221
 14312 0bad 0100     		.2byte	0x1
 14313 0baf 53       		.byte	0x53
 14314 0bb0 0E000000 		.4byte	.LVL221
 14315 0bb4 18000000 		.4byte	.LFE11
 14316 0bb8 0400     		.2byte	0x4
 14317 0bba F3       		.byte	0xf3
 14318 0bbb 01       		.uleb128 0x1
 14319 0bbc 53       		.byte	0x53
 14320 0bbd 9F       		.byte	0x9f
 14321 0bbe 00000000 		.4byte	0
 14322 0bc2 00000000 		.4byte	0
 14323              	.LLST86:
 14324 0bc6 00000000 		.4byte	.LVL223
 14325 0bca 11000000 		.4byte	.LVL226-1
ARM GAS  C:\Users\legoc\AppData\Local\Temp\ccOlrioX.s 			page 268


 14326 0bce 0100     		.2byte	0x1
 14327 0bd0 50       		.byte	0x50
 14328 0bd1 11000000 		.4byte	.LVL226-1
 14329 0bd5 16000000 		.4byte	.LFE12
 14330 0bd9 0400     		.2byte	0x4
 14331 0bdb F3       		.byte	0xf3
 14332 0bdc 01       		.uleb128 0x1
 14333 0bdd 50       		.byte	0x50
 14334 0bde 9F       		.byte	0x9f
 14335 0bdf 00000000 		.4byte	0
 14336 0be3 00000000 		.4byte	0
 14337              	.LLST87:
 14338 0be7 00000000 		.4byte	.LVL223
 14339 0beb 11000000 		.4byte	.LVL226-1
 14340 0bef 0100     		.2byte	0x1
 14341 0bf1 51       		.byte	0x51
 14342 0bf2 11000000 		.4byte	.LVL226-1
 14343 0bf6 16000000 		.4byte	.LFE12
 14344 0bfa 0400     		.2byte	0x4
 14345 0bfc F3       		.byte	0xf3
 14346 0bfd 01       		.uleb128 0x1
 14347 0bfe 51       		.byte	0x51
 14348 0bff 9F       		.byte	0x9f
 14349 0c00 00000000 		.4byte	0
 14350 0c04 00000000 		.4byte	0
 14351              	.LLST88:
 14352 0c08 00000000 		.4byte	.LVL223
 14353 0c0c 04000000 		.4byte	.LVL224
 14354 0c10 0100     		.2byte	0x1
 14355 0c12 52       		.byte	0x52
 14356 0c13 04000000 		.4byte	.LVL224
 14357 0c17 16000000 		.4byte	.LFE12
 14358 0c1b 0400     		.2byte	0x4
 14359 0c1d F3       		.byte	0xf3
 14360 0c1e 01       		.uleb128 0x1
 14361 0c1f 52       		.byte	0x52
 14362 0c20 9F       		.byte	0x9f
 14363 0c21 00000000 		.4byte	0
 14364 0c25 00000000 		.4byte	0
 14365              	.LLST89:
 14366 0c29 00000000 		.4byte	.LVL223
 14367 0c2d 0E000000 		.4byte	.LVL225
 14368 0c31 0100     		.2byte	0x1
 14369 0c33 53       		.byte	0x53
 14370 0c34 0E000000 		.4byte	.LVL225
 14371 0c38 16000000 		.4byte	.LFE12
 14372 0c3c 0400     		.2byte	0x4
 14373 0c3e F3       		.byte	0xf3
 14374 0c3f 01       		.uleb128 0x1
 14375 0c40 53       		.byte	0x53
 14376 0c41 9F       		.byte	0x9f
 14377 0c42 00000000 		.4byte	0
 14378 0c46 00000000 		.4byte	0
 14379              	.LLST90:
 14380 0c4a 00000000 		.4byte	.LVL227
 14381 0c4e 1F000000 		.4byte	.LVL229-1
 14382 0c52 0100     		.2byte	0x1
ARM GAS  C:\Users\legoc\AppData\Local\Temp\ccOlrioX.s 			page 269


 14383 0c54 50       		.byte	0x50
 14384 0c55 1F000000 		.4byte	.LVL229-1
 14385 0c59 20000000 		.4byte	.LVL229
 14386 0c5d 0400     		.2byte	0x4
 14387 0c5f F3       		.byte	0xf3
 14388 0c60 01       		.uleb128 0x1
 14389 0c61 50       		.byte	0x50
 14390 0c62 9F       		.byte	0x9f
 14391 0c63 20000000 		.4byte	.LVL229
 14392 0c67 2A000000 		.4byte	.LVL230
 14393 0c6b 0100     		.2byte	0x1
 14394 0c6d 50       		.byte	0x50
 14395 0c6e 2A000000 		.4byte	.LVL230
 14396 0c72 3A000000 		.4byte	.LVL234
 14397 0c76 0100     		.2byte	0x1
 14398 0c78 54       		.byte	0x54
 14399 0c79 3E000000 		.4byte	.LVL235
 14400 0c7d 52000000 		.4byte	.LVL241
 14401 0c81 0100     		.2byte	0x1
 14402 0c83 50       		.byte	0x50
 14403 0c84 52000000 		.4byte	.LVL241
 14404 0c88 5A000000 		.4byte	.LFE13
 14405 0c8c 0400     		.2byte	0x4
 14406 0c8e F3       		.byte	0xf3
 14407 0c8f 01       		.uleb128 0x1
 14408 0c90 50       		.byte	0x50
 14409 0c91 9F       		.byte	0x9f
 14410 0c92 00000000 		.4byte	0
 14411 0c96 00000000 		.4byte	0
 14412              	.LLST91:
 14413 0c9a 00000000 		.4byte	.LVL227
 14414 0c9e 1F000000 		.4byte	.LVL229-1
 14415 0ca2 0100     		.2byte	0x1
 14416 0ca4 51       		.byte	0x51
 14417 0ca5 1F000000 		.4byte	.LVL229-1
 14418 0ca9 20000000 		.4byte	.LVL229
 14419 0cad 0400     		.2byte	0x4
 14420 0caf F3       		.byte	0xf3
 14421 0cb0 01       		.uleb128 0x1
 14422 0cb1 51       		.byte	0x51
 14423 0cb2 9F       		.byte	0x9f
 14424 0cb3 20000000 		.4byte	.LVL229
 14425 0cb7 36000000 		.4byte	.LVL233
 14426 0cbb 0100     		.2byte	0x1
 14427 0cbd 51       		.byte	0x51
 14428 0cbe 36000000 		.4byte	.LVL233
 14429 0cc2 3E000000 		.4byte	.LVL235
 14430 0cc6 0400     		.2byte	0x4
 14431 0cc8 F3       		.byte	0xf3
 14432 0cc9 01       		.uleb128 0x1
 14433 0cca 51       		.byte	0x51
 14434 0ccb 9F       		.byte	0x9f
 14435 0ccc 3E000000 		.4byte	.LVL235
 14436 0cd0 4E000000 		.4byte	.LVL239
 14437 0cd4 0100     		.2byte	0x1
 14438 0cd6 51       		.byte	0x51
 14439 0cd7 4E000000 		.4byte	.LVL239
ARM GAS  C:\Users\legoc\AppData\Local\Temp\ccOlrioX.s 			page 270


 14440 0cdb 5A000000 		.4byte	.LFE13
 14441 0cdf 0400     		.2byte	0x4
 14442 0ce1 F3       		.byte	0xf3
 14443 0ce2 01       		.uleb128 0x1
 14444 0ce3 51       		.byte	0x51
 14445 0ce4 9F       		.byte	0x9f
 14446 0ce5 00000000 		.4byte	0
 14447 0ce9 00000000 		.4byte	0
 14448              	.LLST92:
 14449 0ced 00000000 		.4byte	.LVL227
 14450 0cf1 1F000000 		.4byte	.LVL229-1
 14451 0cf5 0100     		.2byte	0x1
 14452 0cf7 52       		.byte	0x52
 14453 0cf8 1F000000 		.4byte	.LVL229-1
 14454 0cfc 20000000 		.4byte	.LVL229
 14455 0d00 0400     		.2byte	0x4
 14456 0d02 F3       		.byte	0xf3
 14457 0d03 01       		.uleb128 0x1
 14458 0d04 52       		.byte	0x52
 14459 0d05 9F       		.byte	0x9f
 14460 0d06 20000000 		.4byte	.LVL229
 14461 0d0a 2A000000 		.4byte	.LVL230
 14462 0d0e 0100     		.2byte	0x1
 14463 0d10 52       		.byte	0x52
 14464 0d11 2A000000 		.4byte	.LVL230
 14465 0d15 3A000000 		.4byte	.LVL234
 14466 0d19 0100     		.2byte	0x1
 14467 0d1b 55       		.byte	0x55
 14468 0d1c 3E000000 		.4byte	.LVL235
 14469 0d20 50000000 		.4byte	.LVL240
 14470 0d24 0100     		.2byte	0x1
 14471 0d26 52       		.byte	0x52
 14472 0d27 50000000 		.4byte	.LVL240
 14473 0d2b 5A000000 		.4byte	.LFE13
 14474 0d2f 0400     		.2byte	0x4
 14475 0d31 F3       		.byte	0xf3
 14476 0d32 01       		.uleb128 0x1
 14477 0d33 52       		.byte	0x52
 14478 0d34 9F       		.byte	0x9f
 14479 0d35 00000000 		.4byte	0
 14480 0d39 00000000 		.4byte	0
 14481              	.LLST93:
 14482 0d3d 00000000 		.4byte	.LVL227
 14483 0d41 1F000000 		.4byte	.LVL229-1
 14484 0d45 0100     		.2byte	0x1
 14485 0d47 53       		.byte	0x53
 14486 0d48 1F000000 		.4byte	.LVL229-1
 14487 0d4c 20000000 		.4byte	.LVL229
 14488 0d50 0400     		.2byte	0x4
 14489 0d52 F3       		.byte	0xf3
 14490 0d53 01       		.uleb128 0x1
 14491 0d54 53       		.byte	0x53
 14492 0d55 9F       		.byte	0x9f
 14493 0d56 20000000 		.4byte	.LVL229
 14494 0d5a 34000000 		.4byte	.LVL232
 14495 0d5e 0100     		.2byte	0x1
 14496 0d60 53       		.byte	0x53
ARM GAS  C:\Users\legoc\AppData\Local\Temp\ccOlrioX.s 			page 271


 14497 0d61 34000000 		.4byte	.LVL232
 14498 0d65 3E000000 		.4byte	.LVL235
 14499 0d69 0400     		.2byte	0x4
 14500 0d6b F3       		.byte	0xf3
 14501 0d6c 01       		.uleb128 0x1
 14502 0d6d 53       		.byte	0x53
 14503 0d6e 9F       		.byte	0x9f
 14504 0d6f 3E000000 		.4byte	.LVL235
 14505 0d73 4C000000 		.4byte	.LVL238
 14506 0d77 0100     		.2byte	0x1
 14507 0d79 53       		.byte	0x53
 14508 0d7a 4C000000 		.4byte	.LVL238
 14509 0d7e 5A000000 		.4byte	.LFE13
 14510 0d82 0400     		.2byte	0x4
 14511 0d84 F3       		.byte	0xf3
 14512 0d85 01       		.uleb128 0x1
 14513 0d86 53       		.byte	0x53
 14514 0d87 9F       		.byte	0x9f
 14515 0d88 00000000 		.4byte	0
 14516 0d8c 00000000 		.4byte	0
 14517              	.LLST94:
 14518 0d90 00000000 		.4byte	.LVL227
 14519 0d94 18000000 		.4byte	.LVL228
 14520 0d98 0200     		.2byte	0x2
 14521 0d9a 91       		.byte	0x91
 14522 0d9b 00       		.sleb128 0
 14523 0d9c 20000000 		.4byte	.LVL229
 14524 0da0 2E000000 		.4byte	.LVL231
 14525 0da4 0200     		.2byte	0x2
 14526 0da6 91       		.byte	0x91
 14527 0da7 00       		.sleb128 0
 14528 0da8 3E000000 		.4byte	.LVL235
 14529 0dac 4A000000 		.4byte	.LVL237
 14530 0db0 0200     		.2byte	0x2
 14531 0db2 91       		.byte	0x91
 14532 0db3 00       		.sleb128 0
 14533 0db4 00000000 		.4byte	0
 14534 0db8 00000000 		.4byte	0
 14535              	.LLST95:
 14536 0dbc 2A000000 		.4byte	.LVL230
 14537 0dc0 3A000000 		.4byte	.LVL234
 14538 0dc4 0100     		.2byte	0x1
 14539 0dc6 5E       		.byte	0x5e
 14540 0dc7 00000000 		.4byte	0
 14541 0dcb 00000000 		.4byte	0
 14542              	.LLST96:
 14543 0dcf 2A000000 		.4byte	.LVL230
 14544 0dd3 3A000000 		.4byte	.LVL234
 14545 0dd7 0800     		.2byte	0x8
 14546 0dd9 75       		.byte	0x75
 14547 0dda 00       		.sleb128 0
 14548 0ddb 74       		.byte	0x74
 14549 0ddc 00       		.sleb128 0
 14550 0ddd 1C       		.byte	0x1c
 14551 0dde 23       		.byte	0x23
 14552 0ddf 01       		.uleb128 0x1
 14553 0de0 9F       		.byte	0x9f
ARM GAS  C:\Users\legoc\AppData\Local\Temp\ccOlrioX.s 			page 272


 14554 0de1 00000000 		.4byte	0
 14555 0de5 00000000 		.4byte	0
 14556              	.LLST97:
 14557 0de9 2A000000 		.4byte	.LVL230
 14558 0ded 3A000000 		.4byte	.LVL234
 14559 0df1 0100     		.2byte	0x1
 14560 0df3 56       		.byte	0x56
 14561 0df4 00000000 		.4byte	0
 14562 0df8 00000000 		.4byte	0
 14563              	.LLST98:
 14564 0dfc 2A000000 		.4byte	.LVL230
 14565 0e00 3A000000 		.4byte	.LVL234
 14566 0e04 0100     		.2byte	0x1
 14567 0e06 54       		.byte	0x54
 14568 0e07 00000000 		.4byte	0
 14569 0e0b 00000000 		.4byte	0
 14570              	.LLST99:
 14571 0e0f 3E000000 		.4byte	.LVL235
 14572 0e13 56000000 		.4byte	.LVL242
 14573 0e17 0100     		.2byte	0x1
 14574 0e19 54       		.byte	0x54
 14575 0e1a 00000000 		.4byte	0
 14576 0e1e 00000000 		.4byte	0
 14577              	.LLST100:
 14578 0e22 3E000000 		.4byte	.LVL235
 14579 0e26 56000000 		.4byte	.LVL242
 14580 0e2a 0100     		.2byte	0x1
 14581 0e2c 5E       		.byte	0x5e
 14582 0e2d 00000000 		.4byte	0
 14583 0e31 00000000 		.4byte	0
 14584              	.LLST101:
 14585 0e35 3E000000 		.4byte	.LVL235
 14586 0e39 46000000 		.4byte	.LVL236
 14587 0e3d 0100     		.2byte	0x1
 14588 0e3f 53       		.byte	0x53
 14589 0e40 46000000 		.4byte	.LVL236
 14590 0e44 56000000 		.4byte	.LVL242
 14591 0e48 0100     		.2byte	0x1
 14592 0e4a 57       		.byte	0x57
 14593 0e4b 00000000 		.4byte	0
 14594 0e4f 00000000 		.4byte	0
 14595              	.LLST102:
 14596 0e53 3E000000 		.4byte	.LVL235
 14597 0e57 46000000 		.4byte	.LVL236
 14598 0e5b 0100     		.2byte	0x1
 14599 0e5d 51       		.byte	0x51
 14600 0e5e 46000000 		.4byte	.LVL236
 14601 0e62 56000000 		.4byte	.LVL242
 14602 0e66 0100     		.2byte	0x1
 14603 0e68 56       		.byte	0x56
 14604 0e69 00000000 		.4byte	0
 14605 0e6d 00000000 		.4byte	0
 14606              	.LLST104:
 14607 0e71 46000000 		.4byte	.LVL236
 14608 0e75 56000000 		.4byte	.LVL242
 14609 0e79 0100     		.2byte	0x1
 14610 0e7b 5E       		.byte	0x5e
ARM GAS  C:\Users\legoc\AppData\Local\Temp\ccOlrioX.s 			page 273


 14611 0e7c 00000000 		.4byte	0
 14612 0e80 00000000 		.4byte	0
 14613              	.LLST105:
 14614 0e84 46000000 		.4byte	.LVL236
 14615 0e88 56000000 		.4byte	.LVL242
 14616 0e8c 0800     		.2byte	0x8
 14617 0e8e 77       		.byte	0x77
 14618 0e8f 00       		.sleb128 0
 14619 0e90 76       		.byte	0x76
 14620 0e91 00       		.sleb128 0
 14621 0e92 1C       		.byte	0x1c
 14622 0e93 23       		.byte	0x23
 14623 0e94 01       		.uleb128 0x1
 14624 0e95 9F       		.byte	0x9f
 14625 0e96 00000000 		.4byte	0
 14626 0e9a 00000000 		.4byte	0
 14627              	.LLST106:
 14628 0e9e 46000000 		.4byte	.LVL236
 14629 0ea2 56000000 		.4byte	.LVL242
 14630 0ea6 0100     		.2byte	0x1
 14631 0ea8 56       		.byte	0x56
 14632 0ea9 00000000 		.4byte	0
 14633 0ead 00000000 		.4byte	0
 14634              	.LLST107:
 14635 0eb1 46000000 		.4byte	.LVL236
 14636 0eb5 56000000 		.4byte	.LVL242
 14637 0eb9 0100     		.2byte	0x1
 14638 0ebb 54       		.byte	0x54
 14639 0ebc 00000000 		.4byte	0
 14640 0ec0 00000000 		.4byte	0
 14641              	.LLST108:
 14642 0ec4 00000000 		.4byte	.LVL244
 14643 0ec8 26000000 		.4byte	.LVL250
 14644 0ecc 0100     		.2byte	0x1
 14645 0ece 50       		.byte	0x50
 14646 0ecf 26000000 		.4byte	.LVL250
 14647 0ed3 60010000 		.4byte	.LFE14
 14648 0ed7 0400     		.2byte	0x4
 14649 0ed9 F3       		.byte	0xf3
 14650 0eda 01       		.uleb128 0x1
 14651 0edb 50       		.byte	0x50
 14652 0edc 9F       		.byte	0x9f
 14653 0edd 00000000 		.4byte	0
 14654 0ee1 00000000 		.4byte	0
 14655              	.LLST109:
 14656 0ee5 00000000 		.4byte	.LVL244
 14657 0ee9 14000000 		.4byte	.LVL247
 14658 0eed 0100     		.2byte	0x1
 14659 0eef 51       		.byte	0x51
 14660 0ef0 14000000 		.4byte	.LVL247
 14661 0ef4 60010000 		.4byte	.LFE14
 14662 0ef8 0400     		.2byte	0x4
 14663 0efa F3       		.byte	0xf3
 14664 0efb 01       		.uleb128 0x1
 14665 0efc 51       		.byte	0x51
 14666 0efd 9F       		.byte	0x9f
 14667 0efe 00000000 		.4byte	0
ARM GAS  C:\Users\legoc\AppData\Local\Temp\ccOlrioX.s 			page 274


 14668 0f02 00000000 		.4byte	0
 14669              	.LLST110:
 14670 0f06 00000000 		.4byte	.LVL244
 14671 0f0a 16000000 		.4byte	.LVL248
 14672 0f0e 0100     		.2byte	0x1
 14673 0f10 52       		.byte	0x52
 14674 0f11 16000000 		.4byte	.LVL248
 14675 0f15 60010000 		.4byte	.LFE14
 14676 0f19 0400     		.2byte	0x4
 14677 0f1b F3       		.byte	0xf3
 14678 0f1c 01       		.uleb128 0x1
 14679 0f1d 52       		.byte	0x52
 14680 0f1e 9F       		.byte	0x9f
 14681 0f1f 00000000 		.4byte	0
 14682 0f23 00000000 		.4byte	0
 14683              	.LLST111:
 14684 0f27 00000000 		.4byte	.LVL244
 14685 0f2b 0E000000 		.4byte	.LVL246
 14686 0f2f 0100     		.2byte	0x1
 14687 0f31 53       		.byte	0x53
 14688 0f32 0E000000 		.4byte	.LVL246
 14689 0f36 60010000 		.4byte	.LFE14
 14690 0f3a 0400     		.2byte	0x4
 14691 0f3c F3       		.byte	0xf3
 14692 0f3d 01       		.uleb128 0x1
 14693 0f3e 53       		.byte	0x53
 14694 0f3f 9F       		.byte	0x9f
 14695 0f40 00000000 		.4byte	0
 14696 0f44 00000000 		.4byte	0
 14697              	.LLST112:
 14698 0f48 00000000 		.4byte	.LVL244
 14699 0f4c 20000000 		.4byte	.LVL249
 14700 0f50 0200     		.2byte	0x2
 14701 0f52 91       		.byte	0x91
 14702 0f53 00       		.sleb128 0
 14703 0f54 00000000 		.4byte	0
 14704 0f58 00000000 		.4byte	0
 14705              	.LLST113:
 14706 0f5c 00000000 		.4byte	.LVL244
 14707 0f60 0C000000 		.4byte	.LVL245
 14708 0f64 0200     		.2byte	0x2
 14709 0f66 91       		.byte	0x91
 14710 0f67 04       		.sleb128 4
 14711 0f68 00000000 		.4byte	0
 14712 0f6c 00000000 		.4byte	0
 14713              	.LLST114:
 14714 0f70 00000000 		.4byte	.LVL244
 14715 0f74 6C000000 		.4byte	.LVL254
 14716 0f78 0200     		.2byte	0x2
 14717 0f7a 91       		.byte	0x91
 14718 0f7b 08       		.sleb128 8
 14719 0f7c 6C000000 		.4byte	.LVL254
 14720 0f80 72000000 		.4byte	.LVL255
 14721 0f84 0100     		.2byte	0x1
 14722 0f86 55       		.byte	0x55
 14723 0f87 8C000000 		.4byte	.LVL258
 14724 0f8b 9C000000 		.4byte	.LVL260
ARM GAS  C:\Users\legoc\AppData\Local\Temp\ccOlrioX.s 			page 275


 14725 0f8f 0100     		.2byte	0x1
 14726 0f91 55       		.byte	0x55
 14727 0f92 9C000000 		.4byte	.LVL260
 14728 0f96 AC000000 		.4byte	.LVL262
 14729 0f9a 0300     		.2byte	0x3
 14730 0f9c 75       		.byte	0x75
 14731 0f9d 7F       		.sleb128 -1
 14732 0f9e 9F       		.byte	0x9f
 14733 0f9f C0000000 		.4byte	.LVL267
 14734 0fa3 4C010000 		.4byte	.LVL288
 14735 0fa7 0200     		.2byte	0x2
 14736 0fa9 91       		.byte	0x91
 14737 0faa 08       		.sleb128 8
 14738 0fab 4C010000 		.4byte	.LVL288
 14739 0faf 60010000 		.4byte	.LFE14
 14740 0fb3 0100     		.2byte	0x1
 14741 0fb5 55       		.byte	0x55
 14742 0fb6 00000000 		.4byte	0
 14743 0fba 00000000 		.4byte	0
 14744              	.LLST115:
 14745 0fbe 66000000 		.4byte	.LVL253
 14746 0fc2 C0000000 		.4byte	.LVL267
 14747 0fc6 0100     		.2byte	0x1
 14748 0fc8 54       		.byte	0x54
 14749 0fc9 4C010000 		.4byte	.LVL288
 14750 0fcd 60010000 		.4byte	.LFE14
 14751 0fd1 0100     		.2byte	0x1
 14752 0fd3 54       		.byte	0x54
 14753 0fd4 00000000 		.4byte	0
 14754 0fd8 00000000 		.4byte	0
 14755              	.LLST116:
 14756 0fdc 6C000000 		.4byte	.LVL254
 14757 0fe0 B0000000 		.4byte	.LVL263
 14758 0fe4 0100     		.2byte	0x1
 14759 0fe6 51       		.byte	0x51
 14760 0fe7 B0000000 		.4byte	.LVL263
 14761 0feb B7000000 		.4byte	.LVL266-1
 14762 0fef 0300     		.2byte	0x3
 14763 0ff1 71       		.byte	0x71
 14764 0ff2 01       		.sleb128 1
 14765 0ff3 9F       		.byte	0x9f
 14766 0ff4 B7000000 		.4byte	.LVL266-1
 14767 0ff8 C0000000 		.4byte	.LVL267
 14768 0ffc 1000     		.2byte	0x10
 14769 0ffe 91       		.byte	0x91
 14770 0fff 04       		.sleb128 4
 14771 1000 06       		.byte	0x6
 14772 1001 4F       		.byte	0x4f
 14773 1002 25       		.byte	0x25
 14774 1003 91       		.byte	0x91
 14775 1004 04       		.sleb128 4
 14776 1005 06       		.byte	0x6
 14777 1006 22       		.byte	0x22
 14778 1007 31       		.byte	0x31
 14779 1008 26       		.byte	0x26
 14780 1009 91       		.byte	0x91
 14781 100a 7C       		.sleb128 -4
ARM GAS  C:\Users\legoc\AppData\Local\Temp\ccOlrioX.s 			page 276


 14782 100b 06       		.byte	0x6
 14783 100c 22       		.byte	0x22
 14784 100d 9F       		.byte	0x9f
 14785 100e 4C010000 		.4byte	.LVL288
 14786 1012 60010000 		.4byte	.LFE14
 14787 1016 0100     		.2byte	0x1
 14788 1018 51       		.byte	0x51
 14789 1019 00000000 		.4byte	0
 14790 101d 00000000 		.4byte	0
 14791              	.LLST117:
 14792 1021 6C000000 		.4byte	.LVL254
 14793 1025 72000000 		.4byte	.LVL255
 14794 1029 0200     		.2byte	0x2
 14795 102b 30       		.byte	0x30
 14796 102c 9F       		.byte	0x9f
 14797 102d 72000000 		.4byte	.LVL255
 14798 1031 A4000000 		.4byte	.LVL261
 14799 1035 0100     		.2byte	0x1
 14800 1037 52       		.byte	0x52
 14801 1038 4C010000 		.4byte	.LVL288
 14802 103c 52010000 		.4byte	.LVL290
 14803 1040 0200     		.2byte	0x2
 14804 1042 30       		.byte	0x30
 14805 1043 9F       		.byte	0x9f
 14806 1044 52010000 		.4byte	.LVL290
 14807 1048 56010000 		.4byte	.LVL291
 14808 104c 0100     		.2byte	0x1
 14809 104e 52       		.byte	0x52
 14810 104f 00000000 		.4byte	0
 14811 1053 00000000 		.4byte	0
 14812              	.LLST118:
 14813 1057 8C000000 		.4byte	.LVL258
 14814 105b B7000000 		.4byte	.LVL266-1
 14815 105f 0200     		.2byte	0x2
 14816 1061 73       		.byte	0x73
 14817 1062 00       		.sleb128 0
 14818 1063 4C010000 		.4byte	.LVL288
 14819 1067 50010000 		.4byte	.LVL289
 14820 106b 0200     		.2byte	0x2
 14821 106d 91       		.byte	0x91
 14822 106e 0C       		.sleb128 12
 14823 106f 50010000 		.4byte	.LVL289
 14824 1073 60010000 		.4byte	.LFE14
 14825 1077 0200     		.2byte	0x2
 14826 1079 73       		.byte	0x73
 14827 107a 00       		.sleb128 0
 14828 107b 00000000 		.4byte	0
 14829 107f 00000000 		.4byte	0
 14830              	.LLST119:
 14831 1083 8C000000 		.4byte	.LVL258
 14832 1087 94000000 		.4byte	.LVL259
 14833 108b 0200     		.2byte	0x2
 14834 108d 30       		.byte	0x30
 14835 108e 9F       		.byte	0x9f
 14836 108f 4C010000 		.4byte	.LVL288
 14837 1093 60010000 		.4byte	.LFE14
 14838 1097 0200     		.2byte	0x2
ARM GAS  C:\Users\legoc\AppData\Local\Temp\ccOlrioX.s 			page 277


 14839 1099 30       		.byte	0x30
 14840 109a 9F       		.byte	0x9f
 14841 109b 00000000 		.4byte	0
 14842 109f 00000000 		.4byte	0
 14843              	.LLST120:
 14844 10a3 AC000000 		.4byte	.LVL262
 14845 10a7 B2000000 		.4byte	.LVL264
 14846 10ab 0800     		.2byte	0x8
 14847 10ad 72       		.byte	0x72
 14848 10ae 00       		.sleb128 0
 14849 10af 74       		.byte	0x74
 14850 10b0 00       		.sleb128 0
 14851 10b1 22       		.byte	0x22
 14852 10b2 23       		.byte	0x23
 14853 10b3 03       		.uleb128 0x3
 14854 10b4 9F       		.byte	0x9f
 14855 10b5 B4000000 		.4byte	.LVL265
 14856 10b9 B7000000 		.4byte	.LVL266-1
 14857 10bd 0100     		.2byte	0x1
 14858 10bf 50       		.byte	0x50
 14859 10c0 00000000 		.4byte	0
 14860 10c4 00000000 		.4byte	0
 14861              	.LLST121:
 14862 10c8 3C000000 		.4byte	.LVL251
 14863 10cc 54000000 		.4byte	.LVL252
 14864 10d0 0200     		.2byte	0x2
 14865 10d2 91       		.byte	0x91
 14866 10d3 74       		.sleb128 -12
 14867 10d4 C0000000 		.4byte	.LVL267
 14868 10d8 4C010000 		.4byte	.LVL288
 14869 10dc 0200     		.2byte	0x2
 14870 10de 91       		.byte	0x91
 14871 10df 74       		.sleb128 -12
 14872 10e0 00000000 		.4byte	0
 14873 10e4 00000000 		.4byte	0
 14874              	.LLST122:
 14875 10e8 3C000000 		.4byte	.LVL251
 14876 10ec 54000000 		.4byte	.LVL252
 14877 10f0 0200     		.2byte	0x2
 14878 10f2 91       		.byte	0x91
 14879 10f3 04       		.sleb128 4
 14880 10f4 C0000000 		.4byte	.LVL267
 14881 10f8 4C010000 		.4byte	.LVL288
 14882 10fc 0200     		.2byte	0x2
 14883 10fe 91       		.byte	0x91
 14884 10ff 04       		.sleb128 4
 14885 1100 00000000 		.4byte	0
 14886 1104 00000000 		.4byte	0
 14887              	.LLST123:
 14888 1108 3C000000 		.4byte	.LVL251
 14889 110c 54000000 		.4byte	.LVL252
 14890 1110 0100     		.2byte	0x1
 14891 1112 5A       		.byte	0x5a
 14892 1113 C0000000 		.4byte	.LVL267
 14893 1117 4C010000 		.4byte	.LVL288
 14894 111b 0100     		.2byte	0x1
 14895 111d 5A       		.byte	0x5a
ARM GAS  C:\Users\legoc\AppData\Local\Temp\ccOlrioX.s 			page 278


 14896 111e 00000000 		.4byte	0
 14897 1122 00000000 		.4byte	0
 14898              	.LLST124:
 14899 1126 3C000000 		.4byte	.LVL251
 14900 112a 54000000 		.4byte	.LVL252
 14901 112e 0200     		.2byte	0x2
 14902 1130 91       		.byte	0x91
 14903 1131 7C       		.sleb128 -4
 14904 1132 C0000000 		.4byte	.LVL267
 14905 1136 4C010000 		.4byte	.LVL288
 14906 113a 0200     		.2byte	0x2
 14907 113c 91       		.byte	0x91
 14908 113d 7C       		.sleb128 -4
 14909 113e 00000000 		.4byte	0
 14910 1142 00000000 		.4byte	0
 14911              	.LLST125:
 14912 1146 3C000000 		.4byte	.LVL251
 14913 114a 54000000 		.4byte	.LVL252
 14914 114e 0200     		.2byte	0x2
 14915 1150 91       		.byte	0x91
 14916 1151 00       		.sleb128 0
 14917 1152 C0000000 		.4byte	.LVL267
 14918 1156 4C010000 		.4byte	.LVL288
 14919 115a 0200     		.2byte	0x2
 14920 115c 91       		.byte	0x91
 14921 115d 00       		.sleb128 0
 14922 115e 00000000 		.4byte	0
 14923 1162 00000000 		.4byte	0
 14924              	.LLST129:
 14925 1166 3C000000 		.4byte	.LVL251
 14926 116a 54000000 		.4byte	.LVL252
 14927 116e 0700     		.2byte	0x7
 14928 1170 0A       		.byte	0xa
 14929 1171 4001     		.2byte	0x140
 14930 1173 74       		.byte	0x74
 14931 1174 00       		.sleb128 0
 14932 1175 1C       		.byte	0x1c
 14933 1176 9F       		.byte	0x9f
 14934 1177 C0000000 		.4byte	.LVL267
 14935 117b 06010000 		.4byte	.LVL277
 14936 117f 0700     		.2byte	0x7
 14937 1181 0A       		.byte	0xa
 14938 1182 4001     		.2byte	0x140
 14939 1184 74       		.byte	0x74
 14940 1185 00       		.sleb128 0
 14941 1186 1C       		.byte	0x1c
 14942 1187 9F       		.byte	0x9f
 14943 1188 06010000 		.4byte	.LVL277
 14944 118c 4C010000 		.4byte	.LVL288
 14945 1190 0F00     		.2byte	0xf
 14946 1192 0A       		.byte	0xa
 14947 1193 4001     		.2byte	0x140
 14948 1195 7A       		.byte	0x7a
 14949 1196 00       		.sleb128 0
 14950 1197 0A       		.byte	0xa
 14951 1198 FFFF     		.2byte	0xffff
 14952 119a 1A       		.byte	0x1a
ARM GAS  C:\Users\legoc\AppData\Local\Temp\ccOlrioX.s 			page 279


 14953 119b 91       		.byte	0x91
 14954 119c 00       		.sleb128 0
 14955 119d 06       		.byte	0x6
 14956 119e 22       		.byte	0x22
 14957 119f 1C       		.byte	0x1c
 14958 11a0 9F       		.byte	0x9f
 14959 11a1 00000000 		.4byte	0
 14960 11a5 00000000 		.4byte	0
 14961              	.LLST130:
 14962 11a9 3C000000 		.4byte	.LVL251
 14963 11ad 54000000 		.4byte	.LVL252
 14964 11b1 0100     		.2byte	0x1
 14965 11b3 5E       		.byte	0x5e
 14966 11b4 C0000000 		.4byte	.LVL267
 14967 11b8 C6000000 		.4byte	.LVL268
 14968 11bc 0100     		.2byte	0x1
 14969 11be 5E       		.byte	0x5e
 14970 11bf C6000000 		.4byte	.LVL268
 14971 11c3 EB000000 		.4byte	.LVL272-1
 14972 11c7 0100     		.2byte	0x1
 14973 11c9 50       		.byte	0x50
 14974 11ca EB000000 		.4byte	.LVL272-1
 14975 11ce 4C010000 		.4byte	.LVL288
 14976 11d2 1400     		.2byte	0x14
 14977 11d4 08       		.byte	0x8
 14978 11d5 F0       		.byte	0xf0
 14979 11d6 91       		.byte	0x91
 14980 11d7 04       		.sleb128 4
 14981 11d8 94       		.byte	0x94
 14982 11d9 02       		.byte	0x2
 14983 11da 0A       		.byte	0xa
 14984 11db FFFF     		.2byte	0xffff
 14985 11dd 1A       		.byte	0x1a
 14986 11de 91       		.byte	0x91
 14987 11df 7C       		.sleb128 -4
 14988 11e0 06       		.byte	0x6
 14989 11e1 22       		.byte	0x22
 14990 11e2 0A       		.byte	0xa
 14991 11e3 FFFF     		.2byte	0xffff
 14992 11e5 1A       		.byte	0x1a
 14993 11e6 1C       		.byte	0x1c
 14994 11e7 9F       		.byte	0x9f
 14995 11e8 00000000 		.4byte	0
 14996 11ec 00000000 		.4byte	0
 14997              	.LLST131:
 14998 11f0 C0000000 		.4byte	.LVL267
 14999 11f4 4C010000 		.4byte	.LVL288
 15000 11f8 0200     		.2byte	0x2
 15001 11fa 91       		.byte	0x91
 15002 11fb 74       		.sleb128 -12
 15003 11fc 00000000 		.4byte	0
 15004 1200 00000000 		.4byte	0
 15005              	.LLST132:
 15006 1204 C0000000 		.4byte	.LVL267
 15007 1208 E8000000 		.4byte	.LVL271
 15008 120c 0100     		.2byte	0x1
 15009 120e 5A       		.byte	0x5a
ARM GAS  C:\Users\legoc\AppData\Local\Temp\ccOlrioX.s 			page 280


 15010 120f E8000000 		.4byte	.LVL271
 15011 1213 06010000 		.4byte	.LVL277
 15012 1217 0100     		.2byte	0x1
 15013 1219 59       		.byte	0x59
 15014 121a 00000000 		.4byte	0
 15015 121e 00000000 		.4byte	0
 15016              	.LLST133:
 15017 1222 C0000000 		.4byte	.LVL267
 15018 1226 D2000000 		.4byte	.LVL269
 15019 122a 0200     		.2byte	0x2
 15020 122c 91       		.byte	0x91
 15021 122d 04       		.sleb128 4
 15022 122e D2000000 		.4byte	.LVL269
 15023 1232 4C010000 		.4byte	.LVL288
 15024 1236 0100     		.2byte	0x1
 15025 1238 5B       		.byte	0x5b
 15026 1239 00000000 		.4byte	0
 15027 123d 00000000 		.4byte	0
 15028              	.LLST134:
 15029 1241 C0000000 		.4byte	.LVL267
 15030 1245 00010000 		.4byte	.LVL276
 15031 1249 0700     		.2byte	0x7
 15032 124b 0A       		.byte	0xa
 15033 124c 4001     		.2byte	0x140
 15034 124e 74       		.byte	0x74
 15035 124f 00       		.sleb128 0
 15036 1250 1C       		.byte	0x1c
 15037 1251 9F       		.byte	0x9f
 15038 1252 00010000 		.4byte	.LVL276
 15039 1256 4C010000 		.4byte	.LVL288
 15040 125a 0100     		.2byte	0x1
 15041 125c 59       		.byte	0x59
 15042 125d 00000000 		.4byte	0
 15043 1261 00000000 		.4byte	0
 15044              	.LLST135:
 15045 1265 C0000000 		.4byte	.LVL267
 15046 1269 C6000000 		.4byte	.LVL268
 15047 126d 0100     		.2byte	0x1
 15048 126f 5E       		.byte	0x5e
 15049 1270 C6000000 		.4byte	.LVL268
 15050 1274 EB000000 		.4byte	.LVL272-1
 15051 1278 0100     		.2byte	0x1
 15052 127a 50       		.byte	0x50
 15053 127b EB000000 		.4byte	.LVL272-1
 15054 127f 06010000 		.4byte	.LVL277
 15055 1283 1400     		.2byte	0x14
 15056 1285 08       		.byte	0x8
 15057 1286 F0       		.byte	0xf0
 15058 1287 91       		.byte	0x91
 15059 1288 04       		.sleb128 4
 15060 1289 94       		.byte	0x94
 15061 128a 02       		.byte	0x2
 15062 128b 0A       		.byte	0xa
 15063 128c FFFF     		.2byte	0xffff
 15064 128e 1A       		.byte	0x1a
 15065 128f 91       		.byte	0x91
 15066 1290 7C       		.sleb128 -4
ARM GAS  C:\Users\legoc\AppData\Local\Temp\ccOlrioX.s 			page 281


 15067 1291 06       		.byte	0x6
 15068 1292 22       		.byte	0x22
 15069 1293 0A       		.byte	0xa
 15070 1294 FFFF     		.2byte	0xffff
 15071 1296 1A       		.byte	0x1a
 15072 1297 1C       		.byte	0x1c
 15073 1298 9F       		.byte	0x9f
 15074 1299 06010000 		.4byte	.LVL277
 15075 129d 10010000 		.4byte	.LVL278
 15076 12a1 0100     		.2byte	0x1
 15077 12a3 5B       		.byte	0x5b
 15078 12a4 10010000 		.4byte	.LVL278
 15079 12a8 2E010000 		.4byte	.LVL283
 15080 12ac 0100     		.2byte	0x1
 15081 12ae 54       		.byte	0x54
 15082 12af 32010000 		.4byte	.LVL284
 15083 12b3 36010000 		.4byte	.LVL285
 15084 12b7 0100     		.2byte	0x1
 15085 12b9 54       		.byte	0x54
 15086 12ba 00000000 		.4byte	0
 15087 12be 00000000 		.4byte	0
 15088              	.LLST136:
 15089 12c2 FA000000 		.4byte	.LVL274
 15090 12c6 4C010000 		.4byte	.LVL288
 15091 12ca 0100     		.2byte	0x1
 15092 12cc 58       		.byte	0x58
 15093 12cd 00000000 		.4byte	0
 15094 12d1 00000000 		.4byte	0
 15095              	.LLST137:
 15096 12d5 FC000000 		.4byte	.LVL275
 15097 12d9 4C010000 		.4byte	.LVL288
 15098 12dd 0100     		.2byte	0x1
 15099 12df 56       		.byte	0x56
 15100 12e0 00000000 		.4byte	0
 15101 12e4 00000000 		.4byte	0
 15102              	.LLST138:
 15103 12e8 00000000 		.4byte	.LVL292
 15104 12ec 16000000 		.4byte	.LVL294
 15105 12f0 0100     		.2byte	0x1
 15106 12f2 50       		.byte	0x50
 15107 12f3 16000000 		.4byte	.LVL294
 15108 12f7 12010000 		.4byte	.LVL324
 15109 12fb 0100     		.2byte	0x1
 15110 12fd 59       		.byte	0x59
 15111 12fe 12010000 		.4byte	.LVL324
 15112 1302 12020000 		.4byte	.LVL356
 15113 1306 0400     		.2byte	0x4
 15114 1308 F3       		.byte	0xf3
 15115 1309 01       		.uleb128 0x1
 15116 130a 50       		.byte	0x50
 15117 130b 9F       		.byte	0x9f
 15118 130c 12020000 		.4byte	.LVL356
 15119 1310 2C020000 		.4byte	.LVL359
 15120 1314 0100     		.2byte	0x1
 15121 1316 59       		.byte	0x59
 15122 1317 2C020000 		.4byte	.LVL359
 15123 131b 58020000 		.4byte	.LFE15
ARM GAS  C:\Users\legoc\AppData\Local\Temp\ccOlrioX.s 			page 282


 15124 131f 0400     		.2byte	0x4
 15125 1321 F3       		.byte	0xf3
 15126 1322 01       		.uleb128 0x1
 15127 1323 50       		.byte	0x50
 15128 1324 9F       		.byte	0x9f
 15129 1325 00000000 		.4byte	0
 15130 1329 00000000 		.4byte	0
 15131              	.LLST139:
 15132 132d 00000000 		.4byte	.LVL292
 15133 1331 0A000000 		.4byte	.LVL293
 15134 1335 0100     		.2byte	0x1
 15135 1337 51       		.byte	0x51
 15136 1338 0A000000 		.4byte	.LVL293
 15137 133c D2000000 		.4byte	.LVL315
 15138 1340 0100     		.2byte	0x1
 15139 1342 56       		.byte	0x56
 15140 1343 D2000000 		.4byte	.LVL315
 15141 1347 12020000 		.4byte	.LVL356
 15142 134b 0400     		.2byte	0x4
 15143 134d F3       		.byte	0xf3
 15144 134e 01       		.uleb128 0x1
 15145 134f 51       		.byte	0x51
 15146 1350 9F       		.byte	0x9f
 15147 1351 12020000 		.4byte	.LVL356
 15148 1355 2C020000 		.4byte	.LVL359
 15149 1359 0100     		.2byte	0x1
 15150 135b 56       		.byte	0x56
 15151 135c 2C020000 		.4byte	.LVL359
 15152 1360 58020000 		.4byte	.LFE15
 15153 1364 0400     		.2byte	0x4
 15154 1366 F3       		.byte	0xf3
 15155 1367 01       		.uleb128 0x1
 15156 1368 51       		.byte	0x51
 15157 1369 9F       		.byte	0x9f
 15158 136a 00000000 		.4byte	0
 15159 136e 00000000 		.4byte	0
 15160              	.LLST140:
 15161 1372 7E000000 		.4byte	.LVL308
 15162 1376 82000000 		.4byte	.LVL309
 15163 137a 0100     		.2byte	0x1
 15164 137c 50       		.byte	0x50
 15165 137d 82000000 		.4byte	.LVL309
 15166 1381 1E010000 		.4byte	.LVL325
 15167 1385 0100     		.2byte	0x1
 15168 1387 5A       		.byte	0x5a
 15169 1388 12020000 		.4byte	.LVL356
 15170 138c 2C020000 		.4byte	.LVL359
 15171 1390 0100     		.2byte	0x1
 15172 1392 5A       		.byte	0x5a
 15173 1393 00000000 		.4byte	0
 15174 1397 00000000 		.4byte	0
 15175              	.LLST141:
 15176 139b D4000000 		.4byte	.LVL316
 15177 139f F4000000 		.4byte	.LVL320
 15178 13a3 0100     		.2byte	0x1
 15179 13a5 55       		.byte	0x55
 15180 13a6 F4000000 		.4byte	.LVL320
ARM GAS  C:\Users\legoc\AppData\Local\Temp\ccOlrioX.s 			page 283


 15181 13aa 0E010000 		.4byte	.LVL323
 15182 13ae 0300     		.2byte	0x3
 15183 13b0 75       		.byte	0x75
 15184 13b1 7B       		.sleb128 -5
 15185 13b2 9F       		.byte	0x9f
 15186 13b3 00000000 		.4byte	0
 15187 13b7 00000000 		.4byte	0
 15188              	.LLST142:
 15189 13bb BE000000 		.4byte	.LVL314
 15190 13bf D4000000 		.4byte	.LVL316
 15191 13c3 0200     		.2byte	0x2
 15192 13c5 31       		.byte	0x31
 15193 13c6 9F       		.byte	0x9f
 15194 13c7 0E010000 		.4byte	.LVL323
 15195 13cb 28010000 		.4byte	.LVL326
 15196 13cf 0200     		.2byte	0x2
 15197 13d1 31       		.byte	0x31
 15198 13d2 9F       		.byte	0x9f
 15199 13d3 28010000 		.4byte	.LVL326
 15200 13d7 46010000 		.4byte	.LVL330
 15201 13db 0100     		.2byte	0x1
 15202 13dd 55       		.byte	0x55
 15203 13de 46010000 		.4byte	.LVL330
 15204 13e2 56010000 		.4byte	.LVL331
 15205 13e6 0300     		.2byte	0x3
 15206 13e8 75       		.byte	0x75
 15207 13e9 7F       		.sleb128 -1
 15208 13ea 9F       		.byte	0x9f
 15209 13eb 56010000 		.4byte	.LVL331
 15210 13ef 84010000 		.4byte	.LVL337
 15211 13f3 0100     		.2byte	0x1
 15212 13f5 55       		.byte	0x55
 15213 13f6 00000000 		.4byte	0
 15214 13fa 00000000 		.4byte	0
 15215              	.LLST143:
 15216 13fe 00000000 		.4byte	.LVL292
 15217 1402 5C000000 		.4byte	.LVL304
 15218 1406 0200     		.2byte	0x2
 15219 1408 30       		.byte	0x30
 15220 1409 9F       		.byte	0x9f
 15221 140a 00000000 		.4byte	0
 15222 140e 00000000 		.4byte	0
 15223              	.LLST145:
 15224 1412 00000000 		.4byte	.LVL292
 15225 1416 5C000000 		.4byte	.LVL304
 15226 141a 0300     		.2byte	0x3
 15227 141c 08       		.byte	0x8
 15228 141d F0       		.byte	0xf0
 15229 141e 9F       		.byte	0x9f
 15230 141f 00000000 		.4byte	0
 15231 1423 00000000 		.4byte	0
 15232              	.LLST146:
 15233 1427 00000000 		.4byte	.LVL292
 15234 142b 5C000000 		.4byte	.LVL304
 15235 142f 0400     		.2byte	0x4
 15236 1431 0A       		.byte	0xa
 15237 1432 4001     		.2byte	0x140
ARM GAS  C:\Users\legoc\AppData\Local\Temp\ccOlrioX.s 			page 284


 15238 1434 9F       		.byte	0x9f
 15239 1435 00000000 		.4byte	0
 15240 1439 00000000 		.4byte	0
 15241              	.LLST157:
 15242 143d 00000000 		.4byte	.LVL292
 15243 1441 26000000 		.4byte	.LVL297
 15244 1445 0200     		.2byte	0x2
 15245 1447 30       		.byte	0x30
 15246 1448 9F       		.byte	0x9f
 15247 1449 26000000 		.4byte	.LVL297
 15248 144d 2A000000 		.4byte	.LVL298
 15249 1451 0400     		.2byte	0x4
 15250 1453 0A       		.byte	0xa
 15251 1454 4001     		.2byte	0x140
 15252 1456 9F       		.byte	0x9f
 15253 1457 00000000 		.4byte	0
 15254 145b 00000000 		.4byte	0
 15255              	.LLST158:
 15256 145f 00000000 		.4byte	.LVL292
 15257 1463 2A000000 		.4byte	.LVL298
 15258 1467 0200     		.2byte	0x2
 15259 1469 30       		.byte	0x30
 15260 146a 9F       		.byte	0x9f
 15261 146b 2A000000 		.4byte	.LVL298
 15262 146f 2C000000 		.4byte	.LVL299
 15263 1473 0300     		.2byte	0x3
 15264 1475 08       		.byte	0x8
 15265 1476 F0       		.byte	0xf0
 15266 1477 9F       		.byte	0x9f
 15267 1478 00000000 		.4byte	0
 15268 147c 00000000 		.4byte	0
 15269              	.LLST159:
 15270 1480 1A000000 		.4byte	.LVL295
 15271 1484 5C000000 		.4byte	.LVL304
 15272 1488 0200     		.2byte	0x2
 15273 148a 30       		.byte	0x30
 15274 148b 9F       		.byte	0x9f
 15275 148c 00000000 		.4byte	0
 15276 1490 00000000 		.4byte	0
 15277              	.LLST161:
 15278 1494 7E000000 		.4byte	.LVL308
 15279 1498 86000000 		.4byte	.LVL310
 15280 149c 0300     		.2byte	0x3
 15281 149e 09       		.byte	0x9
 15282 149f FF       		.byte	0xff
 15283 14a0 9F       		.byte	0x9f
 15284 14a1 00000000 		.4byte	0
 15285 14a5 00000000 		.4byte	0
 15286              	.LLST162:
 15287 14a9 7E000000 		.4byte	.LVL308
 15288 14ad 86000000 		.4byte	.LVL310
 15289 14b1 0200     		.2byte	0x2
 15290 14b3 3A       		.byte	0x3a
 15291 14b4 9F       		.byte	0x9f
 15292 14b5 00000000 		.4byte	0
 15293 14b9 00000000 		.4byte	0
 15294              	.LLST163:
ARM GAS  C:\Users\legoc\AppData\Local\Temp\ccOlrioX.s 			page 285


 15295 14bd 7E000000 		.4byte	.LVL308
 15296 14c1 86000000 		.4byte	.LVL310
 15297 14c5 0300     		.2byte	0x3
 15298 14c7 08       		.byte	0x8
 15299 14c8 DC       		.byte	0xdc
 15300 14c9 9F       		.byte	0x9f
 15301 14ca 00000000 		.4byte	0
 15302 14ce 00000000 		.4byte	0
 15303              	.LLST165:
 15304 14d2 7E000000 		.4byte	.LVL308
 15305 14d6 86000000 		.4byte	.LVL310
 15306 14da 0200     		.2byte	0x2
 15307 14dc 4E       		.byte	0x4e
 15308 14dd 9F       		.byte	0x9f
 15309 14de 00000000 		.4byte	0
 15310 14e2 00000000 		.4byte	0
 15311              	.LLST166:
 15312 14e6 86000000 		.4byte	.LVL310
 15313 14ea 94000000 		.4byte	.LVL311
 15314 14ee 0300     		.2byte	0x3
 15315 14f0 09       		.byte	0x9
 15316 14f1 FF       		.byte	0xff
 15317 14f2 9F       		.byte	0x9f
 15318 14f3 00000000 		.4byte	0
 15319 14f7 00000000 		.4byte	0
 15320              	.LLST167:
 15321 14fb 86000000 		.4byte	.LVL310
 15322 14ff 94000000 		.4byte	.LVL311
 15323 1503 0300     		.2byte	0x3
 15324 1505 08       		.byte	0x8
 15325 1506 C9       		.byte	0xc9
 15326 1507 9F       		.byte	0x9f
 15327 1508 00000000 		.4byte	0
 15328 150c 00000000 		.4byte	0
 15329              	.LLST168:
 15330 1510 86000000 		.4byte	.LVL310
 15331 1514 94000000 		.4byte	.LVL311
 15332 1518 0200     		.2byte	0x2
 15333 151a 4E       		.byte	0x4e
 15334 151b 9F       		.byte	0x9f
 15335 151c 00000000 		.4byte	0
 15336 1520 00000000 		.4byte	0
 15337              	.LLST169:
 15338 1524 86000000 		.4byte	.LVL310
 15339 1528 94000000 		.4byte	.LVL311
 15340 152c 0200     		.2byte	0x2
 15341 152e 3A       		.byte	0x3a
 15342 152f 9F       		.byte	0x9f
 15343 1530 00000000 		.4byte	0
 15344 1534 00000000 		.4byte	0
 15345              	.LLST176:
 15346 1538 E6000000 		.4byte	.LVL318
 15347 153c F2000000 		.4byte	.LVL319
 15348 1540 0300     		.2byte	0x3
 15349 1542 09       		.byte	0x9
 15350 1543 FF       		.byte	0xff
 15351 1544 9F       		.byte	0x9f
ARM GAS  C:\Users\legoc\AppData\Local\Temp\ccOlrioX.s 			page 286


 15352 1545 00000000 		.4byte	0
 15353 1549 00000000 		.4byte	0
 15354              	.LLST177:
 15355 154d E6000000 		.4byte	.LVL318
 15356 1551 F1000000 		.4byte	.LVL319-1
 15357 1555 0100     		.2byte	0x1
 15358 1557 53       		.byte	0x53
 15359 1558 F1000000 		.4byte	.LVL319-1
 15360 155c F2000000 		.4byte	.LVL319
 15361 1560 0100     		.2byte	0x1
 15362 1562 54       		.byte	0x54
 15363 1563 00000000 		.4byte	0
 15364 1567 00000000 		.4byte	0
 15365              	.LLST178:
 15366 156b E6000000 		.4byte	.LVL318
 15367 156f F2000000 		.4byte	.LVL319
 15368 1573 0300     		.2byte	0x3
 15369 1575 08       		.byte	0x8
 15370 1576 DC       		.byte	0xdc
 15371 1577 9F       		.byte	0x9f
 15372 1578 00000000 		.4byte	0
 15373 157c 00000000 		.4byte	0
 15374              	.LLST180:
 15375 1580 E6000000 		.4byte	.LVL318
 15376 1584 F2000000 		.4byte	.LVL319
 15377 1588 0200     		.2byte	0x2
 15378 158a 4E       		.byte	0x4e
 15379 158b 9F       		.byte	0x9f
 15380 158c 00000000 		.4byte	0
 15381 1590 00000000 		.4byte	0
 15382              	.LLST181:
 15383 1594 E6000000 		.4byte	.LVL318
 15384 1598 0E010000 		.4byte	.LVL323
 15385 159c 0300     		.2byte	0x3
 15386 159e 09       		.byte	0x9
 15387 159f FF       		.byte	0xff
 15388 15a0 9F       		.byte	0x9f
 15389 15a1 00000000 		.4byte	0
 15390 15a5 00000000 		.4byte	0
 15391              	.LLST182:
 15392 15a9 E6000000 		.4byte	.LVL318
 15393 15ad 0E010000 		.4byte	.LVL323
 15394 15b1 0300     		.2byte	0x3
 15395 15b3 08       		.byte	0x8
 15396 15b4 BF       		.byte	0xbf
 15397 15b5 9F       		.byte	0x9f
 15398 15b6 00000000 		.4byte	0
 15399 15ba 00000000 		.4byte	0
 15400              	.LLST183:
 15401 15be E6000000 		.4byte	.LVL318
 15402 15c2 F1000000 		.4byte	.LVL319-1
 15403 15c6 0100     		.2byte	0x1
 15404 15c8 53       		.byte	0x53
 15405 15c9 F1000000 		.4byte	.LVL319-1
 15406 15cd 06010000 		.4byte	.LVL322
 15407 15d1 0100     		.2byte	0x1
 15408 15d3 54       		.byte	0x54
ARM GAS  C:\Users\legoc\AppData\Local\Temp\ccOlrioX.s 			page 287


 15409 15d4 00000000 		.4byte	0
 15410 15d8 00000000 		.4byte	0
 15411              	.LLST184:
 15412 15dc E6000000 		.4byte	.LVL318
 15413 15e0 0E010000 		.4byte	.LVL323
 15414 15e4 0200     		.2byte	0x2
 15415 15e6 4E       		.byte	0x4e
 15416 15e7 9F       		.byte	0x9f
 15417 15e8 00000000 		.4byte	0
 15418 15ec 00000000 		.4byte	0
 15419              	.LLST185:
 15420 15f0 36010000 		.4byte	.LVL328
 15421 15f4 44010000 		.4byte	.LVL329
 15422 15f8 0300     		.2byte	0x3
 15423 15fa 09       		.byte	0x9
 15424 15fb FF       		.byte	0xff
 15425 15fc 9F       		.byte	0x9f
 15426 15fd 00000000 		.4byte	0
 15427 1601 00000000 		.4byte	0
 15428              	.LLST186:
 15429 1605 36010000 		.4byte	.LVL328
 15430 1609 44010000 		.4byte	.LVL329
 15431 160d 0300     		.2byte	0x3
 15432 160f 08       		.byte	0x8
 15433 1610 CA       		.byte	0xca
 15434 1611 9F       		.byte	0x9f
 15435 1612 00000000 		.4byte	0
 15436 1616 00000000 		.4byte	0
 15437              	.LLST187:
 15438 161a 36010000 		.4byte	.LVL328
 15439 161e 43010000 		.4byte	.LVL329-1
 15440 1622 0100     		.2byte	0x1
 15441 1624 52       		.byte	0x52
 15442 1625 43010000 		.4byte	.LVL329-1
 15443 1629 44010000 		.4byte	.LVL329
 15444 162d 0100     		.2byte	0x1
 15445 162f 54       		.byte	0x54
 15446 1630 00000000 		.4byte	0
 15447 1634 00000000 		.4byte	0
 15448              	.LLST188:
 15449 1638 36010000 		.4byte	.LVL328
 15450 163c 44010000 		.4byte	.LVL329
 15451 1640 0200     		.2byte	0x2
 15452 1642 3A       		.byte	0x3a
 15453 1643 9F       		.byte	0x9f
 15454 1644 00000000 		.4byte	0
 15455 1648 00000000 		.4byte	0
 15456              	.LLST195:
 15457 164c 36010000 		.4byte	.LVL328
 15458 1650 12020000 		.4byte	.LVL356
 15459 1654 0300     		.2byte	0x3
 15460 1656 09       		.byte	0x9
 15461 1657 FF       		.byte	0xff
 15462 1658 9F       		.byte	0x9f
 15463 1659 2C020000 		.4byte	.LVL359
 15464 165d 58020000 		.4byte	.LFE15
 15465 1661 0300     		.2byte	0x3
ARM GAS  C:\Users\legoc\AppData\Local\Temp\ccOlrioX.s 			page 288


 15466 1663 09       		.byte	0x9
 15467 1664 FF       		.byte	0xff
 15468 1665 9F       		.byte	0x9f
 15469 1666 00000000 		.4byte	0
 15470 166a 00000000 		.4byte	0
 15471              	.LLST196:
 15472 166e 36010000 		.4byte	.LVL328
 15473 1672 12020000 		.4byte	.LVL356
 15474 1676 0300     		.2byte	0x3
 15475 1678 08       		.byte	0x8
 15476 1679 C1       		.byte	0xc1
 15477 167a 9F       		.byte	0x9f
 15478 167b 2C020000 		.4byte	.LVL359
 15479 167f 58020000 		.4byte	.LFE15
 15480 1683 0300     		.2byte	0x3
 15481 1685 08       		.byte	0x8
 15482 1686 C1       		.byte	0xc1
 15483 1687 9F       		.byte	0x9f
 15484 1688 00000000 		.4byte	0
 15485 168c 00000000 		.4byte	0
 15486              	.LLST197:
 15487 1690 36010000 		.4byte	.LVL328
 15488 1694 12020000 		.4byte	.LVL356
 15489 1698 0200     		.2byte	0x2
 15490 169a 3A       		.byte	0x3a
 15491 169b 9F       		.byte	0x9f
 15492 169c 2C020000 		.4byte	.LVL359
 15493 16a0 58020000 		.4byte	.LFE15
 15494 16a4 0200     		.2byte	0x2
 15495 16a6 3A       		.byte	0x3a
 15496 16a7 9F       		.byte	0x9f
 15497 16a8 00000000 		.4byte	0
 15498 16ac 00000000 		.4byte	0
 15499              	.LLST198:
 15500 16b0 36010000 		.4byte	.LVL328
 15501 16b4 43010000 		.4byte	.LVL329-1
 15502 16b8 0100     		.2byte	0x1
 15503 16ba 52       		.byte	0x52
 15504 16bb 43010000 		.4byte	.LVL329-1
 15505 16bf 58010000 		.4byte	.LVL332
 15506 16c3 0100     		.2byte	0x1
 15507 16c5 54       		.byte	0x54
 15508 16c6 00000000 		.4byte	0
 15509 16ca 00000000 		.4byte	0
 15510              	.LLST199:
 15511 16ce 6E010000 		.4byte	.LVL333
 15512 16d2 C2010000 		.4byte	.LVL344
 15513 16d6 0300     		.2byte	0x3
 15514 16d8 7D       		.byte	0x7d
 15515 16d9 34       		.sleb128 52
 15516 16da 9F       		.byte	0x9f
 15517 16db C2010000 		.4byte	.LVL344
 15518 16df C6010000 		.4byte	.LVL345
 15519 16e3 0100     		.2byte	0x1
 15520 16e5 51       		.byte	0x51
 15521 16e6 C6010000 		.4byte	.LVL345
 15522 16ea C8010000 		.4byte	.LVL346
ARM GAS  C:\Users\legoc\AppData\Local\Temp\ccOlrioX.s 			page 289


 15523 16ee 0300     		.2byte	0x3
 15524 16f0 71       		.byte	0x71
 15525 16f1 7F       		.sleb128 -1
 15526 16f2 9F       		.byte	0x9f
 15527 16f3 DC010000 		.4byte	.LVL348
 15528 16f7 EA010000 		.4byte	.LVL351
 15529 16fb 0100     		.2byte	0x1
 15530 16fd 51       		.byte	0x51
 15531 16fe EA010000 		.4byte	.LVL351
 15532 1702 EE010000 		.4byte	.LVL352
 15533 1706 0300     		.2byte	0x3
 15534 1708 71       		.byte	0x71
 15535 1709 7F       		.sleb128 -1
 15536 170a 9F       		.byte	0x9f
 15537 170b 2C020000 		.4byte	.LVL359
 15538 170f 58020000 		.4byte	.LFE15
 15539 1713 0300     		.2byte	0x3
 15540 1715 7D       		.byte	0x7d
 15541 1716 34       		.sleb128 52
 15542 1717 9F       		.byte	0x9f
 15543 1718 00000000 		.4byte	0
 15544 171c 00000000 		.4byte	0
 15545              	.LLST200:
 15546 1720 6E010000 		.4byte	.LVL333
 15547 1724 04020000 		.4byte	.LVL355
 15548 1728 0200     		.2byte	0x2
 15549 172a 30       		.byte	0x30
 15550 172b 9F       		.byte	0x9f
 15551 172c 2C020000 		.4byte	.LVL359
 15552 1730 58020000 		.4byte	.LFE15
 15553 1734 0200     		.2byte	0x2
 15554 1736 30       		.byte	0x30
 15555 1737 9F       		.byte	0x9f
 15556 1738 00000000 		.4byte	0
 15557 173c 00000000 		.4byte	0
 15558              	.LLST201:
 15559 1740 6E010000 		.4byte	.LVL333
 15560 1744 04020000 		.4byte	.LVL355
 15561 1748 0400     		.2byte	0x4
 15562 174a 0B       		.byte	0xb
 15563 174b 00F8     		.2byte	0xf800
 15564 174d 9F       		.byte	0x9f
 15565 174e 2C020000 		.4byte	.LVL359
 15566 1752 58020000 		.4byte	.LFE15
 15567 1756 0400     		.2byte	0x4
 15568 1758 0B       		.byte	0xb
 15569 1759 00F8     		.2byte	0xf800
 15570 175b 9F       		.byte	0x9f
 15571 175c 00000000 		.4byte	0
 15572 1760 00000000 		.4byte	0
 15573              	.LLST202:
 15574 1764 6E010000 		.4byte	.LVL333
 15575 1768 04020000 		.4byte	.LVL355
 15576 176c 0200     		.2byte	0x2
 15577 176e 4E       		.byte	0x4e
 15578 176f 9F       		.byte	0x9f
 15579 1770 2C020000 		.4byte	.LVL359
ARM GAS  C:\Users\legoc\AppData\Local\Temp\ccOlrioX.s 			page 290


 15580 1774 58020000 		.4byte	.LFE15
 15581 1778 0200     		.2byte	0x2
 15582 177a 4E       		.byte	0x4e
 15583 177b 9F       		.byte	0x9f
 15584 177c 00000000 		.4byte	0
 15585 1780 00000000 		.4byte	0
 15586              	.LLST203:
 15587 1784 6E010000 		.4byte	.LVL333
 15588 1788 04020000 		.4byte	.LVL355
 15589 178c 0300     		.2byte	0x3
 15590 178e 08       		.byte	0x8
 15591 178f 3C       		.byte	0x3c
 15592 1790 9F       		.byte	0x9f
 15593 1791 2C020000 		.4byte	.LVL359
 15594 1795 58020000 		.4byte	.LFE15
 15595 1799 0300     		.2byte	0x3
 15596 179b 08       		.byte	0x8
 15597 179c 3C       		.byte	0x3c
 15598 179d 9F       		.byte	0x9f
 15599 179e 00000000 		.4byte	0
 15600 17a2 00000000 		.4byte	0
 15601              	.LLST204:
 15602 17a6 6E010000 		.4byte	.LVL333
 15603 17aa 04020000 		.4byte	.LVL355
 15604 17ae 0300     		.2byte	0x3
 15605 17b0 08       		.byte	0x8
 15606 17b1 D1       		.byte	0xd1
 15607 17b2 9F       		.byte	0x9f
 15608 17b3 2C020000 		.4byte	.LVL359
 15609 17b7 58020000 		.4byte	.LFE15
 15610 17bb 0300     		.2byte	0x3
 15611 17bd 08       		.byte	0x8
 15612 17be D1       		.byte	0xd1
 15613 17bf 9F       		.byte	0x9f
 15614 17c0 00000000 		.4byte	0
 15615 17c4 00000000 		.4byte	0
 15616              	.LLST205:
 15617 17c8 6E010000 		.4byte	.LVL333
 15618 17cc 04020000 		.4byte	.LVL355
 15619 17d0 0300     		.2byte	0x3
 15620 17d2 08       		.byte	0x8
 15621 17d3 82       		.byte	0x82
 15622 17d4 9F       		.byte	0x9f
 15623 17d5 2C020000 		.4byte	.LVL359
 15624 17d9 58020000 		.4byte	.LFE15
 15625 17dd 0300     		.2byte	0x3
 15626 17df 08       		.byte	0x8
 15627 17e0 82       		.byte	0x82
 15628 17e1 9F       		.byte	0x9f
 15629 17e2 00000000 		.4byte	0
 15630 17e6 00000000 		.4byte	0
 15631              	.LLST206:
 15632 17ea B6010000 		.4byte	.LVL343
 15633 17ee 04020000 		.4byte	.LVL355
 15634 17f2 0300     		.2byte	0x3
 15635 17f4 08       		.byte	0x8
 15636 17f5 A0       		.byte	0xa0
ARM GAS  C:\Users\legoc\AppData\Local\Temp\ccOlrioX.s 			page 291


 15637 17f6 9F       		.byte	0x9f
 15638 17f7 2C020000 		.4byte	.LVL359
 15639 17fb 58020000 		.4byte	.LFE15
 15640 17ff 0300     		.2byte	0x3
 15641 1801 08       		.byte	0x8
 15642 1802 A0       		.byte	0xa0
 15643 1803 9F       		.byte	0x9f
 15644 1804 00000000 		.4byte	0
 15645 1808 00000000 		.4byte	0
 15646              	.LLST207:
 15647 180c B6010000 		.4byte	.LVL343
 15648 1810 04020000 		.4byte	.LVL355
 15649 1814 0300     		.2byte	0x3
 15650 1816 08       		.byte	0x8
 15651 1817 E0       		.byte	0xe0
 15652 1818 9F       		.byte	0x9f
 15653 1819 2C020000 		.4byte	.LVL359
 15654 181d 58020000 		.4byte	.LFE15
 15655 1821 0300     		.2byte	0x3
 15656 1823 08       		.byte	0x8
 15657 1824 E0       		.byte	0xe0
 15658 1825 9F       		.byte	0x9f
 15659 1826 00000000 		.4byte	0
 15660 182a 00000000 		.4byte	0
 15661              	.LLST208:
 15662 182e B6010000 		.4byte	.LVL343
 15663 1832 C2010000 		.4byte	.LVL344
 15664 1836 0200     		.2byte	0x2
 15665 1838 30       		.byte	0x30
 15666 1839 9F       		.byte	0x9f
 15667 183a C2010000 		.4byte	.LVL344
 15668 183e F2010000 		.4byte	.LVL353
 15669 1842 0100     		.2byte	0x1
 15670 1844 52       		.byte	0x52
 15671 1845 2C020000 		.4byte	.LVL359
 15672 1849 58020000 		.4byte	.LFE15
 15673 184d 0200     		.2byte	0x2
 15674 184f 30       		.byte	0x30
 15675 1850 9F       		.byte	0x9f
 15676 1851 00000000 		.4byte	0
 15677 1855 00000000 		.4byte	0
 15678              	.LLST210:
 15679 1859 DC010000 		.4byte	.LVL348
 15680 185d FC010000 		.4byte	.LVL354
 15681 1861 0200     		.2byte	0x2
 15682 1863 73       		.byte	0x73
 15683 1864 00       		.sleb128 0
 15684 1865 2C020000 		.4byte	.LVL359
 15685 1869 30020000 		.4byte	.LVL360
 15686 186d 0200     		.2byte	0x2
 15687 186f 7D       		.byte	0x7d
 15688 1870 2C       		.sleb128 44
 15689 1871 30020000 		.4byte	.LVL360
 15690 1875 58020000 		.4byte	.LFE15
 15691 1879 0200     		.2byte	0x2
 15692 187b 73       		.byte	0x73
 15693 187c 00       		.sleb128 0
ARM GAS  C:\Users\legoc\AppData\Local\Temp\ccOlrioX.s 			page 292


 15694 187d 00000000 		.4byte	0
 15695 1881 00000000 		.4byte	0
 15696              	.LLST211:
 15697 1885 DC010000 		.4byte	.LVL348
 15698 1889 E2010000 		.4byte	.LVL349
 15699 188d 0200     		.2byte	0x2
 15700 188f 30       		.byte	0x30
 15701 1890 9F       		.byte	0x9f
 15702 1891 E2010000 		.4byte	.LVL349
 15703 1895 EE010000 		.4byte	.LVL352
 15704 1899 0800     		.2byte	0x8
 15705 189b 74       		.byte	0x74
 15706 189c 00       		.sleb128 0
 15707 189d 73       		.byte	0x73
 15708 189e 00       		.sleb128 0
 15709 189f 1C       		.byte	0x1c
 15710 18a0 23       		.byte	0x23
 15711 18a1 01       		.uleb128 0x1
 15712 18a2 9F       		.byte	0x9f
 15713 18a3 2C020000 		.4byte	.LVL359
 15714 18a7 58020000 		.4byte	.LFE15
 15715 18ab 0200     		.2byte	0x2
 15716 18ad 30       		.byte	0x30
 15717 18ae 9F       		.byte	0x9f
 15718 18af 00000000 		.4byte	0
 15719 18b3 00000000 		.4byte	0
 15720              	.LLST212:
 15721 18b7 6E010000 		.4byte	.LVL333
 15722 18bb B6010000 		.4byte	.LVL343
 15723 18bf 0400     		.2byte	0x4
 15724 18c1 0B       		.byte	0xb
 15725 18c2 00F8     		.2byte	0xf800
 15726 18c4 9F       		.byte	0x9f
 15727 18c5 00000000 		.4byte	0
 15728 18c9 00000000 		.4byte	0
 15729              	.LLST213:
 15730 18cd 6E010000 		.4byte	.LVL333
 15731 18d1 B6010000 		.4byte	.LVL343
 15732 18d5 0200     		.2byte	0x2
 15733 18d7 4E       		.byte	0x4e
 15734 18d8 9F       		.byte	0x9f
 15735 18d9 00000000 		.4byte	0
 15736 18dd 00000000 		.4byte	0
 15737              	.LLST214:
 15738 18e1 6E010000 		.4byte	.LVL333
 15739 18e5 B6010000 		.4byte	.LVL343
 15740 18e9 0300     		.2byte	0x3
 15741 18eb 08       		.byte	0x8
 15742 18ec 3C       		.byte	0x3c
 15743 18ed 9F       		.byte	0x9f
 15744 18ee 00000000 		.4byte	0
 15745 18f2 00000000 		.4byte	0
 15746              	.LLST215:
 15747 18f6 6E010000 		.4byte	.LVL333
 15748 18fa B6010000 		.4byte	.LVL343
 15749 18fe 0300     		.2byte	0x3
 15750 1900 08       		.byte	0x8
ARM GAS  C:\Users\legoc\AppData\Local\Temp\ccOlrioX.s 			page 293


 15751 1901 D1       		.byte	0xd1
 15752 1902 9F       		.byte	0x9f
 15753 1903 00000000 		.4byte	0
 15754 1907 00000000 		.4byte	0
 15755              	.LLST216:
 15756 190b 6E010000 		.4byte	.LVL333
 15757 190f B6010000 		.4byte	.LVL343
 15758 1913 0300     		.2byte	0x3
 15759 1915 08       		.byte	0x8
 15760 1916 82       		.byte	0x82
 15761 1917 9F       		.byte	0x9f
 15762 1918 00000000 		.4byte	0
 15763 191c 00000000 		.4byte	0
 15764              	.LLST221:
 15765 1920 6E010000 		.4byte	.LVL333
 15766 1924 B6010000 		.4byte	.LVL343
 15767 1928 0200     		.2byte	0x2
 15768 192a 31       		.byte	0x31
 15769 192b 9F       		.byte	0x9f
 15770 192c 00000000 		.4byte	0
 15771 1930 00000000 		.4byte	0
 15772              	.LLST222:
 15773 1934 6E010000 		.4byte	.LVL333
 15774 1938 12020000 		.4byte	.LVL356
 15775 193c 0400     		.2byte	0x4
 15776 193e 0B       		.byte	0xb
 15777 193f 00F8     		.2byte	0xf800
 15778 1941 9F       		.byte	0x9f
 15779 1942 2C020000 		.4byte	.LVL359
 15780 1946 58020000 		.4byte	.LFE15
 15781 194a 0400     		.2byte	0x4
 15782 194c 0B       		.byte	0xb
 15783 194d 00F8     		.2byte	0xf800
 15784 194f 9F       		.byte	0x9f
 15785 1950 00000000 		.4byte	0
 15786 1954 00000000 		.4byte	0
 15787              	.LLST223:
 15788 1958 6E010000 		.4byte	.LVL333
 15789 195c 12020000 		.4byte	.LVL356
 15790 1960 0300     		.2byte	0x3
 15791 1962 08       		.byte	0x8
 15792 1963 3C       		.byte	0x3c
 15793 1964 9F       		.byte	0x9f
 15794 1965 2C020000 		.4byte	.LVL359
 15795 1969 58020000 		.4byte	.LFE15
 15796 196d 0300     		.2byte	0x3
 15797 196f 08       		.byte	0x8
 15798 1970 3C       		.byte	0x3c
 15799 1971 9F       		.byte	0x9f
 15800 1972 00000000 		.4byte	0
 15801 1976 00000000 		.4byte	0
 15802              	.LLST224:
 15803 197a 6E010000 		.4byte	.LVL333
 15804 197e 12020000 		.4byte	.LVL356
 15805 1982 0200     		.2byte	0x2
 15806 1984 4E       		.byte	0x4e
 15807 1985 9F       		.byte	0x9f
ARM GAS  C:\Users\legoc\AppData\Local\Temp\ccOlrioX.s 			page 294


 15808 1986 2C020000 		.4byte	.LVL359
 15809 198a 58020000 		.4byte	.LFE15
 15810 198e 0200     		.2byte	0x2
 15811 1990 4E       		.byte	0x4e
 15812 1991 9F       		.byte	0x9f
 15813 1992 00000000 		.4byte	0
 15814 1996 00000000 		.4byte	0
 15815              	.LLST225:
 15816 199a 6E010000 		.4byte	.LVL333
 15817 199e 82010000 		.4byte	.LVL336
 15818 19a2 0300     		.2byte	0x3
 15819 19a4 08       		.byte	0x8
 15820 19a5 82       		.byte	0x82
 15821 19a6 9F       		.byte	0x9f
 15822 19a7 82010000 		.4byte	.LVL336
 15823 19ab 84010000 		.4byte	.LVL337
 15824 19af 0300     		.2byte	0x3
 15825 19b1 08       		.byte	0x8
 15826 19b2 3C       		.byte	0x3c
 15827 19b3 9F       		.byte	0x9f
 15828 19b4 00000000 		.4byte	0
 15829 19b8 00000000 		.4byte	0
 15830              	.LLST226:
 15831 19bc 6E010000 		.4byte	.LVL333
 15832 19c0 84010000 		.4byte	.LVL337
 15833 19c4 0200     		.2byte	0x2
 15834 19c6 31       		.byte	0x31
 15835 19c7 9F       		.byte	0x9f
 15836 19c8 84010000 		.4byte	.LVL337
 15837 19cc 86010000 		.4byte	.LVL338
 15838 19d0 0200     		.2byte	0x2
 15839 19d2 4E       		.byte	0x4e
 15840 19d3 9F       		.byte	0x9f
 15841 19d4 00000000 		.4byte	0
 15842 19d8 00000000 		.4byte	0
 15843              	.LLST227:
 15844 19dc 76010000 		.4byte	.LVL334
 15845 19e0 12020000 		.4byte	.LVL356
 15846 19e4 0300     		.2byte	0x3
 15847 19e6 09       		.byte	0x9
 15848 19e7 F8       		.byte	0xf8
 15849 19e8 9F       		.byte	0x9f
 15850 19e9 2C020000 		.4byte	.LVL359
 15851 19ed 58020000 		.4byte	.LFE15
 15852 19f1 0300     		.2byte	0x3
 15853 19f3 09       		.byte	0x9
 15854 19f4 F8       		.byte	0xf8
 15855 19f5 9F       		.byte	0x9f
 15856 19f6 00000000 		.4byte	0
 15857 19fa 00000000 		.4byte	0
 15858              	.LLST228:
 15859 19fe 76010000 		.4byte	.LVL334
 15860 1a02 12020000 		.4byte	.LVL356
 15861 1a06 0200     		.2byte	0x2
 15862 1a08 30       		.byte	0x30
 15863 1a09 9F       		.byte	0x9f
 15864 1a0a 2C020000 		.4byte	.LVL359
ARM GAS  C:\Users\legoc\AppData\Local\Temp\ccOlrioX.s 			page 295


 15865 1a0e 58020000 		.4byte	.LFE15
 15866 1a12 0200     		.2byte	0x2
 15867 1a14 30       		.byte	0x30
 15868 1a15 9F       		.byte	0x9f
 15869 1a16 00000000 		.4byte	0
 15870 1a1a 00000000 		.4byte	0
 15871              	.LLST209:
 15872 1a1e CC010000 		.4byte	.LVL347
 15873 1a22 F2010000 		.4byte	.LVL353
 15874 1a26 0300     		.2byte	0x3
 15875 1a28 72       		.byte	0x72
 15876 1a29 7F       		.sleb128 -1
 15877 1a2a 9F       		.byte	0x9f
 15878 1a2b 2C020000 		.4byte	.LVL359
 15879 1a2f 58020000 		.4byte	.LFE15
 15880 1a33 0300     		.2byte	0x3
 15881 1a35 09       		.byte	0x9
 15882 1a36 FF       		.byte	0xff
 15883 1a37 9F       		.byte	0x9f
 15884 1a38 00000000 		.4byte	0
 15885 1a3c 00000000 		.4byte	0
 15886              	.LLST229:
 15887 1a40 00000000 		.4byte	.LVL361
 15888 1a44 52000000 		.4byte	.LVL371
 15889 1a48 0200     		.2byte	0x2
 15890 1a4a 4F       		.byte	0x4f
 15891 1a4b 9F       		.byte	0x9f
 15892 1a4c 00000000 		.4byte	0
 15893 1a50 00000000 		.4byte	0
 15894              	.LLST230:
 15895 1a54 00000000 		.4byte	.LVL361
 15896 1a58 52000000 		.4byte	.LVL371
 15897 1a5c 0300     		.2byte	0x3
 15898 1a5e 08       		.byte	0x8
 15899 1a5f F0       		.byte	0xf0
 15900 1a60 9F       		.byte	0x9f
 15901 1a61 00000000 		.4byte	0
 15902 1a65 00000000 		.4byte	0
 15903              	.LLST231:
 15904 1a69 00000000 		.4byte	.LVL361
 15905 1a6d 52000000 		.4byte	.LVL371
 15906 1a71 0300     		.2byte	0x3
 15907 1a73 08       		.byte	0x8
 15908 1a74 A0       		.byte	0xa0
 15909 1a75 9F       		.byte	0x9f
 15910 1a76 00000000 		.4byte	0
 15911 1a7a 00000000 		.4byte	0
 15912              	.LLST232:
 15913 1a7e 00000000 		.4byte	.LVL361
 15914 1a82 52000000 		.4byte	.LVL371
 15915 1a86 0200     		.2byte	0x2
 15916 1a88 30       		.byte	0x30
 15917 1a89 9F       		.byte	0x9f
 15918 1a8a 00000000 		.4byte	0
 15919 1a8e 00000000 		.4byte	0
 15920              	.LLST242:
 15921 1a92 00000000 		.4byte	.LVL361
ARM GAS  C:\Users\legoc\AppData\Local\Temp\ccOlrioX.s 			page 296


 15922 1a96 1E000000 		.4byte	.LVL365
 15923 1a9a 0300     		.2byte	0x3
 15924 1a9c 08       		.byte	0x8
 15925 1a9d A0       		.byte	0xa0
 15926 1a9e 9F       		.byte	0x9f
 15927 1a9f 00000000 		.4byte	0
 15928 1aa3 00000000 		.4byte	0
 15929              	.LLST243:
 15930 1aa7 00000000 		.4byte	.LVL361
 15931 1aab 1E000000 		.4byte	.LVL365
 15932 1aaf 0200     		.2byte	0x2
 15933 1ab1 30       		.byte	0x30
 15934 1ab2 9F       		.byte	0x9f
 15935 1ab3 1E000000 		.4byte	.LVL365
 15936 1ab7 20000000 		.4byte	.LVL366
 15937 1abb 0300     		.2byte	0x3
 15938 1abd 08       		.byte	0x8
 15939 1abe F0       		.byte	0xf0
 15940 1abf 9F       		.byte	0x9f
 15941 1ac0 00000000 		.4byte	0
 15942 1ac4 00000000 		.4byte	0
 15943              	.LLST244:
 15944 1ac8 10000000 		.4byte	.LVL362
 15945 1acc 52000000 		.4byte	.LVL371
 15946 1ad0 0200     		.2byte	0x2
 15947 1ad2 30       		.byte	0x30
 15948 1ad3 9F       		.byte	0x9f
 15949 1ad4 00000000 		.4byte	0
 15950 1ad8 00000000 		.4byte	0
 15951              	.LLST245:
 15952 1adc 10000000 		.4byte	.LVL362
 15953 1ae0 52000000 		.4byte	.LVL371
 15954 1ae4 0200     		.2byte	0x2
 15955 1ae6 4F       		.byte	0x4f
 15956 1ae7 9F       		.byte	0x9f
 15957 1ae8 00000000 		.4byte	0
 15958 1aec 00000000 		.4byte	0
 15959              	.LLST246:
 15960 1af0 52000000 		.4byte	.LVL371
 15961 1af4 A0000000 		.4byte	.LVL381
 15962 1af8 0400     		.2byte	0x4
 15963 1afa 0B       		.byte	0xb
 15964 1afb 00F8     		.2byte	0xf800
 15965 1afd 9F       		.byte	0x9f
 15966 1afe 00000000 		.4byte	0
 15967 1b02 00000000 		.4byte	0
 15968              	.LLST247:
 15969 1b06 52000000 		.4byte	.LVL371
 15970 1b0a A0000000 		.4byte	.LVL381
 15971 1b0e 0300     		.2byte	0x3
 15972 1b10 08       		.byte	0x8
 15973 1b11 F0       		.byte	0xf0
 15974 1b12 9F       		.byte	0x9f
 15975 1b13 00000000 		.4byte	0
 15976 1b17 00000000 		.4byte	0
 15977              	.LLST248:
 15978 1b1b 52000000 		.4byte	.LVL371
ARM GAS  C:\Users\legoc\AppData\Local\Temp\ccOlrioX.s 			page 297


 15979 1b1f A0000000 		.4byte	.LVL381
 15980 1b23 0300     		.2byte	0x3
 15981 1b25 08       		.byte	0x8
 15982 1b26 A0       		.byte	0xa0
 15983 1b27 9F       		.byte	0x9f
 15984 1b28 00000000 		.4byte	0
 15985 1b2c 00000000 		.4byte	0
 15986              	.LLST249:
 15987 1b30 52000000 		.4byte	.LVL371
 15988 1b34 A0000000 		.4byte	.LVL381
 15989 1b38 0200     		.2byte	0x2
 15990 1b3a 30       		.byte	0x30
 15991 1b3b 9F       		.byte	0x9f
 15992 1b3c 00000000 		.4byte	0
 15993 1b40 00000000 		.4byte	0
 15994              	.LLST259:
 15995 1b44 52000000 		.4byte	.LVL371
 15996 1b48 6A000000 		.4byte	.LVL374
 15997 1b4c 0200     		.2byte	0x2
 15998 1b4e 30       		.byte	0x30
 15999 1b4f 9F       		.byte	0x9f
 16000 1b50 6A000000 		.4byte	.LVL374
 16001 1b54 6C000000 		.4byte	.LVL375
 16002 1b58 0300     		.2byte	0x3
 16003 1b5a 08       		.byte	0x8
 16004 1b5b A0       		.byte	0xa0
 16005 1b5c 9F       		.byte	0x9f
 16006 1b5d 00000000 		.4byte	0
 16007 1b61 00000000 		.4byte	0
 16008              	.LLST260:
 16009 1b65 52000000 		.4byte	.LVL371
 16010 1b69 6C000000 		.4byte	.LVL375
 16011 1b6d 0200     		.2byte	0x2
 16012 1b6f 30       		.byte	0x30
 16013 1b70 9F       		.byte	0x9f
 16014 1b71 6C000000 		.4byte	.LVL375
 16015 1b75 6E000000 		.4byte	.LVL376
 16016 1b79 0300     		.2byte	0x3
 16017 1b7b 08       		.byte	0x8
 16018 1b7c F0       		.byte	0xf0
 16019 1b7d 9F       		.byte	0x9f
 16020 1b7e 00000000 		.4byte	0
 16021 1b82 00000000 		.4byte	0
 16022              	.LLST261:
 16023 1b86 5E000000 		.4byte	.LVL372
 16024 1b8a A0000000 		.4byte	.LVL381
 16025 1b8e 0300     		.2byte	0x3
 16026 1b90 09       		.byte	0x9
 16027 1b91 F8       		.byte	0xf8
 16028 1b92 9F       		.byte	0x9f
 16029 1b93 00000000 		.4byte	0
 16030 1b97 00000000 		.4byte	0
 16031              	.LLST262:
 16032 1b9b 5E000000 		.4byte	.LVL372
 16033 1b9f A0000000 		.4byte	.LVL381
 16034 1ba3 0200     		.2byte	0x2
 16035 1ba5 30       		.byte	0x30
ARM GAS  C:\Users\legoc\AppData\Local\Temp\ccOlrioX.s 			page 298


 16036 1ba6 9F       		.byte	0x9f
 16037 1ba7 00000000 		.4byte	0
 16038 1bab 00000000 		.4byte	0
 16039              	.LLST263:
 16040 1baf A0000000 		.4byte	.LVL381
 16041 1bb3 EE000000 		.4byte	.LVL391
 16042 1bb7 0200     		.2byte	0x2
 16043 1bb9 30       		.byte	0x30
 16044 1bba 9F       		.byte	0x9f
 16045 1bbb 00000000 		.4byte	0
 16046 1bbf 00000000 		.4byte	0
 16047              	.LLST264:
 16048 1bc3 A0000000 		.4byte	.LVL381
 16049 1bc7 EE000000 		.4byte	.LVL391
 16050 1bcb 0300     		.2byte	0x3
 16051 1bcd 08       		.byte	0x8
 16052 1bce F0       		.byte	0xf0
 16053 1bcf 9F       		.byte	0x9f
 16054 1bd0 00000000 		.4byte	0
 16055 1bd4 00000000 		.4byte	0
 16056              	.LLST265:
 16057 1bd8 A0000000 		.4byte	.LVL381
 16058 1bdc EE000000 		.4byte	.LVL391
 16059 1be0 0200     		.2byte	0x2
 16060 1be2 32       		.byte	0x32
 16061 1be3 9F       		.byte	0x9f
 16062 1be4 00000000 		.4byte	0
 16063 1be8 00000000 		.4byte	0
 16064              	.LLST267:
 16065 1bec A0000000 		.4byte	.LVL381
 16066 1bf0 EE000000 		.4byte	.LVL391
 16067 1bf4 0300     		.2byte	0x3
 16068 1bf6 08       		.byte	0x8
 16069 1bf7 9F       		.byte	0x9f
 16070 1bf8 9F       		.byte	0x9f
 16071 1bf9 00000000 		.4byte	0
 16072 1bfd 00000000 		.4byte	0
 16073              	.LLST276:
 16074 1c01 A0000000 		.4byte	.LVL381
 16075 1c05 B8000000 		.4byte	.LVL384
 16076 1c09 0300     		.2byte	0x3
 16077 1c0b 08       		.byte	0x8
 16078 1c0c 9F       		.byte	0x9f
 16079 1c0d 9F       		.byte	0x9f
 16080 1c0e B8000000 		.4byte	.LVL384
 16081 1c12 BA000000 		.4byte	.LVL385
 16082 1c16 0200     		.2byte	0x2
 16083 1c18 32       		.byte	0x32
 16084 1c19 9F       		.byte	0x9f
 16085 1c1a 00000000 		.4byte	0
 16086 1c1e 00000000 		.4byte	0
 16087              	.LLST277:
 16088 1c22 A0000000 		.4byte	.LVL381
 16089 1c26 BA000000 		.4byte	.LVL385
 16090 1c2a 0200     		.2byte	0x2
 16091 1c2c 30       		.byte	0x30
 16092 1c2d 9F       		.byte	0x9f
ARM GAS  C:\Users\legoc\AppData\Local\Temp\ccOlrioX.s 			page 299


 16093 1c2e BA000000 		.4byte	.LVL385
 16094 1c32 BC000000 		.4byte	.LVL386
 16095 1c36 0300     		.2byte	0x3
 16096 1c38 08       		.byte	0x8
 16097 1c39 F0       		.byte	0xf0
 16098 1c3a 9F       		.byte	0x9f
 16099 1c3b 00000000 		.4byte	0
 16100 1c3f 00000000 		.4byte	0
 16101              	.LLST278:
 16102 1c43 AC000000 		.4byte	.LVL382
 16103 1c47 EE000000 		.4byte	.LVL391
 16104 1c4b 0200     		.2byte	0x2
 16105 1c4d 30       		.byte	0x30
 16106 1c4e 9F       		.byte	0x9f
 16107 1c4f 00000000 		.4byte	0
 16108 1c53 00000000 		.4byte	0
 16109              	.LLST280:
 16110 1c57 EE000000 		.4byte	.LVL391
 16111 1c5b 40010000 		.4byte	.LVL401
 16112 1c5f 0200     		.2byte	0x2
 16113 1c61 30       		.byte	0x30
 16114 1c62 9F       		.byte	0x9f
 16115 1c63 00000000 		.4byte	0
 16116 1c67 00000000 		.4byte	0
 16117              	.LLST281:
 16118 1c6b EE000000 		.4byte	.LVL391
 16119 1c6f 40010000 		.4byte	.LVL401
 16120 1c73 0200     		.2byte	0x2
 16121 1c75 32       		.byte	0x32
 16122 1c76 9F       		.byte	0x9f
 16123 1c77 00000000 		.4byte	0
 16124 1c7b 00000000 		.4byte	0
 16125              	.LLST282:
 16126 1c7f EE000000 		.4byte	.LVL391
 16127 1c83 40010000 		.4byte	.LVL401
 16128 1c87 0400     		.2byte	0x4
 16129 1c89 0A       		.byte	0xa
 16130 1c8a 4001     		.2byte	0x140
 16131 1c8c 9F       		.byte	0x9f
 16132 1c8d 00000000 		.4byte	0
 16133 1c91 00000000 		.4byte	0
 16134              	.LLST283:
 16135 1c95 EE000000 		.4byte	.LVL391
 16136 1c99 40010000 		.4byte	.LVL401
 16137 1c9d 0300     		.2byte	0x3
 16138 1c9f 08       		.byte	0x8
 16139 1ca0 77       		.byte	0x77
 16140 1ca1 9F       		.byte	0x9f
 16141 1ca2 00000000 		.4byte	0
 16142 1ca6 00000000 		.4byte	0
 16143              	.LLST293:
 16144 1caa EE000000 		.4byte	.LVL391
 16145 1cae 08010000 		.4byte	.LVL394
 16146 1cb2 0200     		.2byte	0x2
 16147 1cb4 30       		.byte	0x30
 16148 1cb5 9F       		.byte	0x9f
 16149 1cb6 08010000 		.4byte	.LVL394
ARM GAS  C:\Users\legoc\AppData\Local\Temp\ccOlrioX.s 			page 300


 16150 1cba 0C010000 		.4byte	.LVL395
 16151 1cbe 0400     		.2byte	0x4
 16152 1cc0 0A       		.byte	0xa
 16153 1cc1 4001     		.2byte	0x140
 16154 1cc3 9F       		.byte	0x9f
 16155 1cc4 00000000 		.4byte	0
 16156 1cc8 00000000 		.4byte	0
 16157              	.LLST294:
 16158 1ccc EE000000 		.4byte	.LVL391
 16159 1cd0 0C010000 		.4byte	.LVL395
 16160 1cd4 0300     		.2byte	0x3
 16161 1cd6 08       		.byte	0x8
 16162 1cd7 77       		.byte	0x77
 16163 1cd8 9F       		.byte	0x9f
 16164 1cd9 0C010000 		.4byte	.LVL395
 16165 1cdd 0E010000 		.4byte	.LVL396
 16166 1ce1 0200     		.2byte	0x2
 16167 1ce3 32       		.byte	0x32
 16168 1ce4 9F       		.byte	0x9f
 16169 1ce5 00000000 		.4byte	0
 16170 1ce9 00000000 		.4byte	0
 16171              	.LLST295:
 16172 1ced FC000000 		.4byte	.LVL392
 16173 1cf1 40010000 		.4byte	.LVL401
 16174 1cf5 0200     		.2byte	0x2
 16175 1cf7 30       		.byte	0x30
 16176 1cf8 9F       		.byte	0x9f
 16177 1cf9 00000000 		.4byte	0
 16178 1cfd 00000000 		.4byte	0
 16179              	.LLST297:
 16180 1d01 40010000 		.4byte	.LVL401
 16181 1d05 8E010000 		.4byte	.LVL411
 16182 1d09 0200     		.2byte	0x2
 16183 1d0b 30       		.byte	0x30
 16184 1d0c 9F       		.byte	0x9f
 16185 1d0d 00000000 		.4byte	0
 16186 1d11 00000000 		.4byte	0
 16187              	.LLST298:
 16188 1d15 40010000 		.4byte	.LVL401
 16189 1d19 8E010000 		.4byte	.LVL411
 16190 1d1d 0200     		.2byte	0x2
 16191 1d1f 46       		.byte	0x46
 16192 1d20 9F       		.byte	0x9f
 16193 1d21 00000000 		.4byte	0
 16194 1d25 00000000 		.4byte	0
 16195              	.LLST299:
 16196 1d29 40010000 		.4byte	.LVL401
 16197 1d2d 8E010000 		.4byte	.LVL411
 16198 1d31 0300     		.2byte	0x3
 16199 1d33 08       		.byte	0x8
 16200 1d34 FC       		.byte	0xfc
 16201 1d35 9F       		.byte	0x9f
 16202 1d36 00000000 		.4byte	0
 16203 1d3a 00000000 		.4byte	0
 16204              	.LLST300:
 16205 1d3e 40010000 		.4byte	.LVL401
 16206 1d42 8E010000 		.4byte	.LVL411
ARM GAS  C:\Users\legoc\AppData\Local\Temp\ccOlrioX.s 			page 301


 16207 1d46 0300     		.2byte	0x3
 16208 1d48 08       		.byte	0x8
 16209 1d49 6D       		.byte	0x6d
 16210 1d4a 9F       		.byte	0x9f
 16211 1d4b 00000000 		.4byte	0
 16212 1d4f 00000000 		.4byte	0
 16213              	.LLST301:
 16214 1d53 40010000 		.4byte	.LVL401
 16215 1d57 8E010000 		.4byte	.LVL411
 16216 1d5b 0300     		.2byte	0x3
 16217 1d5d 08       		.byte	0x8
 16218 1d5e 21       		.byte	0x21
 16219 1d5f 9F       		.byte	0x9f
 16220 1d60 00000000 		.4byte	0
 16221 1d64 00000000 		.4byte	0
 16222              	.LLST305:
 16223 1d68 40010000 		.4byte	.LVL401
 16224 1d6c 8E010000 		.4byte	.LVL411
 16225 1d70 0300     		.2byte	0x3
 16226 1d72 08       		.byte	0x8
 16227 1d73 23       		.byte	0x23
 16228 1d74 9F       		.byte	0x9f
 16229 1d75 00000000 		.4byte	0
 16230 1d79 00000000 		.4byte	0
 16231              	.LLST310:
 16232 1d7d 40010000 		.4byte	.LVL401
 16233 1d81 58010000 		.4byte	.LVL404
 16234 1d85 0300     		.2byte	0x3
 16235 1d87 08       		.byte	0x8
 16236 1d88 23       		.byte	0x23
 16237 1d89 9F       		.byte	0x9f
 16238 1d8a 58010000 		.4byte	.LVL404
 16239 1d8e 5A010000 		.4byte	.LVL405
 16240 1d92 0300     		.2byte	0x3
 16241 1d94 08       		.byte	0x8
 16242 1d95 FC       		.byte	0xfc
 16243 1d96 9F       		.byte	0x9f
 16244 1d97 00000000 		.4byte	0
 16245 1d9b 00000000 		.4byte	0
 16246              	.LLST311:
 16247 1d9f 40010000 		.4byte	.LVL401
 16248 1da3 5A010000 		.4byte	.LVL405
 16249 1da7 0300     		.2byte	0x3
 16250 1da9 08       		.byte	0x8
 16251 1daa 6D       		.byte	0x6d
 16252 1dab 9F       		.byte	0x9f
 16253 1dac 5A010000 		.4byte	.LVL405
 16254 1db0 5C010000 		.4byte	.LVL406
 16255 1db4 0200     		.2byte	0x2
 16256 1db6 46       		.byte	0x46
 16257 1db7 9F       		.byte	0x9f
 16258 1db8 00000000 		.4byte	0
 16259 1dbc 00000000 		.4byte	0
 16260              	.LLST312:
 16261 1dc0 4C010000 		.4byte	.LVL402
 16262 1dc4 8E010000 		.4byte	.LVL411
 16263 1dc8 0200     		.2byte	0x2
ARM GAS  C:\Users\legoc\AppData\Local\Temp\ccOlrioX.s 			page 302


 16264 1dca 30       		.byte	0x30
 16265 1dcb 9F       		.byte	0x9f
 16266 1dcc 00000000 		.4byte	0
 16267 1dd0 00000000 		.4byte	0
 16268              	.LLST314:
 16269 1dd4 8E010000 		.4byte	.LVL411
 16270 1dd8 DE010000 		.4byte	.LVL422
 16271 1ddc 0600     		.2byte	0x6
 16272 1dde 03       		.byte	0x3
 16273 1ddf 38000000 		.4byte	.LC7
 16274 1de3 9F       		.byte	0x9f
 16275 1de4 DE010000 		.4byte	.LVL422
 16276 1de8 E2010000 		.4byte	.LVL423
 16277 1dec 0100     		.2byte	0x1
 16278 1dee 51       		.byte	0x51
 16279 1def E2010000 		.4byte	.LVL423
 16280 1df3 E4010000 		.4byte	.LVL424
 16281 1df7 0300     		.2byte	0x3
 16282 1df9 71       		.byte	0x71
 16283 1dfa 7F       		.sleb128 -1
 16284 1dfb 9F       		.byte	0x9f
 16285 1dfc FA010000 		.4byte	.LVL426
 16286 1e00 08020000 		.4byte	.LVL428
 16287 1e04 0100     		.2byte	0x1
 16288 1e06 51       		.byte	0x51
 16289 1e07 08020000 		.4byte	.LVL428
 16290 1e0b 0C020000 		.4byte	.LVL429
 16291 1e0f 0300     		.2byte	0x3
 16292 1e11 71       		.byte	0x71
 16293 1e12 7F       		.sleb128 -1
 16294 1e13 9F       		.byte	0x9f
 16295 1e14 00000000 		.4byte	0
 16296 1e18 00000000 		.4byte	0
 16297              	.LLST315:
 16298 1e1c 8E010000 		.4byte	.LVL411
 16299 1e20 26020000 		.4byte	.LVL432
 16300 1e24 0200     		.2byte	0x2
 16301 1e26 30       		.byte	0x30
 16302 1e27 9F       		.byte	0x9f
 16303 1e28 00000000 		.4byte	0
 16304 1e2c 00000000 		.4byte	0
 16305              	.LLST316:
 16306 1e30 8E010000 		.4byte	.LVL411
 16307 1e34 26020000 		.4byte	.LVL432
 16308 1e38 0300     		.2byte	0x3
 16309 1e3a 09       		.byte	0x9
 16310 1e3b FF       		.byte	0xff
 16311 1e3c 9F       		.byte	0x9f
 16312 1e3d 00000000 		.4byte	0
 16313 1e41 00000000 		.4byte	0
 16314              	.LLST317:
 16315 1e45 8E010000 		.4byte	.LVL411
 16316 1e49 26020000 		.4byte	.LVL432
 16317 1e4d 0200     		.2byte	0x2
 16318 1e4f 42       		.byte	0x42
 16319 1e50 9F       		.byte	0x9f
 16320 1e51 00000000 		.4byte	0
ARM GAS  C:\Users\legoc\AppData\Local\Temp\ccOlrioX.s 			page 303


 16321 1e55 00000000 		.4byte	0
 16322              	.LLST318:
 16323 1e59 8E010000 		.4byte	.LVL411
 16324 1e5d 26020000 		.4byte	.LVL432
 16325 1e61 0300     		.2byte	0x3
 16326 1e63 08       		.byte	0x8
 16327 1e64 F8       		.byte	0xf8
 16328 1e65 9F       		.byte	0x9f
 16329 1e66 00000000 		.4byte	0
 16330 1e6a 00000000 		.4byte	0
 16331              	.LLST319:
 16332 1e6e 8E010000 		.4byte	.LVL411
 16333 1e72 26020000 		.4byte	.LVL432
 16334 1e76 0300     		.2byte	0x3
 16335 1e78 08       		.byte	0x8
 16336 1e79 6F       		.byte	0x6f
 16337 1e7a 9F       		.byte	0x9f
 16338 1e7b 00000000 		.4byte	0
 16339 1e7f 00000000 		.4byte	0
 16340              	.LLST320:
 16341 1e83 8E010000 		.4byte	.LVL411
 16342 1e87 26020000 		.4byte	.LVL432
 16343 1e8b 0300     		.2byte	0x3
 16344 1e8d 08       		.byte	0x8
 16345 1e8e 23       		.byte	0x23
 16346 1e8f 9F       		.byte	0x9f
 16347 1e90 00000000 		.4byte	0
 16348 1e94 00000000 		.4byte	0
 16349              	.LLST321:
 16350 1e98 DA010000 		.4byte	.LVL421
 16351 1e9c 26020000 		.4byte	.LVL432
 16352 1ea0 0300     		.2byte	0x3
 16353 1ea2 08       		.byte	0x8
 16354 1ea3 9F       		.byte	0x9f
 16355 1ea4 9F       		.byte	0x9f
 16356 1ea5 00000000 		.4byte	0
 16357 1ea9 00000000 		.4byte	0
 16358              	.LLST322:
 16359 1ead DA010000 		.4byte	.LVL421
 16360 1eb1 26020000 		.4byte	.LVL432
 16361 1eb5 0300     		.2byte	0x3
 16362 1eb7 08       		.byte	0x8
 16363 1eb8 78       		.byte	0x78
 16364 1eb9 9F       		.byte	0x9f
 16365 1eba 00000000 		.4byte	0
 16366 1ebe 00000000 		.4byte	0
 16367              	.LLST323:
 16368 1ec2 DA010000 		.4byte	.LVL421
 16369 1ec6 DE010000 		.4byte	.LVL422
 16370 1eca 0200     		.2byte	0x2
 16371 1ecc 30       		.byte	0x30
 16372 1ecd 9F       		.byte	0x9f
 16373 1ece DE010000 		.4byte	.LVL422
 16374 1ed2 10020000 		.4byte	.LVL430
 16375 1ed6 0100     		.2byte	0x1
 16376 1ed8 52       		.byte	0x52
 16377 1ed9 00000000 		.4byte	0
ARM GAS  C:\Users\legoc\AppData\Local\Temp\ccOlrioX.s 			page 304


 16378 1edd 00000000 		.4byte	0
 16379              	.LLST325:
 16380 1ee1 FA010000 		.4byte	.LVL426
 16381 1ee5 21020000 		.4byte	.LVL431-1
 16382 1ee9 0200     		.2byte	0x2
 16383 1eeb 73       		.byte	0x73
 16384 1eec 00       		.sleb128 0
 16385 1eed 21020000 		.4byte	.LVL431-1
 16386 1ef1 26020000 		.4byte	.LVL432
 16387 1ef5 0200     		.2byte	0x2
 16388 1ef7 7D       		.byte	0x7d
 16389 1ef8 00       		.sleb128 0
 16390 1ef9 00000000 		.4byte	0
 16391 1efd 00000000 		.4byte	0
 16392              	.LLST326:
 16393 1f01 FA010000 		.4byte	.LVL426
 16394 1f05 00020000 		.4byte	.LVL427
 16395 1f09 0200     		.2byte	0x2
 16396 1f0b 30       		.byte	0x30
 16397 1f0c 9F       		.byte	0x9f
 16398 1f0d 00000000 		.4byte	0
 16399 1f11 00000000 		.4byte	0
 16400              	.LLST327:
 16401 1f15 0C020000 		.4byte	.LVL429
 16402 1f19 10020000 		.4byte	.LVL430
 16403 1f1d 0B00     		.2byte	0xb
 16404 1f1f 72       		.byte	0x72
 16405 1f20 00       		.sleb128 0
 16406 1f21 37       		.byte	0x37
 16407 1f22 1E       		.byte	0x1e
 16408 1f23 09       		.byte	0x9
 16409 1f24 FE       		.byte	0xfe
 16410 1f25 1B       		.byte	0x1b
 16411 1f26 23       		.byte	0x23
 16412 1f27 A201     		.uleb128 0xa2
 16413 1f29 9F       		.byte	0x9f
 16414 1f2a 00000000 		.4byte	0
 16415 1f2e 00000000 		.4byte	0
 16416              	.LLST328:
 16417 1f32 8E010000 		.4byte	.LVL411
 16418 1f36 DA010000 		.4byte	.LVL421
 16419 1f3a 0300     		.2byte	0x3
 16420 1f3c 09       		.byte	0x9
 16421 1f3d FF       		.byte	0xff
 16422 1f3e 9F       		.byte	0x9f
 16423 1f3f 00000000 		.4byte	0
 16424 1f43 00000000 		.4byte	0
 16425              	.LLST329:
 16426 1f47 8E010000 		.4byte	.LVL411
 16427 1f4b DA010000 		.4byte	.LVL421
 16428 1f4f 0200     		.2byte	0x2
 16429 1f51 42       		.byte	0x42
 16430 1f52 9F       		.byte	0x9f
 16431 1f53 00000000 		.4byte	0
 16432 1f57 00000000 		.4byte	0
 16433              	.LLST330:
 16434 1f5b 8E010000 		.4byte	.LVL411
ARM GAS  C:\Users\legoc\AppData\Local\Temp\ccOlrioX.s 			page 305


 16435 1f5f DA010000 		.4byte	.LVL421
 16436 1f63 0300     		.2byte	0x3
 16437 1f65 08       		.byte	0x8
 16438 1f66 F8       		.byte	0xf8
 16439 1f67 9F       		.byte	0x9f
 16440 1f68 00000000 		.4byte	0
 16441 1f6c 00000000 		.4byte	0
 16442              	.LLST331:
 16443 1f70 8E010000 		.4byte	.LVL411
 16444 1f74 DA010000 		.4byte	.LVL421
 16445 1f78 0300     		.2byte	0x3
 16446 1f7a 08       		.byte	0x8
 16447 1f7b 6F       		.byte	0x6f
 16448 1f7c 9F       		.byte	0x9f
 16449 1f7d 00000000 		.4byte	0
 16450 1f81 00000000 		.4byte	0
 16451              	.LLST332:
 16452 1f85 8E010000 		.4byte	.LVL411
 16453 1f89 DA010000 		.4byte	.LVL421
 16454 1f8d 0300     		.2byte	0x3
 16455 1f8f 08       		.byte	0x8
 16456 1f90 23       		.byte	0x23
 16457 1f91 9F       		.byte	0x9f
 16458 1f92 00000000 		.4byte	0
 16459 1f96 00000000 		.4byte	0
 16460              	.LLST336:
 16461 1f9a 8E010000 		.4byte	.LVL411
 16462 1f9e DA010000 		.4byte	.LVL421
 16463 1fa2 0300     		.2byte	0x3
 16464 1fa4 08       		.byte	0x8
 16465 1fa5 25       		.byte	0x25
 16466 1fa6 9F       		.byte	0x9f
 16467 1fa7 00000000 		.4byte	0
 16468 1fab 00000000 		.4byte	0
 16469              	.LLST338:
 16470 1faf 8E010000 		.4byte	.LVL411
 16471 1fb3 A6010000 		.4byte	.LVL414
 16472 1fb7 0300     		.2byte	0x3
 16473 1fb9 08       		.byte	0x8
 16474 1fba 25       		.byte	0x25
 16475 1fbb 9F       		.byte	0x9f
 16476 1fbc A6010000 		.4byte	.LVL414
 16477 1fc0 A8010000 		.4byte	.LVL415
 16478 1fc4 0300     		.2byte	0x3
 16479 1fc6 08       		.byte	0x8
 16480 1fc7 F8       		.byte	0xf8
 16481 1fc8 9F       		.byte	0x9f
 16482 1fc9 00000000 		.4byte	0
 16483 1fcd 00000000 		.4byte	0
 16484              	.LLST339:
 16485 1fd1 8E010000 		.4byte	.LVL411
 16486 1fd5 A8010000 		.4byte	.LVL415
 16487 1fd9 0300     		.2byte	0x3
 16488 1fdb 08       		.byte	0x8
 16489 1fdc 6F       		.byte	0x6f
 16490 1fdd 9F       		.byte	0x9f
 16491 1fde A8010000 		.4byte	.LVL415
ARM GAS  C:\Users\legoc\AppData\Local\Temp\ccOlrioX.s 			page 306


 16492 1fe2 AA010000 		.4byte	.LVL416
 16493 1fe6 0200     		.2byte	0x2
 16494 1fe8 42       		.byte	0x42
 16495 1fe9 9F       		.byte	0x9f
 16496 1fea 00000000 		.4byte	0
 16497 1fee 00000000 		.4byte	0
 16498              	.LLST324:
 16499 1ff2 F4010000 		.4byte	.LVL425
 16500 1ff6 10020000 		.4byte	.LVL430
 16501 1ffa 0300     		.2byte	0x3
 16502 1ffc 72       		.byte	0x72
 16503 1ffd 7F       		.sleb128 -1
 16504 1ffe 9F       		.byte	0x9f
 16505 1fff 8A020000 		.4byte	.LVL446
 16506 2003 A6020000 		.4byte	.LVL451
 16507 2007 0300     		.2byte	0x3
 16508 2009 72       		.byte	0x72
 16509 200a 7F       		.sleb128 -1
 16510 200b 9F       		.byte	0x9f
 16511 200c 20030000 		.4byte	.LVL467
 16512 2010 3C030000 		.4byte	.LVL472
 16513 2014 0300     		.2byte	0x3
 16514 2016 72       		.byte	0x72
 16515 2017 7F       		.sleb128 -1
 16516 2018 9F       		.byte	0x9f
 16517 2019 B6030000 		.4byte	.LVL488
 16518 201d D2030000 		.4byte	.LVL493
 16519 2021 0300     		.2byte	0x3
 16520 2023 72       		.byte	0x72
 16521 2024 7F       		.sleb128 -1
 16522 2025 9F       		.byte	0x9f
 16523 2026 40040000 		.4byte	.LVL509
 16524 202a 66040000 		.4byte	.LVL514
 16525 202e 0300     		.2byte	0x3
 16526 2030 72       		.byte	0x72
 16527 2031 7F       		.sleb128 -1
 16528 2032 9F       		.byte	0x9f
 16529 2033 00000000 		.4byte	0
 16530 2037 00000000 		.4byte	0
 16531              	.LLST340:
 16532 203b 26020000 		.4byte	.LVL432
 16533 203f 74020000 		.4byte	.LVL443
 16534 2043 0600     		.2byte	0x6
 16535 2045 03       		.byte	0x3
 16536 2046 54000000 		.4byte	.LC8
 16537 204a 9F       		.byte	0x9f
 16538 204b 74020000 		.4byte	.LVL443
 16539 204f 78020000 		.4byte	.LVL444
 16540 2053 0100     		.2byte	0x1
 16541 2055 51       		.byte	0x51
 16542 2056 78020000 		.4byte	.LVL444
 16543 205a 7A020000 		.4byte	.LVL445
 16544 205e 0300     		.2byte	0x3
 16545 2060 71       		.byte	0x71
 16546 2061 7F       		.sleb128 -1
 16547 2062 9F       		.byte	0x9f
 16548 2063 90020000 		.4byte	.LVL447
ARM GAS  C:\Users\legoc\AppData\Local\Temp\ccOlrioX.s 			page 307


 16549 2067 9E020000 		.4byte	.LVL449
 16550 206b 0100     		.2byte	0x1
 16551 206d 51       		.byte	0x51
 16552 206e 9E020000 		.4byte	.LVL449
 16553 2072 A2020000 		.4byte	.LVL450
 16554 2076 0300     		.2byte	0x3
 16555 2078 71       		.byte	0x71
 16556 2079 7F       		.sleb128 -1
 16557 207a 9F       		.byte	0x9f
 16558 207b 00000000 		.4byte	0
 16559 207f 00000000 		.4byte	0
 16560              	.LLST341:
 16561 2083 26020000 		.4byte	.LVL432
 16562 2087 BC020000 		.4byte	.LVL453
 16563 208b 0200     		.2byte	0x2
 16564 208d 30       		.byte	0x30
 16565 208e 9F       		.byte	0x9f
 16566 208f 00000000 		.4byte	0
 16567 2093 00000000 		.4byte	0
 16568              	.LLST342:
 16569 2097 26020000 		.4byte	.LVL432
 16570 209b BC020000 		.4byte	.LVL453
 16571 209f 0400     		.2byte	0x4
 16572 20a1 0B       		.byte	0xb
 16573 20a2 9F9E     		.2byte	0x9e9f
 16574 20a4 9F       		.byte	0x9f
 16575 20a5 00000000 		.4byte	0
 16576 20a9 00000000 		.4byte	0
 16577              	.LLST343:
 16578 20ad 26020000 		.4byte	.LVL432
 16579 20b1 BC020000 		.4byte	.LVL453
 16580 20b5 0300     		.2byte	0x3
 16581 20b7 08       		.byte	0x8
 16582 20b8 63       		.byte	0x63
 16583 20b9 9F       		.byte	0x9f
 16584 20ba 00000000 		.4byte	0
 16585 20be 00000000 		.4byte	0
 16586              	.LLST344:
 16587 20c2 26020000 		.4byte	.LVL432
 16588 20c6 BC020000 		.4byte	.LVL453
 16589 20ca 0300     		.2byte	0x3
 16590 20cc 08       		.byte	0x8
 16591 20cd 8B       		.byte	0x8b
 16592 20ce 9F       		.byte	0x9f
 16593 20cf 00000000 		.4byte	0
 16594 20d3 00000000 		.4byte	0
 16595              	.LLST345:
 16596 20d7 26020000 		.4byte	.LVL432
 16597 20db BC020000 		.4byte	.LVL453
 16598 20df 0200     		.2byte	0x2
 16599 20e1 3A       		.byte	0x3a
 16600 20e2 9F       		.byte	0x9f
 16601 20e3 00000000 		.4byte	0
 16602 20e7 00000000 		.4byte	0
 16603              	.LLST347:
 16604 20eb 70020000 		.4byte	.LVL442
 16605 20ef BC020000 		.4byte	.LVL453
ARM GAS  C:\Users\legoc\AppData\Local\Temp\ccOlrioX.s 			page 308


 16606 20f3 0300     		.2byte	0x3
 16607 20f5 08       		.byte	0x8
 16608 20f6 4F       		.byte	0x4f
 16609 20f7 9F       		.byte	0x9f
 16610 20f8 00000000 		.4byte	0
 16611 20fc 00000000 		.4byte	0
 16612              	.LLST348:
 16613 2100 70020000 		.4byte	.LVL442
 16614 2104 BC020000 		.4byte	.LVL453
 16615 2108 0300     		.2byte	0x3
 16616 210a 08       		.byte	0x8
 16617 210b 3B       		.byte	0x3b
 16618 210c 9F       		.byte	0x9f
 16619 210d 00000000 		.4byte	0
 16620 2111 00000000 		.4byte	0
 16621              	.LLST349:
 16622 2115 70020000 		.4byte	.LVL442
 16623 2119 74020000 		.4byte	.LVL443
 16624 211d 0200     		.2byte	0x2
 16625 211f 30       		.byte	0x30
 16626 2120 9F       		.byte	0x9f
 16627 2121 74020000 		.4byte	.LVL443
 16628 2125 A6020000 		.4byte	.LVL451
 16629 2129 0100     		.2byte	0x1
 16630 212b 52       		.byte	0x52
 16631 212c 00000000 		.4byte	0
 16632 2130 00000000 		.4byte	0
 16633              	.LLST351:
 16634 2134 90020000 		.4byte	.LVL447
 16635 2138 B7020000 		.4byte	.LVL452-1
 16636 213c 0200     		.2byte	0x2
 16637 213e 73       		.byte	0x73
 16638 213f 00       		.sleb128 0
 16639 2140 B7020000 		.4byte	.LVL452-1
 16640 2144 BC020000 		.4byte	.LVL453
 16641 2148 0200     		.2byte	0x2
 16642 214a 7D       		.byte	0x7d
 16643 214b 00       		.sleb128 0
 16644 214c 00000000 		.4byte	0
 16645 2150 00000000 		.4byte	0
 16646              	.LLST352:
 16647 2154 90020000 		.4byte	.LVL447
 16648 2158 96020000 		.4byte	.LVL448
 16649 215c 0200     		.2byte	0x2
 16650 215e 30       		.byte	0x30
 16651 215f 9F       		.byte	0x9f
 16652 2160 00000000 		.4byte	0
 16653 2164 00000000 		.4byte	0
 16654              	.LLST353:
 16655 2168 A2020000 		.4byte	.LVL450
 16656 216c A6020000 		.4byte	.LVL451
 16657 2170 0A00     		.2byte	0xa
 16658 2172 72       		.byte	0x72
 16659 2173 00       		.sleb128 0
 16660 2174 37       		.byte	0x37
 16661 2175 1E       		.byte	0x1e
 16662 2176 09       		.byte	0x9
ARM GAS  C:\Users\legoc\AppData\Local\Temp\ccOlrioX.s 			page 309


 16663 2177 FE       		.byte	0xfe
 16664 2178 1B       		.byte	0x1b
 16665 2179 23       		.byte	0x23
 16666 217a 52       		.uleb128 0x52
 16667 217b 9F       		.byte	0x9f
 16668 217c 00000000 		.4byte	0
 16669 2180 00000000 		.4byte	0
 16670              	.LLST354:
 16671 2184 26020000 		.4byte	.LVL432
 16672 2188 70020000 		.4byte	.LVL442
 16673 218c 0400     		.2byte	0x4
 16674 218e 0B       		.byte	0xb
 16675 218f 9F9E     		.2byte	0x9e9f
 16676 2191 9F       		.byte	0x9f
 16677 2192 00000000 		.4byte	0
 16678 2196 00000000 		.4byte	0
 16679              	.LLST355:
 16680 219a 26020000 		.4byte	.LVL432
 16681 219e 70020000 		.4byte	.LVL442
 16682 21a2 0300     		.2byte	0x3
 16683 21a4 08       		.byte	0x8
 16684 21a5 63       		.byte	0x63
 16685 21a6 9F       		.byte	0x9f
 16686 21a7 00000000 		.4byte	0
 16687 21ab 00000000 		.4byte	0
 16688              	.LLST356:
 16689 21af 26020000 		.4byte	.LVL432
 16690 21b3 70020000 		.4byte	.LVL442
 16691 21b7 0300     		.2byte	0x3
 16692 21b9 08       		.byte	0x8
 16693 21ba 8B       		.byte	0x8b
 16694 21bb 9F       		.byte	0x9f
 16695 21bc 00000000 		.4byte	0
 16696 21c0 00000000 		.4byte	0
 16697              	.LLST357:
 16698 21c4 26020000 		.4byte	.LVL432
 16699 21c8 70020000 		.4byte	.LVL442
 16700 21cc 0200     		.2byte	0x2
 16701 21ce 3A       		.byte	0x3a
 16702 21cf 9F       		.byte	0x9f
 16703 21d0 00000000 		.4byte	0
 16704 21d4 00000000 		.4byte	0
 16705              	.LLST362:
 16706 21d8 26020000 		.4byte	.LVL432
 16707 21dc 70020000 		.4byte	.LVL442
 16708 21e0 0300     		.2byte	0x3
 16709 21e2 08       		.byte	0x8
 16710 21e3 AB       		.byte	0xab
 16711 21e4 9F       		.byte	0x9f
 16712 21e5 00000000 		.4byte	0
 16713 21e9 00000000 		.4byte	0
 16714              	.LLST363:
 16715 21ed 26020000 		.4byte	.LVL432
 16716 21f1 70020000 		.4byte	.LVL442
 16717 21f5 0300     		.2byte	0x3
 16718 21f7 08       		.byte	0x8
 16719 21f8 83       		.byte	0x83
ARM GAS  C:\Users\legoc\AppData\Local\Temp\ccOlrioX.s 			page 310


 16720 21f9 9F       		.byte	0x9f
 16721 21fa 00000000 		.4byte	0
 16722 21fe 00000000 		.4byte	0
 16723              	.LLST364:
 16724 2202 26020000 		.4byte	.LVL432
 16725 2206 3C020000 		.4byte	.LVL435
 16726 220a 0300     		.2byte	0x3
 16727 220c 08       		.byte	0x8
 16728 220d AB       		.byte	0xab
 16729 220e 9F       		.byte	0x9f
 16730 220f 3C020000 		.4byte	.LVL435
 16731 2213 3E020000 		.4byte	.LVL436
 16732 2217 0300     		.2byte	0x3
 16733 2219 08       		.byte	0x8
 16734 221a 8B       		.byte	0x8b
 16735 221b 9F       		.byte	0x9f
 16736 221c 00000000 		.4byte	0
 16737 2220 00000000 		.4byte	0
 16738              	.LLST365:
 16739 2224 26020000 		.4byte	.LVL432
 16740 2228 3E020000 		.4byte	.LVL436
 16741 222c 0300     		.2byte	0x3
 16742 222e 08       		.byte	0x8
 16743 222f 83       		.byte	0x83
 16744 2230 9F       		.byte	0x9f
 16745 2231 3E020000 		.4byte	.LVL436
 16746 2235 40020000 		.4byte	.LVL437
 16747 2239 0300     		.2byte	0x3
 16748 223b 08       		.byte	0x8
 16749 223c 63       		.byte	0x63
 16750 223d 9F       		.byte	0x9f
 16751 223e 00000000 		.4byte	0
 16752 2242 00000000 		.4byte	0
 16753              	.LLST350:
 16754 2246 8A020000 		.4byte	.LVL446
 16755 224a A6020000 		.4byte	.LVL451
 16756 224e 0300     		.2byte	0x3
 16757 2250 72       		.byte	0x72
 16758 2251 7F       		.sleb128 -1
 16759 2252 9F       		.byte	0x9f
 16760 2253 20030000 		.4byte	.LVL467
 16761 2257 3C030000 		.4byte	.LVL472
 16762 225b 0300     		.2byte	0x3
 16763 225d 72       		.byte	0x72
 16764 225e 7F       		.sleb128 -1
 16765 225f 9F       		.byte	0x9f
 16766 2260 B6030000 		.4byte	.LVL488
 16767 2264 D2030000 		.4byte	.LVL493
 16768 2268 0300     		.2byte	0x3
 16769 226a 72       		.byte	0x72
 16770 226b 7F       		.sleb128 -1
 16771 226c 9F       		.byte	0x9f
 16772 226d 40040000 		.4byte	.LVL509
 16773 2271 66040000 		.4byte	.LVL514
 16774 2275 0300     		.2byte	0x3
 16775 2277 72       		.byte	0x72
 16776 2278 7F       		.sleb128 -1
ARM GAS  C:\Users\legoc\AppData\Local\Temp\ccOlrioX.s 			page 311


 16777 2279 9F       		.byte	0x9f
 16778 227a 00000000 		.4byte	0
 16779 227e 00000000 		.4byte	0
 16780              	.LLST366:
 16781 2282 BC020000 		.4byte	.LVL453
 16782 2286 0A030000 		.4byte	.LVL464
 16783 228a 0600     		.2byte	0x6
 16784 228c 03       		.byte	0x3
 16785 228d 60000000 		.4byte	.LC9
 16786 2291 9F       		.byte	0x9f
 16787 2292 0A030000 		.4byte	.LVL464
 16788 2296 0E030000 		.4byte	.LVL465
 16789 229a 0100     		.2byte	0x1
 16790 229c 51       		.byte	0x51
 16791 229d 0E030000 		.4byte	.LVL465
 16792 22a1 10030000 		.4byte	.LVL466
 16793 22a5 0300     		.2byte	0x3
 16794 22a7 71       		.byte	0x71
 16795 22a8 7F       		.sleb128 -1
 16796 22a9 9F       		.byte	0x9f
 16797 22aa 26030000 		.4byte	.LVL468
 16798 22ae 34030000 		.4byte	.LVL470
 16799 22b2 0100     		.2byte	0x1
 16800 22b4 51       		.byte	0x51
 16801 22b5 34030000 		.4byte	.LVL470
 16802 22b9 38030000 		.4byte	.LVL471
 16803 22bd 0300     		.2byte	0x3
 16804 22bf 71       		.byte	0x71
 16805 22c0 7F       		.sleb128 -1
 16806 22c1 9F       		.byte	0x9f
 16807 22c2 00000000 		.4byte	0
 16808 22c6 00000000 		.4byte	0
 16809              	.LLST367:
 16810 22ca BC020000 		.4byte	.LVL453
 16811 22ce 52030000 		.4byte	.LVL474
 16812 22d2 0200     		.2byte	0x2
 16813 22d4 30       		.byte	0x30
 16814 22d5 9F       		.byte	0x9f
 16815 22d6 00000000 		.4byte	0
 16816 22da 00000000 		.4byte	0
 16817              	.LLST368:
 16818 22de BC020000 		.4byte	.LVL453
 16819 22e2 52030000 		.4byte	.LVL474
 16820 22e6 0400     		.2byte	0x4
 16821 22e8 0B       		.byte	0xb
 16822 22e9 9F9E     		.2byte	0x9e9f
 16823 22eb 9F       		.byte	0x9f
 16824 22ec 00000000 		.4byte	0
 16825 22f0 00000000 		.4byte	0
 16826              	.LLST369:
 16827 22f4 BC020000 		.4byte	.LVL453
 16828 22f8 52030000 		.4byte	.LVL474
 16829 22fc 0300     		.2byte	0x3
 16830 22fe 08       		.byte	0x8
 16831 22ff 63       		.byte	0x63
 16832 2300 9F       		.byte	0x9f
 16833 2301 00000000 		.4byte	0
ARM GAS  C:\Users\legoc\AppData\Local\Temp\ccOlrioX.s 			page 312


 16834 2305 00000000 		.4byte	0
 16835              	.LLST370:
 16836 2309 BC020000 		.4byte	.LVL453
 16837 230d 52030000 		.4byte	.LVL474
 16838 2311 0300     		.2byte	0x3
 16839 2313 08       		.byte	0x8
 16840 2314 8B       		.byte	0x8b
 16841 2315 9F       		.byte	0x9f
 16842 2316 00000000 		.4byte	0
 16843 231a 00000000 		.4byte	0
 16844              	.LLST371:
 16845 231e BC020000 		.4byte	.LVL453
 16846 2322 52030000 		.4byte	.LVL474
 16847 2326 0300     		.2byte	0x3
 16848 2328 08       		.byte	0x8
 16849 2329 83       		.byte	0x83
 16850 232a 9F       		.byte	0x9f
 16851 232b 00000000 		.4byte	0
 16852 232f 00000000 		.4byte	0
 16853              	.LLST372:
 16854 2333 BC020000 		.4byte	.LVL453
 16855 2337 52030000 		.4byte	.LVL474
 16856 233b 0200     		.2byte	0x2
 16857 233d 3A       		.byte	0x3a
 16858 233e 9F       		.byte	0x9f
 16859 233f 00000000 		.4byte	0
 16860 2343 00000000 		.4byte	0
 16861              	.LLST373:
 16862 2347 06030000 		.4byte	.LVL463
 16863 234b 52030000 		.4byte	.LVL474
 16864 234f 0300     		.2byte	0x3
 16865 2351 08       		.byte	0x8
 16866 2352 4F       		.byte	0x4f
 16867 2353 9F       		.byte	0x9f
 16868 2354 00000000 		.4byte	0
 16869 2358 00000000 		.4byte	0
 16870              	.LLST374:
 16871 235c 06030000 		.4byte	.LVL463
 16872 2360 52030000 		.4byte	.LVL474
 16873 2364 0300     		.2byte	0x3
 16874 2366 08       		.byte	0x8
 16875 2367 B4       		.byte	0xb4
 16876 2368 9F       		.byte	0x9f
 16877 2369 00000000 		.4byte	0
 16878 236d 00000000 		.4byte	0
 16879              	.LLST375:
 16880 2371 06030000 		.4byte	.LVL463
 16881 2375 0A030000 		.4byte	.LVL464
 16882 2379 0200     		.2byte	0x2
 16883 237b 30       		.byte	0x30
 16884 237c 9F       		.byte	0x9f
 16885 237d 0A030000 		.4byte	.LVL464
 16886 2381 3C030000 		.4byte	.LVL472
 16887 2385 0100     		.2byte	0x1
 16888 2387 52       		.byte	0x52
 16889 2388 00000000 		.4byte	0
 16890 238c 00000000 		.4byte	0
ARM GAS  C:\Users\legoc\AppData\Local\Temp\ccOlrioX.s 			page 313


 16891              	.LLST377:
 16892 2390 26030000 		.4byte	.LVL468
 16893 2394 4D030000 		.4byte	.LVL473-1
 16894 2398 0200     		.2byte	0x2
 16895 239a 73       		.byte	0x73
 16896 239b 00       		.sleb128 0
 16897 239c 4D030000 		.4byte	.LVL473-1
 16898 23a0 52030000 		.4byte	.LVL474
 16899 23a4 0200     		.2byte	0x2
 16900 23a6 7D       		.byte	0x7d
 16901 23a7 00       		.sleb128 0
 16902 23a8 00000000 		.4byte	0
 16903 23ac 00000000 		.4byte	0
 16904              	.LLST378:
 16905 23b0 26030000 		.4byte	.LVL468
 16906 23b4 2C030000 		.4byte	.LVL469
 16907 23b8 0200     		.2byte	0x2
 16908 23ba 30       		.byte	0x30
 16909 23bb 9F       		.byte	0x9f
 16910 23bc 00000000 		.4byte	0
 16911 23c0 00000000 		.4byte	0
 16912              	.LLST379:
 16913 23c4 38030000 		.4byte	.LVL471
 16914 23c8 3C030000 		.4byte	.LVL472
 16915 23cc 0A00     		.2byte	0xa
 16916 23ce 72       		.byte	0x72
 16917 23cf 00       		.sleb128 0
 16918 23d0 37       		.byte	0x37
 16919 23d1 1E       		.byte	0x1e
 16920 23d2 09       		.byte	0x9
 16921 23d3 FE       		.byte	0xfe
 16922 23d4 1B       		.byte	0x1b
 16923 23d5 23       		.byte	0x23
 16924 23d6 52       		.uleb128 0x52
 16925 23d7 9F       		.byte	0x9f
 16926 23d8 00000000 		.4byte	0
 16927 23dc 00000000 		.4byte	0
 16928              	.LLST380:
 16929 23e0 BC020000 		.4byte	.LVL453
 16930 23e4 06030000 		.4byte	.LVL463
 16931 23e8 0400     		.2byte	0x4
 16932 23ea 0B       		.byte	0xb
 16933 23eb 9F9E     		.2byte	0x9e9f
 16934 23ed 9F       		.byte	0x9f
 16935 23ee 00000000 		.4byte	0
 16936 23f2 00000000 		.4byte	0
 16937              	.LLST381:
 16938 23f6 BC020000 		.4byte	.LVL453
 16939 23fa 06030000 		.4byte	.LVL463
 16940 23fe 0300     		.2byte	0x3
 16941 2400 08       		.byte	0x8
 16942 2401 63       		.byte	0x63
 16943 2402 9F       		.byte	0x9f
 16944 2403 00000000 		.4byte	0
 16945 2407 00000000 		.4byte	0
 16946              	.LLST382:
 16947 240b BC020000 		.4byte	.LVL453
ARM GAS  C:\Users\legoc\AppData\Local\Temp\ccOlrioX.s 			page 314


 16948 240f 06030000 		.4byte	.LVL463
 16949 2413 0300     		.2byte	0x3
 16950 2415 08       		.byte	0x8
 16951 2416 8B       		.byte	0x8b
 16952 2417 9F       		.byte	0x9f
 16953 2418 00000000 		.4byte	0
 16954 241c 00000000 		.4byte	0
 16955              	.LLST383:
 16956 2420 BC020000 		.4byte	.LVL453
 16957 2424 06030000 		.4byte	.LVL463
 16958 2428 0300     		.2byte	0x3
 16959 242a 08       		.byte	0x8
 16960 242b 83       		.byte	0x83
 16961 242c 9F       		.byte	0x9f
 16962 242d 00000000 		.4byte	0
 16963 2431 00000000 		.4byte	0
 16964              	.LLST384:
 16965 2435 BC020000 		.4byte	.LVL453
 16966 2439 06030000 		.4byte	.LVL463
 16967 243d 0200     		.2byte	0x2
 16968 243f 3A       		.byte	0x3a
 16969 2440 9F       		.byte	0x9f
 16970 2441 00000000 		.4byte	0
 16971 2445 00000000 		.4byte	0
 16972              	.LLST388:
 16973 2449 BC020000 		.4byte	.LVL453
 16974 244d 06030000 		.4byte	.LVL463
 16975 2451 0300     		.2byte	0x3
 16976 2453 08       		.byte	0x8
 16977 2454 AB       		.byte	0xab
 16978 2455 9F       		.byte	0x9f
 16979 2456 00000000 		.4byte	0
 16980 245a 00000000 		.4byte	0
 16981              	.LLST390:
 16982 245e BC020000 		.4byte	.LVL453
 16983 2462 D2020000 		.4byte	.LVL456
 16984 2466 0300     		.2byte	0x3
 16985 2468 08       		.byte	0x8
 16986 2469 AB       		.byte	0xab
 16987 246a 9F       		.byte	0x9f
 16988 246b D2020000 		.4byte	.LVL456
 16989 246f D4020000 		.4byte	.LVL457
 16990 2473 0300     		.2byte	0x3
 16991 2475 08       		.byte	0x8
 16992 2476 8B       		.byte	0x8b
 16993 2477 9F       		.byte	0x9f
 16994 2478 00000000 		.4byte	0
 16995 247c 00000000 		.4byte	0
 16996              	.LLST391:
 16997 2480 BC020000 		.4byte	.LVL453
 16998 2484 D4020000 		.4byte	.LVL457
 16999 2488 0200     		.2byte	0x2
 17000 248a 3A       		.byte	0x3a
 17001 248b 9F       		.byte	0x9f
 17002 248c D4020000 		.4byte	.LVL457
 17003 2490 D6020000 		.4byte	.LVL458
 17004 2494 0300     		.2byte	0x3
ARM GAS  C:\Users\legoc\AppData\Local\Temp\ccOlrioX.s 			page 315


 17005 2496 08       		.byte	0x8
 17006 2497 63       		.byte	0x63
 17007 2498 9F       		.byte	0x9f
 17008 2499 00000000 		.4byte	0
 17009 249d 00000000 		.4byte	0
 17010              	.LLST376:
 17011 24a1 20030000 		.4byte	.LVL467
 17012 24a5 3C030000 		.4byte	.LVL472
 17013 24a9 0300     		.2byte	0x3
 17014 24ab 72       		.byte	0x72
 17015 24ac 7F       		.sleb128 -1
 17016 24ad 9F       		.byte	0x9f
 17017 24ae B6030000 		.4byte	.LVL488
 17018 24b2 D2030000 		.4byte	.LVL493
 17019 24b6 0300     		.2byte	0x3
 17020 24b8 72       		.byte	0x72
 17021 24b9 7F       		.sleb128 -1
 17022 24ba 9F       		.byte	0x9f
 17023 24bb 40040000 		.4byte	.LVL509
 17024 24bf 66040000 		.4byte	.LVL514
 17025 24c3 0300     		.2byte	0x3
 17026 24c5 72       		.byte	0x72
 17027 24c6 7F       		.sleb128 -1
 17028 24c7 9F       		.byte	0x9f
 17029 24c8 00000000 		.4byte	0
 17030 24cc 00000000 		.4byte	0
 17031              	.LLST392:
 17032 24d0 52030000 		.4byte	.LVL474
 17033 24d4 A0030000 		.4byte	.LVL485
 17034 24d8 0600     		.2byte	0x6
 17035 24da 03       		.byte	0x3
 17036 24db 68000000 		.4byte	.LC10
 17037 24df 9F       		.byte	0x9f
 17038 24e0 A0030000 		.4byte	.LVL485
 17039 24e4 A4030000 		.4byte	.LVL486
 17040 24e8 0100     		.2byte	0x1
 17041 24ea 51       		.byte	0x51
 17042 24eb A4030000 		.4byte	.LVL486
 17043 24ef A6030000 		.4byte	.LVL487
 17044 24f3 0300     		.2byte	0x3
 17045 24f5 71       		.byte	0x71
 17046 24f6 7F       		.sleb128 -1
 17047 24f7 9F       		.byte	0x9f
 17048 24f8 BC030000 		.4byte	.LVL489
 17049 24fc CA030000 		.4byte	.LVL491
 17050 2500 0100     		.2byte	0x1
 17051 2502 51       		.byte	0x51
 17052 2503 CA030000 		.4byte	.LVL491
 17053 2507 CE030000 		.4byte	.LVL492
 17054 250b 0300     		.2byte	0x3
 17055 250d 71       		.byte	0x71
 17056 250e 7F       		.sleb128 -1
 17057 250f 9F       		.byte	0x9f
 17058 2510 00000000 		.4byte	0
 17059 2514 00000000 		.4byte	0
 17060              	.LLST393:
 17061 2518 52030000 		.4byte	.LVL474
ARM GAS  C:\Users\legoc\AppData\Local\Temp\ccOlrioX.s 			page 316


 17062 251c EA030000 		.4byte	.LVL495
 17063 2520 0200     		.2byte	0x2
 17064 2522 30       		.byte	0x30
 17065 2523 9F       		.byte	0x9f
 17066 2524 00000000 		.4byte	0
 17067 2528 00000000 		.4byte	0
 17068              	.LLST394:
 17069 252c 52030000 		.4byte	.LVL474
 17070 2530 EA030000 		.4byte	.LVL495
 17071 2534 0400     		.2byte	0x4
 17072 2536 0B       		.byte	0xb
 17073 2537 F3FC     		.2byte	0xfcf3
 17074 2539 9F       		.byte	0x9f
 17075 253a 00000000 		.4byte	0
 17076 253e 00000000 		.4byte	0
 17077              	.LLST395:
 17078 2542 52030000 		.4byte	.LVL474
 17079 2546 EA030000 		.4byte	.LVL495
 17080 254a 0300     		.2byte	0x3
 17081 254c 08       		.byte	0x8
 17082 254d 63       		.byte	0x63
 17083 254e 9F       		.byte	0x9f
 17084 254f 00000000 		.4byte	0
 17085 2553 00000000 		.4byte	0
 17086              	.LLST396:
 17087 2557 52030000 		.4byte	.LVL474
 17088 255b EA030000 		.4byte	.LVL495
 17089 255f 0300     		.2byte	0x3
 17090 2561 08       		.byte	0x8
 17091 2562 8B       		.byte	0x8b
 17092 2563 9F       		.byte	0x9f
 17093 2564 00000000 		.4byte	0
 17094 2568 00000000 		.4byte	0
 17095              	.LLST397:
 17096 256c 52030000 		.4byte	.LVL474
 17097 2570 EA030000 		.4byte	.LVL495
 17098 2574 0200     		.2byte	0x2
 17099 2576 3A       		.byte	0x3a
 17100 2577 9F       		.byte	0x9f
 17101 2578 00000000 		.4byte	0
 17102 257c 00000000 		.4byte	0
 17103              	.LLST398:
 17104 2580 52030000 		.4byte	.LVL474
 17105 2584 EA030000 		.4byte	.LVL495
 17106 2588 0300     		.2byte	0x3
 17107 258a 08       		.byte	0x8
 17108 258b AB       		.byte	0xab
 17109 258c 9F       		.byte	0x9f
 17110 258d 00000000 		.4byte	0
 17111 2591 00000000 		.4byte	0
 17112              	.LLST399:
 17113 2595 9C030000 		.4byte	.LVL484
 17114 2599 EA030000 		.4byte	.LVL495
 17115 259d 0300     		.2byte	0x3
 17116 259f 08       		.byte	0x8
 17117 25a0 F0       		.byte	0xf0
 17118 25a1 9F       		.byte	0x9f
ARM GAS  C:\Users\legoc\AppData\Local\Temp\ccOlrioX.s 			page 317


 17119 25a2 00000000 		.4byte	0
 17120 25a6 00000000 		.4byte	0
 17121              	.LLST400:
 17122 25aa 9C030000 		.4byte	.LVL484
 17123 25ae EA030000 		.4byte	.LVL495
 17124 25b2 0300     		.2byte	0x3
 17125 25b4 08       		.byte	0x8
 17126 25b5 3B       		.byte	0x3b
 17127 25b6 9F       		.byte	0x9f
 17128 25b7 00000000 		.4byte	0
 17129 25bb 00000000 		.4byte	0
 17130              	.LLST401:
 17131 25bf 9C030000 		.4byte	.LVL484
 17132 25c3 A0030000 		.4byte	.LVL485
 17133 25c7 0200     		.2byte	0x2
 17134 25c9 30       		.byte	0x30
 17135 25ca 9F       		.byte	0x9f
 17136 25cb A0030000 		.4byte	.LVL485
 17137 25cf D2030000 		.4byte	.LVL493
 17138 25d3 0100     		.2byte	0x1
 17139 25d5 52       		.byte	0x52
 17140 25d6 00000000 		.4byte	0
 17141 25da 00000000 		.4byte	0
 17142              	.LLST403:
 17143 25de BC030000 		.4byte	.LVL489
 17144 25e2 E3030000 		.4byte	.LVL494-1
 17145 25e6 0200     		.2byte	0x2
 17146 25e8 73       		.byte	0x73
 17147 25e9 00       		.sleb128 0
 17148 25ea E3030000 		.4byte	.LVL494-1
 17149 25ee EA030000 		.4byte	.LVL495
 17150 25f2 0200     		.2byte	0x2
 17151 25f4 7D       		.byte	0x7d
 17152 25f5 00       		.sleb128 0
 17153 25f6 00000000 		.4byte	0
 17154 25fa 00000000 		.4byte	0
 17155              	.LLST404:
 17156 25fe BC030000 		.4byte	.LVL489
 17157 2602 C2030000 		.4byte	.LVL490
 17158 2606 0200     		.2byte	0x2
 17159 2608 30       		.byte	0x30
 17160 2609 9F       		.byte	0x9f
 17161 260a 00000000 		.4byte	0
 17162 260e 00000000 		.4byte	0
 17163              	.LLST405:
 17164 2612 CE030000 		.4byte	.LVL492
 17165 2616 D2030000 		.4byte	.LVL493
 17166 261a 0B00     		.2byte	0xb
 17167 261c 72       		.byte	0x72
 17168 261d 00       		.sleb128 0
 17169 261e 37       		.byte	0x37
 17170 261f 1E       		.byte	0x1e
 17171 2620 09       		.byte	0x9
 17172 2621 FE       		.byte	0xfe
 17173 2622 1B       		.byte	0x1b
 17174 2623 23       		.byte	0x23
 17175 2624 F301     		.uleb128 0xf3
ARM GAS  C:\Users\legoc\AppData\Local\Temp\ccOlrioX.s 			page 318


 17176 2626 9F       		.byte	0x9f
 17177 2627 00000000 		.4byte	0
 17178 262b 00000000 		.4byte	0
 17179              	.LLST406:
 17180 262f 52030000 		.4byte	.LVL474
 17181 2633 9C030000 		.4byte	.LVL484
 17182 2637 0400     		.2byte	0x4
 17183 2639 0B       		.byte	0xb
 17184 263a F3FC     		.2byte	0xfcf3
 17185 263c 9F       		.byte	0x9f
 17186 263d 00000000 		.4byte	0
 17187 2641 00000000 		.4byte	0
 17188              	.LLST407:
 17189 2645 52030000 		.4byte	.LVL474
 17190 2649 9C030000 		.4byte	.LVL484
 17191 264d 0300     		.2byte	0x3
 17192 264f 08       		.byte	0x8
 17193 2650 63       		.byte	0x63
 17194 2651 9F       		.byte	0x9f
 17195 2652 00000000 		.4byte	0
 17196 2656 00000000 		.4byte	0
 17197              	.LLST408:
 17198 265a 52030000 		.4byte	.LVL474
 17199 265e 9C030000 		.4byte	.LVL484
 17200 2662 0300     		.2byte	0x3
 17201 2664 08       		.byte	0x8
 17202 2665 8B       		.byte	0x8b
 17203 2666 9F       		.byte	0x9f
 17204 2667 00000000 		.4byte	0
 17205 266b 00000000 		.4byte	0
 17206              	.LLST409:
 17207 266f 52030000 		.4byte	.LVL474
 17208 2673 9C030000 		.4byte	.LVL484
 17209 2677 0200     		.2byte	0x2
 17210 2679 3A       		.byte	0x3a
 17211 267a 9F       		.byte	0x9f
 17212 267b 00000000 		.4byte	0
 17213 267f 00000000 		.4byte	0
 17214              	.LLST410:
 17215 2683 52030000 		.4byte	.LVL474
 17216 2687 9C030000 		.4byte	.LVL484
 17217 268b 0300     		.2byte	0x3
 17218 268d 08       		.byte	0x8
 17219 268e AB       		.byte	0xab
 17220 268f 9F       		.byte	0x9f
 17221 2690 00000000 		.4byte	0
 17222 2694 00000000 		.4byte	0
 17223              	.LLST415:
 17224 2698 52030000 		.4byte	.LVL474
 17225 269c 9C030000 		.4byte	.LVL484
 17226 26a0 0300     		.2byte	0x3
 17227 26a2 08       		.byte	0x8
 17228 26a3 83       		.byte	0x83
 17229 26a4 9F       		.byte	0x9f
 17230 26a5 00000000 		.4byte	0
 17231 26a9 00000000 		.4byte	0
 17232              	.LLST416:
ARM GAS  C:\Users\legoc\AppData\Local\Temp\ccOlrioX.s 			page 319


 17233 26ad 52030000 		.4byte	.LVL474
 17234 26b1 68030000 		.4byte	.LVL477
 17235 26b5 0200     		.2byte	0x2
 17236 26b7 3A       		.byte	0x3a
 17237 26b8 9F       		.byte	0x9f
 17238 26b9 68030000 		.4byte	.LVL477
 17239 26bd 6A030000 		.4byte	.LVL478
 17240 26c1 0300     		.2byte	0x3
 17241 26c3 08       		.byte	0x8
 17242 26c4 8B       		.byte	0x8b
 17243 26c5 9F       		.byte	0x9f
 17244 26c6 00000000 		.4byte	0
 17245 26ca 00000000 		.4byte	0
 17246              	.LLST417:
 17247 26ce 52030000 		.4byte	.LVL474
 17248 26d2 6A030000 		.4byte	.LVL478
 17249 26d6 0300     		.2byte	0x3
 17250 26d8 08       		.byte	0x8
 17251 26d9 83       		.byte	0x83
 17252 26da 9F       		.byte	0x9f
 17253 26db 6A030000 		.4byte	.LVL478
 17254 26df 6C030000 		.4byte	.LVL479
 17255 26e3 0300     		.2byte	0x3
 17256 26e5 08       		.byte	0x8
 17257 26e6 63       		.byte	0x63
 17258 26e7 9F       		.byte	0x9f
 17259 26e8 00000000 		.4byte	0
 17260 26ec 00000000 		.4byte	0
 17261              	.LLST402:
 17262 26f0 B6030000 		.4byte	.LVL488
 17263 26f4 D2030000 		.4byte	.LVL493
 17264 26f8 0300     		.2byte	0x3
 17265 26fa 72       		.byte	0x72
 17266 26fb 7F       		.sleb128 -1
 17267 26fc 9F       		.byte	0x9f
 17268 26fd 40040000 		.4byte	.LVL509
 17269 2701 66040000 		.4byte	.LVL514
 17270 2705 0300     		.2byte	0x3
 17271 2707 72       		.byte	0x72
 17272 2708 7F       		.sleb128 -1
 17273 2709 9F       		.byte	0x9f
 17274 270a 00000000 		.4byte	0
 17275 270e 00000000 		.4byte	0
 17276              	.LLST418:
 17277 2712 EA030000 		.4byte	.LVL495
 17278 2716 36040000 		.4byte	.LVL506
 17279 271a 0600     		.2byte	0x6
 17280 271c 03       		.byte	0x3
 17281 271d 74000000 		.4byte	.LC11
 17282 2721 9F       		.byte	0x9f
 17283 2722 36040000 		.4byte	.LVL506
 17284 2726 3A040000 		.4byte	.LVL507
 17285 272a 0100     		.2byte	0x1
 17286 272c 51       		.byte	0x51
 17287 272d 3A040000 		.4byte	.LVL507
 17288 2731 3C040000 		.4byte	.LVL508
 17289 2735 0300     		.2byte	0x3
ARM GAS  C:\Users\legoc\AppData\Local\Temp\ccOlrioX.s 			page 320


 17290 2737 71       		.byte	0x71
 17291 2738 7F       		.sleb128 -1
 17292 2739 9F       		.byte	0x9f
 17293 273a 50040000 		.4byte	.LVL510
 17294 273e 5E040000 		.4byte	.LVL512
 17295 2742 0100     		.2byte	0x1
 17296 2744 51       		.byte	0x51
 17297 2745 5E040000 		.4byte	.LVL512
 17298 2749 62040000 		.4byte	.LVL513
 17299 274d 0300     		.2byte	0x3
 17300 274f 71       		.byte	0x71
 17301 2750 7F       		.sleb128 -1
 17302 2751 9F       		.byte	0x9f
 17303 2752 00000000 		.4byte	0
 17304 2756 00000000 		.4byte	0
 17305              	.LLST419:
 17306 275a EA030000 		.4byte	.LVL495
 17307 275e 78040000 		.4byte	.LVL515
 17308 2762 0200     		.2byte	0x2
 17309 2764 30       		.byte	0x30
 17310 2765 9F       		.byte	0x9f
 17311 2766 00000000 		.4byte	0
 17312 276a 00000000 		.4byte	0
 17313              	.LLST420:
 17314 276e EA030000 		.4byte	.LVL495
 17315 2772 78040000 		.4byte	.LVL515
 17316 2776 0400     		.2byte	0x4
 17317 2778 0B       		.byte	0xb
 17318 2779 F3FC     		.2byte	0xfcf3
 17319 277b 9F       		.byte	0x9f
 17320 277c 00000000 		.4byte	0
 17321 2780 00000000 		.4byte	0
 17322              	.LLST421:
 17323 2784 EA030000 		.4byte	.LVL495
 17324 2788 78040000 		.4byte	.LVL515
 17325 278c 0300     		.2byte	0x3
 17326 278e 08       		.byte	0x8
 17327 278f 63       		.byte	0x63
 17328 2790 9F       		.byte	0x9f
 17329 2791 00000000 		.4byte	0
 17330 2795 00000000 		.4byte	0
 17331              	.LLST422:
 17332 2799 EA030000 		.4byte	.LVL495
 17333 279d 78040000 		.4byte	.LVL515
 17334 27a1 0300     		.2byte	0x3
 17335 27a3 08       		.byte	0x8
 17336 27a4 8B       		.byte	0x8b
 17337 27a5 9F       		.byte	0x9f
 17338 27a6 00000000 		.4byte	0
 17339 27aa 00000000 		.4byte	0
 17340              	.LLST423:
 17341 27ae EA030000 		.4byte	.LVL495
 17342 27b2 78040000 		.4byte	.LVL515
 17343 27b6 0300     		.2byte	0x3
 17344 27b8 08       		.byte	0x8
 17345 27b9 83       		.byte	0x83
 17346 27ba 9F       		.byte	0x9f
ARM GAS  C:\Users\legoc\AppData\Local\Temp\ccOlrioX.s 			page 321


 17347 27bb 00000000 		.4byte	0
 17348 27bf 00000000 		.4byte	0
 17349              	.LLST424:
 17350 27c3 EA030000 		.4byte	.LVL495
 17351 27c7 78040000 		.4byte	.LVL515
 17352 27cb 0300     		.2byte	0x3
 17353 27cd 08       		.byte	0x8
 17354 27ce AB       		.byte	0xab
 17355 27cf 9F       		.byte	0x9f
 17356 27d0 00000000 		.4byte	0
 17357 27d4 00000000 		.4byte	0
 17358              	.LLST425:
 17359 27d8 32040000 		.4byte	.LVL505
 17360 27dc 78040000 		.4byte	.LVL515
 17361 27e0 0300     		.2byte	0x3
 17362 27e2 08       		.byte	0x8
 17363 27e3 F0       		.byte	0xf0
 17364 27e4 9F       		.byte	0x9f
 17365 27e5 00000000 		.4byte	0
 17366 27e9 00000000 		.4byte	0
 17367              	.LLST426:
 17368 27ed 32040000 		.4byte	.LVL505
 17369 27f1 78040000 		.4byte	.LVL515
 17370 27f5 0300     		.2byte	0x3
 17371 27f7 08       		.byte	0x8
 17372 27f8 B4       		.byte	0xb4
 17373 27f9 9F       		.byte	0x9f
 17374 27fa 00000000 		.4byte	0
 17375 27fe 00000000 		.4byte	0
 17376              	.LLST427:
 17377 2802 32040000 		.4byte	.LVL505
 17378 2806 36040000 		.4byte	.LVL506
 17379 280a 0200     		.2byte	0x2
 17380 280c 30       		.byte	0x30
 17381 280d 9F       		.byte	0x9f
 17382 280e 36040000 		.4byte	.LVL506
 17383 2812 66040000 		.4byte	.LVL514
 17384 2816 0100     		.2byte	0x1
 17385 2818 52       		.byte	0x52
 17386 2819 00000000 		.4byte	0
 17387 281d 00000000 		.4byte	0
 17388              	.LLST429:
 17389 2821 50040000 		.4byte	.LVL510
 17390 2825 77040000 		.4byte	.LVL515-1
 17391 2829 0200     		.2byte	0x2
 17392 282b 73       		.byte	0x73
 17393 282c 00       		.sleb128 0
 17394 282d 77040000 		.4byte	.LVL515-1
 17395 2831 78040000 		.4byte	.LVL515
 17396 2835 0200     		.2byte	0x2
 17397 2837 7D       		.byte	0x7d
 17398 2838 00       		.sleb128 0
 17399 2839 00000000 		.4byte	0
 17400 283d 00000000 		.4byte	0
 17401              	.LLST430:
 17402 2841 50040000 		.4byte	.LVL510
 17403 2845 56040000 		.4byte	.LVL511
ARM GAS  C:\Users\legoc\AppData\Local\Temp\ccOlrioX.s 			page 322


 17404 2849 0200     		.2byte	0x2
 17405 284b 30       		.byte	0x30
 17406 284c 9F       		.byte	0x9f
 17407 284d 00000000 		.4byte	0
 17408 2851 00000000 		.4byte	0
 17409              	.LLST431:
 17410 2855 62040000 		.4byte	.LVL513
 17411 2859 66040000 		.4byte	.LVL514
 17412 285d 0B00     		.2byte	0xb
 17413 285f 72       		.byte	0x72
 17414 2860 00       		.sleb128 0
 17415 2861 37       		.byte	0x37
 17416 2862 1E       		.byte	0x1e
 17417 2863 09       		.byte	0x9
 17418 2864 FE       		.byte	0xfe
 17419 2865 1B       		.byte	0x1b
 17420 2866 23       		.byte	0x23
 17421 2867 F301     		.uleb128 0xf3
 17422 2869 9F       		.byte	0x9f
 17423 286a 00000000 		.4byte	0
 17424 286e 00000000 		.4byte	0
 17425              	.LLST432:
 17426 2872 EA030000 		.4byte	.LVL495
 17427 2876 32040000 		.4byte	.LVL505
 17428 287a 0400     		.2byte	0x4
 17429 287c 0B       		.byte	0xb
 17430 287d F3FC     		.2byte	0xfcf3
 17431 287f 9F       		.byte	0x9f
 17432 2880 00000000 		.4byte	0
 17433 2884 00000000 		.4byte	0
 17434              	.LLST433:
 17435 2888 EA030000 		.4byte	.LVL495
 17436 288c 32040000 		.4byte	.LVL505
 17437 2890 0300     		.2byte	0x3
 17438 2892 08       		.byte	0x8
 17439 2893 63       		.byte	0x63
 17440 2894 9F       		.byte	0x9f
 17441 2895 00000000 		.4byte	0
 17442 2899 00000000 		.4byte	0
 17443              	.LLST434:
 17444 289d EA030000 		.4byte	.LVL495
 17445 28a1 32040000 		.4byte	.LVL505
 17446 28a5 0300     		.2byte	0x3
 17447 28a7 08       		.byte	0x8
 17448 28a8 8B       		.byte	0x8b
 17449 28a9 9F       		.byte	0x9f
 17450 28aa 00000000 		.4byte	0
 17451 28ae 00000000 		.4byte	0
 17452              	.LLST435:
 17453 28b2 EA030000 		.4byte	.LVL495
 17454 28b6 32040000 		.4byte	.LVL505
 17455 28ba 0300     		.2byte	0x3
 17456 28bc 08       		.byte	0x8
 17457 28bd 83       		.byte	0x83
 17458 28be 9F       		.byte	0x9f
 17459 28bf 00000000 		.4byte	0
 17460 28c3 00000000 		.4byte	0
ARM GAS  C:\Users\legoc\AppData\Local\Temp\ccOlrioX.s 			page 323


 17461              	.LLST436:
 17462 28c7 EA030000 		.4byte	.LVL495
 17463 28cb 32040000 		.4byte	.LVL505
 17464 28cf 0300     		.2byte	0x3
 17465 28d1 08       		.byte	0x8
 17466 28d2 AB       		.byte	0xab
 17467 28d3 9F       		.byte	0x9f
 17468 28d4 00000000 		.4byte	0
 17469 28d8 00000000 		.4byte	0
 17470              	.LLST440:
 17471 28dc EA030000 		.4byte	.LVL495
 17472 28e0 32040000 		.4byte	.LVL505
 17473 28e4 0200     		.2byte	0x2
 17474 28e6 3A       		.byte	0x3a
 17475 28e7 9F       		.byte	0x9f
 17476 28e8 00000000 		.4byte	0
 17477 28ec 00000000 		.4byte	0
 17478              	.LLST442:
 17479 28f0 EA030000 		.4byte	.LVL495
 17480 28f4 FE030000 		.4byte	.LVL498
 17481 28f8 0200     		.2byte	0x2
 17482 28fa 3A       		.byte	0x3a
 17483 28fb 9F       		.byte	0x9f
 17484 28fc FE030000 		.4byte	.LVL498
 17485 2900 00040000 		.4byte	.LVL499
 17486 2904 0300     		.2byte	0x3
 17487 2906 08       		.byte	0x8
 17488 2907 8B       		.byte	0x8b
 17489 2908 9F       		.byte	0x9f
 17490 2909 00000000 		.4byte	0
 17491 290d 00000000 		.4byte	0
 17492              	.LLST443:
 17493 2911 EA030000 		.4byte	.LVL495
 17494 2915 00040000 		.4byte	.LVL499
 17495 2919 0200     		.2byte	0x2
 17496 291b 3A       		.byte	0x3a
 17497 291c 9F       		.byte	0x9f
 17498 291d 00040000 		.4byte	.LVL499
 17499 2921 02040000 		.4byte	.LVL500
 17500 2925 0300     		.2byte	0x3
 17501 2927 08       		.byte	0x8
 17502 2928 63       		.byte	0x63
 17503 2929 9F       		.byte	0x9f
 17504 292a 00000000 		.4byte	0
 17505 292e 00000000 		.4byte	0
 17506              	.LLST428:
 17507 2932 40040000 		.4byte	.LVL509
 17508 2936 66040000 		.4byte	.LVL514
 17509 293a 0300     		.2byte	0x3
 17510 293c 72       		.byte	0x72
 17511 293d 7F       		.sleb128 -1
 17512 293e 9F       		.byte	0x9f
 17513 293f 00000000 		.4byte	0
 17514 2943 00000000 		.4byte	0
 17515              	.LLST444:
 17516 2947 12000000 		.4byte	.LVL516
 17517 294b 22000000 		.4byte	.LVL519
ARM GAS  C:\Users\legoc\AppData\Local\Temp\ccOlrioX.s 			page 324


 17518 294f 0200     		.2byte	0x2
 17519 2951 30       		.byte	0x30
 17520 2952 9F       		.byte	0x9f
 17521 2953 22000000 		.4byte	.LVL519
 17522 2957 26000000 		.4byte	.LVL520
 17523 295b 0400     		.2byte	0x4
 17524 295d 0A       		.byte	0xa
 17525 295e 4001     		.2byte	0x140
 17526 2960 9F       		.byte	0x9f
 17527 2961 00000000 		.4byte	0
 17528 2965 00000000 		.4byte	0
 17529              	.LLST445:
 17530 2969 12000000 		.4byte	.LVL516
 17531 296d 26000000 		.4byte	.LVL520
 17532 2971 0200     		.2byte	0x2
 17533 2973 30       		.byte	0x30
 17534 2974 9F       		.byte	0x9f
 17535 2975 26000000 		.4byte	.LVL520
 17536 2979 28000000 		.4byte	.LVL521
 17537 297d 0300     		.2byte	0x3
 17538 297f 08       		.byte	0x8
 17539 2980 F0       		.byte	0xf0
 17540 2981 9F       		.byte	0x9f
 17541 2982 00000000 		.4byte	0
 17542 2986 00000000 		.4byte	0
 17543              	.LLST446:
 17544 298a 00000000 		.4byte	.LVL527
 17545 298e 16000000 		.4byte	.LVL529
 17546 2992 0100     		.2byte	0x1
 17547 2994 50       		.byte	0x50
 17548 2995 16000000 		.4byte	.LVL529
 17549 2999 6C010000 		.4byte	.LFE18
 17550 299d 0400     		.2byte	0x4
 17551 299f F3       		.byte	0xf3
 17552 29a0 01       		.uleb128 0x1
 17553 29a1 50       		.byte	0x50
 17554 29a2 9F       		.byte	0x9f
 17555 29a3 00000000 		.4byte	0
 17556 29a7 00000000 		.4byte	0
 17557              	.LLST447:
 17558 29ab 00000000 		.4byte	.LVL527
 17559 29af 0A000000 		.4byte	.LVL528
 17560 29b3 0100     		.2byte	0x1
 17561 29b5 51       		.byte	0x51
 17562 29b6 0A000000 		.4byte	.LVL528
 17563 29ba 6C010000 		.4byte	.LFE18
 17564 29be 0400     		.2byte	0x4
 17565 29c0 F3       		.byte	0xf3
 17566 29c1 01       		.uleb128 0x1
 17567 29c2 51       		.byte	0x51
 17568 29c3 9F       		.byte	0x9f
 17569 29c4 00000000 		.4byte	0
 17570 29c8 00000000 		.4byte	0
 17571              	.LLST448:
 17572 29cc 00000000 		.4byte	.LVL527
 17573 29d0 5E000000 		.4byte	.LVL539
 17574 29d4 0200     		.2byte	0x2
ARM GAS  C:\Users\legoc\AppData\Local\Temp\ccOlrioX.s 			page 325


 17575 29d6 30       		.byte	0x30
 17576 29d7 9F       		.byte	0x9f
 17577 29d8 00000000 		.4byte	0
 17578 29dc 00000000 		.4byte	0
 17579              	.LLST450:
 17580 29e0 00000000 		.4byte	.LVL527
 17581 29e4 5E000000 		.4byte	.LVL539
 17582 29e8 0300     		.2byte	0x3
 17583 29ea 08       		.byte	0x8
 17584 29eb F0       		.byte	0xf0
 17585 29ec 9F       		.byte	0x9f
 17586 29ed 00000000 		.4byte	0
 17587 29f1 00000000 		.4byte	0
 17588              	.LLST451:
 17589 29f5 00000000 		.4byte	.LVL527
 17590 29f9 5E000000 		.4byte	.LVL539
 17591 29fd 0400     		.2byte	0x4
 17592 29ff 0A       		.byte	0xa
 17593 2a00 4001     		.2byte	0x140
 17594 2a02 9F       		.byte	0x9f
 17595 2a03 00000000 		.4byte	0
 17596 2a07 00000000 		.4byte	0
 17597              	.LLST462:
 17598 2a0b 00000000 		.4byte	.LVL527
 17599 2a0f 26000000 		.4byte	.LVL532
 17600 2a13 0200     		.2byte	0x2
 17601 2a15 30       		.byte	0x30
 17602 2a16 9F       		.byte	0x9f
 17603 2a17 26000000 		.4byte	.LVL532
 17604 2a1b 2A000000 		.4byte	.LVL533
 17605 2a1f 0400     		.2byte	0x4
 17606 2a21 0A       		.byte	0xa
 17607 2a22 4001     		.2byte	0x140
 17608 2a24 9F       		.byte	0x9f
 17609 2a25 00000000 		.4byte	0
 17610 2a29 00000000 		.4byte	0
 17611              	.LLST463:
 17612 2a2d 00000000 		.4byte	.LVL527
 17613 2a31 2A000000 		.4byte	.LVL533
 17614 2a35 0200     		.2byte	0x2
 17615 2a37 30       		.byte	0x30
 17616 2a38 9F       		.byte	0x9f
 17617 2a39 2A000000 		.4byte	.LVL533
 17618 2a3d 2C000000 		.4byte	.LVL534
 17619 2a41 0300     		.2byte	0x3
 17620 2a43 08       		.byte	0x8
 17621 2a44 F0       		.byte	0xf0
 17622 2a45 9F       		.byte	0x9f
 17623 2a46 00000000 		.4byte	0
 17624 2a4a 00000000 		.4byte	0
 17625              	.LLST464:
 17626 2a4e 1A000000 		.4byte	.LVL530
 17627 2a52 5E000000 		.4byte	.LVL539
 17628 2a56 0200     		.2byte	0x2
 17629 2a58 30       		.byte	0x30
 17630 2a59 9F       		.byte	0x9f
 17631 2a5a 00000000 		.4byte	0
ARM GAS  C:\Users\legoc\AppData\Local\Temp\ccOlrioX.s 			page 326


 17632 2a5e 00000000 		.4byte	0
 17633              	.LLST466:
 17634 2a62 C2000000 		.4byte	.LVL545
 17635 2a66 10010000 		.4byte	.LVL556
 17636 2a6a 0300     		.2byte	0x3
 17637 2a6c 7D       		.byte	0x7d
 17638 2a6d 20       		.sleb128 32
 17639 2a6e 9F       		.byte	0x9f
 17640 2a6f 10010000 		.4byte	.LVL556
 17641 2a73 14010000 		.4byte	.LVL557
 17642 2a77 0100     		.2byte	0x1
 17643 2a79 51       		.byte	0x51
 17644 2a7a 14010000 		.4byte	.LVL557
 17645 2a7e 16010000 		.4byte	.LVL558
 17646 2a82 0300     		.2byte	0x3
 17647 2a84 71       		.byte	0x71
 17648 2a85 7F       		.sleb128 -1
 17649 2a86 9F       		.byte	0x9f
 17650 2a87 2A010000 		.4byte	.LVL560
 17651 2a8b 38010000 		.4byte	.LVL562
 17652 2a8f 0100     		.2byte	0x1
 17653 2a91 51       		.byte	0x51
 17654 2a92 38010000 		.4byte	.LVL562
 17655 2a96 3C010000 		.4byte	.LVL563
 17656 2a9a 0300     		.2byte	0x3
 17657 2a9c 71       		.byte	0x71
 17658 2a9d 7F       		.sleb128 -1
 17659 2a9e 9F       		.byte	0x9f
 17660 2a9f 5A010000 		.4byte	.LVL567
 17661 2aa3 6C010000 		.4byte	.LFE18
 17662 2aa7 0300     		.2byte	0x3
 17663 2aa9 7D       		.byte	0x7d
 17664 2aaa 20       		.sleb128 32
 17665 2aab 9F       		.byte	0x9f
 17666 2aac 00000000 		.4byte	0
 17667 2ab0 00000000 		.4byte	0
 17668              	.LLST467:
 17669 2ab4 C2000000 		.4byte	.LVL545
 17670 2ab8 52010000 		.4byte	.LVL566
 17671 2abc 0200     		.2byte	0x2
 17672 2abe 30       		.byte	0x30
 17673 2abf 9F       		.byte	0x9f
 17674 2ac0 5A010000 		.4byte	.LVL567
 17675 2ac4 6C010000 		.4byte	.LFE18
 17676 2ac8 0200     		.2byte	0x2
 17677 2aca 30       		.byte	0x30
 17678 2acb 9F       		.byte	0x9f
 17679 2acc 00000000 		.4byte	0
 17680 2ad0 00000000 		.4byte	0
 17681              	.LLST468:
 17682 2ad4 C2000000 		.4byte	.LVL545
 17683 2ad8 52010000 		.4byte	.LVL566
 17684 2adc 0300     		.2byte	0x3
 17685 2ade 09       		.byte	0x9
 17686 2adf FF       		.byte	0xff
 17687 2ae0 9F       		.byte	0x9f
 17688 2ae1 5A010000 		.4byte	.LVL567
ARM GAS  C:\Users\legoc\AppData\Local\Temp\ccOlrioX.s 			page 327


 17689 2ae5 6C010000 		.4byte	.LFE18
 17690 2ae9 0300     		.2byte	0x3
 17691 2aeb 09       		.byte	0x9
 17692 2aec FF       		.byte	0xff
 17693 2aed 9F       		.byte	0x9f
 17694 2aee 00000000 		.4byte	0
 17695 2af2 00000000 		.4byte	0
 17696              	.LLST469:
 17697 2af6 C2000000 		.4byte	.LVL545
 17698 2afa 52010000 		.4byte	.LVL566
 17699 2afe 0200     		.2byte	0x2
 17700 2b00 4E       		.byte	0x4e
 17701 2b01 9F       		.byte	0x9f
 17702 2b02 5A010000 		.4byte	.LVL567
 17703 2b06 6C010000 		.4byte	.LFE18
 17704 2b0a 0200     		.2byte	0x2
 17705 2b0c 4E       		.byte	0x4e
 17706 2b0d 9F       		.byte	0x9f
 17707 2b0e 00000000 		.4byte	0
 17708 2b12 00000000 		.4byte	0
 17709              	.LLST470:
 17710 2b16 C2000000 		.4byte	.LVL545
 17711 2b1a 52010000 		.4byte	.LVL566
 17712 2b1e 0300     		.2byte	0x3
 17713 2b20 08       		.byte	0x8
 17714 2b21 32       		.byte	0x32
 17715 2b22 9F       		.byte	0x9f
 17716 2b23 5A010000 		.4byte	.LVL567
 17717 2b27 6C010000 		.4byte	.LFE18
 17718 2b2b 0300     		.2byte	0x3
 17719 2b2d 08       		.byte	0x8
 17720 2b2e 32       		.byte	0x32
 17721 2b2f 9F       		.byte	0x9f
 17722 2b30 00000000 		.4byte	0
 17723 2b34 00000000 		.4byte	0
 17724              	.LLST473:
 17725 2b38 06010000 		.4byte	.LVL555
 17726 2b3c 52010000 		.4byte	.LVL566
 17727 2b40 0200     		.2byte	0x2
 17728 2b42 49       		.byte	0x49
 17729 2b43 9F       		.byte	0x9f
 17730 2b44 5A010000 		.4byte	.LVL567
 17731 2b48 6C010000 		.4byte	.LFE18
 17732 2b4c 0200     		.2byte	0x2
 17733 2b4e 49       		.byte	0x49
 17734 2b4f 9F       		.byte	0x9f
 17735 2b50 00000000 		.4byte	0
 17736 2b54 00000000 		.4byte	0
 17737              	.LLST474:
 17738 2b58 06010000 		.4byte	.LVL555
 17739 2b5c 52010000 		.4byte	.LVL566
 17740 2b60 0200     		.2byte	0x2
 17741 2b62 3F       		.byte	0x3f
 17742 2b63 9F       		.byte	0x9f
 17743 2b64 5A010000 		.4byte	.LVL567
 17744 2b68 6C010000 		.4byte	.LFE18
 17745 2b6c 0200     		.2byte	0x2
ARM GAS  C:\Users\legoc\AppData\Local\Temp\ccOlrioX.s 			page 328


 17746 2b6e 3F       		.byte	0x3f
 17747 2b6f 9F       		.byte	0x9f
 17748 2b70 00000000 		.4byte	0
 17749 2b74 00000000 		.4byte	0
 17750              	.LLST475:
 17751 2b78 06010000 		.4byte	.LVL555
 17752 2b7c 10010000 		.4byte	.LVL556
 17753 2b80 0200     		.2byte	0x2
 17754 2b82 30       		.byte	0x30
 17755 2b83 9F       		.byte	0x9f
 17756 2b84 10010000 		.4byte	.LVL556
 17757 2b88 40010000 		.4byte	.LVL564
 17758 2b8c 0100     		.2byte	0x1
 17759 2b8e 52       		.byte	0x52
 17760 2b8f 5A010000 		.4byte	.LVL567
 17761 2b93 6C010000 		.4byte	.LFE18
 17762 2b97 0200     		.2byte	0x2
 17763 2b99 30       		.byte	0x30
 17764 2b9a 9F       		.byte	0x9f
 17765 2b9b 00000000 		.4byte	0
 17766 2b9f 00000000 		.4byte	0
 17767              	.LLST477:
 17768 2ba3 2A010000 		.4byte	.LVL560
 17769 2ba7 51010000 		.4byte	.LVL566-1
 17770 2bab 0200     		.2byte	0x2
 17771 2bad 73       		.byte	0x73
 17772 2bae 00       		.sleb128 0
 17773 2baf 5A010000 		.4byte	.LVL567
 17774 2bb3 5E010000 		.4byte	.LVL568
 17775 2bb7 0200     		.2byte	0x2
 17776 2bb9 7D       		.byte	0x7d
 17777 2bba 1C       		.sleb128 28
 17778 2bbb 5E010000 		.4byte	.LVL568
 17779 2bbf 6C010000 		.4byte	.LFE18
 17780 2bc3 0200     		.2byte	0x2
 17781 2bc5 73       		.byte	0x73
 17782 2bc6 00       		.sleb128 0
 17783 2bc7 00000000 		.4byte	0
 17784 2bcb 00000000 		.4byte	0
 17785              	.LLST478:
 17786 2bcf 2A010000 		.4byte	.LVL560
 17787 2bd3 30010000 		.4byte	.LVL561
 17788 2bd7 0200     		.2byte	0x2
 17789 2bd9 30       		.byte	0x30
 17790 2bda 9F       		.byte	0x9f
 17791 2bdb 5A010000 		.4byte	.LVL567
 17792 2bdf 6C010000 		.4byte	.LFE18
 17793 2be3 0200     		.2byte	0x2
 17794 2be5 30       		.byte	0x30
 17795 2be6 9F       		.byte	0x9f
 17796 2be7 00000000 		.4byte	0
 17797 2beb 00000000 		.4byte	0
 17798              	.LLST479:
 17799 2bef C2000000 		.4byte	.LVL545
 17800 2bf3 06010000 		.4byte	.LVL555
 17801 2bf7 0300     		.2byte	0x3
 17802 2bf9 09       		.byte	0x9
ARM GAS  C:\Users\legoc\AppData\Local\Temp\ccOlrioX.s 			page 329


 17803 2bfa FF       		.byte	0xff
 17804 2bfb 9F       		.byte	0x9f
 17805 2bfc 00000000 		.4byte	0
 17806 2c00 00000000 		.4byte	0
 17807              	.LLST480:
 17808 2c04 C2000000 		.4byte	.LVL545
 17809 2c08 06010000 		.4byte	.LVL555
 17810 2c0c 0200     		.2byte	0x2
 17811 2c0e 4E       		.byte	0x4e
 17812 2c0f 9F       		.byte	0x9f
 17813 2c10 00000000 		.4byte	0
 17814 2c14 00000000 		.4byte	0
 17815              	.LLST481:
 17816 2c18 C2000000 		.4byte	.LVL545
 17817 2c1c 06010000 		.4byte	.LVL555
 17818 2c20 0300     		.2byte	0x3
 17819 2c22 08       		.byte	0x8
 17820 2c23 32       		.byte	0x32
 17821 2c24 9F       		.byte	0x9f
 17822 2c25 00000000 		.4byte	0
 17823 2c29 00000000 		.4byte	0
 17824              	.LLST482:
 17825 2c2d C2000000 		.4byte	.LVL545
 17826 2c31 06010000 		.4byte	.LVL555
 17827 2c35 0200     		.2byte	0x2
 17828 2c37 30       		.byte	0x30
 17829 2c38 9F       		.byte	0x9f
 17830 2c39 00000000 		.4byte	0
 17831 2c3d 00000000 		.4byte	0
 17832              	.LLST487:
 17833 2c41 C2000000 		.4byte	.LVL545
 17834 2c45 06010000 		.4byte	.LVL555
 17835 2c49 0400     		.2byte	0x4
 17836 2c4b 0A       		.byte	0xa
 17837 2c4c 0E01     		.2byte	0x10e
 17838 2c4e 9F       		.byte	0x9f
 17839 2c4f 00000000 		.4byte	0
 17840 2c53 00000000 		.4byte	0
 17841              	.LLST488:
 17842 2c57 C2000000 		.4byte	.LVL545
 17843 2c5b 06010000 		.4byte	.LVL555
 17844 2c5f 0300     		.2byte	0x3
 17845 2c61 08       		.byte	0x8
 17846 2c62 D2       		.byte	0xd2
 17847 2c63 9F       		.byte	0x9f
 17848 2c64 00000000 		.4byte	0
 17849 2c68 00000000 		.4byte	0
 17850              	.LLST489:
 17851 2c6c C2000000 		.4byte	.LVL545
 17852 2c70 D2000000 		.4byte	.LVL548
 17853 2c74 0400     		.2byte	0x4
 17854 2c76 0A       		.byte	0xa
 17855 2c77 0E01     		.2byte	0x10e
 17856 2c79 9F       		.byte	0x9f
 17857 2c7a D2000000 		.4byte	.LVL548
 17858 2c7e D4000000 		.4byte	.LVL549
 17859 2c82 0300     		.2byte	0x3
ARM GAS  C:\Users\legoc\AppData\Local\Temp\ccOlrioX.s 			page 330


 17860 2c84 08       		.byte	0x8
 17861 2c85 32       		.byte	0x32
 17862 2c86 9F       		.byte	0x9f
 17863 2c87 00000000 		.4byte	0
 17864 2c8b 00000000 		.4byte	0
 17865              	.LLST490:
 17866 2c8f C2000000 		.4byte	.LVL545
 17867 2c93 D4000000 		.4byte	.LVL549
 17868 2c97 0300     		.2byte	0x3
 17869 2c99 08       		.byte	0x8
 17870 2c9a D2       		.byte	0xd2
 17871 2c9b 9F       		.byte	0x9f
 17872 2c9c D4000000 		.4byte	.LVL549
 17873 2ca0 D6000000 		.4byte	.LVL550
 17874 2ca4 0200     		.2byte	0x2
 17875 2ca6 4E       		.byte	0x4e
 17876 2ca7 9F       		.byte	0x9f
 17877 2ca8 00000000 		.4byte	0
 17878 2cac 00000000 		.4byte	0
 17879              	.LLST476:
 17880 2cb0 1A010000 		.4byte	.LVL559
 17881 2cb4 40010000 		.4byte	.LVL564
 17882 2cb8 0300     		.2byte	0x3
 17883 2cba 72       		.byte	0x72
 17884 2cbb 7F       		.sleb128 -1
 17885 2cbc 9F       		.byte	0x9f
 17886 2cbd 5A010000 		.4byte	.LVL567
 17887 2cc1 6C010000 		.4byte	.LFE18
 17888 2cc5 0300     		.2byte	0x3
 17889 2cc7 09       		.byte	0x9
 17890 2cc8 FF       		.byte	0xff
 17891 2cc9 9F       		.byte	0x9f
 17892 2cca 00000000 		.4byte	0
 17893 2cce 00000000 		.4byte	0
 17894              		.section	.debug_aranges,"",%progbits
 17895 0000 A4000000 		.4byte	0xa4
 17896 0004 0200     		.2byte	0x2
 17897 0006 00000000 		.4byte	.Ldebug_info0
 17898 000a 04       		.byte	0x4
 17899 000b 00       		.byte	0
 17900 000c 0000     		.2byte	0
 17901 000e 0000     		.2byte	0
 17902 0010 00000000 		.4byte	.LFB1
 17903 0014 22000000 		.4byte	.LFE1-.LFB1
 17904 0018 00000000 		.4byte	.LFB2
 17905 001c 22000000 		.4byte	.LFE2-.LFB2
 17906 0020 00000000 		.4byte	.LFB3
 17907 0024 FE000000 		.4byte	.LFE3-.LFB3
 17908 0028 00000000 		.4byte	.LFB4
 17909 002c A6000000 		.4byte	.LFE4-.LFB4
 17910 0030 00000000 		.4byte	.LFB5
 17911 0034 BE000000 		.4byte	.LFE5-.LFB5
 17912 0038 00000000 		.4byte	.LFB6
 17913 003c 5C000000 		.4byte	.LFE6-.LFB6
 17914 0040 00000000 		.4byte	.LFB7
 17915 0044 88000000 		.4byte	.LFE7-.LFB7
 17916 0048 00000000 		.4byte	.LFB8
ARM GAS  C:\Users\legoc\AppData\Local\Temp\ccOlrioX.s 			page 331


 17917 004c 4C000000 		.4byte	.LFE8-.LFB8
 17918 0050 00000000 		.4byte	.LFB9
 17919 0054 58000000 		.4byte	.LFE9-.LFB9
 17920 0058 00000000 		.4byte	.LFB10
 17921 005c 64010000 		.4byte	.LFE10-.LFB10
 17922 0060 00000000 		.4byte	.LFB11
 17923 0064 18000000 		.4byte	.LFE11-.LFB11
 17924 0068 00000000 		.4byte	.LFB12
 17925 006c 16000000 		.4byte	.LFE12-.LFB12
 17926 0070 00000000 		.4byte	.LFB13
 17927 0074 5A000000 		.4byte	.LFE13-.LFB13
 17928 0078 00000000 		.4byte	.LFB14
 17929 007c 60010000 		.4byte	.LFE14-.LFB14
 17930 0080 00000000 		.4byte	.LFB15
 17931 0084 58020000 		.4byte	.LFE15-.LFB15
 17932 0088 00000000 		.4byte	.LFB16
 17933 008c 9C040000 		.4byte	.LFE16-.LFB16
 17934 0090 00000000 		.4byte	.LFB17
 17935 0094 60000000 		.4byte	.LFE17-.LFB17
 17936 0098 00000000 		.4byte	.LFB18
 17937 009c 6C010000 		.4byte	.LFE18-.LFB18
 17938 00a0 00000000 		.4byte	0
 17939 00a4 00000000 		.4byte	0
 17940              		.section	.debug_ranges,"",%progbits
 17941              	.Ldebug_ranges0:
 17942 0000 0C000000 		.4byte	.LBB76
 17943 0004 0E000000 		.4byte	.LBE76
 17944 0008 16000000 		.4byte	.LBB79
 17945 000c 30000000 		.4byte	.LBE79
 17946 0010 00000000 		.4byte	0
 17947 0014 00000000 		.4byte	0
 17948 0018 16000000 		.4byte	.LBB86
 17949 001c 9A000000 		.4byte	.LBE86
 17950 0020 9E000000 		.4byte	.LBB89
 17951 0024 A6000000 		.4byte	.LBE89
 17952 0028 00000000 		.4byte	0
 17953 002c 00000000 		.4byte	0
 17954 0030 1C000000 		.4byte	.LBB96
 17955 0034 22000000 		.4byte	.LBE96
 17956 0038 26000000 		.4byte	.LBB105
 17957 003c 2A000000 		.4byte	.LBE105
 17958 0040 34000000 		.4byte	.LBB106
 17959 0044 B6000000 		.4byte	.LBE106
 17960 0048 BA000000 		.4byte	.LBB107
 17961 004c BE000000 		.4byte	.LBE107
 17962 0050 00000000 		.4byte	0
 17963 0054 00000000 		.4byte	0
 17964 0058 3E000000 		.4byte	.LBB98
 17965 005c B6000000 		.4byte	.LBE98
 17966 0060 BA000000 		.4byte	.LBB101
 17967 0064 BE000000 		.4byte	.LBE101
 17968 0068 00000000 		.4byte	0
 17969 006c 00000000 		.4byte	0
 17970 0070 00000000 		.4byte	.LBB113
 17971 0074 02000000 		.4byte	.LBE113
 17972 0078 04000000 		.4byte	.LBB134
 17973 007c 06000000 		.4byte	.LBE134
ARM GAS  C:\Users\legoc\AppData\Local\Temp\ccOlrioX.s 			page 332


 17974 0080 08000000 		.4byte	.LBB135
 17975 0084 26000000 		.4byte	.LBE135
 17976 0088 28000000 		.4byte	.LBB136
 17977 008c 54000000 		.4byte	.LBE136
 17978 0090 58000000 		.4byte	.LBB137
 17979 0094 5C000000 		.4byte	.LBE137
 17980 0098 00000000 		.4byte	0
 17981 009c 00000000 		.4byte	0
 17982 00a0 36000000 		.4byte	.LBB148
 17983 00a4 44000000 		.4byte	.LBE148
 17984 00a8 48000000 		.4byte	.LBB151
 17985 00ac 4C000000 		.4byte	.LBE151
 17986 00b0 00000000 		.4byte	0
 17987 00b4 00000000 		.4byte	0
 17988 00b8 08000000 		.4byte	.LBB156
 17989 00bc 0C000000 		.4byte	.LBE156
 17990 00c0 14000000 		.4byte	.LBB164
 17991 00c4 4E000000 		.4byte	.LBE164
 17992 00c8 52000000 		.4byte	.LBB165
 17993 00cc 58000000 		.4byte	.LBE165
 17994 00d0 00000000 		.4byte	0
 17995 00d4 00000000 		.4byte	0
 17996 00d8 40000000 		.4byte	.LBB158
 17997 00dc 4E000000 		.4byte	.LBE158
 17998 00e0 52000000 		.4byte	.LBB161
 17999 00e4 58000000 		.4byte	.LBE161
 18000 00e8 00000000 		.4byte	0
 18001 00ec 00000000 		.4byte	0
 18002 00f0 42000000 		.4byte	.LBB182
 18003 00f4 44000000 		.4byte	.LBE182
 18004 00f8 46000000 		.4byte	.LBB183
 18005 00fc 48000000 		.4byte	.LBE183
 18006 0100 00000000 		.4byte	0
 18007 0104 00000000 		.4byte	0
 18008 0108 76000000 		.4byte	.LBB184
 18009 010c 7C000000 		.4byte	.LBE184
 18010 0110 86000000 		.4byte	.LBB213
 18011 0114 D2000000 		.4byte	.LBE213
 18012 0118 00000000 		.4byte	0
 18013 011c 00000000 		.4byte	0
 18014 0120 76000000 		.4byte	.LBB186
 18015 0124 7C000000 		.4byte	.LBE186
 18016 0128 8C000000 		.4byte	.LBB193
 18017 012c 8E000000 		.4byte	.LBE193
 18018 0130 92000000 		.4byte	.LBB194
 18019 0134 94000000 		.4byte	.LBE194
 18020 0138 9C000000 		.4byte	.LBB195
 18021 013c D2000000 		.4byte	.LBE195
 18022 0140 00000000 		.4byte	0
 18023 0144 00000000 		.4byte	0
 18024 0148 7C000000 		.4byte	.LBB197
 18025 014c 82000000 		.4byte	.LBE197
 18026 0150 D2000000 		.4byte	.LBB214
 18027 0154 D6000000 		.4byte	.LBE214
 18028 0158 F4000000 		.4byte	.LBB215
 18029 015c 3C010000 		.4byte	.LBE215
 18030 0160 00000000 		.4byte	0
ARM GAS  C:\Users\legoc\AppData\Local\Temp\ccOlrioX.s 			page 333


 18031 0164 00000000 		.4byte	0
 18032 0168 7C000000 		.4byte	.LBB199
 18033 016c 82000000 		.4byte	.LBE199
 18034 0170 D2000000 		.4byte	.LBB209
 18035 0174 D6000000 		.4byte	.LBE209
 18036 0178 FE000000 		.4byte	.LBB210
 18037 017c 3C010000 		.4byte	.LBE210
 18038 0180 00000000 		.4byte	0
 18039 0184 00000000 		.4byte	0
 18040 0188 7C000000 		.4byte	.LBB201
 18041 018c 82000000 		.4byte	.LBE201
 18042 0190 D2000000 		.4byte	.LBB205
 18043 0194 D6000000 		.4byte	.LBE205
 18044 0198 2C010000 		.4byte	.LBB206
 18045 019c 3C010000 		.4byte	.LBE206
 18046 01a0 00000000 		.4byte	0
 18047 01a4 00000000 		.4byte	0
 18048 01a8 58010000 		.4byte	.LBB216
 18049 01ac 5A010000 		.4byte	.LBE216
 18050 01b0 5C010000 		.4byte	.LBB218
 18051 01b4 5E010000 		.4byte	.LBE218
 18052 01b8 00000000 		.4byte	0
 18053 01bc 00000000 		.4byte	0
 18054 01c0 5A010000 		.4byte	.LBB217
 18055 01c4 5C010000 		.4byte	.LBE217
 18056 01c8 60010000 		.4byte	.LBB219
 18057 01cc 64010000 		.4byte	.LBE219
 18058 01d0 00000000 		.4byte	0
 18059 01d4 00000000 		.4byte	0
 18060 01d8 2A000000 		.4byte	.LBB231
 18061 01dc 36000000 		.4byte	.LBE231
 18062 01e0 3A000000 		.4byte	.LBB234
 18063 01e4 3E000000 		.4byte	.LBE234
 18064 01e8 00000000 		.4byte	0
 18065 01ec 00000000 		.4byte	0
 18066 01f0 3E000000 		.4byte	.LBB235
 18067 01f4 52000000 		.4byte	.LBE235
 18068 01f8 56000000 		.4byte	.LBB242
 18069 01fc 5A000000 		.4byte	.LBE242
 18070 0200 00000000 		.4byte	0
 18071 0204 00000000 		.4byte	0
 18072 0208 46000000 		.4byte	.LBB237
 18073 020c 52000000 		.4byte	.LBE237
 18074 0210 56000000 		.4byte	.LBB240
 18075 0214 5A000000 		.4byte	.LBE240
 18076 0218 00000000 		.4byte	0
 18077 021c 00000000 		.4byte	0
 18078 0220 14000000 		.4byte	.LBB249
 18079 0224 1E000000 		.4byte	.LBE249
 18080 0228 22000000 		.4byte	.LBB266
 18081 022c 26000000 		.4byte	.LBE266
 18082 0230 2A000000 		.4byte	.LBB267
 18083 0234 30000000 		.4byte	.LBE267
 18084 0238 36000000 		.4byte	.LBB268
 18085 023c 3A000000 		.4byte	.LBE268
 18086 0240 3E000000 		.4byte	.LBB269
 18087 0244 54000000 		.4byte	.LBE269
ARM GAS  C:\Users\legoc\AppData\Local\Temp\ccOlrioX.s 			page 334


 18088 0248 C0000000 		.4byte	.LBB270
 18089 024c 4C010000 		.4byte	.LBE270
 18090 0250 00000000 		.4byte	0
 18091 0254 00000000 		.4byte	0
 18092 0258 36000000 		.4byte	.LBB251
 18093 025c 3A000000 		.4byte	.LBE251
 18094 0260 3E000000 		.4byte	.LBB258
 18095 0264 42000000 		.4byte	.LBE258
 18096 0268 4E000000 		.4byte	.LBB259
 18097 026c 54000000 		.4byte	.LBE259
 18098 0270 C0000000 		.4byte	.LBB260
 18099 0274 4C010000 		.4byte	.LBE260
 18100 0278 00000000 		.4byte	0
 18101 027c 00000000 		.4byte	0
 18102 0280 08000000 		.4byte	.LBB341
 18103 0284 10000000 		.4byte	.LBE341
 18104 0288 14000000 		.4byte	.LBB357
 18105 028c 2A000000 		.4byte	.LBE357
 18106 0290 2C000000 		.4byte	.LBB358
 18107 0294 5C000000 		.4byte	.LBE358
 18108 0298 00000000 		.4byte	0
 18109 029c 00000000 		.4byte	0
 18110 02a0 72000000 		.4byte	.LBB359
 18111 02a4 7C000000 		.4byte	.LBE359
 18112 02a8 7E000000 		.4byte	.LBB364
 18113 02ac 86000000 		.4byte	.LBE364
 18114 02b0 00000000 		.4byte	0
 18115 02b4 00000000 		.4byte	0
 18116 02b8 E0000000 		.4byte	.LBB371
 18117 02bc E4000000 		.4byte	.LBE371
 18118 02c0 E6000000 		.4byte	.LBB376
 18119 02c4 F4000000 		.4byte	.LBE376
 18120 02c8 00000000 		.4byte	0
 18121 02cc 00000000 		.4byte	0
 18122 02d0 16010000 		.4byte	.LBB377
 18123 02d4 26010000 		.4byte	.LBE377
 18124 02d8 28010000 		.4byte	.LBB386
 18125 02dc 44010000 		.4byte	.LBE386
 18126 02e0 46010000 		.4byte	.LBB387
 18127 02e4 58010000 		.4byte	.LBE387
 18128 02e8 00000000 		.4byte	0
 18129 02ec 00000000 		.4byte	0
 18130 02f0 16010000 		.4byte	.LBB378
 18131 02f4 26010000 		.4byte	.LBE378
 18132 02f8 36010000 		.4byte	.LBB385
 18133 02fc 44010000 		.4byte	.LBE385
 18134 0300 00000000 		.4byte	0
 18135 0304 00000000 		.4byte	0
 18136 0308 62010000 		.4byte	.LBB388
 18137 030c 64010000 		.4byte	.LBE388
 18138 0310 68010000 		.4byte	.LBB414
 18139 0314 6A010000 		.4byte	.LBE414
 18140 0318 6E010000 		.4byte	.LBB415
 18141 031c 84010000 		.4byte	.LBE415
 18142 0320 86010000 		.4byte	.LBB416
 18143 0324 04020000 		.4byte	.LBE416
 18144 0328 2C020000 		.4byte	.LBB418
ARM GAS  C:\Users\legoc\AppData\Local\Temp\ccOlrioX.s 			page 335


 18145 032c 58020000 		.4byte	.LBE418
 18146 0330 00000000 		.4byte	0
 18147 0334 00000000 		.4byte	0
 18148 0338 62010000 		.4byte	.LBB390
 18149 033c 64010000 		.4byte	.LBE390
 18150 0340 68010000 		.4byte	.LBB407
 18151 0344 6A010000 		.4byte	.LBE407
 18152 0348 6E010000 		.4byte	.LBB408
 18153 034c 84010000 		.4byte	.LBE408
 18154 0350 86010000 		.4byte	.LBB409
 18155 0354 B6010000 		.4byte	.LBE409
 18156 0358 00000000 		.4byte	0
 18157 035c 00000000 		.4byte	0
 18158 0360 02000000 		.4byte	.LBB484
 18159 0364 04000000 		.4byte	.LBE484
 18160 0368 06000000 		.4byte	.LBB501
 18161 036c 1E000000 		.4byte	.LBE501
 18162 0370 20000000 		.4byte	.LBB502
 18163 0374 52000000 		.4byte	.LBE502
 18164 0378 6C000000 		.4byte	.LBB516
 18165 037c 6E000000 		.4byte	.LBE516
 18166 0380 00000000 		.4byte	0
 18167 0384 00000000 		.4byte	0
 18168 0388 52000000 		.4byte	.LBB503
 18169 038c 6C000000 		.4byte	.LBE503
 18170 0390 6E000000 		.4byte	.LBB517
 18171 0394 A0000000 		.4byte	.LBE517
 18172 0398 BA000000 		.4byte	.LBB531
 18173 039c BC000000 		.4byte	.LBE531
 18174 03a0 00000000 		.4byte	0
 18175 03a4 00000000 		.4byte	0
 18176 03a8 A0000000 		.4byte	.LBB518
 18177 03ac BA000000 		.4byte	.LBE518
 18178 03b0 BC000000 		.4byte	.LBB532
 18179 03b4 EE000000 		.4byte	.LBE532
 18180 03b8 0C010000 		.4byte	.LBB546
 18181 03bc 0E010000 		.4byte	.LBE546
 18182 03c0 00000000 		.4byte	0
 18183 03c4 00000000 		.4byte	0
 18184 03c8 EE000000 		.4byte	.LBB533
 18185 03cc 0C010000 		.4byte	.LBE533
 18186 03d0 0E010000 		.4byte	.LBB547
 18187 03d4 40010000 		.4byte	.LBE547
 18188 03d8 5A010000 		.4byte	.LBB561
 18189 03dc 5C010000 		.4byte	.LBE561
 18190 03e0 00000000 		.4byte	0
 18191 03e4 00000000 		.4byte	0
 18192 03e8 40010000 		.4byte	.LBB548
 18193 03ec 5A010000 		.4byte	.LBE548
 18194 03f0 5C010000 		.4byte	.LBB562
 18195 03f4 8E010000 		.4byte	.LBE562
 18196 03f8 A8010000 		.4byte	.LBB583
 18197 03fc AA010000 		.4byte	.LBE583
 18198 0400 00000000 		.4byte	0
 18199 0404 00000000 		.4byte	0
 18200 0408 8E010000 		.4byte	.LBB563
 18201 040c A8010000 		.4byte	.LBE563
ARM GAS  C:\Users\legoc\AppData\Local\Temp\ccOlrioX.s 			page 336


 18202 0410 AA010000 		.4byte	.LBB584
 18203 0414 22020000 		.4byte	.LBE584
 18204 0418 24020000 		.4byte	.LBB611
 18205 041c 26020000 		.4byte	.LBE611
 18206 0420 3E020000 		.4byte	.LBB613
 18207 0424 40020000 		.4byte	.LBE613
 18208 0428 00000000 		.4byte	0
 18209 042c 00000000 		.4byte	0
 18210 0430 8E010000 		.4byte	.LBB565
 18211 0434 A8010000 		.4byte	.LBE565
 18212 0438 AA010000 		.4byte	.LBB578
 18213 043c DE010000 		.4byte	.LBE578
 18214 0440 3E020000 		.4byte	.LBB579
 18215 0444 40020000 		.4byte	.LBE579
 18216 0448 00000000 		.4byte	0
 18217 044c 00000000 		.4byte	0
 18218 0450 22020000 		.4byte	.LBB585
 18219 0454 24020000 		.4byte	.LBE585
 18220 0458 26020000 		.4byte	.LBB612
 18221 045c 3E020000 		.4byte	.LBE612
 18222 0460 40020000 		.4byte	.LBB614
 18223 0464 B8020000 		.4byte	.LBE614
 18224 0468 BA020000 		.4byte	.LBB641
 18225 046c BC020000 		.4byte	.LBE641
 18226 0470 D4020000 		.4byte	.LBB643
 18227 0474 D6020000 		.4byte	.LBE643
 18228 0478 00000000 		.4byte	0
 18229 047c 00000000 		.4byte	0
 18230 0480 22020000 		.4byte	.LBB587
 18231 0484 24020000 		.4byte	.LBE587
 18232 0488 26020000 		.4byte	.LBB604
 18233 048c 3E020000 		.4byte	.LBE604
 18234 0490 40020000 		.4byte	.LBB605
 18235 0494 74020000 		.4byte	.LBE605
 18236 0498 D4020000 		.4byte	.LBB606
 18237 049c D6020000 		.4byte	.LBE606
 18238 04a0 00000000 		.4byte	0
 18239 04a4 00000000 		.4byte	0
 18240 04a8 B8020000 		.4byte	.LBB615
 18241 04ac BA020000 		.4byte	.LBE615
 18242 04b0 BC020000 		.4byte	.LBB642
 18243 04b4 D4020000 		.4byte	.LBE642
 18244 04b8 D6020000 		.4byte	.LBB644
 18245 04bc 4E030000 		.4byte	.LBE644
 18246 04c0 50030000 		.4byte	.LBB671
 18247 04c4 52030000 		.4byte	.LBE671
 18248 04c8 6A030000 		.4byte	.LBB673
 18249 04cc 6C030000 		.4byte	.LBE673
 18250 04d0 00000000 		.4byte	0
 18251 04d4 00000000 		.4byte	0
 18252 04d8 B8020000 		.4byte	.LBB617
 18253 04dc BA020000 		.4byte	.LBE617
 18254 04e0 BC020000 		.4byte	.LBB634
 18255 04e4 D4020000 		.4byte	.LBE634
 18256 04e8 D6020000 		.4byte	.LBB635
 18257 04ec 0A030000 		.4byte	.LBE635
 18258 04f0 6A030000 		.4byte	.LBB636
ARM GAS  C:\Users\legoc\AppData\Local\Temp\ccOlrioX.s 			page 337


 18259 04f4 6C030000 		.4byte	.LBE636
 18260 04f8 00000000 		.4byte	0
 18261 04fc 00000000 		.4byte	0
 18262 0500 4E030000 		.4byte	.LBB645
 18263 0504 50030000 		.4byte	.LBE645
 18264 0508 52030000 		.4byte	.LBB672
 18265 050c 6A030000 		.4byte	.LBE672
 18266 0510 6C030000 		.4byte	.LBB674
 18267 0514 E4030000 		.4byte	.LBE674
 18268 0518 E8030000 		.4byte	.LBB694
 18269 051c EA030000 		.4byte	.LBE694
 18270 0520 00040000 		.4byte	.LBB696
 18271 0524 02040000 		.4byte	.LBE696
 18272 0528 00000000 		.4byte	0
 18273 052c 00000000 		.4byte	0
 18274 0530 4E030000 		.4byte	.LBB647
 18275 0534 50030000 		.4byte	.LBE647
 18276 0538 52030000 		.4byte	.LBB664
 18277 053c 6A030000 		.4byte	.LBE664
 18278 0540 6C030000 		.4byte	.LBB665
 18279 0544 A0030000 		.4byte	.LBE665
 18280 0548 00040000 		.4byte	.LBB666
 18281 054c 02040000 		.4byte	.LBE666
 18282 0550 00000000 		.4byte	0
 18283 0554 00000000 		.4byte	0
 18284 0558 E4030000 		.4byte	.LBB675
 18285 055c E8030000 		.4byte	.LBE675
 18286 0560 EA030000 		.4byte	.LBB695
 18287 0564 00040000 		.4byte	.LBE695
 18288 0568 02040000 		.4byte	.LBB697
 18289 056c 78040000 		.4byte	.LBE697
 18290 0570 00000000 		.4byte	0
 18291 0574 00000000 		.4byte	0
 18292 0578 E4030000 		.4byte	.LBB677
 18293 057c E8030000 		.4byte	.LBE677
 18294 0580 EA030000 		.4byte	.LBB690
 18295 0584 00040000 		.4byte	.LBE690
 18296 0588 02040000 		.4byte	.LBB691
 18297 058c 36040000 		.4byte	.LBE691
 18298 0590 00000000 		.4byte	0
 18299 0594 00000000 		.4byte	0
 18300 0598 02000000 		.4byte	.LBB704
 18301 059c 04000000 		.4byte	.LBE704
 18302 05a0 06000000 		.4byte	.LBB730
 18303 05a4 0E000000 		.4byte	.LBE730
 18304 05a8 12000000 		.4byte	.LBB731
 18305 05ac 26000000 		.4byte	.LBE731
 18306 05b0 28000000 		.4byte	.LBB732
 18307 05b4 54000000 		.4byte	.LBE732
 18308 05b8 58000000 		.4byte	.LBB733
 18309 05bc 60000000 		.4byte	.LBE733
 18310 05c0 00000000 		.4byte	0
 18311 05c4 00000000 		.4byte	0
 18312 05c8 08000000 		.4byte	.LBB748
 18313 05cc 10000000 		.4byte	.LBE748
 18314 05d0 14000000 		.4byte	.LBB769
 18315 05d4 2A000000 		.4byte	.LBE769
ARM GAS  C:\Users\legoc\AppData\Local\Temp\ccOlrioX.s 			page 338


 18316 05d8 2C000000 		.4byte	.LBB770
 18317 05dc 5E000000 		.4byte	.LBE770
 18318 05e0 D4000000 		.4byte	.LBB806
 18319 05e4 D6000000 		.4byte	.LBE806
 18320 05e8 00000000 		.4byte	0
 18321 05ec 00000000 		.4byte	0
 18322 05f0 AC000000 		.4byte	.LBB771
 18323 05f4 AE000000 		.4byte	.LBE771
 18324 05f8 B2000000 		.4byte	.LBB803
 18325 05fc B4000000 		.4byte	.LBE803
 18326 0600 BA000000 		.4byte	.LBB804
 18327 0604 C0000000 		.4byte	.LBE804
 18328 0608 C2000000 		.4byte	.LBB805
 18329 060c D4000000 		.4byte	.LBE805
 18330 0610 D6000000 		.4byte	.LBB807
 18331 0614 52010000 		.4byte	.LBE807
 18332 0618 5A010000 		.4byte	.LBB808
 18333 061c 6C010000 		.4byte	.LBE808
 18334 0620 00000000 		.4byte	0
 18335 0624 00000000 		.4byte	0
 18336 0628 AC000000 		.4byte	.LBB773
 18337 062c AE000000 		.4byte	.LBE773
 18338 0630 B2000000 		.4byte	.LBB794
 18339 0634 B4000000 		.4byte	.LBE794
 18340 0638 BA000000 		.4byte	.LBB795
 18341 063c C0000000 		.4byte	.LBE795
 18342 0640 C2000000 		.4byte	.LBB796
 18343 0644 D4000000 		.4byte	.LBE796
 18344 0648 D6000000 		.4byte	.LBB797
 18345 064c 06010000 		.4byte	.LBE797
 18346 0650 00000000 		.4byte	0
 18347 0654 00000000 		.4byte	0
 18348 0658 00000000 		.4byte	.LFB1
 18349 065c 22000000 		.4byte	.LFE1
 18350 0660 00000000 		.4byte	.LFB2
 18351 0664 22000000 		.4byte	.LFE2
 18352 0668 00000000 		.4byte	.LFB3
 18353 066c FE000000 		.4byte	.LFE3
 18354 0670 00000000 		.4byte	.LFB4
 18355 0674 A6000000 		.4byte	.LFE4
 18356 0678 00000000 		.4byte	.LFB5
 18357 067c BE000000 		.4byte	.LFE5
 18358 0680 00000000 		.4byte	.LFB6
 18359 0684 5C000000 		.4byte	.LFE6
 18360 0688 00000000 		.4byte	.LFB7
 18361 068c 88000000 		.4byte	.LFE7
 18362 0690 00000000 		.4byte	.LFB8
 18363 0694 4C000000 		.4byte	.LFE8
 18364 0698 00000000 		.4byte	.LFB9
 18365 069c 58000000 		.4byte	.LFE9
 18366 06a0 00000000 		.4byte	.LFB10
 18367 06a4 64010000 		.4byte	.LFE10
 18368 06a8 00000000 		.4byte	.LFB11
 18369 06ac 18000000 		.4byte	.LFE11
 18370 06b0 00000000 		.4byte	.LFB12
 18371 06b4 16000000 		.4byte	.LFE12
 18372 06b8 00000000 		.4byte	.LFB13
ARM GAS  C:\Users\legoc\AppData\Local\Temp\ccOlrioX.s 			page 339


 18373 06bc 5A000000 		.4byte	.LFE13
 18374 06c0 00000000 		.4byte	.LFB14
 18375 06c4 60010000 		.4byte	.LFE14
 18376 06c8 00000000 		.4byte	.LFB15
 18377 06cc 58020000 		.4byte	.LFE15
 18378 06d0 00000000 		.4byte	.LFB16
 18379 06d4 9C040000 		.4byte	.LFE16
 18380 06d8 00000000 		.4byte	.LFB17
 18381 06dc 60000000 		.4byte	.LFE17
 18382 06e0 00000000 		.4byte	.LFB18
 18383 06e4 6C010000 		.4byte	.LFE18
 18384 06e8 00000000 		.4byte	0
 18385 06ec 00000000 		.4byte	0
 18386              		.section	.debug_line,"",%progbits
 18387              	.Ldebug_line0:
 18388 0000 A2070000 		.section	.debug_str,"MS",%progbits,1
 18388      0200AE01 
 18388      00000201 
 18388      FB0E0D00 
 18388      01010101 
 18389              	.LASF63:
 18390 0000 64726177 		.ascii	"draw_choose_screen\000"
 18390      5F63686F 
 18390      6F73655F 
 18390      73637265 
 18390      656E00
 18391              	.LASF33:
 18392 0013 77726974 		.ascii	"writedata\000"
 18392      65646174 
 18392      6100
 18393              	.LASF45:
 18394 001d 72656374 		.ascii	"rect_center_x\000"
 18394      5F63656E 
 18394      7465725F 
 18394      7800
 18395              	.LASF46:
 18396 002b 72656374 		.ascii	"rect_center_y\000"
 18396      5F63656E 
 18396      7465725F 
 18396      7900
 18397              	.LASF42:
 18398 0039 62757474 		.ascii	"button_color\000"
 18398      6F6E5F63 
 18398      6F6C6F72 
 18398      00
 18399              	.LASF12:
 18400 0046 756E7369 		.ascii	"unsigned int\000"
 18400      676E6564 
 18400      20696E74 
 18400      00
 18401              	.LASF67:
 18402 0053 795F746F 		.ascii	"y_touch\000"
 18402      75636800 
 18403              	.LASF49:
 18404 005b 70697865 		.ascii	"pixel_start\000"
 18404      6C5F7374 
 18404      61727400 
ARM GAS  C:\Users\legoc\AppData\Local\Temp\ccOlrioX.s 			page 340


 18405              	.LASF47:
 18406 0067 73747269 		.ascii	"string_length\000"
 18406      6E675F6C 
 18406      656E6774 
 18406      6800
 18407              	.LASF37:
 18408 0075 73657441 		.ascii	"setAddrWindow\000"
 18408      64647257 
 18408      696E646F 
 18408      7700
 18409              	.LASF62:
 18410 0083 53746172 		.ascii	"StartScreen\000"
 18410      74536372 
 18410      65656E00 
 18411              	.LASF38:
 18412 008f 77726974 		.ascii	"write_line\000"
 18412      655F6C69 
 18412      6E6500
 18413              	.LASF31:
 18414 009a 77726974 		.ascii	"writecommand\000"
 18414      65636F6D 
 18414      6D616E64 
 18414      00
 18415              	.LASF58:
 18416 00a7 73747269 		.ascii	"string_throwaway_x\000"
 18416      6E675F74 
 18416      68726F77 
 18416      61776179 
 18416      5F7800
 18417              	.LASF57:
 18418 00ba 73747269 		.ascii	"string_throwaway_y\000"
 18418      6E675F74 
 18418      68726F77 
 18418      61776179 
 18418      5F7900
 18419              	.LASF48:
 18420 00cd 7468655F 		.ascii	"the_string\000"
 18420      73747269 
 18420      6E6700
 18421              	.LASF16:
 18422 00d8 75696E74 		.ascii	"uint32_t\000"
 18422      33325F74 
 18422      00
 18423              	.LASF51:
 18424 00e1 795F6D61 		.ascii	"y_max\000"
 18424      7800
 18425              	.LASF59:
 18426 00e7 785F6D61 		.ascii	"x_max_step\000"
 18426      785F7374 
 18426      657000
 18427              	.LASF35:
 18428 00f2 6E756D41 		.ascii	"numArgs\000"
 18428      72677300 
 18429              	.LASF43:
 18430 00fa 74657874 		.ascii	"text_color\000"
 18430      5F636F6C 
 18430      6F7200
ARM GAS  C:\Users\legoc\AppData\Local\Temp\ccOlrioX.s 			page 341


 18431              	.LASF17:
 18432 0105 666C6F61 		.ascii	"float\000"
 18432      7400
 18433              	.LASF107:
 18434 010b 433A5C55 		.ascii	"C:\\Users\\legoc\\Documents\\School\\Senior Year\\S"
 18434      73657273 
 18434      5C6C6567 
 18434      6F635C44 
 18434      6F63756D 
 18435 0138 656E696F 		.ascii	"enior Project\\Senior Project Integrated\\Senior Pr"
 18435      72205072 
 18435      6F6A6563 
 18435      745C5365 
 18435      6E696F72 
 18436 0169 6F6A6563 		.ascii	"oject Integrated\\Design01.cydsn\000"
 18436      7420496E 
 18436      74656772 
 18436      61746564 
 18436      5C446573 
 18437              	.LASF105:
 18438 0189 474E5520 		.ascii	"GNU C11 5.4.1 20160609 (release) [ARM/embedded-5-br"
 18438      43313120 
 18438      352E342E 
 18438      31203230 
 18438      31363036 
 18439 01bc 616E6368 		.ascii	"anch revision 237715] -mcpu=cortex-m3 -mthumb -g -O"
 18439      20726576 
 18439      6973696F 
 18439      6E203233 
 18439      37373135 
 18440 01ef 33202D66 		.ascii	"3 -ffunction-sections -ffat-lto-objects\000"
 18440      66756E63 
 18440      74696F6E 
 18440      2D736563 
 18440      74696F6E 
 18441              	.LASF53:
 18442 0217 795F6D61 		.ascii	"y_max_pixel\000"
 18442      785F7069 
 18442      78656C00 
 18443              	.LASF14:
 18444 0223 696E7431 		.ascii	"int16_t\000"
 18444      365F7400 
 18445              	.LASF11:
 18446 022b 6C6F6E67 		.ascii	"long long unsigned int\000"
 18446      206C6F6E 
 18446      6720756E 
 18446      7369676E 
 18446      65642069 
 18447              	.LASF101:
 18448 0242 53535F57 		.ascii	"SS_Write\000"
 18448      72697465 
 18448      00
 18449              	.LASF106:
 18450 024b 73637265 		.ascii	"screen.c\000"
 18450      656E2E63 
 18450      00
 18451              	.LASF5:
ARM GAS  C:\Users\legoc\AppData\Local\Temp\ccOlrioX.s 			page 342


 18452 0254 5F5F7569 		.ascii	"__uint16_t\000"
 18452      6E743136 
 18452      5F7400
 18453              	.LASF68:
 18454 025f 666F6E74 		.ascii	"font_0\000"
 18454      5F3000
 18455              	.LASF69:
 18456 0266 666F6E74 		.ascii	"font_1\000"
 18456      5F3100
 18457              	.LASF70:
 18458 026d 666F6E74 		.ascii	"font_2\000"
 18458      5F3200
 18459              	.LASF71:
 18460 0274 666F6E74 		.ascii	"font_3\000"
 18460      5F3300
 18461              	.LASF72:
 18462 027b 666F6E74 		.ascii	"font_4\000"
 18462      5F3400
 18463              	.LASF73:
 18464 0282 666F6E74 		.ascii	"font_5\000"
 18464      5F3500
 18465              	.LASF74:
 18466 0289 666F6E74 		.ascii	"font_6\000"
 18466      5F3600
 18467              	.LASF75:
 18468 0290 666F6E74 		.ascii	"font_7\000"
 18468      5F3700
 18469              	.LASF76:
 18470 0297 666F6E74 		.ascii	"font_8\000"
 18470      5F3800
 18471              	.LASF77:
 18472 029e 666F6E74 		.ascii	"font_9\000"
 18472      5F3900
 18473              	.LASF24:
 18474 02a5 66696C6C 		.ascii	"fill_rect\000"
 18474      5F726563 
 18474      7400
 18475              	.LASF90:
 18476 02af 666F6E74 		.ascii	"font_A\000"
 18476      5F4100
 18477              	.LASF91:
 18478 02b6 666F6E74 		.ascii	"font_B\000"
 18478      5F4200
 18479              	.LASF92:
 18480 02bd 666F6E74 		.ascii	"font_C\000"
 18480      5F4300
 18481              	.LASF93:
 18482 02c4 666F6E74 		.ascii	"font_D\000"
 18482      5F4400
 18483              	.LASF94:
 18484 02cb 666F6E74 		.ascii	"font_E\000"
 18484      5F4500
 18485              	.LASF95:
 18486 02d2 666F6E74 		.ascii	"font_F\000"
 18486      5F4600
 18487              	.LASF96:
 18488 02d9 666F6E74 		.ascii	"font_G\000"
ARM GAS  C:\Users\legoc\AppData\Local\Temp\ccOlrioX.s 			page 343


 18488      5F4700
 18489              	.LASF88:
 18490 02e0 7373697A 		.ascii	"ssizetype\000"
 18490      65747970 
 18490      6500
 18491              	.LASF79:
 18492 02ea 666F6E74 		.ascii	"font_a\000"
 18492      5F6100
 18493              	.LASF80:
 18494 02f1 666F6E74 		.ascii	"font_b\000"
 18494      5F6200
 18495              	.LASF81:
 18496 02f8 666F6E74 		.ascii	"font_c\000"
 18496      5F6300
 18497              	.LASF82:
 18498 02ff 666F6E74 		.ascii	"font_d\000"
 18498      5F6400
 18499              	.LASF83:
 18500 0306 666F6E74 		.ascii	"font_e\000"
 18500      5F6500
 18501              	.LASF84:
 18502 030d 666F6E74 		.ascii	"font_f\000"
 18502      5F6600
 18503              	.LASF85:
 18504 0314 666F6E74 		.ascii	"font_g\000"
 18504      5F6700
 18505              	.LASF86:
 18506 031b 666F6E74 		.ascii	"font_h\000"
 18506      5F6800
 18507              	.LASF87:
 18508 0322 666F6E74 		.ascii	"font_i\000"
 18508      5F6900
 18509              	.LASF89:
 18510 0329 666F6E74 		.ascii	"font_j\000"
 18510      5F6A00
 18511              	.LASF19:
 18512 0330 63686172 		.ascii	"char\000"
 18512      00
 18513              	.LASF61:
 18514 0335 64726177 		.ascii	"draw_string\000"
 18514      5F737472 
 18514      696E6700 
 18515              	.LASF55:
 18516 0341 795F6C61 		.ascii	"y_label\000"
 18516      62656C00 
 18517              	.LASF44:
 18518 0349 73747269 		.ascii	"string\000"
 18518      6E6700
 18519              	.LASF41:
 18520 0350 64726177 		.ascii	"draw_button\000"
 18520      5F627574 
 18520      746F6E00 
 18521              	.LASF102:
 18522 035c 43794465 		.ascii	"CyDelay\000"
 18522      6C617900 
 18523              	.LASF34:
 18524 0364 64617461 		.ascii	"data\000"
ARM GAS  C:\Users\legoc\AppData\Local\Temp\ccOlrioX.s 			page 344


 18524      00
 18525              	.LASF13:
 18526 0369 75696E74 		.ascii	"uint8_t\000"
 18526      385F7400 
 18527              	.LASF29:
 18528 0371 64726177 		.ascii	"draw_line\000"
 18528      5F6C696E 
 18528      6500
 18529              	.LASF97:
 18530 037b 696E6974 		.ascii	"initcmd\000"
 18530      636D6400 
 18531              	.LASF39:
 18532 0383 73746565 		.ascii	"steep\000"
 18532      7000
 18533              	.LASF10:
 18534 0389 6C6F6E67 		.ascii	"long long int\000"
 18534      206C6F6E 
 18534      6720696E 
 18534      7400
 18535              	.LASF3:
 18536 0397 5F5F696E 		.ascii	"__int16_t\000"
 18536      7431365F 
 18536      7400
 18537              	.LASF104:
 18538 03a1 69746F61 		.ascii	"itoa\000"
 18538      00
 18539              	.LASF54:
 18540 03a6 66697665 		.ascii	"five_mA_pixel\000"
 18540      5F6D415F 
 18540      70697865 
 18540      6C00
 18541              	.LASF78:
 18542 03b4 666F6E74 		.ascii	"font_period\000"
 18542      5F706572 
 18542      696F6400 
 18543              	.LASF66:
 18544 03c0 785F746F 		.ascii	"x_touch\000"
 18544      75636800 
 18545              	.LASF32:
 18546 03c8 636F6D6D 		.ascii	"command\000"
 18546      616E6400 
 18547              	.LASF50:
 18548 03d0 64726177 		.ascii	"draw_coordinates\000"
 18548      5F636F6F 
 18548      7264696E 
 18548      61746573 
 18548      00
 18549              	.LASF65:
 18550 03e1 64726177 		.ascii	"draw_debug_screen\000"
 18550      5F646562 
 18550      75675F73 
 18550      63726565 
 18550      6E00
 18551              	.LASF28:
 18552 03f3 64726177 		.ascii	"drawFastHLine\000"
 18552      46617374 
 18552      484C696E 
ARM GAS  C:\Users\legoc\AppData\Local\Temp\ccOlrioX.s 			page 345


 18552      6500
 18553              	.LASF25:
 18554 0401 6368616E 		.ascii	"change_pixel\000"
 18554      67655F70 
 18554      6978656C 
 18554      00
 18555              	.LASF20:
 18556 040e 6C6F6E67 		.ascii	"long double\000"
 18556      20646F75 
 18556      626C6500 
 18557              	.LASF23:
 18558 041a 64726177 		.ascii	"draw_rect\000"
 18558      5F726563 
 18558      7400
 18559              	.LASF103:
 18560 0424 73707269 		.ascii	"sprintf\000"
 18560      6E746600 
 18561              	.LASF15:
 18562 042c 75696E74 		.ascii	"uint16_t\000"
 18562      31365F74 
 18562      00
 18563              	.LASF64:
 18564 0435 64726177 		.ascii	"draw_options_screen\000"
 18564      5F6F7074 
 18564      696F6E73 
 18564      5F736372 
 18564      65656E00 
 18565              	.LASF4:
 18566 0449 73686F72 		.ascii	"short int\000"
 18566      7420696E 
 18566      7400
 18567              	.LASF26:
 18568 0453 64726177 		.ascii	"draw_pixel\000"
 18568      5F706978 
 18568      656C00
 18569              	.LASF7:
 18570 045e 6C6F6E67 		.ascii	"long int\000"
 18570      20696E74 
 18570      00
 18571              	.LASF27:
 18572 0467 64726177 		.ascii	"drawFastVLine\000"
 18572      46617374 
 18572      564C696E 
 18572      6500
 18573              	.LASF98:
 18574 0475 445F435F 		.ascii	"D_C_Write\000"
 18574      57726974 
 18574      6500
 18575              	.LASF60:
 18576 047f 74656D70 		.ascii	"temp\000"
 18576      00
 18577              	.LASF22:
 18578 0484 636F6C6F 		.ascii	"color\000"
 18578      7200
 18579              	.LASF2:
 18580 048a 5F5F7569 		.ascii	"__uint8_t\000"
 18580      6E74385F 
ARM GAS  C:\Users\legoc\AppData\Local\Temp\ccOlrioX.s 			page 346


 18580      7400
 18581              	.LASF100:
 18582 0494 53535F52 		.ascii	"SS_Read\000"
 18582      65616400 
 18583              	.LASF40:
 18584 049c 79737465 		.ascii	"ystep\000"
 18584      7000
 18585              	.LASF21:
 18586 04a2 73697A65 		.ascii	"sizetype\000"
 18586      74797065 
 18586      00
 18587              	.LASF9:
 18588 04ab 6C6F6E67 		.ascii	"long unsigned int\000"
 18588      20756E73 
 18588      69676E65 
 18588      6420696E 
 18588      7400
 18589              	.LASF1:
 18590 04bd 756E7369 		.ascii	"unsigned char\000"
 18590      676E6564 
 18590      20636861 
 18590      7200
 18591              	.LASF8:
 18592 04cb 5F5F7569 		.ascii	"__uint32_t\000"
 18592      6E743332 
 18592      5F7400
 18593              	.LASF56:
 18594 04d6 785F6C61 		.ascii	"x_label\000"
 18594      62656C00 
 18595              	.LASF36:
 18596 04de 61646472 		.ascii	"addr\000"
 18596      00
 18597              	.LASF30:
 18598 04e3 66696C6C 		.ascii	"fill_screen\000"
 18598      5F736372 
 18598      65656E00 
 18599              	.LASF0:
 18600 04ef 7369676E 		.ascii	"signed char\000"
 18600      65642063 
 18600      68617200 
 18601              	.LASF6:
 18602 04fb 73686F72 		.ascii	"short unsigned int\000"
 18602      7420756E 
 18602      7369676E 
 18602      65642069 
 18602      6E7400
 18603              	.LASF99:
 18604 050e 5350494D 		.ascii	"SPIM_WriteTxData\000"
 18604      5F577269 
 18604      74655478 
 18604      44617461 
 18604      00
 18605              	.LASF18:
 18606 051f 646F7562 		.ascii	"double\000"
 18606      6C6500
 18607              	.LASF52:
 18608 0526 64657669 		.ascii	"device_selection\000"
ARM GAS  C:\Users\legoc\AppData\Local\Temp\ccOlrioX.s 			page 347


 18608      63655F73 
 18608      656C6563 
 18608      74696F6E 
 18608      00
 18609              	.LASF108:
 18610 0537 73637265 		.ascii	"screen_state\000"
 18610      656E5F73 
 18610      74617465 
 18610      00
 18611              		.ident	"GCC: (GNU Tools for ARM Embedded Processors) 5.4.1 20160609 (release) [ARM/embedded-5-bran
