ARM GAS  C:\Users\legoc\AppData\Local\Temp\cc9pXrvo.s 			page 1


   1              		.syntax unified
   2              		.cpu cortex-m3
   3              		.fpu softvfp
   4              		.eabi_attribute 20, 1
   5              		.eabi_attribute 21, 1
   6              		.eabi_attribute 23, 3
   7              		.eabi_attribute 24, 1
   8              		.eabi_attribute 25, 1
   9              		.eabi_attribute 26, 1
  10              		.eabi_attribute 30, 1
  11              		.eabi_attribute 34, 1
  12              		.eabi_attribute 18, 4
  13              		.thumb
  14              		.syntax unified
  15              		.file	"sd.c"
  16              		.text
  17              	.Ltext0:
  18              		.cfi_sections	.debug_frame
  19              		.section	.text.spi_device_select,"ax",%progbits
  20              		.align	2
  21              		.global	spi_device_select
  22              		.thumb
  23              		.thumb_func
  24              		.type	spi_device_select, %function
  25              	spi_device_select:
  26              	.LFB1:
  27              		.file 1 "sd.c"
   1:sd.c          **** //Jacob Thomas
   2:sd.c          **** //Senior Project TCNJ 2019
   3:sd.c          **** 
   4:sd.c          **** #include <FS.h>
   5:sd.c          **** #include <Global.h>
   6:sd.c          **** #include "string.h"
   7:sd.c          **** #include "stdio.h"
   8:sd.c          **** #include "sd.h"
   9:sd.c          **** #include "uifunctions.h"
  10:sd.c          **** #include "project.h"
  11:sd.c          **** 
  12:sd.c          **** void spi_device_select(int selection)
  13:sd.c          **** {
  28              		.loc 1 13 0
  29              		.cfi_startproc
  30              		@ args = 0, pretend = 0, frame = 0
  31              		@ frame_needed = 0, uses_anonymous_args = 0
  32              	.LVL0:
  33 0000 08B5     		push	{r3, lr}
  34              		.cfi_def_cfa_offset 8
  35              		.cfi_offset 3, -8
  36              		.cfi_offset 14, -4
  14:sd.c          ****     
  15:sd.c          ****     if(selection == SCREEN_SELECT)
  37              		.loc 1 15 0
  38 0002 0128     		cmp	r0, #1
  39 0004 0FD1     		bne	.L2
  16:sd.c          ****     {
  17:sd.c          ****         emFile_1_mosi0_SetDriveMode(emFile_1_mosi0_DM_DIG_HIZ);
  40              		.loc 1 17 0
ARM GAS  C:\Users\legoc\AppData\Local\Temp\cc9pXrvo.s 			page 2


  41 0006 0220     		movs	r0, #2
  42              	.LVL1:
  43 0008 FFF7FEFF 		bl	emFile_1_mosi0_SetDriveMode
  44              	.LVL2:
  18:sd.c          ****         //emFile_1_miso0_SetDriveMode(emFile_1_miso0_DM_DIG_HIZ);
  19:sd.c          ****         emFile_1_sclk0_SetDriveMode(emFile_1_sclk0_DM_DIG_HIZ);
  45              		.loc 1 19 0
  46 000c 0220     		movs	r0, #2
  47 000e FFF7FEFF 		bl	emFile_1_sclk0_SetDriveMode
  48              	.LVL3:
  20:sd.c          ****         
  21:sd.c          ****         
  22:sd.c          ****         MOSI_SetDriveMode(MOSI_DM_STRONG);
  49              		.loc 1 22 0
  50 0012 0C20     		movs	r0, #12
  51 0014 FFF7FEFF 		bl	MOSI_SetDriveMode
  52              	.LVL4:
  23:sd.c          ****         MISO_SetDriveMode(MISO_DM_STRONG);
  53              		.loc 1 23 0
  54 0018 0C20     		movs	r0, #12
  55 001a FFF7FEFF 		bl	MISO_SetDriveMode
  56              	.LVL5:
  24:sd.c          ****         CLK_SetDriveMode(CLK_DM_STRONG);
  57              		.loc 1 24 0
  58 001e 0C20     		movs	r0, #12
  59 0020 FFF7FEFF 		bl	CLK_SetDriveMode
  60              	.LVL6:
  61 0024 08BD     		pop	{r3, pc}
  62              	.LVL7:
  63              	.L2:
  25:sd.c          ****         
  26:sd.c          ****     } else if (selection == SD_SELECT)
  64              		.loc 1 26 0
  65 0026 0228     		cmp	r0, #2
  66 0028 0ED1     		bne	.L1
  27:sd.c          ****     {
  28:sd.c          ****         emFile_1_mosi0_SetDriveMode(emFile_1_mosi0_DM_STRONG);
  67              		.loc 1 28 0
  68 002a 0C20     		movs	r0, #12
  69              	.LVL8:
  70 002c FFF7FEFF 		bl	emFile_1_mosi0_SetDriveMode
  71              	.LVL9:
  29:sd.c          ****         //emFile_1_miso0_SetDriveMode(emFile_1_miso0_DM_DIG_HIZ);
  30:sd.c          ****         emFile_1_sclk0_SetDriveMode(emFile_1_sclk0_DM_STRONG);
  72              		.loc 1 30 0
  73 0030 0C20     		movs	r0, #12
  74 0032 FFF7FEFF 		bl	emFile_1_sclk0_SetDriveMode
  75              	.LVL10:
  31:sd.c          ****         
  32:sd.c          ****         MOSI_SetDriveMode(MOSI_DM_DIG_HIZ);
  76              		.loc 1 32 0
  77 0036 0220     		movs	r0, #2
  78 0038 FFF7FEFF 		bl	MOSI_SetDriveMode
  79              	.LVL11:
  33:sd.c          ****         MISO_SetDriveMode(MISO_DM_DIG_HIZ);
  80              		.loc 1 33 0
  81 003c 0220     		movs	r0, #2
ARM GAS  C:\Users\legoc\AppData\Local\Temp\cc9pXrvo.s 			page 3


  82 003e FFF7FEFF 		bl	MISO_SetDriveMode
  83              	.LVL12:
  34:sd.c          ****         CLK_SetDriveMode(CLK_DM_DIG_HIZ);
  84              		.loc 1 34 0
  85 0042 0220     		movs	r0, #2
  86 0044 FFF7FEFF 		bl	CLK_SetDriveMode
  87              	.LVL13:
  88              	.L1:
  89 0048 08BD     		pop	{r3, pc}
  90              		.cfi_endproc
  91              	.LFE1:
  92              		.size	spi_device_select, .-spi_device_select
  93 004a 00BF     		.section	.text.create_file_with_text,"ax",%progbits
  94              		.align	2
  95              		.global	create_file_with_text
  96              		.thumb
  97              		.thumb_func
  98              		.type	create_file_with_text, %function
  99              	create_file_with_text:
 100              	.LFB2:
  35:sd.c          ****     }
  36:sd.c          **** }
  37:sd.c          ****     
  38:sd.c          **** 
  39:sd.c          **** //This is the backend for implementing CSV support for Curve Tracer
  40:sd.c          **** 
  41:sd.c          **** //To be Implemented
  42:sd.c          **** 
  43:sd.c          **** //unsigned int move_file_with_same_name(char file_name[], unsigned int i)
  44:sd.c          **** //{
  45:sd.c          **** //    char file_name_ext[5];
  46:sd.c          **** //    char file_name_title[strlen(file_name)+1];
  47:sd.c          **** //    char new_file_name[strlen(file_name)+2];
  48:sd.c          **** //    
  49:sd.c          **** //    strcpy(file_name_ext,&file_name[strlen(file_name)-4]);
  50:sd.c          **** //    strncpy(file_name_title
  51:sd.c          **** //    //determine if file exists
  52:sd.c          **** //    strcat(new_file_name
  53:sd.c          **** //    FS_Rename(file_name,
  54:sd.c          **** //}
  55:sd.c          **** 
  56:sd.c          **** //used to create or overwrite a file
  57:sd.c          **** void create_file_with_text(char * file_name, char * text)
  58:sd.c          **** {
 101              		.loc 1 58 0
 102              		.cfi_startproc
 103              		@ args = 0, pretend = 0, frame = 0
 104              		@ frame_needed = 0, uses_anonymous_args = 0
 105              	.LVL14:
 106 0000 38B5     		push	{r3, r4, r5, lr}
 107              		.cfi_def_cfa_offset 16
 108              		.cfi_offset 3, -16
 109              		.cfi_offset 4, -12
 110              		.cfi_offset 5, -8
 111              		.cfi_offset 14, -4
 112 0002 0D46     		mov	r5, r1
  59:sd.c          ****     //char * file_name name + extension of file to be overwritten
ARM GAS  C:\Users\legoc\AppData\Local\Temp\cc9pXrvo.s 			page 4


  60:sd.c          ****     //char * text text to be written to file
  61:sd.c          ****     FS_FILE * pFile;
  62:sd.c          ****     
  63:sd.c          ****     pFile = FS_FOpen(file_name, "w+");
 113              		.loc 1 63 0
 114 0004 0749     		ldr	r1, .L7
 115              	.LVL15:
 116 0006 FFF7FEFF 		bl	FS_FOpen
 117              	.LVL16:
 118 000a 0446     		mov	r4, r0
 119              	.LVL17:
  64:sd.c          ****     FS_Write(pFile,text,strlen(text));
 120              		.loc 1 64 0
 121 000c 2846     		mov	r0, r5
 122              	.LVL18:
 123 000e FFF7FEFF 		bl	strlen
 124              	.LVL19:
 125 0012 0246     		mov	r2, r0
 126 0014 2946     		mov	r1, r5
 127 0016 2046     		mov	r0, r4
 128 0018 FFF7FEFF 		bl	FS_Write
 129              	.LVL20:
  65:sd.c          ****     FS_FClose(pFile);
 130              		.loc 1 65 0
 131 001c 2046     		mov	r0, r4
 132 001e FFF7FEFF 		bl	FS_FClose
 133              	.LVL21:
 134 0022 38BD     		pop	{r3, r4, r5, pc}
 135              	.LVL22:
 136              	.L8:
 137              		.align	2
 138              	.L7:
 139 0024 00000000 		.word	.LC0
 140              		.cfi_endproc
 141              	.LFE2:
 142              		.size	create_file_with_text, .-create_file_with_text
 143              		.section	.text.append_file,"ax",%progbits
 144              		.align	2
 145              		.global	append_file
 146              		.thumb
 147              		.thumb_func
 148              		.type	append_file, %function
 149              	append_file:
 150              	.LFB3:
  66:sd.c          **** }
  67:sd.c          **** 
  68:sd.c          **** //used to append a file
  69:sd.c          **** void append_file(char * file_name, char * text)
  70:sd.c          **** {
 151              		.loc 1 70 0
 152              		.cfi_startproc
 153              		@ args = 0, pretend = 0, frame = 0
 154              		@ frame_needed = 0, uses_anonymous_args = 0
 155              	.LVL23:
 156 0000 38B5     		push	{r3, r4, r5, lr}
 157              		.cfi_def_cfa_offset 16
 158              		.cfi_offset 3, -16
ARM GAS  C:\Users\legoc\AppData\Local\Temp\cc9pXrvo.s 			page 5


 159              		.cfi_offset 4, -12
 160              		.cfi_offset 5, -8
 161              		.cfi_offset 14, -4
 162 0002 0D46     		mov	r5, r1
  71:sd.c          ****     //char * file_name name + extension of file to be appended 
  72:sd.c          ****     //char * text text to be written to file
  73:sd.c          ****     FS_FILE * pFile;
  74:sd.c          ****     pFile = FS_FOpen(file_name, "a");
 163              		.loc 1 74 0
 164 0004 0749     		ldr	r1, .L11
 165              	.LVL24:
 166 0006 FFF7FEFF 		bl	FS_FOpen
 167              	.LVL25:
 168 000a 0446     		mov	r4, r0
 169              	.LVL26:
  75:sd.c          ****     FS_Write(pFile,text,strlen(text));
 170              		.loc 1 75 0
 171 000c 2846     		mov	r0, r5
 172              	.LVL27:
 173 000e FFF7FEFF 		bl	strlen
 174              	.LVL28:
 175 0012 0246     		mov	r2, r0
 176 0014 2946     		mov	r1, r5
 177 0016 2046     		mov	r0, r4
 178 0018 FFF7FEFF 		bl	FS_Write
 179              	.LVL29:
  76:sd.c          ****     FS_FClose(pFile);
 180              		.loc 1 76 0
 181 001c 2046     		mov	r0, r4
 182 001e FFF7FEFF 		bl	FS_FClose
 183              	.LVL30:
 184 0022 38BD     		pop	{r3, r4, r5, pc}
 185              	.LVL31:
 186              	.L12:
 187              		.align	2
 188              	.L11:
 189 0024 04000000 		.word	.LC1
 190              		.cfi_endproc
 191              	.LFE3:
 192              		.size	append_file, .-append_file
 193              		.section	.text.write_header_info,"ax",%progbits
 194              		.align	2
 195              		.global	write_header_info
 196              		.thumb
 197              		.thumb_func
 198              		.type	write_header_info, %function
 199              	write_header_info:
 200              	.LFB4:
  77:sd.c          **** }
  78:sd.c          **** //This function is exclusive to the Curve Tracer
  79:sd.c          **** //This will write the unit note for currents
  80:sd.c          **** //it will also label Vgs/Ib, Ic/Id, and Vds/Vce 
  81:sd.c          **** void write_header_info(char * file_name, unsigned char device_selection, unsigned char curve_num, d
  82:sd.c          **** {
 201              		.loc 1 82 0
 202              		.cfi_startproc
 203              		@ args = 0, pretend = 0, frame = 128
ARM GAS  C:\Users\legoc\AppData\Local\Temp\cc9pXrvo.s 			page 6


 204              		@ frame_needed = 0, uses_anonymous_args = 0
 205              	.LVL32:
 206 0000 2DE9F043 		push	{r4, r5, r6, r7, r8, r9, lr}
 207              		.cfi_def_cfa_offset 28
 208              		.cfi_offset 4, -28
 209              		.cfi_offset 5, -24
 210              		.cfi_offset 6, -20
 211              		.cfi_offset 7, -16
 212              		.cfi_offset 8, -12
 213              		.cfi_offset 9, -8
 214              		.cfi_offset 14, -4
 215 0004 A1B0     		sub	sp, sp, #132
 216              		.cfi_def_cfa_offset 160
 217 0006 0646     		mov	r6, r0
 218 0008 0F46     		mov	r7, r1
 219 000a 9146     		mov	r9, r2
 220 000c 9846     		mov	r8, r3
  83:sd.c          ****     spi_device_select(SD_SELECT);
 221              		.loc 1 83 0
 222 000e 0220     		movs	r0, #2
 223              	.LVL33:
 224 0010 FFF7FEFF 		bl	spi_device_select
 225              	.LVL34:
  84:sd.c          ****     //file_name is the char array of the file with extension to be overwritten
  85:sd.c          ****     //device_selection is the type of test (NMOS, NPN,PMOS,PNP) being run effects label
  86:sd.c          ****     //curve num is the current VGS iteration
  87:sd.c          ****     //Vgs_double is the Vgs/Ib (in reality) in double format 
  88:sd.c          ****     char y_label[2][3];
  89:sd.c          ****     strcpy(y_label[0], "Id"); //N Type Test
 226              		.loc 1 89 0
 227 0014 404B     		ldr	r3, .L16
 228 0016 1B68     		ldr	r3, [r3]
 229 0018 ADF87830 		strh	r3, [sp, #120]	@ movhi
 230 001c 1B0C     		lsrs	r3, r3, #16
 231 001e 8DF87A30 		strb	r3, [sp, #122]
  90:sd.c          ****     strcpy(y_label[1], "Ic"); //P Type Test 
 232              		.loc 1 90 0
 233 0022 3E4B     		ldr	r3, .L16+4
 234 0024 1A88     		ldrh	r2, [r3]	@ unaligned
 235 0026 9B78     		ldrb	r3, [r3, #2]	@ zero_extendqisi2
 236 0028 ADF87B20 		strh	r2, [sp, #123]	@ unaligned
 237 002c 8DF87D30 		strb	r3, [sp, #125]
  91:sd.c          ****     char x_label[2][4];
  92:sd.c          ****     strcpy(x_label[0],"Vds"); //N Type Test
 238              		.loc 1 92 0
 239 0030 3B4B     		ldr	r3, .L16+8
 240 0032 1C93     		str	r3, [sp, #112]
  93:sd.c          ****     strcpy(x_label[1],"Vce"); //P Type Test
 241              		.loc 1 93 0
 242 0034 03F1FF23 		add	r3, r3, #-16711936
 243 0038 03F57103 		add	r3, r3, #15794176
 244 003c 1D93     		str	r3, [sp, #116]
  94:sd.c          ****     char legend_label[2][4];
  95:sd.c          ****     strcpy(legend_label[0], "Vgs"); //N Type Test
 245              		.loc 1 95 0
 246 003e 03F56023 		add	r3, r3, #917504
 247 0042 03F58063 		add	r3, r3, #1024
ARM GAS  C:\Users\legoc\AppData\Local\Temp\cc9pXrvo.s 			page 7


 248 0046 1A93     		str	r3, [sp, #104]
  96:sd.c          ****     strcpy(legend_label[1], "Ib");  //P Type Test
 249              		.loc 1 96 0
 250 0048 364B     		ldr	r3, .L16+12
 251 004a 1B68     		ldr	r3, [r3]
 252 004c ADF86C30 		strh	r3, [sp, #108]	@ movhi
 253 0050 1B0C     		lsrs	r3, r3, #16
 254 0052 8DF86E30 		strb	r3, [sp, #110]
  97:sd.c          ****     char temp_str[5];
  98:sd.c          ****     char beginning_message[] = "*Note all currents are in mA, all other units are SI*\n";
 255              		.loc 1 98 0
 256 0056 0AAC     		add	r4, sp, #40
 257 0058 334D     		ldr	r5, .L16+16
 258 005a 0FCD     		ldmia	r5!, {r0, r1, r2, r3}
 259 005c 0FC4     		stmia	r4!, {r0, r1, r2, r3}
 260 005e 0FCD     		ldmia	r5!, {r0, r1, r2, r3}
 261 0060 0FC4     		stmia	r4!, {r0, r1, r2, r3}
 262 0062 0FCD     		ldmia	r5!, {r0, r1, r2, r3}
 263 0064 0FC4     		stmia	r4!, {r0, r1, r2, r3}
 264 0066 95E80300 		ldmia	r5, {r0, r1}
 265 006a 44F8040B 		str	r0, [r4], #4
 266 006e 24F8021B 		strh	r1, [r4], #2	@ movhi
 267 0072 090C     		lsrs	r1, r1, #16
 268 0074 2170     		strb	r1, [r4]
  99:sd.c          ****     char options_str[35];
 100:sd.c          ****     if(!curve_num)
 269              		.loc 1 100 0
 270 0076 B9F1000F 		cmp	r9, #0
 271 007a 17D1     		bne	.L14
 101:sd.c          ****     {
 102:sd.c          ****         create_file_with_text(file_name, beginning_message);
 272              		.loc 1 102 0
 273 007c 0AA9     		add	r1, sp, #40
 274 007e 3046     		mov	r0, r6
 275 0080 FFF7FEFF 		bl	create_file_with_text
 276              	.LVL35:
 103:sd.c          ****         sprintf(options_str,"Averages Per Point: %d\n",num_avg);
 277              		.loc 1 103 0
 278 0084 294B     		ldr	r3, .L16+20
 279 0086 1A68     		ldr	r2, [r3]
 280 0088 2949     		ldr	r1, .L16+24
 281 008a 01A8     		add	r0, sp, #4
 282 008c FFF7FEFF 		bl	sprintf
 283              	.LVL36:
 104:sd.c          ****         append_file(file_name,options_str);
 284              		.loc 1 104 0
 285 0090 01A9     		add	r1, sp, #4
 286 0092 3046     		mov	r0, r6
 287 0094 FFF7FEFF 		bl	append_file
 288              	.LVL37:
 105:sd.c          ****         sprintf(options_str,"Cooldown milliseconds: %d\n",cooldown_time);
 289              		.loc 1 105 0
 290 0098 264B     		ldr	r3, .L16+28
 291 009a 1A68     		ldr	r2, [r3]
 292 009c 2649     		ldr	r1, .L16+32
 293 009e 01A8     		add	r0, sp, #4
 294 00a0 FFF7FEFF 		bl	sprintf
ARM GAS  C:\Users\legoc\AppData\Local\Temp\cc9pXrvo.s 			page 8


 295              	.LVL38:
 106:sd.c          ****         append_file(file_name,options_str);
 296              		.loc 1 106 0
 297 00a4 01A9     		add	r1, sp, #4
 298 00a6 3046     		mov	r0, r6
 299 00a8 FFF7FEFF 		bl	append_file
 300              	.LVL39:
 301              	.L14:
 107:sd.c          ****     }
 108:sd.c          ****     //Vgs = x.xxx OR Ib = x.xxx
 109:sd.c          ****     append_file(file_name,legend_label[device_selection/2]);
 302              		.loc 1 109 0
 303 00ac 7C08     		lsrs	r4, r7, #1
 304 00ae A700     		lsls	r7, r4, #2
 305 00b0 1AAB     		add	r3, sp, #104
 306 00b2 D919     		adds	r1, r3, r7
 307 00b4 3046     		mov	r0, r6
 308 00b6 FFF7FEFF 		bl	append_file
 309              	.LVL40:
 110:sd.c          ****     append_file(file_name,"=");
 310              		.loc 1 110 0
 311 00ba 2049     		ldr	r1, .L16+36
 312 00bc 3046     		mov	r0, r6
 313 00be FFF7FEFF 		bl	append_file
 314              	.LVL41:
 111:sd.c          ****     sprintf(temp_str,"%.3f",Vgs_double[curve_num]); //write Vgs/Ib double to string
 315              		.loc 1 111 0
 316 00c2 08EBC908 		add	r8, r8, r9, lsl #3
 317              	.LVL42:
 318 00c6 D8E90023 		ldrd	r2, [r8]
 319 00ca 1D49     		ldr	r1, .L16+40
 320 00cc 18A8     		add	r0, sp, #96
 321 00ce FFF7FEFF 		bl	sprintf
 322              	.LVL43:
 112:sd.c          ****     //Id;Vds OR Ic;Vce
 113:sd.c          ****     append_file(file_name,temp_str);//print Vgs/Ib value to CSV
 323              		.loc 1 113 0
 324 00d2 18A9     		add	r1, sp, #96
 325 00d4 3046     		mov	r0, r6
 326 00d6 FFF7FEFF 		bl	append_file
 327              	.LVL44:
 114:sd.c          ****     append_file(file_name,"\n");//create new lne
 328              		.loc 1 114 0
 329 00da 1A4D     		ldr	r5, .L16+44
 330 00dc 2946     		mov	r1, r5
 331 00de 3046     		mov	r0, r6
 332 00e0 FFF7FEFF 		bl	append_file
 333              	.LVL45:
 115:sd.c          ****     append_file(file_name,y_label[device_selection/2]);
 334              		.loc 1 115 0
 335 00e4 04EB4401 		add	r1, r4, r4, lsl #1
 336 00e8 1EAB     		add	r3, sp, #120
 337 00ea 1944     		add	r1, r1, r3
 338 00ec 3046     		mov	r0, r6
 339 00ee FFF7FEFF 		bl	append_file
 340              	.LVL46:
 116:sd.c          ****     append_file(file_name,",");//comma seperation
ARM GAS  C:\Users\legoc\AppData\Local\Temp\cc9pXrvo.s 			page 9


 341              		.loc 1 116 0
 342 00f2 1549     		ldr	r1, .L16+48
 343 00f4 3046     		mov	r0, r6
 344 00f6 FFF7FEFF 		bl	append_file
 345              	.LVL47:
 117:sd.c          ****     append_file(file_name,x_label[device_selection/2]);
 346              		.loc 1 117 0
 347 00fa 1CAB     		add	r3, sp, #112
 348 00fc D919     		adds	r1, r3, r7
 349 00fe 3046     		mov	r0, r6
 350 0100 FFF7FEFF 		bl	append_file
 351              	.LVL48:
 118:sd.c          ****     append_file(file_name,"\n");//create new line
 352              		.loc 1 118 0
 353 0104 2946     		mov	r1, r5
 354 0106 3046     		mov	r0, r6
 355 0108 FFF7FEFF 		bl	append_file
 356              	.LVL49:
 119:sd.c          ****     spi_device_select(SCREEN_SELECT);
 357              		.loc 1 119 0
 358 010c 0120     		movs	r0, #1
 359 010e FFF7FEFF 		bl	spi_device_select
 360              	.LVL50:
 120:sd.c          **** }
 361              		.loc 1 120 0
 362 0112 21B0     		add	sp, sp, #132
 363              		.cfi_def_cfa_offset 28
 364              		@ sp needed
 365 0114 BDE8F083 		pop	{r4, r5, r6, r7, r8, r9, pc}
 366              	.LVL51:
 367              	.L17:
 368              		.align	2
 369              	.L16:
 370 0118 54000000 		.word	.LC2
 371 011c 58000000 		.word	.LC3
 372 0120 56647300 		.word	7562326
 373 0124 08000000 		.word	.LC4
 374 0128 5C000000 		.word	.LC5
 375 012c 00000000 		.word	num_avg
 376 0130 0C000000 		.word	.LC6
 377 0134 00000000 		.word	cooldown_time
 378 0138 24000000 		.word	.LC7
 379 013c 40000000 		.word	.LC8
 380 0140 44000000 		.word	.LC9
 381 0144 4C000000 		.word	.LC10
 382 0148 50000000 		.word	.LC11
 383              		.cfi_endproc
 384              	.LFE4:
 385              		.size	write_header_info, .-write_header_info
 386              		.global	__aeabi_i2d
 387              		.global	__aeabi_dmul
 388              		.section	.text.write_data,"ax",%progbits
 389              		.align	2
 390              		.global	write_data
 391              		.thumb
 392              		.thumb_func
 393              		.type	write_data, %function
ARM GAS  C:\Users\legoc\AppData\Local\Temp\cc9pXrvo.s 			page 10


 394              	write_data:
 395              	.LFB5:
 121:sd.c          **** 
 122:sd.c          **** void write_data(char * file_name, double Id, unsigned char Vds_code, unsigned char device_selection
 123:sd.c          **** {
 396              		.loc 1 123 0
 397              		.cfi_startproc
 398              		@ args = 8, pretend = 0, frame = 16
 399              		@ frame_needed = 0, uses_anonymous_args = 0
 400              	.LVL52:
 401 0000 2DE9F043 		push	{r4, r5, r6, r7, r8, r9, lr}
 402              		.cfi_def_cfa_offset 28
 403              		.cfi_offset 4, -28
 404              		.cfi_offset 5, -24
 405              		.cfi_offset 6, -20
 406              		.cfi_offset 7, -16
 407              		.cfi_offset 8, -12
 408              		.cfi_offset 9, -8
 409              		.cfi_offset 14, -4
 410 0004 85B0     		sub	sp, sp, #20
 411              		.cfi_def_cfa_offset 48
 412 0006 0446     		mov	r4, r0
 413 0008 1646     		mov	r6, r2
 414 000a 1F46     		mov	r7, r3
 415 000c 9DF83050 		ldrb	r5, [sp, #48]	@ zero_extendqisi2
 124:sd.c          ****     spi_device_select(SD_SELECT);
 416              		.loc 1 124 0
 417 0010 0220     		movs	r0, #2
 418              	.LVL53:
 419 0012 FFF7FEFF 		bl	spi_device_select
 420              	.LVL54:
 125:sd.c          ****     char temp_str[10];  //temp string to be used to move doubles to
 126:sd.c          ****     double Vds;         //Used to convert the VDAC code to real value
 127:sd.c          ****     if(device_selection < 2)
 421              		.loc 1 127 0
 422 0016 9DF83430 		ldrb	r3, [sp, #52]	@ zero_extendqisi2
 423 001a 012B     		cmp	r3, #1
 424 001c 12D8     		bhi	.L19
 128:sd.c          ****     {
 129:sd.c          ****         Vds = Vds_code/256.0*4.096*3; //Vds double in N Type tests
 425              		.loc 1 129 0
 426 001e 2846     		mov	r0, r5
 427 0020 FFF7FEFF 		bl	__aeabi_i2d
 428              	.LVL55:
 429 0024 0022     		movs	r2, #0
 430 0026 244B     		ldr	r3, .L22+8
 431 0028 FFF7FEFF 		bl	__aeabi_dmul
 432              	.LVL56:
 433 002c 20A3     		adr	r3, .L22
 434 002e D3E90023 		ldrd	r2, [r3]
 435 0032 FFF7FEFF 		bl	__aeabi_dmul
 436              	.LVL57:
 437 0036 0022     		movs	r2, #0
 438 0038 204B     		ldr	r3, .L22+12
 439 003a FFF7FEFF 		bl	__aeabi_dmul
 440              	.LVL58:
 441 003e 8046     		mov	r8, r0
ARM GAS  C:\Users\legoc\AppData\Local\Temp\cc9pXrvo.s 			page 11


 442 0040 8946     		mov	r9, r1
 443              	.LVL59:
 444 0042 11E0     		b	.L20
 445              	.LVL60:
 446              	.L19:
 130:sd.c          ****     }
 131:sd.c          ****     else
 132:sd.c          ****     {
 133:sd.c          ****         Vds = Vds_code/256.0*4.096*4;//Vds double in P Type Tests
 447              		.loc 1 133 0
 448 0044 2846     		mov	r0, r5
 449 0046 FFF7FEFF 		bl	__aeabi_i2d
 450              	.LVL61:
 451 004a 0022     		movs	r2, #0
 452 004c 1A4B     		ldr	r3, .L22+8
 453 004e FFF7FEFF 		bl	__aeabi_dmul
 454              	.LVL62:
 455 0052 17A3     		adr	r3, .L22
 456 0054 D3E90023 		ldrd	r2, [r3]
 457 0058 FFF7FEFF 		bl	__aeabi_dmul
 458              	.LVL63:
 459 005c 0022     		movs	r2, #0
 460 005e 184B     		ldr	r3, .L22+16
 461 0060 FFF7FEFF 		bl	__aeabi_dmul
 462              	.LVL64:
 463 0064 8046     		mov	r8, r0
 464 0066 8946     		mov	r9, r1
 465              	.LVL65:
 466              	.L20:
 134:sd.c          ****     }
 135:sd.c          ****     sprintf(temp_str,"%9f",Id);
 467              		.loc 1 135 0
 468 0068 3246     		mov	r2, r6
 469 006a 3B46     		mov	r3, r7
 470 006c 1549     		ldr	r1, .L22+20
 471 006e 01A8     		add	r0, sp, #4
 472 0070 FFF7FEFF 		bl	sprintf
 473              	.LVL66:
 136:sd.c          ****     append_file(file_name,temp_str);//print Id Value
 474              		.loc 1 136 0
 475 0074 01A9     		add	r1, sp, #4
 476 0076 2046     		mov	r0, r4
 477 0078 FFF7FEFF 		bl	append_file
 478              	.LVL67:
 137:sd.c          ****     append_file(file_name,",");//comma sepeperation
 479              		.loc 1 137 0
 480 007c 1249     		ldr	r1, .L22+24
 481 007e 2046     		mov	r0, r4
 482 0080 FFF7FEFF 		bl	append_file
 483              	.LVL68:
 138:sd.c          ****     sprintf(temp_str,"%5f",Vds);
 484              		.loc 1 138 0
 485 0084 4246     		mov	r2, r8
 486 0086 4B46     		mov	r3, r9
 487 0088 1049     		ldr	r1, .L22+28
 488 008a 01A8     		add	r0, sp, #4
 489 008c FFF7FEFF 		bl	sprintf
ARM GAS  C:\Users\legoc\AppData\Local\Temp\cc9pXrvo.s 			page 12


 490              	.LVL69:
 139:sd.c          ****     append_file(file_name,temp_str); //print Vds value
 491              		.loc 1 139 0
 492 0090 01A9     		add	r1, sp, #4
 493 0092 2046     		mov	r0, r4
 494 0094 FFF7FEFF 		bl	append_file
 495              	.LVL70:
 140:sd.c          ****     append_file(file_name,"\n");//create new line
 496              		.loc 1 140 0
 497 0098 0D49     		ldr	r1, .L22+32
 498 009a 2046     		mov	r0, r4
 499 009c FFF7FEFF 		bl	append_file
 500              	.LVL71:
 141:sd.c          ****     spi_device_select(SCREEN_SELECT);
 501              		.loc 1 141 0
 502 00a0 0120     		movs	r0, #1
 503 00a2 FFF7FEFF 		bl	spi_device_select
 504              	.LVL72:
 142:sd.c          **** }...
 505              		.loc 1 142 0
 506 00a6 05B0     		add	sp, sp, #20
 507              		.cfi_def_cfa_offset 28
 508              		@ sp needed
 509 00a8 BDE8F083 		pop	{r4, r5, r6, r7, r8, r9, pc}
 510              	.LVL73:
 511              	.L23:
 512 00ac AFF30080 		.align	3
 513              	.L22:
 514 00b0 FCA9F1D2 		.word	-755914244
 515 00b4 4D621040 		.word	1074815565
 516 00b8 0000703F 		.word	1064304640
 517 00bc 00000840 		.word	1074266112
 518 00c0 00001040 		.word	1074790400
 519 00c4 94000000 		.word	.LC12
 520 00c8 50000000 		.word	.LC11
 521 00cc 98000000 		.word	.LC13
 522 00d0 4C000000 		.word	.LC10
 523              		.cfi_endproc
 524              	.LFE5:
 525              		.size	write_data, .-write_data
 526              		.section	.rodata.str1.4,"aMS",%progbits,1
 527              		.align	2
 528              	.LC0:
 529 0000 772B00   		.ascii	"w+\000"
 530 0003 00       		.space	1
 531              	.LC1:
 532 0004 6100     		.ascii	"a\000"
 533 0006 0000     		.space	2
 534              	.LC4:
 535 0008 496200   		.ascii	"Ib\000"
 536 000b 00       		.space	1
 537              	.LC6:
 538 000c 41766572 		.ascii	"Averages Per Point: %d\012\000"
 538      61676573 
 538      20506572 
 538      20506F69 
 538      6E743A20 
ARM GAS  C:\Users\legoc\AppData\Local\Temp\cc9pXrvo.s 			page 13


 539              	.LC7:
 540 0024 436F6F6C 		.ascii	"Cooldown milliseconds: %d\012\000"
 540      646F776E 
 540      206D696C 
 540      6C697365 
 540      636F6E64 
 541 003f 00       		.space	1
 542              	.LC8:
 543 0040 3D00     		.ascii	"=\000"
 544 0042 0000     		.space	2
 545              	.LC9:
 546 0044 252E3366 		.ascii	"%.3f\000"
 546      00
 547 0049 000000   		.space	3
 548              	.LC10:
 549 004c 0A00     		.ascii	"\012\000"
 550 004e 0000     		.space	2
 551              	.LC11:
 552 0050 2C00     		.ascii	",\000"
 553 0052 0000     		.space	2
 554              	.LC2:
 555 0054 496400   		.ascii	"Id\000"
 556 0057 00       		.space	1
 557              	.LC3:
 558 0058 496300   		.ascii	"Ic\000"
 559 005b 00       		.space	1
 560              	.LC5:
 561 005c 2A4E6F74 		.ascii	"*Note all currents are in mA, all other units are S"
 561      6520616C 
 561      6C206375 
 561      7272656E 
 561      74732061 
 562 008f 492A0A00 		.ascii	"I*\012\000"
 563 0093 00       		.space	1
 564              	.LC12:
 565 0094 25396600 		.ascii	"%9f\000"
 566              	.LC13:
 567 0098 25356600 		.ascii	"%5f\000"
 568              		.text
 569              	.Letext0:
 570              		.file 2 ".\\emFile_V322c\\Code\\Include\\PSoC5/FS_Types.h"
 571              		.file 3 "Generated_Source\\PSoC5/cytypes.h"
 572              		.file 4 "uifunctions.h"
 573              		.file 5 "Generated_Source\\PSoC5/emFile_1_mosi0.h"
 574              		.file 6 "Generated_Source\\PSoC5/emFile_1_sclk0.h"
 575              		.file 7 "Generated_Source\\PSoC5/MOSI.h"
 576              		.file 8 "Generated_Source\\PSoC5/MISO.h"
 577              		.file 9 "Generated_Source\\PSoC5/CLK.h"
 578              		.file 10 ".\\emFile_V322c\\Code\\Include\\PSoC5/FS.h"
 579              		.file 11 "d:\\psoc\\psoc creator\\4.2\\psoc creator\\import\\gnu\\arm\\5.4.1\\arm-none-eabi\\inclu
 580              		.file 12 "d:\\psoc\\psoc creator\\4.2\\psoc creator\\import\\gnu\\arm\\5.4.1\\arm-none-eabi\\inclu