ARM GAS  C:\Users\legoc\AppData\Local\Temp\ccZzn6ce.s 			page 1


   1              		.syntax unified
   2              		.cpu cortex-m3
   3              		.fpu softvfp
   4              		.eabi_attribute 20, 1
   5              		.eabi_attribute 21, 1
   6              		.eabi_attribute 23, 3
   7              		.eabi_attribute 24, 1
   8              		.eabi_attribute 25, 1
   9              		.eabi_attribute 26, 1
  10              		.eabi_attribute 30, 1
  11              		.eabi_attribute 34, 1
  12              		.eabi_attribute 18, 4
  13              		.thumb
  14              		.syntax unified
  15              		.file	"uifunctions.c"
  16              		.text
  17              	.Ltext0:
  18              		.cfi_sections	.debug_frame
  19              		.global	__aeabi_i2d
  20              		.global	__aeabi_dmul
  21              		.global	__aeabi_d2iz
  22              		.global	__aeabi_ddiv
  23              		.section	.text.ui_control,"ax",%progbits
  24              		.align	2
  25              		.global	ui_control
  26              		.thumb
  27              		.thumb_func
  28              		.type	ui_control, %function
  29              	ui_control:
  30              	.LFB1:
  31              		.file 1 "uifunctions.c"
   1:uifunctions.c **** #include "project.h"
   2:uifunctions.c **** #include "screen.h"
   3:uifunctions.c **** #include "font.h"
   4:uifunctions.c **** #include "strings.h"
   5:uifunctions.c **** #include "string.h"
   6:uifunctions.c **** #include "stdio.h"
   7:uifunctions.c **** #include "stdlib.h"
   8:uifunctions.c **** #include "math.h"
   9:uifunctions.c **** #include "font.h"
  10:uifunctions.c **** #include "uifunctions.h"
  11:uifunctions.c **** 
  12:uifunctions.c **** int screen_state = 0;
  13:uifunctions.c **** int device_selection = -1;
  14:uifunctions.c **** int curve_nums = 4;
  15:uifunctions.c **** int write_sd = 1;
  16:uifunctions.c **** int num_avg = 10;
  17:uifunctions.c **** int draw_grid = 1;
  18:uifunctions.c **** int rand_num_1 = 0;
  19:uifunctions.c **** int rand_num_2 = 0;
  20:uifunctions.c **** int cooldown_time = 0;
  21:uifunctions.c **** int vds_high = 9;
  22:uifunctions.c **** int vds_high_vdac_code = 188;
  23:uifunctions.c **** 
  24:uifunctions.c **** void ui_control(uint16_t x, uint16_t y)
  25:uifunctions.c **** {
  32              		.loc 1 25 0
ARM GAS  C:\Users\legoc\AppData\Local\Temp\ccZzn6ce.s 			page 2


  33              		.cfi_startproc
  34              		@ args = 0, pretend = 0, frame = 8
  35              		@ frame_needed = 0, uses_anonymous_args = 0
  36              	.LVL0:
  37 0000 30B5     		push	{r4, r5, lr}
  38              		.cfi_def_cfa_offset 12
  39              		.cfi_offset 4, -12
  40              		.cfi_offset 5, -8
  41              		.cfi_offset 14, -4
  42 0002 87B0     		sub	sp, sp, #28
  43              		.cfi_def_cfa_offset 40
  44 0004 0446     		mov	r4, r0
  45 0006 0D46     		mov	r5, r1
  26:uifunctions.c ****     //switch statement that controls the touchscreen
  27:uifunctions.c ****     //if statements outline rectangular coordinates for button presses
  28:uifunctions.c ****     switch(screen_state)
  46              		.loc 1 28 0
  47 0008 A74B     		ldr	r3, .L69
  48 000a 1B68     		ldr	r3, [r3]
  49 000c 0A2B     		cmp	r3, #10
  50 000e 00F23C85 		bhi	.L1
  51 0012 DFE813F0 		tbh	[pc, r3, lsl #1]
  52              	.L4:
  53 0016 0B00     		.2byte	(.L3-.L4)/2
  54 0018 5D00     		.2byte	(.L5-.L4)/2
  55 001a 9C00     		.2byte	(.L6-.L4)/2
  56 001c BE00     		.2byte	(.L7-.L4)/2
  57 001e C701     		.2byte	(.L8-.L4)/2
  58 0020 2202     		.2byte	(.L9-.L4)/2
  59 0022 8302     		.2byte	(.L10-.L4)/2
  60 0024 E002     		.2byte	(.L11-.L4)/2
  61 0026 EB02     		.2byte	(.L12-.L4)/2
  62 0028 1D03     		.2byte	(.L13-.L4)/2
  63 002a 8904     		.2byte	(.L14-.L4)/2
  64              		.p2align 1
  65              	.L3:
  29:uifunctions.c ****     {
  30:uifunctions.c ****         case DEVICE_SELECTION_SCREEN :
  31:uifunctions.c ****             if(x>=35 && x<=283 && y>=111 && y<=129)             //Debug center white
  66              		.loc 1 31 0
  67 002c A0F12303 		sub	r3, r0, #35
  68 0030 9BB2     		uxth	r3, r3
  69 0032 F82B     		cmp	r3, #248
  70 0034 07D8     		bhi	.L15
  71              		.loc 1 31 0 is_stmt 0 discriminator 1
  72 0036 6E29     		cmp	r1, #110
  73 0038 05D9     		bls	.L15
  74              		.loc 1 31 0 discriminator 2
  75 003a 8129     		cmp	r1, #129
  76 003c 03D8     		bhi	.L15
  32:uifunctions.c ****             {
  33:uifunctions.c ****                 screen_state = DEBUG_SCREEN;
  77              		.loc 1 33 0 is_stmt 1
  78 003e 0722     		movs	r2, #7
  79 0040 994B     		ldr	r3, .L69
  80 0042 1A60     		str	r2, [r3]
  81 0044 3CE0     		b	.L16
ARM GAS  C:\Users\legoc\AppData\Local\Temp\ccZzn6ce.s 			page 3


  82              	.L15:
  34:uifunctions.c ****             }
  35:uifunctions.c ****             else if(x>=10 && x<=149 && y>=10 && y<=109)         //N-type FET button
  83              		.loc 1 35 0
  84 0046 A4F10A03 		sub	r3, r4, #10
  85 004a 9BB2     		uxth	r3, r3
  86 004c 8B2B     		cmp	r3, #139
  87 004e 0BD8     		bhi	.L17
  88              		.loc 1 35 0 is_stmt 0 discriminator 1
  89 0050 092D     		cmp	r5, #9
  90 0052 09D9     		bls	.L17
  91              		.loc 1 35 0 discriminator 2
  92 0054 6D2D     		cmp	r5, #109
  93 0056 07D8     		bhi	.L17
  94              	.LBB2:
  36:uifunctions.c ****             {
  37:uifunctions.c ****                 
  38:uifunctions.c ****                 vds_high = 9;
  95              		.loc 1 38 0 is_stmt 1
  96 0058 944B     		ldr	r3, .L69+4
  97 005a 0922     		movs	r2, #9
  98 005c 1A60     		str	r2, [r3]
  39:uifunctions.c ****                 
  40:uifunctions.c ****                 device_selection = NMOS;
  99              		.loc 1 40 0
 100 005e 0022     		movs	r2, #0
 101 0060 5A60     		str	r2, [r3, #4]
  41:uifunctions.c ****                 draw_options_screen();
 102              		.loc 1 41 0
 103 0062 FFF7FEFF 		bl	draw_options_screen
 104              	.LVL1:
 105              	.LBE2:
  36:uifunctions.c ****             {
 106              		.loc 1 36 0
 107 0066 2BE0     		b	.L16
 108              	.LVL2:
 109              	.L17:
  42:uifunctions.c ****             }
  43:uifunctions.c ****             else if(x>=10 && x<=149 && y>=131 && y<=230)        //NPN button
 110              		.loc 1 43 0
 111 0068 8B2B     		cmp	r3, #139
 112 006a 0BD8     		bhi	.L18
 113              		.loc 1 43 0 is_stmt 0 discriminator 1
 114 006c 822D     		cmp	r5, #130
 115 006e 09D9     		bls	.L18
 116              		.loc 1 43 0 discriminator 2
 117 0070 E62D     		cmp	r5, #230
 118 0072 07D8     		bhi	.L18
 119              	.LBB3:
  44:uifunctions.c ****             {
  45:uifunctions.c ****                 
  46:uifunctions.c ****                 vds_high = 9;
 120              		.loc 1 46 0 is_stmt 1
 121 0074 8D4B     		ldr	r3, .L69+4
 122 0076 0922     		movs	r2, #9
 123 0078 1A60     		str	r2, [r3]
  47:uifunctions.c ****                 
ARM GAS  C:\Users\legoc\AppData\Local\Temp\ccZzn6ce.s 			page 4


  48:uifunctions.c ****                 device_selection = NPN;
 124              		.loc 1 48 0
 125 007a 0122     		movs	r2, #1
 126 007c 5A60     		str	r2, [r3, #4]
  49:uifunctions.c ****                 draw_options_screen();
 127              		.loc 1 49 0
 128 007e FFF7FEFF 		bl	draw_options_screen
 129              	.LVL3:
 130              	.LBE3:
  44:uifunctions.c ****             {
 131              		.loc 1 44 0
 132 0082 1DE0     		b	.L16
 133              	.LVL4:
 134              	.L18:
  50:uifunctions.c ****             }
  51:uifunctions.c ****             else if(x>=171 && x<=310 && y>=10 && y<=109)        //P-type FET button
 135              		.loc 1 51 0
 136 0084 A4F1AB03 		sub	r3, r4, #171
 137 0088 9BB2     		uxth	r3, r3
 138 008a 8B2B     		cmp	r3, #139
 139 008c 0BD8     		bhi	.L19
 140              		.loc 1 51 0 is_stmt 0 discriminator 1
 141 008e 092D     		cmp	r5, #9
 142 0090 09D9     		bls	.L19
 143              		.loc 1 51 0 discriminator 2
 144 0092 6D2D     		cmp	r5, #109
 145 0094 07D8     		bhi	.L19
 146              	.LBB4:
  52:uifunctions.c ****             {
  53:uifunctions.c ****                 
  54:uifunctions.c ****                 vds_high = 12;
 147              		.loc 1 54 0 is_stmt 1
 148 0096 854B     		ldr	r3, .L69+4
 149 0098 0C22     		movs	r2, #12
 150 009a 1A60     		str	r2, [r3]
  55:uifunctions.c ****                 
  56:uifunctions.c ****                 device_selection = PMOS;
 151              		.loc 1 56 0
 152 009c 0222     		movs	r2, #2
 153 009e 5A60     		str	r2, [r3, #4]
  57:uifunctions.c ****                 draw_options_screen();
 154              		.loc 1 57 0
 155 00a0 FFF7FEFF 		bl	draw_options_screen
 156              	.LVL5:
 157              	.LBE4:
  52:uifunctions.c ****             {
 158              		.loc 1 52 0
 159 00a4 0CE0     		b	.L16
 160              	.LVL6:
 161              	.L19:
  58:uifunctions.c ****             }
  59:uifunctions.c ****             else if(x>=171 && x<=310 && y>=131 && y<=230)       //PNP button
 162              		.loc 1 59 0
 163 00a6 8B2B     		cmp	r3, #139
 164 00a8 0AD8     		bhi	.L16
 165              		.loc 1 59 0 is_stmt 0 discriminator 1
 166 00aa 822D     		cmp	r5, #130
ARM GAS  C:\Users\legoc\AppData\Local\Temp\ccZzn6ce.s 			page 5


 167 00ac 08D9     		bls	.L16
 168              		.loc 1 59 0 discriminator 2
 169 00ae E62D     		cmp	r5, #230
 170 00b0 06D8     		bhi	.L16
 171              	.LBB5:
  60:uifunctions.c ****             {
  61:uifunctions.c ****                 
  62:uifunctions.c ****                 vds_high = 12;
 172              		.loc 1 62 0 is_stmt 1
 173 00b2 7E4B     		ldr	r3, .L69+4
 174 00b4 0C22     		movs	r2, #12
 175 00b6 1A60     		str	r2, [r3]
  63:uifunctions.c ****                 
  64:uifunctions.c ****                 device_selection = PNP;
 176              		.loc 1 64 0
 177 00b8 0322     		movs	r2, #3
 178 00ba 5A60     		str	r2, [r3, #4]
  65:uifunctions.c ****                 draw_options_screen();
 179              		.loc 1 65 0
 180 00bc FFF7FEFF 		bl	draw_options_screen
 181              	.LVL7:
 182              	.L16:
 183              	.LBE5:
  66:uifunctions.c ****             }
  67:uifunctions.c ****             rand_num_1 = x;
 184              		.loc 1 67 0
 185 00c0 794B     		ldr	r3, .L69
 186 00c2 5C60     		str	r4, [r3, #4]
  68:uifunctions.c ****             rand_num_2 = y;
 187              		.loc 1 68 0
 188 00c4 9D60     		str	r5, [r3, #8]
  69:uifunctions.c ****             vds_high_vdac_code = 188;
 189              		.loc 1 69 0
 190 00c6 BC22     		movs	r2, #188
 191 00c8 784B     		ldr	r3, .L69+4
 192 00ca 9A60     		str	r2, [r3, #8]
  70:uifunctions.c ****             break;
 193              		.loc 1 70 0
 194 00cc 00F0DDBC 		b	.L1
 195              	.LVL8:
 196              	.L5:
  71:uifunctions.c ****         case OPTIONS_SCREEN :
  72:uifunctions.c ****             if(x>=0 && x<=119 && y>=0 && y<=119)                //button for number of averages opt
 197              		.loc 1 72 0
 198 00d0 7728     		cmp	r0, #119
 199 00d2 05D8     		bhi	.L20
 200              		.loc 1 72 0 is_stmt 0 discriminator 1
 201 00d4 7729     		cmp	r1, #119
 202 00d6 03D8     		bhi	.L20
 203              	.LBB6:
  73:uifunctions.c ****             {
  74:uifunctions.c ****                 draw_options_averages_screen(); 
 204              		.loc 1 74 0 is_stmt 1
 205 00d8 FFF7FEFF 		bl	draw_options_averages_screen
 206              	.LVL9:
 207              	.LBE6:
  73:uifunctions.c ****             {
ARM GAS  C:\Users\legoc\AppData\Local\Temp\ccZzn6ce.s 			page 6


 208              		.loc 1 73 0
 209 00dc 00F0D5BC 		b	.L1
 210              	.LVL10:
 211              	.L20:
  75:uifunctions.c ****             }
  76:uifunctions.c ****             else if(x>=0 && x<=119 && y>=121 && y<=239)         //button for sd card options
 212              		.loc 1 76 0
 213 00e0 772C     		cmp	r4, #119
 214 00e2 07D8     		bhi	.L21
 215              		.loc 1 76 0 is_stmt 0 discriminator 1
 216 00e4 782D     		cmp	r5, #120
 217 00e6 05D9     		bls	.L21
 218              		.loc 1 76 0 discriminator 2
 219 00e8 EF2D     		cmp	r5, #239
 220 00ea 03D8     		bhi	.L21
 221              	.LBB7:
  77:uifunctions.c ****             {
  78:uifunctions.c ****                 draw_options_sd_screen(); 
 222              		.loc 1 78 0 is_stmt 1
 223 00ec FFF7FEFF 		bl	draw_options_sd_screen
 224              	.LVL11:
 225              	.LBE7:
  77:uifunctions.c ****             {
 226              		.loc 1 77 0
 227 00f0 00F0CBBC 		b	.L1
 228              	.LVL12:
 229              	.L21:
  79:uifunctions.c ****             }
  80:uifunctions.c ****             else if(x>=121 && x<=240 && y>=0 && y<=119)         //button for more options
 230              		.loc 1 80 0
 231 00f4 A4F17903 		sub	r3, r4, #121
 232 00f8 9BB2     		uxth	r3, r3
 233 00fa 772B     		cmp	r3, #119
 234 00fc 05D8     		bhi	.L22
 235              		.loc 1 80 0 is_stmt 0 discriminator 1
 236 00fe 772D     		cmp	r5, #119
 237 0100 03D8     		bhi	.L22
 238              	.LBB8:
  81:uifunctions.c ****             {
  82:uifunctions.c ****                 draw_more_options_screen(); 
 239              		.loc 1 82 0 is_stmt 1
 240 0102 FFF7FEFF 		bl	draw_more_options_screen
 241              	.LVL13:
 242              	.LBE8:
  81:uifunctions.c ****             {
 243              		.loc 1 81 0
 244 0106 00F0C0BC 		b	.L1
 245              	.LVL14:
 246              	.L22:
  83:uifunctions.c ****             }
  84:uifunctions.c ****             else if(x>=121 && x<=240 && y>=121 && y<=239)       //button for settling time options
 247              		.loc 1 84 0
 248 010a 772B     		cmp	r3, #119
 249 010c 07D8     		bhi	.L23
 250              		.loc 1 84 0 is_stmt 0 discriminator 1
 251 010e 782D     		cmp	r5, #120
 252 0110 05D9     		bls	.L23
ARM GAS  C:\Users\legoc\AppData\Local\Temp\ccZzn6ce.s 			page 7


 253              		.loc 1 84 0 discriminator 2
 254 0112 EF2D     		cmp	r5, #239
 255 0114 03D8     		bhi	.L23
 256              	.LBB9:
  85:uifunctions.c ****             {
  86:uifunctions.c ****                 draw_options_curves_screen(); 
 257              		.loc 1 86 0 is_stmt 1
 258 0116 FFF7FEFF 		bl	draw_options_curves_screen
 259              	.LVL15:
 260              	.LBE9:
  85:uifunctions.c ****             {
 261              		.loc 1 85 0
 262 011a 00F0B6BC 		b	.L1
 263              	.LVL16:
 264              	.L23:
  87:uifunctions.c ****             }
  88:uifunctions.c ****             else if(x>=241 && x<=319 && y>=0 && y<=119)         //return button
 265              		.loc 1 88 0
 266 011e F13C     		subs	r4, r4, #241
 267 0120 A4B2     		uxth	r4, r4
 268 0122 4E2C     		cmp	r4, #78
 269 0124 05D8     		bhi	.L24
 270              		.loc 1 88 0 is_stmt 0 discriminator 1
 271 0126 772D     		cmp	r5, #119
 272 0128 03D8     		bhi	.L24
 273              	.LBB10:
  89:uifunctions.c ****             {
  90:uifunctions.c ****                 draw_choose_screen();
 274              		.loc 1 90 0 is_stmt 1
 275 012a FFF7FEFF 		bl	draw_choose_screen
 276              	.LVL17:
 277              	.LBE10:
  89:uifunctions.c ****             {
 278              		.loc 1 89 0
 279 012e 00F0ACBC 		b	.L1
 280              	.LVL18:
 281              	.L24:
  91:uifunctions.c ****             }
  92:uifunctions.c ****             else if(x>=241 && x<=319 && y>=121 && y<=239)       //run test button
 282              		.loc 1 92 0
 283 0132 4E2C     		cmp	r4, #78
 284 0134 00F2A984 		bhi	.L1
 285              		.loc 1 92 0 is_stmt 0 discriminator 1
 286 0138 782D     		cmp	r5, #120
 287 013a 40F2A684 		bls	.L1
 288              		.loc 1 92 0 discriminator 2
 289 013e EF2D     		cmp	r5, #239
 290 0140 00F2A384 		bhi	.L1
  93:uifunctions.c ****             {
  94:uifunctions.c ****                 screen_state = PLOT_SCREEN;
 291              		.loc 1 94 0 is_stmt 1
 292 0144 0222     		movs	r2, #2
 293 0146 584B     		ldr	r3, .L69
 294 0148 1A60     		str	r2, [r3]
 295 014a 00F09EBC 		b	.L1
 296              	.L6:
  95:uifunctions.c ****             }
ARM GAS  C:\Users\legoc\AppData\Local\Temp\ccZzn6ce.s 			page 8


  96:uifunctions.c ****             break;
  97:uifunctions.c ****             break;
  98:uifunctions.c ****         case PLOT_SCREEN :
  99:uifunctions.c ****             if(x>=130 && x<=190 && y>=209 && y<=239)            //stop/return button
 297              		.loc 1 99 0
 298 014e A0F18203 		sub	r3, r0, #130
 299 0152 9BB2     		uxth	r3, r3
 300 0154 3C2B     		cmp	r3, #60
 301 0156 08D8     		bhi	.L25
 302              		.loc 1 99 0 is_stmt 0 discriminator 1
 303 0158 D029     		cmp	r1, #208
 304 015a 06D9     		bls	.L25
 305              		.loc 1 99 0 discriminator 2
 306 015c EF29     		cmp	r1, #239
 307 015e 04D8     		bhi	.L25
 100:uifunctions.c ****             {
 101:uifunctions.c ****                 screen_state = OPTIONS_SCREEN;  
 308              		.loc 1 101 0 is_stmt 1
 309 0160 0122     		movs	r2, #1
 310 0162 514B     		ldr	r3, .L69
 311 0164 1A60     		str	r2, [r3]
 312 0166 00F090BC 		b	.L1
 313              	.L25:
 102:uifunctions.c ****             }
 103:uifunctions.c ****             else if(x>=241 && x<=319 && y>=209 && y<=239)            //stop/return button
 314              		.loc 1 103 0
 315 016a F13C     		subs	r4, r4, #241
 316 016c A4B2     		uxth	r4, r4
 317 016e 4E2C     		cmp	r4, #78
 318 0170 00F28B84 		bhi	.L1
 319              		.loc 1 103 0 is_stmt 0 discriminator 1
 320 0174 D02D     		cmp	r5, #208
 321 0176 40F28884 		bls	.L1
 322              		.loc 1 103 0 discriminator 2
 323 017a EF2D     		cmp	r5, #239
 324 017c 00F28584 		bhi	.L1
 104:uifunctions.c ****             {
 105:uifunctions.c ****                 screen_state = DEVICE_SELECTION_SCREEN;
 325              		.loc 1 105 0 is_stmt 1
 326 0180 0022     		movs	r2, #0
 327 0182 494B     		ldr	r3, .L69
 328 0184 1A60     		str	r2, [r3]
 106:uifunctions.c ****                 device_selection = -1;
 329              		.loc 1 106 0
 330 0186 4FF0FF32 		mov	r2, #-1
 331 018a 484B     		ldr	r3, .L69+4
 332 018c 5A60     		str	r2, [r3, #4]
 333 018e 00F07CBC 		b	.L1
 334              	.L7:
 107:uifunctions.c ****             }
 108:uifunctions.c ****             break;
 109:uifunctions.c ****         case OPTION_AVERAGES_SCREEN :
 110:uifunctions.c ****             if(x>=241 && x<=319 && y>=0 && y<=239)         //return button
 335              		.loc 1 110 0
 336 0192 A0F1F103 		sub	r3, r0, #241
 337 0196 9BB2     		uxth	r3, r3
 338 0198 4E2B     		cmp	r3, #78
ARM GAS  C:\Users\legoc\AppData\Local\Temp\ccZzn6ce.s 			page 9


 339 019a 05D8     		bhi	.L26
 340              		.loc 1 110 0 is_stmt 0 discriminator 1
 341 019c EF29     		cmp	r1, #239
 342 019e 03D8     		bhi	.L26
 343              	.LBB11:
 111:uifunctions.c ****             {
 112:uifunctions.c ****                 draw_options_screen();
 344              		.loc 1 112 0 is_stmt 1
 345 01a0 FFF7FEFF 		bl	draw_options_screen
 346              	.LVL19:
 347              	.LBE11:
 111:uifunctions.c ****             {
 348              		.loc 1 111 0
 349 01a4 00F071BC 		b	.L1
 350              	.LVL20:
 351              	.L26:
 113:uifunctions.c ****             }
 114:uifunctions.c ****             else if(x>=80 && x<=150 && y>=150 && y<=200)  //+1 button
 352              		.loc 1 114 0
 353 01a8 A4F15003 		sub	r3, r4, #80
 354 01ac 9BB2     		uxth	r3, r3
 355 01ae 462B     		cmp	r3, #70
 356 01b0 27D8     		bhi	.L27
 357              		.loc 1 114 0 is_stmt 0 discriminator 1
 358 01b2 952D     		cmp	r5, #149
 359 01b4 25D9     		bls	.L27
 360              		.loc 1 114 0 discriminator 2
 361 01b6 C82D     		cmp	r5, #200
 362 01b8 23D8     		bhi	.L27
 363              	.LBB12:
 115:uifunctions.c ****             {
 116:uifunctions.c ****                 num_avg = num_avg+1;
 364              		.loc 1 116 0 is_stmt 1
 365 01ba 3C4A     		ldr	r2, .L69+4
 366 01bc D368     		ldr	r3, [r2, #12]
 367 01be 0133     		adds	r3, r3, #1
 368 01c0 D360     		str	r3, [r2, #12]
 117:uifunctions.c ****                 if(num_avg>1000)
 369              		.loc 1 117 0
 370 01c2 B3F57A7F 		cmp	r3, #1000
 371 01c6 03DD     		ble	.L28
 118:uifunctions.c ****                 {
 119:uifunctions.c ****                     num_avg = 1000;
 372              		.loc 1 119 0
 373 01c8 4FF47A72 		mov	r2, #1000
 374 01cc 374B     		ldr	r3, .L69+4
 375 01ce DA60     		str	r2, [r3, #12]
 376              	.L28:
 120:uifunctions.c ****                 }
 121:uifunctions.c ****                 fill_rect(10,95,60,30,BLACK);
 377              		.loc 1 121 0
 378 01d0 0023     		movs	r3, #0
 379 01d2 0093     		str	r3, [sp]
 380 01d4 1E23     		movs	r3, #30
 381 01d6 3C22     		movs	r2, #60
 382 01d8 5F21     		movs	r1, #95
 383              	.LVL21:
ARM GAS  C:\Users\legoc\AppData\Local\Temp\ccZzn6ce.s 			page 10


 384 01da 0A20     		movs	r0, #10
 385              	.LVL22:
 386 01dc FFF7FEFF 		bl	fill_rect
 387              	.LVL23:
 122:uifunctions.c ****                 
 123:uifunctions.c ****                 char avg_num[4];
 124:uifunctions.c ****                 itoa(num_avg, avg_num, 10);
 388              		.loc 1 124 0
 389 01e0 0A22     		movs	r2, #10
 390 01e2 05A9     		add	r1, sp, #20
 391 01e4 314B     		ldr	r3, .L69+4
 392 01e6 D868     		ldr	r0, [r3, #12]
 393 01e8 FFF7FEFF 		bl	itoa
 394              	.LVL24:
 125:uifunctions.c ****                 
 126:uifunctions.c ****                 draw_string(20,105,WHITE,avg_num,2);
 395              		.loc 1 126 0
 396 01ec 0223     		movs	r3, #2
 397 01ee 0093     		str	r3, [sp]
 398 01f0 05AB     		add	r3, sp, #20
 399 01f2 4FF6FF72 		movw	r2, #65535
 400 01f6 6921     		movs	r1, #105
 401 01f8 1420     		movs	r0, #20
 402 01fa FFF7FEFF 		bl	draw_string
 403              	.LVL25:
 404              	.LBE12:
 115:uifunctions.c ****                 num_avg = num_avg+1;
 405              		.loc 1 115 0
 406 01fe 00F044BC 		b	.L1
 407              	.LVL26:
 408              	.L27:
 127:uifunctions.c ****             }
 128:uifunctions.c ****             else if(x>=80 && x<=150 && y>=80 && y<=130)   //+10 button         
 409              		.loc 1 128 0
 410 0202 462B     		cmp	r3, #70
 411 0204 27D8     		bhi	.L29
 412              		.loc 1 128 0 is_stmt 0 discriminator 1
 413 0206 4F2D     		cmp	r5, #79
 414 0208 25D9     		bls	.L29
 415              		.loc 1 128 0 discriminator 2
 416 020a 822D     		cmp	r5, #130
 417 020c 23D8     		bhi	.L29
 418              	.LBB13:
 129:uifunctions.c ****             {
 130:uifunctions.c ****                 num_avg = num_avg+10;
 419              		.loc 1 130 0 is_stmt 1
 420 020e 274A     		ldr	r2, .L69+4
 421 0210 D368     		ldr	r3, [r2, #12]
 422 0212 0A33     		adds	r3, r3, #10
 423 0214 D360     		str	r3, [r2, #12]
 131:uifunctions.c ****                 if(num_avg>1000)
 424              		.loc 1 131 0
 425 0216 B3F57A7F 		cmp	r3, #1000
 426 021a 03DD     		ble	.L30
 132:uifunctions.c ****                 {
 133:uifunctions.c ****                     num_avg = 1000;
 427              		.loc 1 133 0
ARM GAS  C:\Users\legoc\AppData\Local\Temp\ccZzn6ce.s 			page 11


 428 021c 4FF47A72 		mov	r2, #1000
 429 0220 224B     		ldr	r3, .L69+4
 430 0222 DA60     		str	r2, [r3, #12]
 431              	.L30:
 134:uifunctions.c ****                 }
 135:uifunctions.c ****                 fill_rect(10,95,60,30,BLACK);
 432              		.loc 1 135 0 discriminator 2
 433 0224 0023     		movs	r3, #0
 434 0226 0093     		str	r3, [sp]
 435 0228 1E23     		movs	r3, #30
 436 022a 3C22     		movs	r2, #60
 437 022c 5F21     		movs	r1, #95
 438              	.LVL27:
 439 022e 0A20     		movs	r0, #10
 440              	.LVL28:
 441 0230 FFF7FEFF 		bl	fill_rect
 442              	.LVL29:
 136:uifunctions.c ****                 
 137:uifunctions.c ****                 char avg_num[4];
 138:uifunctions.c ****                 itoa(num_avg, avg_num, 10);
 443              		.loc 1 138 0 discriminator 2
 444 0234 0A22     		movs	r2, #10
 445 0236 05A9     		add	r1, sp, #20
 446 0238 1C4B     		ldr	r3, .L69+4
 447 023a D868     		ldr	r0, [r3, #12]
 448 023c FFF7FEFF 		bl	itoa
 449              	.LVL30:
 139:uifunctions.c ****                 
 140:uifunctions.c ****                 draw_string(20,105,WHITE,avg_num,2);
 450              		.loc 1 140 0 discriminator 2
 451 0240 0223     		movs	r3, #2
 452 0242 0093     		str	r3, [sp]
 453 0244 05AB     		add	r3, sp, #20
 454 0246 4FF6FF72 		movw	r2, #65535
 455 024a 6921     		movs	r1, #105
 456 024c 1420     		movs	r0, #20
 457 024e FFF7FEFF 		bl	draw_string
 458              	.LVL31:
 459              	.LBE13:
 129:uifunctions.c ****                 num_avg = num_avg+10;
 460              		.loc 1 129 0 discriminator 2
 461 0252 00F01ABC 		b	.L1
 462              	.LVL32:
 463              	.L29:
 141:uifunctions.c ****             }
 142:uifunctions.c ****             else if(x>=80 && x<=150 && y>=10 && y<=60)  //+100 button                  
 464              		.loc 1 142 0
 465 0256 462B     		cmp	r3, #70
 466 0258 2AD8     		bhi	.L31
 467              		.loc 1 142 0 is_stmt 0 discriminator 1
 468 025a 092D     		cmp	r5, #9
 469 025c 28D9     		bls	.L31
 470              		.loc 1 142 0 discriminator 2
 471 025e 3C2D     		cmp	r5, #60
 472 0260 26D8     		bhi	.L31
 473              	.LBB14:
 143:uifunctions.c ****             {
ARM GAS  C:\Users\legoc\AppData\Local\Temp\ccZzn6ce.s 			page 12


 144:uifunctions.c ****                 num_avg = num_avg+100;
 474              		.loc 1 144 0 is_stmt 1
 475 0262 124A     		ldr	r2, .L69+4
 476 0264 D368     		ldr	r3, [r2, #12]
 477 0266 6433     		adds	r3, r3, #100
 478 0268 D360     		str	r3, [r2, #12]
 145:uifunctions.c ****                 if(num_avg>1000)
 479              		.loc 1 145 0
 480 026a B3F57A7F 		cmp	r3, #1000
 481 026e 03DD     		ble	.L32
 146:uifunctions.c ****                 {
 147:uifunctions.c ****                     num_avg = 1000;
 482              		.loc 1 147 0
 483 0270 4FF47A72 		mov	r2, #1000
 484 0274 0D4B     		ldr	r3, .L69+4
 485 0276 DA60     		str	r2, [r3, #12]
 486              	.L32:
 148:uifunctions.c ****                 }
 149:uifunctions.c ****                 fill_rect(10,95,60,30,BLACK);
 487              		.loc 1 149 0 discriminator 3
 488 0278 0023     		movs	r3, #0
 489 027a 0093     		str	r3, [sp]
 490 027c 1E23     		movs	r3, #30
 491 027e 3C22     		movs	r2, #60
 492 0280 5F21     		movs	r1, #95
 493              	.LVL33:
 494 0282 0A20     		movs	r0, #10
 495              	.LVL34:
 496 0284 FFF7FEFF 		bl	fill_rect
 497              	.LVL35:
 150:uifunctions.c ****                 
 151:uifunctions.c ****                 char avg_num[4];
 152:uifunctions.c ****                 itoa(num_avg, avg_num, 10);
 498              		.loc 1 152 0 discriminator 3
 499 0288 0A22     		movs	r2, #10
 500 028a 05A9     		add	r1, sp, #20
 501 028c 074B     		ldr	r3, .L69+4
 502 028e D868     		ldr	r0, [r3, #12]
 503 0290 FFF7FEFF 		bl	itoa
 504              	.LVL36:
 153:uifunctions.c ****                 
 154:uifunctions.c ****                 draw_string(20,105,WHITE,avg_num,2);
 505              		.loc 1 154 0 discriminator 3
 506 0294 0223     		movs	r3, #2
 507 0296 0093     		str	r3, [sp]
 508 0298 05AB     		add	r3, sp, #20
 509 029a 4FF6FF72 		movw	r2, #65535
 510 029e 6921     		movs	r1, #105
 511 02a0 1420     		movs	r0, #20
 512 02a2 FFF7FEFF 		bl	draw_string
 513              	.LVL37:
 514              	.LBE14:
 143:uifunctions.c ****                 num_avg = num_avg+100;
 515              		.loc 1 143 0 discriminator 3
 516 02a6 F0E3     		b	.L1
 517              	.L70:
 518              		.align	2
ARM GAS  C:\Users\legoc\AppData\Local\Temp\ccZzn6ce.s 			page 13


 519              	.L69:
 520 02a8 00000000 		.word	.LANCHOR0
 521 02ac 00000000 		.word	.LANCHOR1
 522              	.LVL38:
 523              	.L31:
 155:uifunctions.c ****             }
 156:uifunctions.c ****             else if(x>=160 && x<=230 && y>=150 && y<=200)  //-1 button
 524              		.loc 1 156 0
 525 02b0 A03C     		subs	r4, r4, #160
 526 02b2 A4B2     		uxth	r4, r4
 527 02b4 462C     		cmp	r4, #70
 528 02b6 24D8     		bhi	.L33
 529              		.loc 1 156 0 is_stmt 0 discriminator 1
 530 02b8 952D     		cmp	r5, #149
 531 02ba 22D9     		bls	.L33
 532              		.loc 1 156 0 discriminator 2
 533 02bc C82D     		cmp	r5, #200
 534 02be 20D8     		bhi	.L33
 535              	.LBB15:
 157:uifunctions.c ****             {
 158:uifunctions.c ****                 num_avg = num_avg-1;
 536              		.loc 1 158 0 is_stmt 1
 537 02c0 AE4A     		ldr	r2, .L71
 538 02c2 D368     		ldr	r3, [r2, #12]
 539 02c4 013B     		subs	r3, r3, #1
 540 02c6 D360     		str	r3, [r2, #12]
 159:uifunctions.c ****                 if(num_avg<1)
 541              		.loc 1 159 0
 542 02c8 002B     		cmp	r3, #0
 543 02ca 02DC     		bgt	.L34
 160:uifunctions.c ****                 {
 161:uifunctions.c ****                     num_avg = 1;
 544              		.loc 1 161 0
 545 02cc 0122     		movs	r2, #1
 546 02ce AB4B     		ldr	r3, .L71
 547 02d0 DA60     		str	r2, [r3, #12]
 548              	.L34:
 162:uifunctions.c ****                 }
 163:uifunctions.c ****                 fill_rect(10,95,60,30,BLACK);
 549              		.loc 1 163 0 discriminator 4
 550 02d2 0023     		movs	r3, #0
 551 02d4 0093     		str	r3, [sp]
 552 02d6 1E23     		movs	r3, #30
 553 02d8 3C22     		movs	r2, #60
 554 02da 5F21     		movs	r1, #95
 555              	.LVL39:
 556 02dc 0A20     		movs	r0, #10
 557              	.LVL40:
 558 02de FFF7FEFF 		bl	fill_rect
 559              	.LVL41:
 164:uifunctions.c ****                 
 165:uifunctions.c ****                 char avg_num[4];
 166:uifunctions.c ****                 itoa(num_avg, avg_num, 10);
 560              		.loc 1 166 0 discriminator 4
 561 02e2 0A22     		movs	r2, #10
 562 02e4 05A9     		add	r1, sp, #20
 563 02e6 A54B     		ldr	r3, .L71
ARM GAS  C:\Users\legoc\AppData\Local\Temp\ccZzn6ce.s 			page 14


 564 02e8 D868     		ldr	r0, [r3, #12]
 565 02ea FFF7FEFF 		bl	itoa
 566              	.LVL42:
 167:uifunctions.c ****                 
 168:uifunctions.c ****                 draw_string(20,105,WHITE,avg_num,2);
 567              		.loc 1 168 0 discriminator 4
 568 02ee 0223     		movs	r3, #2
 569 02f0 0093     		str	r3, [sp]
 570 02f2 05AB     		add	r3, sp, #20
 571 02f4 4FF6FF72 		movw	r2, #65535
 572 02f8 6921     		movs	r1, #105
 573 02fa 1420     		movs	r0, #20
 574 02fc FFF7FEFF 		bl	draw_string
 575              	.LVL43:
 576              	.LBE15:
 157:uifunctions.c ****                 num_avg = num_avg-1;
 577              		.loc 1 157 0 discriminator 4
 578 0300 C3E3     		b	.L1
 579              	.LVL44:
 580              	.L33:
 169:uifunctions.c ****             }
 170:uifunctions.c ****             else if(x>=160 && x<=230 && y>=80 && y<=130)   //-10 button                 
 581              		.loc 1 170 0
 582 0302 462C     		cmp	r4, #70
 583 0304 24D8     		bhi	.L35
 584              		.loc 1 170 0 is_stmt 0 discriminator 1
 585 0306 4F2D     		cmp	r5, #79
 586 0308 22D9     		bls	.L35
 587              		.loc 1 170 0 discriminator 2
 588 030a 822D     		cmp	r5, #130
 589 030c 20D8     		bhi	.L35
 590              	.LBB16:
 171:uifunctions.c ****             {
 172:uifunctions.c ****                 num_avg = num_avg-10;
 591              		.loc 1 172 0 is_stmt 1
 592 030e 9B4A     		ldr	r2, .L71
 593 0310 D368     		ldr	r3, [r2, #12]
 594 0312 0A3B     		subs	r3, r3, #10
 595 0314 D360     		str	r3, [r2, #12]
 173:uifunctions.c ****                 if(num_avg<1)
 596              		.loc 1 173 0
 597 0316 002B     		cmp	r3, #0
 598 0318 02DC     		bgt	.L36
 174:uifunctions.c ****                 {
 175:uifunctions.c ****                     num_avg = 1;
 599              		.loc 1 175 0
 600 031a 0122     		movs	r2, #1
 601 031c 974B     		ldr	r3, .L71
 602 031e DA60     		str	r2, [r3, #12]
 603              	.L36:
 176:uifunctions.c ****                 }
 177:uifunctions.c ****                 fill_rect(10,95,60,30,BLACK);
 604              		.loc 1 177 0 discriminator 5
 605 0320 0023     		movs	r3, #0
 606 0322 0093     		str	r3, [sp]
 607 0324 1E23     		movs	r3, #30
 608 0326 3C22     		movs	r2, #60
ARM GAS  C:\Users\legoc\AppData\Local\Temp\ccZzn6ce.s 			page 15


 609 0328 5F21     		movs	r1, #95
 610              	.LVL45:
 611 032a 0A20     		movs	r0, #10
 612              	.LVL46:
 613 032c FFF7FEFF 		bl	fill_rect
 614              	.LVL47:
 178:uifunctions.c ****                 
 179:uifunctions.c ****                 char avg_num[4];
 180:uifunctions.c ****                 itoa(num_avg, avg_num, 10);
 615              		.loc 1 180 0 discriminator 5
 616 0330 0A22     		movs	r2, #10
 617 0332 05A9     		add	r1, sp, #20
 618 0334 914B     		ldr	r3, .L71
 619 0336 D868     		ldr	r0, [r3, #12]
 620 0338 FFF7FEFF 		bl	itoa
 621              	.LVL48:
 181:uifunctions.c ****                 
 182:uifunctions.c ****                 draw_string(20,105,WHITE,avg_num,2);
 622              		.loc 1 182 0 discriminator 5
 623 033c 0223     		movs	r3, #2
 624 033e 0093     		str	r3, [sp]
 625 0340 05AB     		add	r3, sp, #20
 626 0342 4FF6FF72 		movw	r2, #65535
 627 0346 6921     		movs	r1, #105
 628 0348 1420     		movs	r0, #20
 629 034a FFF7FEFF 		bl	draw_string
 630              	.LVL49:
 631              	.LBE16:
 171:uifunctions.c ****                 num_avg = num_avg-10;
 632              		.loc 1 171 0 discriminator 5
 633 034e 9CE3     		b	.L1
 634              	.LVL50:
 635              	.L35:
 183:uifunctions.c ****             }
 184:uifunctions.c ****             else if(x>=160 && x<=230 && y>=10 && y<=60)  //-100 button                  
 636              		.loc 1 184 0
 637 0350 462C     		cmp	r4, #70
 638 0352 00F29A83 		bhi	.L1
 639              		.loc 1 184 0 is_stmt 0 discriminator 1
 640 0356 092D     		cmp	r5, #9
 641 0358 40F29783 		bls	.L1
 642              		.loc 1 184 0 discriminator 2
 643 035c 3C2D     		cmp	r5, #60
 644 035e 00F29483 		bhi	.L1
 645              	.LBB17:
 185:uifunctions.c ****             {
 186:uifunctions.c ****                 num_avg = num_avg-100;
 646              		.loc 1 186 0 is_stmt 1
 647 0362 864A     		ldr	r2, .L71
 648 0364 D368     		ldr	r3, [r2, #12]
 649 0366 643B     		subs	r3, r3, #100
 650 0368 D360     		str	r3, [r2, #12]
 187:uifunctions.c ****                 if(num_avg<1)
 651              		.loc 1 187 0
 652 036a 002B     		cmp	r3, #0
 653 036c 02DC     		bgt	.L37
 188:uifunctions.c ****                 {
ARM GAS  C:\Users\legoc\AppData\Local\Temp\ccZzn6ce.s 			page 16


 189:uifunctions.c ****                     num_avg = 1;
 654              		.loc 1 189 0
 655 036e 0122     		movs	r2, #1
 656 0370 824B     		ldr	r3, .L71
 657 0372 DA60     		str	r2, [r3, #12]
 658              	.L37:
 190:uifunctions.c ****                 }
 191:uifunctions.c ****                 fill_rect(10,95,60,30,BLACK);
 659              		.loc 1 191 0 discriminator 6
 660 0374 0023     		movs	r3, #0
 661 0376 0093     		str	r3, [sp]
 662 0378 1E23     		movs	r3, #30
 663 037a 3C22     		movs	r2, #60
 664 037c 5F21     		movs	r1, #95
 665              	.LVL51:
 666 037e 0A20     		movs	r0, #10
 667              	.LVL52:
 668 0380 FFF7FEFF 		bl	fill_rect
 669              	.LVL53:
 192:uifunctions.c ****                 
 193:uifunctions.c ****                 char avg_num[4];
 194:uifunctions.c ****                 itoa(num_avg, avg_num, 10);
 670              		.loc 1 194 0 discriminator 6
 671 0384 0A22     		movs	r2, #10
 672 0386 05A9     		add	r1, sp, #20
 673 0388 7C4B     		ldr	r3, .L71
 674 038a D868     		ldr	r0, [r3, #12]
 675 038c FFF7FEFF 		bl	itoa
 676              	.LVL54:
 195:uifunctions.c ****                 
 196:uifunctions.c ****                 draw_string(20,105,WHITE,avg_num,2);
 677              		.loc 1 196 0 discriminator 6
 678 0390 0223     		movs	r3, #2
 679 0392 0093     		str	r3, [sp]
 680 0394 05AB     		add	r3, sp, #20
 681 0396 4FF6FF72 		movw	r2, #65535
 682 039a 6921     		movs	r1, #105
 683 039c 1420     		movs	r0, #20
 684 039e FFF7FEFF 		bl	draw_string
 685              	.LVL55:
 686 03a2 72E3     		b	.L1
 687              	.LVL56:
 688              	.L8:
 689              	.LBE17:
 197:uifunctions.c ****             }
 198:uifunctions.c ****             break;
 199:uifunctions.c ****         case OPTION_SD_SCREEN :
 200:uifunctions.c ****             if(x>=241 && x<=319 && y>=0 && y<=239)         //return button
 690              		.loc 1 200 0
 691 03a4 A0F1F103 		sub	r3, r0, #241
 692 03a8 9BB2     		uxth	r3, r3
 693 03aa 4E2B     		cmp	r3, #78
 694 03ac 04D8     		bhi	.L38
 695              		.loc 1 200 0 is_stmt 0 discriminator 1
 696 03ae EF29     		cmp	r1, #239
 697 03b0 02D8     		bhi	.L38
 698              	.LBB18:
ARM GAS  C:\Users\legoc\AppData\Local\Temp\ccZzn6ce.s 			page 17


 201:uifunctions.c ****             {
 202:uifunctions.c ****                 draw_options_screen();
 699              		.loc 1 202 0 is_stmt 1
 700 03b2 FFF7FEFF 		bl	draw_options_screen
 701              	.LVL57:
 702              	.LBE18:
 201:uifunctions.c ****             {
 703              		.loc 1 201 0
 704 03b6 68E3     		b	.L1
 705              	.LVL58:
 706              	.L38:
 203:uifunctions.c ****             }
 204:uifunctions.c ****             else if(x>=30 && x<=110 && y>=100 && y<=150)        //yes button
 707              		.loc 1 204 0
 708 03b8 A4F11E03 		sub	r3, r4, #30
 709 03bc 9BB2     		uxth	r3, r3
 710 03be 502B     		cmp	r3, #80
 711 03c0 22D8     		bhi	.L39
 712              		.loc 1 204 0 is_stmt 0 discriminator 1
 713 03c2 632D     		cmp	r5, #99
 714 03c4 20D9     		bls	.L39
 715              		.loc 1 204 0 discriminator 2
 716 03c6 962D     		cmp	r5, #150
 717 03c8 1ED8     		bhi	.L39
 718              	.LBB19:
 205:uifunctions.c ****             {
 206:uifunctions.c ****                 draw_button(30,100,80,50,LIGHTBLUE,BLACK,"YES");  
 719              		.loc 1 206 0 is_stmt 1
 720 03ca 6D4B     		ldr	r3, .L71+4
 721 03cc 0293     		str	r3, [sp, #8]
 722 03ce 0024     		movs	r4, #0
 723 03d0 0194     		str	r4, [sp, #4]
 724 03d2 49F69F63 		movw	r3, #40607
 725 03d6 0093     		str	r3, [sp]
 726 03d8 3223     		movs	r3, #50
 727 03da 5022     		movs	r2, #80
 728 03dc 6421     		movs	r1, #100
 729              	.LVL59:
 730 03de 1E20     		movs	r0, #30
 731              	.LVL60:
 732 03e0 FFF7FEFF 		bl	draw_button
 733              	.LVL61:
 207:uifunctions.c ****                 draw_button(130,100,80,50,WHITE,BLACK,"NO");
 734              		.loc 1 207 0
 735 03e4 674B     		ldr	r3, .L71+8
 736 03e6 0293     		str	r3, [sp, #8]
 737 03e8 0194     		str	r4, [sp, #4]
 738 03ea 4FF6FF73 		movw	r3, #65535
 739 03ee 0093     		str	r3, [sp]
 740 03f0 3223     		movs	r3, #50
 741 03f2 5022     		movs	r2, #80
 742 03f4 6421     		movs	r1, #100
 743 03f6 8220     		movs	r0, #130
 744 03f8 FFF7FEFF 		bl	draw_button
 745              	.LVL62:
 208:uifunctions.c ****                 write_sd = 1;
 746              		.loc 1 208 0
ARM GAS  C:\Users\legoc\AppData\Local\Temp\ccZzn6ce.s 			page 18


 747 03fc 0122     		movs	r2, #1
 748 03fe 5F4B     		ldr	r3, .L71
 749 0400 1A61     		str	r2, [r3, #16]
 209:uifunctions.c ****                 emFile_1_Wakeup();
 750              		.loc 1 209 0
 751 0402 FFF7FEFF 		bl	emFile_1_Wakeup
 752              	.LVL63:
 753              	.LBE19:
 205:uifunctions.c ****                 draw_button(30,100,80,50,LIGHTBLUE,BLACK,"YES");  
 754              		.loc 1 205 0
 755 0406 40E3     		b	.L1
 756              	.LVL64:
 757              	.L39:
 210:uifunctions.c ****             }
 211:uifunctions.c ****             else if(x>=130 && x<=210 && y>=100 && y<=150)       //no button
 758              		.loc 1 211 0
 759 0408 823C     		subs	r4, r4, #130
 760 040a A4B2     		uxth	r4, r4
 761 040c 502C     		cmp	r4, #80
 762 040e 00F23C83 		bhi	.L1
 763              		.loc 1 211 0 is_stmt 0 discriminator 1
 764 0412 632D     		cmp	r5, #99
 765 0414 40F23983 		bls	.L1
 766              		.loc 1 211 0 discriminator 2
 767 0418 962D     		cmp	r5, #150
 768 041a 00F23683 		bhi	.L1
 769              	.LBB20:
 212:uifunctions.c ****             {
 213:uifunctions.c ****                 draw_button(30,100,80,50,WHITE,BLACK,"YES");  
 770              		.loc 1 213 0 is_stmt 1
 771 041e 584B     		ldr	r3, .L71+4
 772 0420 0293     		str	r3, [sp, #8]
 773 0422 0024     		movs	r4, #0
 774 0424 0194     		str	r4, [sp, #4]
 775 0426 4FF6FF73 		movw	r3, #65535
 776 042a 0093     		str	r3, [sp]
 777 042c 3223     		movs	r3, #50
 778 042e 5022     		movs	r2, #80
 779 0430 6421     		movs	r1, #100
 780              	.LVL65:
 781 0432 1E20     		movs	r0, #30
 782              	.LVL66:
 783 0434 FFF7FEFF 		bl	draw_button
 784              	.LVL67:
 214:uifunctions.c ****                 draw_button(130,100,80,50,LIGHTBLUE,BLACK,"NO");
 785              		.loc 1 214 0
 786 0438 524B     		ldr	r3, .L71+8
 787 043a 0293     		str	r3, [sp, #8]
 788 043c 0194     		str	r4, [sp, #4]
 789 043e 49F69F63 		movw	r3, #40607
 790 0442 0093     		str	r3, [sp]
 791 0444 3223     		movs	r3, #50
 792 0446 5022     		movs	r2, #80
 793 0448 6421     		movs	r1, #100
 794 044a 8220     		movs	r0, #130
 795 044c FFF7FEFF 		bl	draw_button
 796              	.LVL68:
ARM GAS  C:\Users\legoc\AppData\Local\Temp\ccZzn6ce.s 			page 19


 215:uifunctions.c ****                 emFile_1_Sleep();
 797              		.loc 1 215 0
 798 0450 FFF7FEFF 		bl	emFile_1_Sleep
 799              	.LVL69:
 216:uifunctions.c ****                 write_sd = 0;
 800              		.loc 1 216 0
 801 0454 494B     		ldr	r3, .L71
 802 0456 1C61     		str	r4, [r3, #16]
 803 0458 17E3     		b	.L1
 804              	.LVL70:
 805              	.L9:
 806              	.LBE20:
 217:uifunctions.c ****             }
 218:uifunctions.c ****             break;
 219:uifunctions.c ****         case OPTION_CURVES_SCREEN :
 220:uifunctions.c ****             if(x>=241 && x<=319 && y>=0 && y<=239)         //return button
 807              		.loc 1 220 0
 808 045a A0F1F103 		sub	r3, r0, #241
 809 045e 9BB2     		uxth	r3, r3
 810 0460 4E2B     		cmp	r3, #78
 811 0462 04D8     		bhi	.L40
 812              		.loc 1 220 0 is_stmt 0 discriminator 1
 813 0464 EF29     		cmp	r1, #239
 814 0466 02D8     		bhi	.L40
 815              	.LBB21:
 221:uifunctions.c ****             {
 222:uifunctions.c ****                 draw_options_screen();
 816              		.loc 1 222 0 is_stmt 1
 817 0468 FFF7FEFF 		bl	draw_options_screen
 818              	.LVL71:
 819              	.LBE21:
 221:uifunctions.c ****             {
 820              		.loc 1 221 0
 821 046c 0DE3     		b	.L1
 822              	.LVL72:
 823              	.L40:
 223:uifunctions.c ****             }
 224:uifunctions.c ****             else if(x>=130 && x<=200 && y>=30 && y<=100)    //decrease button                 
 824              		.loc 1 224 0
 825 046e 823C     		subs	r4, r4, #130
 826 0470 A4B2     		uxth	r4, r4
 827 0472 462C     		cmp	r4, #70
 828 0474 26D8     		bhi	.L41
 829              		.loc 1 224 0 is_stmt 0 discriminator 1
 830 0476 1D2D     		cmp	r5, #29
 831 0478 24D9     		bls	.L41
 832              		.loc 1 224 0 discriminator 2
 833 047a 642D     		cmp	r5, #100
 834 047c 22D8     		bhi	.L41
 835              	.LBB22:
 225:uifunctions.c ****             {
 226:uifunctions.c ****                 if(curve_nums>1)
 836              		.loc 1 226 0 is_stmt 1
 837 047e 3F4B     		ldr	r3, .L71
 838 0480 5B69     		ldr	r3, [r3, #20]
 839 0482 012B     		cmp	r3, #1
 840 0484 03DD     		ble	.L42
ARM GAS  C:\Users\legoc\AppData\Local\Temp\ccZzn6ce.s 			page 20


 227:uifunctions.c ****                 {
 228:uifunctions.c ****                     curve_nums--;
 841              		.loc 1 228 0
 842 0486 013B     		subs	r3, r3, #1
 843 0488 3C4A     		ldr	r2, .L71
 844 048a 5361     		str	r3, [r2, #20]
 845 048c 02E0     		b	.L43
 846              	.L42:
 229:uifunctions.c ****                 }
 230:uifunctions.c ****                 else
 231:uifunctions.c ****                 {
 232:uifunctions.c ****                     curve_nums = 1;
 847              		.loc 1 232 0
 848 048e 0122     		movs	r2, #1
 849 0490 3A4B     		ldr	r3, .L71
 850 0492 5A61     		str	r2, [r3, #20]
 851              	.L43:
 233:uifunctions.c ****                 }
 234:uifunctions.c ****                 fill_rect(40,95,60,30,BLACK);
 852              		.loc 1 234 0
 853 0494 0023     		movs	r3, #0
 854 0496 0093     		str	r3, [sp]
 855 0498 1E23     		movs	r3, #30
 856 049a 3C22     		movs	r2, #60
 857 049c 5F21     		movs	r1, #95
 858              	.LVL73:
 859 049e 2820     		movs	r0, #40
 860              	.LVL74:
 861 04a0 FFF7FEFF 		bl	fill_rect
 862              	.LVL75:
 235:uifunctions.c ****                 
 236:uifunctions.c ****                 char num_curve[2];
 237:uifunctions.c ****                 itoa(curve_nums, num_curve, 10);
 863              		.loc 1 237 0
 864 04a4 0A22     		movs	r2, #10
 865 04a6 05A9     		add	r1, sp, #20
 866 04a8 344B     		ldr	r3, .L71
 867 04aa 5869     		ldr	r0, [r3, #20]
 868 04ac FFF7FEFF 		bl	itoa
 869              	.LVL76:
 238:uifunctions.c ****                 
 239:uifunctions.c ****                 draw_string(50,105,WHITE,num_curve,3);
 870              		.loc 1 239 0
 871 04b0 0323     		movs	r3, #3
 872 04b2 0093     		str	r3, [sp]
 873 04b4 05AB     		add	r3, sp, #20
 874 04b6 4FF6FF72 		movw	r2, #65535
 875 04ba 6921     		movs	r1, #105
 876 04bc 3220     		movs	r0, #50
 877 04be FFF7FEFF 		bl	draw_string
 878              	.LVL77:
 879              	.LBE22:
 225:uifunctions.c ****                 if(curve_nums>1)
 880              		.loc 1 225 0
 881 04c2 E2E2     		b	.L1
 882              	.LVL78:
 883              	.L41:
ARM GAS  C:\Users\legoc\AppData\Local\Temp\ccZzn6ce.s 			page 21


 240:uifunctions.c ****             }
 241:uifunctions.c ****             else if(x>=130 && x<=200 && y>=120 && y<=190)   //increase button
 884              		.loc 1 241 0
 885 04c4 462C     		cmp	r4, #70
 886 04c6 00F2E082 		bhi	.L1
 887              		.loc 1 241 0 is_stmt 0 discriminator 1
 888 04ca 772D     		cmp	r5, #119
 889 04cc 40F2DD82 		bls	.L1
 890              		.loc 1 241 0 discriminator 2
 891 04d0 BE2D     		cmp	r5, #190
 892 04d2 00F2DA82 		bhi	.L1
 893              	.LBB23:
 242:uifunctions.c ****             {
 243:uifunctions.c ****                 if(curve_nums<6)
 894              		.loc 1 243 0 is_stmt 1
 895 04d6 294B     		ldr	r3, .L71
 896 04d8 5B69     		ldr	r3, [r3, #20]
 897 04da 052B     		cmp	r3, #5
 898 04dc 03DC     		bgt	.L44
 244:uifunctions.c ****                 {
 245:uifunctions.c ****                     curve_nums++;
 899              		.loc 1 245 0
 900 04de 0133     		adds	r3, r3, #1
 901 04e0 264A     		ldr	r2, .L71
 902 04e2 5361     		str	r3, [r2, #20]
 903 04e4 02E0     		b	.L45
 904              	.L44:
 246:uifunctions.c ****                 }
 247:uifunctions.c ****                 else
 248:uifunctions.c ****                 {
 249:uifunctions.c ****                     curve_nums = 6;
 905              		.loc 1 249 0
 906 04e6 0622     		movs	r2, #6
 907 04e8 244B     		ldr	r3, .L71
 908 04ea 5A61     		str	r2, [r3, #20]
 909              	.L45:
 250:uifunctions.c ****                 }
 251:uifunctions.c ****                 fill_rect(40,95,60,30,BLACK);
 910              		.loc 1 251 0 discriminator 8
 911 04ec 0023     		movs	r3, #0
 912 04ee 0093     		str	r3, [sp]
 913 04f0 1E23     		movs	r3, #30
 914 04f2 3C22     		movs	r2, #60
 915 04f4 5F21     		movs	r1, #95
 916              	.LVL79:
 917 04f6 2820     		movs	r0, #40
 918              	.LVL80:
 919 04f8 FFF7FEFF 		bl	fill_rect
 920              	.LVL81:
 252:uifunctions.c ****                 
 253:uifunctions.c ****                 char num_curve[2];
 254:uifunctions.c ****                 itoa(curve_nums, num_curve, 10);
 921              		.loc 1 254 0 discriminator 8
 922 04fc 0A22     		movs	r2, #10
 923 04fe 05A9     		add	r1, sp, #20
 924 0500 1E4B     		ldr	r3, .L71
 925 0502 5869     		ldr	r0, [r3, #20]
ARM GAS  C:\Users\legoc\AppData\Local\Temp\ccZzn6ce.s 			page 22


 926 0504 FFF7FEFF 		bl	itoa
 927              	.LVL82:
 255:uifunctions.c ****                 
 256:uifunctions.c ****                 draw_string(50,105,WHITE,num_curve,3);
 928              		.loc 1 256 0 discriminator 8
 929 0508 0323     		movs	r3, #3
 930 050a 0093     		str	r3, [sp]
 931 050c 05AB     		add	r3, sp, #20
 932 050e 4FF6FF72 		movw	r2, #65535
 933 0512 6921     		movs	r1, #105
 934 0514 3220     		movs	r0, #50
 935 0516 FFF7FEFF 		bl	draw_string
 936              	.LVL83:
 937 051a B6E2     		b	.L1
 938              	.LVL84:
 939              	.L10:
 940              	.LBE23:
 257:uifunctions.c ****             }
 258:uifunctions.c ****             break;
 259:uifunctions.c ****         case OPTION_GRID_SCREEN :
 260:uifunctions.c ****             if(x>=241 && x<=319 && y>=0 && y<=239)         //return button
 941              		.loc 1 260 0
 942 051c A0F1F103 		sub	r3, r0, #241
 943 0520 9BB2     		uxth	r3, r3
 944 0522 4E2B     		cmp	r3, #78
 945 0524 04D8     		bhi	.L46
 946              		.loc 1 260 0 is_stmt 0 discriminator 1
 947 0526 EF29     		cmp	r1, #239
 948 0528 02D8     		bhi	.L46
 949              	.LBB24:
 261:uifunctions.c ****             {
 262:uifunctions.c ****                 draw_more_options_screen();
 950              		.loc 1 262 0 is_stmt 1
 951 052a FFF7FEFF 		bl	draw_more_options_screen
 952              	.LVL85:
 953              	.LBE24:
 261:uifunctions.c ****             {
 954              		.loc 1 261 0
 955 052e ACE2     		b	.L1
 956              	.LVL86:
 957              	.L46:
 263:uifunctions.c ****             }
 264:uifunctions.c ****             else if(x>=30 && x<=110 && y>=100 && y<=150)        //yes button
 958              		.loc 1 264 0
 959 0530 A4F11E03 		sub	r3, r4, #30
 960 0534 9BB2     		uxth	r3, r3
 961 0536 502B     		cmp	r3, #80
 962 0538 26D8     		bhi	.L47
 963              		.loc 1 264 0 is_stmt 0 discriminator 1
 964 053a 632D     		cmp	r5, #99
 965 053c 24D9     		bls	.L47
 966              		.loc 1 264 0 discriminator 2
 967 053e 962D     		cmp	r5, #150
 968 0540 22D8     		bhi	.L47
 969              	.LBB25:
 265:uifunctions.c ****             {
 266:uifunctions.c ****                 draw_button(30,100,80,50,LIGHTBLUE,BLACK,"YES");  
ARM GAS  C:\Users\legoc\AppData\Local\Temp\ccZzn6ce.s 			page 23


 970              		.loc 1 266 0 is_stmt 1
 971 0542 0F4B     		ldr	r3, .L71+4
 972 0544 0293     		str	r3, [sp, #8]
 973 0546 0024     		movs	r4, #0
 974 0548 0194     		str	r4, [sp, #4]
 975 054a 49F69F63 		movw	r3, #40607
 976 054e 0093     		str	r3, [sp]
 977 0550 3223     		movs	r3, #50
 978 0552 5022     		movs	r2, #80
 979 0554 6421     		movs	r1, #100
 980              	.LVL87:
 981 0556 1E20     		movs	r0, #30
 982              	.LVL88:
 983 0558 FFF7FEFF 		bl	draw_button
 984              	.LVL89:
 267:uifunctions.c ****                 draw_button(130,100,80,50,WHITE,BLACK,"NO");
 985              		.loc 1 267 0
 986 055c 094B     		ldr	r3, .L71+8
 987 055e 0293     		str	r3, [sp, #8]
 988 0560 0194     		str	r4, [sp, #4]
 989 0562 4FF6FF73 		movw	r3, #65535
 990 0566 0093     		str	r3, [sp]
 991 0568 3223     		movs	r3, #50
 992 056a 5022     		movs	r2, #80
 993 056c 6421     		movs	r1, #100
 994 056e 8220     		movs	r0, #130
 995 0570 FFF7FEFF 		bl	draw_button
 996              	.LVL90:
 268:uifunctions.c ****                 draw_grid = 1;
 997              		.loc 1 268 0
 998 0574 0122     		movs	r2, #1
 999 0576 014B     		ldr	r3, .L71
 1000 0578 9A61     		str	r2, [r3, #24]
 1001              	.LBE25:
 265:uifunctions.c ****             {
 1002              		.loc 1 265 0
 1003 057a 86E2     		b	.L1
 1004              	.L72:
 1005              		.align	2
 1006              	.L71:
 1007 057c 00000000 		.word	.LANCHOR1
 1008 0580 00000000 		.word	.LC0
 1009 0584 04000000 		.word	.LC1
 1010              	.LVL91:
 1011              	.L47:
 269:uifunctions.c ****             }
 270:uifunctions.c ****             else if(x>=130 && x<=210 && y>=100 && y<=150)       //no button
 1012              		.loc 1 270 0
 1013 0588 823C     		subs	r4, r4, #130
 1014 058a A4B2     		uxth	r4, r4
 1015 058c 502C     		cmp	r4, #80
 1016 058e 00F27C82 		bhi	.L1
 1017              		.loc 1 270 0 is_stmt 0 discriminator 1
 1018 0592 632D     		cmp	r5, #99
 1019 0594 40F27982 		bls	.L1
 1020              		.loc 1 270 0 discriminator 2
 1021 0598 962D     		cmp	r5, #150
ARM GAS  C:\Users\legoc\AppData\Local\Temp\ccZzn6ce.s 			page 24


 1022 059a 00F27682 		bhi	.L1
 1023              	.LBB26:
 271:uifunctions.c ****             {
 272:uifunctions.c ****                 draw_button(30,100,80,50,WHITE,BLACK,"YES");  
 1024              		.loc 1 272 0 is_stmt 1
 1025 059e 964B     		ldr	r3, .L73
 1026 05a0 0293     		str	r3, [sp, #8]
 1027 05a2 0024     		movs	r4, #0
 1028 05a4 0194     		str	r4, [sp, #4]
 1029 05a6 4FF6FF73 		movw	r3, #65535
 1030 05aa 0093     		str	r3, [sp]
 1031 05ac 3223     		movs	r3, #50
 1032 05ae 5022     		movs	r2, #80
 1033 05b0 6421     		movs	r1, #100
 1034              	.LVL92:
 1035 05b2 1E20     		movs	r0, #30
 1036              	.LVL93:
 1037 05b4 FFF7FEFF 		bl	draw_button
 1038              	.LVL94:
 273:uifunctions.c ****                 draw_button(130,100,80,50,LIGHTBLUE,BLACK,"NO");
 1039              		.loc 1 273 0
 1040 05b8 904B     		ldr	r3, .L73+4
 1041 05ba 0293     		str	r3, [sp, #8]
 1042 05bc 0194     		str	r4, [sp, #4]
 1043 05be 49F69F63 		movw	r3, #40607
 1044 05c2 0093     		str	r3, [sp]
 1045 05c4 3223     		movs	r3, #50
 1046 05c6 5022     		movs	r2, #80
 1047 05c8 6421     		movs	r1, #100
 1048 05ca 8220     		movs	r0, #130
 1049 05cc FFF7FEFF 		bl	draw_button
 1050              	.LVL95:
 274:uifunctions.c ****                 draw_grid = 0;
 1051              		.loc 1 274 0
 1052 05d0 8B4B     		ldr	r3, .L73+8
 1053 05d2 9C61     		str	r4, [r3, #24]
 1054 05d4 59E2     		b	.L1
 1055              	.LVL96:
 1056              	.L11:
 1057              	.LBE26:
 275:uifunctions.c ****             }
 276:uifunctions.c ****             break;
 277:uifunctions.c ****         case DEBUG_SCREEN :
 278:uifunctions.c ****             if(x>=0 && x<=319 && y>=0 && y<=239)                  //return button
 1058              		.loc 1 278 0
 1059 05d6 B0F5A07F 		cmp	r0, #320
 1060 05da 80F05682 		bcs	.L1
 1061              		.loc 1 278 0 is_stmt 0 discriminator 1
 1062 05de EF29     		cmp	r1, #239
 1063 05e0 00F25382 		bhi	.L1
 279:uifunctions.c ****             {
 280:uifunctions.c ****                 screen_state = DEVICE_SELECTION_SCREEN;
 1064              		.loc 1 280 0 is_stmt 1
 1065 05e4 0022     		movs	r2, #0
 1066 05e6 874B     		ldr	r3, .L73+12
 1067 05e8 1A60     		str	r2, [r3]
 1068 05ea 4EE2     		b	.L1
ARM GAS  C:\Users\legoc\AppData\Local\Temp\ccZzn6ce.s 			page 25


 1069              	.L12:
 281:uifunctions.c **** 
 282:uifunctions.c ****             }
 283:uifunctions.c **** //            else                                                //draws coordinates of touch
 284:uifunctions.c **** //            {
 285:uifunctions.c **** //                fill_rect(95,95,30,30,BLACK);
 286:uifunctions.c **** //            
 287:uifunctions.c **** //                char x_touch[10];
 288:uifunctions.c **** //                char y_touch[10];
 289:uifunctions.c **** //
 290:uifunctions.c **** //                itoa(x, x_touch, 10);
 291:uifunctions.c **** //                itoa(y, y_touch, 10);
 292:uifunctions.c **** //                
 293:uifunctions.c **** //                draw_string(100,110,WHITE,x_touch,1);
 294:uifunctions.c **** //                draw_string(100,100,WHITE,y_touch,1);
 295:uifunctions.c **** //            }
 296:uifunctions.c ****             break;
 297:uifunctions.c ****         case OPTIONS_SCREEN_2 :
 298:uifunctions.c ****             if(x>=0 && x<=119 && y>=0 && y<=119)                //button for number of averages opt
 1070              		.loc 1 298 0
 1071 05ec 7728     		cmp	r0, #119
 1072 05ee 04D8     		bhi	.L48
 1073              		.loc 1 298 0 is_stmt 0 discriminator 1
 1074 05f0 7729     		cmp	r1, #119
 1075 05f2 02D8     		bhi	.L48
 1076              	.LBB27:
 299:uifunctions.c ****             {
 300:uifunctions.c ****                 draw_vds_options_screen(); 
 1077              		.loc 1 300 0 is_stmt 1
 1078 05f4 FFF7FEFF 		bl	draw_vds_options_screen
 1079              	.LVL97:
 1080              	.LBE27:
 299:uifunctions.c ****             {
 1081              		.loc 1 299 0
 1082 05f8 47E2     		b	.L1
 1083              	.LVL98:
 1084              	.L48:
 301:uifunctions.c ****             }
 302:uifunctions.c ****             else if(x>=0 && x<=119 && y>=121 && y<=239)         //button for grid options
 1085              		.loc 1 302 0
 1086 05fa 772C     		cmp	r4, #119
 1087 05fc 06D8     		bhi	.L49
 1088              		.loc 1 302 0 is_stmt 0 discriminator 1
 1089 05fe 782D     		cmp	r5, #120
 1090 0600 04D9     		bls	.L49
 1091              		.loc 1 302 0 discriminator 2
 1092 0602 EF2D     		cmp	r5, #239
 1093 0604 02D8     		bhi	.L49
 1094              	.LBB28:
 303:uifunctions.c ****             {
 304:uifunctions.c ****                 draw_options_grid_screen();
 1095              		.loc 1 304 0 is_stmt 1
 1096 0606 FFF7FEFF 		bl	draw_options_grid_screen
 1097              	.LVL99:
 1098              	.LBE28:
 303:uifunctions.c ****             {
 1099              		.loc 1 303 0
ARM GAS  C:\Users\legoc\AppData\Local\Temp\ccZzn6ce.s 			page 26


 1100 060a 3EE2     		b	.L1
 1101              	.LVL100:
 1102              	.L49:
 305:uifunctions.c ****             }
 306:uifunctions.c ****             else if(x>=121 && x<=240 && y>=121 && y<=239)       //button for cooldown options
 1103              		.loc 1 306 0
 1104 060c A4F17903 		sub	r3, r4, #121
 1105 0610 9BB2     		uxth	r3, r3
 1106 0612 772B     		cmp	r3, #119
 1107 0614 06D8     		bhi	.L50
 1108              		.loc 1 306 0 is_stmt 0 discriminator 1
 1109 0616 782D     		cmp	r5, #120
 1110 0618 04D9     		bls	.L50
 1111              		.loc 1 306 0 discriminator 2
 1112 061a EF2D     		cmp	r5, #239
 1113 061c 02D8     		bhi	.L50
 1114              	.LBB29:
 307:uifunctions.c ****             {
 308:uifunctions.c ****                 draw_options_cooldown_screen();
 1115              		.loc 1 308 0 is_stmt 1
 1116 061e FFF7FEFF 		bl	draw_options_cooldown_screen
 1117              	.LVL101:
 1118              	.LBE29:
 307:uifunctions.c ****             {
 1119              		.loc 1 307 0
 1120 0622 32E2     		b	.L1
 1121              	.LVL102:
 1122              	.L50:
 309:uifunctions.c ****             }
 310:uifunctions.c ****             else if(x>=241 && x<=319 && y>=0 && y<=119)         //return button
 1123              		.loc 1 310 0
 1124 0624 F13C     		subs	r4, r4, #241
 1125 0626 A4B2     		uxth	r4, r4
 1126 0628 4E2C     		cmp	r4, #78
 1127 062a 04D8     		bhi	.L51
 1128              		.loc 1 310 0 is_stmt 0 discriminator 1
 1129 062c 772D     		cmp	r5, #119
 1130 062e 02D8     		bhi	.L51
 1131              	.LBB30:
 311:uifunctions.c ****             {
 312:uifunctions.c ****                 draw_options_screen();
 1132              		.loc 1 312 0 is_stmt 1
 1133 0630 FFF7FEFF 		bl	draw_options_screen
 1134              	.LVL103:
 1135              	.LBE30:
 311:uifunctions.c ****             {
 1136              		.loc 1 311 0
 1137 0634 29E2     		b	.L1
 1138              	.LVL104:
 1139              	.L51:
 313:uifunctions.c ****             }
 314:uifunctions.c ****             else if(x>=241 && x<=319 && y>=121 && y<=239)       //run test button
 1140              		.loc 1 314 0
 1141 0636 4E2C     		cmp	r4, #78
 1142 0638 00F22782 		bhi	.L1
 1143              		.loc 1 314 0 is_stmt 0 discriminator 1
 1144 063c 782D     		cmp	r5, #120
ARM GAS  C:\Users\legoc\AppData\Local\Temp\ccZzn6ce.s 			page 27


 1145 063e 40F22482 		bls	.L1
 1146              		.loc 1 314 0 discriminator 2
 1147 0642 EF2D     		cmp	r5, #239
 1148 0644 00F22182 		bhi	.L1
 315:uifunctions.c ****             {
 316:uifunctions.c ****                 screen_state = PLOT_SCREEN;
 1149              		.loc 1 316 0 is_stmt 1
 1150 0648 0222     		movs	r2, #2
 1151 064a 6E4B     		ldr	r3, .L73+12
 1152 064c 1A60     		str	r2, [r3]
 1153 064e 1CE2     		b	.L1
 1154              	.L13:
 317:uifunctions.c ****             }
 318:uifunctions.c ****             break;
 319:uifunctions.c ****         case OPTION_COOLDOWN_SCREEN :
 320:uifunctions.c ****             if(x>=241 && x<=319 && y>=0 && y<=239)         //return button
 1155              		.loc 1 320 0
 1156 0650 A0F1F103 		sub	r3, r0, #241
 1157 0654 9BB2     		uxth	r3, r3
 1158 0656 4E2B     		cmp	r3, #78
 1159 0658 04D8     		bhi	.L52
 1160              		.loc 1 320 0 is_stmt 0 discriminator 1
 1161 065a EF29     		cmp	r1, #239
 1162 065c 02D8     		bhi	.L52
 1163              	.LBB31:
 321:uifunctions.c ****             {
 322:uifunctions.c ****                 draw_more_options_screen();
 1164              		.loc 1 322 0 is_stmt 1
 1165 065e FFF7FEFF 		bl	draw_more_options_screen
 1166              	.LVL105:
 1167              	.LBE31:
 321:uifunctions.c ****             {
 1168              		.loc 1 321 0
 1169 0662 12E2     		b	.L1
 1170              	.LVL106:
 1171              	.L52:
 323:uifunctions.c ****             }
 324:uifunctions.c ****             else if(x>=40 && x<=110 && y>=15 && y<=65)      //button 5
 1172              		.loc 1 324 0
 1173 0664 A4F12803 		sub	r3, r4, #40
 1174 0668 9BB2     		uxth	r3, r3
 1175 066a 462B     		cmp	r3, #70
 1176 066c 3ED8     		bhi	.L53
 1177              		.loc 1 324 0 is_stmt 0 discriminator 1
 1178 066e 0E2D     		cmp	r5, #14
 1179 0670 3CD9     		bls	.L53
 1180              		.loc 1 324 0 discriminator 2
 1181 0672 412D     		cmp	r5, #65
 1182 0674 3AD8     		bhi	.L53
 1183              	.LBB32:
 325:uifunctions.c ****             {
 326:uifunctions.c ****                 cooldown_time = 5;
 1184              		.loc 1 326 0 is_stmt 1
 1185 0676 0522     		movs	r2, #5
 1186 0678 624B     		ldr	r3, .L73+12
 1187 067a DA60     		str	r2, [r3, #12]
 327:uifunctions.c ****                 draw_button(40,15,70,50,LIGHTBLUE,BLACK,"5");
ARM GAS  C:\Users\legoc\AppData\Local\Temp\ccZzn6ce.s 			page 28


 1188              		.loc 1 327 0
 1189 067c 624B     		ldr	r3, .L73+16
 1190 067e 0293     		str	r3, [sp, #8]
 1191 0680 0024     		movs	r4, #0
 1192 0682 0194     		str	r4, [sp, #4]
 1193 0684 49F69F63 		movw	r3, #40607
 1194 0688 0093     		str	r3, [sp]
 1195 068a 3223     		movs	r3, #50
 1196 068c 4622     		movs	r2, #70
 1197 068e 0F21     		movs	r1, #15
 1198              	.LVL107:
 1199 0690 2820     		movs	r0, #40
 1200              	.LVL108:
 1201 0692 FFF7FEFF 		bl	draw_button
 1202              	.LVL109:
 328:uifunctions.c ****                 draw_button(130,15,70,50,WHITE,BLACK,"10");
 1203              		.loc 1 328 0
 1204 0696 5D4B     		ldr	r3, .L73+20
 1205 0698 0293     		str	r3, [sp, #8]
 1206 069a 0194     		str	r4, [sp, #4]
 1207 069c 4FF6FF75 		movw	r5, #65535
 1208 06a0 0095     		str	r5, [sp]
 1209 06a2 3223     		movs	r3, #50
 1210 06a4 4622     		movs	r2, #70
 1211 06a6 0F21     		movs	r1, #15
 1212 06a8 8220     		movs	r0, #130
 1213 06aa FFF7FEFF 		bl	draw_button
 1214              	.LVL110:
 329:uifunctions.c ****                 draw_button(40,85,70,50,WHITE,BLACK,"1");
 1215              		.loc 1 329 0
 1216 06ae 584B     		ldr	r3, .L73+24
 1217 06b0 0293     		str	r3, [sp, #8]
 1218 06b2 0194     		str	r4, [sp, #4]
 1219 06b4 0095     		str	r5, [sp]
 1220 06b6 3223     		movs	r3, #50
 1221 06b8 4622     		movs	r2, #70
 1222 06ba 5521     		movs	r1, #85
 1223 06bc 2820     		movs	r0, #40
 1224 06be FFF7FEFF 		bl	draw_button
 1225              	.LVL111:
 330:uifunctions.c ****                 draw_button(130,85,70,50,WHITE,BLACK,"2");
 1226              		.loc 1 330 0
 1227 06c2 544B     		ldr	r3, .L73+28
 1228 06c4 0293     		str	r3, [sp, #8]
 1229 06c6 0194     		str	r4, [sp, #4]
 1230 06c8 0095     		str	r5, [sp]
 1231 06ca 3223     		movs	r3, #50
 1232 06cc 4622     		movs	r2, #70
 1233 06ce 5521     		movs	r1, #85
 1234 06d0 8220     		movs	r0, #130
 1235 06d2 FFF7FEFF 		bl	draw_button
 1236              	.LVL112:
 331:uifunctions.c ****                 draw_button(85,155,70,50,WHITE,BLACK,"NO COOLDOWN");
 1237              		.loc 1 331 0
 1238 06d6 504B     		ldr	r3, .L73+32
 1239 06d8 0293     		str	r3, [sp, #8]
 1240 06da 0194     		str	r4, [sp, #4]
ARM GAS  C:\Users\legoc\AppData\Local\Temp\ccZzn6ce.s 			page 29


 1241 06dc 0095     		str	r5, [sp]
 1242 06de 3223     		movs	r3, #50
 1243 06e0 4622     		movs	r2, #70
 1244 06e2 9B21     		movs	r1, #155
 1245 06e4 5520     		movs	r0, #85
 1246 06e6 FFF7FEFF 		bl	draw_button
 1247              	.LVL113:
 1248              	.LBE32:
 325:uifunctions.c ****                 cooldown_time = 5;
 1249              		.loc 1 325 0
 1250 06ea CEE1     		b	.L1
 1251              	.LVL114:
 1252              	.L53:
 332:uifunctions.c ****             }
 333:uifunctions.c ****             else if(x>=130 && x<=200 && y>=15 && y<=65)      //button 10
 1253              		.loc 1 333 0
 1254 06ec A4F18202 		sub	r2, r4, #130
 1255 06f0 92B2     		uxth	r2, r2
 1256 06f2 462A     		cmp	r2, #70
 1257 06f4 3ED8     		bhi	.L54
 1258              		.loc 1 333 0 is_stmt 0 discriminator 1
 1259 06f6 0E2D     		cmp	r5, #14
 1260 06f8 3CD9     		bls	.L54
 1261              		.loc 1 333 0 discriminator 2
 1262 06fa 412D     		cmp	r5, #65
 1263 06fc 3AD8     		bhi	.L54
 1264              	.LBB33:
 334:uifunctions.c ****             {
 335:uifunctions.c ****                 cooldown_time = 10;
 1265              		.loc 1 335 0 is_stmt 1
 1266 06fe 0A22     		movs	r2, #10
 1267 0700 404B     		ldr	r3, .L73+12
 1268 0702 DA60     		str	r2, [r3, #12]
 336:uifunctions.c ****                 draw_button(40,15,70,50,WHITE,BLACK,"5");
 1269              		.loc 1 336 0
 1270 0704 404B     		ldr	r3, .L73+16
 1271 0706 0293     		str	r3, [sp, #8]
 1272 0708 0024     		movs	r4, #0
 1273 070a 0194     		str	r4, [sp, #4]
 1274 070c 4FF6FF75 		movw	r5, #65535
 1275 0710 0095     		str	r5, [sp]
 1276 0712 3223     		movs	r3, #50
 1277 0714 4622     		movs	r2, #70
 1278 0716 0F21     		movs	r1, #15
 1279              	.LVL115:
 1280 0718 2820     		movs	r0, #40
 1281              	.LVL116:
 1282 071a FFF7FEFF 		bl	draw_button
 1283              	.LVL117:
 337:uifunctions.c ****                 draw_button(130,15,70,50,LIGHTBLUE,BLACK,"10");
 1284              		.loc 1 337 0
 1285 071e 3B4B     		ldr	r3, .L73+20
 1286 0720 0293     		str	r3, [sp, #8]
 1287 0722 0194     		str	r4, [sp, #4]
 1288 0724 49F69F63 		movw	r3, #40607
 1289 0728 0093     		str	r3, [sp]
 1290 072a 3223     		movs	r3, #50
ARM GAS  C:\Users\legoc\AppData\Local\Temp\ccZzn6ce.s 			page 30


 1291 072c 4622     		movs	r2, #70
 1292 072e 0F21     		movs	r1, #15
 1293 0730 8220     		movs	r0, #130
 1294 0732 FFF7FEFF 		bl	draw_button
 1295              	.LVL118:
 338:uifunctions.c ****                 draw_button(40,85,70,50,WHITE,BLACK,"1");
 1296              		.loc 1 338 0
 1297 0736 364B     		ldr	r3, .L73+24
 1298 0738 0293     		str	r3, [sp, #8]
 1299 073a 0194     		str	r4, [sp, #4]
 1300 073c 0095     		str	r5, [sp]
 1301 073e 3223     		movs	r3, #50
 1302 0740 4622     		movs	r2, #70
 1303 0742 5521     		movs	r1, #85
 1304 0744 2820     		movs	r0, #40
 1305 0746 FFF7FEFF 		bl	draw_button
 1306              	.LVL119:
 339:uifunctions.c ****                 draw_button(130,85,70,50,WHITE,BLACK,"2");
 1307              		.loc 1 339 0
 1308 074a 324B     		ldr	r3, .L73+28
 1309 074c 0293     		str	r3, [sp, #8]
 1310 074e 0194     		str	r4, [sp, #4]
 1311 0750 0095     		str	r5, [sp]
 1312 0752 3223     		movs	r3, #50
 1313 0754 4622     		movs	r2, #70
 1314 0756 5521     		movs	r1, #85
 1315 0758 8220     		movs	r0, #130
 1316 075a FFF7FEFF 		bl	draw_button
 1317              	.LVL120:
 340:uifunctions.c ****                 draw_button(85,155,70,50,WHITE,BLACK,"NO COOLDOWN");
 1318              		.loc 1 340 0
 1319 075e 2E4B     		ldr	r3, .L73+32
 1320 0760 0293     		str	r3, [sp, #8]
 1321 0762 0194     		str	r4, [sp, #4]
 1322 0764 0095     		str	r5, [sp]
 1323 0766 3223     		movs	r3, #50
 1324 0768 4622     		movs	r2, #70
 1325 076a 9B21     		movs	r1, #155
 1326 076c 5520     		movs	r0, #85
 1327 076e FFF7FEFF 		bl	draw_button
 1328              	.LVL121:
 1329              	.LBE33:
 334:uifunctions.c ****                 cooldown_time = 10;
 1330              		.loc 1 334 0
 1331 0772 8AE1     		b	.L1
 1332              	.LVL122:
 1333              	.L54:
 341:uifunctions.c ****             }
 342:uifunctions.c ****             else if(x>=40 && x<=110 && y>=85 && y<=135)      //button 1
 1334              		.loc 1 342 0
 1335 0774 462B     		cmp	r3, #70
 1336 0776 51D8     		bhi	.L55
 1337              		.loc 1 342 0 is_stmt 0 discriminator 1
 1338 0778 542D     		cmp	r5, #84
 1339 077a 4FD9     		bls	.L55
 1340              		.loc 1 342 0 discriminator 2
 1341 077c 872D     		cmp	r5, #135
ARM GAS  C:\Users\legoc\AppData\Local\Temp\ccZzn6ce.s 			page 31


 1342 077e 4DD8     		bhi	.L55
 1343              	.LBB34:
 343:uifunctions.c ****             {
 344:uifunctions.c ****                 cooldown_time = 1;
 1344              		.loc 1 344 0 is_stmt 1
 1345 0780 0122     		movs	r2, #1
 1346 0782 204B     		ldr	r3, .L73+12
 1347 0784 DA60     		str	r2, [r3, #12]
 345:uifunctions.c ****                 draw_button(40,15,70,50,WHITE,BLACK,"5");
 1348              		.loc 1 345 0
 1349 0786 204B     		ldr	r3, .L73+16
 1350 0788 0293     		str	r3, [sp, #8]
 1351 078a 0024     		movs	r4, #0
 1352 078c 0194     		str	r4, [sp, #4]
 1353 078e 4FF6FF75 		movw	r5, #65535
 1354 0792 0095     		str	r5, [sp]
 1355 0794 3223     		movs	r3, #50
 1356 0796 4622     		movs	r2, #70
 1357 0798 0F21     		movs	r1, #15
 1358              	.LVL123:
 1359 079a 2820     		movs	r0, #40
 1360              	.LVL124:
 1361 079c FFF7FEFF 		bl	draw_button
 1362              	.LVL125:
 346:uifunctions.c ****                 draw_button(130,15,70,50,WHITE,BLACK,"10");
 1363              		.loc 1 346 0
 1364 07a0 1A4B     		ldr	r3, .L73+20
 1365 07a2 0293     		str	r3, [sp, #8]
 1366 07a4 0194     		str	r4, [sp, #4]
 1367 07a6 0095     		str	r5, [sp]
 1368 07a8 3223     		movs	r3, #50
 1369 07aa 4622     		movs	r2, #70
 1370 07ac 0F21     		movs	r1, #15
 1371 07ae 8220     		movs	r0, #130
 1372 07b0 FFF7FEFF 		bl	draw_button
 1373              	.LVL126:
 347:uifunctions.c ****                 draw_button(40,85,70,50,LIGHTBLUE,BLACK,"1");
 1374              		.loc 1 347 0
 1375 07b4 164B     		ldr	r3, .L73+24
 1376 07b6 0293     		str	r3, [sp, #8]
 1377 07b8 0194     		str	r4, [sp, #4]
 1378 07ba 49F69F63 		movw	r3, #40607
 1379 07be 0093     		str	r3, [sp]
 1380 07c0 3223     		movs	r3, #50
 1381 07c2 4622     		movs	r2, #70
 1382 07c4 5521     		movs	r1, #85
 1383 07c6 2820     		movs	r0, #40
 1384 07c8 FFF7FEFF 		bl	draw_button
 1385              	.LVL127:
 348:uifunctions.c ****                 draw_button(130,85,70,50,WHITE,BLACK,"2");
 1386              		.loc 1 348 0
 1387 07cc 114B     		ldr	r3, .L73+28
 1388 07ce 0293     		str	r3, [sp, #8]
 1389 07d0 0194     		str	r4, [sp, #4]
 1390 07d2 0095     		str	r5, [sp]
 1391 07d4 3223     		movs	r3, #50
 1392 07d6 4622     		movs	r2, #70
ARM GAS  C:\Users\legoc\AppData\Local\Temp\ccZzn6ce.s 			page 32


 1393 07d8 5521     		movs	r1, #85
 1394 07da 8220     		movs	r0, #130
 1395 07dc FFF7FEFF 		bl	draw_button
 1396              	.LVL128:
 349:uifunctions.c ****                 draw_button(85,155,70,50,WHITE,BLACK,"NO COOLDOWN");
 1397              		.loc 1 349 0
 1398 07e0 0D4B     		ldr	r3, .L73+32
 1399 07e2 0293     		str	r3, [sp, #8]
 1400 07e4 0194     		str	r4, [sp, #4]
 1401 07e6 0095     		str	r5, [sp]
 1402 07e8 3223     		movs	r3, #50
 1403 07ea 4622     		movs	r2, #70
 1404 07ec 9B21     		movs	r1, #155
 1405 07ee 5520     		movs	r0, #85
 1406 07f0 FFF7FEFF 		bl	draw_button
 1407              	.LVL129:
 1408              	.LBE34:
 343:uifunctions.c ****                 cooldown_time = 1;
 1409              		.loc 1 343 0
 1410 07f4 49E1     		b	.L1
 1411              	.L74:
 1412 07f6 00BF     		.align	2
 1413              	.L73:
 1414 07f8 00000000 		.word	.LC0
 1415 07fc 04000000 		.word	.LC1
 1416 0800 00000000 		.word	.LANCHOR1
 1417 0804 00000000 		.word	.LANCHOR0
 1418 0808 08000000 		.word	.LC2
 1419 080c 0C000000 		.word	.LC3
 1420 0810 10000000 		.word	.LC4
 1421 0814 14000000 		.word	.LC5
 1422 0818 18000000 		.word	.LC6
 1423              	.LVL130:
 1424              	.L55:
 350:uifunctions.c ****             }
 351:uifunctions.c ****             else if(x>=130 && x<=200 && y>=85 && y<=135)      //button 2
 1425              		.loc 1 351 0
 1426 081c 462A     		cmp	r2, #70
 1427 081e 3ED8     		bhi	.L56
 1428              		.loc 1 351 0 is_stmt 0 discriminator 1
 1429 0820 542D     		cmp	r5, #84
 1430 0822 3CD9     		bls	.L56
 1431              		.loc 1 351 0 discriminator 2
 1432 0824 872D     		cmp	r5, #135
 1433 0826 3AD8     		bhi	.L56
 1434              	.LBB35:
 352:uifunctions.c ****             {
 353:uifunctions.c ****                 cooldown_time = 2;
 1435              		.loc 1 353 0 is_stmt 1
 1436 0828 0222     		movs	r2, #2
 1437 082a 9D4B     		ldr	r3, .L75+16
 1438 082c DA60     		str	r2, [r3, #12]
 354:uifunctions.c ****                 draw_button(40,15,70,50,WHITE,BLACK,"5");
 1439              		.loc 1 354 0
 1440 082e 9D4B     		ldr	r3, .L75+20
 1441 0830 0293     		str	r3, [sp, #8]
 1442 0832 0024     		movs	r4, #0
ARM GAS  C:\Users\legoc\AppData\Local\Temp\ccZzn6ce.s 			page 33


 1443 0834 0194     		str	r4, [sp, #4]
 1444 0836 4FF6FF75 		movw	r5, #65535
 1445 083a 0095     		str	r5, [sp]
 1446 083c 3223     		movs	r3, #50
 1447 083e 4622     		movs	r2, #70
 1448 0840 0F21     		movs	r1, #15
 1449              	.LVL131:
 1450 0842 2820     		movs	r0, #40
 1451              	.LVL132:
 1452 0844 FFF7FEFF 		bl	draw_button
 1453              	.LVL133:
 355:uifunctions.c ****                 draw_button(130,15,70,50,WHITE,BLACK,"10");
 1454              		.loc 1 355 0
 1455 0848 974B     		ldr	r3, .L75+24
 1456 084a 0293     		str	r3, [sp, #8]
 1457 084c 0194     		str	r4, [sp, #4]
 1458 084e 0095     		str	r5, [sp]
 1459 0850 3223     		movs	r3, #50
 1460 0852 4622     		movs	r2, #70
 1461 0854 0F21     		movs	r1, #15
 1462 0856 8220     		movs	r0, #130
 1463 0858 FFF7FEFF 		bl	draw_button
 1464              	.LVL134:
 356:uifunctions.c ****                 draw_button(40,85,70,50,WHITE,BLACK,"1");
 1465              		.loc 1 356 0
 1466 085c 934B     		ldr	r3, .L75+28
 1467 085e 0293     		str	r3, [sp, #8]
 1468 0860 0194     		str	r4, [sp, #4]
 1469 0862 0095     		str	r5, [sp]
 1470 0864 3223     		movs	r3, #50
 1471 0866 4622     		movs	r2, #70
 1472 0868 5521     		movs	r1, #85
 1473 086a 2820     		movs	r0, #40
 1474 086c FFF7FEFF 		bl	draw_button
 1475              	.LVL135:
 357:uifunctions.c ****                 draw_button(130,85,70,50,LIGHTBLUE,BLACK,"2");
 1476              		.loc 1 357 0
 1477 0870 8F4B     		ldr	r3, .L75+32
 1478 0872 0293     		str	r3, [sp, #8]
 1479 0874 0194     		str	r4, [sp, #4]
 1480 0876 49F69F63 		movw	r3, #40607
 1481 087a 0093     		str	r3, [sp]
 1482 087c 3223     		movs	r3, #50
 1483 087e 4622     		movs	r2, #70
 1484 0880 5521     		movs	r1, #85
 1485 0882 8220     		movs	r0, #130
 1486 0884 FFF7FEFF 		bl	draw_button
 1487              	.LVL136:
 358:uifunctions.c ****                 draw_button(85,155,70,50,WHITE,BLACK,"NO COOLDOWN");
 1488              		.loc 1 358 0
 1489 0888 8A4B     		ldr	r3, .L75+36
 1490 088a 0293     		str	r3, [sp, #8]
 1491 088c 0194     		str	r4, [sp, #4]
 1492 088e 0095     		str	r5, [sp]
 1493 0890 3223     		movs	r3, #50
 1494 0892 4622     		movs	r2, #70
 1495 0894 9B21     		movs	r1, #155
ARM GAS  C:\Users\legoc\AppData\Local\Temp\ccZzn6ce.s 			page 34


 1496 0896 5520     		movs	r0, #85
 1497 0898 FFF7FEFF 		bl	draw_button
 1498              	.LVL137:
 1499              	.LBE35:
 352:uifunctions.c ****                 cooldown_time = 2;
 1500              		.loc 1 352 0
 1501 089c F5E0     		b	.L1
 1502              	.LVL138:
 1503              	.L56:
 359:uifunctions.c ****             }
 360:uifunctions.c ****             else if(x>=85 && x<=155 && y>=155 && y<=205)      //button no cooldown
 1504              		.loc 1 360 0
 1505 089e 553C     		subs	r4, r4, #85
 1506 08a0 A4B2     		uxth	r4, r4
 1507 08a2 462C     		cmp	r4, #70
 1508 08a4 00F2F180 		bhi	.L1
 1509              		.loc 1 360 0 is_stmt 0 discriminator 1
 1510 08a8 9A2D     		cmp	r5, #154
 1511 08aa 40F2EE80 		bls	.L1
 1512              		.loc 1 360 0 discriminator 2
 1513 08ae CD2D     		cmp	r5, #205
 1514 08b0 00F2EB80 		bhi	.L1
 1515              	.LBB36:
 361:uifunctions.c ****             {
 362:uifunctions.c ****                 cooldown_time = 0;
 1516              		.loc 1 362 0 is_stmt 1
 1517 08b4 0024     		movs	r4, #0
 1518 08b6 7A4B     		ldr	r3, .L75+16
 1519 08b8 DC60     		str	r4, [r3, #12]
 363:uifunctions.c ****                 draw_button(40,15,70,50,WHITE,BLACK,"5");
 1520              		.loc 1 363 0
 1521 08ba 7A4B     		ldr	r3, .L75+20
 1522 08bc 0293     		str	r3, [sp, #8]
 1523 08be 0194     		str	r4, [sp, #4]
 1524 08c0 4FF6FF75 		movw	r5, #65535
 1525 08c4 0095     		str	r5, [sp]
 1526 08c6 3223     		movs	r3, #50
 1527 08c8 4622     		movs	r2, #70
 1528 08ca 0F21     		movs	r1, #15
 1529              	.LVL139:
 1530 08cc 2820     		movs	r0, #40
 1531              	.LVL140:
 1532 08ce FFF7FEFF 		bl	draw_button
 1533              	.LVL141:
 364:uifunctions.c ****                 draw_button(130,15,70,50,WHITE,BLACK,"10");
 1534              		.loc 1 364 0
 1535 08d2 754B     		ldr	r3, .L75+24
 1536 08d4 0293     		str	r3, [sp, #8]
 1537 08d6 0194     		str	r4, [sp, #4]
 1538 08d8 0095     		str	r5, [sp]
 1539 08da 3223     		movs	r3, #50
 1540 08dc 4622     		movs	r2, #70
 1541 08de 0F21     		movs	r1, #15
 1542 08e0 8220     		movs	r0, #130
 1543 08e2 FFF7FEFF 		bl	draw_button
 1544              	.LVL142:
 365:uifunctions.c ****                 draw_button(40,85,70,50,WHITE,BLACK,"1");
ARM GAS  C:\Users\legoc\AppData\Local\Temp\ccZzn6ce.s 			page 35


 1545              		.loc 1 365 0
 1546 08e6 714B     		ldr	r3, .L75+28
 1547 08e8 0293     		str	r3, [sp, #8]
 1548 08ea 0194     		str	r4, [sp, #4]
 1549 08ec 0095     		str	r5, [sp]
 1550 08ee 3223     		movs	r3, #50
 1551 08f0 4622     		movs	r2, #70
 1552 08f2 5521     		movs	r1, #85
 1553 08f4 2820     		movs	r0, #40
 1554 08f6 FFF7FEFF 		bl	draw_button
 1555              	.LVL143:
 366:uifunctions.c ****                 draw_button(130,85,70,50,WHITE,BLACK,"2");
 1556              		.loc 1 366 0
 1557 08fa 6D4B     		ldr	r3, .L75+32
 1558 08fc 0293     		str	r3, [sp, #8]
 1559 08fe 0194     		str	r4, [sp, #4]
 1560 0900 0095     		str	r5, [sp]
 1561 0902 3223     		movs	r3, #50
 1562 0904 4622     		movs	r2, #70
 1563 0906 5521     		movs	r1, #85
 1564 0908 8220     		movs	r0, #130
 1565 090a FFF7FEFF 		bl	draw_button
 1566              	.LVL144:
 367:uifunctions.c ****                 draw_button(85,155,70,50,LIGHTBLUE,BLACK,"NO COOLDOWN");
 1567              		.loc 1 367 0
 1568 090e 694B     		ldr	r3, .L75+36
 1569 0910 0293     		str	r3, [sp, #8]
 1570 0912 0194     		str	r4, [sp, #4]
 1571 0914 49F69F63 		movw	r3, #40607
 1572 0918 0093     		str	r3, [sp]
 1573 091a 3223     		movs	r3, #50
 1574 091c 4622     		movs	r2, #70
 1575 091e 9B21     		movs	r1, #155
 1576 0920 5520     		movs	r0, #85
 1577 0922 FFF7FEFF 		bl	draw_button
 1578              	.LVL145:
 1579 0926 B0E0     		b	.L1
 1580              	.LVL146:
 1581              	.L14:
 1582              	.LBE36:
 368:uifunctions.c ****             }
 369:uifunctions.c ****             break;
 370:uifunctions.c ****         case OPTION_VDS_SCREEN :
 371:uifunctions.c ****             if(x>=241 && x<=319 && y>=0 && y<=239)         //return button
 1583              		.loc 1 371 0
 1584 0928 A0F1F103 		sub	r3, r0, #241
 1585 092c 9BB2     		uxth	r3, r3
 1586 092e 4E2B     		cmp	r3, #78
 1587 0930 04D8     		bhi	.L57
 1588              		.loc 1 371 0 is_stmt 0 discriminator 1
 1589 0932 EF29     		cmp	r1, #239
 1590 0934 02D8     		bhi	.L57
 1591              	.LBB37:
 372:uifunctions.c ****             {
 373:uifunctions.c ****                 draw_more_options_screen();
 1592              		.loc 1 373 0 is_stmt 1
 1593 0936 FFF7FEFF 		bl	draw_more_options_screen
ARM GAS  C:\Users\legoc\AppData\Local\Temp\ccZzn6ce.s 			page 36


 1594              	.LVL147:
 1595              	.LBE37:
 372:uifunctions.c ****             {
 1596              		.loc 1 372 0
 1597 093a 79E0     		b	.L58
 1598              	.LVL148:
 1599              	.L57:
 374:uifunctions.c ****             }
 375:uifunctions.c ****             else if(x>=130 && x<=200 && y>=30 && y<=100)    //decrease button                 
 1600              		.loc 1 375 0
 1601 093c 823C     		subs	r4, r4, #130
 1602 093e A4B2     		uxth	r4, r4
 1603 0940 462C     		cmp	r4, #70
 1604 0942 26D8     		bhi	.L59
 1605              		.loc 1 375 0 is_stmt 0 discriminator 1
 1606 0944 1D2D     		cmp	r5, #29
 1607 0946 24D9     		bls	.L59
 1608              		.loc 1 375 0 discriminator 2
 1609 0948 642D     		cmp	r5, #100
 1610 094a 22D8     		bhi	.L59
 1611              	.LBB38:
 376:uifunctions.c ****             {
 377:uifunctions.c ****                 if(vds_high>3)
 1612              		.loc 1 377 0 is_stmt 1
 1613 094c 5A4B     		ldr	r3, .L75+40
 1614 094e 1B68     		ldr	r3, [r3]
 1615 0950 032B     		cmp	r3, #3
 1616 0952 03DD     		ble	.L60
 378:uifunctions.c ****                 {
 379:uifunctions.c ****                     vds_high--;
 1617              		.loc 1 379 0
 1618 0954 013B     		subs	r3, r3, #1
 1619 0956 584A     		ldr	r2, .L75+40
 1620 0958 1360     		str	r3, [r2]
 1621 095a 02E0     		b	.L61
 1622              	.L60:
 380:uifunctions.c ****                 }
 381:uifunctions.c ****                 else
 382:uifunctions.c ****                 {
 383:uifunctions.c ****                     vds_high = 3;
 1623              		.loc 1 383 0
 1624 095c 0322     		movs	r2, #3
 1625 095e 564B     		ldr	r3, .L75+40
 1626 0960 1A60     		str	r2, [r3]
 1627              	.L61:
 384:uifunctions.c ****                 }
 385:uifunctions.c ****                 fill_rect(40,95,60,30,BLACK);
 1628              		.loc 1 385 0
 1629 0962 0023     		movs	r3, #0
 1630 0964 0093     		str	r3, [sp]
 1631 0966 1E23     		movs	r3, #30
 1632 0968 3C22     		movs	r2, #60
 1633 096a 5F21     		movs	r1, #95
 1634              	.LVL149:
 1635 096c 2820     		movs	r0, #40
 1636              	.LVL150:
 1637 096e FFF7FEFF 		bl	fill_rect
ARM GAS  C:\Users\legoc\AppData\Local\Temp\ccZzn6ce.s 			page 37


 1638              	.LVL151:
 386:uifunctions.c ****                 
 387:uifunctions.c ****                 char num_vds[2];
 388:uifunctions.c ****                 itoa(vds_high, num_vds, 10);
 1639              		.loc 1 388 0
 1640 0972 0A22     		movs	r2, #10
 1641 0974 05A9     		add	r1, sp, #20
 1642 0976 504B     		ldr	r3, .L75+40
 1643 0978 1868     		ldr	r0, [r3]
 1644 097a FFF7FEFF 		bl	itoa
 1645              	.LVL152:
 389:uifunctions.c ****                 
 390:uifunctions.c ****                 draw_string(50,105,WHITE,num_vds,3);
 1646              		.loc 1 390 0
 1647 097e 0323     		movs	r3, #3
 1648 0980 0093     		str	r3, [sp]
 1649 0982 05AB     		add	r3, sp, #20
 1650 0984 4FF6FF72 		movw	r2, #65535
 1651 0988 6921     		movs	r1, #105
 1652 098a 3220     		movs	r0, #50
 1653 098c FFF7FEFF 		bl	draw_string
 1654              	.LVL153:
 1655              	.LBE38:
 376:uifunctions.c ****                 if(vds_high>3)
 1656              		.loc 1 376 0
 1657 0990 4EE0     		b	.L58
 1658              	.LVL154:
 1659              	.L59:
 391:uifunctions.c ****             }
 392:uifunctions.c ****             else if(x>=130 && x<=200 && y>=120 && y<=190)   //increase button
 1660              		.loc 1 392 0
 1661 0992 462C     		cmp	r4, #70
 1662 0994 4CD8     		bhi	.L58
 1663              		.loc 1 392 0 is_stmt 0 discriminator 1
 1664 0996 772D     		cmp	r5, #119
 1665 0998 4AD9     		bls	.L58
 1666              		.loc 1 392 0 discriminator 2
 1667 099a BE2D     		cmp	r5, #190
 1668 099c 48D8     		bhi	.L58
 393:uifunctions.c ****             {
 394:uifunctions.c ****                 if(device_selection < 2)
 1669              		.loc 1 394 0 is_stmt 1
 1670 099e 464B     		ldr	r3, .L75+40
 1671 09a0 5B68     		ldr	r3, [r3, #4]
 1672 09a2 012B     		cmp	r3, #1
 1673 09a4 22DC     		bgt	.L62
 1674              	.LBB39:
 395:uifunctions.c ****                 {
 396:uifunctions.c ****                     if(vds_high<9)
 1675              		.loc 1 396 0
 1676 09a6 444B     		ldr	r3, .L75+40
 1677 09a8 1B68     		ldr	r3, [r3]
 1678 09aa 082B     		cmp	r3, #8
 1679 09ac 03DC     		bgt	.L63
 397:uifunctions.c ****                     {
 398:uifunctions.c ****                         vds_high++;
 1680              		.loc 1 398 0
ARM GAS  C:\Users\legoc\AppData\Local\Temp\ccZzn6ce.s 			page 38


 1681 09ae 0133     		adds	r3, r3, #1
 1682 09b0 414A     		ldr	r2, .L75+40
 1683 09b2 1360     		str	r3, [r2]
 1684 09b4 02E0     		b	.L64
 1685              	.L63:
 399:uifunctions.c ****                     }
 400:uifunctions.c ****                     else
 401:uifunctions.c ****                     {
 402:uifunctions.c ****                         vds_high = 9;
 1686              		.loc 1 402 0
 1687 09b6 0922     		movs	r2, #9
 1688 09b8 3F4B     		ldr	r3, .L75+40
 1689 09ba 1A60     		str	r2, [r3]
 1690              	.L64:
 403:uifunctions.c ****                     }
 404:uifunctions.c ****                     fill_rect(40,95,60,30,BLACK);
 1691              		.loc 1 404 0
 1692 09bc 0023     		movs	r3, #0
 1693 09be 0093     		str	r3, [sp]
 1694 09c0 1E23     		movs	r3, #30
 1695 09c2 3C22     		movs	r2, #60
 1696 09c4 5F21     		movs	r1, #95
 1697              	.LVL155:
 1698 09c6 2820     		movs	r0, #40
 1699              	.LVL156:
 1700 09c8 FFF7FEFF 		bl	fill_rect
 1701              	.LVL157:
 405:uifunctions.c ****                     
 406:uifunctions.c ****                     char num_vds[2];
 407:uifunctions.c ****                     itoa(vds_high, num_vds, 10);
 1702              		.loc 1 407 0
 1703 09cc 0A22     		movs	r2, #10
 1704 09ce 05A9     		add	r1, sp, #20
 1705 09d0 394B     		ldr	r3, .L75+40
 1706 09d2 1868     		ldr	r0, [r3]
 1707 09d4 FFF7FEFF 		bl	itoa
 1708              	.LVL158:
 408:uifunctions.c ****                     
 409:uifunctions.c ****                     draw_string(50,105,WHITE,num_vds,3);
 1709              		.loc 1 409 0
 1710 09d8 0323     		movs	r3, #3
 1711 09da 0093     		str	r3, [sp]
 1712 09dc 05AB     		add	r3, sp, #20
 1713 09de 4FF6FF72 		movw	r2, #65535
 1714 09e2 6921     		movs	r1, #105
 1715 09e4 3220     		movs	r0, #50
 1716 09e6 FFF7FEFF 		bl	draw_string
 1717              	.LVL159:
 1718              	.LBE39:
 1719 09ea 21E0     		b	.L58
 1720              	.LVL160:
 1721              	.L62:
 1722              	.LBB40:
 410:uifunctions.c ****                 } else
 411:uifunctions.c ****                 {
 412:uifunctions.c ****                      if(vds_high<12)
 1723              		.loc 1 412 0
ARM GAS  C:\Users\legoc\AppData\Local\Temp\ccZzn6ce.s 			page 39


 1724 09ec 324B     		ldr	r3, .L75+40
 1725 09ee 1B68     		ldr	r3, [r3]
 1726 09f0 0B2B     		cmp	r3, #11
 1727 09f2 03DC     		bgt	.L65
 413:uifunctions.c ****                     {
 414:uifunctions.c ****                         vds_high++;
 1728              		.loc 1 414 0
 1729 09f4 0133     		adds	r3, r3, #1
 1730 09f6 304A     		ldr	r2, .L75+40
 1731 09f8 1360     		str	r3, [r2]
 1732 09fa 02E0     		b	.L66
 1733              	.L65:
 415:uifunctions.c ****                     }
 416:uifunctions.c ****                     else
 417:uifunctions.c ****                     {
 418:uifunctions.c ****                         vds_high = 12;
 1734              		.loc 1 418 0
 1735 09fc 0C22     		movs	r2, #12
 1736 09fe 2E4B     		ldr	r3, .L75+40
 1737 0a00 1A60     		str	r2, [r3]
 1738              	.L66:
 419:uifunctions.c ****                     }
 420:uifunctions.c ****                     fill_rect(40,95,60,30,BLACK);
 1739              		.loc 1 420 0
 1740 0a02 0023     		movs	r3, #0
 1741 0a04 0093     		str	r3, [sp]
 1742 0a06 1E23     		movs	r3, #30
 1743 0a08 3C22     		movs	r2, #60
 1744 0a0a 5F21     		movs	r1, #95
 1745              	.LVL161:
 1746 0a0c 2820     		movs	r0, #40
 1747              	.LVL162:
 1748 0a0e FFF7FEFF 		bl	fill_rect
 1749              	.LVL163:
 421:uifunctions.c ****                     
 422:uifunctions.c ****                     char num_vds[3];
 423:uifunctions.c ****                     itoa(vds_high, num_vds, 10);
 1750              		.loc 1 423 0
 1751 0a12 0A22     		movs	r2, #10
 1752 0a14 05A9     		add	r1, sp, #20
 1753 0a16 284B     		ldr	r3, .L75+40
 1754 0a18 1868     		ldr	r0, [r3]
 1755 0a1a FFF7FEFF 		bl	itoa
 1756              	.LVL164:
 424:uifunctions.c ****                     
 425:uifunctions.c ****                     draw_string(50,105,WHITE,num_vds,3);
 1757              		.loc 1 425 0
 1758 0a1e 0323     		movs	r3, #3
 1759 0a20 0093     		str	r3, [sp]
 1760 0a22 05AB     		add	r3, sp, #20
 1761 0a24 4FF6FF72 		movw	r2, #65535
 1762 0a28 6921     		movs	r1, #105
 1763 0a2a 3220     		movs	r0, #50
 1764 0a2c FFF7FEFF 		bl	draw_string
 1765              	.LVL165:
 1766              	.L58:
 1767              	.LBE40:
ARM GAS  C:\Users\legoc\AppData\Local\Temp\ccZzn6ce.s 			page 40


 426:uifunctions.c ****                 }
 427:uifunctions.c ****             }
 428:uifunctions.c ****             if(device_selection < 2)
 1768              		.loc 1 428 0
 1769 0a30 214B     		ldr	r3, .L75+40
 1770 0a32 5B68     		ldr	r3, [r3, #4]
 1771 0a34 012B     		cmp	r3, #1
 1772 0a36 14DC     		bgt	.L67
 429:uifunctions.c ****             {
 430:uifunctions.c ****                 vds_high_vdac_code = (int) (vds_high*256.0)/(4.096*3);
 1773              		.loc 1 430 0
 1774 0a38 1F4C     		ldr	r4, .L75+40
 1775 0a3a 2068     		ldr	r0, [r4]
 1776 0a3c FFF7FEFF 		bl	__aeabi_i2d
 1777              	.LVL166:
 1778 0a40 0022     		movs	r2, #0
 1779 0a42 1E4B     		ldr	r3, .L75+44
 1780 0a44 FFF7FEFF 		bl	__aeabi_dmul
 1781              	.LVL167:
 1782 0a48 FFF7FEFF 		bl	__aeabi_d2iz
 1783              	.LVL168:
 1784 0a4c FFF7FEFF 		bl	__aeabi_i2d
 1785              	.LVL169:
 1786 0a50 0FA3     		adr	r3, .L75
 1787 0a52 D3E90023 		ldrd	r2, [r3]
 1788 0a56 FFF7FEFF 		bl	__aeabi_ddiv
 1789              	.LVL170:
 1790 0a5a FFF7FEFF 		bl	__aeabi_d2iz
 1791              	.LVL171:
 1792 0a5e A060     		str	r0, [r4, #8]
 1793 0a60 13E0     		b	.L1
 1794              	.L67:
 431:uifunctions.c ****             } else
 432:uifunctions.c ****             {
 433:uifunctions.c ****                 vds_high_vdac_code = (int) (vds_high*256.0)/(4.096*4);
 1795              		.loc 1 433 0
 1796 0a62 154C     		ldr	r4, .L75+40
 1797 0a64 2068     		ldr	r0, [r4]
 1798 0a66 FFF7FEFF 		bl	__aeabi_i2d
 1799              	.LVL172:
 1800 0a6a 0022     		movs	r2, #0
 1801 0a6c 134B     		ldr	r3, .L75+44
 1802 0a6e FFF7FEFF 		bl	__aeabi_dmul
 1803              	.LVL173:
 1804 0a72 FFF7FEFF 		bl	__aeabi_d2iz
 1805              	.LVL174:
 1806 0a76 FFF7FEFF 		bl	__aeabi_i2d
 1807              	.LVL175:
 1808 0a7a 07A3     		adr	r3, .L75+8
 1809 0a7c D3E90023 		ldrd	r2, [r3]
 1810 0a80 FFF7FEFF 		bl	__aeabi_ddiv
 1811              	.LVL176:
 1812 0a84 FFF7FEFF 		bl	__aeabi_d2iz
 1813              	.LVL177:
 1814 0a88 A060     		str	r0, [r4, #8]
 1815              	.L1:
 434:uifunctions.c ****             }
ARM GAS  C:\Users\legoc\AppData\Local\Temp\ccZzn6ce.s 			page 41


 435:uifunctions.c ****             break;
 436:uifunctions.c ****     }
 437:uifunctions.c **** }...
 1816              		.loc 1 437 0
 1817 0a8a 07B0     		add	sp, sp, #28
 1818              		.cfi_def_cfa_offset 12
 1819              		@ sp needed
 1820 0a8c 30BD     		pop	{r4, r5, pc}
 1821              	.L76:
 1822 0a8e 00BF     		.align	3
 1823              	.L75:
 1824 0a90 FA7E6ABC 		.word	-1133871366
 1825 0a94 74932840 		.word	1076401012
 1826 0a98 FCA9F1D2 		.word	-755914244
 1827 0a9c 4D623040 		.word	1076912717
 1828 0aa0 00000000 		.word	.LANCHOR0
 1829 0aa4 08000000 		.word	.LC2
 1830 0aa8 0C000000 		.word	.LC3
 1831 0aac 10000000 		.word	.LC4
 1832 0ab0 14000000 		.word	.LC5
 1833 0ab4 18000000 		.word	.LC6
 1834 0ab8 00000000 		.word	.LANCHOR1
 1835 0abc 00007040 		.word	1081081856
 1836              		.cfi_endproc
 1837              	.LFE1:
 1838              		.size	ui_control, .-ui_control
 1839              		.global	vds_high_vdac_code
 1840              		.global	vds_high
 1841              		.global	cooldown_time
 1842              		.global	rand_num_2
 1843              		.global	rand_num_1
 1844              		.global	draw_grid
 1845              		.global	num_avg
 1846              		.global	write_sd
 1847              		.global	curve_nums
 1848              		.global	device_selection
 1849              		.global	screen_state
 1850              		.data
 1851              		.align	2
 1852              		.set	.LANCHOR1,. + 0
 1853              		.type	vds_high, %object
 1854              		.size	vds_high, 4
 1855              	vds_high:
 1856 0000 09000000 		.word	9
 1857              		.type	device_selection, %object
 1858              		.size	device_selection, 4
 1859              	device_selection:
 1860 0004 FFFFFFFF 		.word	-1
 1861              		.type	vds_high_vdac_code, %object
 1862              		.size	vds_high_vdac_code, 4
 1863              	vds_high_vdac_code:
 1864 0008 BC000000 		.word	188
 1865              		.type	num_avg, %object
 1866              		.size	num_avg, 4
 1867              	num_avg:
 1868 000c 0A000000 		.word	10
 1869              		.type	write_sd, %object
ARM GAS  C:\Users\legoc\AppData\Local\Temp\ccZzn6ce.s 			page 42


 1870              		.size	write_sd, 4
 1871              	write_sd:
 1872 0010 01000000 		.word	1
 1873              		.type	curve_nums, %object
 1874              		.size	curve_nums, 4
 1875              	curve_nums:
 1876 0014 04000000 		.word	4
 1877              		.type	draw_grid, %object
 1878              		.size	draw_grid, 4
 1879              	draw_grid:
 1880 0018 01000000 		.word	1
 1881              		.section	.rodata.str1.4,"aMS",%progbits,1
 1882              		.align	2
 1883              	.LC0:
 1884 0000 59455300 		.ascii	"YES\000"
 1885              	.LC1:
 1886 0004 4E4F00   		.ascii	"NO\000"
 1887 0007 00       		.space	1
 1888              	.LC2:
 1889 0008 3500     		.ascii	"5\000"
 1890 000a 0000     		.space	2
 1891              	.LC3:
 1892 000c 313000   		.ascii	"10\000"
 1893 000f 00       		.space	1
 1894              	.LC4:
 1895 0010 3100     		.ascii	"1\000"
 1896 0012 0000     		.space	2
 1897              	.LC5:
 1898 0014 3200     		.ascii	"2\000"
 1899 0016 0000     		.space	2
 1900              	.LC6:
 1901 0018 4E4F2043 		.ascii	"NO COOLDOWN\000"
 1901      4F4F4C44 
 1901      4F574E00 
 1902              		.bss
 1903              		.align	2
 1904              		.set	.LANCHOR0,. + 0
 1905              		.type	screen_state, %object
 1906              		.size	screen_state, 4
 1907              	screen_state:
 1908 0000 00000000 		.space	4
 1909              		.type	rand_num_1, %object
 1910              		.size	rand_num_1, 4
 1911              	rand_num_1:
 1912 0004 00000000 		.space	4
 1913              		.type	rand_num_2, %object
 1914              		.size	rand_num_2, 4
 1915              	rand_num_2:
 1916 0008 00000000 		.space	4
 1917              		.type	cooldown_time, %object
 1918              		.size	cooldown_time, 4
 1919              	cooldown_time:
 1920 000c 00000000 		.space	4
 1921              		.text
 1922              	.Letext0:
 1923              		.file 2 "d:\\psoc\\psoc creator\\4.2\\psoc creator\\import\\gnu\\arm\\5.4.1\\arm-none-eabi\\includ
 1924              		.file 3 "d:\\psoc\\psoc creator\\4.2\\psoc creator\\import\\gnu\\arm\\5.4.1\\arm-none-eabi\\includ
ARM GAS  C:\Users\legoc\AppData\Local\Temp\ccZzn6ce.s 			page 43


 1925              		.file 4 "font.h"
 1926              		.file 5 "d:\\psoc\\psoc creator\\4.2\\psoc creator\\import\\gnu\\arm\\5.4.1\\arm-none-eabi\\includ
 1927              		.file 6 "Generated_Source\\PSoC5/emFile_1.h"