ARM GAS  C:\Users\JACOB-~1\AppData\Local\Temp\cchboK4P.s 			page 1


   1              		.syntax unified
   2              		.cpu cortex-m3
   3              		.fpu softvfp
   4              		.eabi_attribute 20, 1
   5              		.eabi_attribute 21, 1
   6              		.eabi_attribute 23, 3
   7              		.eabi_attribute 24, 1
   8              		.eabi_attribute 25, 1
   9              		.eabi_attribute 26, 1
  10              		.eabi_attribute 30, 1
  11              		.eabi_attribute 34, 1
  12              		.eabi_attribute 18, 4
  13              		.thumb
  14              		.syntax unified
  15              		.file	"uifunctions.c"
  16              		.text
  17              	.Ltext0:
  18              		.cfi_sections	.debug_frame
  19              		.global	__aeabi_i2d
  20              		.global	__aeabi_dmul
  21              		.global	__aeabi_ddiv
  22              		.global	__aeabi_dadd
  23              		.global	__aeabi_d2iz
  24              		.section	.text.ui_control,"ax",%progbits
  25              		.align	2
  26              		.global	ui_control
  27              		.thumb
  28              		.thumb_func
  29              		.type	ui_control, %function
  30              	ui_control:
  31              	.LFB1:
  32              		.file 1 "uifunctions.c"
   1:uifunctions.c **** #include "project.h"
   2:uifunctions.c **** #include "screen.h"
   3:uifunctions.c **** #include "font.h"
   4:uifunctions.c **** #include "strings.h"
   5:uifunctions.c **** #include "string.h"
   6:uifunctions.c **** #include "stdio.h"
   7:uifunctions.c **** #include "stdlib.h"
   8:uifunctions.c **** #include "math.h"
   9:uifunctions.c **** #include "font.h"
  10:uifunctions.c **** #include "uifunctions.h"
  11:uifunctions.c **** 
  12:uifunctions.c **** int screen_state = 0;
  13:uifunctions.c **** int device_selection = -1;
  14:uifunctions.c **** int curve_nums = 4;
  15:uifunctions.c **** int write_sd = 1;
  16:uifunctions.c **** int num_avg = 10;
  17:uifunctions.c **** int draw_grid = 1;
  18:uifunctions.c **** int rand_num_1 = 0;
  19:uifunctions.c **** int rand_num_2 = 0;
  20:uifunctions.c **** int cooldown_time = 0;
  21:uifunctions.c **** int vds_high = 9;
  22:uifunctions.c **** int vds_high_vdac_code = 188;
  23:uifunctions.c **** 
  24:uifunctions.c **** void ui_control(uint16_t x, uint16_t y)
  25:uifunctions.c **** {
ARM GAS  C:\Users\JACOB-~1\AppData\Local\Temp\cchboK4P.s 			page 2


  33              		.loc 1 25 0
  34              		.cfi_startproc
  35              		@ args = 0, pretend = 0, frame = 8
  36              		@ frame_needed = 0, uses_anonymous_args = 0
  37              	.LVL0:
  38 0000 30B5     		push	{r4, r5, lr}
  39              		.cfi_def_cfa_offset 12
  40              		.cfi_offset 4, -12
  41              		.cfi_offset 5, -8
  42              		.cfi_offset 14, -4
  43 0002 87B0     		sub	sp, sp, #28
  44              		.cfi_def_cfa_offset 40
  45 0004 0446     		mov	r4, r0
  46 0006 0D46     		mov	r5, r1
  26:uifunctions.c ****     //switch statement that controls the touchscreen
  27:uifunctions.c ****     //if statements outline rectangular coordinates for button presses
  28:uifunctions.c ****     switch(screen_state)
  47              		.loc 1 28 0
  48 0008 AC4B     		ldr	r3, .L70
  49 000a 1B68     		ldr	r3, [r3]
  50 000c 0A2B     		cmp	r3, #10
  51 000e 00F24685 		bhi	.L1
  52 0012 DFE813F0 		tbh	[pc, r3, lsl #1]
  53              	.L4:
  54 0016 0B00     		.2byte	(.L3-.L4)/2
  55 0018 6600     		.2byte	(.L5-.L4)/2
  56 001a A500     		.2byte	(.L6-.L4)/2
  57 001c C700     		.2byte	(.L7-.L4)/2
  58 001e D101     		.2byte	(.L8-.L4)/2
  59 0020 2C02     		.2byte	(.L9-.L4)/2
  60 0022 8D02     		.2byte	(.L10-.L4)/2
  61 0024 EA02     		.2byte	(.L11-.L4)/2
  62 0026 F502     		.2byte	(.L12-.L4)/2
  63 0028 2703     		.2byte	(.L13-.L4)/2
  64 002a 9304     		.2byte	(.L14-.L4)/2
  65              		.p2align 1
  66              	.L3:
  29:uifunctions.c ****     {
  30:uifunctions.c ****         case DEVICE_SELECTION_SCREEN :
  31:uifunctions.c ****             if(x>=35 && x<=283 && y>=111 && y<=129)             //Debug center white
  67              		.loc 1 31 0
  68 002c A0F12303 		sub	r3, r0, #35
  69 0030 9BB2     		uxth	r3, r3
  70 0032 F82B     		cmp	r3, #248
  71 0034 07D8     		bhi	.L15
  72              		.loc 1 31 0 is_stmt 0 discriminator 1
  73 0036 6E29     		cmp	r1, #110
  74 0038 05D9     		bls	.L15
  75              		.loc 1 31 0 discriminator 2
  76 003a 8129     		cmp	r1, #129
  77 003c 03D8     		bhi	.L15
  32:uifunctions.c ****             {
  33:uifunctions.c ****                 screen_state = DEBUG_SCREEN;
  78              		.loc 1 33 0 is_stmt 1
  79 003e 0722     		movs	r2, #7
  80 0040 9E4B     		ldr	r3, .L70
  81 0042 1A60     		str	r2, [r3]
ARM GAS  C:\Users\JACOB-~1\AppData\Local\Temp\cchboK4P.s 			page 3


  82 0044 3CE0     		b	.L16
  83              	.L15:
  34:uifunctions.c ****             }
  35:uifunctions.c ****             else if(x>=10 && x<=149 && y>=10 && y<=109)         //N-type FET button
  84              		.loc 1 35 0
  85 0046 A4F10A03 		sub	r3, r4, #10
  86 004a 9BB2     		uxth	r3, r3
  87 004c 8B2B     		cmp	r3, #139
  88 004e 0BD8     		bhi	.L17
  89              		.loc 1 35 0 is_stmt 0 discriminator 1
  90 0050 092D     		cmp	r5, #9
  91 0052 09D9     		bls	.L17
  92              		.loc 1 35 0 discriminator 2
  93 0054 6D2D     		cmp	r5, #109
  94 0056 07D8     		bhi	.L17
  95              	.LBB2:
  36:uifunctions.c ****             {
  37:uifunctions.c ****                 
  38:uifunctions.c ****                 vds_high = 9;
  96              		.loc 1 38 0 is_stmt 1
  97 0058 994B     		ldr	r3, .L70+4
  98 005a 0922     		movs	r2, #9
  99 005c 1A60     		str	r2, [r3]
  39:uifunctions.c ****                 
  40:uifunctions.c ****                 device_selection = NMOS;
 100              		.loc 1 40 0
 101 005e 0022     		movs	r2, #0
 102 0060 5A60     		str	r2, [r3, #4]
  41:uifunctions.c ****                 draw_options_screen();
 103              		.loc 1 41 0
 104 0062 FFF7FEFF 		bl	draw_options_screen
 105              	.LVL1:
 106              	.LBE2:
  36:uifunctions.c ****             {
 107              		.loc 1 36 0
 108 0066 2BE0     		b	.L16
 109              	.LVL2:
 110              	.L17:
  42:uifunctions.c ****             }
  43:uifunctions.c ****             else if(x>=10 && x<=149 && y>=131 && y<=230)        //NPN button
 111              		.loc 1 43 0
 112 0068 8B2B     		cmp	r3, #139
 113 006a 0BD8     		bhi	.L18
 114              		.loc 1 43 0 is_stmt 0 discriminator 1
 115 006c 822D     		cmp	r5, #130
 116 006e 09D9     		bls	.L18
 117              		.loc 1 43 0 discriminator 2
 118 0070 E62D     		cmp	r5, #230
 119 0072 07D8     		bhi	.L18
 120              	.LBB3:
  44:uifunctions.c ****             {
  45:uifunctions.c ****                 
  46:uifunctions.c ****                 vds_high = 9;
 121              		.loc 1 46 0 is_stmt 1
 122 0074 924B     		ldr	r3, .L70+4
 123 0076 0922     		movs	r2, #9
 124 0078 1A60     		str	r2, [r3]
ARM GAS  C:\Users\JACOB-~1\AppData\Local\Temp\cchboK4P.s 			page 4


  47:uifunctions.c ****                 
  48:uifunctions.c ****                 device_selection = NPN;
 125              		.loc 1 48 0
 126 007a 0122     		movs	r2, #1
 127 007c 5A60     		str	r2, [r3, #4]
  49:uifunctions.c ****                 draw_options_screen();
 128              		.loc 1 49 0
 129 007e FFF7FEFF 		bl	draw_options_screen
 130              	.LVL3:
 131              	.LBE3:
  44:uifunctions.c ****             {
 132              		.loc 1 44 0
 133 0082 1DE0     		b	.L16
 134              	.LVL4:
 135              	.L18:
  50:uifunctions.c ****             }
  51:uifunctions.c ****             else if(x>=171 && x<=310 && y>=10 && y<=109)        //P-type FET button
 136              		.loc 1 51 0
 137 0084 A4F1AB03 		sub	r3, r4, #171
 138 0088 9BB2     		uxth	r3, r3
 139 008a 8B2B     		cmp	r3, #139
 140 008c 0BD8     		bhi	.L19
 141              		.loc 1 51 0 is_stmt 0 discriminator 1
 142 008e 092D     		cmp	r5, #9
 143 0090 09D9     		bls	.L19
 144              		.loc 1 51 0 discriminator 2
 145 0092 6D2D     		cmp	r5, #109
 146 0094 07D8     		bhi	.L19
 147              	.LBB4:
  52:uifunctions.c ****             {
  53:uifunctions.c ****                 
  54:uifunctions.c ****                 vds_high = 12;
 148              		.loc 1 54 0 is_stmt 1
 149 0096 8A4B     		ldr	r3, .L70+4
 150 0098 0C22     		movs	r2, #12
 151 009a 1A60     		str	r2, [r3]
  55:uifunctions.c ****                 
  56:uifunctions.c ****                 device_selection = PMOS;
 152              		.loc 1 56 0
 153 009c 0222     		movs	r2, #2
 154 009e 5A60     		str	r2, [r3, #4]
  57:uifunctions.c ****                 draw_options_screen();
 155              		.loc 1 57 0
 156 00a0 FFF7FEFF 		bl	draw_options_screen
 157              	.LVL5:
 158              	.LBE4:
  52:uifunctions.c ****             {
 159              		.loc 1 52 0
 160 00a4 0CE0     		b	.L16
 161              	.LVL6:
 162              	.L19:
  58:uifunctions.c ****             }
  59:uifunctions.c ****             else if(x>=171 && x<=310 && y>=131 && y<=230)       //PNP button
 163              		.loc 1 59 0
 164 00a6 8B2B     		cmp	r3, #139
 165 00a8 0AD8     		bhi	.L16
 166              		.loc 1 59 0 is_stmt 0 discriminator 1
ARM GAS  C:\Users\JACOB-~1\AppData\Local\Temp\cchboK4P.s 			page 5


 167 00aa 822D     		cmp	r5, #130
 168 00ac 08D9     		bls	.L16
 169              		.loc 1 59 0 discriminator 2
 170 00ae E62D     		cmp	r5, #230
 171 00b0 06D8     		bhi	.L16
 172              	.LBB5:
  60:uifunctions.c ****             {
  61:uifunctions.c ****                 
  62:uifunctions.c ****                 vds_high = 12;
 173              		.loc 1 62 0 is_stmt 1
 174 00b2 834B     		ldr	r3, .L70+4
 175 00b4 0C22     		movs	r2, #12
 176 00b6 1A60     		str	r2, [r3]
  63:uifunctions.c ****                 
  64:uifunctions.c ****                 device_selection = PNP;
 177              		.loc 1 64 0
 178 00b8 0322     		movs	r2, #3
 179 00ba 5A60     		str	r2, [r3, #4]
  65:uifunctions.c ****                 draw_options_screen();
 180              		.loc 1 65 0
 181 00bc FFF7FEFF 		bl	draw_options_screen
 182              	.LVL7:
 183              	.L16:
 184              	.LBE5:
  66:uifunctions.c ****             }
  67:uifunctions.c ****             rand_num_1 = x;
 185              		.loc 1 67 0
 186 00c0 7E4B     		ldr	r3, .L70
 187 00c2 5C60     		str	r4, [r3, #4]
  68:uifunctions.c ****             rand_num_2 = y;
 188              		.loc 1 68 0
 189 00c4 9D60     		str	r5, [r3, #8]
  69:uifunctions.c ****             if(device_selection < 2)
 190              		.loc 1 69 0
 191 00c6 7E4B     		ldr	r3, .L70+4
 192 00c8 5B68     		ldr	r3, [r3, #4]
 193 00ca 012B     		cmp	r3, #1
 194 00cc 04DC     		bgt	.L20
  70:uifunctions.c ****             {
  71:uifunctions.c ****                 vds_high_vdac_code = 188;
 195              		.loc 1 71 0
 196 00ce BC22     		movs	r2, #188
 197 00d0 7B4B     		ldr	r3, .L70+4
 198 00d2 9A60     		str	r2, [r3, #8]
 199 00d4 00F0E3BC 		b	.L1
 200              	.L20:
  72:uifunctions.c ****             } else
  73:uifunctions.c ****             {
  74:uifunctions.c ****                 vds_high_vdac_code = 250;
 201              		.loc 1 74 0
 202 00d8 FA22     		movs	r2, #250
 203 00da 794B     		ldr	r3, .L70+4
 204 00dc 9A60     		str	r2, [r3, #8]
 205 00de 00F0DEBC 		b	.L1
 206              	.LVL8:
 207              	.L5:
  75:uifunctions.c ****             }
ARM GAS  C:\Users\JACOB-~1\AppData\Local\Temp\cchboK4P.s 			page 6


  76:uifunctions.c ****             break;
  77:uifunctions.c ****         case OPTIONS_SCREEN :
  78:uifunctions.c ****             if(x>=0 && x<=119 && y>=0 && y<=119)                //button for number of averages opt
 208              		.loc 1 78 0
 209 00e2 7728     		cmp	r0, #119
 210 00e4 05D8     		bhi	.L21
 211              		.loc 1 78 0 is_stmt 0 discriminator 1
 212 00e6 7729     		cmp	r1, #119
 213 00e8 03D8     		bhi	.L21
 214              	.LBB6:
  79:uifunctions.c ****             {
  80:uifunctions.c ****                 draw_options_averages_screen(); 
 215              		.loc 1 80 0 is_stmt 1
 216 00ea FFF7FEFF 		bl	draw_options_averages_screen
 217              	.LVL9:
 218              	.LBE6:
  79:uifunctions.c ****             {
 219              		.loc 1 79 0
 220 00ee 00F0D6BC 		b	.L1
 221              	.LVL10:
 222              	.L21:
  81:uifunctions.c ****             }
  82:uifunctions.c ****             else if(x>=0 && x<=119 && y>=121 && y<=239)         //button for sd card options
 223              		.loc 1 82 0
 224 00f2 772C     		cmp	r4, #119
 225 00f4 07D8     		bhi	.L22
 226              		.loc 1 82 0 is_stmt 0 discriminator 1
 227 00f6 782D     		cmp	r5, #120
 228 00f8 05D9     		bls	.L22
 229              		.loc 1 82 0 discriminator 2
 230 00fa EF2D     		cmp	r5, #239
 231 00fc 03D8     		bhi	.L22
 232              	.LBB7:
  83:uifunctions.c ****             {
  84:uifunctions.c ****                 draw_options_sd_screen(); 
 233              		.loc 1 84 0 is_stmt 1
 234 00fe FFF7FEFF 		bl	draw_options_sd_screen
 235              	.LVL11:
 236              	.LBE7:
  83:uifunctions.c ****             {
 237              		.loc 1 83 0
 238 0102 00F0CCBC 		b	.L1
 239              	.LVL12:
 240              	.L22:
  85:uifunctions.c ****             }
  86:uifunctions.c ****             else if(x>=121 && x<=240 && y>=0 && y<=119)         //button for more options
 241              		.loc 1 86 0
 242 0106 A4F17903 		sub	r3, r4, #121
 243 010a 9BB2     		uxth	r3, r3
 244 010c 772B     		cmp	r3, #119
 245 010e 05D8     		bhi	.L23
 246              		.loc 1 86 0 is_stmt 0 discriminator 1
 247 0110 772D     		cmp	r5, #119
 248 0112 03D8     		bhi	.L23
 249              	.LBB8:
  87:uifunctions.c ****             {
  88:uifunctions.c ****                 draw_more_options_screen(); 
ARM GAS  C:\Users\JACOB-~1\AppData\Local\Temp\cchboK4P.s 			page 7


 250              		.loc 1 88 0 is_stmt 1
 251 0114 FFF7FEFF 		bl	draw_more_options_screen
 252              	.LVL13:
 253              	.LBE8:
  87:uifunctions.c ****             {
 254              		.loc 1 87 0
 255 0118 00F0C1BC 		b	.L1
 256              	.LVL14:
 257              	.L23:
  89:uifunctions.c ****             }
  90:uifunctions.c ****             else if(x>=121 && x<=240 && y>=121 && y<=239)       //button for settling time options
 258              		.loc 1 90 0
 259 011c 772B     		cmp	r3, #119
 260 011e 07D8     		bhi	.L24
 261              		.loc 1 90 0 is_stmt 0 discriminator 1
 262 0120 782D     		cmp	r5, #120
 263 0122 05D9     		bls	.L24
 264              		.loc 1 90 0 discriminator 2
 265 0124 EF2D     		cmp	r5, #239
 266 0126 03D8     		bhi	.L24
 267              	.LBB9:
  91:uifunctions.c ****             {
  92:uifunctions.c ****                 draw_options_curves_screen(); 
 268              		.loc 1 92 0 is_stmt 1
 269 0128 FFF7FEFF 		bl	draw_options_curves_screen
 270              	.LVL15:
 271              	.LBE9:
  91:uifunctions.c ****             {
 272              		.loc 1 91 0
 273 012c 00F0B7BC 		b	.L1
 274              	.LVL16:
 275              	.L24:
  93:uifunctions.c ****             }
  94:uifunctions.c ****             else if(x>=241 && x<=319 && y>=0 && y<=119)         //return button
 276              		.loc 1 94 0
 277 0130 F13C     		subs	r4, r4, #241
 278 0132 A4B2     		uxth	r4, r4
 279 0134 4E2C     		cmp	r4, #78
 280 0136 05D8     		bhi	.L25
 281              		.loc 1 94 0 is_stmt 0 discriminator 1
 282 0138 772D     		cmp	r5, #119
 283 013a 03D8     		bhi	.L25
 284              	.LBB10:
  95:uifunctions.c ****             {
  96:uifunctions.c ****                 draw_choose_screen();
 285              		.loc 1 96 0 is_stmt 1
 286 013c FFF7FEFF 		bl	draw_choose_screen
 287              	.LVL17:
 288              	.LBE10:
  95:uifunctions.c ****             {
 289              		.loc 1 95 0
 290 0140 00F0ADBC 		b	.L1
 291              	.LVL18:
 292              	.L25:
  97:uifunctions.c ****             }
  98:uifunctions.c ****             else if(x>=241 && x<=319 && y>=121 && y<=239)       //run test button
 293              		.loc 1 98 0
ARM GAS  C:\Users\JACOB-~1\AppData\Local\Temp\cchboK4P.s 			page 8


 294 0144 4E2C     		cmp	r4, #78
 295 0146 00F2AA84 		bhi	.L1
 296              		.loc 1 98 0 is_stmt 0 discriminator 1
 297 014a 782D     		cmp	r5, #120
 298 014c 40F2A784 		bls	.L1
 299              		.loc 1 98 0 discriminator 2
 300 0150 EF2D     		cmp	r5, #239
 301 0152 00F2A484 		bhi	.L1
  99:uifunctions.c ****             {
 100:uifunctions.c ****                 screen_state = PLOT_SCREEN;
 302              		.loc 1 100 0 is_stmt 1
 303 0156 0222     		movs	r2, #2
 304 0158 584B     		ldr	r3, .L70
 305 015a 1A60     		str	r2, [r3]
 306 015c 00F09FBC 		b	.L1
 307              	.L6:
 101:uifunctions.c ****             }
 102:uifunctions.c ****             break;
 103:uifunctions.c ****             break;
 104:uifunctions.c ****         case PLOT_SCREEN :
 105:uifunctions.c ****             if(x>=130 && x<=190 && y>=209 && y<=239)            //stop/return button
 308              		.loc 1 105 0
 309 0160 A0F18203 		sub	r3, r0, #130
 310 0164 9BB2     		uxth	r3, r3
 311 0166 3C2B     		cmp	r3, #60
 312 0168 08D8     		bhi	.L26
 313              		.loc 1 105 0 is_stmt 0 discriminator 1
 314 016a D029     		cmp	r1, #208
 315 016c 06D9     		bls	.L26
 316              		.loc 1 105 0 discriminator 2
 317 016e EF29     		cmp	r1, #239
 318 0170 04D8     		bhi	.L26
 106:uifunctions.c ****             {
 107:uifunctions.c ****                 screen_state = OPTIONS_SCREEN;  
 319              		.loc 1 107 0 is_stmt 1
 320 0172 0122     		movs	r2, #1
 321 0174 514B     		ldr	r3, .L70
 322 0176 1A60     		str	r2, [r3]
 323 0178 00F091BC 		b	.L1
 324              	.L26:
 108:uifunctions.c ****             }
 109:uifunctions.c ****             else if(x>=241 && x<=319 && y>=209 && y<=239)            //stop/return button
 325              		.loc 1 109 0
 326 017c F13C     		subs	r4, r4, #241
 327 017e A4B2     		uxth	r4, r4
 328 0180 4E2C     		cmp	r4, #78
 329 0182 00F28C84 		bhi	.L1
 330              		.loc 1 109 0 is_stmt 0 discriminator 1
 331 0186 D02D     		cmp	r5, #208
 332 0188 40F28984 		bls	.L1
 333              		.loc 1 109 0 discriminator 2
 334 018c EF2D     		cmp	r5, #239
 335 018e 00F28684 		bhi	.L1
 110:uifunctions.c ****             {
 111:uifunctions.c ****                 screen_state = DEVICE_SELECTION_SCREEN;
 336              		.loc 1 111 0 is_stmt 1
 337 0192 0022     		movs	r2, #0
ARM GAS  C:\Users\JACOB-~1\AppData\Local\Temp\cchboK4P.s 			page 9


 338 0194 494B     		ldr	r3, .L70
 339 0196 1A60     		str	r2, [r3]
 112:uifunctions.c ****                 device_selection = -1;
 340              		.loc 1 112 0
 341 0198 4FF0FF32 		mov	r2, #-1
 342 019c 484B     		ldr	r3, .L70+4
 343 019e 5A60     		str	r2, [r3, #4]
 344 01a0 00F07DBC 		b	.L1
 345              	.L7:
 113:uifunctions.c ****             }
 114:uifunctions.c ****             break;
 115:uifunctions.c ****         case OPTION_AVERAGES_SCREEN :
 116:uifunctions.c ****             if(x>=241 && x<=319 && y>=0 && y<=239)         //return button
 346              		.loc 1 116 0
 347 01a4 A0F1F103 		sub	r3, r0, #241
 348 01a8 9BB2     		uxth	r3, r3
 349 01aa 4E2B     		cmp	r3, #78
 350 01ac 05D8     		bhi	.L27
 351              		.loc 1 116 0 is_stmt 0 discriminator 1
 352 01ae EF29     		cmp	r1, #239
 353 01b0 03D8     		bhi	.L27
 354              	.LBB11:
 117:uifunctions.c ****             {
 118:uifunctions.c ****                 draw_options_screen();
 355              		.loc 1 118 0 is_stmt 1
 356 01b2 FFF7FEFF 		bl	draw_options_screen
 357              	.LVL19:
 358              	.LBE11:
 117:uifunctions.c ****             {
 359              		.loc 1 117 0
 360 01b6 00F072BC 		b	.L1
 361              	.LVL20:
 362              	.L27:
 119:uifunctions.c ****             }
 120:uifunctions.c ****             else if(x>=80 && x<=150 && y>=150 && y<=200)  //+1 button
 363              		.loc 1 120 0
 364 01ba A4F15003 		sub	r3, r4, #80
 365 01be 9BB2     		uxth	r3, r3
 366 01c0 462B     		cmp	r3, #70
 367 01c2 27D8     		bhi	.L28
 368              		.loc 1 120 0 is_stmt 0 discriminator 1
 369 01c4 952D     		cmp	r5, #149
 370 01c6 25D9     		bls	.L28
 371              		.loc 1 120 0 discriminator 2
 372 01c8 C82D     		cmp	r5, #200
 373 01ca 23D8     		bhi	.L28
 374              	.LBB12:
 121:uifunctions.c ****             {
 122:uifunctions.c ****                 num_avg = num_avg+1;
 375              		.loc 1 122 0 is_stmt 1
 376 01cc 3C4A     		ldr	r2, .L70+4
 377 01ce D368     		ldr	r3, [r2, #12]
 378 01d0 0133     		adds	r3, r3, #1
 379 01d2 D360     		str	r3, [r2, #12]
 123:uifunctions.c ****                 if(num_avg>1000)
 380              		.loc 1 123 0
 381 01d4 B3F57A7F 		cmp	r3, #1000
ARM GAS  C:\Users\JACOB-~1\AppData\Local\Temp\cchboK4P.s 			page 10


 382 01d8 03DD     		ble	.L29
 124:uifunctions.c ****                 {
 125:uifunctions.c ****                     num_avg = 1000;
 383              		.loc 1 125 0
 384 01da 4FF47A72 		mov	r2, #1000
 385 01de 384B     		ldr	r3, .L70+4
 386 01e0 DA60     		str	r2, [r3, #12]
 387              	.L29:
 126:uifunctions.c ****                 }
 127:uifunctions.c ****                 fill_rect(10,95,60,30,BLACK);
 388              		.loc 1 127 0
 389 01e2 0023     		movs	r3, #0
 390 01e4 0093     		str	r3, [sp]
 391 01e6 1E23     		movs	r3, #30
 392 01e8 3C22     		movs	r2, #60
 393 01ea 5F21     		movs	r1, #95
 394              	.LVL21:
 395 01ec 0A20     		movs	r0, #10
 396              	.LVL22:
 397 01ee FFF7FEFF 		bl	fill_rect
 398              	.LVL23:
 128:uifunctions.c ****                 
 129:uifunctions.c ****                 char avg_num[4];
 130:uifunctions.c ****                 itoa(num_avg, avg_num, 10);
 399              		.loc 1 130 0
 400 01f2 0A22     		movs	r2, #10
 401 01f4 05A9     		add	r1, sp, #20
 402 01f6 324B     		ldr	r3, .L70+4
 403 01f8 D868     		ldr	r0, [r3, #12]
 404 01fa FFF7FEFF 		bl	itoa
 405              	.LVL24:
 131:uifunctions.c ****                 
 132:uifunctions.c ****                 draw_string(20,105,WHITE,avg_num,2);
 406              		.loc 1 132 0
 407 01fe 0223     		movs	r3, #2
 408 0200 0093     		str	r3, [sp]
 409 0202 05AB     		add	r3, sp, #20
 410 0204 4FF6FF72 		movw	r2, #65535
 411 0208 6921     		movs	r1, #105
 412 020a 1420     		movs	r0, #20
 413 020c FFF7FEFF 		bl	draw_string
 414              	.LVL25:
 415              	.LBE12:
 121:uifunctions.c ****                 num_avg = num_avg+1;
 416              		.loc 1 121 0
 417 0210 00F045BC 		b	.L1
 418              	.LVL26:
 419              	.L28:
 133:uifunctions.c ****             }
 134:uifunctions.c ****             else if(x>=80 && x<=150 && y>=80 && y<=130)   //+10 button         
 420              		.loc 1 134 0
 421 0214 462B     		cmp	r3, #70
 422 0216 27D8     		bhi	.L30
 423              		.loc 1 134 0 is_stmt 0 discriminator 1
 424 0218 4F2D     		cmp	r5, #79
 425 021a 25D9     		bls	.L30
 426              		.loc 1 134 0 discriminator 2
ARM GAS  C:\Users\JACOB-~1\AppData\Local\Temp\cchboK4P.s 			page 11


 427 021c 822D     		cmp	r5, #130
 428 021e 23D8     		bhi	.L30
 429              	.LBB13:
 135:uifunctions.c ****             {
 136:uifunctions.c ****                 num_avg = num_avg+10;
 430              		.loc 1 136 0 is_stmt 1
 431 0220 274A     		ldr	r2, .L70+4
 432 0222 D368     		ldr	r3, [r2, #12]
 433 0224 0A33     		adds	r3, r3, #10
 434 0226 D360     		str	r3, [r2, #12]
 137:uifunctions.c ****                 if(num_avg>1000)
 435              		.loc 1 137 0
 436 0228 B3F57A7F 		cmp	r3, #1000
 437 022c 03DD     		ble	.L31
 138:uifunctions.c ****                 {
 139:uifunctions.c ****                     num_avg = 1000;
 438              		.loc 1 139 0
 439 022e 4FF47A72 		mov	r2, #1000
 440 0232 234B     		ldr	r3, .L70+4
 441 0234 DA60     		str	r2, [r3, #12]
 442              	.L31:
 140:uifunctions.c ****                 }
 141:uifunctions.c ****                 fill_rect(10,95,60,30,BLACK);
 443              		.loc 1 141 0 discriminator 2
 444 0236 0023     		movs	r3, #0
 445 0238 0093     		str	r3, [sp]
 446 023a 1E23     		movs	r3, #30
 447 023c 3C22     		movs	r2, #60
 448 023e 5F21     		movs	r1, #95
 449              	.LVL27:
 450 0240 0A20     		movs	r0, #10
 451              	.LVL28:
 452 0242 FFF7FEFF 		bl	fill_rect
 453              	.LVL29:
 142:uifunctions.c ****                 
 143:uifunctions.c ****                 char avg_num[4];
 144:uifunctions.c ****                 itoa(num_avg, avg_num, 10);
 454              		.loc 1 144 0 discriminator 2
 455 0246 0A22     		movs	r2, #10
 456 0248 05A9     		add	r1, sp, #20
 457 024a 1D4B     		ldr	r3, .L70+4
 458 024c D868     		ldr	r0, [r3, #12]
 459 024e FFF7FEFF 		bl	itoa
 460              	.LVL30:
 145:uifunctions.c ****                 
 146:uifunctions.c ****                 draw_string(20,105,WHITE,avg_num,2);
 461              		.loc 1 146 0 discriminator 2
 462 0252 0223     		movs	r3, #2
 463 0254 0093     		str	r3, [sp]
 464 0256 05AB     		add	r3, sp, #20
 465 0258 4FF6FF72 		movw	r2, #65535
 466 025c 6921     		movs	r1, #105
 467 025e 1420     		movs	r0, #20
 468 0260 FFF7FEFF 		bl	draw_string
 469              	.LVL31:
 470              	.LBE13:
 135:uifunctions.c ****                 num_avg = num_avg+10;
ARM GAS  C:\Users\JACOB-~1\AppData\Local\Temp\cchboK4P.s 			page 12


 471              		.loc 1 135 0 discriminator 2
 472 0264 00F01BBC 		b	.L1
 473              	.LVL32:
 474              	.L30:
 147:uifunctions.c ****             }
 148:uifunctions.c ****             else if(x>=80 && x<=150 && y>=10 && y<=60)  //+100 button                  
 475              		.loc 1 148 0
 476 0268 462B     		cmp	r3, #70
 477 026a 2BD8     		bhi	.L32
 478              		.loc 1 148 0 is_stmt 0 discriminator 1
 479 026c 092D     		cmp	r5, #9
 480 026e 29D9     		bls	.L32
 481              		.loc 1 148 0 discriminator 2
 482 0270 3C2D     		cmp	r5, #60
 483 0272 27D8     		bhi	.L32
 484              	.LBB14:
 149:uifunctions.c ****             {
 150:uifunctions.c ****                 num_avg = num_avg+100;
 485              		.loc 1 150 0 is_stmt 1
 486 0274 124A     		ldr	r2, .L70+4
 487 0276 D368     		ldr	r3, [r2, #12]
 488 0278 6433     		adds	r3, r3, #100
 489 027a D360     		str	r3, [r2, #12]
 151:uifunctions.c ****                 if(num_avg>1000)
 490              		.loc 1 151 0
 491 027c B3F57A7F 		cmp	r3, #1000
 492 0280 03DD     		ble	.L33
 152:uifunctions.c ****                 {
 153:uifunctions.c ****                     num_avg = 1000;
 493              		.loc 1 153 0
 494 0282 4FF47A72 		mov	r2, #1000
 495 0286 0E4B     		ldr	r3, .L70+4
 496 0288 DA60     		str	r2, [r3, #12]
 497              	.L33:
 154:uifunctions.c ****                 }
 155:uifunctions.c ****                 fill_rect(10,95,60,30,BLACK);
 498              		.loc 1 155 0 discriminator 3
 499 028a 0023     		movs	r3, #0
 500 028c 0093     		str	r3, [sp]
 501 028e 1E23     		movs	r3, #30
 502 0290 3C22     		movs	r2, #60
 503 0292 5F21     		movs	r1, #95
 504              	.LVL33:
 505 0294 0A20     		movs	r0, #10
 506              	.LVL34:
 507 0296 FFF7FEFF 		bl	fill_rect
 508              	.LVL35:
 156:uifunctions.c ****                 
 157:uifunctions.c ****                 char avg_num[4];
 158:uifunctions.c ****                 itoa(num_avg, avg_num, 10);
 509              		.loc 1 158 0 discriminator 3
 510 029a 0A22     		movs	r2, #10
 511 029c 05A9     		add	r1, sp, #20
 512 029e 084B     		ldr	r3, .L70+4
 513 02a0 D868     		ldr	r0, [r3, #12]
 514 02a2 FFF7FEFF 		bl	itoa
 515              	.LVL36:
ARM GAS  C:\Users\JACOB-~1\AppData\Local\Temp\cchboK4P.s 			page 13


 159:uifunctions.c ****                 
 160:uifunctions.c ****                 draw_string(20,105,WHITE,avg_num,2);
 516              		.loc 1 160 0 discriminator 3
 517 02a6 0223     		movs	r3, #2
 518 02a8 0093     		str	r3, [sp]
 519 02aa 05AB     		add	r3, sp, #20
 520 02ac 4FF6FF72 		movw	r2, #65535
 521 02b0 6921     		movs	r1, #105
 522 02b2 1420     		movs	r0, #20
 523 02b4 FFF7FEFF 		bl	draw_string
 524              	.LVL37:
 525              	.LBE14:
 149:uifunctions.c ****                 num_avg = num_avg+100;
 526              		.loc 1 149 0 discriminator 3
 527 02b8 F1E3     		b	.L1
 528              	.L71:
 529 02ba 00BF     		.align	2
 530              	.L70:
 531 02bc 00000000 		.word	.LANCHOR0
 532 02c0 00000000 		.word	.LANCHOR1
 533              	.LVL38:
 534              	.L32:
 161:uifunctions.c ****             }
 162:uifunctions.c ****             else if(x>=160 && x<=230 && y>=150 && y<=200)  //-1 button
 535              		.loc 1 162 0
 536 02c4 A03C     		subs	r4, r4, #160
 537 02c6 A4B2     		uxth	r4, r4
 538 02c8 462C     		cmp	r4, #70
 539 02ca 24D8     		bhi	.L34
 540              		.loc 1 162 0 is_stmt 0 discriminator 1
 541 02cc 952D     		cmp	r5, #149
 542 02ce 22D9     		bls	.L34
 543              		.loc 1 162 0 discriminator 2
 544 02d0 C82D     		cmp	r5, #200
 545 02d2 20D8     		bhi	.L34
 546              	.LBB15:
 163:uifunctions.c ****             {
 164:uifunctions.c ****                 num_avg = num_avg-1;
 547              		.loc 1 164 0 is_stmt 1
 548 02d4 AE4A     		ldr	r2, .L72
 549 02d6 D368     		ldr	r3, [r2, #12]
 550 02d8 013B     		subs	r3, r3, #1
 551 02da D360     		str	r3, [r2, #12]
 165:uifunctions.c ****                 if(num_avg<1)
 552              		.loc 1 165 0
 553 02dc 002B     		cmp	r3, #0
 554 02de 02DC     		bgt	.L35
 166:uifunctions.c ****                 {
 167:uifunctions.c ****                     num_avg = 1;
 555              		.loc 1 167 0
 556 02e0 0122     		movs	r2, #1
 557 02e2 AB4B     		ldr	r3, .L72
 558 02e4 DA60     		str	r2, [r3, #12]
 559              	.L35:
 168:uifunctions.c ****                 }
 169:uifunctions.c ****                 fill_rect(10,95,60,30,BLACK);
 560              		.loc 1 169 0 discriminator 4
ARM GAS  C:\Users\JACOB-~1\AppData\Local\Temp\cchboK4P.s 			page 14


 561 02e6 0023     		movs	r3, #0
 562 02e8 0093     		str	r3, [sp]
 563 02ea 1E23     		movs	r3, #30
 564 02ec 3C22     		movs	r2, #60
 565 02ee 5F21     		movs	r1, #95
 566              	.LVL39:
 567 02f0 0A20     		movs	r0, #10
 568              	.LVL40:
 569 02f2 FFF7FEFF 		bl	fill_rect
 570              	.LVL41:
 170:uifunctions.c ****                 
 171:uifunctions.c ****                 char avg_num[4];
 172:uifunctions.c ****                 itoa(num_avg, avg_num, 10);
 571              		.loc 1 172 0 discriminator 4
 572 02f6 0A22     		movs	r2, #10
 573 02f8 05A9     		add	r1, sp, #20
 574 02fa A54B     		ldr	r3, .L72
 575 02fc D868     		ldr	r0, [r3, #12]
 576 02fe FFF7FEFF 		bl	itoa
 577              	.LVL42:
 173:uifunctions.c ****                 
 174:uifunctions.c ****                 draw_string(20,105,WHITE,avg_num,2);
 578              		.loc 1 174 0 discriminator 4
 579 0302 0223     		movs	r3, #2
 580 0304 0093     		str	r3, [sp]
 581 0306 05AB     		add	r3, sp, #20
 582 0308 4FF6FF72 		movw	r2, #65535
 583 030c 6921     		movs	r1, #105
 584 030e 1420     		movs	r0, #20
 585 0310 FFF7FEFF 		bl	draw_string
 586              	.LVL43:
 587              	.LBE15:
 163:uifunctions.c ****                 num_avg = num_avg-1;
 588              		.loc 1 163 0 discriminator 4
 589 0314 C3E3     		b	.L1
 590              	.LVL44:
 591              	.L34:
 175:uifunctions.c ****             }
 176:uifunctions.c ****             else if(x>=160 && x<=230 && y>=80 && y<=130)   //-10 button                 
 592              		.loc 1 176 0
 593 0316 462C     		cmp	r4, #70
 594 0318 24D8     		bhi	.L36
 595              		.loc 1 176 0 is_stmt 0 discriminator 1
 596 031a 4F2D     		cmp	r5, #79
 597 031c 22D9     		bls	.L36
 598              		.loc 1 176 0 discriminator 2
 599 031e 822D     		cmp	r5, #130
 600 0320 20D8     		bhi	.L36
 601              	.LBB16:
 177:uifunctions.c ****             {
 178:uifunctions.c ****                 num_avg = num_avg-10;
 602              		.loc 1 178 0 is_stmt 1
 603 0322 9B4A     		ldr	r2, .L72
 604 0324 D368     		ldr	r3, [r2, #12]
 605 0326 0A3B     		subs	r3, r3, #10
 606 0328 D360     		str	r3, [r2, #12]
 179:uifunctions.c ****                 if(num_avg<1)
ARM GAS  C:\Users\JACOB-~1\AppData\Local\Temp\cchboK4P.s 			page 15


 607              		.loc 1 179 0
 608 032a 002B     		cmp	r3, #0
 609 032c 02DC     		bgt	.L37
 180:uifunctions.c ****                 {
 181:uifunctions.c ****                     num_avg = 1;
 610              		.loc 1 181 0
 611 032e 0122     		movs	r2, #1
 612 0330 974B     		ldr	r3, .L72
 613 0332 DA60     		str	r2, [r3, #12]
 614              	.L37:
 182:uifunctions.c ****                 }
 183:uifunctions.c ****                 fill_rect(10,95,60,30,BLACK);
 615              		.loc 1 183 0 discriminator 5
 616 0334 0023     		movs	r3, #0
 617 0336 0093     		str	r3, [sp]
 618 0338 1E23     		movs	r3, #30
 619 033a 3C22     		movs	r2, #60
 620 033c 5F21     		movs	r1, #95
 621              	.LVL45:
 622 033e 0A20     		movs	r0, #10
 623              	.LVL46:
 624 0340 FFF7FEFF 		bl	fill_rect
 625              	.LVL47:
 184:uifunctions.c ****                 
 185:uifunctions.c ****                 char avg_num[4];
 186:uifunctions.c ****                 itoa(num_avg, avg_num, 10);
 626              		.loc 1 186 0 discriminator 5
 627 0344 0A22     		movs	r2, #10
 628 0346 05A9     		add	r1, sp, #20
 629 0348 914B     		ldr	r3, .L72
 630 034a D868     		ldr	r0, [r3, #12]
 631 034c FFF7FEFF 		bl	itoa
 632              	.LVL48:
 187:uifunctions.c ****                 
 188:uifunctions.c ****                 draw_string(20,105,WHITE,avg_num,2);
 633              		.loc 1 188 0 discriminator 5
 634 0350 0223     		movs	r3, #2
 635 0352 0093     		str	r3, [sp]
 636 0354 05AB     		add	r3, sp, #20
 637 0356 4FF6FF72 		movw	r2, #65535
 638 035a 6921     		movs	r1, #105
 639 035c 1420     		movs	r0, #20
 640 035e FFF7FEFF 		bl	draw_string
 641              	.LVL49:
 642              	.LBE16:
 177:uifunctions.c ****                 num_avg = num_avg-10;
 643              		.loc 1 177 0 discriminator 5
 644 0362 9CE3     		b	.L1
 645              	.LVL50:
 646              	.L36:
 189:uifunctions.c ****             }
 190:uifunctions.c ****             else if(x>=160 && x<=230 && y>=10 && y<=60)  //-100 button                  
 647              		.loc 1 190 0
 648 0364 462C     		cmp	r4, #70
 649 0366 00F29A83 		bhi	.L1
 650              		.loc 1 190 0 is_stmt 0 discriminator 1
 651 036a 092D     		cmp	r5, #9
ARM GAS  C:\Users\JACOB-~1\AppData\Local\Temp\cchboK4P.s 			page 16


 652 036c 40F29783 		bls	.L1
 653              		.loc 1 190 0 discriminator 2
 654 0370 3C2D     		cmp	r5, #60
 655 0372 00F29483 		bhi	.L1
 656              	.LBB17:
 191:uifunctions.c ****             {
 192:uifunctions.c ****                 num_avg = num_avg-100;
 657              		.loc 1 192 0 is_stmt 1
 658 0376 864A     		ldr	r2, .L72
 659 0378 D368     		ldr	r3, [r2, #12]
 660 037a 643B     		subs	r3, r3, #100
 661 037c D360     		str	r3, [r2, #12]
 193:uifunctions.c ****                 if(num_avg<1)
 662              		.loc 1 193 0
 663 037e 002B     		cmp	r3, #0
 664 0380 02DC     		bgt	.L38
 194:uifunctions.c ****                 {
 195:uifunctions.c ****                     num_avg = 1;
 665              		.loc 1 195 0
 666 0382 0122     		movs	r2, #1
 667 0384 824B     		ldr	r3, .L72
 668 0386 DA60     		str	r2, [r3, #12]
 669              	.L38:
 196:uifunctions.c ****                 }
 197:uifunctions.c ****                 fill_rect(10,95,60,30,BLACK);
 670              		.loc 1 197 0 discriminator 6
 671 0388 0023     		movs	r3, #0
 672 038a 0093     		str	r3, [sp]
 673 038c 1E23     		movs	r3, #30
 674 038e 3C22     		movs	r2, #60
 675 0390 5F21     		movs	r1, #95
 676              	.LVL51:
 677 0392 0A20     		movs	r0, #10
 678              	.LVL52:
 679 0394 FFF7FEFF 		bl	fill_rect
 680              	.LVL53:
 198:uifunctions.c ****                 
 199:uifunctions.c ****                 char avg_num[4];
 200:uifunctions.c ****                 itoa(num_avg, avg_num, 10);
 681              		.loc 1 200 0 discriminator 6
 682 0398 0A22     		movs	r2, #10
 683 039a 05A9     		add	r1, sp, #20
 684 039c 7C4B     		ldr	r3, .L72
 685 039e D868     		ldr	r0, [r3, #12]
 686 03a0 FFF7FEFF 		bl	itoa
 687              	.LVL54:
 201:uifunctions.c ****                 
 202:uifunctions.c ****                 draw_string(20,105,WHITE,avg_num,2);
 688              		.loc 1 202 0 discriminator 6
 689 03a4 0223     		movs	r3, #2
 690 03a6 0093     		str	r3, [sp]
 691 03a8 05AB     		add	r3, sp, #20
 692 03aa 4FF6FF72 		movw	r2, #65535
 693 03ae 6921     		movs	r1, #105
 694 03b0 1420     		movs	r0, #20
 695 03b2 FFF7FEFF 		bl	draw_string
 696              	.LVL55:
ARM GAS  C:\Users\JACOB-~1\AppData\Local\Temp\cchboK4P.s 			page 17


 697 03b6 72E3     		b	.L1
 698              	.LVL56:
 699              	.L8:
 700              	.LBE17:
 203:uifunctions.c ****             }
 204:uifunctions.c ****             break;
 205:uifunctions.c ****         case OPTION_SD_SCREEN :
 206:uifunctions.c ****             if(x>=241 && x<=319 && y>=0 && y<=239)         //return button
 701              		.loc 1 206 0
 702 03b8 A0F1F103 		sub	r3, r0, #241
 703 03bc 9BB2     		uxth	r3, r3
 704 03be 4E2B     		cmp	r3, #78
 705 03c0 04D8     		bhi	.L39
 706              		.loc 1 206 0 is_stmt 0 discriminator 1
 707 03c2 EF29     		cmp	r1, #239
 708 03c4 02D8     		bhi	.L39
 709              	.LBB18:
 207:uifunctions.c ****             {
 208:uifunctions.c ****                 draw_options_screen();
 710              		.loc 1 208 0 is_stmt 1
 711 03c6 FFF7FEFF 		bl	draw_options_screen
 712              	.LVL57:
 713              	.LBE18:
 207:uifunctions.c ****             {
 714              		.loc 1 207 0
 715 03ca 68E3     		b	.L1
 716              	.LVL58:
 717              	.L39:
 209:uifunctions.c ****             }
 210:uifunctions.c ****             else if(x>=30 && x<=110 && y>=100 && y<=150)        //yes button
 718              		.loc 1 210 0
 719 03cc A4F11E03 		sub	r3, r4, #30
 720 03d0 9BB2     		uxth	r3, r3
 721 03d2 502B     		cmp	r3, #80
 722 03d4 22D8     		bhi	.L40
 723              		.loc 1 210 0 is_stmt 0 discriminator 1
 724 03d6 632D     		cmp	r5, #99
 725 03d8 20D9     		bls	.L40
 726              		.loc 1 210 0 discriminator 2
 727 03da 962D     		cmp	r5, #150
 728 03dc 1ED8     		bhi	.L40
 729              	.LBB19:
 211:uifunctions.c ****             {
 212:uifunctions.c ****                 draw_button(30,100,80,50,LIGHTBLUE,BLACK,"YES");  
 730              		.loc 1 212 0 is_stmt 1
 731 03de 6D4B     		ldr	r3, .L72+4
 732 03e0 0293     		str	r3, [sp, #8]
 733 03e2 0024     		movs	r4, #0
 734 03e4 0194     		str	r4, [sp, #4]
 735 03e6 49F69F63 		movw	r3, #40607
 736 03ea 0093     		str	r3, [sp]
 737 03ec 3223     		movs	r3, #50
 738 03ee 5022     		movs	r2, #80
 739 03f0 6421     		movs	r1, #100
 740              	.LVL59:
 741 03f2 1E20     		movs	r0, #30
 742              	.LVL60:
ARM GAS  C:\Users\JACOB-~1\AppData\Local\Temp\cchboK4P.s 			page 18


 743 03f4 FFF7FEFF 		bl	draw_button
 744              	.LVL61:
 213:uifunctions.c ****                 draw_button(130,100,80,50,WHITE,BLACK,"NO");
 745              		.loc 1 213 0
 746 03f8 674B     		ldr	r3, .L72+8
 747 03fa 0293     		str	r3, [sp, #8]
 748 03fc 0194     		str	r4, [sp, #4]
 749 03fe 4FF6FF73 		movw	r3, #65535
 750 0402 0093     		str	r3, [sp]
 751 0404 3223     		movs	r3, #50
 752 0406 5022     		movs	r2, #80
 753 0408 6421     		movs	r1, #100
 754 040a 8220     		movs	r0, #130
 755 040c FFF7FEFF 		bl	draw_button
 756              	.LVL62:
 214:uifunctions.c ****                 write_sd = 1;
 757              		.loc 1 214 0
 758 0410 0122     		movs	r2, #1
 759 0412 5F4B     		ldr	r3, .L72
 760 0414 1A61     		str	r2, [r3, #16]
 215:uifunctions.c ****                 emFile_1_Wakeup();
 761              		.loc 1 215 0
 762 0416 FFF7FEFF 		bl	emFile_1_Wakeup
 763              	.LVL63:
 764              	.LBE19:
 211:uifunctions.c ****                 draw_button(30,100,80,50,LIGHTBLUE,BLACK,"YES");  
 765              		.loc 1 211 0
 766 041a 40E3     		b	.L1
 767              	.LVL64:
 768              	.L40:
 216:uifunctions.c ****             }
 217:uifunctions.c ****             else if(x>=130 && x<=210 && y>=100 && y<=150)       //no button
 769              		.loc 1 217 0
 770 041c 823C     		subs	r4, r4, #130
 771 041e A4B2     		uxth	r4, r4
 772 0420 502C     		cmp	r4, #80
 773 0422 00F23C83 		bhi	.L1
 774              		.loc 1 217 0 is_stmt 0 discriminator 1
 775 0426 632D     		cmp	r5, #99
 776 0428 40F23983 		bls	.L1
 777              		.loc 1 217 0 discriminator 2
 778 042c 962D     		cmp	r5, #150
 779 042e 00F23683 		bhi	.L1
 780              	.LBB20:
 218:uifunctions.c ****             {
 219:uifunctions.c ****                 draw_button(30,100,80,50,WHITE,BLACK,"YES");  
 781              		.loc 1 219 0 is_stmt 1
 782 0432 584B     		ldr	r3, .L72+4
 783 0434 0293     		str	r3, [sp, #8]
 784 0436 0024     		movs	r4, #0
 785 0438 0194     		str	r4, [sp, #4]
 786 043a 4FF6FF73 		movw	r3, #65535
 787 043e 0093     		str	r3, [sp]
 788 0440 3223     		movs	r3, #50
 789 0442 5022     		movs	r2, #80
 790 0444 6421     		movs	r1, #100
 791              	.LVL65:
ARM GAS  C:\Users\JACOB-~1\AppData\Local\Temp\cchboK4P.s 			page 19


 792 0446 1E20     		movs	r0, #30
 793              	.LVL66:
 794 0448 FFF7FEFF 		bl	draw_button
 795              	.LVL67:
 220:uifunctions.c ****                 draw_button(130,100,80,50,LIGHTBLUE,BLACK,"NO");
 796              		.loc 1 220 0
 797 044c 524B     		ldr	r3, .L72+8
 798 044e 0293     		str	r3, [sp, #8]
 799 0450 0194     		str	r4, [sp, #4]
 800 0452 49F69F63 		movw	r3, #40607
 801 0456 0093     		str	r3, [sp]
 802 0458 3223     		movs	r3, #50
 803 045a 5022     		movs	r2, #80
 804 045c 6421     		movs	r1, #100
 805 045e 8220     		movs	r0, #130
 806 0460 FFF7FEFF 		bl	draw_button
 807              	.LVL68:
 221:uifunctions.c ****                 emFile_1_Sleep();
 808              		.loc 1 221 0
 809 0464 FFF7FEFF 		bl	emFile_1_Sleep
 810              	.LVL69:
 222:uifunctions.c ****                 write_sd = 0;
 811              		.loc 1 222 0
 812 0468 494B     		ldr	r3, .L72
 813 046a 1C61     		str	r4, [r3, #16]
 814 046c 17E3     		b	.L1
 815              	.LVL70:
 816              	.L9:
 817              	.LBE20:
 223:uifunctions.c ****             }
 224:uifunctions.c ****             break;
 225:uifunctions.c ****         case OPTION_CURVES_SCREEN :
 226:uifunctions.c ****             if(x>=241 && x<=319 && y>=0 && y<=239)         //return button
 818              		.loc 1 226 0
 819 046e A0F1F103 		sub	r3, r0, #241
 820 0472 9BB2     		uxth	r3, r3
 821 0474 4E2B     		cmp	r3, #78
 822 0476 04D8     		bhi	.L41
 823              		.loc 1 226 0 is_stmt 0 discriminator 1
 824 0478 EF29     		cmp	r1, #239
 825 047a 02D8     		bhi	.L41
 826              	.LBB21:
 227:uifunctions.c ****             {
 228:uifunctions.c ****                 draw_options_screen();
 827              		.loc 1 228 0 is_stmt 1
 828 047c FFF7FEFF 		bl	draw_options_screen
 829              	.LVL71:
 830              	.LBE21:
 227:uifunctions.c ****             {
 831              		.loc 1 227 0
 832 0480 0DE3     		b	.L1
 833              	.LVL72:
 834              	.L41:
 229:uifunctions.c ****             }
 230:uifunctions.c ****             else if(x>=130 && x<=200 && y>=30 && y<=100)    //decrease button                 
 835              		.loc 1 230 0
 836 0482 823C     		subs	r4, r4, #130
ARM GAS  C:\Users\JACOB-~1\AppData\Local\Temp\cchboK4P.s 			page 20


 837 0484 A4B2     		uxth	r4, r4
 838 0486 462C     		cmp	r4, #70
 839 0488 26D8     		bhi	.L42
 840              		.loc 1 230 0 is_stmt 0 discriminator 1
 841 048a 1D2D     		cmp	r5, #29
 842 048c 24D9     		bls	.L42
 843              		.loc 1 230 0 discriminator 2
 844 048e 642D     		cmp	r5, #100
 845 0490 22D8     		bhi	.L42
 846              	.LBB22:
 231:uifunctions.c ****             {
 232:uifunctions.c ****                 if(curve_nums>1)
 847              		.loc 1 232 0 is_stmt 1
 848 0492 3F4B     		ldr	r3, .L72
 849 0494 5B69     		ldr	r3, [r3, #20]
 850 0496 012B     		cmp	r3, #1
 851 0498 03DD     		ble	.L43
 233:uifunctions.c ****                 {
 234:uifunctions.c ****                     curve_nums--;
 852              		.loc 1 234 0
 853 049a 013B     		subs	r3, r3, #1
 854 049c 3C4A     		ldr	r2, .L72
 855 049e 5361     		str	r3, [r2, #20]
 856 04a0 02E0     		b	.L44
 857              	.L43:
 235:uifunctions.c ****                 }
 236:uifunctions.c ****                 else
 237:uifunctions.c ****                 {
 238:uifunctions.c ****                     curve_nums = 1;
 858              		.loc 1 238 0
 859 04a2 0122     		movs	r2, #1
 860 04a4 3A4B     		ldr	r3, .L72
 861 04a6 5A61     		str	r2, [r3, #20]
 862              	.L44:
 239:uifunctions.c ****                 }
 240:uifunctions.c ****                 fill_rect(40,95,60,30,BLACK);
 863              		.loc 1 240 0
 864 04a8 0023     		movs	r3, #0
 865 04aa 0093     		str	r3, [sp]
 866 04ac 1E23     		movs	r3, #30
 867 04ae 3C22     		movs	r2, #60
 868 04b0 5F21     		movs	r1, #95
 869              	.LVL73:
 870 04b2 2820     		movs	r0, #40
 871              	.LVL74:
 872 04b4 FFF7FEFF 		bl	fill_rect
 873              	.LVL75:
 241:uifunctions.c ****                 
 242:uifunctions.c ****                 char num_curve[2];
 243:uifunctions.c ****                 itoa(curve_nums, num_curve, 10);
 874              		.loc 1 243 0
 875 04b8 0A22     		movs	r2, #10
 876 04ba 05A9     		add	r1, sp, #20
 877 04bc 344B     		ldr	r3, .L72
 878 04be 5869     		ldr	r0, [r3, #20]
 879 04c0 FFF7FEFF 		bl	itoa
 880              	.LVL76:
ARM GAS  C:\Users\JACOB-~1\AppData\Local\Temp\cchboK4P.s 			page 21


 244:uifunctions.c ****                 
 245:uifunctions.c ****                 draw_string(50,105,WHITE,num_curve,3);
 881              		.loc 1 245 0
 882 04c4 0323     		movs	r3, #3
 883 04c6 0093     		str	r3, [sp]
 884 04c8 05AB     		add	r3, sp, #20
 885 04ca 4FF6FF72 		movw	r2, #65535
 886 04ce 6921     		movs	r1, #105
 887 04d0 3220     		movs	r0, #50
 888 04d2 FFF7FEFF 		bl	draw_string
 889              	.LVL77:
 890              	.LBE22:
 231:uifunctions.c ****                 if(curve_nums>1)
 891              		.loc 1 231 0
 892 04d6 E2E2     		b	.L1
 893              	.LVL78:
 894              	.L42:
 246:uifunctions.c ****             }
 247:uifunctions.c ****             else if(x>=130 && x<=200 && y>=120 && y<=190)   //increase button
 895              		.loc 1 247 0
 896 04d8 462C     		cmp	r4, #70
 897 04da 00F2E082 		bhi	.L1
 898              		.loc 1 247 0 is_stmt 0 discriminator 1
 899 04de 772D     		cmp	r5, #119
 900 04e0 40F2DD82 		bls	.L1
 901              		.loc 1 247 0 discriminator 2
 902 04e4 BE2D     		cmp	r5, #190
 903 04e6 00F2DA82 		bhi	.L1
 904              	.LBB23:
 248:uifunctions.c ****             {
 249:uifunctions.c ****                 if(curve_nums<6)
 905              		.loc 1 249 0 is_stmt 1
 906 04ea 294B     		ldr	r3, .L72
 907 04ec 5B69     		ldr	r3, [r3, #20]
 908 04ee 052B     		cmp	r3, #5
 909 04f0 03DC     		bgt	.L45
 250:uifunctions.c ****                 {
 251:uifunctions.c ****                     curve_nums++;
 910              		.loc 1 251 0
 911 04f2 0133     		adds	r3, r3, #1
 912 04f4 264A     		ldr	r2, .L72
 913 04f6 5361     		str	r3, [r2, #20]
 914 04f8 02E0     		b	.L46
 915              	.L45:
 252:uifunctions.c ****                 }
 253:uifunctions.c ****                 else
 254:uifunctions.c ****                 {
 255:uifunctions.c ****                     curve_nums = 6;
 916              		.loc 1 255 0
 917 04fa 0622     		movs	r2, #6
 918 04fc 244B     		ldr	r3, .L72
 919 04fe 5A61     		str	r2, [r3, #20]
 920              	.L46:
 256:uifunctions.c ****                 }
 257:uifunctions.c ****                 fill_rect(40,95,60,30,BLACK);
 921              		.loc 1 257 0 discriminator 8
 922 0500 0023     		movs	r3, #0
ARM GAS  C:\Users\JACOB-~1\AppData\Local\Temp\cchboK4P.s 			page 22


 923 0502 0093     		str	r3, [sp]
 924 0504 1E23     		movs	r3, #30
 925 0506 3C22     		movs	r2, #60
 926 0508 5F21     		movs	r1, #95
 927              	.LVL79:
 928 050a 2820     		movs	r0, #40
 929              	.LVL80:
 930 050c FFF7FEFF 		bl	fill_rect
 931              	.LVL81:
 258:uifunctions.c ****                 
 259:uifunctions.c ****                 char num_curve[2];
 260:uifunctions.c ****                 itoa(curve_nums, num_curve, 10);
 932              		.loc 1 260 0 discriminator 8
 933 0510 0A22     		movs	r2, #10
 934 0512 05A9     		add	r1, sp, #20
 935 0514 1E4B     		ldr	r3, .L72
 936 0516 5869     		ldr	r0, [r3, #20]
 937 0518 FFF7FEFF 		bl	itoa
 938              	.LVL82:
 261:uifunctions.c ****                 
 262:uifunctions.c ****                 draw_string(50,105,WHITE,num_curve,3);
 939              		.loc 1 262 0 discriminator 8
 940 051c 0323     		movs	r3, #3
 941 051e 0093     		str	r3, [sp]
 942 0520 05AB     		add	r3, sp, #20
 943 0522 4FF6FF72 		movw	r2, #65535
 944 0526 6921     		movs	r1, #105
 945 0528 3220     		movs	r0, #50
 946 052a FFF7FEFF 		bl	draw_string
 947              	.LVL83:
 948 052e B6E2     		b	.L1
 949              	.LVL84:
 950              	.L10:
 951              	.LBE23:
 263:uifunctions.c ****             }
 264:uifunctions.c ****             break;
 265:uifunctions.c ****         case OPTION_GRID_SCREEN :
 266:uifunctions.c ****             if(x>=241 && x<=319 && y>=0 && y<=239)         //return button
 952              		.loc 1 266 0
 953 0530 A0F1F103 		sub	r3, r0, #241
 954 0534 9BB2     		uxth	r3, r3
 955 0536 4E2B     		cmp	r3, #78
 956 0538 04D8     		bhi	.L47
 957              		.loc 1 266 0 is_stmt 0 discriminator 1
 958 053a EF29     		cmp	r1, #239
 959 053c 02D8     		bhi	.L47
 960              	.LBB24:
 267:uifunctions.c ****             {
 268:uifunctions.c ****                 draw_more_options_screen();
 961              		.loc 1 268 0 is_stmt 1
 962 053e FFF7FEFF 		bl	draw_more_options_screen
 963              	.LVL85:
 964              	.LBE24:
 267:uifunctions.c ****             {
 965              		.loc 1 267 0
 966 0542 ACE2     		b	.L1
 967              	.LVL86:
ARM GAS  C:\Users\JACOB-~1\AppData\Local\Temp\cchboK4P.s 			page 23


 968              	.L47:
 269:uifunctions.c ****             }
 270:uifunctions.c ****             else if(x>=30 && x<=110 && y>=100 && y<=150)        //yes button
 969              		.loc 1 270 0
 970 0544 A4F11E03 		sub	r3, r4, #30
 971 0548 9BB2     		uxth	r3, r3
 972 054a 502B     		cmp	r3, #80
 973 054c 26D8     		bhi	.L48
 974              		.loc 1 270 0 is_stmt 0 discriminator 1
 975 054e 632D     		cmp	r5, #99
 976 0550 24D9     		bls	.L48
 977              		.loc 1 270 0 discriminator 2
 978 0552 962D     		cmp	r5, #150
 979 0554 22D8     		bhi	.L48
 980              	.LBB25:
 271:uifunctions.c ****             {
 272:uifunctions.c ****                 draw_button(30,100,80,50,LIGHTBLUE,BLACK,"YES");  
 981              		.loc 1 272 0 is_stmt 1
 982 0556 0F4B     		ldr	r3, .L72+4
 983 0558 0293     		str	r3, [sp, #8]
 984 055a 0024     		movs	r4, #0
 985 055c 0194     		str	r4, [sp, #4]
 986 055e 49F69F63 		movw	r3, #40607
 987 0562 0093     		str	r3, [sp]
 988 0564 3223     		movs	r3, #50
 989 0566 5022     		movs	r2, #80
 990 0568 6421     		movs	r1, #100
 991              	.LVL87:
 992 056a 1E20     		movs	r0, #30
 993              	.LVL88:
 994 056c FFF7FEFF 		bl	draw_button
 995              	.LVL89:
 273:uifunctions.c ****                 draw_button(130,100,80,50,WHITE,BLACK,"NO");
 996              		.loc 1 273 0
 997 0570 094B     		ldr	r3, .L72+8
 998 0572 0293     		str	r3, [sp, #8]
 999 0574 0194     		str	r4, [sp, #4]
 1000 0576 4FF6FF73 		movw	r3, #65535
 1001 057a 0093     		str	r3, [sp]
 1002 057c 3223     		movs	r3, #50
 1003 057e 5022     		movs	r2, #80
 1004 0580 6421     		movs	r1, #100
 1005 0582 8220     		movs	r0, #130
 1006 0584 FFF7FEFF 		bl	draw_button
 1007              	.LVL90:
 274:uifunctions.c ****                 draw_grid = 1;
 1008              		.loc 1 274 0
 1009 0588 0122     		movs	r2, #1
 1010 058a 014B     		ldr	r3, .L72
 1011 058c 9A61     		str	r2, [r3, #24]
 1012              	.LBE25:
 271:uifunctions.c ****             {
 1013              		.loc 1 271 0
 1014 058e 86E2     		b	.L1
 1015              	.L73:
 1016              		.align	2
 1017              	.L72:
ARM GAS  C:\Users\JACOB-~1\AppData\Local\Temp\cchboK4P.s 			page 24


 1018 0590 00000000 		.word	.LANCHOR1
 1019 0594 00000000 		.word	.LC0
 1020 0598 04000000 		.word	.LC1
 1021              	.LVL91:
 1022              	.L48:
 275:uifunctions.c ****             }
 276:uifunctions.c ****             else if(x>=130 && x<=210 && y>=100 && y<=150)       //no button
 1023              		.loc 1 276 0
 1024 059c 823C     		subs	r4, r4, #130
 1025 059e A4B2     		uxth	r4, r4
 1026 05a0 502C     		cmp	r4, #80
 1027 05a2 00F27C82 		bhi	.L1
 1028              		.loc 1 276 0 is_stmt 0 discriminator 1
 1029 05a6 632D     		cmp	r5, #99
 1030 05a8 40F27982 		bls	.L1
 1031              		.loc 1 276 0 discriminator 2
 1032 05ac 962D     		cmp	r5, #150
 1033 05ae 00F27682 		bhi	.L1
 1034              	.LBB26:
 277:uifunctions.c ****             {
 278:uifunctions.c ****                 draw_button(30,100,80,50,WHITE,BLACK,"YES");  
 1035              		.loc 1 278 0 is_stmt 1
 1036 05b2 964B     		ldr	r3, .L74
 1037 05b4 0293     		str	r3, [sp, #8]
 1038 05b6 0024     		movs	r4, #0
 1039 05b8 0194     		str	r4, [sp, #4]
 1040 05ba 4FF6FF73 		movw	r3, #65535
 1041 05be 0093     		str	r3, [sp]
 1042 05c0 3223     		movs	r3, #50
 1043 05c2 5022     		movs	r2, #80
 1044 05c4 6421     		movs	r1, #100
 1045              	.LVL92:
 1046 05c6 1E20     		movs	r0, #30
 1047              	.LVL93:
 1048 05c8 FFF7FEFF 		bl	draw_button
 1049              	.LVL94:
 279:uifunctions.c ****                 draw_button(130,100,80,50,LIGHTBLUE,BLACK,"NO");
 1050              		.loc 1 279 0
 1051 05cc 904B     		ldr	r3, .L74+4
 1052 05ce 0293     		str	r3, [sp, #8]
 1053 05d0 0194     		str	r4, [sp, #4]
 1054 05d2 49F69F63 		movw	r3, #40607
 1055 05d6 0093     		str	r3, [sp]
 1056 05d8 3223     		movs	r3, #50
 1057 05da 5022     		movs	r2, #80
 1058 05dc 6421     		movs	r1, #100
 1059 05de 8220     		movs	r0, #130
 1060 05e0 FFF7FEFF 		bl	draw_button
 1061              	.LVL95:
 280:uifunctions.c ****                 draw_grid = 0;
 1062              		.loc 1 280 0
 1063 05e4 8B4B     		ldr	r3, .L74+8
 1064 05e6 9C61     		str	r4, [r3, #24]
 1065 05e8 59E2     		b	.L1
 1066              	.LVL96:
 1067              	.L11:
 1068              	.LBE26:
ARM GAS  C:\Users\JACOB-~1\AppData\Local\Temp\cchboK4P.s 			page 25


 281:uifunctions.c ****             }
 282:uifunctions.c ****             break;
 283:uifunctions.c ****         case DEBUG_SCREEN :
 284:uifunctions.c ****             if(x>=0 && x<=319 && y>=0 && y<=239)                  //return button
 1069              		.loc 1 284 0
 1070 05ea B0F5A07F 		cmp	r0, #320
 1071 05ee 80F05682 		bcs	.L1
 1072              		.loc 1 284 0 is_stmt 0 discriminator 1
 1073 05f2 EF29     		cmp	r1, #239
 1074 05f4 00F25382 		bhi	.L1
 285:uifunctions.c ****             {
 286:uifunctions.c ****                 screen_state = DEVICE_SELECTION_SCREEN;
 1075              		.loc 1 286 0 is_stmt 1
 1076 05f8 0022     		movs	r2, #0
 1077 05fa 874B     		ldr	r3, .L74+12
 1078 05fc 1A60     		str	r2, [r3]
 1079 05fe 4EE2     		b	.L1
 1080              	.L12:
 287:uifunctions.c **** 
 288:uifunctions.c ****             }
 289:uifunctions.c **** //            else                                                //draws coordinates of touch
 290:uifunctions.c **** //            {
 291:uifunctions.c **** //                fill_rect(95,95,30,30,BLACK);
 292:uifunctions.c **** //            
 293:uifunctions.c **** //                char x_touch[10];
 294:uifunctions.c **** //                char y_touch[10];
 295:uifunctions.c **** //
 296:uifunctions.c **** //                itoa(x, x_touch, 10);
 297:uifunctions.c **** //                itoa(y, y_touch, 10);
 298:uifunctions.c **** //                
 299:uifunctions.c **** //                draw_string(100,110,WHITE,x_touch,1);
 300:uifunctions.c **** //                draw_string(100,100,WHITE,y_touch,1);
 301:uifunctions.c **** //            }
 302:uifunctions.c ****             break;
 303:uifunctions.c ****         case OPTIONS_SCREEN_2 :
 304:uifunctions.c ****             if(x>=0 && x<=119 && y>=0 && y<=119)                //button for number of averages opt
 1081              		.loc 1 304 0
 1082 0600 7728     		cmp	r0, #119
 1083 0602 04D8     		bhi	.L49
 1084              		.loc 1 304 0 is_stmt 0 discriminator 1
 1085 0604 7729     		cmp	r1, #119
 1086 0606 02D8     		bhi	.L49
 1087              	.LBB27:
 305:uifunctions.c ****             {
 306:uifunctions.c ****                 draw_vds_options_screen(); 
 1088              		.loc 1 306 0 is_stmt 1
 1089 0608 FFF7FEFF 		bl	draw_vds_options_screen
 1090              	.LVL97:
 1091              	.LBE27:
 305:uifunctions.c ****             {
 1092              		.loc 1 305 0
 1093 060c 47E2     		b	.L1
 1094              	.LVL98:
 1095              	.L49:
 307:uifunctions.c ****             }
 308:uifunctions.c ****             else if(x>=0 && x<=119 && y>=121 && y<=239)         //button for grid options
 1096              		.loc 1 308 0
ARM GAS  C:\Users\JACOB-~1\AppData\Local\Temp\cchboK4P.s 			page 26


 1097 060e 772C     		cmp	r4, #119
 1098 0610 06D8     		bhi	.L50
 1099              		.loc 1 308 0 is_stmt 0 discriminator 1
 1100 0612 782D     		cmp	r5, #120
 1101 0614 04D9     		bls	.L50
 1102              		.loc 1 308 0 discriminator 2
 1103 0616 EF2D     		cmp	r5, #239
 1104 0618 02D8     		bhi	.L50
 1105              	.LBB28:
 309:uifunctions.c ****             {
 310:uifunctions.c ****                 draw_options_grid_screen();
 1106              		.loc 1 310 0 is_stmt 1
 1107 061a FFF7FEFF 		bl	draw_options_grid_screen
 1108              	.LVL99:
 1109              	.LBE28:
 309:uifunctions.c ****             {
 1110              		.loc 1 309 0
 1111 061e 3EE2     		b	.L1
 1112              	.LVL100:
 1113              	.L50:
 311:uifunctions.c ****             }
 312:uifunctions.c ****             else if(x>=121 && x<=240 && y>=121 && y<=239)       //button for cooldown options
 1114              		.loc 1 312 0
 1115 0620 A4F17903 		sub	r3, r4, #121
 1116 0624 9BB2     		uxth	r3, r3
 1117 0626 772B     		cmp	r3, #119
 1118 0628 06D8     		bhi	.L51
 1119              		.loc 1 312 0 is_stmt 0 discriminator 1
 1120 062a 782D     		cmp	r5, #120
 1121 062c 04D9     		bls	.L51
 1122              		.loc 1 312 0 discriminator 2
 1123 062e EF2D     		cmp	r5, #239
 1124 0630 02D8     		bhi	.L51
 1125              	.LBB29:
 313:uifunctions.c ****             {
 314:uifunctions.c ****                 draw_options_cooldown_screen();
 1126              		.loc 1 314 0 is_stmt 1
 1127 0632 FFF7FEFF 		bl	draw_options_cooldown_screen
 1128              	.LVL101:
 1129              	.LBE29:
 313:uifunctions.c ****             {
 1130              		.loc 1 313 0
 1131 0636 32E2     		b	.L1
 1132              	.LVL102:
 1133              	.L51:
 315:uifunctions.c ****             }
 316:uifunctions.c ****             else if(x>=241 && x<=319 && y>=0 && y<=119)         //return button
 1134              		.loc 1 316 0
 1135 0638 F13C     		subs	r4, r4, #241
 1136 063a A4B2     		uxth	r4, r4
 1137 063c 4E2C     		cmp	r4, #78
 1138 063e 04D8     		bhi	.L52
 1139              		.loc 1 316 0 is_stmt 0 discriminator 1
 1140 0640 772D     		cmp	r5, #119
 1141 0642 02D8     		bhi	.L52
 1142              	.LBB30:
 317:uifunctions.c ****             {
ARM GAS  C:\Users\JACOB-~1\AppData\Local\Temp\cchboK4P.s 			page 27


 318:uifunctions.c ****                 draw_options_screen();
 1143              		.loc 1 318 0 is_stmt 1
 1144 0644 FFF7FEFF 		bl	draw_options_screen
 1145              	.LVL103:
 1146              	.LBE30:
 317:uifunctions.c ****             {
 1147              		.loc 1 317 0
 1148 0648 29E2     		b	.L1
 1149              	.LVL104:
 1150              	.L52:
 319:uifunctions.c ****             }
 320:uifunctions.c ****             else if(x>=241 && x<=319 && y>=121 && y<=239)       //run test button
 1151              		.loc 1 320 0
 1152 064a 4E2C     		cmp	r4, #78
 1153 064c 00F22782 		bhi	.L1
 1154              		.loc 1 320 0 is_stmt 0 discriminator 1
 1155 0650 782D     		cmp	r5, #120
 1156 0652 40F22482 		bls	.L1
 1157              		.loc 1 320 0 discriminator 2
 1158 0656 EF2D     		cmp	r5, #239
 1159 0658 00F22182 		bhi	.L1
 321:uifunctions.c ****             {
 322:uifunctions.c ****                 screen_state = PLOT_SCREEN;
 1160              		.loc 1 322 0 is_stmt 1
 1161 065c 0222     		movs	r2, #2
 1162 065e 6E4B     		ldr	r3, .L74+12
 1163 0660 1A60     		str	r2, [r3]
 1164 0662 1CE2     		b	.L1
 1165              	.L13:
 323:uifunctions.c ****             }
 324:uifunctions.c ****             break;
 325:uifunctions.c ****         case OPTION_COOLDOWN_SCREEN :
 326:uifunctions.c ****             if(x>=241 && x<=319 && y>=0 && y<=239)         //return button
 1166              		.loc 1 326 0
 1167 0664 A0F1F103 		sub	r3, r0, #241
 1168 0668 9BB2     		uxth	r3, r3
 1169 066a 4E2B     		cmp	r3, #78
 1170 066c 04D8     		bhi	.L53
 1171              		.loc 1 326 0 is_stmt 0 discriminator 1
 1172 066e EF29     		cmp	r1, #239
 1173 0670 02D8     		bhi	.L53
 1174              	.LBB31:
 327:uifunctions.c ****             {
 328:uifunctions.c ****                 draw_more_options_screen();
 1175              		.loc 1 328 0 is_stmt 1
 1176 0672 FFF7FEFF 		bl	draw_more_options_screen
 1177              	.LVL105:
 1178              	.LBE31:
 327:uifunctions.c ****             {
 1179              		.loc 1 327 0
 1180 0676 12E2     		b	.L1
 1181              	.LVL106:
 1182              	.L53:
 329:uifunctions.c ****             }
 330:uifunctions.c ****             else if(x>=40 && x<=110 && y>=15 && y<=65)      //button 5
 1183              		.loc 1 330 0
 1184 0678 A4F12803 		sub	r3, r4, #40
ARM GAS  C:\Users\JACOB-~1\AppData\Local\Temp\cchboK4P.s 			page 28


 1185 067c 9BB2     		uxth	r3, r3
 1186 067e 462B     		cmp	r3, #70
 1187 0680 3ED8     		bhi	.L54
 1188              		.loc 1 330 0 is_stmt 0 discriminator 1
 1189 0682 0E2D     		cmp	r5, #14
 1190 0684 3CD9     		bls	.L54
 1191              		.loc 1 330 0 discriminator 2
 1192 0686 412D     		cmp	r5, #65
 1193 0688 3AD8     		bhi	.L54
 1194              	.LBB32:
 331:uifunctions.c ****             {
 332:uifunctions.c ****                 cooldown_time = 5;
 1195              		.loc 1 332 0 is_stmt 1
 1196 068a 0522     		movs	r2, #5
 1197 068c 624B     		ldr	r3, .L74+12
 1198 068e DA60     		str	r2, [r3, #12]
 333:uifunctions.c ****                 draw_button(40,15,70,50,LIGHTBLUE,BLACK,"5");
 1199              		.loc 1 333 0
 1200 0690 624B     		ldr	r3, .L74+16
 1201 0692 0293     		str	r3, [sp, #8]
 1202 0694 0024     		movs	r4, #0
 1203 0696 0194     		str	r4, [sp, #4]
 1204 0698 49F69F63 		movw	r3, #40607
 1205 069c 0093     		str	r3, [sp]
 1206 069e 3223     		movs	r3, #50
 1207 06a0 4622     		movs	r2, #70
 1208 06a2 0F21     		movs	r1, #15
 1209              	.LVL107:
 1210 06a4 2820     		movs	r0, #40
 1211              	.LVL108:
 1212 06a6 FFF7FEFF 		bl	draw_button
 1213              	.LVL109:
 334:uifunctions.c ****                 draw_button(130,15,70,50,WHITE,BLACK,"10");
 1214              		.loc 1 334 0
 1215 06aa 5D4B     		ldr	r3, .L74+20
 1216 06ac 0293     		str	r3, [sp, #8]
 1217 06ae 0194     		str	r4, [sp, #4]
 1218 06b0 4FF6FF75 		movw	r5, #65535
 1219 06b4 0095     		str	r5, [sp]
 1220 06b6 3223     		movs	r3, #50
 1221 06b8 4622     		movs	r2, #70
 1222 06ba 0F21     		movs	r1, #15
 1223 06bc 8220     		movs	r0, #130
 1224 06be FFF7FEFF 		bl	draw_button
 1225              	.LVL110:
 335:uifunctions.c ****                 draw_button(40,85,70,50,WHITE,BLACK,"1");
 1226              		.loc 1 335 0
 1227 06c2 584B     		ldr	r3, .L74+24
 1228 06c4 0293     		str	r3, [sp, #8]
 1229 06c6 0194     		str	r4, [sp, #4]
 1230 06c8 0095     		str	r5, [sp]
 1231 06ca 3223     		movs	r3, #50
 1232 06cc 4622     		movs	r2, #70
 1233 06ce 5521     		movs	r1, #85
 1234 06d0 2820     		movs	r0, #40
 1235 06d2 FFF7FEFF 		bl	draw_button
 1236              	.LVL111:
ARM GAS  C:\Users\JACOB-~1\AppData\Local\Temp\cchboK4P.s 			page 29


 336:uifunctions.c ****                 draw_button(130,85,70,50,WHITE,BLACK,"2");
 1237              		.loc 1 336 0
 1238 06d6 544B     		ldr	r3, .L74+28
 1239 06d8 0293     		str	r3, [sp, #8]
 1240 06da 0194     		str	r4, [sp, #4]
 1241 06dc 0095     		str	r5, [sp]
 1242 06de 3223     		movs	r3, #50
 1243 06e0 4622     		movs	r2, #70
 1244 06e2 5521     		movs	r1, #85
 1245 06e4 8220     		movs	r0, #130
 1246 06e6 FFF7FEFF 		bl	draw_button
 1247              	.LVL112:
 337:uifunctions.c ****                 draw_button(85,155,70,50,WHITE,BLACK,"NO COOLDOWN");
 1248              		.loc 1 337 0
 1249 06ea 504B     		ldr	r3, .L74+32
 1250 06ec 0293     		str	r3, [sp, #8]
 1251 06ee 0194     		str	r4, [sp, #4]
 1252 06f0 0095     		str	r5, [sp]
 1253 06f2 3223     		movs	r3, #50
 1254 06f4 4622     		movs	r2, #70
 1255 06f6 9B21     		movs	r1, #155
 1256 06f8 5520     		movs	r0, #85
 1257 06fa FFF7FEFF 		bl	draw_button
 1258              	.LVL113:
 1259              	.LBE32:
 331:uifunctions.c ****                 cooldown_time = 5;
 1260              		.loc 1 331 0
 1261 06fe CEE1     		b	.L1
 1262              	.LVL114:
 1263              	.L54:
 338:uifunctions.c ****             }
 339:uifunctions.c ****             else if(x>=130 && x<=200 && y>=15 && y<=65)      //button 10
 1264              		.loc 1 339 0
 1265 0700 A4F18202 		sub	r2, r4, #130
 1266 0704 92B2     		uxth	r2, r2
 1267 0706 462A     		cmp	r2, #70
 1268 0708 3ED8     		bhi	.L55
 1269              		.loc 1 339 0 is_stmt 0 discriminator 1
 1270 070a 0E2D     		cmp	r5, #14
 1271 070c 3CD9     		bls	.L55
 1272              		.loc 1 339 0 discriminator 2
 1273 070e 412D     		cmp	r5, #65
 1274 0710 3AD8     		bhi	.L55
 1275              	.LBB33:
 340:uifunctions.c ****             {
 341:uifunctions.c ****                 cooldown_time = 10;
 1276              		.loc 1 341 0 is_stmt 1
 1277 0712 0A22     		movs	r2, #10
 1278 0714 404B     		ldr	r3, .L74+12
 1279 0716 DA60     		str	r2, [r3, #12]
 342:uifunctions.c ****                 draw_button(40,15,70,50,WHITE,BLACK,"5");
 1280              		.loc 1 342 0
 1281 0718 404B     		ldr	r3, .L74+16
 1282 071a 0293     		str	r3, [sp, #8]
 1283 071c 0024     		movs	r4, #0
 1284 071e 0194     		str	r4, [sp, #4]
 1285 0720 4FF6FF75 		movw	r5, #65535
ARM GAS  C:\Users\JACOB-~1\AppData\Local\Temp\cchboK4P.s 			page 30


 1286 0724 0095     		str	r5, [sp]
 1287 0726 3223     		movs	r3, #50
 1288 0728 4622     		movs	r2, #70
 1289 072a 0F21     		movs	r1, #15
 1290              	.LVL115:
 1291 072c 2820     		movs	r0, #40
 1292              	.LVL116:
 1293 072e FFF7FEFF 		bl	draw_button
 1294              	.LVL117:
 343:uifunctions.c ****                 draw_button(130,15,70,50,LIGHTBLUE,BLACK,"10");
 1295              		.loc 1 343 0
 1296 0732 3B4B     		ldr	r3, .L74+20
 1297 0734 0293     		str	r3, [sp, #8]
 1298 0736 0194     		str	r4, [sp, #4]
 1299 0738 49F69F63 		movw	r3, #40607
 1300 073c 0093     		str	r3, [sp]
 1301 073e 3223     		movs	r3, #50
 1302 0740 4622     		movs	r2, #70
 1303 0742 0F21     		movs	r1, #15
 1304 0744 8220     		movs	r0, #130
 1305 0746 FFF7FEFF 		bl	draw_button
 1306              	.LVL118:
 344:uifunctions.c ****                 draw_button(40,85,70,50,WHITE,BLACK,"1");
 1307              		.loc 1 344 0
 1308 074a 364B     		ldr	r3, .L74+24
 1309 074c 0293     		str	r3, [sp, #8]
 1310 074e 0194     		str	r4, [sp, #4]
 1311 0750 0095     		str	r5, [sp]
 1312 0752 3223     		movs	r3, #50
 1313 0754 4622     		movs	r2, #70
 1314 0756 5521     		movs	r1, #85
 1315 0758 2820     		movs	r0, #40
 1316 075a FFF7FEFF 		bl	draw_button
 1317              	.LVL119:
 345:uifunctions.c ****                 draw_button(130,85,70,50,WHITE,BLACK,"2");
 1318              		.loc 1 345 0
 1319 075e 324B     		ldr	r3, .L74+28
 1320 0760 0293     		str	r3, [sp, #8]
 1321 0762 0194     		str	r4, [sp, #4]
 1322 0764 0095     		str	r5, [sp]
 1323 0766 3223     		movs	r3, #50
 1324 0768 4622     		movs	r2, #70
 1325 076a 5521     		movs	r1, #85
 1326 076c 8220     		movs	r0, #130
 1327 076e FFF7FEFF 		bl	draw_button
 1328              	.LVL120:
 346:uifunctions.c ****                 draw_button(85,155,70,50,WHITE,BLACK,"NO COOLDOWN");
 1329              		.loc 1 346 0
 1330 0772 2E4B     		ldr	r3, .L74+32
 1331 0774 0293     		str	r3, [sp, #8]
 1332 0776 0194     		str	r4, [sp, #4]
 1333 0778 0095     		str	r5, [sp]
 1334 077a 3223     		movs	r3, #50
 1335 077c 4622     		movs	r2, #70
 1336 077e 9B21     		movs	r1, #155
 1337 0780 5520     		movs	r0, #85
 1338 0782 FFF7FEFF 		bl	draw_button
ARM GAS  C:\Users\JACOB-~1\AppData\Local\Temp\cchboK4P.s 			page 31


 1339              	.LVL121:
 1340              	.LBE33:
 340:uifunctions.c ****                 cooldown_time = 10;
 1341              		.loc 1 340 0
 1342 0786 8AE1     		b	.L1
 1343              	.LVL122:
 1344              	.L55:
 347:uifunctions.c ****             }
 348:uifunctions.c ****             else if(x>=40 && x<=110 && y>=85 && y<=135)      //button 1
 1345              		.loc 1 348 0
 1346 0788 462B     		cmp	r3, #70
 1347 078a 51D8     		bhi	.L56
 1348              		.loc 1 348 0 is_stmt 0 discriminator 1
 1349 078c 542D     		cmp	r5, #84
 1350 078e 4FD9     		bls	.L56
 1351              		.loc 1 348 0 discriminator 2
 1352 0790 872D     		cmp	r5, #135
 1353 0792 4DD8     		bhi	.L56
 1354              	.LBB34:
 349:uifunctions.c ****             {
 350:uifunctions.c ****                 cooldown_time = 1;
 1355              		.loc 1 350 0 is_stmt 1
 1356 0794 0122     		movs	r2, #1
 1357 0796 204B     		ldr	r3, .L74+12
 1358 0798 DA60     		str	r2, [r3, #12]
 351:uifunctions.c ****                 draw_button(40,15,70,50,WHITE,BLACK,"5");
 1359              		.loc 1 351 0
 1360 079a 204B     		ldr	r3, .L74+16
 1361 079c 0293     		str	r3, [sp, #8]
 1362 079e 0024     		movs	r4, #0
 1363 07a0 0194     		str	r4, [sp, #4]
 1364 07a2 4FF6FF75 		movw	r5, #65535
 1365 07a6 0095     		str	r5, [sp]
 1366 07a8 3223     		movs	r3, #50
 1367 07aa 4622     		movs	r2, #70
 1368 07ac 0F21     		movs	r1, #15
 1369              	.LVL123:
 1370 07ae 2820     		movs	r0, #40
 1371              	.LVL124:
 1372 07b0 FFF7FEFF 		bl	draw_button
 1373              	.LVL125:
 352:uifunctions.c ****                 draw_button(130,15,70,50,WHITE,BLACK,"10");
 1374              		.loc 1 352 0
 1375 07b4 1A4B     		ldr	r3, .L74+20
 1376 07b6 0293     		str	r3, [sp, #8]
 1377 07b8 0194     		str	r4, [sp, #4]
 1378 07ba 0095     		str	r5, [sp]
 1379 07bc 3223     		movs	r3, #50
 1380 07be 4622     		movs	r2, #70
 1381 07c0 0F21     		movs	r1, #15
 1382 07c2 8220     		movs	r0, #130
 1383 07c4 FFF7FEFF 		bl	draw_button
 1384              	.LVL126:
 353:uifunctions.c ****                 draw_button(40,85,70,50,LIGHTBLUE,BLACK,"1");
 1385              		.loc 1 353 0
 1386 07c8 164B     		ldr	r3, .L74+24
 1387 07ca 0293     		str	r3, [sp, #8]
ARM GAS  C:\Users\JACOB-~1\AppData\Local\Temp\cchboK4P.s 			page 32


 1388 07cc 0194     		str	r4, [sp, #4]
 1389 07ce 49F69F63 		movw	r3, #40607
 1390 07d2 0093     		str	r3, [sp]
 1391 07d4 3223     		movs	r3, #50
 1392 07d6 4622     		movs	r2, #70
 1393 07d8 5521     		movs	r1, #85
 1394 07da 2820     		movs	r0, #40
 1395 07dc FFF7FEFF 		bl	draw_button
 1396              	.LVL127:
 354:uifunctions.c ****                 draw_button(130,85,70,50,WHITE,BLACK,"2");
 1397              		.loc 1 354 0
 1398 07e0 114B     		ldr	r3, .L74+28
 1399 07e2 0293     		str	r3, [sp, #8]
 1400 07e4 0194     		str	r4, [sp, #4]
 1401 07e6 0095     		str	r5, [sp]
 1402 07e8 3223     		movs	r3, #50
 1403 07ea 4622     		movs	r2, #70
 1404 07ec 5521     		movs	r1, #85
 1405 07ee 8220     		movs	r0, #130
 1406 07f0 FFF7FEFF 		bl	draw_button
 1407              	.LVL128:
 355:uifunctions.c ****                 draw_button(85,155,70,50,WHITE,BLACK,"NO COOLDOWN");
 1408              		.loc 1 355 0
 1409 07f4 0D4B     		ldr	r3, .L74+32
 1410 07f6 0293     		str	r3, [sp, #8]
 1411 07f8 0194     		str	r4, [sp, #4]
 1412 07fa 0095     		str	r5, [sp]
 1413 07fc 3223     		movs	r3, #50
 1414 07fe 4622     		movs	r2, #70
 1415 0800 9B21     		movs	r1, #155
 1416 0802 5520     		movs	r0, #85
 1417 0804 FFF7FEFF 		bl	draw_button
 1418              	.LVL129:
 1419              	.LBE34:
 349:uifunctions.c ****                 cooldown_time = 1;
 1420              		.loc 1 349 0
 1421 0808 49E1     		b	.L1
 1422              	.L75:
 1423 080a 00BF     		.align	2
 1424              	.L74:
 1425 080c 00000000 		.word	.LC0
 1426 0810 04000000 		.word	.LC1
 1427 0814 00000000 		.word	.LANCHOR1
 1428 0818 00000000 		.word	.LANCHOR0
 1429 081c 08000000 		.word	.LC2
 1430 0820 0C000000 		.word	.LC3
 1431 0824 10000000 		.word	.LC4
 1432 0828 14000000 		.word	.LC5
 1433 082c 18000000 		.word	.LC6
 1434              	.LVL130:
 1435              	.L56:
 356:uifunctions.c ****             }
 357:uifunctions.c ****             else if(x>=130 && x<=200 && y>=85 && y<=135)      //button 2
 1436              		.loc 1 357 0
 1437 0830 462A     		cmp	r2, #70
 1438 0832 3ED8     		bhi	.L57
 1439              		.loc 1 357 0 is_stmt 0 discriminator 1
ARM GAS  C:\Users\JACOB-~1\AppData\Local\Temp\cchboK4P.s 			page 33


 1440 0834 542D     		cmp	r5, #84
 1441 0836 3CD9     		bls	.L57
 1442              		.loc 1 357 0 discriminator 2
 1443 0838 872D     		cmp	r5, #135
 1444 083a 3AD8     		bhi	.L57
 1445              	.LBB35:
 358:uifunctions.c ****             {
 359:uifunctions.c ****                 cooldown_time = 2;
 1446              		.loc 1 359 0 is_stmt 1
 1447 083c 0222     		movs	r2, #2
 1448 083e 9C4B     		ldr	r3, .L76+8
 1449 0840 DA60     		str	r2, [r3, #12]
 360:uifunctions.c ****                 draw_button(40,15,70,50,WHITE,BLACK,"5");
 1450              		.loc 1 360 0
 1451 0842 9C4B     		ldr	r3, .L76+12
 1452 0844 0293     		str	r3, [sp, #8]
 1453 0846 0024     		movs	r4, #0
 1454 0848 0194     		str	r4, [sp, #4]
 1455 084a 4FF6FF75 		movw	r5, #65535
 1456 084e 0095     		str	r5, [sp]
 1457 0850 3223     		movs	r3, #50
 1458 0852 4622     		movs	r2, #70
 1459 0854 0F21     		movs	r1, #15
 1460              	.LVL131:
 1461 0856 2820     		movs	r0, #40
 1462              	.LVL132:
 1463 0858 FFF7FEFF 		bl	draw_button
 1464              	.LVL133:
 361:uifunctions.c ****                 draw_button(130,15,70,50,WHITE,BLACK,"10");
 1465              		.loc 1 361 0
 1466 085c 964B     		ldr	r3, .L76+16
 1467 085e 0293     		str	r3, [sp, #8]
 1468 0860 0194     		str	r4, [sp, #4]
 1469 0862 0095     		str	r5, [sp]
 1470 0864 3223     		movs	r3, #50
 1471 0866 4622     		movs	r2, #70
 1472 0868 0F21     		movs	r1, #15
 1473 086a 8220     		movs	r0, #130
 1474 086c FFF7FEFF 		bl	draw_button
 1475              	.LVL134:
 362:uifunctions.c ****                 draw_button(40,85,70,50,WHITE,BLACK,"1");
 1476              		.loc 1 362 0
 1477 0870 924B     		ldr	r3, .L76+20
 1478 0872 0293     		str	r3, [sp, #8]
 1479 0874 0194     		str	r4, [sp, #4]
 1480 0876 0095     		str	r5, [sp]
 1481 0878 3223     		movs	r3, #50
 1482 087a 4622     		movs	r2, #70
 1483 087c 5521     		movs	r1, #85
 1484 087e 2820     		movs	r0, #40
 1485 0880 FFF7FEFF 		bl	draw_button
 1486              	.LVL135:
 363:uifunctions.c ****                 draw_button(130,85,70,50,LIGHTBLUE,BLACK,"2");
 1487              		.loc 1 363 0
 1488 0884 8E4B     		ldr	r3, .L76+24
 1489 0886 0293     		str	r3, [sp, #8]
 1490 0888 0194     		str	r4, [sp, #4]
ARM GAS  C:\Users\JACOB-~1\AppData\Local\Temp\cchboK4P.s 			page 34


 1491 088a 49F69F63 		movw	r3, #40607
 1492 088e 0093     		str	r3, [sp]
 1493 0890 3223     		movs	r3, #50
 1494 0892 4622     		movs	r2, #70
 1495 0894 5521     		movs	r1, #85
 1496 0896 8220     		movs	r0, #130
 1497 0898 FFF7FEFF 		bl	draw_button
 1498              	.LVL136:
 364:uifunctions.c ****                 draw_button(85,155,70,50,WHITE,BLACK,"NO COOLDOWN");
 1499              		.loc 1 364 0
 1500 089c 894B     		ldr	r3, .L76+28
 1501 089e 0293     		str	r3, [sp, #8]
 1502 08a0 0194     		str	r4, [sp, #4]
 1503 08a2 0095     		str	r5, [sp]
 1504 08a4 3223     		movs	r3, #50
 1505 08a6 4622     		movs	r2, #70
 1506 08a8 9B21     		movs	r1, #155
 1507 08aa 5520     		movs	r0, #85
 1508 08ac FFF7FEFF 		bl	draw_button
 1509              	.LVL137:
 1510              	.LBE35:
 358:uifunctions.c ****                 cooldown_time = 2;
 1511              		.loc 1 358 0
 1512 08b0 F5E0     		b	.L1
 1513              	.LVL138:
 1514              	.L57:
 365:uifunctions.c ****             }
 366:uifunctions.c ****             else if(x>=85 && x<=155 && y>=155 && y<=205)      //button no cooldown
 1515              		.loc 1 366 0
 1516 08b2 553C     		subs	r4, r4, #85
 1517 08b4 A4B2     		uxth	r4, r4
 1518 08b6 462C     		cmp	r4, #70
 1519 08b8 00F2F180 		bhi	.L1
 1520              		.loc 1 366 0 is_stmt 0 discriminator 1
 1521 08bc 9A2D     		cmp	r5, #154
 1522 08be 40F2EE80 		bls	.L1
 1523              		.loc 1 366 0 discriminator 2
 1524 08c2 CD2D     		cmp	r5, #205
 1525 08c4 00F2EB80 		bhi	.L1
 1526              	.LBB36:
 367:uifunctions.c ****             {
 368:uifunctions.c ****                 cooldown_time = 0;
 1527              		.loc 1 368 0 is_stmt 1
 1528 08c8 0024     		movs	r4, #0
 1529 08ca 794B     		ldr	r3, .L76+8
 1530 08cc DC60     		str	r4, [r3, #12]
 369:uifunctions.c ****                 draw_button(40,15,70,50,WHITE,BLACK,"5");
 1531              		.loc 1 369 0
 1532 08ce 794B     		ldr	r3, .L76+12
 1533 08d0 0293     		str	r3, [sp, #8]
 1534 08d2 0194     		str	r4, [sp, #4]
 1535 08d4 4FF6FF75 		movw	r5, #65535
 1536 08d8 0095     		str	r5, [sp]
 1537 08da 3223     		movs	r3, #50
 1538 08dc 4622     		movs	r2, #70
 1539 08de 0F21     		movs	r1, #15
 1540              	.LVL139:
ARM GAS  C:\Users\JACOB-~1\AppData\Local\Temp\cchboK4P.s 			page 35


 1541 08e0 2820     		movs	r0, #40
 1542              	.LVL140:
 1543 08e2 FFF7FEFF 		bl	draw_button
 1544              	.LVL141:
 370:uifunctions.c ****                 draw_button(130,15,70,50,WHITE,BLACK,"10");
 1545              		.loc 1 370 0
 1546 08e6 744B     		ldr	r3, .L76+16
 1547 08e8 0293     		str	r3, [sp, #8]
 1548 08ea 0194     		str	r4, [sp, #4]
 1549 08ec 0095     		str	r5, [sp]
 1550 08ee 3223     		movs	r3, #50
 1551 08f0 4622     		movs	r2, #70
 1552 08f2 0F21     		movs	r1, #15
 1553 08f4 8220     		movs	r0, #130
 1554 08f6 FFF7FEFF 		bl	draw_button
 1555              	.LVL142:
 371:uifunctions.c ****                 draw_button(40,85,70,50,WHITE,BLACK,"1");
 1556              		.loc 1 371 0
 1557 08fa 704B     		ldr	r3, .L76+20
 1558 08fc 0293     		str	r3, [sp, #8]
 1559 08fe 0194     		str	r4, [sp, #4]
 1560 0900 0095     		str	r5, [sp]
 1561 0902 3223     		movs	r3, #50
 1562 0904 4622     		movs	r2, #70
 1563 0906 5521     		movs	r1, #85
 1564 0908 2820     		movs	r0, #40
 1565 090a FFF7FEFF 		bl	draw_button
 1566              	.LVL143:
 372:uifunctions.c ****                 draw_button(130,85,70,50,WHITE,BLACK,"2");
 1567              		.loc 1 372 0
 1568 090e 6C4B     		ldr	r3, .L76+24
 1569 0910 0293     		str	r3, [sp, #8]
 1570 0912 0194     		str	r4, [sp, #4]
 1571 0914 0095     		str	r5, [sp]
 1572 0916 3223     		movs	r3, #50
 1573 0918 4622     		movs	r2, #70
 1574 091a 5521     		movs	r1, #85
 1575 091c 8220     		movs	r0, #130
 1576 091e FFF7FEFF 		bl	draw_button
 1577              	.LVL144:
 373:uifunctions.c ****                 draw_button(85,155,70,50,LIGHTBLUE,BLACK,"NO COOLDOWN");
 1578              		.loc 1 373 0
 1579 0922 684B     		ldr	r3, .L76+28
 1580 0924 0293     		str	r3, [sp, #8]
 1581 0926 0194     		str	r4, [sp, #4]
 1582 0928 49F69F63 		movw	r3, #40607
 1583 092c 0093     		str	r3, [sp]
 1584 092e 3223     		movs	r3, #50
 1585 0930 4622     		movs	r2, #70
 1586 0932 9B21     		movs	r1, #155
 1587 0934 5520     		movs	r0, #85
 1588 0936 FFF7FEFF 		bl	draw_button
 1589              	.LVL145:
 1590 093a B0E0     		b	.L1
 1591              	.LVL146:
 1592              	.L14:
 1593              	.LBE36:
ARM GAS  C:\Users\JACOB-~1\AppData\Local\Temp\cchboK4P.s 			page 36


 374:uifunctions.c ****             }
 375:uifunctions.c ****             break;
 376:uifunctions.c ****         case OPTION_VDS_SCREEN :
 377:uifunctions.c ****             if(x>=241 && x<=319 && y>=0 && y<=239)         //return button
 1594              		.loc 1 377 0
 1595 093c A0F1F103 		sub	r3, r0, #241
 1596 0940 9BB2     		uxth	r3, r3
 1597 0942 4E2B     		cmp	r3, #78
 1598 0944 04D8     		bhi	.L58
 1599              		.loc 1 377 0 is_stmt 0 discriminator 1
 1600 0946 EF29     		cmp	r1, #239
 1601 0948 02D8     		bhi	.L58
 1602              	.LBB37:
 378:uifunctions.c ****             {
 379:uifunctions.c ****                 draw_more_options_screen();
 1603              		.loc 1 379 0 is_stmt 1
 1604 094a FFF7FEFF 		bl	draw_more_options_screen
 1605              	.LVL147:
 1606              	.LBE37:
 378:uifunctions.c ****             {
 1607              		.loc 1 378 0
 1608 094e 79E0     		b	.L59
 1609              	.LVL148:
 1610              	.L58:
 380:uifunctions.c ****             }
 381:uifunctions.c ****             else if(x>=130 && x<=200 && y>=30 && y<=100)    //decrease button                 
 1611              		.loc 1 381 0
 1612 0950 823C     		subs	r4, r4, #130
 1613 0952 A4B2     		uxth	r4, r4
 1614 0954 462C     		cmp	r4, #70
 1615 0956 26D8     		bhi	.L60
 1616              		.loc 1 381 0 is_stmt 0 discriminator 1
 1617 0958 1D2D     		cmp	r5, #29
 1618 095a 24D9     		bls	.L60
 1619              		.loc 1 381 0 discriminator 2
 1620 095c 642D     		cmp	r5, #100
 1621 095e 22D8     		bhi	.L60
 1622              	.LBB38:
 382:uifunctions.c ****             {
 383:uifunctions.c ****                 if(vds_high>3)
 1623              		.loc 1 383 0 is_stmt 1
 1624 0960 594B     		ldr	r3, .L76+32
 1625 0962 1B68     		ldr	r3, [r3]
 1626 0964 032B     		cmp	r3, #3
 1627 0966 03DD     		ble	.L61
 384:uifunctions.c ****                 {
 385:uifunctions.c ****                     vds_high--;
 1628              		.loc 1 385 0
 1629 0968 013B     		subs	r3, r3, #1
 1630 096a 574A     		ldr	r2, .L76+32
 1631 096c 1360     		str	r3, [r2]
 1632 096e 02E0     		b	.L62
 1633              	.L61:
 386:uifunctions.c ****                 }
 387:uifunctions.c ****                 else
 388:uifunctions.c ****                 {
 389:uifunctions.c ****                     vds_high = 3;
ARM GAS  C:\Users\JACOB-~1\AppData\Local\Temp\cchboK4P.s 			page 37


 1634              		.loc 1 389 0
 1635 0970 0322     		movs	r2, #3
 1636 0972 554B     		ldr	r3, .L76+32
 1637 0974 1A60     		str	r2, [r3]
 1638              	.L62:
 390:uifunctions.c ****                 }
 391:uifunctions.c ****                 fill_rect(40,95,60,30,BLACK);
 1639              		.loc 1 391 0
 1640 0976 0023     		movs	r3, #0
 1641 0978 0093     		str	r3, [sp]
 1642 097a 1E23     		movs	r3, #30
 1643 097c 3C22     		movs	r2, #60
 1644 097e 5F21     		movs	r1, #95
 1645              	.LVL149:
 1646 0980 2820     		movs	r0, #40
 1647              	.LVL150:
 1648 0982 FFF7FEFF 		bl	fill_rect
 1649              	.LVL151:
 392:uifunctions.c ****                 
 393:uifunctions.c ****                 char num_vds[2];
 394:uifunctions.c ****                 itoa(vds_high, num_vds, 10);
 1650              		.loc 1 394 0
 1651 0986 0A22     		movs	r2, #10
 1652 0988 05A9     		add	r1, sp, #20
 1653 098a 4F4B     		ldr	r3, .L76+32
 1654 098c 1868     		ldr	r0, [r3]
 1655 098e FFF7FEFF 		bl	itoa
 1656              	.LVL152:
 395:uifunctions.c ****                 
 396:uifunctions.c ****                 draw_string(50,105,WHITE,num_vds,3);
 1657              		.loc 1 396 0
 1658 0992 0323     		movs	r3, #3
 1659 0994 0093     		str	r3, [sp]
 1660 0996 05AB     		add	r3, sp, #20
 1661 0998 4FF6FF72 		movw	r2, #65535
 1662 099c 6921     		movs	r1, #105
 1663 099e 3220     		movs	r0, #50
 1664 09a0 FFF7FEFF 		bl	draw_string
 1665              	.LVL153:
 1666              	.LBE38:
 382:uifunctions.c ****                 if(vds_high>3)
 1667              		.loc 1 382 0
 1668 09a4 4EE0     		b	.L59
 1669              	.LVL154:
 1670              	.L60:
 397:uifunctions.c ****             }
 398:uifunctions.c ****             else if(x>=130 && x<=200 && y>=120 && y<=190)   //increase button
 1671              		.loc 1 398 0
 1672 09a6 462C     		cmp	r4, #70
 1673 09a8 4CD8     		bhi	.L59
 1674              		.loc 1 398 0 is_stmt 0 discriminator 1
 1675 09aa 772D     		cmp	r5, #119
 1676 09ac 4AD9     		bls	.L59
 1677              		.loc 1 398 0 discriminator 2
 1678 09ae BE2D     		cmp	r5, #190
 1679 09b0 48D8     		bhi	.L59
 399:uifunctions.c ****             {
ARM GAS  C:\Users\JACOB-~1\AppData\Local\Temp\cchboK4P.s 			page 38


 400:uifunctions.c ****                 if(device_selection < 2)
 1680              		.loc 1 400 0 is_stmt 1
 1681 09b2 454B     		ldr	r3, .L76+32
 1682 09b4 5B68     		ldr	r3, [r3, #4]
 1683 09b6 012B     		cmp	r3, #1
 1684 09b8 22DC     		bgt	.L63
 1685              	.LBB39:
 401:uifunctions.c ****                 {
 402:uifunctions.c ****                     if(vds_high<9)
 1686              		.loc 1 402 0
 1687 09ba 434B     		ldr	r3, .L76+32
 1688 09bc 1B68     		ldr	r3, [r3]
 1689 09be 082B     		cmp	r3, #8
 1690 09c0 03DC     		bgt	.L64
 403:uifunctions.c ****                     {
 404:uifunctions.c ****                         vds_high++;
 1691              		.loc 1 404 0
 1692 09c2 0133     		adds	r3, r3, #1
 1693 09c4 404A     		ldr	r2, .L76+32
 1694 09c6 1360     		str	r3, [r2]
 1695 09c8 02E0     		b	.L65
 1696              	.L64:
 405:uifunctions.c ****                     }
 406:uifunctions.c ****                     else
 407:uifunctions.c ****                     {
 408:uifunctions.c ****                         vds_high = 9;
 1697              		.loc 1 408 0
 1698 09ca 0922     		movs	r2, #9
 1699 09cc 3E4B     		ldr	r3, .L76+32
 1700 09ce 1A60     		str	r2, [r3]
 1701              	.L65:
 409:uifunctions.c ****                     }
 410:uifunctions.c ****                     fill_rect(40,95,60,30,BLACK);
 1702              		.loc 1 410 0
 1703 09d0 0023     		movs	r3, #0
 1704 09d2 0093     		str	r3, [sp]
 1705 09d4 1E23     		movs	r3, #30
 1706 09d6 3C22     		movs	r2, #60
 1707 09d8 5F21     		movs	r1, #95
 1708              	.LVL155:
 1709 09da 2820     		movs	r0, #40
 1710              	.LVL156:
 1711 09dc FFF7FEFF 		bl	fill_rect
 1712              	.LVL157:
 411:uifunctions.c ****                     
 412:uifunctions.c ****                     char num_vds[2];
 413:uifunctions.c ****                     itoa(vds_high, num_vds, 10);
 1713              		.loc 1 413 0
 1714 09e0 0A22     		movs	r2, #10
 1715 09e2 05A9     		add	r1, sp, #20
 1716 09e4 384B     		ldr	r3, .L76+32
 1717 09e6 1868     		ldr	r0, [r3]
 1718 09e8 FFF7FEFF 		bl	itoa
 1719              	.LVL158:
 414:uifunctions.c ****                     
 415:uifunctions.c ****                     draw_string(50,105,WHITE,num_vds,3);
 1720              		.loc 1 415 0
ARM GAS  C:\Users\JACOB-~1\AppData\Local\Temp\cchboK4P.s 			page 39


 1721 09ec 0323     		movs	r3, #3
 1722 09ee 0093     		str	r3, [sp]
 1723 09f0 05AB     		add	r3, sp, #20
 1724 09f2 4FF6FF72 		movw	r2, #65535
 1725 09f6 6921     		movs	r1, #105
 1726 09f8 3220     		movs	r0, #50
 1727 09fa FFF7FEFF 		bl	draw_string
 1728              	.LVL159:
 1729              	.LBE39:
 1730 09fe 21E0     		b	.L59
 1731              	.LVL160:
 1732              	.L63:
 1733              	.LBB40:
 416:uifunctions.c ****                 } else
 417:uifunctions.c ****                 {
 418:uifunctions.c ****                      if(vds_high<12)
 1734              		.loc 1 418 0
 1735 0a00 314B     		ldr	r3, .L76+32
 1736 0a02 1B68     		ldr	r3, [r3]
 1737 0a04 0B2B     		cmp	r3, #11
 1738 0a06 03DC     		bgt	.L66
 419:uifunctions.c ****                     {
 420:uifunctions.c ****                         vds_high++;
 1739              		.loc 1 420 0
 1740 0a08 0133     		adds	r3, r3, #1
 1741 0a0a 2F4A     		ldr	r2, .L76+32
 1742 0a0c 1360     		str	r3, [r2]
 1743 0a0e 02E0     		b	.L67
 1744              	.L66:
 421:uifunctions.c ****                     }
 422:uifunctions.c ****                     else
 423:uifunctions.c ****                     {
 424:uifunctions.c ****                         vds_high = 12;
 1745              		.loc 1 424 0
 1746 0a10 0C22     		movs	r2, #12
 1747 0a12 2D4B     		ldr	r3, .L76+32
 1748 0a14 1A60     		str	r2, [r3]
 1749              	.L67:
 425:uifunctions.c ****                     }
 426:uifunctions.c ****                     fill_rect(40,95,60,30,BLACK);
 1750              		.loc 1 426 0
 1751 0a16 0023     		movs	r3, #0
 1752 0a18 0093     		str	r3, [sp]
 1753 0a1a 1E23     		movs	r3, #30
 1754 0a1c 3C22     		movs	r2, #60
 1755 0a1e 5F21     		movs	r1, #95
 1756              	.LVL161:
 1757 0a20 2820     		movs	r0, #40
 1758              	.LVL162:
 1759 0a22 FFF7FEFF 		bl	fill_rect
 1760              	.LVL163:
 427:uifunctions.c ****                     
 428:uifunctions.c ****                     char num_vds[3];
 429:uifunctions.c ****                     itoa(vds_high, num_vds, 10);
 1761              		.loc 1 429 0
 1762 0a26 0A22     		movs	r2, #10
 1763 0a28 05A9     		add	r1, sp, #20
ARM GAS  C:\Users\JACOB-~1\AppData\Local\Temp\cchboK4P.s 			page 40


 1764 0a2a 274B     		ldr	r3, .L76+32
 1765 0a2c 1868     		ldr	r0, [r3]
 1766 0a2e FFF7FEFF 		bl	itoa
 1767              	.LVL164:
 430:uifunctions.c ****                     
 431:uifunctions.c ****                     draw_string(50,105,WHITE,num_vds,3);
 1768              		.loc 1 431 0
 1769 0a32 0323     		movs	r3, #3
 1770 0a34 0093     		str	r3, [sp]
 1771 0a36 05AB     		add	r3, sp, #20
 1772 0a38 4FF6FF72 		movw	r2, #65535
 1773 0a3c 6921     		movs	r1, #105
 1774 0a3e 3220     		movs	r0, #50
 1775 0a40 FFF7FEFF 		bl	draw_string
 1776              	.LVL165:
 1777              	.L59:
 1778              	.LBE40:
 432:uifunctions.c ****                 }
 433:uifunctions.c ****             }
 434:uifunctions.c ****             if(device_selection < 2)
 1779              		.loc 1 434 0
 1780 0a44 204B     		ldr	r3, .L76+32
 1781 0a46 5B68     		ldr	r3, [r3, #4]
 1782 0a48 012B     		cmp	r3, #1
 1783 0a4a 14DC     		bgt	.L68
 435:uifunctions.c ****             {
 436:uifunctions.c ****                 vds_high_vdac_code = (int) ((vds_high*256.0)/(4.096*3) + 0.5);
 1784              		.loc 1 436 0
 1785 0a4c 1E4C     		ldr	r4, .L76+32
 1786 0a4e 2068     		ldr	r0, [r4]
 1787 0a50 FFF7FEFF 		bl	__aeabi_i2d
 1788              	.LVL166:
 1789 0a54 0022     		movs	r2, #0
 1790 0a56 1D4B     		ldr	r3, .L76+36
 1791 0a58 FFF7FEFF 		bl	__aeabi_dmul
 1792              	.LVL167:
 1793 0a5c 12A3     		adr	r3, .L76
 1794 0a5e D3E90023 		ldrd	r2, [r3]
 1795 0a62 FFF7FEFF 		bl	__aeabi_ddiv
 1796              	.LVL168:
 1797 0a66 0022     		movs	r2, #0
 1798 0a68 194B     		ldr	r3, .L76+40
 1799 0a6a FFF7FEFF 		bl	__aeabi_dadd
 1800              	.LVL169:
 1801 0a6e FFF7FEFF 		bl	__aeabi_d2iz
 1802              	.LVL170:
 1803 0a72 A060     		str	r0, [r4, #8]
 1804 0a74 13E0     		b	.L1
 1805              	.L68:
 437:uifunctions.c ****             } else
 438:uifunctions.c ****             {
 439:uifunctions.c ****                 vds_high_vdac_code = (int) ((vds_high*256.0)/(4.096*3) + 0.5);
 1806              		.loc 1 439 0
 1807 0a76 144C     		ldr	r4, .L76+32
 1808 0a78 2068     		ldr	r0, [r4]
 1809 0a7a FFF7FEFF 		bl	__aeabi_i2d
 1810              	.LVL171:
ARM GAS  C:\Users\JACOB-~1\AppData\Local\Temp\cchboK4P.s 			page 41


 1811 0a7e 0022     		movs	r2, #0
 1812 0a80 124B     		ldr	r3, .L76+36
 1813 0a82 FFF7FEFF 		bl	__aeabi_dmul
 1814              	.LVL172:
 1815 0a86 08A3     		adr	r3, .L76
 1816 0a88 D3E90023 		ldrd	r2, [r3]
 1817 0a8c FFF7FEFF 		bl	__aeabi_ddiv
 1818              	.LVL173:
 1819 0a90 0022     		movs	r2, #0
 1820 0a92 0F4B     		ldr	r3, .L76+40
 1821 0a94 FFF7FEFF 		bl	__aeabi_dadd
 1822              	.LVL174:
 1823 0a98 FFF7FEFF 		bl	__aeabi_d2iz
 1824              	.LVL175:
 1825 0a9c A060     		str	r0, [r4, #8]
 1826              	.L1:
 440:uifunctions.c ****             }
 441:uifunctions.c ****             break;
 442:uifunctions.c ****     }
 443:uifunctions.c **** }...
 1827              		.loc 1 443 0
 1828 0a9e 07B0     		add	sp, sp, #28
 1829              		.cfi_def_cfa_offset 12
 1830              		@ sp needed
 1831 0aa0 30BD     		pop	{r4, r5, pc}
 1832              	.L77:
 1833 0aa2 00BFAFF3 		.align	3
 1833      0080
 1834              	.L76:
 1835 0aa8 FA7E6ABC 		.word	-1133871366
 1836 0aac 74932840 		.word	1076401012
 1837 0ab0 00000000 		.word	.LANCHOR0
 1838 0ab4 08000000 		.word	.LC2
 1839 0ab8 0C000000 		.word	.LC3
 1840 0abc 10000000 		.word	.LC4
 1841 0ac0 14000000 		.word	.LC5
 1842 0ac4 18000000 		.word	.LC6
 1843 0ac8 00000000 		.word	.LANCHOR1
 1844 0acc 00007040 		.word	1081081856
 1845 0ad0 0000E03F 		.word	1071644672
 1846              		.cfi_endproc
 1847              	.LFE1:
 1848              		.size	ui_control, .-ui_control
 1849              		.global	vds_high_vdac_code
 1850              		.global	vds_high
 1851              		.global	cooldown_time
 1852              		.global	rand_num_2
 1853              		.global	rand_num_1
 1854              		.global	draw_grid
 1855              		.global	num_avg
 1856              		.global	write_sd
 1857              		.global	curve_nums
 1858              		.global	device_selection
 1859              		.global	screen_state
 1860              		.data
 1861              		.align	2
 1862              		.set	.LANCHOR1,. + 0
ARM GAS  C:\Users\JACOB-~1\AppData\Local\Temp\cchboK4P.s 			page 42


 1863              		.type	vds_high, %object
 1864              		.size	vds_high, 4
 1865              	vds_high:
 1866 0000 09000000 		.word	9
 1867              		.type	device_selection, %object
 1868              		.size	device_selection, 4
 1869              	device_selection:
 1870 0004 FFFFFFFF 		.word	-1
 1871              		.type	vds_high_vdac_code, %object
 1872              		.size	vds_high_vdac_code, 4
 1873              	vds_high_vdac_code:
 1874 0008 BC000000 		.word	188
 1875              		.type	num_avg, %object
 1876              		.size	num_avg, 4
 1877              	num_avg:
 1878 000c 0A000000 		.word	10
 1879              		.type	write_sd, %object
 1880              		.size	write_sd, 4
 1881              	write_sd:
 1882 0010 01000000 		.word	1
 1883              		.type	curve_nums, %object
 1884              		.size	curve_nums, 4
 1885              	curve_nums:
 1886 0014 04000000 		.word	4
 1887              		.type	draw_grid, %object
 1888              		.size	draw_grid, 4
 1889              	draw_grid:
 1890 0018 01000000 		.word	1
 1891              		.section	.rodata.str1.4,"aMS",%progbits,1
 1892              		.align	2
 1893              	.LC0:
 1894 0000 59455300 		.ascii	"YES\000"
 1895              	.LC1:
 1896 0004 4E4F00   		.ascii	"NO\000"
 1897 0007 00       		.space	1
 1898              	.LC2:
 1899 0008 3500     		.ascii	"5\000"
 1900 000a 0000     		.space	2
 1901              	.LC3:
 1902 000c 313000   		.ascii	"10\000"
 1903 000f 00       		.space	1
 1904              	.LC4:
 1905 0010 3100     		.ascii	"1\000"
 1906 0012 0000     		.space	2
 1907              	.LC5:
 1908 0014 3200     		.ascii	"2\000"
 1909 0016 0000     		.space	2
 1910              	.LC6:
 1911 0018 4E4F2043 		.ascii	"NO COOLDOWN\000"
 1911      4F4F4C44 
 1911      4F574E00 
 1912              		.bss
 1913              		.align	2
 1914              		.set	.LANCHOR0,. + 0
 1915              		.type	screen_state, %object
 1916              		.size	screen_state, 4
 1917              	screen_state:
ARM GAS  C:\Users\JACOB-~1\AppData\Local\Temp\cchboK4P.s 			page 43


 1918 0000 00000000 		.space	4
 1919              		.type	rand_num_1, %object
 1920              		.size	rand_num_1, 4
 1921              	rand_num_1:
 1922 0004 00000000 		.space	4
 1923              		.type	rand_num_2, %object
 1924              		.size	rand_num_2, 4
 1925              	rand_num_2:
 1926 0008 00000000 		.space	4
 1927              		.type	cooldown_time, %object
 1928              		.size	cooldown_time, 4
 1929              	cooldown_time:
 1930 000c 00000000 		.space	4
 1931              		.text
 1932              	.Letext0:
 1933              		.file 2 "c:\\program files (x86)\\cypress\\psoc creator\\4.2\\psoc creator\\import\\gnu\\arm\\5.4.
 1934              		.file 3 "c:\\program files (x86)\\cypress\\psoc creator\\4.2\\psoc creator\\import\\gnu\\arm\\5.4.
 1935              		.file 4 "font.h"
 1936              		.file 5 "c:\\program files (x86)\\cypress\\psoc creator\\4.2\\psoc creator\\import\\gnu\\arm\\5.4.
 1937              		.file 6 "Generated_Source\\PSoC5/emFile_1.h"
 1938              		.section	.debug_info,"",%progbits
 1939              	.Ldebug_info0:
 1940 0000 E71A0000 		.4byte	0x1ae7
 1941 0004 0400     		.2byte	0x4
 1942 0006 00000000 		.4byte	.Ldebug_abbrev0
 1943 000a 04       		.byte	0x4
 1944 000b 01       		.uleb128 0x1
 1945 000c D4030000 		.4byte	.LASF75
 1946 0010 0C       		.byte	0xc
 1947 0011 25000000 		.4byte	.LASF76
 1948 0015 00020000 		.4byte	.LASF77
 1949 0019 00000000 		.4byte	.Ldebug_ranges0+0
 1950 001d 00000000 		.4byte	0
 1951 0021 00000000 		.4byte	.Ldebug_line0
 1952 0025 02       		.uleb128 0x2
 1953 0026 01       		.byte	0x1
 1954 0027 06       		.byte	0x6
 1955 0028 8C010000 		.4byte	.LASF0
 1956 002c 03       		.uleb128 0x3
 1957 002d F4000000 		.4byte	.LASF3
 1958 0031 02       		.byte	0x2
 1959 0032 1D       		.byte	0x1d
 1960 0033 37000000 		.4byte	0x37
 1961 0037 02       		.uleb128 0x2
 1962 0038 01       		.byte	0x1
 1963 0039 08       		.byte	0x8
 1964 003a 4B010000 		.4byte	.LASF1
 1965 003e 02       		.uleb128 0x2
 1966 003f 02       		.byte	0x2
 1967 0040 05       		.byte	0x5
 1968 0041 44000000 		.4byte	.LASF2
 1969 0045 03       		.uleb128 0x3
 1970 0046 60000000 		.4byte	.LASF4
 1971 004a 02       		.byte	0x2
 1972 004b 2B       		.byte	0x2b
 1973 004c 50000000 		.4byte	0x50
 1974 0050 02       		.uleb128 0x2
ARM GAS  C:\Users\JACOB-~1\AppData\Local\Temp\cchboK4P.s 			page 44


 1975 0051 02       		.byte	0x2
 1976 0052 07       		.byte	0x7
 1977 0053 ED010000 		.4byte	.LASF5
 1978 0057 02       		.uleb128 0x2
 1979 0058 04       		.byte	0x4
 1980 0059 05       		.byte	0x5
 1981 005a D4000000 		.4byte	.LASF6
 1982 005e 02       		.uleb128 0x2
 1983 005f 04       		.byte	0x4
 1984 0060 07       		.byte	0x7
 1985 0061 D0010000 		.4byte	.LASF7
 1986 0065 02       		.uleb128 0x2
 1987 0066 08       		.byte	0x8
 1988 0067 05       		.byte	0x5
 1989 0068 C1000000 		.4byte	.LASF8
 1990 006c 02       		.uleb128 0x2
 1991 006d 08       		.byte	0x8
 1992 006e 07       		.byte	0x7
 1993 006f 98010000 		.4byte	.LASF9
 1994 0073 04       		.uleb128 0x4
 1995 0074 04       		.byte	0x4
 1996 0075 05       		.byte	0x5
 1997 0076 696E7400 		.ascii	"int\000"
 1998 007a 02       		.uleb128 0x2
 1999 007b 04       		.byte	0x4
 2000 007c 07       		.byte	0x7
 2001 007d BA010000 		.4byte	.LASF10
 2002 0081 03       		.uleb128 0x3
 2003 0082 7E000000 		.4byte	.LASF11
 2004 0086 03       		.byte	0x3
 2005 0087 18       		.byte	0x18
 2006 0088 2C000000 		.4byte	0x2c
 2007 008c 03       		.uleb128 0x3
 2008 008d C7010000 		.4byte	.LASF12
 2009 0091 03       		.byte	0x3
 2010 0092 24       		.byte	0x24
 2011 0093 45000000 		.4byte	0x45
 2012 0097 02       		.uleb128 0x2
 2013 0098 04       		.byte	0x4
 2014 0099 04       		.byte	0x4
 2015 009a A0000000 		.4byte	.LASF13
 2016 009e 02       		.uleb128 0x2
 2017 009f 08       		.byte	0x8
 2018 00a0 04       		.byte	0x4
 2019 00a1 13000000 		.4byte	.LASF14
 2020 00a5 02       		.uleb128 0x2
 2021 00a6 01       		.byte	0x1
 2022 00a7 08       		.byte	0x8
 2023 00a8 CF000000 		.4byte	.LASF15
 2024 00ac 02       		.uleb128 0x2
 2025 00ad 08       		.byte	0x8
 2026 00ae 04       		.byte	0x4
 2027 00af 3A010000 		.4byte	.LASF16
 2028 00b3 02       		.uleb128 0x2
 2029 00b4 04       		.byte	0x4
 2030 00b5 07       		.byte	0x7
 2031 00b6 4E000000 		.4byte	.LASF17
ARM GAS  C:\Users\JACOB-~1\AppData\Local\Temp\cchboK4P.s 			page 45


 2032 00ba 05       		.uleb128 0x5
 2033 00bb E2010000 		.4byte	.LASF78
 2034 00bf 01       		.byte	0x1
 2035 00c0 18       		.byte	0x18
 2036 00c1 00000000 		.4byte	.LFB1
 2037 00c5 D40A0000 		.4byte	.LFE1-.LFB1
 2038 00c9 01       		.uleb128 0x1
 2039 00ca 9C       		.byte	0x9c
 2040 00cb 3C140000 		.4byte	0x143c
 2041 00cf 06       		.uleb128 0x6
 2042 00d0 7800     		.ascii	"x\000"
 2043 00d2 01       		.byte	0x1
 2044 00d3 18       		.byte	0x18
 2045 00d4 8C000000 		.4byte	0x8c
 2046 00d8 00000000 		.4byte	.LLST0
 2047 00dc 06       		.uleb128 0x6
 2048 00dd 7900     		.ascii	"y\000"
 2049 00df 01       		.byte	0x1
 2050 00e0 18       		.byte	0x18
 2051 00e1 8C000000 		.4byte	0x8c
 2052 00e5 D7030000 		.4byte	.LLST1
 2053 00e9 07       		.uleb128 0x7
 2054 00ea 58000000 		.4byte	.LBB2
 2055 00ee 0E000000 		.4byte	.LBE2-.LBB2
 2056 00f2 11010000 		.4byte	0x111
 2057 00f6 08       		.uleb128 0x8
 2058 00f7 D0020000 		.4byte	.LASF18
 2059 00fb 01       		.byte	0x1
 2060 00fc 29       		.byte	0x29
 2061 00fd 73000000 		.4byte	0x73
 2062 0101 07010000 		.4byte	0x107
 2063 0105 09       		.uleb128 0x9
 2064 0106 00       		.byte	0
 2065 0107 0A       		.uleb128 0xa
 2066 0108 66000000 		.4byte	.LVL1
 2067 010c 421A0000 		.4byte	0x1a42
 2068 0110 00       		.byte	0
 2069 0111 07       		.uleb128 0x7
 2070 0112 74000000 		.4byte	.LBB3
 2071 0116 0E000000 		.4byte	.LBE3-.LBB3
 2072 011a 39010000 		.4byte	0x139
 2073 011e 08       		.uleb128 0x8
 2074 011f D0020000 		.4byte	.LASF18
 2075 0123 01       		.byte	0x1
 2076 0124 29       		.byte	0x29
 2077 0125 73000000 		.4byte	0x73
 2078 0129 2F010000 		.4byte	0x12f
 2079 012d 09       		.uleb128 0x9
 2080 012e 00       		.byte	0
 2081 012f 0A       		.uleb128 0xa
 2082 0130 82000000 		.4byte	.LVL3
 2083 0134 421A0000 		.4byte	0x1a42
 2084 0138 00       		.byte	0
 2085 0139 07       		.uleb128 0x7
 2086 013a 96000000 		.4byte	.LBB4
 2087 013e 0E000000 		.4byte	.LBE4-.LBB4
 2088 0142 61010000 		.4byte	0x161
ARM GAS  C:\Users\JACOB-~1\AppData\Local\Temp\cchboK4P.s 			page 46


 2089 0146 08       		.uleb128 0x8
 2090 0147 D0020000 		.4byte	.LASF18
 2091 014b 01       		.byte	0x1
 2092 014c 29       		.byte	0x29
 2093 014d 73000000 		.4byte	0x73
 2094 0151 57010000 		.4byte	0x157
 2095 0155 09       		.uleb128 0x9
 2096 0156 00       		.byte	0
 2097 0157 0A       		.uleb128 0xa
 2098 0158 A4000000 		.4byte	.LVL5
 2099 015c 421A0000 		.4byte	0x1a42
 2100 0160 00       		.byte	0
 2101 0161 07       		.uleb128 0x7
 2102 0162 B2000000 		.4byte	.LBB5
 2103 0166 0E000000 		.4byte	.LBE5-.LBB5
 2104 016a 89010000 		.4byte	0x189
 2105 016e 08       		.uleb128 0x8
 2106 016f D0020000 		.4byte	.LASF18
 2107 0173 01       		.byte	0x1
 2108 0174 29       		.byte	0x29
 2109 0175 73000000 		.4byte	0x73
 2110 0179 7F010000 		.4byte	0x17f
 2111 017d 09       		.uleb128 0x9
 2112 017e 00       		.byte	0
 2113 017f 0A       		.uleb128 0xa
 2114 0180 C0000000 		.4byte	.LVL7
 2115 0184 421A0000 		.4byte	0x1a42
 2116 0188 00       		.byte	0
 2117 0189 07       		.uleb128 0x7
 2118 018a EA000000 		.4byte	.LBB6
 2119 018e 04000000 		.4byte	.LBE6-.LBB6
 2120 0192 B1010000 		.4byte	0x1b1
 2121 0196 08       		.uleb128 0x8
 2122 0197 79020000 		.4byte	.LASF19
 2123 019b 01       		.byte	0x1
 2124 019c 50       		.byte	0x50
 2125 019d 73000000 		.4byte	0x73
 2126 01a1 A7010000 		.4byte	0x1a7
 2127 01a5 09       		.uleb128 0x9
 2128 01a6 00       		.byte	0
 2129 01a7 0A       		.uleb128 0xa
 2130 01a8 EE000000 		.4byte	.LVL9
 2131 01ac 4D1A0000 		.4byte	0x1a4d
 2132 01b0 00       		.byte	0
 2133 01b1 07       		.uleb128 0x7
 2134 01b2 FE000000 		.4byte	.LBB7
 2135 01b6 04000000 		.4byte	.LBE7-.LBB7
 2136 01ba D9010000 		.4byte	0x1d9
 2137 01be 08       		.uleb128 0x8
 2138 01bf DD000000 		.4byte	.LASF20
 2139 01c3 01       		.byte	0x1
 2140 01c4 54       		.byte	0x54
 2141 01c5 73000000 		.4byte	0x73
 2142 01c9 CF010000 		.4byte	0x1cf
 2143 01cd 09       		.uleb128 0x9
 2144 01ce 00       		.byte	0
 2145 01cf 0A       		.uleb128 0xa
ARM GAS  C:\Users\JACOB-~1\AppData\Local\Temp\cchboK4P.s 			page 47


 2146 01d0 02010000 		.4byte	.LVL11
 2147 01d4 581A0000 		.4byte	0x1a58
 2148 01d8 00       		.byte	0
 2149 01d9 07       		.uleb128 0x7
 2150 01da 14010000 		.4byte	.LBB8
 2151 01de 04000000 		.4byte	.LBE8-.LBB8
 2152 01e2 01020000 		.4byte	0x201
 2153 01e6 08       		.uleb128 0x8
 2154 01e7 6C040000 		.4byte	.LASF21
 2155 01eb 01       		.byte	0x1
 2156 01ec 58       		.byte	0x58
 2157 01ed 73000000 		.4byte	0x73
 2158 01f1 F7010000 		.4byte	0x1f7
 2159 01f5 09       		.uleb128 0x9
 2160 01f6 00       		.byte	0
 2161 01f7 0A       		.uleb128 0xa
 2162 01f8 18010000 		.4byte	.LVL13
 2163 01fc 631A0000 		.4byte	0x1a63
 2164 0200 00       		.byte	0
 2165 0201 07       		.uleb128 0x7
 2166 0202 28010000 		.4byte	.LBB9
 2167 0206 04000000 		.4byte	.LBE9-.LBB9
 2168 020a 29020000 		.4byte	0x229
 2169 020e 08       		.uleb128 0x8
 2170 020f A6000000 		.4byte	.LASF22
 2171 0213 01       		.byte	0x1
 2172 0214 5C       		.byte	0x5c
 2173 0215 73000000 		.4byte	0x73
 2174 0219 1F020000 		.4byte	0x21f
 2175 021d 09       		.uleb128 0x9
 2176 021e 00       		.byte	0
 2177 021f 0A       		.uleb128 0xa
 2178 0220 2C010000 		.4byte	.LVL15
 2179 0224 6E1A0000 		.4byte	0x1a6e
 2180 0228 00       		.byte	0
 2181 0229 07       		.uleb128 0x7
 2182 022a 3C010000 		.4byte	.LBB10
 2183 022e 04000000 		.4byte	.LBE10-.LBB10
 2184 0232 51020000 		.4byte	0x251
 2185 0236 08       		.uleb128 0x8
 2186 0237 0A010000 		.4byte	.LASF23
 2187 023b 01       		.byte	0x1
 2188 023c 60       		.byte	0x60
 2189 023d 73000000 		.4byte	0x73
 2190 0241 47020000 		.4byte	0x247
 2191 0245 09       		.uleb128 0x9
 2192 0246 00       		.byte	0
 2193 0247 0A       		.uleb128 0xa
 2194 0248 40010000 		.4byte	.LVL17
 2195 024c 791A0000 		.4byte	0x1a79
 2196 0250 00       		.byte	0
 2197 0251 07       		.uleb128 0x7
 2198 0252 B2010000 		.4byte	.LBB11
 2199 0256 04000000 		.4byte	.LBE11-.LBB11
 2200 025a 79020000 		.4byte	0x279
 2201 025e 08       		.uleb128 0x8
 2202 025f D0020000 		.4byte	.LASF18
ARM GAS  C:\Users\JACOB-~1\AppData\Local\Temp\cchboK4P.s 			page 48


 2203 0263 01       		.byte	0x1
 2204 0264 29       		.byte	0x29
 2205 0265 73000000 		.4byte	0x73
 2206 0269 6F020000 		.4byte	0x26f
 2207 026d 09       		.uleb128 0x9
 2208 026e 00       		.byte	0
 2209 026f 0A       		.uleb128 0xa
 2210 0270 B6010000 		.4byte	.LVL19
 2211 0274 421A0000 		.4byte	0x1a42
 2212 0278 00       		.byte	0
 2213 0279 07       		.uleb128 0x7
 2214 027a CC010000 		.4byte	.LBB12
 2215 027e 44000000 		.4byte	.LBE12-.LBB12
 2216 0282 22030000 		.4byte	0x322
 2217 0286 08       		.uleb128 0x8
 2218 0287 63030000 		.4byte	.LASF24
 2219 028b 01       		.byte	0x1
 2220 028c 7F       		.byte	0x7f
 2221 028d 73000000 		.4byte	0x73
 2222 0291 97020000 		.4byte	0x297
 2223 0295 09       		.uleb128 0x9
 2224 0296 00       		.byte	0
 2225 0297 0B       		.uleb128 0xb
 2226 0298 00000000 		.4byte	.LASF26
 2227 029c 01       		.byte	0x1
 2228 029d 81       		.byte	0x81
 2229 029e 3C140000 		.4byte	0x143c
 2230 02a2 02       		.uleb128 0x2
 2231 02a3 91       		.byte	0x91
 2232 02a4 6C       		.sleb128 -20
 2233 02a5 08       		.uleb128 0x8
 2234 02a6 FE000000 		.4byte	.LASF25
 2235 02aa 01       		.byte	0x1
 2236 02ab 84       		.byte	0x84
 2237 02ac 73000000 		.4byte	0x73
 2238 02b0 B6020000 		.4byte	0x2b6
 2239 02b4 09       		.uleb128 0x9
 2240 02b5 00       		.byte	0
 2241 02b6 0C       		.uleb128 0xc
 2242 02b7 F2010000 		.4byte	.LVL23
 2243 02bb 841A0000 		.4byte	0x1a84
 2244 02bf E0020000 		.4byte	0x2e0
 2245 02c3 0D       		.uleb128 0xd
 2246 02c4 01       		.uleb128 0x1
 2247 02c5 50       		.byte	0x50
 2248 02c6 01       		.uleb128 0x1
 2249 02c7 3A       		.byte	0x3a
 2250 02c8 0D       		.uleb128 0xd
 2251 02c9 01       		.uleb128 0x1
 2252 02ca 51       		.byte	0x51
 2253 02cb 02       		.uleb128 0x2
 2254 02cc 08       		.byte	0x8
 2255 02cd 5F       		.byte	0x5f
 2256 02ce 0D       		.uleb128 0xd
 2257 02cf 01       		.uleb128 0x1
 2258 02d0 52       		.byte	0x52
 2259 02d1 02       		.uleb128 0x2
ARM GAS  C:\Users\JACOB-~1\AppData\Local\Temp\cchboK4P.s 			page 49


 2260 02d2 08       		.byte	0x8
 2261 02d3 3C       		.byte	0x3c
 2262 02d4 0D       		.uleb128 0xd
 2263 02d5 01       		.uleb128 0x1
 2264 02d6 53       		.byte	0x53
 2265 02d7 01       		.uleb128 0x1
 2266 02d8 4E       		.byte	0x4e
 2267 02d9 0D       		.uleb128 0xd
 2268 02da 02       		.uleb128 0x2
 2269 02db 7D       		.byte	0x7d
 2270 02dc 00       		.sleb128 0
 2271 02dd 01       		.uleb128 0x1
 2272 02de 30       		.byte	0x30
 2273 02df 00       		.byte	0
 2274 02e0 0C       		.uleb128 0xc
 2275 02e1 FE010000 		.4byte	.LVL24
 2276 02e5 8F1A0000 		.4byte	0x1a8f
 2277 02e9 F9020000 		.4byte	0x2f9
 2278 02ed 0D       		.uleb128 0xd
 2279 02ee 01       		.uleb128 0x1
 2280 02ef 51       		.byte	0x51
 2281 02f0 02       		.uleb128 0x2
 2282 02f1 91       		.byte	0x91
 2283 02f2 6C       		.sleb128 -20
 2284 02f3 0D       		.uleb128 0xd
 2285 02f4 01       		.uleb128 0x1
 2286 02f5 52       		.byte	0x52
 2287 02f6 01       		.uleb128 0x1
 2288 02f7 3A       		.byte	0x3a
 2289 02f8 00       		.byte	0
 2290 02f9 0E       		.uleb128 0xe
 2291 02fa 10020000 		.4byte	.LVL25
 2292 02fe 9A1A0000 		.4byte	0x1a9a
 2293 0302 0D       		.uleb128 0xd
 2294 0303 01       		.uleb128 0x1
 2295 0304 50       		.byte	0x50
 2296 0305 01       		.uleb128 0x1
 2297 0306 44       		.byte	0x44
 2298 0307 0D       		.uleb128 0xd
 2299 0308 01       		.uleb128 0x1
 2300 0309 51       		.byte	0x51
 2301 030a 02       		.uleb128 0x2
 2302 030b 08       		.byte	0x8
 2303 030c 69       		.byte	0x69
 2304 030d 0D       		.uleb128 0xd
 2305 030e 01       		.uleb128 0x1
 2306 030f 52       		.byte	0x52
 2307 0310 03       		.uleb128 0x3
 2308 0311 0A       		.byte	0xa
 2309 0312 FFFF     		.2byte	0xffff
 2310 0314 0D       		.uleb128 0xd
 2311 0315 01       		.uleb128 0x1
 2312 0316 53       		.byte	0x53
 2313 0317 02       		.uleb128 0x2
 2314 0318 91       		.byte	0x91
 2315 0319 6C       		.sleb128 -20
 2316 031a 0D       		.uleb128 0xd
ARM GAS  C:\Users\JACOB-~1\AppData\Local\Temp\cchboK4P.s 			page 50


 2317 031b 02       		.uleb128 0x2
 2318 031c 7D       		.byte	0x7d
 2319 031d 00       		.sleb128 0
 2320 031e 01       		.uleb128 0x1
 2321 031f 32       		.byte	0x32
 2322 0320 00       		.byte	0
 2323 0321 00       		.byte	0
 2324 0322 07       		.uleb128 0x7
 2325 0323 20020000 		.4byte	.LBB13
 2326 0327 44000000 		.4byte	.LBE13-.LBB13
 2327 032b CB030000 		.4byte	0x3cb
 2328 032f 08       		.uleb128 0x8
 2329 0330 63030000 		.4byte	.LASF24
 2330 0334 01       		.byte	0x1
 2331 0335 7F       		.byte	0x7f
 2332 0336 73000000 		.4byte	0x73
 2333 033a 40030000 		.4byte	0x340
 2334 033e 09       		.uleb128 0x9
 2335 033f 00       		.byte	0
 2336 0340 0B       		.uleb128 0xb
 2337 0341 00000000 		.4byte	.LASF26
 2338 0345 01       		.byte	0x1
 2339 0346 8F       		.byte	0x8f
 2340 0347 3C140000 		.4byte	0x143c
 2341 034b 02       		.uleb128 0x2
 2342 034c 91       		.byte	0x91
 2343 034d 6C       		.sleb128 -20
 2344 034e 08       		.uleb128 0x8
 2345 034f FE000000 		.4byte	.LASF25
 2346 0353 01       		.byte	0x1
 2347 0354 84       		.byte	0x84
 2348 0355 73000000 		.4byte	0x73
 2349 0359 5F030000 		.4byte	0x35f
 2350 035d 09       		.uleb128 0x9
 2351 035e 00       		.byte	0
 2352 035f 0C       		.uleb128 0xc
 2353 0360 46020000 		.4byte	.LVL29
 2354 0364 841A0000 		.4byte	0x1a84
 2355 0368 89030000 		.4byte	0x389
 2356 036c 0D       		.uleb128 0xd
 2357 036d 01       		.uleb128 0x1
 2358 036e 50       		.byte	0x50
 2359 036f 01       		.uleb128 0x1
 2360 0370 3A       		.byte	0x3a
 2361 0371 0D       		.uleb128 0xd
 2362 0372 01       		.uleb128 0x1
 2363 0373 51       		.byte	0x51
 2364 0374 02       		.uleb128 0x2
 2365 0375 08       		.byte	0x8
 2366 0376 5F       		.byte	0x5f
 2367 0377 0D       		.uleb128 0xd
 2368 0378 01       		.uleb128 0x1
 2369 0379 52       		.byte	0x52
 2370 037a 02       		.uleb128 0x2
 2371 037b 08       		.byte	0x8
 2372 037c 3C       		.byte	0x3c
 2373 037d 0D       		.uleb128 0xd
ARM GAS  C:\Users\JACOB-~1\AppData\Local\Temp\cchboK4P.s 			page 51


 2374 037e 01       		.uleb128 0x1
 2375 037f 53       		.byte	0x53
 2376 0380 01       		.uleb128 0x1
 2377 0381 4E       		.byte	0x4e
 2378 0382 0D       		.uleb128 0xd
 2379 0383 02       		.uleb128 0x2
 2380 0384 7D       		.byte	0x7d
 2381 0385 00       		.sleb128 0
 2382 0386 01       		.uleb128 0x1
 2383 0387 30       		.byte	0x30
 2384 0388 00       		.byte	0
 2385 0389 0C       		.uleb128 0xc
 2386 038a 52020000 		.4byte	.LVL30
 2387 038e 8F1A0000 		.4byte	0x1a8f
 2388 0392 A2030000 		.4byte	0x3a2
 2389 0396 0D       		.uleb128 0xd
 2390 0397 01       		.uleb128 0x1
 2391 0398 51       		.byte	0x51
 2392 0399 02       		.uleb128 0x2
 2393 039a 91       		.byte	0x91
 2394 039b 6C       		.sleb128 -20
 2395 039c 0D       		.uleb128 0xd
 2396 039d 01       		.uleb128 0x1
 2397 039e 52       		.byte	0x52
 2398 039f 01       		.uleb128 0x1
 2399 03a0 3A       		.byte	0x3a
 2400 03a1 00       		.byte	0
 2401 03a2 0E       		.uleb128 0xe
 2402 03a3 64020000 		.4byte	.LVL31
 2403 03a7 9A1A0000 		.4byte	0x1a9a
 2404 03ab 0D       		.uleb128 0xd
 2405 03ac 01       		.uleb128 0x1
 2406 03ad 50       		.byte	0x50
 2407 03ae 01       		.uleb128 0x1
 2408 03af 44       		.byte	0x44
 2409 03b0 0D       		.uleb128 0xd
 2410 03b1 01       		.uleb128 0x1
 2411 03b2 51       		.byte	0x51
 2412 03b3 02       		.uleb128 0x2
 2413 03b4 08       		.byte	0x8
 2414 03b5 69       		.byte	0x69
 2415 03b6 0D       		.uleb128 0xd
 2416 03b7 01       		.uleb128 0x1
 2417 03b8 52       		.byte	0x52
 2418 03b9 03       		.uleb128 0x3
 2419 03ba 0A       		.byte	0xa
 2420 03bb FFFF     		.2byte	0xffff
 2421 03bd 0D       		.uleb128 0xd
 2422 03be 01       		.uleb128 0x1
 2423 03bf 53       		.byte	0x53
 2424 03c0 02       		.uleb128 0x2
 2425 03c1 91       		.byte	0x91
 2426 03c2 6C       		.sleb128 -20
 2427 03c3 0D       		.uleb128 0xd
 2428 03c4 02       		.uleb128 0x2
 2429 03c5 7D       		.byte	0x7d
 2430 03c6 00       		.sleb128 0
ARM GAS  C:\Users\JACOB-~1\AppData\Local\Temp\cchboK4P.s 			page 52


 2431 03c7 01       		.uleb128 0x1
 2432 03c8 32       		.byte	0x32
 2433 03c9 00       		.byte	0
 2434 03ca 00       		.byte	0
 2435 03cb 07       		.uleb128 0x7
 2436 03cc 74020000 		.4byte	.LBB14
 2437 03d0 44000000 		.4byte	.LBE14-.LBB14
 2438 03d4 74040000 		.4byte	0x474
 2439 03d8 08       		.uleb128 0x8
 2440 03d9 63030000 		.4byte	.LASF24
 2441 03dd 01       		.byte	0x1
 2442 03de 7F       		.byte	0x7f
 2443 03df 73000000 		.4byte	0x73
 2444 03e3 E9030000 		.4byte	0x3e9
 2445 03e7 09       		.uleb128 0x9
 2446 03e8 00       		.byte	0
 2447 03e9 0B       		.uleb128 0xb
 2448 03ea 00000000 		.4byte	.LASF26
 2449 03ee 01       		.byte	0x1
 2450 03ef 9D       		.byte	0x9d
 2451 03f0 3C140000 		.4byte	0x143c
 2452 03f4 02       		.uleb128 0x2
 2453 03f5 91       		.byte	0x91
 2454 03f6 6C       		.sleb128 -20
 2455 03f7 08       		.uleb128 0x8
 2456 03f8 FE000000 		.4byte	.LASF25
 2457 03fc 01       		.byte	0x1
 2458 03fd 84       		.byte	0x84
 2459 03fe 73000000 		.4byte	0x73
 2460 0402 08040000 		.4byte	0x408
 2461 0406 09       		.uleb128 0x9
 2462 0407 00       		.byte	0
 2463 0408 0C       		.uleb128 0xc
 2464 0409 9A020000 		.4byte	.LVL35
 2465 040d 841A0000 		.4byte	0x1a84
 2466 0411 32040000 		.4byte	0x432
 2467 0415 0D       		.uleb128 0xd
 2468 0416 01       		.uleb128 0x1
 2469 0417 50       		.byte	0x50
 2470 0418 01       		.uleb128 0x1
 2471 0419 3A       		.byte	0x3a
 2472 041a 0D       		.uleb128 0xd
 2473 041b 01       		.uleb128 0x1
 2474 041c 51       		.byte	0x51
 2475 041d 02       		.uleb128 0x2
 2476 041e 08       		.byte	0x8
 2477 041f 5F       		.byte	0x5f
 2478 0420 0D       		.uleb128 0xd
 2479 0421 01       		.uleb128 0x1
 2480 0422 52       		.byte	0x52
 2481 0423 02       		.uleb128 0x2
 2482 0424 08       		.byte	0x8
 2483 0425 3C       		.byte	0x3c
 2484 0426 0D       		.uleb128 0xd
 2485 0427 01       		.uleb128 0x1
 2486 0428 53       		.byte	0x53
 2487 0429 01       		.uleb128 0x1
ARM GAS  C:\Users\JACOB-~1\AppData\Local\Temp\cchboK4P.s 			page 53


 2488 042a 4E       		.byte	0x4e
 2489 042b 0D       		.uleb128 0xd
 2490 042c 02       		.uleb128 0x2
 2491 042d 7D       		.byte	0x7d
 2492 042e 00       		.sleb128 0
 2493 042f 01       		.uleb128 0x1
 2494 0430 30       		.byte	0x30
 2495 0431 00       		.byte	0
 2496 0432 0C       		.uleb128 0xc
 2497 0433 A6020000 		.4byte	.LVL36
 2498 0437 8F1A0000 		.4byte	0x1a8f
 2499 043b 4B040000 		.4byte	0x44b
 2500 043f 0D       		.uleb128 0xd
 2501 0440 01       		.uleb128 0x1
 2502 0441 51       		.byte	0x51
 2503 0442 02       		.uleb128 0x2
 2504 0443 91       		.byte	0x91
 2505 0444 6C       		.sleb128 -20
 2506 0445 0D       		.uleb128 0xd
 2507 0446 01       		.uleb128 0x1
 2508 0447 52       		.byte	0x52
 2509 0448 01       		.uleb128 0x1
 2510 0449 3A       		.byte	0x3a
 2511 044a 00       		.byte	0
 2512 044b 0E       		.uleb128 0xe
 2513 044c B8020000 		.4byte	.LVL37
 2514 0450 9A1A0000 		.4byte	0x1a9a
 2515 0454 0D       		.uleb128 0xd
 2516 0455 01       		.uleb128 0x1
 2517 0456 50       		.byte	0x50
 2518 0457 01       		.uleb128 0x1
 2519 0458 44       		.byte	0x44
 2520 0459 0D       		.uleb128 0xd
 2521 045a 01       		.uleb128 0x1
 2522 045b 51       		.byte	0x51
 2523 045c 02       		.uleb128 0x2
 2524 045d 08       		.byte	0x8
 2525 045e 69       		.byte	0x69
 2526 045f 0D       		.uleb128 0xd
 2527 0460 01       		.uleb128 0x1
 2528 0461 52       		.byte	0x52
 2529 0462 03       		.uleb128 0x3
 2530 0463 0A       		.byte	0xa
 2531 0464 FFFF     		.2byte	0xffff
 2532 0466 0D       		.uleb128 0xd
 2533 0467 01       		.uleb128 0x1
 2534 0468 53       		.byte	0x53
 2535 0469 02       		.uleb128 0x2
 2536 046a 91       		.byte	0x91
 2537 046b 6C       		.sleb128 -20
 2538 046c 0D       		.uleb128 0xd
 2539 046d 02       		.uleb128 0x2
 2540 046e 7D       		.byte	0x7d
 2541 046f 00       		.sleb128 0
 2542 0470 01       		.uleb128 0x1
 2543 0471 32       		.byte	0x32
 2544 0472 00       		.byte	0
ARM GAS  C:\Users\JACOB-~1\AppData\Local\Temp\cchboK4P.s 			page 54


 2545 0473 00       		.byte	0
 2546 0474 07       		.uleb128 0x7
 2547 0475 D4020000 		.4byte	.LBB15
 2548 0479 40000000 		.4byte	.LBE15-.LBB15
 2549 047d 1D050000 		.4byte	0x51d
 2550 0481 08       		.uleb128 0x8
 2551 0482 63030000 		.4byte	.LASF24
 2552 0486 01       		.byte	0x1
 2553 0487 7F       		.byte	0x7f
 2554 0488 73000000 		.4byte	0x73
 2555 048c 92040000 		.4byte	0x492
 2556 0490 09       		.uleb128 0x9
 2557 0491 00       		.byte	0
 2558 0492 0B       		.uleb128 0xb
 2559 0493 00000000 		.4byte	.LASF26
 2560 0497 01       		.byte	0x1
 2561 0498 AB       		.byte	0xab
 2562 0499 3C140000 		.4byte	0x143c
 2563 049d 02       		.uleb128 0x2
 2564 049e 91       		.byte	0x91
 2565 049f 6C       		.sleb128 -20
 2566 04a0 08       		.uleb128 0x8
 2567 04a1 FE000000 		.4byte	.LASF25
 2568 04a5 01       		.byte	0x1
 2569 04a6 84       		.byte	0x84
 2570 04a7 73000000 		.4byte	0x73
 2571 04ab B1040000 		.4byte	0x4b1
 2572 04af 09       		.uleb128 0x9
 2573 04b0 00       		.byte	0
 2574 04b1 0C       		.uleb128 0xc
 2575 04b2 F6020000 		.4byte	.LVL41
 2576 04b6 841A0000 		.4byte	0x1a84
 2577 04ba DB040000 		.4byte	0x4db
 2578 04be 0D       		.uleb128 0xd
 2579 04bf 01       		.uleb128 0x1
 2580 04c0 50       		.byte	0x50
 2581 04c1 01       		.uleb128 0x1
 2582 04c2 3A       		.byte	0x3a
 2583 04c3 0D       		.uleb128 0xd
 2584 04c4 01       		.uleb128 0x1
 2585 04c5 51       		.byte	0x51
 2586 04c6 02       		.uleb128 0x2
 2587 04c7 08       		.byte	0x8
 2588 04c8 5F       		.byte	0x5f
 2589 04c9 0D       		.uleb128 0xd
 2590 04ca 01       		.uleb128 0x1
 2591 04cb 52       		.byte	0x52
 2592 04cc 02       		.uleb128 0x2
 2593 04cd 08       		.byte	0x8
 2594 04ce 3C       		.byte	0x3c
 2595 04cf 0D       		.uleb128 0xd
 2596 04d0 01       		.uleb128 0x1
 2597 04d1 53       		.byte	0x53
 2598 04d2 01       		.uleb128 0x1
 2599 04d3 4E       		.byte	0x4e
 2600 04d4 0D       		.uleb128 0xd
 2601 04d5 02       		.uleb128 0x2
ARM GAS  C:\Users\JACOB-~1\AppData\Local\Temp\cchboK4P.s 			page 55


 2602 04d6 7D       		.byte	0x7d
 2603 04d7 00       		.sleb128 0
 2604 04d8 01       		.uleb128 0x1
 2605 04d9 30       		.byte	0x30
 2606 04da 00       		.byte	0
 2607 04db 0C       		.uleb128 0xc
 2608 04dc 02030000 		.4byte	.LVL42
 2609 04e0 8F1A0000 		.4byte	0x1a8f
 2610 04e4 F4040000 		.4byte	0x4f4
 2611 04e8 0D       		.uleb128 0xd
 2612 04e9 01       		.uleb128 0x1
 2613 04ea 51       		.byte	0x51
 2614 04eb 02       		.uleb128 0x2
 2615 04ec 91       		.byte	0x91
 2616 04ed 6C       		.sleb128 -20
 2617 04ee 0D       		.uleb128 0xd
 2618 04ef 01       		.uleb128 0x1
 2619 04f0 52       		.byte	0x52
 2620 04f1 01       		.uleb128 0x1
 2621 04f2 3A       		.byte	0x3a
 2622 04f3 00       		.byte	0
 2623 04f4 0E       		.uleb128 0xe
 2624 04f5 14030000 		.4byte	.LVL43
 2625 04f9 9A1A0000 		.4byte	0x1a9a
 2626 04fd 0D       		.uleb128 0xd
 2627 04fe 01       		.uleb128 0x1
 2628 04ff 50       		.byte	0x50
 2629 0500 01       		.uleb128 0x1
 2630 0501 44       		.byte	0x44
 2631 0502 0D       		.uleb128 0xd
 2632 0503 01       		.uleb128 0x1
 2633 0504 51       		.byte	0x51
 2634 0505 02       		.uleb128 0x2
 2635 0506 08       		.byte	0x8
 2636 0507 69       		.byte	0x69
 2637 0508 0D       		.uleb128 0xd
 2638 0509 01       		.uleb128 0x1
 2639 050a 52       		.byte	0x52
 2640 050b 03       		.uleb128 0x3
 2641 050c 0A       		.byte	0xa
 2642 050d FFFF     		.2byte	0xffff
 2643 050f 0D       		.uleb128 0xd
 2644 0510 01       		.uleb128 0x1
 2645 0511 53       		.byte	0x53
 2646 0512 02       		.uleb128 0x2
 2647 0513 91       		.byte	0x91
 2648 0514 6C       		.sleb128 -20
 2649 0515 0D       		.uleb128 0xd
 2650 0516 02       		.uleb128 0x2
 2651 0517 7D       		.byte	0x7d
 2652 0518 00       		.sleb128 0
 2653 0519 01       		.uleb128 0x1
 2654 051a 32       		.byte	0x32
 2655 051b 00       		.byte	0
 2656 051c 00       		.byte	0
 2657 051d 07       		.uleb128 0x7
 2658 051e 22030000 		.4byte	.LBB16
ARM GAS  C:\Users\JACOB-~1\AppData\Local\Temp\cchboK4P.s 			page 56


 2659 0522 40000000 		.4byte	.LBE16-.LBB16
 2660 0526 C6050000 		.4byte	0x5c6
 2661 052a 08       		.uleb128 0x8
 2662 052b 63030000 		.4byte	.LASF24
 2663 052f 01       		.byte	0x1
 2664 0530 7F       		.byte	0x7f
 2665 0531 73000000 		.4byte	0x73
 2666 0535 3B050000 		.4byte	0x53b
 2667 0539 09       		.uleb128 0x9
 2668 053a 00       		.byte	0
 2669 053b 0B       		.uleb128 0xb
 2670 053c 00000000 		.4byte	.LASF26
 2671 0540 01       		.byte	0x1
 2672 0541 B9       		.byte	0xb9
 2673 0542 3C140000 		.4byte	0x143c
 2674 0546 02       		.uleb128 0x2
 2675 0547 91       		.byte	0x91
 2676 0548 6C       		.sleb128 -20
 2677 0549 08       		.uleb128 0x8
 2678 054a FE000000 		.4byte	.LASF25
 2679 054e 01       		.byte	0x1
 2680 054f 84       		.byte	0x84
 2681 0550 73000000 		.4byte	0x73
 2682 0554 5A050000 		.4byte	0x55a
 2683 0558 09       		.uleb128 0x9
 2684 0559 00       		.byte	0
 2685 055a 0C       		.uleb128 0xc
 2686 055b 44030000 		.4byte	.LVL47
 2687 055f 841A0000 		.4byte	0x1a84
 2688 0563 84050000 		.4byte	0x584
 2689 0567 0D       		.uleb128 0xd
 2690 0568 01       		.uleb128 0x1
 2691 0569 50       		.byte	0x50
 2692 056a 01       		.uleb128 0x1
 2693 056b 3A       		.byte	0x3a
 2694 056c 0D       		.uleb128 0xd
 2695 056d 01       		.uleb128 0x1
 2696 056e 51       		.byte	0x51
 2697 056f 02       		.uleb128 0x2
 2698 0570 08       		.byte	0x8
 2699 0571 5F       		.byte	0x5f
 2700 0572 0D       		.uleb128 0xd
 2701 0573 01       		.uleb128 0x1
 2702 0574 52       		.byte	0x52
 2703 0575 02       		.uleb128 0x2
 2704 0576 08       		.byte	0x8
 2705 0577 3C       		.byte	0x3c
 2706 0578 0D       		.uleb128 0xd
 2707 0579 01       		.uleb128 0x1
 2708 057a 53       		.byte	0x53
 2709 057b 01       		.uleb128 0x1
 2710 057c 4E       		.byte	0x4e
 2711 057d 0D       		.uleb128 0xd
 2712 057e 02       		.uleb128 0x2
 2713 057f 7D       		.byte	0x7d
 2714 0580 00       		.sleb128 0
 2715 0581 01       		.uleb128 0x1
ARM GAS  C:\Users\JACOB-~1\AppData\Local\Temp\cchboK4P.s 			page 57


 2716 0582 30       		.byte	0x30
 2717 0583 00       		.byte	0
 2718 0584 0C       		.uleb128 0xc
 2719 0585 50030000 		.4byte	.LVL48
 2720 0589 8F1A0000 		.4byte	0x1a8f
 2721 058d 9D050000 		.4byte	0x59d
 2722 0591 0D       		.uleb128 0xd
 2723 0592 01       		.uleb128 0x1
 2724 0593 51       		.byte	0x51
 2725 0594 02       		.uleb128 0x2
 2726 0595 91       		.byte	0x91
 2727 0596 6C       		.sleb128 -20
 2728 0597 0D       		.uleb128 0xd
 2729 0598 01       		.uleb128 0x1
 2730 0599 52       		.byte	0x52
 2731 059a 01       		.uleb128 0x1
 2732 059b 3A       		.byte	0x3a
 2733 059c 00       		.byte	0
 2734 059d 0E       		.uleb128 0xe
 2735 059e 62030000 		.4byte	.LVL49
 2736 05a2 9A1A0000 		.4byte	0x1a9a
 2737 05a6 0D       		.uleb128 0xd
 2738 05a7 01       		.uleb128 0x1
 2739 05a8 50       		.byte	0x50
 2740 05a9 01       		.uleb128 0x1
 2741 05aa 44       		.byte	0x44
 2742 05ab 0D       		.uleb128 0xd
 2743 05ac 01       		.uleb128 0x1
 2744 05ad 51       		.byte	0x51
 2745 05ae 02       		.uleb128 0x2
 2746 05af 08       		.byte	0x8
 2747 05b0 69       		.byte	0x69
 2748 05b1 0D       		.uleb128 0xd
 2749 05b2 01       		.uleb128 0x1
 2750 05b3 52       		.byte	0x52
 2751 05b4 03       		.uleb128 0x3
 2752 05b5 0A       		.byte	0xa
 2753 05b6 FFFF     		.2byte	0xffff
 2754 05b8 0D       		.uleb128 0xd
 2755 05b9 01       		.uleb128 0x1
 2756 05ba 53       		.byte	0x53
 2757 05bb 02       		.uleb128 0x2
 2758 05bc 91       		.byte	0x91
 2759 05bd 6C       		.sleb128 -20
 2760 05be 0D       		.uleb128 0xd
 2761 05bf 02       		.uleb128 0x2
 2762 05c0 7D       		.byte	0x7d
 2763 05c1 00       		.sleb128 0
 2764 05c2 01       		.uleb128 0x1
 2765 05c3 32       		.byte	0x32
 2766 05c4 00       		.byte	0
 2767 05c5 00       		.byte	0
 2768 05c6 07       		.uleb128 0x7
 2769 05c7 76030000 		.4byte	.LBB17
 2770 05cb 42000000 		.4byte	.LBE17-.LBB17
 2771 05cf 6F060000 		.4byte	0x66f
 2772 05d3 08       		.uleb128 0x8
ARM GAS  C:\Users\JACOB-~1\AppData\Local\Temp\cchboK4P.s 			page 58


 2773 05d4 63030000 		.4byte	.LASF24
 2774 05d8 01       		.byte	0x1
 2775 05d9 7F       		.byte	0x7f
 2776 05da 73000000 		.4byte	0x73
 2777 05de E4050000 		.4byte	0x5e4
 2778 05e2 09       		.uleb128 0x9
 2779 05e3 00       		.byte	0
 2780 05e4 0B       		.uleb128 0xb
 2781 05e5 00000000 		.4byte	.LASF26
 2782 05e9 01       		.byte	0x1
 2783 05ea C7       		.byte	0xc7
 2784 05eb 3C140000 		.4byte	0x143c
 2785 05ef 02       		.uleb128 0x2
 2786 05f0 91       		.byte	0x91
 2787 05f1 6C       		.sleb128 -20
 2788 05f2 08       		.uleb128 0x8
 2789 05f3 FE000000 		.4byte	.LASF25
 2790 05f7 01       		.byte	0x1
 2791 05f8 84       		.byte	0x84
 2792 05f9 73000000 		.4byte	0x73
 2793 05fd 03060000 		.4byte	0x603
 2794 0601 09       		.uleb128 0x9
 2795 0602 00       		.byte	0
 2796 0603 0C       		.uleb128 0xc
 2797 0604 98030000 		.4byte	.LVL53
 2798 0608 841A0000 		.4byte	0x1a84
 2799 060c 2D060000 		.4byte	0x62d
 2800 0610 0D       		.uleb128 0xd
 2801 0611 01       		.uleb128 0x1
 2802 0612 50       		.byte	0x50
 2803 0613 01       		.uleb128 0x1
 2804 0614 3A       		.byte	0x3a
 2805 0615 0D       		.uleb128 0xd
 2806 0616 01       		.uleb128 0x1
 2807 0617 51       		.byte	0x51
 2808 0618 02       		.uleb128 0x2
 2809 0619 08       		.byte	0x8
 2810 061a 5F       		.byte	0x5f
 2811 061b 0D       		.uleb128 0xd
 2812 061c 01       		.uleb128 0x1
 2813 061d 52       		.byte	0x52
 2814 061e 02       		.uleb128 0x2
 2815 061f 08       		.byte	0x8
 2816 0620 3C       		.byte	0x3c
 2817 0621 0D       		.uleb128 0xd
 2818 0622 01       		.uleb128 0x1
 2819 0623 53       		.byte	0x53
 2820 0624 01       		.uleb128 0x1
 2821 0625 4E       		.byte	0x4e
 2822 0626 0D       		.uleb128 0xd
 2823 0627 02       		.uleb128 0x2
 2824 0628 7D       		.byte	0x7d
 2825 0629 00       		.sleb128 0
 2826 062a 01       		.uleb128 0x1
 2827 062b 30       		.byte	0x30
 2828 062c 00       		.byte	0
 2829 062d 0C       		.uleb128 0xc
ARM GAS  C:\Users\JACOB-~1\AppData\Local\Temp\cchboK4P.s 			page 59


 2830 062e A4030000 		.4byte	.LVL54
 2831 0632 8F1A0000 		.4byte	0x1a8f
 2832 0636 46060000 		.4byte	0x646
 2833 063a 0D       		.uleb128 0xd
 2834 063b 01       		.uleb128 0x1
 2835 063c 51       		.byte	0x51
 2836 063d 02       		.uleb128 0x2
 2837 063e 91       		.byte	0x91
 2838 063f 6C       		.sleb128 -20
 2839 0640 0D       		.uleb128 0xd
 2840 0641 01       		.uleb128 0x1
 2841 0642 52       		.byte	0x52
 2842 0643 01       		.uleb128 0x1
 2843 0644 3A       		.byte	0x3a
 2844 0645 00       		.byte	0
 2845 0646 0E       		.uleb128 0xe
 2846 0647 B6030000 		.4byte	.LVL55
 2847 064b 9A1A0000 		.4byte	0x1a9a
 2848 064f 0D       		.uleb128 0xd
 2849 0650 01       		.uleb128 0x1
 2850 0651 50       		.byte	0x50
 2851 0652 01       		.uleb128 0x1
 2852 0653 44       		.byte	0x44
 2853 0654 0D       		.uleb128 0xd
 2854 0655 01       		.uleb128 0x1
 2855 0656 51       		.byte	0x51
 2856 0657 02       		.uleb128 0x2
 2857 0658 08       		.byte	0x8
 2858 0659 69       		.byte	0x69
 2859 065a 0D       		.uleb128 0xd
 2860 065b 01       		.uleb128 0x1
 2861 065c 52       		.byte	0x52
 2862 065d 03       		.uleb128 0x3
 2863 065e 0A       		.byte	0xa
 2864 065f FFFF     		.2byte	0xffff
 2865 0661 0D       		.uleb128 0xd
 2866 0662 01       		.uleb128 0x1
 2867 0663 53       		.byte	0x53
 2868 0664 02       		.uleb128 0x2
 2869 0665 91       		.byte	0x91
 2870 0666 6C       		.sleb128 -20
 2871 0667 0D       		.uleb128 0xd
 2872 0668 02       		.uleb128 0x2
 2873 0669 7D       		.byte	0x7d
 2874 066a 00       		.sleb128 0
 2875 066b 01       		.uleb128 0x1
 2876 066c 32       		.byte	0x32
 2877 066d 00       		.byte	0
 2878 066e 00       		.byte	0
 2879 066f 07       		.uleb128 0x7
 2880 0670 C6030000 		.4byte	.LBB18
 2881 0674 04000000 		.4byte	.LBE18-.LBB18
 2882 0678 97060000 		.4byte	0x697
 2883 067c 08       		.uleb128 0x8
 2884 067d D0020000 		.4byte	.LASF18
 2885 0681 01       		.byte	0x1
 2886 0682 29       		.byte	0x29
ARM GAS  C:\Users\JACOB-~1\AppData\Local\Temp\cchboK4P.s 			page 60


 2887 0683 73000000 		.4byte	0x73
 2888 0687 8D060000 		.4byte	0x68d
 2889 068b 09       		.uleb128 0x9
 2890 068c 00       		.byte	0
 2891 068d 0A       		.uleb128 0xa
 2892 068e CA030000 		.4byte	.LVL57
 2893 0692 421A0000 		.4byte	0x1a42
 2894 0696 00       		.byte	0
 2895 0697 07       		.uleb128 0x7
 2896 0698 DE030000 		.4byte	.LBB19
 2897 069c 3C000000 		.4byte	.LBE19-.LBB19
 2898 06a0 3C070000 		.4byte	0x73c
 2899 06a4 08       		.uleb128 0x8
 2900 06a5 86000000 		.4byte	.LASF27
 2901 06a9 01       		.byte	0x1
 2902 06aa D4       		.byte	0xd4
 2903 06ab 73000000 		.4byte	0x73
 2904 06af B5060000 		.4byte	0x6b5
 2905 06b3 09       		.uleb128 0x9
 2906 06b4 00       		.byte	0
 2907 06b5 0C       		.uleb128 0xc
 2908 06b6 F8030000 		.4byte	.LVL61
 2909 06ba A51A0000 		.4byte	0x1aa5
 2910 06be F3060000 		.4byte	0x6f3
 2911 06c2 0D       		.uleb128 0xd
 2912 06c3 01       		.uleb128 0x1
 2913 06c4 50       		.byte	0x50
 2914 06c5 01       		.uleb128 0x1
 2915 06c6 4E       		.byte	0x4e
 2916 06c7 0D       		.uleb128 0xd
 2917 06c8 01       		.uleb128 0x1
 2918 06c9 51       		.byte	0x51
 2919 06ca 02       		.uleb128 0x2
 2920 06cb 08       		.byte	0x8
 2921 06cc 64       		.byte	0x64
 2922 06cd 0D       		.uleb128 0xd
 2923 06ce 01       		.uleb128 0x1
 2924 06cf 52       		.byte	0x52
 2925 06d0 02       		.uleb128 0x2
 2926 06d1 08       		.byte	0x8
 2927 06d2 50       		.byte	0x50
 2928 06d3 0D       		.uleb128 0xd
 2929 06d4 01       		.uleb128 0x1
 2930 06d5 53       		.byte	0x53
 2931 06d6 02       		.uleb128 0x2
 2932 06d7 08       		.byte	0x8
 2933 06d8 32       		.byte	0x32
 2934 06d9 0D       		.uleb128 0xd
 2935 06da 02       		.uleb128 0x2
 2936 06db 7D       		.byte	0x7d
 2937 06dc 00       		.sleb128 0
 2938 06dd 03       		.uleb128 0x3
 2939 06de 0A       		.byte	0xa
 2940 06df 9F9E     		.2byte	0x9e9f
 2941 06e1 0D       		.uleb128 0xd
 2942 06e2 02       		.uleb128 0x2
 2943 06e3 7D       		.byte	0x7d
ARM GAS  C:\Users\JACOB-~1\AppData\Local\Temp\cchboK4P.s 			page 61


 2944 06e4 04       		.sleb128 4
 2945 06e5 02       		.uleb128 0x2
 2946 06e6 74       		.byte	0x74
 2947 06e7 00       		.sleb128 0
 2948 06e8 0D       		.uleb128 0xd
 2949 06e9 02       		.uleb128 0x2
 2950 06ea 7D       		.byte	0x7d
 2951 06eb 08       		.sleb128 8
 2952 06ec 05       		.uleb128 0x5
 2953 06ed 03       		.byte	0x3
 2954 06ee 00000000 		.4byte	.LC0
 2955 06f2 00       		.byte	0
 2956 06f3 0C       		.uleb128 0xc
 2957 06f4 10040000 		.4byte	.LVL62
 2958 06f8 A51A0000 		.4byte	0x1aa5
 2959 06fc 32070000 		.4byte	0x732
 2960 0700 0D       		.uleb128 0xd
 2961 0701 01       		.uleb128 0x1
 2962 0702 50       		.byte	0x50
 2963 0703 02       		.uleb128 0x2
 2964 0704 08       		.byte	0x8
 2965 0705 82       		.byte	0x82
 2966 0706 0D       		.uleb128 0xd
 2967 0707 01       		.uleb128 0x1
 2968 0708 51       		.byte	0x51
 2969 0709 02       		.uleb128 0x2
 2970 070a 08       		.byte	0x8
 2971 070b 64       		.byte	0x64
 2972 070c 0D       		.uleb128 0xd
 2973 070d 01       		.uleb128 0x1
 2974 070e 52       		.byte	0x52
 2975 070f 02       		.uleb128 0x2
 2976 0710 08       		.byte	0x8
 2977 0711 50       		.byte	0x50
 2978 0712 0D       		.uleb128 0xd
 2979 0713 01       		.uleb128 0x1
 2980 0714 53       		.byte	0x53
 2981 0715 02       		.uleb128 0x2
 2982 0716 08       		.byte	0x8
 2983 0717 32       		.byte	0x32
 2984 0718 0D       		.uleb128 0xd
 2985 0719 02       		.uleb128 0x2
 2986 071a 7D       		.byte	0x7d
 2987 071b 00       		.sleb128 0
 2988 071c 03       		.uleb128 0x3
 2989 071d 0A       		.byte	0xa
 2990 071e FFFF     		.2byte	0xffff
 2991 0720 0D       		.uleb128 0xd
 2992 0721 02       		.uleb128 0x2
 2993 0722 7D       		.byte	0x7d
 2994 0723 04       		.sleb128 4
 2995 0724 02       		.uleb128 0x2
 2996 0725 74       		.byte	0x74
 2997 0726 00       		.sleb128 0
 2998 0727 0D       		.uleb128 0xd
 2999 0728 02       		.uleb128 0x2
 3000 0729 7D       		.byte	0x7d
ARM GAS  C:\Users\JACOB-~1\AppData\Local\Temp\cchboK4P.s 			page 62


 3001 072a 08       		.sleb128 8
 3002 072b 05       		.uleb128 0x5
 3003 072c 03       		.byte	0x3
 3004 072d 04000000 		.4byte	.LC1
 3005 0731 00       		.byte	0
 3006 0732 0A       		.uleb128 0xa
 3007 0733 1A040000 		.4byte	.LVL63
 3008 0737 B01A0000 		.4byte	0x1ab0
 3009 073b 00       		.byte	0
 3010 073c 07       		.uleb128 0x7
 3011 073d 32040000 		.4byte	.LBB20
 3012 0741 3C000000 		.4byte	.LBE20-.LBB20
 3013 0745 E1070000 		.4byte	0x7e1
 3014 0749 08       		.uleb128 0x8
 3015 074a 86000000 		.4byte	.LASF27
 3016 074e 01       		.byte	0x1
 3017 074f D4       		.byte	0xd4
 3018 0750 73000000 		.4byte	0x73
 3019 0754 5A070000 		.4byte	0x75a
 3020 0758 09       		.uleb128 0x9
 3021 0759 00       		.byte	0
 3022 075a 0C       		.uleb128 0xc
 3023 075b 4C040000 		.4byte	.LVL67
 3024 075f A51A0000 		.4byte	0x1aa5
 3025 0763 98070000 		.4byte	0x798
 3026 0767 0D       		.uleb128 0xd
 3027 0768 01       		.uleb128 0x1
 3028 0769 50       		.byte	0x50
 3029 076a 01       		.uleb128 0x1
 3030 076b 4E       		.byte	0x4e
 3031 076c 0D       		.uleb128 0xd
 3032 076d 01       		.uleb128 0x1
 3033 076e 51       		.byte	0x51
 3034 076f 02       		.uleb128 0x2
 3035 0770 08       		.byte	0x8
 3036 0771 64       		.byte	0x64
 3037 0772 0D       		.uleb128 0xd
 3038 0773 01       		.uleb128 0x1
 3039 0774 52       		.byte	0x52
 3040 0775 02       		.uleb128 0x2
 3041 0776 08       		.byte	0x8
 3042 0777 50       		.byte	0x50
 3043 0778 0D       		.uleb128 0xd
 3044 0779 01       		.uleb128 0x1
 3045 077a 53       		.byte	0x53
 3046 077b 02       		.uleb128 0x2
 3047 077c 08       		.byte	0x8
 3048 077d 32       		.byte	0x32
 3049 077e 0D       		.uleb128 0xd
 3050 077f 02       		.uleb128 0x2
 3051 0780 7D       		.byte	0x7d
 3052 0781 00       		.sleb128 0
 3053 0782 03       		.uleb128 0x3
 3054 0783 0A       		.byte	0xa
 3055 0784 FFFF     		.2byte	0xffff
 3056 0786 0D       		.uleb128 0xd
 3057 0787 02       		.uleb128 0x2
ARM GAS  C:\Users\JACOB-~1\AppData\Local\Temp\cchboK4P.s 			page 63


 3058 0788 7D       		.byte	0x7d
 3059 0789 04       		.sleb128 4
 3060 078a 02       		.uleb128 0x2
 3061 078b 74       		.byte	0x74
 3062 078c 00       		.sleb128 0
 3063 078d 0D       		.uleb128 0xd
 3064 078e 02       		.uleb128 0x2
 3065 078f 7D       		.byte	0x7d
 3066 0790 08       		.sleb128 8
 3067 0791 05       		.uleb128 0x5
 3068 0792 03       		.byte	0x3
 3069 0793 00000000 		.4byte	.LC0
 3070 0797 00       		.byte	0
 3071 0798 0C       		.uleb128 0xc
 3072 0799 64040000 		.4byte	.LVL68
 3073 079d A51A0000 		.4byte	0x1aa5
 3074 07a1 D7070000 		.4byte	0x7d7
 3075 07a5 0D       		.uleb128 0xd
 3076 07a6 01       		.uleb128 0x1
 3077 07a7 50       		.byte	0x50
 3078 07a8 02       		.uleb128 0x2
 3079 07a9 08       		.byte	0x8
 3080 07aa 82       		.byte	0x82
 3081 07ab 0D       		.uleb128 0xd
 3082 07ac 01       		.uleb128 0x1
 3083 07ad 51       		.byte	0x51
 3084 07ae 02       		.uleb128 0x2
 3085 07af 08       		.byte	0x8
 3086 07b0 64       		.byte	0x64
 3087 07b1 0D       		.uleb128 0xd
 3088 07b2 01       		.uleb128 0x1
 3089 07b3 52       		.byte	0x52
 3090 07b4 02       		.uleb128 0x2
 3091 07b5 08       		.byte	0x8
 3092 07b6 50       		.byte	0x50
 3093 07b7 0D       		.uleb128 0xd
 3094 07b8 01       		.uleb128 0x1
 3095 07b9 53       		.byte	0x53
 3096 07ba 02       		.uleb128 0x2
 3097 07bb 08       		.byte	0x8
 3098 07bc 32       		.byte	0x32
 3099 07bd 0D       		.uleb128 0xd
 3100 07be 02       		.uleb128 0x2
 3101 07bf 7D       		.byte	0x7d
 3102 07c0 00       		.sleb128 0
 3103 07c1 03       		.uleb128 0x3
 3104 07c2 0A       		.byte	0xa
 3105 07c3 9F9E     		.2byte	0x9e9f
 3106 07c5 0D       		.uleb128 0xd
 3107 07c6 02       		.uleb128 0x2
 3108 07c7 7D       		.byte	0x7d
 3109 07c8 04       		.sleb128 4
 3110 07c9 02       		.uleb128 0x2
 3111 07ca 74       		.byte	0x74
 3112 07cb 00       		.sleb128 0
 3113 07cc 0D       		.uleb128 0xd
 3114 07cd 02       		.uleb128 0x2
ARM GAS  C:\Users\JACOB-~1\AppData\Local\Temp\cchboK4P.s 			page 64


 3115 07ce 7D       		.byte	0x7d
 3116 07cf 08       		.sleb128 8
 3117 07d0 05       		.uleb128 0x5
 3118 07d1 03       		.byte	0x3
 3119 07d2 04000000 		.4byte	.LC1
 3120 07d6 00       		.byte	0
 3121 07d7 0A       		.uleb128 0xa
 3122 07d8 68040000 		.4byte	.LVL69
 3123 07dc BB1A0000 		.4byte	0x1abb
 3124 07e0 00       		.byte	0
 3125 07e1 07       		.uleb128 0x7
 3126 07e2 7C040000 		.4byte	.LBB21
 3127 07e6 04000000 		.4byte	.LBE21-.LBB21
 3128 07ea 09080000 		.4byte	0x809
 3129 07ee 08       		.uleb128 0x8
 3130 07ef D0020000 		.4byte	.LASF18
 3131 07f3 01       		.byte	0x1
 3132 07f4 29       		.byte	0x29
 3133 07f5 73000000 		.4byte	0x73
 3134 07f9 FF070000 		.4byte	0x7ff
 3135 07fd 09       		.uleb128 0x9
 3136 07fe 00       		.byte	0
 3137 07ff 0A       		.uleb128 0xa
 3138 0800 80040000 		.4byte	.LVL71
 3139 0804 421A0000 		.4byte	0x1a42
 3140 0808 00       		.byte	0
 3141 0809 07       		.uleb128 0x7
 3142 080a 92040000 		.4byte	.LBB22
 3143 080e 44000000 		.4byte	.LBE22-.LBB22
 3144 0812 B4080000 		.4byte	0x8b4
 3145 0816 08       		.uleb128 0x8
 3146 0817 63030000 		.4byte	.LASF24
 3147 081b 01       		.byte	0x1
 3148 081c 7F       		.byte	0x7f
 3149 081d 73000000 		.4byte	0x73
 3150 0821 27080000 		.4byte	0x827
 3151 0825 09       		.uleb128 0x9
 3152 0826 00       		.byte	0
 3153 0827 0B       		.uleb128 0xb
 3154 0828 82010000 		.4byte	.LASF28
 3155 082c 01       		.byte	0x1
 3156 082d F2       		.byte	0xf2
 3157 082e 4C140000 		.4byte	0x144c
 3158 0832 02       		.uleb128 0x2
 3159 0833 91       		.byte	0x91
 3160 0834 6C       		.sleb128 -20
 3161 0835 08       		.uleb128 0x8
 3162 0836 FE000000 		.4byte	.LASF25
 3163 083a 01       		.byte	0x1
 3164 083b 84       		.byte	0x84
 3165 083c 73000000 		.4byte	0x73
 3166 0840 46080000 		.4byte	0x846
 3167 0844 09       		.uleb128 0x9
 3168 0845 00       		.byte	0
 3169 0846 0C       		.uleb128 0xc
 3170 0847 B8040000 		.4byte	.LVL75
 3171 084b 841A0000 		.4byte	0x1a84
ARM GAS  C:\Users\JACOB-~1\AppData\Local\Temp\cchboK4P.s 			page 65


 3172 084f 71080000 		.4byte	0x871
 3173 0853 0D       		.uleb128 0xd
 3174 0854 01       		.uleb128 0x1
 3175 0855 50       		.byte	0x50
 3176 0856 02       		.uleb128 0x2
 3177 0857 08       		.byte	0x8
 3178 0858 28       		.byte	0x28
 3179 0859 0D       		.uleb128 0xd
 3180 085a 01       		.uleb128 0x1
 3181 085b 51       		.byte	0x51
 3182 085c 02       		.uleb128 0x2
 3183 085d 08       		.byte	0x8
 3184 085e 5F       		.byte	0x5f
 3185 085f 0D       		.uleb128 0xd
 3186 0860 01       		.uleb128 0x1
 3187 0861 52       		.byte	0x52
 3188 0862 02       		.uleb128 0x2
 3189 0863 08       		.byte	0x8
 3190 0864 3C       		.byte	0x3c
 3191 0865 0D       		.uleb128 0xd
 3192 0866 01       		.uleb128 0x1
 3193 0867 53       		.byte	0x53
 3194 0868 01       		.uleb128 0x1
 3195 0869 4E       		.byte	0x4e
 3196 086a 0D       		.uleb128 0xd
 3197 086b 02       		.uleb128 0x2
 3198 086c 7D       		.byte	0x7d
 3199 086d 00       		.sleb128 0
 3200 086e 01       		.uleb128 0x1
 3201 086f 30       		.byte	0x30
 3202 0870 00       		.byte	0
 3203 0871 0C       		.uleb128 0xc
 3204 0872 C4040000 		.4byte	.LVL76
 3205 0876 8F1A0000 		.4byte	0x1a8f
 3206 087a 8A080000 		.4byte	0x88a
 3207 087e 0D       		.uleb128 0xd
 3208 087f 01       		.uleb128 0x1
 3209 0880 51       		.byte	0x51
 3210 0881 02       		.uleb128 0x2
 3211 0882 91       		.byte	0x91
 3212 0883 6C       		.sleb128 -20
 3213 0884 0D       		.uleb128 0xd
 3214 0885 01       		.uleb128 0x1
 3215 0886 52       		.byte	0x52
 3216 0887 01       		.uleb128 0x1
 3217 0888 3A       		.byte	0x3a
 3218 0889 00       		.byte	0
 3219 088a 0E       		.uleb128 0xe
 3220 088b D6040000 		.4byte	.LVL77
 3221 088f 9A1A0000 		.4byte	0x1a9a
 3222 0893 0D       		.uleb128 0xd
 3223 0894 01       		.uleb128 0x1
 3224 0895 50       		.byte	0x50
 3225 0896 02       		.uleb128 0x2
 3226 0897 08       		.byte	0x8
 3227 0898 32       		.byte	0x32
 3228 0899 0D       		.uleb128 0xd
ARM GAS  C:\Users\JACOB-~1\AppData\Local\Temp\cchboK4P.s 			page 66


 3229 089a 01       		.uleb128 0x1
 3230 089b 51       		.byte	0x51
 3231 089c 02       		.uleb128 0x2
 3232 089d 08       		.byte	0x8
 3233 089e 69       		.byte	0x69
 3234 089f 0D       		.uleb128 0xd
 3235 08a0 01       		.uleb128 0x1
 3236 08a1 52       		.byte	0x52
 3237 08a2 03       		.uleb128 0x3
 3238 08a3 0A       		.byte	0xa
 3239 08a4 FFFF     		.2byte	0xffff
 3240 08a6 0D       		.uleb128 0xd
 3241 08a7 01       		.uleb128 0x1
 3242 08a8 53       		.byte	0x53
 3243 08a9 02       		.uleb128 0x2
 3244 08aa 91       		.byte	0x91
 3245 08ab 6C       		.sleb128 -20
 3246 08ac 0D       		.uleb128 0xd
 3247 08ad 02       		.uleb128 0x2
 3248 08ae 7D       		.byte	0x7d
 3249 08af 00       		.sleb128 0
 3250 08b0 01       		.uleb128 0x1
 3251 08b1 33       		.byte	0x33
 3252 08b2 00       		.byte	0
 3253 08b3 00       		.byte	0
 3254 08b4 07       		.uleb128 0x7
 3255 08b5 EA040000 		.4byte	.LBB23
 3256 08b9 46000000 		.4byte	.LBE23-.LBB23
 3257 08bd 60090000 		.4byte	0x960
 3258 08c1 08       		.uleb128 0x8
 3259 08c2 63030000 		.4byte	.LASF24
 3260 08c6 01       		.byte	0x1
 3261 08c7 7F       		.byte	0x7f
 3262 08c8 73000000 		.4byte	0x73
 3263 08cc D2080000 		.4byte	0x8d2
 3264 08d0 09       		.uleb128 0x9
 3265 08d1 00       		.byte	0
 3266 08d2 0F       		.uleb128 0xf
 3267 08d3 82010000 		.4byte	.LASF28
 3268 08d7 01       		.byte	0x1
 3269 08d8 0301     		.2byte	0x103
 3270 08da 4C140000 		.4byte	0x144c
 3271 08de 02       		.uleb128 0x2
 3272 08df 91       		.byte	0x91
 3273 08e0 6C       		.sleb128 -20
 3274 08e1 08       		.uleb128 0x8
 3275 08e2 FE000000 		.4byte	.LASF25
 3276 08e6 01       		.byte	0x1
 3277 08e7 84       		.byte	0x84
 3278 08e8 73000000 		.4byte	0x73
 3279 08ec F2080000 		.4byte	0x8f2
 3280 08f0 09       		.uleb128 0x9
 3281 08f1 00       		.byte	0
 3282 08f2 0C       		.uleb128 0xc
 3283 08f3 10050000 		.4byte	.LVL81
 3284 08f7 841A0000 		.4byte	0x1a84
 3285 08fb 1D090000 		.4byte	0x91d
ARM GAS  C:\Users\JACOB-~1\AppData\Local\Temp\cchboK4P.s 			page 67


 3286 08ff 0D       		.uleb128 0xd
 3287 0900 01       		.uleb128 0x1
 3288 0901 50       		.byte	0x50
 3289 0902 02       		.uleb128 0x2
 3290 0903 08       		.byte	0x8
 3291 0904 28       		.byte	0x28
 3292 0905 0D       		.uleb128 0xd
 3293 0906 01       		.uleb128 0x1
 3294 0907 51       		.byte	0x51
 3295 0908 02       		.uleb128 0x2
 3296 0909 08       		.byte	0x8
 3297 090a 5F       		.byte	0x5f
 3298 090b 0D       		.uleb128 0xd
 3299 090c 01       		.uleb128 0x1
 3300 090d 52       		.byte	0x52
 3301 090e 02       		.uleb128 0x2
 3302 090f 08       		.byte	0x8
 3303 0910 3C       		.byte	0x3c
 3304 0911 0D       		.uleb128 0xd
 3305 0912 01       		.uleb128 0x1
 3306 0913 53       		.byte	0x53
 3307 0914 01       		.uleb128 0x1
 3308 0915 4E       		.byte	0x4e
 3309 0916 0D       		.uleb128 0xd
 3310 0917 02       		.uleb128 0x2
 3311 0918 7D       		.byte	0x7d
 3312 0919 00       		.sleb128 0
 3313 091a 01       		.uleb128 0x1
 3314 091b 30       		.byte	0x30
 3315 091c 00       		.byte	0
 3316 091d 0C       		.uleb128 0xc
 3317 091e 1C050000 		.4byte	.LVL82
 3318 0922 8F1A0000 		.4byte	0x1a8f
 3319 0926 36090000 		.4byte	0x936
 3320 092a 0D       		.uleb128 0xd
 3321 092b 01       		.uleb128 0x1
 3322 092c 51       		.byte	0x51
 3323 092d 02       		.uleb128 0x2
 3324 092e 91       		.byte	0x91
 3325 092f 6C       		.sleb128 -20
 3326 0930 0D       		.uleb128 0xd
 3327 0931 01       		.uleb128 0x1
 3328 0932 52       		.byte	0x52
 3329 0933 01       		.uleb128 0x1
 3330 0934 3A       		.byte	0x3a
 3331 0935 00       		.byte	0
 3332 0936 0E       		.uleb128 0xe
 3333 0937 2E050000 		.4byte	.LVL83
 3334 093b 9A1A0000 		.4byte	0x1a9a
 3335 093f 0D       		.uleb128 0xd
 3336 0940 01       		.uleb128 0x1
 3337 0941 50       		.byte	0x50
 3338 0942 02       		.uleb128 0x2
 3339 0943 08       		.byte	0x8
 3340 0944 32       		.byte	0x32
 3341 0945 0D       		.uleb128 0xd
 3342 0946 01       		.uleb128 0x1
ARM GAS  C:\Users\JACOB-~1\AppData\Local\Temp\cchboK4P.s 			page 68


 3343 0947 51       		.byte	0x51
 3344 0948 02       		.uleb128 0x2
 3345 0949 08       		.byte	0x8
 3346 094a 69       		.byte	0x69
 3347 094b 0D       		.uleb128 0xd
 3348 094c 01       		.uleb128 0x1
 3349 094d 52       		.byte	0x52
 3350 094e 03       		.uleb128 0x3
 3351 094f 0A       		.byte	0xa
 3352 0950 FFFF     		.2byte	0xffff
 3353 0952 0D       		.uleb128 0xd
 3354 0953 01       		.uleb128 0x1
 3355 0954 53       		.byte	0x53
 3356 0955 02       		.uleb128 0x2
 3357 0956 91       		.byte	0x91
 3358 0957 6C       		.sleb128 -20
 3359 0958 0D       		.uleb128 0xd
 3360 0959 02       		.uleb128 0x2
 3361 095a 7D       		.byte	0x7d
 3362 095b 00       		.sleb128 0
 3363 095c 01       		.uleb128 0x1
 3364 095d 33       		.byte	0x33
 3365 095e 00       		.byte	0
 3366 095f 00       		.byte	0
 3367 0960 07       		.uleb128 0x7
 3368 0961 3E050000 		.4byte	.LBB24
 3369 0965 04000000 		.4byte	.LBE24-.LBB24
 3370 0969 88090000 		.4byte	0x988
 3371 096d 08       		.uleb128 0x8
 3372 096e 6C040000 		.4byte	.LASF21
 3373 0972 01       		.byte	0x1
 3374 0973 58       		.byte	0x58
 3375 0974 73000000 		.4byte	0x73
 3376 0978 7E090000 		.4byte	0x97e
 3377 097c 09       		.uleb128 0x9
 3378 097d 00       		.byte	0
 3379 097e 0A       		.uleb128 0xa
 3380 097f 42050000 		.4byte	.LVL85
 3381 0983 631A0000 		.4byte	0x1a63
 3382 0987 00       		.byte	0
 3383 0988 07       		.uleb128 0x7
 3384 0989 56050000 		.4byte	.LBB25
 3385 098d 38000000 		.4byte	.LBE25-.LBB25
 3386 0991 200A0000 		.4byte	0xa20
 3387 0995 08       		.uleb128 0x8
 3388 0996 86000000 		.4byte	.LASF27
 3389 099a 01       		.byte	0x1
 3390 099b D4       		.byte	0xd4
 3391 099c 73000000 		.4byte	0x73
 3392 09a0 A6090000 		.4byte	0x9a6
 3393 09a4 09       		.uleb128 0x9
 3394 09a5 00       		.byte	0
 3395 09a6 0C       		.uleb128 0xc
 3396 09a7 70050000 		.4byte	.LVL89
 3397 09ab A51A0000 		.4byte	0x1aa5
 3398 09af E4090000 		.4byte	0x9e4
 3399 09b3 0D       		.uleb128 0xd
ARM GAS  C:\Users\JACOB-~1\AppData\Local\Temp\cchboK4P.s 			page 69


 3400 09b4 01       		.uleb128 0x1
 3401 09b5 50       		.byte	0x50
 3402 09b6 01       		.uleb128 0x1
 3403 09b7 4E       		.byte	0x4e
 3404 09b8 0D       		.uleb128 0xd
 3405 09b9 01       		.uleb128 0x1
 3406 09ba 51       		.byte	0x51
 3407 09bb 02       		.uleb128 0x2
 3408 09bc 08       		.byte	0x8
 3409 09bd 64       		.byte	0x64
 3410 09be 0D       		.uleb128 0xd
 3411 09bf 01       		.uleb128 0x1
 3412 09c0 52       		.byte	0x52
 3413 09c1 02       		.uleb128 0x2
 3414 09c2 08       		.byte	0x8
 3415 09c3 50       		.byte	0x50
 3416 09c4 0D       		.uleb128 0xd
 3417 09c5 01       		.uleb128 0x1
 3418 09c6 53       		.byte	0x53
 3419 09c7 02       		.uleb128 0x2
 3420 09c8 08       		.byte	0x8
 3421 09c9 32       		.byte	0x32
 3422 09ca 0D       		.uleb128 0xd
 3423 09cb 02       		.uleb128 0x2
 3424 09cc 7D       		.byte	0x7d
 3425 09cd 00       		.sleb128 0
 3426 09ce 03       		.uleb128 0x3
 3427 09cf 0A       		.byte	0xa
 3428 09d0 9F9E     		.2byte	0x9e9f
 3429 09d2 0D       		.uleb128 0xd
 3430 09d3 02       		.uleb128 0x2
 3431 09d4 7D       		.byte	0x7d
 3432 09d5 04       		.sleb128 4
 3433 09d6 02       		.uleb128 0x2
 3434 09d7 74       		.byte	0x74
 3435 09d8 00       		.sleb128 0
 3436 09d9 0D       		.uleb128 0xd
 3437 09da 02       		.uleb128 0x2
 3438 09db 7D       		.byte	0x7d
 3439 09dc 08       		.sleb128 8
 3440 09dd 05       		.uleb128 0x5
 3441 09de 03       		.byte	0x3
 3442 09df 00000000 		.4byte	.LC0
 3443 09e3 00       		.byte	0
 3444 09e4 0E       		.uleb128 0xe
 3445 09e5 88050000 		.4byte	.LVL90
 3446 09e9 A51A0000 		.4byte	0x1aa5
 3447 09ed 0D       		.uleb128 0xd
 3448 09ee 01       		.uleb128 0x1
 3449 09ef 50       		.byte	0x50
 3450 09f0 02       		.uleb128 0x2
 3451 09f1 08       		.byte	0x8
 3452 09f2 82       		.byte	0x82
 3453 09f3 0D       		.uleb128 0xd
 3454 09f4 01       		.uleb128 0x1
 3455 09f5 51       		.byte	0x51
 3456 09f6 02       		.uleb128 0x2
ARM GAS  C:\Users\JACOB-~1\AppData\Local\Temp\cchboK4P.s 			page 70


 3457 09f7 08       		.byte	0x8
 3458 09f8 64       		.byte	0x64
 3459 09f9 0D       		.uleb128 0xd
 3460 09fa 01       		.uleb128 0x1
 3461 09fb 52       		.byte	0x52
 3462 09fc 02       		.uleb128 0x2
 3463 09fd 08       		.byte	0x8
 3464 09fe 50       		.byte	0x50
 3465 09ff 0D       		.uleb128 0xd
 3466 0a00 01       		.uleb128 0x1
 3467 0a01 53       		.byte	0x53
 3468 0a02 02       		.uleb128 0x2
 3469 0a03 08       		.byte	0x8
 3470 0a04 32       		.byte	0x32
 3471 0a05 0D       		.uleb128 0xd
 3472 0a06 02       		.uleb128 0x2
 3473 0a07 7D       		.byte	0x7d
 3474 0a08 00       		.sleb128 0
 3475 0a09 03       		.uleb128 0x3
 3476 0a0a 0A       		.byte	0xa
 3477 0a0b FFFF     		.2byte	0xffff
 3478 0a0d 0D       		.uleb128 0xd
 3479 0a0e 02       		.uleb128 0x2
 3480 0a0f 7D       		.byte	0x7d
 3481 0a10 04       		.sleb128 4
 3482 0a11 02       		.uleb128 0x2
 3483 0a12 74       		.byte	0x74
 3484 0a13 00       		.sleb128 0
 3485 0a14 0D       		.uleb128 0xd
 3486 0a15 02       		.uleb128 0x2
 3487 0a16 7D       		.byte	0x7d
 3488 0a17 08       		.sleb128 8
 3489 0a18 05       		.uleb128 0x5
 3490 0a19 03       		.byte	0x3
 3491 0a1a 04000000 		.4byte	.LC1
 3492 0a1e 00       		.byte	0
 3493 0a1f 00       		.byte	0
 3494 0a20 07       		.uleb128 0x7
 3495 0a21 B2050000 		.4byte	.LBB26
 3496 0a25 38000000 		.4byte	.LBE26-.LBB26
 3497 0a29 B80A0000 		.4byte	0xab8
 3498 0a2d 08       		.uleb128 0x8
 3499 0a2e 86000000 		.4byte	.LASF27
 3500 0a32 01       		.byte	0x1
 3501 0a33 D4       		.byte	0xd4
 3502 0a34 73000000 		.4byte	0x73
 3503 0a38 3E0A0000 		.4byte	0xa3e
 3504 0a3c 09       		.uleb128 0x9
 3505 0a3d 00       		.byte	0
 3506 0a3e 0C       		.uleb128 0xc
 3507 0a3f CC050000 		.4byte	.LVL94
 3508 0a43 A51A0000 		.4byte	0x1aa5
 3509 0a47 7C0A0000 		.4byte	0xa7c
 3510 0a4b 0D       		.uleb128 0xd
 3511 0a4c 01       		.uleb128 0x1
 3512 0a4d 50       		.byte	0x50
 3513 0a4e 01       		.uleb128 0x1
ARM GAS  C:\Users\JACOB-~1\AppData\Local\Temp\cchboK4P.s 			page 71


 3514 0a4f 4E       		.byte	0x4e
 3515 0a50 0D       		.uleb128 0xd
 3516 0a51 01       		.uleb128 0x1
 3517 0a52 51       		.byte	0x51
 3518 0a53 02       		.uleb128 0x2
 3519 0a54 08       		.byte	0x8
 3520 0a55 64       		.byte	0x64
 3521 0a56 0D       		.uleb128 0xd
 3522 0a57 01       		.uleb128 0x1
 3523 0a58 52       		.byte	0x52
 3524 0a59 02       		.uleb128 0x2
 3525 0a5a 08       		.byte	0x8
 3526 0a5b 50       		.byte	0x50
 3527 0a5c 0D       		.uleb128 0xd
 3528 0a5d 01       		.uleb128 0x1
 3529 0a5e 53       		.byte	0x53
 3530 0a5f 02       		.uleb128 0x2
 3531 0a60 08       		.byte	0x8
 3532 0a61 32       		.byte	0x32
 3533 0a62 0D       		.uleb128 0xd
 3534 0a63 02       		.uleb128 0x2
 3535 0a64 7D       		.byte	0x7d
 3536 0a65 00       		.sleb128 0
 3537 0a66 03       		.uleb128 0x3
 3538 0a67 0A       		.byte	0xa
 3539 0a68 FFFF     		.2byte	0xffff
 3540 0a6a 0D       		.uleb128 0xd
 3541 0a6b 02       		.uleb128 0x2
 3542 0a6c 7D       		.byte	0x7d
 3543 0a6d 04       		.sleb128 4
 3544 0a6e 02       		.uleb128 0x2
 3545 0a6f 74       		.byte	0x74
 3546 0a70 00       		.sleb128 0
 3547 0a71 0D       		.uleb128 0xd
 3548 0a72 02       		.uleb128 0x2
 3549 0a73 7D       		.byte	0x7d
 3550 0a74 08       		.sleb128 8
 3551 0a75 05       		.uleb128 0x5
 3552 0a76 03       		.byte	0x3
 3553 0a77 00000000 		.4byte	.LC0
 3554 0a7b 00       		.byte	0
 3555 0a7c 0E       		.uleb128 0xe
 3556 0a7d E4050000 		.4byte	.LVL95
 3557 0a81 A51A0000 		.4byte	0x1aa5
 3558 0a85 0D       		.uleb128 0xd
 3559 0a86 01       		.uleb128 0x1
 3560 0a87 50       		.byte	0x50
 3561 0a88 02       		.uleb128 0x2
 3562 0a89 08       		.byte	0x8
 3563 0a8a 82       		.byte	0x82
 3564 0a8b 0D       		.uleb128 0xd
 3565 0a8c 01       		.uleb128 0x1
 3566 0a8d 51       		.byte	0x51
 3567 0a8e 02       		.uleb128 0x2
 3568 0a8f 08       		.byte	0x8
 3569 0a90 64       		.byte	0x64
 3570 0a91 0D       		.uleb128 0xd
ARM GAS  C:\Users\JACOB-~1\AppData\Local\Temp\cchboK4P.s 			page 72


 3571 0a92 01       		.uleb128 0x1
 3572 0a93 52       		.byte	0x52
 3573 0a94 02       		.uleb128 0x2
 3574 0a95 08       		.byte	0x8
 3575 0a96 50       		.byte	0x50
 3576 0a97 0D       		.uleb128 0xd
 3577 0a98 01       		.uleb128 0x1
 3578 0a99 53       		.byte	0x53
 3579 0a9a 02       		.uleb128 0x2
 3580 0a9b 08       		.byte	0x8
 3581 0a9c 32       		.byte	0x32
 3582 0a9d 0D       		.uleb128 0xd
 3583 0a9e 02       		.uleb128 0x2
 3584 0a9f 7D       		.byte	0x7d
 3585 0aa0 00       		.sleb128 0
 3586 0aa1 03       		.uleb128 0x3
 3587 0aa2 0A       		.byte	0xa
 3588 0aa3 9F9E     		.2byte	0x9e9f
 3589 0aa5 0D       		.uleb128 0xd
 3590 0aa6 02       		.uleb128 0x2
 3591 0aa7 7D       		.byte	0x7d
 3592 0aa8 04       		.sleb128 4
 3593 0aa9 02       		.uleb128 0x2
 3594 0aaa 74       		.byte	0x74
 3595 0aab 00       		.sleb128 0
 3596 0aac 0D       		.uleb128 0xd
 3597 0aad 02       		.uleb128 0x2
 3598 0aae 7D       		.byte	0x7d
 3599 0aaf 08       		.sleb128 8
 3600 0ab0 05       		.uleb128 0x5
 3601 0ab1 03       		.byte	0x3
 3602 0ab2 04000000 		.4byte	.LC1
 3603 0ab6 00       		.byte	0
 3604 0ab7 00       		.byte	0
 3605 0ab8 07       		.uleb128 0x7
 3606 0ab9 08060000 		.4byte	.LBB27
 3607 0abd 04000000 		.4byte	.LBE27-.LBB27
 3608 0ac1 E10A0000 		.4byte	0xae1
 3609 0ac5 10       		.uleb128 0x10
 3610 0ac6 96020000 		.4byte	.LASF29
 3611 0aca 01       		.byte	0x1
 3612 0acb 3201     		.2byte	0x132
 3613 0acd 73000000 		.4byte	0x73
 3614 0ad1 D70A0000 		.4byte	0xad7
 3615 0ad5 09       		.uleb128 0x9
 3616 0ad6 00       		.byte	0
 3617 0ad7 0A       		.uleb128 0xa
 3618 0ad8 0C060000 		.4byte	.LVL97
 3619 0adc C61A0000 		.4byte	0x1ac6
 3620 0ae0 00       		.byte	0
 3621 0ae1 07       		.uleb128 0x7
 3622 0ae2 1A060000 		.4byte	.LBB28
 3623 0ae6 04000000 		.4byte	.LBE28-.LBB28
 3624 0aea 0A0B0000 		.4byte	0xb0a
 3625 0aee 10       		.uleb128 0x10
 3626 0aef 59010000 		.4byte	.LASF30
 3627 0af3 01       		.byte	0x1
ARM GAS  C:\Users\JACOB-~1\AppData\Local\Temp\cchboK4P.s 			page 73


 3628 0af4 3601     		.2byte	0x136
 3629 0af6 73000000 		.4byte	0x73
 3630 0afa 000B0000 		.4byte	0xb00
 3631 0afe 09       		.uleb128 0x9
 3632 0aff 00       		.byte	0
 3633 0b00 0A       		.uleb128 0xa
 3634 0b01 1E060000 		.4byte	.LVL99
 3635 0b05 D21A0000 		.4byte	0x1ad2
 3636 0b09 00       		.byte	0
 3637 0b0a 07       		.uleb128 0x7
 3638 0b0b 32060000 		.4byte	.LBB29
 3639 0b0f 04000000 		.4byte	.LBE29-.LBB29
 3640 0b13 330B0000 		.4byte	0xb33
 3641 0b17 10       		.uleb128 0x10
 3642 0b18 1D010000 		.4byte	.LASF31
 3643 0b1c 01       		.byte	0x1
 3644 0b1d 3A01     		.2byte	0x13a
 3645 0b1f 73000000 		.4byte	0x73
 3646 0b23 290B0000 		.4byte	0xb29
 3647 0b27 09       		.uleb128 0x9
 3648 0b28 00       		.byte	0
 3649 0b29 0A       		.uleb128 0xa
 3650 0b2a 36060000 		.4byte	.LVL101
 3651 0b2e DE1A0000 		.4byte	0x1ade
 3652 0b32 00       		.byte	0
 3653 0b33 07       		.uleb128 0x7
 3654 0b34 44060000 		.4byte	.LBB30
 3655 0b38 04000000 		.4byte	.LBE30-.LBB30
 3656 0b3c 5B0B0000 		.4byte	0xb5b
 3657 0b40 08       		.uleb128 0x8
 3658 0b41 D0020000 		.4byte	.LASF18
 3659 0b45 01       		.byte	0x1
 3660 0b46 29       		.byte	0x29
 3661 0b47 73000000 		.4byte	0x73
 3662 0b4b 510B0000 		.4byte	0xb51
 3663 0b4f 09       		.uleb128 0x9
 3664 0b50 00       		.byte	0
 3665 0b51 0A       		.uleb128 0xa
 3666 0b52 48060000 		.4byte	.LVL103
 3667 0b56 421A0000 		.4byte	0x1a42
 3668 0b5a 00       		.byte	0
 3669 0b5b 07       		.uleb128 0x7
 3670 0b5c 72060000 		.4byte	.LBB31
 3671 0b60 04000000 		.4byte	.LBE31-.LBB31
 3672 0b64 830B0000 		.4byte	0xb83
 3673 0b68 08       		.uleb128 0x8
 3674 0b69 6C040000 		.4byte	.LASF21
 3675 0b6d 01       		.byte	0x1
 3676 0b6e 58       		.byte	0x58
 3677 0b6f 73000000 		.4byte	0x73
 3678 0b73 790B0000 		.4byte	0xb79
 3679 0b77 09       		.uleb128 0x9
 3680 0b78 00       		.byte	0
 3681 0b79 0A       		.uleb128 0xa
 3682 0b7a 76060000 		.4byte	.LVL105
 3683 0b7e 631A0000 		.4byte	0x1a63
 3684 0b82 00       		.byte	0
ARM GAS  C:\Users\JACOB-~1\AppData\Local\Temp\cchboK4P.s 			page 74


 3685 0b83 07       		.uleb128 0x7
 3686 0b84 8A060000 		.4byte	.LBB32
 3687 0b88 74000000 		.4byte	.LBE32-.LBB32
 3688 0b8c D30C0000 		.4byte	0xcd3
 3689 0b90 08       		.uleb128 0x8
 3690 0b91 86000000 		.4byte	.LASF27
 3691 0b95 01       		.byte	0x1
 3692 0b96 D4       		.byte	0xd4
 3693 0b97 73000000 		.4byte	0x73
 3694 0b9b A10B0000 		.4byte	0xba1
 3695 0b9f 09       		.uleb128 0x9
 3696 0ba0 00       		.byte	0
 3697 0ba1 0C       		.uleb128 0xc
 3698 0ba2 AA060000 		.4byte	.LVL109
 3699 0ba6 A51A0000 		.4byte	0x1aa5
 3700 0baa DF0B0000 		.4byte	0xbdf
 3701 0bae 0D       		.uleb128 0xd
 3702 0baf 01       		.uleb128 0x1
 3703 0bb0 50       		.byte	0x50
 3704 0bb1 02       		.uleb128 0x2
 3705 0bb2 08       		.byte	0x8
 3706 0bb3 28       		.byte	0x28
 3707 0bb4 0D       		.uleb128 0xd
 3708 0bb5 01       		.uleb128 0x1
 3709 0bb6 51       		.byte	0x51
 3710 0bb7 01       		.uleb128 0x1
 3711 0bb8 3F       		.byte	0x3f
 3712 0bb9 0D       		.uleb128 0xd
 3713 0bba 01       		.uleb128 0x1
 3714 0bbb 52       		.byte	0x52
 3715 0bbc 02       		.uleb128 0x2
 3716 0bbd 08       		.byte	0x8
 3717 0bbe 46       		.byte	0x46
 3718 0bbf 0D       		.uleb128 0xd
 3719 0bc0 01       		.uleb128 0x1
 3720 0bc1 53       		.byte	0x53
 3721 0bc2 02       		.uleb128 0x2
 3722 0bc3 08       		.byte	0x8
 3723 0bc4 32       		.byte	0x32
 3724 0bc5 0D       		.uleb128 0xd
 3725 0bc6 02       		.uleb128 0x2
 3726 0bc7 7D       		.byte	0x7d
 3727 0bc8 00       		.sleb128 0
 3728 0bc9 03       		.uleb128 0x3
 3729 0bca 0A       		.byte	0xa
 3730 0bcb 9F9E     		.2byte	0x9e9f
 3731 0bcd 0D       		.uleb128 0xd
 3732 0bce 02       		.uleb128 0x2
 3733 0bcf 7D       		.byte	0x7d
 3734 0bd0 04       		.sleb128 4
 3735 0bd1 02       		.uleb128 0x2
 3736 0bd2 74       		.byte	0x74
 3737 0bd3 00       		.sleb128 0
 3738 0bd4 0D       		.uleb128 0xd
 3739 0bd5 02       		.uleb128 0x2
 3740 0bd6 7D       		.byte	0x7d
 3741 0bd7 08       		.sleb128 8
ARM GAS  C:\Users\JACOB-~1\AppData\Local\Temp\cchboK4P.s 			page 75


 3742 0bd8 05       		.uleb128 0x5
 3743 0bd9 03       		.byte	0x3
 3744 0bda 08000000 		.4byte	.LC2
 3745 0bde 00       		.byte	0
 3746 0bdf 0C       		.uleb128 0xc
 3747 0be0 C2060000 		.4byte	.LVL110
 3748 0be4 A51A0000 		.4byte	0x1aa5
 3749 0be8 1C0C0000 		.4byte	0xc1c
 3750 0bec 0D       		.uleb128 0xd
 3751 0bed 01       		.uleb128 0x1
 3752 0bee 50       		.byte	0x50
 3753 0bef 02       		.uleb128 0x2
 3754 0bf0 08       		.byte	0x8
 3755 0bf1 82       		.byte	0x82
 3756 0bf2 0D       		.uleb128 0xd
 3757 0bf3 01       		.uleb128 0x1
 3758 0bf4 51       		.byte	0x51
 3759 0bf5 01       		.uleb128 0x1
 3760 0bf6 3F       		.byte	0x3f
 3761 0bf7 0D       		.uleb128 0xd
 3762 0bf8 01       		.uleb128 0x1
 3763 0bf9 52       		.byte	0x52
 3764 0bfa 02       		.uleb128 0x2
 3765 0bfb 08       		.byte	0x8
 3766 0bfc 46       		.byte	0x46
 3767 0bfd 0D       		.uleb128 0xd
 3768 0bfe 01       		.uleb128 0x1
 3769 0bff 53       		.byte	0x53
 3770 0c00 02       		.uleb128 0x2
 3771 0c01 08       		.byte	0x8
 3772 0c02 32       		.byte	0x32
 3773 0c03 0D       		.uleb128 0xd
 3774 0c04 02       		.uleb128 0x2
 3775 0c05 7D       		.byte	0x7d
 3776 0c06 00       		.sleb128 0
 3777 0c07 02       		.uleb128 0x2
 3778 0c08 75       		.byte	0x75
 3779 0c09 00       		.sleb128 0
 3780 0c0a 0D       		.uleb128 0xd
 3781 0c0b 02       		.uleb128 0x2
 3782 0c0c 7D       		.byte	0x7d
 3783 0c0d 04       		.sleb128 4
 3784 0c0e 02       		.uleb128 0x2
 3785 0c0f 74       		.byte	0x74
 3786 0c10 00       		.sleb128 0
 3787 0c11 0D       		.uleb128 0xd
 3788 0c12 02       		.uleb128 0x2
 3789 0c13 7D       		.byte	0x7d
 3790 0c14 08       		.sleb128 8
 3791 0c15 05       		.uleb128 0x5
 3792 0c16 03       		.byte	0x3
 3793 0c17 0C000000 		.4byte	.LC3
 3794 0c1b 00       		.byte	0
 3795 0c1c 0C       		.uleb128 0xc
 3796 0c1d D6060000 		.4byte	.LVL111
 3797 0c21 A51A0000 		.4byte	0x1aa5
 3798 0c25 5A0C0000 		.4byte	0xc5a
ARM GAS  C:\Users\JACOB-~1\AppData\Local\Temp\cchboK4P.s 			page 76


 3799 0c29 0D       		.uleb128 0xd
 3800 0c2a 01       		.uleb128 0x1
 3801 0c2b 50       		.byte	0x50
 3802 0c2c 02       		.uleb128 0x2
 3803 0c2d 08       		.byte	0x8
 3804 0c2e 28       		.byte	0x28
 3805 0c2f 0D       		.uleb128 0xd
 3806 0c30 01       		.uleb128 0x1
 3807 0c31 51       		.byte	0x51
 3808 0c32 02       		.uleb128 0x2
 3809 0c33 08       		.byte	0x8
 3810 0c34 55       		.byte	0x55
 3811 0c35 0D       		.uleb128 0xd
 3812 0c36 01       		.uleb128 0x1
 3813 0c37 52       		.byte	0x52
 3814 0c38 02       		.uleb128 0x2
 3815 0c39 08       		.byte	0x8
 3816 0c3a 46       		.byte	0x46
 3817 0c3b 0D       		.uleb128 0xd
 3818 0c3c 01       		.uleb128 0x1
 3819 0c3d 53       		.byte	0x53
 3820 0c3e 02       		.uleb128 0x2
 3821 0c3f 08       		.byte	0x8
 3822 0c40 32       		.byte	0x32
 3823 0c41 0D       		.uleb128 0xd
 3824 0c42 02       		.uleb128 0x2
 3825 0c43 7D       		.byte	0x7d
 3826 0c44 00       		.sleb128 0
 3827 0c45 02       		.uleb128 0x2
 3828 0c46 75       		.byte	0x75
 3829 0c47 00       		.sleb128 0
 3830 0c48 0D       		.uleb128 0xd
 3831 0c49 02       		.uleb128 0x2
 3832 0c4a 7D       		.byte	0x7d
 3833 0c4b 04       		.sleb128 4
 3834 0c4c 02       		.uleb128 0x2
 3835 0c4d 74       		.byte	0x74
 3836 0c4e 00       		.sleb128 0
 3837 0c4f 0D       		.uleb128 0xd
 3838 0c50 02       		.uleb128 0x2
 3839 0c51 7D       		.byte	0x7d
 3840 0c52 08       		.sleb128 8
 3841 0c53 05       		.uleb128 0x5
 3842 0c54 03       		.byte	0x3
 3843 0c55 10000000 		.4byte	.LC4
 3844 0c59 00       		.byte	0
 3845 0c5a 0C       		.uleb128 0xc
 3846 0c5b EA060000 		.4byte	.LVL112
 3847 0c5f A51A0000 		.4byte	0x1aa5
 3848 0c63 980C0000 		.4byte	0xc98
 3849 0c67 0D       		.uleb128 0xd
 3850 0c68 01       		.uleb128 0x1
 3851 0c69 50       		.byte	0x50
 3852 0c6a 02       		.uleb128 0x2
 3853 0c6b 08       		.byte	0x8
 3854 0c6c 82       		.byte	0x82
 3855 0c6d 0D       		.uleb128 0xd
ARM GAS  C:\Users\JACOB-~1\AppData\Local\Temp\cchboK4P.s 			page 77


 3856 0c6e 01       		.uleb128 0x1
 3857 0c6f 51       		.byte	0x51
 3858 0c70 02       		.uleb128 0x2
 3859 0c71 08       		.byte	0x8
 3860 0c72 55       		.byte	0x55
 3861 0c73 0D       		.uleb128 0xd
 3862 0c74 01       		.uleb128 0x1
 3863 0c75 52       		.byte	0x52
 3864 0c76 02       		.uleb128 0x2
 3865 0c77 08       		.byte	0x8
 3866 0c78 46       		.byte	0x46
 3867 0c79 0D       		.uleb128 0xd
 3868 0c7a 01       		.uleb128 0x1
 3869 0c7b 53       		.byte	0x53
 3870 0c7c 02       		.uleb128 0x2
 3871 0c7d 08       		.byte	0x8
 3872 0c7e 32       		.byte	0x32
 3873 0c7f 0D       		.uleb128 0xd
 3874 0c80 02       		.uleb128 0x2
 3875 0c81 7D       		.byte	0x7d
 3876 0c82 00       		.sleb128 0
 3877 0c83 02       		.uleb128 0x2
 3878 0c84 75       		.byte	0x75
 3879 0c85 00       		.sleb128 0
 3880 0c86 0D       		.uleb128 0xd
 3881 0c87 02       		.uleb128 0x2
 3882 0c88 7D       		.byte	0x7d
 3883 0c89 04       		.sleb128 4
 3884 0c8a 02       		.uleb128 0x2
 3885 0c8b 74       		.byte	0x74
 3886 0c8c 00       		.sleb128 0
 3887 0c8d 0D       		.uleb128 0xd
 3888 0c8e 02       		.uleb128 0x2
 3889 0c8f 7D       		.byte	0x7d
 3890 0c90 08       		.sleb128 8
 3891 0c91 05       		.uleb128 0x5
 3892 0c92 03       		.byte	0x3
 3893 0c93 14000000 		.4byte	.LC5
 3894 0c97 00       		.byte	0
 3895 0c98 0E       		.uleb128 0xe
 3896 0c99 FE060000 		.4byte	.LVL113
 3897 0c9d A51A0000 		.4byte	0x1aa5
 3898 0ca1 0D       		.uleb128 0xd
 3899 0ca2 01       		.uleb128 0x1
 3900 0ca3 50       		.byte	0x50
 3901 0ca4 02       		.uleb128 0x2
 3902 0ca5 08       		.byte	0x8
 3903 0ca6 55       		.byte	0x55
 3904 0ca7 0D       		.uleb128 0xd
 3905 0ca8 01       		.uleb128 0x1
 3906 0ca9 51       		.byte	0x51
 3907 0caa 02       		.uleb128 0x2
 3908 0cab 08       		.byte	0x8
 3909 0cac 9B       		.byte	0x9b
 3910 0cad 0D       		.uleb128 0xd
 3911 0cae 01       		.uleb128 0x1
 3912 0caf 52       		.byte	0x52
ARM GAS  C:\Users\JACOB-~1\AppData\Local\Temp\cchboK4P.s 			page 78


 3913 0cb0 02       		.uleb128 0x2
 3914 0cb1 08       		.byte	0x8
 3915 0cb2 46       		.byte	0x46
 3916 0cb3 0D       		.uleb128 0xd
 3917 0cb4 01       		.uleb128 0x1
 3918 0cb5 53       		.byte	0x53
 3919 0cb6 02       		.uleb128 0x2
 3920 0cb7 08       		.byte	0x8
 3921 0cb8 32       		.byte	0x32
 3922 0cb9 0D       		.uleb128 0xd
 3923 0cba 02       		.uleb128 0x2
 3924 0cbb 7D       		.byte	0x7d
 3925 0cbc 00       		.sleb128 0
 3926 0cbd 02       		.uleb128 0x2
 3927 0cbe 75       		.byte	0x75
 3928 0cbf 00       		.sleb128 0
 3929 0cc0 0D       		.uleb128 0xd
 3930 0cc1 02       		.uleb128 0x2
 3931 0cc2 7D       		.byte	0x7d
 3932 0cc3 04       		.sleb128 4
 3933 0cc4 02       		.uleb128 0x2
 3934 0cc5 74       		.byte	0x74
 3935 0cc6 00       		.sleb128 0
 3936 0cc7 0D       		.uleb128 0xd
 3937 0cc8 02       		.uleb128 0x2
 3938 0cc9 7D       		.byte	0x7d
 3939 0cca 08       		.sleb128 8
 3940 0ccb 05       		.uleb128 0x5
 3941 0ccc 03       		.byte	0x3
 3942 0ccd 18000000 		.4byte	.LC6
 3943 0cd1 00       		.byte	0
 3944 0cd2 00       		.byte	0
 3945 0cd3 07       		.uleb128 0x7
 3946 0cd4 12070000 		.4byte	.LBB33
 3947 0cd8 74000000 		.4byte	.LBE33-.LBB33
 3948 0cdc 230E0000 		.4byte	0xe23
 3949 0ce0 08       		.uleb128 0x8
 3950 0ce1 86000000 		.4byte	.LASF27
 3951 0ce5 01       		.byte	0x1
 3952 0ce6 D4       		.byte	0xd4
 3953 0ce7 73000000 		.4byte	0x73
 3954 0ceb F10C0000 		.4byte	0xcf1
 3955 0cef 09       		.uleb128 0x9
 3956 0cf0 00       		.byte	0
 3957 0cf1 0C       		.uleb128 0xc
 3958 0cf2 32070000 		.4byte	.LVL117
 3959 0cf6 A51A0000 		.4byte	0x1aa5
 3960 0cfa 2E0D0000 		.4byte	0xd2e
 3961 0cfe 0D       		.uleb128 0xd
 3962 0cff 01       		.uleb128 0x1
 3963 0d00 50       		.byte	0x50
 3964 0d01 02       		.uleb128 0x2
 3965 0d02 08       		.byte	0x8
 3966 0d03 28       		.byte	0x28
 3967 0d04 0D       		.uleb128 0xd
 3968 0d05 01       		.uleb128 0x1
 3969 0d06 51       		.byte	0x51
ARM GAS  C:\Users\JACOB-~1\AppData\Local\Temp\cchboK4P.s 			page 79


 3970 0d07 01       		.uleb128 0x1
 3971 0d08 3F       		.byte	0x3f
 3972 0d09 0D       		.uleb128 0xd
 3973 0d0a 01       		.uleb128 0x1
 3974 0d0b 52       		.byte	0x52
 3975 0d0c 02       		.uleb128 0x2
 3976 0d0d 08       		.byte	0x8
 3977 0d0e 46       		.byte	0x46
 3978 0d0f 0D       		.uleb128 0xd
 3979 0d10 01       		.uleb128 0x1
 3980 0d11 53       		.byte	0x53
 3981 0d12 02       		.uleb128 0x2
 3982 0d13 08       		.byte	0x8
 3983 0d14 32       		.byte	0x32
 3984 0d15 0D       		.uleb128 0xd
 3985 0d16 02       		.uleb128 0x2
 3986 0d17 7D       		.byte	0x7d
 3987 0d18 00       		.sleb128 0
 3988 0d19 02       		.uleb128 0x2
 3989 0d1a 75       		.byte	0x75
 3990 0d1b 00       		.sleb128 0
 3991 0d1c 0D       		.uleb128 0xd
 3992 0d1d 02       		.uleb128 0x2
 3993 0d1e 7D       		.byte	0x7d
 3994 0d1f 04       		.sleb128 4
 3995 0d20 02       		.uleb128 0x2
 3996 0d21 74       		.byte	0x74
 3997 0d22 00       		.sleb128 0
 3998 0d23 0D       		.uleb128 0xd
 3999 0d24 02       		.uleb128 0x2
 4000 0d25 7D       		.byte	0x7d
 4001 0d26 08       		.sleb128 8
 4002 0d27 05       		.uleb128 0x5
 4003 0d28 03       		.byte	0x3
 4004 0d29 08000000 		.4byte	.LC2
 4005 0d2d 00       		.byte	0
 4006 0d2e 0C       		.uleb128 0xc
 4007 0d2f 4A070000 		.4byte	.LVL118
 4008 0d33 A51A0000 		.4byte	0x1aa5
 4009 0d37 6C0D0000 		.4byte	0xd6c
 4010 0d3b 0D       		.uleb128 0xd
 4011 0d3c 01       		.uleb128 0x1
 4012 0d3d 50       		.byte	0x50
 4013 0d3e 02       		.uleb128 0x2
 4014 0d3f 08       		.byte	0x8
 4015 0d40 82       		.byte	0x82
 4016 0d41 0D       		.uleb128 0xd
 4017 0d42 01       		.uleb128 0x1
 4018 0d43 51       		.byte	0x51
 4019 0d44 01       		.uleb128 0x1
 4020 0d45 3F       		.byte	0x3f
 4021 0d46 0D       		.uleb128 0xd
 4022 0d47 01       		.uleb128 0x1
 4023 0d48 52       		.byte	0x52
 4024 0d49 02       		.uleb128 0x2
 4025 0d4a 08       		.byte	0x8
 4026 0d4b 46       		.byte	0x46
ARM GAS  C:\Users\JACOB-~1\AppData\Local\Temp\cchboK4P.s 			page 80


 4027 0d4c 0D       		.uleb128 0xd
 4028 0d4d 01       		.uleb128 0x1
 4029 0d4e 53       		.byte	0x53
 4030 0d4f 02       		.uleb128 0x2
 4031 0d50 08       		.byte	0x8
 4032 0d51 32       		.byte	0x32
 4033 0d52 0D       		.uleb128 0xd
 4034 0d53 02       		.uleb128 0x2
 4035 0d54 7D       		.byte	0x7d
 4036 0d55 00       		.sleb128 0
 4037 0d56 03       		.uleb128 0x3
 4038 0d57 0A       		.byte	0xa
 4039 0d58 9F9E     		.2byte	0x9e9f
 4040 0d5a 0D       		.uleb128 0xd
 4041 0d5b 02       		.uleb128 0x2
 4042 0d5c 7D       		.byte	0x7d
 4043 0d5d 04       		.sleb128 4
 4044 0d5e 02       		.uleb128 0x2
 4045 0d5f 74       		.byte	0x74
 4046 0d60 00       		.sleb128 0
 4047 0d61 0D       		.uleb128 0xd
 4048 0d62 02       		.uleb128 0x2
 4049 0d63 7D       		.byte	0x7d
 4050 0d64 08       		.sleb128 8
 4051 0d65 05       		.uleb128 0x5
 4052 0d66 03       		.byte	0x3
 4053 0d67 0C000000 		.4byte	.LC3
 4054 0d6b 00       		.byte	0
 4055 0d6c 0C       		.uleb128 0xc
 4056 0d6d 5E070000 		.4byte	.LVL119
 4057 0d71 A51A0000 		.4byte	0x1aa5
 4058 0d75 AA0D0000 		.4byte	0xdaa
 4059 0d79 0D       		.uleb128 0xd
 4060 0d7a 01       		.uleb128 0x1
 4061 0d7b 50       		.byte	0x50
 4062 0d7c 02       		.uleb128 0x2
 4063 0d7d 08       		.byte	0x8
 4064 0d7e 28       		.byte	0x28
 4065 0d7f 0D       		.uleb128 0xd
 4066 0d80 01       		.uleb128 0x1
 4067 0d81 51       		.byte	0x51
 4068 0d82 02       		.uleb128 0x2
 4069 0d83 08       		.byte	0x8
 4070 0d84 55       		.byte	0x55
 4071 0d85 0D       		.uleb128 0xd
 4072 0d86 01       		.uleb128 0x1
 4073 0d87 52       		.byte	0x52
 4074 0d88 02       		.uleb128 0x2
 4075 0d89 08       		.byte	0x8
 4076 0d8a 46       		.byte	0x46
 4077 0d8b 0D       		.uleb128 0xd
 4078 0d8c 01       		.uleb128 0x1
 4079 0d8d 53       		.byte	0x53
 4080 0d8e 02       		.uleb128 0x2
 4081 0d8f 08       		.byte	0x8
 4082 0d90 32       		.byte	0x32
 4083 0d91 0D       		.uleb128 0xd
ARM GAS  C:\Users\JACOB-~1\AppData\Local\Temp\cchboK4P.s 			page 81


 4084 0d92 02       		.uleb128 0x2
 4085 0d93 7D       		.byte	0x7d
 4086 0d94 00       		.sleb128 0
 4087 0d95 02       		.uleb128 0x2
 4088 0d96 75       		.byte	0x75
 4089 0d97 00       		.sleb128 0
 4090 0d98 0D       		.uleb128 0xd
 4091 0d99 02       		.uleb128 0x2
 4092 0d9a 7D       		.byte	0x7d
 4093 0d9b 04       		.sleb128 4
 4094 0d9c 02       		.uleb128 0x2
 4095 0d9d 74       		.byte	0x74
 4096 0d9e 00       		.sleb128 0
 4097 0d9f 0D       		.uleb128 0xd
 4098 0da0 02       		.uleb128 0x2
 4099 0da1 7D       		.byte	0x7d
 4100 0da2 08       		.sleb128 8
 4101 0da3 05       		.uleb128 0x5
 4102 0da4 03       		.byte	0x3
 4103 0da5 10000000 		.4byte	.LC4
 4104 0da9 00       		.byte	0
 4105 0daa 0C       		.uleb128 0xc
 4106 0dab 72070000 		.4byte	.LVL120
 4107 0daf A51A0000 		.4byte	0x1aa5
 4108 0db3 E80D0000 		.4byte	0xde8
 4109 0db7 0D       		.uleb128 0xd
 4110 0db8 01       		.uleb128 0x1
 4111 0db9 50       		.byte	0x50
 4112 0dba 02       		.uleb128 0x2
 4113 0dbb 08       		.byte	0x8
 4114 0dbc 82       		.byte	0x82
 4115 0dbd 0D       		.uleb128 0xd
 4116 0dbe 01       		.uleb128 0x1
 4117 0dbf 51       		.byte	0x51
 4118 0dc0 02       		.uleb128 0x2
 4119 0dc1 08       		.byte	0x8
 4120 0dc2 55       		.byte	0x55
 4121 0dc3 0D       		.uleb128 0xd
 4122 0dc4 01       		.uleb128 0x1
 4123 0dc5 52       		.byte	0x52
 4124 0dc6 02       		.uleb128 0x2
 4125 0dc7 08       		.byte	0x8
 4126 0dc8 46       		.byte	0x46
 4127 0dc9 0D       		.uleb128 0xd
 4128 0dca 01       		.uleb128 0x1
 4129 0dcb 53       		.byte	0x53
 4130 0dcc 02       		.uleb128 0x2
 4131 0dcd 08       		.byte	0x8
 4132 0dce 32       		.byte	0x32
 4133 0dcf 0D       		.uleb128 0xd
 4134 0dd0 02       		.uleb128 0x2
 4135 0dd1 7D       		.byte	0x7d
 4136 0dd2 00       		.sleb128 0
 4137 0dd3 02       		.uleb128 0x2
 4138 0dd4 75       		.byte	0x75
 4139 0dd5 00       		.sleb128 0
 4140 0dd6 0D       		.uleb128 0xd
ARM GAS  C:\Users\JACOB-~1\AppData\Local\Temp\cchboK4P.s 			page 82


 4141 0dd7 02       		.uleb128 0x2
 4142 0dd8 7D       		.byte	0x7d
 4143 0dd9 04       		.sleb128 4
 4144 0dda 02       		.uleb128 0x2
 4145 0ddb 74       		.byte	0x74
 4146 0ddc 00       		.sleb128 0
 4147 0ddd 0D       		.uleb128 0xd
 4148 0dde 02       		.uleb128 0x2
 4149 0ddf 7D       		.byte	0x7d
 4150 0de0 08       		.sleb128 8
 4151 0de1 05       		.uleb128 0x5
 4152 0de2 03       		.byte	0x3
 4153 0de3 14000000 		.4byte	.LC5
 4154 0de7 00       		.byte	0
 4155 0de8 0E       		.uleb128 0xe
 4156 0de9 86070000 		.4byte	.LVL121
 4157 0ded A51A0000 		.4byte	0x1aa5
 4158 0df1 0D       		.uleb128 0xd
 4159 0df2 01       		.uleb128 0x1
 4160 0df3 50       		.byte	0x50
 4161 0df4 02       		.uleb128 0x2
 4162 0df5 08       		.byte	0x8
 4163 0df6 55       		.byte	0x55
 4164 0df7 0D       		.uleb128 0xd
 4165 0df8 01       		.uleb128 0x1
 4166 0df9 51       		.byte	0x51
 4167 0dfa 02       		.uleb128 0x2
 4168 0dfb 08       		.byte	0x8
 4169 0dfc 9B       		.byte	0x9b
 4170 0dfd 0D       		.uleb128 0xd
 4171 0dfe 01       		.uleb128 0x1
 4172 0dff 52       		.byte	0x52
 4173 0e00 02       		.uleb128 0x2
 4174 0e01 08       		.byte	0x8
 4175 0e02 46       		.byte	0x46
 4176 0e03 0D       		.uleb128 0xd
 4177 0e04 01       		.uleb128 0x1
 4178 0e05 53       		.byte	0x53
 4179 0e06 02       		.uleb128 0x2
 4180 0e07 08       		.byte	0x8
 4181 0e08 32       		.byte	0x32
 4182 0e09 0D       		.uleb128 0xd
 4183 0e0a 02       		.uleb128 0x2
 4184 0e0b 7D       		.byte	0x7d
 4185 0e0c 00       		.sleb128 0
 4186 0e0d 02       		.uleb128 0x2
 4187 0e0e 75       		.byte	0x75
 4188 0e0f 00       		.sleb128 0
 4189 0e10 0D       		.uleb128 0xd
 4190 0e11 02       		.uleb128 0x2
 4191 0e12 7D       		.byte	0x7d
 4192 0e13 04       		.sleb128 4
 4193 0e14 02       		.uleb128 0x2
 4194 0e15 74       		.byte	0x74
 4195 0e16 00       		.sleb128 0
 4196 0e17 0D       		.uleb128 0xd
 4197 0e18 02       		.uleb128 0x2
ARM GAS  C:\Users\JACOB-~1\AppData\Local\Temp\cchboK4P.s 			page 83


 4198 0e19 7D       		.byte	0x7d
 4199 0e1a 08       		.sleb128 8
 4200 0e1b 05       		.uleb128 0x5
 4201 0e1c 03       		.byte	0x3
 4202 0e1d 18000000 		.4byte	.LC6
 4203 0e21 00       		.byte	0
 4204 0e22 00       		.byte	0
 4205 0e23 07       		.uleb128 0x7
 4206 0e24 94070000 		.4byte	.LBB34
 4207 0e28 74000000 		.4byte	.LBE34-.LBB34
 4208 0e2c 730F0000 		.4byte	0xf73
 4209 0e30 08       		.uleb128 0x8
 4210 0e31 86000000 		.4byte	.LASF27
 4211 0e35 01       		.byte	0x1
 4212 0e36 D4       		.byte	0xd4
 4213 0e37 73000000 		.4byte	0x73
 4214 0e3b 410E0000 		.4byte	0xe41
 4215 0e3f 09       		.uleb128 0x9
 4216 0e40 00       		.byte	0
 4217 0e41 0C       		.uleb128 0xc
 4218 0e42 B4070000 		.4byte	.LVL125
 4219 0e46 A51A0000 		.4byte	0x1aa5
 4220 0e4a 7E0E0000 		.4byte	0xe7e
 4221 0e4e 0D       		.uleb128 0xd
 4222 0e4f 01       		.uleb128 0x1
 4223 0e50 50       		.byte	0x50
 4224 0e51 02       		.uleb128 0x2
 4225 0e52 08       		.byte	0x8
 4226 0e53 28       		.byte	0x28
 4227 0e54 0D       		.uleb128 0xd
 4228 0e55 01       		.uleb128 0x1
 4229 0e56 51       		.byte	0x51
 4230 0e57 01       		.uleb128 0x1
 4231 0e58 3F       		.byte	0x3f
 4232 0e59 0D       		.uleb128 0xd
 4233 0e5a 01       		.uleb128 0x1
 4234 0e5b 52       		.byte	0x52
 4235 0e5c 02       		.uleb128 0x2
 4236 0e5d 08       		.byte	0x8
 4237 0e5e 46       		.byte	0x46
 4238 0e5f 0D       		.uleb128 0xd
 4239 0e60 01       		.uleb128 0x1
 4240 0e61 53       		.byte	0x53
 4241 0e62 02       		.uleb128 0x2
 4242 0e63 08       		.byte	0x8
 4243 0e64 32       		.byte	0x32
 4244 0e65 0D       		.uleb128 0xd
 4245 0e66 02       		.uleb128 0x2
 4246 0e67 7D       		.byte	0x7d
 4247 0e68 00       		.sleb128 0
 4248 0e69 02       		.uleb128 0x2
 4249 0e6a 75       		.byte	0x75
 4250 0e6b 00       		.sleb128 0
 4251 0e6c 0D       		.uleb128 0xd
 4252 0e6d 02       		.uleb128 0x2
 4253 0e6e 7D       		.byte	0x7d
 4254 0e6f 04       		.sleb128 4
ARM GAS  C:\Users\JACOB-~1\AppData\Local\Temp\cchboK4P.s 			page 84


 4255 0e70 02       		.uleb128 0x2
 4256 0e71 74       		.byte	0x74
 4257 0e72 00       		.sleb128 0
 4258 0e73 0D       		.uleb128 0xd
 4259 0e74 02       		.uleb128 0x2
 4260 0e75 7D       		.byte	0x7d
 4261 0e76 08       		.sleb128 8
 4262 0e77 05       		.uleb128 0x5
 4263 0e78 03       		.byte	0x3
 4264 0e79 08000000 		.4byte	.LC2
 4265 0e7d 00       		.byte	0
 4266 0e7e 0C       		.uleb128 0xc
 4267 0e7f C8070000 		.4byte	.LVL126
 4268 0e83 A51A0000 		.4byte	0x1aa5
 4269 0e87 BB0E0000 		.4byte	0xebb
 4270 0e8b 0D       		.uleb128 0xd
 4271 0e8c 01       		.uleb128 0x1
 4272 0e8d 50       		.byte	0x50
 4273 0e8e 02       		.uleb128 0x2
 4274 0e8f 08       		.byte	0x8
 4275 0e90 82       		.byte	0x82
 4276 0e91 0D       		.uleb128 0xd
 4277 0e92 01       		.uleb128 0x1
 4278 0e93 51       		.byte	0x51
 4279 0e94 01       		.uleb128 0x1
 4280 0e95 3F       		.byte	0x3f
 4281 0e96 0D       		.uleb128 0xd
 4282 0e97 01       		.uleb128 0x1
 4283 0e98 52       		.byte	0x52
 4284 0e99 02       		.uleb128 0x2
 4285 0e9a 08       		.byte	0x8
 4286 0e9b 46       		.byte	0x46
 4287 0e9c 0D       		.uleb128 0xd
 4288 0e9d 01       		.uleb128 0x1
 4289 0e9e 53       		.byte	0x53
 4290 0e9f 02       		.uleb128 0x2
 4291 0ea0 08       		.byte	0x8
 4292 0ea1 32       		.byte	0x32
 4293 0ea2 0D       		.uleb128 0xd
 4294 0ea3 02       		.uleb128 0x2
 4295 0ea4 7D       		.byte	0x7d
 4296 0ea5 00       		.sleb128 0
 4297 0ea6 02       		.uleb128 0x2
 4298 0ea7 75       		.byte	0x75
 4299 0ea8 00       		.sleb128 0
 4300 0ea9 0D       		.uleb128 0xd
 4301 0eaa 02       		.uleb128 0x2
 4302 0eab 7D       		.byte	0x7d
 4303 0eac 04       		.sleb128 4
 4304 0ead 02       		.uleb128 0x2
 4305 0eae 74       		.byte	0x74
 4306 0eaf 00       		.sleb128 0
 4307 0eb0 0D       		.uleb128 0xd
 4308 0eb1 02       		.uleb128 0x2
 4309 0eb2 7D       		.byte	0x7d
 4310 0eb3 08       		.sleb128 8
 4311 0eb4 05       		.uleb128 0x5
ARM GAS  C:\Users\JACOB-~1\AppData\Local\Temp\cchboK4P.s 			page 85


 4312 0eb5 03       		.byte	0x3
 4313 0eb6 0C000000 		.4byte	.LC3
 4314 0eba 00       		.byte	0
 4315 0ebb 0C       		.uleb128 0xc
 4316 0ebc E0070000 		.4byte	.LVL127
 4317 0ec0 A51A0000 		.4byte	0x1aa5
 4318 0ec4 FA0E0000 		.4byte	0xefa
 4319 0ec8 0D       		.uleb128 0xd
 4320 0ec9 01       		.uleb128 0x1
 4321 0eca 50       		.byte	0x50
 4322 0ecb 02       		.uleb128 0x2
 4323 0ecc 08       		.byte	0x8
 4324 0ecd 28       		.byte	0x28
 4325 0ece 0D       		.uleb128 0xd
 4326 0ecf 01       		.uleb128 0x1
 4327 0ed0 51       		.byte	0x51
 4328 0ed1 02       		.uleb128 0x2
 4329 0ed2 08       		.byte	0x8
 4330 0ed3 55       		.byte	0x55
 4331 0ed4 0D       		.uleb128 0xd
 4332 0ed5 01       		.uleb128 0x1
 4333 0ed6 52       		.byte	0x52
 4334 0ed7 02       		.uleb128 0x2
 4335 0ed8 08       		.byte	0x8
 4336 0ed9 46       		.byte	0x46
 4337 0eda 0D       		.uleb128 0xd
 4338 0edb 01       		.uleb128 0x1
 4339 0edc 53       		.byte	0x53
 4340 0edd 02       		.uleb128 0x2
 4341 0ede 08       		.byte	0x8
 4342 0edf 32       		.byte	0x32
 4343 0ee0 0D       		.uleb128 0xd
 4344 0ee1 02       		.uleb128 0x2
 4345 0ee2 7D       		.byte	0x7d
 4346 0ee3 00       		.sleb128 0
 4347 0ee4 03       		.uleb128 0x3
 4348 0ee5 0A       		.byte	0xa
 4349 0ee6 9F9E     		.2byte	0x9e9f
 4350 0ee8 0D       		.uleb128 0xd
 4351 0ee9 02       		.uleb128 0x2
 4352 0eea 7D       		.byte	0x7d
 4353 0eeb 04       		.sleb128 4
 4354 0eec 02       		.uleb128 0x2
 4355 0eed 74       		.byte	0x74
 4356 0eee 00       		.sleb128 0
 4357 0eef 0D       		.uleb128 0xd
 4358 0ef0 02       		.uleb128 0x2
 4359 0ef1 7D       		.byte	0x7d
 4360 0ef2 08       		.sleb128 8
 4361 0ef3 05       		.uleb128 0x5
 4362 0ef4 03       		.byte	0x3
 4363 0ef5 10000000 		.4byte	.LC4
 4364 0ef9 00       		.byte	0
 4365 0efa 0C       		.uleb128 0xc
 4366 0efb F4070000 		.4byte	.LVL128
 4367 0eff A51A0000 		.4byte	0x1aa5
 4368 0f03 380F0000 		.4byte	0xf38
ARM GAS  C:\Users\JACOB-~1\AppData\Local\Temp\cchboK4P.s 			page 86


 4369 0f07 0D       		.uleb128 0xd
 4370 0f08 01       		.uleb128 0x1
 4371 0f09 50       		.byte	0x50
 4372 0f0a 02       		.uleb128 0x2
 4373 0f0b 08       		.byte	0x8
 4374 0f0c 82       		.byte	0x82
 4375 0f0d 0D       		.uleb128 0xd
 4376 0f0e 01       		.uleb128 0x1
 4377 0f0f 51       		.byte	0x51
 4378 0f10 02       		.uleb128 0x2
 4379 0f11 08       		.byte	0x8
 4380 0f12 55       		.byte	0x55
 4381 0f13 0D       		.uleb128 0xd
 4382 0f14 01       		.uleb128 0x1
 4383 0f15 52       		.byte	0x52
 4384 0f16 02       		.uleb128 0x2
 4385 0f17 08       		.byte	0x8
 4386 0f18 46       		.byte	0x46
 4387 0f19 0D       		.uleb128 0xd
 4388 0f1a 01       		.uleb128 0x1
 4389 0f1b 53       		.byte	0x53
 4390 0f1c 02       		.uleb128 0x2
 4391 0f1d 08       		.byte	0x8
 4392 0f1e 32       		.byte	0x32
 4393 0f1f 0D       		.uleb128 0xd
 4394 0f20 02       		.uleb128 0x2
 4395 0f21 7D       		.byte	0x7d
 4396 0f22 00       		.sleb128 0
 4397 0f23 02       		.uleb128 0x2
 4398 0f24 75       		.byte	0x75
 4399 0f25 00       		.sleb128 0
 4400 0f26 0D       		.uleb128 0xd
 4401 0f27 02       		.uleb128 0x2
 4402 0f28 7D       		.byte	0x7d
 4403 0f29 04       		.sleb128 4
 4404 0f2a 02       		.uleb128 0x2
 4405 0f2b 74       		.byte	0x74
 4406 0f2c 00       		.sleb128 0
 4407 0f2d 0D       		.uleb128 0xd
 4408 0f2e 02       		.uleb128 0x2
 4409 0f2f 7D       		.byte	0x7d
 4410 0f30 08       		.sleb128 8
 4411 0f31 05       		.uleb128 0x5
 4412 0f32 03       		.byte	0x3
 4413 0f33 14000000 		.4byte	.LC5
 4414 0f37 00       		.byte	0
 4415 0f38 0E       		.uleb128 0xe
 4416 0f39 08080000 		.4byte	.LVL129
 4417 0f3d A51A0000 		.4byte	0x1aa5
 4418 0f41 0D       		.uleb128 0xd
 4419 0f42 01       		.uleb128 0x1
 4420 0f43 50       		.byte	0x50
 4421 0f44 02       		.uleb128 0x2
 4422 0f45 08       		.byte	0x8
 4423 0f46 55       		.byte	0x55
 4424 0f47 0D       		.uleb128 0xd
 4425 0f48 01       		.uleb128 0x1
ARM GAS  C:\Users\JACOB-~1\AppData\Local\Temp\cchboK4P.s 			page 87


 4426 0f49 51       		.byte	0x51
 4427 0f4a 02       		.uleb128 0x2
 4428 0f4b 08       		.byte	0x8
 4429 0f4c 9B       		.byte	0x9b
 4430 0f4d 0D       		.uleb128 0xd
 4431 0f4e 01       		.uleb128 0x1
 4432 0f4f 52       		.byte	0x52
 4433 0f50 02       		.uleb128 0x2
 4434 0f51 08       		.byte	0x8
 4435 0f52 46       		.byte	0x46
 4436 0f53 0D       		.uleb128 0xd
 4437 0f54 01       		.uleb128 0x1
 4438 0f55 53       		.byte	0x53
 4439 0f56 02       		.uleb128 0x2
 4440 0f57 08       		.byte	0x8
 4441 0f58 32       		.byte	0x32
 4442 0f59 0D       		.uleb128 0xd
 4443 0f5a 02       		.uleb128 0x2
 4444 0f5b 7D       		.byte	0x7d
 4445 0f5c 00       		.sleb128 0
 4446 0f5d 02       		.uleb128 0x2
 4447 0f5e 75       		.byte	0x75
 4448 0f5f 00       		.sleb128 0
 4449 0f60 0D       		.uleb128 0xd
 4450 0f61 02       		.uleb128 0x2
 4451 0f62 7D       		.byte	0x7d
 4452 0f63 04       		.sleb128 4
 4453 0f64 02       		.uleb128 0x2
 4454 0f65 74       		.byte	0x74
 4455 0f66 00       		.sleb128 0
 4456 0f67 0D       		.uleb128 0xd
 4457 0f68 02       		.uleb128 0x2
 4458 0f69 7D       		.byte	0x7d
 4459 0f6a 08       		.sleb128 8
 4460 0f6b 05       		.uleb128 0x5
 4461 0f6c 03       		.byte	0x3
 4462 0f6d 18000000 		.4byte	.LC6
 4463 0f71 00       		.byte	0
 4464 0f72 00       		.byte	0
 4465 0f73 07       		.uleb128 0x7
 4466 0f74 3C080000 		.4byte	.LBB35
 4467 0f78 74000000 		.4byte	.LBE35-.LBB35
 4468 0f7c C3100000 		.4byte	0x10c3
 4469 0f80 08       		.uleb128 0x8
 4470 0f81 86000000 		.4byte	.LASF27
 4471 0f85 01       		.byte	0x1
 4472 0f86 D4       		.byte	0xd4
 4473 0f87 73000000 		.4byte	0x73
 4474 0f8b 910F0000 		.4byte	0xf91
 4475 0f8f 09       		.uleb128 0x9
 4476 0f90 00       		.byte	0
 4477 0f91 0C       		.uleb128 0xc
 4478 0f92 5C080000 		.4byte	.LVL133
 4479 0f96 A51A0000 		.4byte	0x1aa5
 4480 0f9a CE0F0000 		.4byte	0xfce
 4481 0f9e 0D       		.uleb128 0xd
 4482 0f9f 01       		.uleb128 0x1
ARM GAS  C:\Users\JACOB-~1\AppData\Local\Temp\cchboK4P.s 			page 88


 4483 0fa0 50       		.byte	0x50
 4484 0fa1 02       		.uleb128 0x2
 4485 0fa2 08       		.byte	0x8
 4486 0fa3 28       		.byte	0x28
 4487 0fa4 0D       		.uleb128 0xd
 4488 0fa5 01       		.uleb128 0x1
 4489 0fa6 51       		.byte	0x51
 4490 0fa7 01       		.uleb128 0x1
 4491 0fa8 3F       		.byte	0x3f
 4492 0fa9 0D       		.uleb128 0xd
 4493 0faa 01       		.uleb128 0x1
 4494 0fab 52       		.byte	0x52
 4495 0fac 02       		.uleb128 0x2
 4496 0fad 08       		.byte	0x8
 4497 0fae 46       		.byte	0x46
 4498 0faf 0D       		.uleb128 0xd
 4499 0fb0 01       		.uleb128 0x1
 4500 0fb1 53       		.byte	0x53
 4501 0fb2 02       		.uleb128 0x2
 4502 0fb3 08       		.byte	0x8
 4503 0fb4 32       		.byte	0x32
 4504 0fb5 0D       		.uleb128 0xd
 4505 0fb6 02       		.uleb128 0x2
 4506 0fb7 7D       		.byte	0x7d
 4507 0fb8 00       		.sleb128 0
 4508 0fb9 02       		.uleb128 0x2
 4509 0fba 75       		.byte	0x75
 4510 0fbb 00       		.sleb128 0
 4511 0fbc 0D       		.uleb128 0xd
 4512 0fbd 02       		.uleb128 0x2
 4513 0fbe 7D       		.byte	0x7d
 4514 0fbf 04       		.sleb128 4
 4515 0fc0 02       		.uleb128 0x2
 4516 0fc1 74       		.byte	0x74
 4517 0fc2 00       		.sleb128 0
 4518 0fc3 0D       		.uleb128 0xd
 4519 0fc4 02       		.uleb128 0x2
 4520 0fc5 7D       		.byte	0x7d
 4521 0fc6 08       		.sleb128 8
 4522 0fc7 05       		.uleb128 0x5
 4523 0fc8 03       		.byte	0x3
 4524 0fc9 08000000 		.4byte	.LC2
 4525 0fcd 00       		.byte	0
 4526 0fce 0C       		.uleb128 0xc
 4527 0fcf 70080000 		.4byte	.LVL134
 4528 0fd3 A51A0000 		.4byte	0x1aa5
 4529 0fd7 0B100000 		.4byte	0x100b
 4530 0fdb 0D       		.uleb128 0xd
 4531 0fdc 01       		.uleb128 0x1
 4532 0fdd 50       		.byte	0x50
 4533 0fde 02       		.uleb128 0x2
 4534 0fdf 08       		.byte	0x8
 4535 0fe0 82       		.byte	0x82
 4536 0fe1 0D       		.uleb128 0xd
 4537 0fe2 01       		.uleb128 0x1
 4538 0fe3 51       		.byte	0x51
 4539 0fe4 01       		.uleb128 0x1
ARM GAS  C:\Users\JACOB-~1\AppData\Local\Temp\cchboK4P.s 			page 89


 4540 0fe5 3F       		.byte	0x3f
 4541 0fe6 0D       		.uleb128 0xd
 4542 0fe7 01       		.uleb128 0x1
 4543 0fe8 52       		.byte	0x52
 4544 0fe9 02       		.uleb128 0x2
 4545 0fea 08       		.byte	0x8
 4546 0feb 46       		.byte	0x46
 4547 0fec 0D       		.uleb128 0xd
 4548 0fed 01       		.uleb128 0x1
 4549 0fee 53       		.byte	0x53
 4550 0fef 02       		.uleb128 0x2
 4551 0ff0 08       		.byte	0x8
 4552 0ff1 32       		.byte	0x32
 4553 0ff2 0D       		.uleb128 0xd
 4554 0ff3 02       		.uleb128 0x2
 4555 0ff4 7D       		.byte	0x7d
 4556 0ff5 00       		.sleb128 0
 4557 0ff6 02       		.uleb128 0x2
 4558 0ff7 75       		.byte	0x75
 4559 0ff8 00       		.sleb128 0
 4560 0ff9 0D       		.uleb128 0xd
 4561 0ffa 02       		.uleb128 0x2
 4562 0ffb 7D       		.byte	0x7d
 4563 0ffc 04       		.sleb128 4
 4564 0ffd 02       		.uleb128 0x2
 4565 0ffe 74       		.byte	0x74
 4566 0fff 00       		.sleb128 0
 4567 1000 0D       		.uleb128 0xd
 4568 1001 02       		.uleb128 0x2
 4569 1002 7D       		.byte	0x7d
 4570 1003 08       		.sleb128 8
 4571 1004 05       		.uleb128 0x5
 4572 1005 03       		.byte	0x3
 4573 1006 0C000000 		.4byte	.LC3
 4574 100a 00       		.byte	0
 4575 100b 0C       		.uleb128 0xc
 4576 100c 84080000 		.4byte	.LVL135
 4577 1010 A51A0000 		.4byte	0x1aa5
 4578 1014 49100000 		.4byte	0x1049
 4579 1018 0D       		.uleb128 0xd
 4580 1019 01       		.uleb128 0x1
 4581 101a 50       		.byte	0x50
 4582 101b 02       		.uleb128 0x2
 4583 101c 08       		.byte	0x8
 4584 101d 28       		.byte	0x28
 4585 101e 0D       		.uleb128 0xd
 4586 101f 01       		.uleb128 0x1
 4587 1020 51       		.byte	0x51
 4588 1021 02       		.uleb128 0x2
 4589 1022 08       		.byte	0x8
 4590 1023 55       		.byte	0x55
 4591 1024 0D       		.uleb128 0xd
 4592 1025 01       		.uleb128 0x1
 4593 1026 52       		.byte	0x52
 4594 1027 02       		.uleb128 0x2
 4595 1028 08       		.byte	0x8
 4596 1029 46       		.byte	0x46
ARM GAS  C:\Users\JACOB-~1\AppData\Local\Temp\cchboK4P.s 			page 90


 4597 102a 0D       		.uleb128 0xd
 4598 102b 01       		.uleb128 0x1
 4599 102c 53       		.byte	0x53
 4600 102d 02       		.uleb128 0x2
 4601 102e 08       		.byte	0x8
 4602 102f 32       		.byte	0x32
 4603 1030 0D       		.uleb128 0xd
 4604 1031 02       		.uleb128 0x2
 4605 1032 7D       		.byte	0x7d
 4606 1033 00       		.sleb128 0
 4607 1034 02       		.uleb128 0x2
 4608 1035 75       		.byte	0x75
 4609 1036 00       		.sleb128 0
 4610 1037 0D       		.uleb128 0xd
 4611 1038 02       		.uleb128 0x2
 4612 1039 7D       		.byte	0x7d
 4613 103a 04       		.sleb128 4
 4614 103b 02       		.uleb128 0x2
 4615 103c 74       		.byte	0x74
 4616 103d 00       		.sleb128 0
 4617 103e 0D       		.uleb128 0xd
 4618 103f 02       		.uleb128 0x2
 4619 1040 7D       		.byte	0x7d
 4620 1041 08       		.sleb128 8
 4621 1042 05       		.uleb128 0x5
 4622 1043 03       		.byte	0x3
 4623 1044 10000000 		.4byte	.LC4
 4624 1048 00       		.byte	0
 4625 1049 0C       		.uleb128 0xc
 4626 104a 9C080000 		.4byte	.LVL136
 4627 104e A51A0000 		.4byte	0x1aa5
 4628 1052 88100000 		.4byte	0x1088
 4629 1056 0D       		.uleb128 0xd
 4630 1057 01       		.uleb128 0x1
 4631 1058 50       		.byte	0x50
 4632 1059 02       		.uleb128 0x2
 4633 105a 08       		.byte	0x8
 4634 105b 82       		.byte	0x82
 4635 105c 0D       		.uleb128 0xd
 4636 105d 01       		.uleb128 0x1
 4637 105e 51       		.byte	0x51
 4638 105f 02       		.uleb128 0x2
 4639 1060 08       		.byte	0x8
 4640 1061 55       		.byte	0x55
 4641 1062 0D       		.uleb128 0xd
 4642 1063 01       		.uleb128 0x1
 4643 1064 52       		.byte	0x52
 4644 1065 02       		.uleb128 0x2
 4645 1066 08       		.byte	0x8
 4646 1067 46       		.byte	0x46
 4647 1068 0D       		.uleb128 0xd
 4648 1069 01       		.uleb128 0x1
 4649 106a 53       		.byte	0x53
 4650 106b 02       		.uleb128 0x2
 4651 106c 08       		.byte	0x8
 4652 106d 32       		.byte	0x32
 4653 106e 0D       		.uleb128 0xd
ARM GAS  C:\Users\JACOB-~1\AppData\Local\Temp\cchboK4P.s 			page 91


 4654 106f 02       		.uleb128 0x2
 4655 1070 7D       		.byte	0x7d
 4656 1071 00       		.sleb128 0
 4657 1072 03       		.uleb128 0x3
 4658 1073 0A       		.byte	0xa
 4659 1074 9F9E     		.2byte	0x9e9f
 4660 1076 0D       		.uleb128 0xd
 4661 1077 02       		.uleb128 0x2
 4662 1078 7D       		.byte	0x7d
 4663 1079 04       		.sleb128 4
 4664 107a 02       		.uleb128 0x2
 4665 107b 74       		.byte	0x74
 4666 107c 00       		.sleb128 0
 4667 107d 0D       		.uleb128 0xd
 4668 107e 02       		.uleb128 0x2
 4669 107f 7D       		.byte	0x7d
 4670 1080 08       		.sleb128 8
 4671 1081 05       		.uleb128 0x5
 4672 1082 03       		.byte	0x3
 4673 1083 14000000 		.4byte	.LC5
 4674 1087 00       		.byte	0
 4675 1088 0E       		.uleb128 0xe
 4676 1089 B0080000 		.4byte	.LVL137
 4677 108d A51A0000 		.4byte	0x1aa5
 4678 1091 0D       		.uleb128 0xd
 4679 1092 01       		.uleb128 0x1
 4680 1093 50       		.byte	0x50
 4681 1094 02       		.uleb128 0x2
 4682 1095 08       		.byte	0x8
 4683 1096 55       		.byte	0x55
 4684 1097 0D       		.uleb128 0xd
 4685 1098 01       		.uleb128 0x1
 4686 1099 51       		.byte	0x51
 4687 109a 02       		.uleb128 0x2
 4688 109b 08       		.byte	0x8
 4689 109c 9B       		.byte	0x9b
 4690 109d 0D       		.uleb128 0xd
 4691 109e 01       		.uleb128 0x1
 4692 109f 52       		.byte	0x52
 4693 10a0 02       		.uleb128 0x2
 4694 10a1 08       		.byte	0x8
 4695 10a2 46       		.byte	0x46
 4696 10a3 0D       		.uleb128 0xd
 4697 10a4 01       		.uleb128 0x1
 4698 10a5 53       		.byte	0x53
 4699 10a6 02       		.uleb128 0x2
 4700 10a7 08       		.byte	0x8
 4701 10a8 32       		.byte	0x32
 4702 10a9 0D       		.uleb128 0xd
 4703 10aa 02       		.uleb128 0x2
 4704 10ab 7D       		.byte	0x7d
 4705 10ac 00       		.sleb128 0
 4706 10ad 02       		.uleb128 0x2
 4707 10ae 75       		.byte	0x75
 4708 10af 00       		.sleb128 0
 4709 10b0 0D       		.uleb128 0xd
 4710 10b1 02       		.uleb128 0x2
ARM GAS  C:\Users\JACOB-~1\AppData\Local\Temp\cchboK4P.s 			page 92


 4711 10b2 7D       		.byte	0x7d
 4712 10b3 04       		.sleb128 4
 4713 10b4 02       		.uleb128 0x2
 4714 10b5 74       		.byte	0x74
 4715 10b6 00       		.sleb128 0
 4716 10b7 0D       		.uleb128 0xd
 4717 10b8 02       		.uleb128 0x2
 4718 10b9 7D       		.byte	0x7d
 4719 10ba 08       		.sleb128 8
 4720 10bb 05       		.uleb128 0x5
 4721 10bc 03       		.byte	0x3
 4722 10bd 18000000 		.4byte	.LC6
 4723 10c1 00       		.byte	0
 4724 10c2 00       		.byte	0
 4725 10c3 07       		.uleb128 0x7
 4726 10c4 C8080000 		.4byte	.LBB36
 4727 10c8 74000000 		.4byte	.LBE36-.LBB36
 4728 10cc 13120000 		.4byte	0x1213
 4729 10d0 08       		.uleb128 0x8
 4730 10d1 86000000 		.4byte	.LASF27
 4731 10d5 01       		.byte	0x1
 4732 10d6 D4       		.byte	0xd4
 4733 10d7 73000000 		.4byte	0x73
 4734 10db E1100000 		.4byte	0x10e1
 4735 10df 09       		.uleb128 0x9
 4736 10e0 00       		.byte	0
 4737 10e1 0C       		.uleb128 0xc
 4738 10e2 E6080000 		.4byte	.LVL141
 4739 10e6 A51A0000 		.4byte	0x1aa5
 4740 10ea 1E110000 		.4byte	0x111e
 4741 10ee 0D       		.uleb128 0xd
 4742 10ef 01       		.uleb128 0x1
 4743 10f0 50       		.byte	0x50
 4744 10f1 02       		.uleb128 0x2
 4745 10f2 08       		.byte	0x8
 4746 10f3 28       		.byte	0x28
 4747 10f4 0D       		.uleb128 0xd
 4748 10f5 01       		.uleb128 0x1
 4749 10f6 51       		.byte	0x51
 4750 10f7 01       		.uleb128 0x1
 4751 10f8 3F       		.byte	0x3f
 4752 10f9 0D       		.uleb128 0xd
 4753 10fa 01       		.uleb128 0x1
 4754 10fb 52       		.byte	0x52
 4755 10fc 02       		.uleb128 0x2
 4756 10fd 08       		.byte	0x8
 4757 10fe 46       		.byte	0x46
 4758 10ff 0D       		.uleb128 0xd
 4759 1100 01       		.uleb128 0x1
 4760 1101 53       		.byte	0x53
 4761 1102 02       		.uleb128 0x2
 4762 1103 08       		.byte	0x8
 4763 1104 32       		.byte	0x32
 4764 1105 0D       		.uleb128 0xd
 4765 1106 02       		.uleb128 0x2
 4766 1107 7D       		.byte	0x7d
 4767 1108 00       		.sleb128 0
ARM GAS  C:\Users\JACOB-~1\AppData\Local\Temp\cchboK4P.s 			page 93


 4768 1109 02       		.uleb128 0x2
 4769 110a 75       		.byte	0x75
 4770 110b 00       		.sleb128 0
 4771 110c 0D       		.uleb128 0xd
 4772 110d 02       		.uleb128 0x2
 4773 110e 7D       		.byte	0x7d
 4774 110f 04       		.sleb128 4
 4775 1110 02       		.uleb128 0x2
 4776 1111 74       		.byte	0x74
 4777 1112 00       		.sleb128 0
 4778 1113 0D       		.uleb128 0xd
 4779 1114 02       		.uleb128 0x2
 4780 1115 7D       		.byte	0x7d
 4781 1116 08       		.sleb128 8
 4782 1117 05       		.uleb128 0x5
 4783 1118 03       		.byte	0x3
 4784 1119 08000000 		.4byte	.LC2
 4785 111d 00       		.byte	0
 4786 111e 0C       		.uleb128 0xc
 4787 111f FA080000 		.4byte	.LVL142
 4788 1123 A51A0000 		.4byte	0x1aa5
 4789 1127 5B110000 		.4byte	0x115b
 4790 112b 0D       		.uleb128 0xd
 4791 112c 01       		.uleb128 0x1
 4792 112d 50       		.byte	0x50
 4793 112e 02       		.uleb128 0x2
 4794 112f 08       		.byte	0x8
 4795 1130 82       		.byte	0x82
 4796 1131 0D       		.uleb128 0xd
 4797 1132 01       		.uleb128 0x1
 4798 1133 51       		.byte	0x51
 4799 1134 01       		.uleb128 0x1
 4800 1135 3F       		.byte	0x3f
 4801 1136 0D       		.uleb128 0xd
 4802 1137 01       		.uleb128 0x1
 4803 1138 52       		.byte	0x52
 4804 1139 02       		.uleb128 0x2
 4805 113a 08       		.byte	0x8
 4806 113b 46       		.byte	0x46
 4807 113c 0D       		.uleb128 0xd
 4808 113d 01       		.uleb128 0x1
 4809 113e 53       		.byte	0x53
 4810 113f 02       		.uleb128 0x2
 4811 1140 08       		.byte	0x8
 4812 1141 32       		.byte	0x32
 4813 1142 0D       		.uleb128 0xd
 4814 1143 02       		.uleb128 0x2
 4815 1144 7D       		.byte	0x7d
 4816 1145 00       		.sleb128 0
 4817 1146 02       		.uleb128 0x2
 4818 1147 75       		.byte	0x75
 4819 1148 00       		.sleb128 0
 4820 1149 0D       		.uleb128 0xd
 4821 114a 02       		.uleb128 0x2
 4822 114b 7D       		.byte	0x7d
 4823 114c 04       		.sleb128 4
 4824 114d 02       		.uleb128 0x2
ARM GAS  C:\Users\JACOB-~1\AppData\Local\Temp\cchboK4P.s 			page 94


 4825 114e 74       		.byte	0x74
 4826 114f 00       		.sleb128 0
 4827 1150 0D       		.uleb128 0xd
 4828 1151 02       		.uleb128 0x2
 4829 1152 7D       		.byte	0x7d
 4830 1153 08       		.sleb128 8
 4831 1154 05       		.uleb128 0x5
 4832 1155 03       		.byte	0x3
 4833 1156 0C000000 		.4byte	.LC3
 4834 115a 00       		.byte	0
 4835 115b 0C       		.uleb128 0xc
 4836 115c 0E090000 		.4byte	.LVL143
 4837 1160 A51A0000 		.4byte	0x1aa5
 4838 1164 99110000 		.4byte	0x1199
 4839 1168 0D       		.uleb128 0xd
 4840 1169 01       		.uleb128 0x1
 4841 116a 50       		.byte	0x50
 4842 116b 02       		.uleb128 0x2
 4843 116c 08       		.byte	0x8
 4844 116d 28       		.byte	0x28
 4845 116e 0D       		.uleb128 0xd
 4846 116f 01       		.uleb128 0x1
 4847 1170 51       		.byte	0x51
 4848 1171 02       		.uleb128 0x2
 4849 1172 08       		.byte	0x8
 4850 1173 55       		.byte	0x55
 4851 1174 0D       		.uleb128 0xd
 4852 1175 01       		.uleb128 0x1
 4853 1176 52       		.byte	0x52
 4854 1177 02       		.uleb128 0x2
 4855 1178 08       		.byte	0x8
 4856 1179 46       		.byte	0x46
 4857 117a 0D       		.uleb128 0xd
 4858 117b 01       		.uleb128 0x1
 4859 117c 53       		.byte	0x53
 4860 117d 02       		.uleb128 0x2
 4861 117e 08       		.byte	0x8
 4862 117f 32       		.byte	0x32
 4863 1180 0D       		.uleb128 0xd
 4864 1181 02       		.uleb128 0x2
 4865 1182 7D       		.byte	0x7d
 4866 1183 00       		.sleb128 0
 4867 1184 02       		.uleb128 0x2
 4868 1185 75       		.byte	0x75
 4869 1186 00       		.sleb128 0
 4870 1187 0D       		.uleb128 0xd
 4871 1188 02       		.uleb128 0x2
 4872 1189 7D       		.byte	0x7d
 4873 118a 04       		.sleb128 4
 4874 118b 02       		.uleb128 0x2
 4875 118c 74       		.byte	0x74
 4876 118d 00       		.sleb128 0
 4877 118e 0D       		.uleb128 0xd
 4878 118f 02       		.uleb128 0x2
 4879 1190 7D       		.byte	0x7d
 4880 1191 08       		.sleb128 8
 4881 1192 05       		.uleb128 0x5
ARM GAS  C:\Users\JACOB-~1\AppData\Local\Temp\cchboK4P.s 			page 95


 4882 1193 03       		.byte	0x3
 4883 1194 10000000 		.4byte	.LC4
 4884 1198 00       		.byte	0
 4885 1199 0C       		.uleb128 0xc
 4886 119a 22090000 		.4byte	.LVL144
 4887 119e A51A0000 		.4byte	0x1aa5
 4888 11a2 D7110000 		.4byte	0x11d7
 4889 11a6 0D       		.uleb128 0xd
 4890 11a7 01       		.uleb128 0x1
 4891 11a8 50       		.byte	0x50
 4892 11a9 02       		.uleb128 0x2
 4893 11aa 08       		.byte	0x8
 4894 11ab 82       		.byte	0x82
 4895 11ac 0D       		.uleb128 0xd
 4896 11ad 01       		.uleb128 0x1
 4897 11ae 51       		.byte	0x51
 4898 11af 02       		.uleb128 0x2
 4899 11b0 08       		.byte	0x8
 4900 11b1 55       		.byte	0x55
 4901 11b2 0D       		.uleb128 0xd
 4902 11b3 01       		.uleb128 0x1
 4903 11b4 52       		.byte	0x52
 4904 11b5 02       		.uleb128 0x2
 4905 11b6 08       		.byte	0x8
 4906 11b7 46       		.byte	0x46
 4907 11b8 0D       		.uleb128 0xd
 4908 11b9 01       		.uleb128 0x1
 4909 11ba 53       		.byte	0x53
 4910 11bb 02       		.uleb128 0x2
 4911 11bc 08       		.byte	0x8
 4912 11bd 32       		.byte	0x32
 4913 11be 0D       		.uleb128 0xd
 4914 11bf 02       		.uleb128 0x2
 4915 11c0 7D       		.byte	0x7d
 4916 11c1 00       		.sleb128 0
 4917 11c2 02       		.uleb128 0x2
 4918 11c3 75       		.byte	0x75
 4919 11c4 00       		.sleb128 0
 4920 11c5 0D       		.uleb128 0xd
 4921 11c6 02       		.uleb128 0x2
 4922 11c7 7D       		.byte	0x7d
 4923 11c8 04       		.sleb128 4
 4924 11c9 02       		.uleb128 0x2
 4925 11ca 74       		.byte	0x74
 4926 11cb 00       		.sleb128 0
 4927 11cc 0D       		.uleb128 0xd
 4928 11cd 02       		.uleb128 0x2
 4929 11ce 7D       		.byte	0x7d
 4930 11cf 08       		.sleb128 8
 4931 11d0 05       		.uleb128 0x5
 4932 11d1 03       		.byte	0x3
 4933 11d2 14000000 		.4byte	.LC5
 4934 11d6 00       		.byte	0
 4935 11d7 0E       		.uleb128 0xe
 4936 11d8 3A090000 		.4byte	.LVL145
 4937 11dc A51A0000 		.4byte	0x1aa5
 4938 11e0 0D       		.uleb128 0xd
ARM GAS  C:\Users\JACOB-~1\AppData\Local\Temp\cchboK4P.s 			page 96


 4939 11e1 01       		.uleb128 0x1
 4940 11e2 50       		.byte	0x50
 4941 11e3 02       		.uleb128 0x2
 4942 11e4 08       		.byte	0x8
 4943 11e5 55       		.byte	0x55
 4944 11e6 0D       		.uleb128 0xd
 4945 11e7 01       		.uleb128 0x1
 4946 11e8 51       		.byte	0x51
 4947 11e9 02       		.uleb128 0x2
 4948 11ea 08       		.byte	0x8
 4949 11eb 9B       		.byte	0x9b
 4950 11ec 0D       		.uleb128 0xd
 4951 11ed 01       		.uleb128 0x1
 4952 11ee 52       		.byte	0x52
 4953 11ef 02       		.uleb128 0x2
 4954 11f0 08       		.byte	0x8
 4955 11f1 46       		.byte	0x46
 4956 11f2 0D       		.uleb128 0xd
 4957 11f3 01       		.uleb128 0x1
 4958 11f4 53       		.byte	0x53
 4959 11f5 02       		.uleb128 0x2
 4960 11f6 08       		.byte	0x8
 4961 11f7 32       		.byte	0x32
 4962 11f8 0D       		.uleb128 0xd
 4963 11f9 02       		.uleb128 0x2
 4964 11fa 7D       		.byte	0x7d
 4965 11fb 00       		.sleb128 0
 4966 11fc 03       		.uleb128 0x3
 4967 11fd 0A       		.byte	0xa
 4968 11fe 9F9E     		.2byte	0x9e9f
 4969 1200 0D       		.uleb128 0xd
 4970 1201 02       		.uleb128 0x2
 4971 1202 7D       		.byte	0x7d
 4972 1203 04       		.sleb128 4
 4973 1204 02       		.uleb128 0x2
 4974 1205 74       		.byte	0x74
 4975 1206 00       		.sleb128 0
 4976 1207 0D       		.uleb128 0xd
 4977 1208 02       		.uleb128 0x2
 4978 1209 7D       		.byte	0x7d
 4979 120a 08       		.sleb128 8
 4980 120b 05       		.uleb128 0x5
 4981 120c 03       		.byte	0x3
 4982 120d 18000000 		.4byte	.LC6
 4983 1211 00       		.byte	0
 4984 1212 00       		.byte	0
 4985 1213 07       		.uleb128 0x7
 4986 1214 4A090000 		.4byte	.LBB37
 4987 1218 04000000 		.4byte	.LBE37-.LBB37
 4988 121c 3B120000 		.4byte	0x123b
 4989 1220 08       		.uleb128 0x8
 4990 1221 6C040000 		.4byte	.LASF21
 4991 1225 01       		.byte	0x1
 4992 1226 58       		.byte	0x58
 4993 1227 73000000 		.4byte	0x73
 4994 122b 31120000 		.4byte	0x1231
 4995 122f 09       		.uleb128 0x9
ARM GAS  C:\Users\JACOB-~1\AppData\Local\Temp\cchboK4P.s 			page 97


 4996 1230 00       		.byte	0
 4997 1231 0A       		.uleb128 0xa
 4998 1232 4E090000 		.4byte	.LVL147
 4999 1236 631A0000 		.4byte	0x1a63
 5000 123a 00       		.byte	0
 5001 123b 07       		.uleb128 0x7
 5002 123c 60090000 		.4byte	.LBB38
 5003 1240 44000000 		.4byte	.LBE38-.LBB38
 5004 1244 E7120000 		.4byte	0x12e7
 5005 1248 08       		.uleb128 0x8
 5006 1249 63030000 		.4byte	.LASF24
 5007 124d 01       		.byte	0x1
 5008 124e 7F       		.byte	0x7f
 5009 124f 73000000 		.4byte	0x73
 5010 1253 59120000 		.4byte	0x1259
 5011 1257 09       		.uleb128 0x9
 5012 1258 00       		.byte	0
 5013 1259 0F       		.uleb128 0xf
 5014 125a 2A030000 		.4byte	.LASF32
 5015 125e 01       		.byte	0x1
 5016 125f 8901     		.2byte	0x189
 5017 1261 4C140000 		.4byte	0x144c
 5018 1265 02       		.uleb128 0x2
 5019 1266 91       		.byte	0x91
 5020 1267 6C       		.sleb128 -20
 5021 1268 08       		.uleb128 0x8
 5022 1269 FE000000 		.4byte	.LASF25
 5023 126d 01       		.byte	0x1
 5024 126e 84       		.byte	0x84
 5025 126f 73000000 		.4byte	0x73
 5026 1273 79120000 		.4byte	0x1279
 5027 1277 09       		.uleb128 0x9
 5028 1278 00       		.byte	0
 5029 1279 0C       		.uleb128 0xc
 5030 127a 86090000 		.4byte	.LVL151
 5031 127e 841A0000 		.4byte	0x1a84
 5032 1282 A4120000 		.4byte	0x12a4
 5033 1286 0D       		.uleb128 0xd
 5034 1287 01       		.uleb128 0x1
 5035 1288 50       		.byte	0x50
 5036 1289 02       		.uleb128 0x2
 5037 128a 08       		.byte	0x8
 5038 128b 28       		.byte	0x28
 5039 128c 0D       		.uleb128 0xd
 5040 128d 01       		.uleb128 0x1
 5041 128e 51       		.byte	0x51
 5042 128f 02       		.uleb128 0x2
 5043 1290 08       		.byte	0x8
 5044 1291 5F       		.byte	0x5f
 5045 1292 0D       		.uleb128 0xd
 5046 1293 01       		.uleb128 0x1
 5047 1294 52       		.byte	0x52
 5048 1295 02       		.uleb128 0x2
 5049 1296 08       		.byte	0x8
 5050 1297 3C       		.byte	0x3c
 5051 1298 0D       		.uleb128 0xd
 5052 1299 01       		.uleb128 0x1
ARM GAS  C:\Users\JACOB-~1\AppData\Local\Temp\cchboK4P.s 			page 98


 5053 129a 53       		.byte	0x53
 5054 129b 01       		.uleb128 0x1
 5055 129c 4E       		.byte	0x4e
 5056 129d 0D       		.uleb128 0xd
 5057 129e 02       		.uleb128 0x2
 5058 129f 7D       		.byte	0x7d
 5059 12a0 00       		.sleb128 0
 5060 12a1 01       		.uleb128 0x1
 5061 12a2 30       		.byte	0x30
 5062 12a3 00       		.byte	0
 5063 12a4 0C       		.uleb128 0xc
 5064 12a5 92090000 		.4byte	.LVL152
 5065 12a9 8F1A0000 		.4byte	0x1a8f
 5066 12ad BD120000 		.4byte	0x12bd
 5067 12b1 0D       		.uleb128 0xd
 5068 12b2 01       		.uleb128 0x1
 5069 12b3 51       		.byte	0x51
 5070 12b4 02       		.uleb128 0x2
 5071 12b5 91       		.byte	0x91
 5072 12b6 6C       		.sleb128 -20
 5073 12b7 0D       		.uleb128 0xd
 5074 12b8 01       		.uleb128 0x1
 5075 12b9 52       		.byte	0x52
 5076 12ba 01       		.uleb128 0x1
 5077 12bb 3A       		.byte	0x3a
 5078 12bc 00       		.byte	0
 5079 12bd 0E       		.uleb128 0xe
 5080 12be A4090000 		.4byte	.LVL153
 5081 12c2 9A1A0000 		.4byte	0x1a9a
 5082 12c6 0D       		.uleb128 0xd
 5083 12c7 01       		.uleb128 0x1
 5084 12c8 50       		.byte	0x50
 5085 12c9 02       		.uleb128 0x2
 5086 12ca 08       		.byte	0x8
 5087 12cb 32       		.byte	0x32
 5088 12cc 0D       		.uleb128 0xd
 5089 12cd 01       		.uleb128 0x1
 5090 12ce 51       		.byte	0x51
 5091 12cf 02       		.uleb128 0x2
 5092 12d0 08       		.byte	0x8
 5093 12d1 69       		.byte	0x69
 5094 12d2 0D       		.uleb128 0xd
 5095 12d3 01       		.uleb128 0x1
 5096 12d4 52       		.byte	0x52
 5097 12d5 03       		.uleb128 0x3
 5098 12d6 0A       		.byte	0xa
 5099 12d7 FFFF     		.2byte	0xffff
 5100 12d9 0D       		.uleb128 0xd
 5101 12da 01       		.uleb128 0x1
 5102 12db 53       		.byte	0x53
 5103 12dc 02       		.uleb128 0x2
 5104 12dd 91       		.byte	0x91
 5105 12de 6C       		.sleb128 -20
 5106 12df 0D       		.uleb128 0xd
 5107 12e0 02       		.uleb128 0x2
 5108 12e1 7D       		.byte	0x7d
 5109 12e2 00       		.sleb128 0
ARM GAS  C:\Users\JACOB-~1\AppData\Local\Temp\cchboK4P.s 			page 99


 5110 12e3 01       		.uleb128 0x1
 5111 12e4 33       		.byte	0x33
 5112 12e5 00       		.byte	0
 5113 12e6 00       		.byte	0
 5114 12e7 07       		.uleb128 0x7
 5115 12e8 BA090000 		.4byte	.LBB39
 5116 12ec 44000000 		.4byte	.LBE39-.LBB39
 5117 12f0 93130000 		.4byte	0x1393
 5118 12f4 08       		.uleb128 0x8
 5119 12f5 63030000 		.4byte	.LASF24
 5120 12f9 01       		.byte	0x1
 5121 12fa 7F       		.byte	0x7f
 5122 12fb 73000000 		.4byte	0x73
 5123 12ff 05130000 		.4byte	0x1305
 5124 1303 09       		.uleb128 0x9
 5125 1304 00       		.byte	0
 5126 1305 0F       		.uleb128 0xf
 5127 1306 2A030000 		.4byte	.LASF32
 5128 130a 01       		.byte	0x1
 5129 130b 9C01     		.2byte	0x19c
 5130 130d 4C140000 		.4byte	0x144c
 5131 1311 02       		.uleb128 0x2
 5132 1312 91       		.byte	0x91
 5133 1313 6C       		.sleb128 -20
 5134 1314 08       		.uleb128 0x8
 5135 1315 FE000000 		.4byte	.LASF25
 5136 1319 01       		.byte	0x1
 5137 131a 84       		.byte	0x84
 5138 131b 73000000 		.4byte	0x73
 5139 131f 25130000 		.4byte	0x1325
 5140 1323 09       		.uleb128 0x9
 5141 1324 00       		.byte	0
 5142 1325 0C       		.uleb128 0xc
 5143 1326 E0090000 		.4byte	.LVL157
 5144 132a 841A0000 		.4byte	0x1a84
 5145 132e 50130000 		.4byte	0x1350
 5146 1332 0D       		.uleb128 0xd
 5147 1333 01       		.uleb128 0x1
 5148 1334 50       		.byte	0x50
 5149 1335 02       		.uleb128 0x2
 5150 1336 08       		.byte	0x8
 5151 1337 28       		.byte	0x28
 5152 1338 0D       		.uleb128 0xd
 5153 1339 01       		.uleb128 0x1
 5154 133a 51       		.byte	0x51
 5155 133b 02       		.uleb128 0x2
 5156 133c 08       		.byte	0x8
 5157 133d 5F       		.byte	0x5f
 5158 133e 0D       		.uleb128 0xd
 5159 133f 01       		.uleb128 0x1
 5160 1340 52       		.byte	0x52
 5161 1341 02       		.uleb128 0x2
 5162 1342 08       		.byte	0x8
 5163 1343 3C       		.byte	0x3c
 5164 1344 0D       		.uleb128 0xd
 5165 1345 01       		.uleb128 0x1
 5166 1346 53       		.byte	0x53
ARM GAS  C:\Users\JACOB-~1\AppData\Local\Temp\cchboK4P.s 			page 100


 5167 1347 01       		.uleb128 0x1
 5168 1348 4E       		.byte	0x4e
 5169 1349 0D       		.uleb128 0xd
 5170 134a 02       		.uleb128 0x2
 5171 134b 7D       		.byte	0x7d
 5172 134c 00       		.sleb128 0
 5173 134d 01       		.uleb128 0x1
 5174 134e 30       		.byte	0x30
 5175 134f 00       		.byte	0
 5176 1350 0C       		.uleb128 0xc
 5177 1351 EC090000 		.4byte	.LVL158
 5178 1355 8F1A0000 		.4byte	0x1a8f
 5179 1359 69130000 		.4byte	0x1369
 5180 135d 0D       		.uleb128 0xd
 5181 135e 01       		.uleb128 0x1
 5182 135f 51       		.byte	0x51
 5183 1360 02       		.uleb128 0x2
 5184 1361 91       		.byte	0x91
 5185 1362 6C       		.sleb128 -20
 5186 1363 0D       		.uleb128 0xd
 5187 1364 01       		.uleb128 0x1
 5188 1365 52       		.byte	0x52
 5189 1366 01       		.uleb128 0x1
 5190 1367 3A       		.byte	0x3a
 5191 1368 00       		.byte	0
 5192 1369 0E       		.uleb128 0xe
 5193 136a FE090000 		.4byte	.LVL159
 5194 136e 9A1A0000 		.4byte	0x1a9a
 5195 1372 0D       		.uleb128 0xd
 5196 1373 01       		.uleb128 0x1
 5197 1374 50       		.byte	0x50
 5198 1375 02       		.uleb128 0x2
 5199 1376 08       		.byte	0x8
 5200 1377 32       		.byte	0x32
 5201 1378 0D       		.uleb128 0xd
 5202 1379 01       		.uleb128 0x1
 5203 137a 51       		.byte	0x51
 5204 137b 02       		.uleb128 0x2
 5205 137c 08       		.byte	0x8
 5206 137d 69       		.byte	0x69
 5207 137e 0D       		.uleb128 0xd
 5208 137f 01       		.uleb128 0x1
 5209 1380 52       		.byte	0x52
 5210 1381 03       		.uleb128 0x3
 5211 1382 0A       		.byte	0xa
 5212 1383 FFFF     		.2byte	0xffff
 5213 1385 0D       		.uleb128 0xd
 5214 1386 01       		.uleb128 0x1
 5215 1387 53       		.byte	0x53
 5216 1388 02       		.uleb128 0x2
 5217 1389 91       		.byte	0x91
 5218 138a 6C       		.sleb128 -20
 5219 138b 0D       		.uleb128 0xd
 5220 138c 02       		.uleb128 0x2
 5221 138d 7D       		.byte	0x7d
 5222 138e 00       		.sleb128 0
 5223 138f 01       		.uleb128 0x1
ARM GAS  C:\Users\JACOB-~1\AppData\Local\Temp\cchboK4P.s 			page 101


 5224 1390 33       		.byte	0x33
 5225 1391 00       		.byte	0
 5226 1392 00       		.byte	0
 5227 1393 11       		.uleb128 0x11
 5228 1394 000A0000 		.4byte	.LBB40
 5229 1398 44000000 		.4byte	.LBE40-.LBB40
 5230 139c 08       		.uleb128 0x8
 5231 139d 63030000 		.4byte	.LASF24
 5232 13a1 01       		.byte	0x1
 5233 13a2 7F       		.byte	0x7f
 5234 13a3 73000000 		.4byte	0x73
 5235 13a7 AD130000 		.4byte	0x13ad
 5236 13ab 09       		.uleb128 0x9
 5237 13ac 00       		.byte	0
 5238 13ad 0F       		.uleb128 0xf
 5239 13ae 2A030000 		.4byte	.LASF32
 5240 13b2 01       		.byte	0x1
 5241 13b3 AC01     		.2byte	0x1ac
 5242 13b5 5C140000 		.4byte	0x145c
 5243 13b9 02       		.uleb128 0x2
 5244 13ba 91       		.byte	0x91
 5245 13bb 6C       		.sleb128 -20
 5246 13bc 08       		.uleb128 0x8
 5247 13bd FE000000 		.4byte	.LASF25
 5248 13c1 01       		.byte	0x1
 5249 13c2 84       		.byte	0x84
 5250 13c3 73000000 		.4byte	0x73
 5251 13c7 CD130000 		.4byte	0x13cd
 5252 13cb 09       		.uleb128 0x9
 5253 13cc 00       		.byte	0
 5254 13cd 0C       		.uleb128 0xc
 5255 13ce 260A0000 		.4byte	.LVL163
 5256 13d2 841A0000 		.4byte	0x1a84
 5257 13d6 F8130000 		.4byte	0x13f8
 5258 13da 0D       		.uleb128 0xd
 5259 13db 01       		.uleb128 0x1
 5260 13dc 50       		.byte	0x50
 5261 13dd 02       		.uleb128 0x2
 5262 13de 08       		.byte	0x8
 5263 13df 28       		.byte	0x28
 5264 13e0 0D       		.uleb128 0xd
 5265 13e1 01       		.uleb128 0x1
 5266 13e2 51       		.byte	0x51
 5267 13e3 02       		.uleb128 0x2
 5268 13e4 08       		.byte	0x8
 5269 13e5 5F       		.byte	0x5f
 5270 13e6 0D       		.uleb128 0xd
 5271 13e7 01       		.uleb128 0x1
 5272 13e8 52       		.byte	0x52
 5273 13e9 02       		.uleb128 0x2
 5274 13ea 08       		.byte	0x8
 5275 13eb 3C       		.byte	0x3c
 5276 13ec 0D       		.uleb128 0xd
 5277 13ed 01       		.uleb128 0x1
 5278 13ee 53       		.byte	0x53
 5279 13ef 01       		.uleb128 0x1
 5280 13f0 4E       		.byte	0x4e
ARM GAS  C:\Users\JACOB-~1\AppData\Local\Temp\cchboK4P.s 			page 102


 5281 13f1 0D       		.uleb128 0xd
 5282 13f2 02       		.uleb128 0x2
 5283 13f3 7D       		.byte	0x7d
 5284 13f4 00       		.sleb128 0
 5285 13f5 01       		.uleb128 0x1
 5286 13f6 30       		.byte	0x30
 5287 13f7 00       		.byte	0
 5288 13f8 0C       		.uleb128 0xc
 5289 13f9 320A0000 		.4byte	.LVL164
 5290 13fd 8F1A0000 		.4byte	0x1a8f
 5291 1401 11140000 		.4byte	0x1411
 5292 1405 0D       		.uleb128 0xd
 5293 1406 01       		.uleb128 0x1
 5294 1407 51       		.byte	0x51
 5295 1408 02       		.uleb128 0x2
 5296 1409 91       		.byte	0x91
 5297 140a 6C       		.sleb128 -20
 5298 140b 0D       		.uleb128 0xd
 5299 140c 01       		.uleb128 0x1
 5300 140d 52       		.byte	0x52
 5301 140e 01       		.uleb128 0x1
 5302 140f 3A       		.byte	0x3a
 5303 1410 00       		.byte	0
 5304 1411 0E       		.uleb128 0xe
 5305 1412 440A0000 		.4byte	.LVL165
 5306 1416 9A1A0000 		.4byte	0x1a9a
 5307 141a 0D       		.uleb128 0xd
 5308 141b 01       		.uleb128 0x1
 5309 141c 50       		.byte	0x50
 5310 141d 02       		.uleb128 0x2
 5311 141e 08       		.byte	0x8
 5312 141f 32       		.byte	0x32
 5313 1420 0D       		.uleb128 0xd
 5314 1421 01       		.uleb128 0x1
 5315 1422 51       		.byte	0x51
 5316 1423 02       		.uleb128 0x2
 5317 1424 08       		.byte	0x8
 5318 1425 69       		.byte	0x69
 5319 1426 0D       		.uleb128 0xd
 5320 1427 01       		.uleb128 0x1
 5321 1428 52       		.byte	0x52
 5322 1429 03       		.uleb128 0x3
 5323 142a 0A       		.byte	0xa
 5324 142b FFFF     		.2byte	0xffff
 5325 142d 0D       		.uleb128 0xd
 5326 142e 01       		.uleb128 0x1
 5327 142f 53       		.byte	0x53
 5328 1430 02       		.uleb128 0x2
 5329 1431 91       		.byte	0x91
 5330 1432 6C       		.sleb128 -20
 5331 1433 0D       		.uleb128 0xd
 5332 1434 02       		.uleb128 0x2
 5333 1435 7D       		.byte	0x7d
 5334 1436 00       		.sleb128 0
 5335 1437 01       		.uleb128 0x1
 5336 1438 33       		.byte	0x33
 5337 1439 00       		.byte	0
ARM GAS  C:\Users\JACOB-~1\AppData\Local\Temp\cchboK4P.s 			page 103


 5338 143a 00       		.byte	0
 5339 143b 00       		.byte	0
 5340 143c 12       		.uleb128 0x12
 5341 143d A5000000 		.4byte	0xa5
 5342 1441 4C140000 		.4byte	0x144c
 5343 1445 13       		.uleb128 0x13
 5344 1446 B3000000 		.4byte	0xb3
 5345 144a 03       		.byte	0x3
 5346 144b 00       		.byte	0
 5347 144c 12       		.uleb128 0x12
 5348 144d A5000000 		.4byte	0xa5
 5349 1451 5C140000 		.4byte	0x145c
 5350 1455 13       		.uleb128 0x13
 5351 1456 B3000000 		.4byte	0xb3
 5352 145a 01       		.byte	0x1
 5353 145b 00       		.byte	0
 5354 145c 12       		.uleb128 0x12
 5355 145d A5000000 		.4byte	0xa5
 5356 1461 6C140000 		.4byte	0x146c
 5357 1465 13       		.uleb128 0x13
 5358 1466 B3000000 		.4byte	0xb3
 5359 146a 02       		.byte	0x2
 5360 146b 00       		.byte	0
 5361 146c 12       		.uleb128 0x12
 5362 146d 7C140000 		.4byte	0x147c
 5363 1471 7C140000 		.4byte	0x147c
 5364 1475 13       		.uleb128 0x13
 5365 1476 B3000000 		.4byte	0xb3
 5366 147a 19       		.byte	0x19
 5367 147b 00       		.byte	0
 5368 147c 14       		.uleb128 0x14
 5369 147d 81000000 		.4byte	0x81
 5370 1481 15       		.uleb128 0x15
 5371 1482 E4020000 		.4byte	.LASF33
 5372 1486 04       		.byte	0x4
 5373 1487 0F       		.byte	0xf
 5374 1488 A7140000 		.4byte	0x14a7
 5375 148c 1A       		.byte	0x1a
 5376 148d 03       		.byte	0x3
 5377 148e 01       		.byte	0x1
 5378 148f 02       		.byte	0x2
 5379 1490 03       		.byte	0x3
 5380 1491 02       		.byte	0x2
 5381 1492 00       		.byte	0
 5382 1493 04       		.byte	0x4
 5383 1494 03       		.byte	0x3
 5384 1495 00       		.byte	0
 5385 1496 01       		.byte	0x1
 5386 1497 04       		.byte	0x4
 5387 1498 03       		.byte	0x3
 5388 1499 00       		.byte	0
 5389 149a 02       		.byte	0x2
 5390 149b 04       		.byte	0x4
 5391 149c 03       		.byte	0x3
 5392 149d 00       		.byte	0
 5393 149e 03       		.byte	0x3
 5394 149f 04       		.byte	0x4
ARM GAS  C:\Users\JACOB-~1\AppData\Local\Temp\cchboK4P.s 			page 104


 5395 14a0 02       		.byte	0x2
 5396 14a1 00       		.byte	0
 5397 14a2 04       		.byte	0x4
 5398 14a3 03       		.byte	0x3
 5399 14a4 01       		.byte	0x1
 5400 14a5 02       		.byte	0x2
 5401 14a6 03       		.byte	0x3
 5402 14a7 14       		.uleb128 0x14
 5403 14a8 6C140000 		.4byte	0x146c
 5404 14ac 12       		.uleb128 0x12
 5405 14ad 7C140000 		.4byte	0x147c
 5406 14b1 BC140000 		.4byte	0x14bc
 5407 14b5 13       		.uleb128 0x13
 5408 14b6 B3000000 		.4byte	0xb3
 5409 14ba 12       		.byte	0x12
 5410 14bb 00       		.byte	0
 5411 14bc 15       		.uleb128 0x15
 5412 14bd EB020000 		.4byte	.LASF34
 5413 14c1 04       		.byte	0x4
 5414 14c2 21       		.byte	0x21
 5415 14c3 DB140000 		.4byte	0x14db
 5416 14c7 13       		.byte	0x13
 5417 14c8 05       		.byte	0x5
 5418 14c9 00       		.byte	0
 5419 14ca 01       		.byte	0x1
 5420 14cb 02       		.byte	0x2
 5421 14cc 03       		.byte	0x3
 5422 14cd 04       		.byte	0x4
 5423 14ce 01       		.byte	0x1
 5424 14cf 02       		.byte	0x2
 5425 14d0 01       		.byte	0x1
 5426 14d1 02       		.byte	0x2
 5427 14d2 01       		.byte	0x1
 5428 14d3 02       		.byte	0x2
 5429 14d4 01       		.byte	0x1
 5430 14d5 02       		.byte	0x2
 5431 14d6 02       		.byte	0x2
 5432 14d7 01       		.byte	0x1
 5433 14d8 02       		.byte	0x2
 5434 14d9 01       		.byte	0x1
 5435 14da 02       		.byte	0x2
 5436 14db 14       		.uleb128 0x14
 5437 14dc AC140000 		.4byte	0x14ac
 5438 14e0 12       		.uleb128 0x12
 5439 14e1 7C140000 		.4byte	0x147c
 5440 14e5 F0140000 		.4byte	0x14f0
 5441 14e9 13       		.uleb128 0x13
 5442 14ea B3000000 		.4byte	0xb3
 5443 14ee 16       		.byte	0x16
 5444 14ef 00       		.byte	0
 5445 14f0 15       		.uleb128 0x15
 5446 14f1 F2020000 		.4byte	.LASF35
 5447 14f5 04       		.byte	0x4
 5448 14f6 33       		.byte	0x33
 5449 14f7 13150000 		.4byte	0x1513
 5450 14fb 17       		.byte	0x17
 5451 14fc 05       		.byte	0x5
ARM GAS  C:\Users\JACOB-~1\AppData\Local\Temp\cchboK4P.s 			page 105


 5452 14fd 00       		.byte	0
 5453 14fe 01       		.byte	0x1
 5454 14ff 02       		.byte	0x2
 5455 1500 03       		.byte	0x3
 5456 1501 04       		.byte	0x4
 5457 1502 02       		.byte	0x2
 5458 1503 00       		.byte	0
 5459 1504 04       		.byte	0x4
 5460 1505 01       		.byte	0x1
 5461 1506 01       		.byte	0x1
 5462 1507 02       		.byte	0x2
 5463 1508 02       		.byte	0x2
 5464 1509 03       		.byte	0x3
 5465 150a 01       		.byte	0x1
 5466 150b 04       		.byte	0x4
 5467 150c 02       		.byte	0x2
 5468 150d 00       		.byte	0
 5469 150e 04       		.byte	0x4
 5470 150f 03       		.byte	0x3
 5471 1510 01       		.byte	0x1
 5472 1511 02       		.byte	0x2
 5473 1512 03       		.byte	0x3
 5474 1513 14       		.uleb128 0x14
 5475 1514 E0140000 		.4byte	0x14e0
 5476 1518 12       		.uleb128 0x12
 5477 1519 7C140000 		.4byte	0x147c
 5478 151d 28150000 		.4byte	0x1528
 5479 1521 13       		.uleb128 0x13
 5480 1522 B3000000 		.4byte	0xb3
 5481 1526 14       		.byte	0x14
 5482 1527 00       		.byte	0
 5483 1528 15       		.uleb128 0x15
 5484 1529 F9020000 		.4byte	.LASF36
 5485 152d 04       		.byte	0x4
 5486 152e 45       		.byte	0x45
 5487 152f 49150000 		.4byte	0x1549
 5488 1533 15       		.byte	0x15
 5489 1534 03       		.byte	0x3
 5490 1535 01       		.byte	0x1
 5491 1536 02       		.byte	0x2
 5492 1537 03       		.byte	0x3
 5493 1538 02       		.byte	0x2
 5494 1539 00       		.byte	0
 5495 153a 04       		.byte	0x4
 5496 153b 01       		.byte	0x1
 5497 153c 04       		.byte	0x4
 5498 153d 02       		.byte	0x2
 5499 153e 02       		.byte	0x2
 5500 153f 03       		.byte	0x3
 5501 1540 01       		.byte	0x1
 5502 1541 04       		.byte	0x4
 5503 1542 02       		.byte	0x2
 5504 1543 00       		.byte	0
 5505 1544 04       		.byte	0x4
 5506 1545 03       		.byte	0x3
 5507 1546 01       		.byte	0x1
 5508 1547 02       		.byte	0x2
ARM GAS  C:\Users\JACOB-~1\AppData\Local\Temp\cchboK4P.s 			page 106


 5509 1548 03       		.byte	0x3
 5510 1549 14       		.uleb128 0x14
 5511 154a 18150000 		.4byte	0x1518
 5512 154e 12       		.uleb128 0x12
 5513 154f 7C140000 		.4byte	0x147c
 5514 1553 5E150000 		.4byte	0x155e
 5515 1557 13       		.uleb128 0x13
 5516 1558 B3000000 		.4byte	0xb3
 5517 155c 15       		.byte	0x15
 5518 155d 00       		.byte	0
 5519 155e 15       		.uleb128 0x15
 5520 155f 00030000 		.4byte	.LASF37
 5521 1563 04       		.byte	0x4
 5522 1564 57       		.byte	0x57
 5523 1565 80150000 		.4byte	0x1580
 5524 1569 16       		.byte	0x16
 5525 156a 01       		.byte	0x1
 5526 156b 04       		.byte	0x4
 5527 156c 01       		.byte	0x1
 5528 156d 04       		.byte	0x4
 5529 156e 05       		.byte	0x5
 5530 156f 00       		.byte	0
 5531 1570 01       		.byte	0x1
 5532 1571 02       		.byte	0x2
 5533 1572 03       		.byte	0x3
 5534 1573 04       		.byte	0x4
 5535 1574 02       		.byte	0x2
 5536 1575 00       		.byte	0
 5537 1576 04       		.byte	0x4
 5538 1577 02       		.byte	0x2
 5539 1578 01       		.byte	0x1
 5540 1579 04       		.byte	0x4
 5541 157a 02       		.byte	0x2
 5542 157b 02       		.byte	0x2
 5543 157c 04       		.byte	0x4
 5544 157d 02       		.byte	0x2
 5545 157e 03       		.byte	0x3
 5546 157f 04       		.byte	0x4
 5547 1580 14       		.uleb128 0x14
 5548 1581 4E150000 		.4byte	0x154e
 5549 1585 12       		.uleb128 0x12
 5550 1586 7C140000 		.4byte	0x147c
 5551 158a 95150000 		.4byte	0x1595
 5552 158e 13       		.uleb128 0x13
 5553 158f B3000000 		.4byte	0xb3
 5554 1593 17       		.byte	0x17
 5555 1594 00       		.byte	0
 5556 1595 15       		.uleb128 0x15
 5557 1596 07030000 		.4byte	.LASF38
 5558 159a 04       		.byte	0x4
 5559 159b 69       		.byte	0x69
 5560 159c B9150000 		.4byte	0x15b9
 5561 15a0 18       		.byte	0x18
 5562 15a1 03       		.byte	0x3
 5563 15a2 01       		.byte	0x1
 5564 15a3 02       		.byte	0x2
 5565 15a4 03       		.byte	0x3
ARM GAS  C:\Users\JACOB-~1\AppData\Local\Temp\cchboK4P.s 			page 107


 5566 15a5 02       		.byte	0x2
 5567 15a6 00       		.byte	0
 5568 15a7 04       		.byte	0x4
 5569 15a8 01       		.byte	0x1
 5570 15a9 04       		.byte	0x4
 5571 15aa 01       		.byte	0x1
 5572 15ab 04       		.byte	0x4
 5573 15ac 04       		.byte	0x4
 5574 15ad 00       		.byte	0
 5575 15ae 01       		.byte	0x1
 5576 15af 02       		.byte	0x2
 5577 15b0 03       		.byte	0x3
 5578 15b1 01       		.byte	0x1
 5579 15b2 00       		.byte	0
 5580 15b3 05       		.byte	0x5
 5581 15b4 00       		.byte	0
 5582 15b5 01       		.byte	0x1
 5583 15b6 02       		.byte	0x2
 5584 15b7 03       		.byte	0x3
 5585 15b8 04       		.byte	0x4
 5586 15b9 14       		.uleb128 0x14
 5587 15ba 85150000 		.4byte	0x1585
 5588 15be 15       		.uleb128 0x15
 5589 15bf 0E030000 		.4byte	.LASF39
 5590 15c3 04       		.byte	0x4
 5591 15c4 7B       		.byte	0x7b
 5592 15c5 E0150000 		.4byte	0x15e0
 5593 15c9 16       		.byte	0x16
 5594 15ca 03       		.byte	0x3
 5595 15cb 01       		.byte	0x1
 5596 15cc 02       		.byte	0x2
 5597 15cd 03       		.byte	0x3
 5598 15ce 02       		.byte	0x2
 5599 15cf 00       		.byte	0
 5600 15d0 04       		.byte	0x4
 5601 15d1 02       		.byte	0x2
 5602 15d2 00       		.byte	0
 5603 15d3 04       		.byte	0x4
 5604 15d4 04       		.byte	0x4
 5605 15d5 00       		.byte	0
 5606 15d6 01       		.byte	0x1
 5607 15d7 02       		.byte	0x2
 5608 15d8 03       		.byte	0x3
 5609 15d9 01       		.byte	0x1
 5610 15da 00       		.byte	0
 5611 15db 01       		.byte	0x1
 5612 15dc 01       		.byte	0x1
 5613 15dd 02       		.byte	0x2
 5614 15de 02       		.byte	0x2
 5615 15df 03       		.byte	0x3
 5616 15e0 14       		.uleb128 0x14
 5617 15e1 4E150000 		.4byte	0x154e
 5618 15e5 15       		.uleb128 0x15
 5619 15e6 15030000 		.4byte	.LASF40
 5620 15ea 04       		.byte	0x4
 5621 15eb 8D       		.byte	0x8d
 5622 15ec 04160000 		.4byte	0x1604
ARM GAS  C:\Users\JACOB-~1\AppData\Local\Temp\cchboK4P.s 			page 108


 5623 15f0 13       		.byte	0x13
 5624 15f1 01       		.byte	0x1
 5625 15f2 02       		.byte	0x2
 5626 15f3 01       		.byte	0x1
 5627 15f4 02       		.byte	0x2
 5628 15f5 01       		.byte	0x1
 5629 15f6 02       		.byte	0x2
 5630 15f7 01       		.byte	0x1
 5631 15f8 03       		.byte	0x3
 5632 15f9 01       		.byte	0x1
 5633 15fa 04       		.byte	0x4
 5634 15fb 02       		.byte	0x2
 5635 15fc 00       		.byte	0
 5636 15fd 04       		.byte	0x4
 5637 15fe 05       		.byte	0x5
 5638 15ff 00       		.byte	0
 5639 1600 01       		.byte	0x1
 5640 1601 02       		.byte	0x2
 5641 1602 03       		.byte	0x3
 5642 1603 04       		.byte	0x4
 5643 1604 14       		.uleb128 0x14
 5644 1605 AC140000 		.4byte	0x14ac
 5645 1609 15       		.uleb128 0x15
 5646 160a 1C030000 		.4byte	.LASF41
 5647 160e 04       		.byte	0x4
 5648 160f 9F       		.byte	0x9f
 5649 1610 2D160000 		.4byte	0x162d
 5650 1614 18       		.byte	0x18
 5651 1615 03       		.byte	0x3
 5652 1616 01       		.byte	0x1
 5653 1617 02       		.byte	0x2
 5654 1618 03       		.byte	0x3
 5655 1619 02       		.byte	0x2
 5656 161a 00       		.byte	0
 5657 161b 04       		.byte	0x4
 5658 161c 02       		.byte	0x2
 5659 161d 00       		.byte	0
 5660 161e 04       		.byte	0x4
 5661 161f 03       		.byte	0x3
 5662 1620 01       		.byte	0x1
 5663 1621 02       		.byte	0x2
 5664 1622 03       		.byte	0x3
 5665 1623 02       		.byte	0x2
 5666 1624 00       		.byte	0
 5667 1625 04       		.byte	0x4
 5668 1626 02       		.byte	0x2
 5669 1627 00       		.byte	0
 5670 1628 04       		.byte	0x4
 5671 1629 03       		.byte	0x3
 5672 162a 01       		.byte	0x1
 5673 162b 02       		.byte	0x2
 5674 162c 03       		.byte	0x3
 5675 162d 14       		.uleb128 0x14
 5676 162e 85150000 		.4byte	0x1585
 5677 1632 15       		.uleb128 0x15
 5678 1633 23030000 		.4byte	.LASF42
 5679 1637 04       		.byte	0x4
ARM GAS  C:\Users\JACOB-~1\AppData\Local\Temp\cchboK4P.s 			page 109


 5680 1638 B1       		.byte	0xb1
 5681 1639 54160000 		.4byte	0x1654
 5682 163d 16       		.byte	0x16
 5683 163e 02       		.byte	0x2
 5684 163f 01       		.byte	0x1
 5685 1640 02       		.byte	0x2
 5686 1641 01       		.byte	0x1
 5687 1642 03       		.byte	0x3
 5688 1643 01       		.byte	0x1
 5689 1644 04       		.byte	0x4
 5690 1645 04       		.byte	0x4
 5691 1646 01       		.byte	0x1
 5692 1647 02       		.byte	0x2
 5693 1648 03       		.byte	0x3
 5694 1649 04       		.byte	0x4
 5695 164a 02       		.byte	0x2
 5696 164b 00       		.byte	0
 5697 164c 04       		.byte	0x4
 5698 164d 02       		.byte	0x2
 5699 164e 00       		.byte	0
 5700 164f 04       		.byte	0x4
 5701 1650 03       		.byte	0x3
 5702 1651 01       		.byte	0x1
 5703 1652 02       		.byte	0x2
 5704 1653 03       		.byte	0x3
 5705 1654 14       		.uleb128 0x14
 5706 1655 4E150000 		.4byte	0x154e
 5707 1659 12       		.uleb128 0x12
 5708 165a 7C140000 		.4byte	0x147c
 5709 165e 69160000 		.4byte	0x1669
 5710 1662 13       		.uleb128 0x13
 5711 1663 B3000000 		.4byte	0xb3
 5712 1667 07       		.byte	0x7
 5713 1668 00       		.byte	0
 5714 1669 15       		.uleb128 0x15
 5715 166a 6D030000 		.4byte	.LASF43
 5716 166e 04       		.byte	0x4
 5717 166f C3       		.byte	0xc3
 5718 1670 7D160000 		.4byte	0x167d
 5719 1674 08       		.byte	0x8
 5720 1675 01       		.byte	0x1
 5721 1676 02       		.byte	0x2
 5722 1677 00       		.byte	0
 5723 1678 00       		.byte	0
 5724 1679 00       		.byte	0
 5725 167a 00       		.byte	0
 5726 167b 00       		.byte	0
 5727 167c 00       		.byte	0
 5728 167d 14       		.uleb128 0x14
 5729 167e 59160000 		.4byte	0x1659
 5730 1682 15       		.uleb128 0x15
 5731 1683 86030000 		.4byte	.LASF44
 5732 1687 04       		.byte	0x4
 5733 1688 D4       		.byte	0xd4
 5734 1689 A3160000 		.4byte	0x16a3
 5735 168d 15       		.byte	0x15
 5736 168e 04       		.byte	0x4
ARM GAS  C:\Users\JACOB-~1\AppData\Local\Temp\cchboK4P.s 			page 110


 5737 168f 01       		.byte	0x1
 5738 1690 02       		.byte	0x2
 5739 1691 03       		.byte	0x3
 5740 1692 04       		.byte	0x4
 5741 1693 01       		.byte	0x1
 5742 1694 00       		.byte	0
 5743 1695 04       		.byte	0x4
 5744 1696 04       		.byte	0x4
 5745 1697 01       		.byte	0x1
 5746 1698 02       		.byte	0x2
 5747 1699 03       		.byte	0x3
 5748 169a 04       		.byte	0x4
 5749 169b 01       		.byte	0x1
 5750 169c 04       		.byte	0x4
 5751 169d 03       		.byte	0x3
 5752 169e 02       		.byte	0x2
 5753 169f 03       		.byte	0x3
 5754 16a0 04       		.byte	0x4
 5755 16a1 00       		.byte	0
 5756 16a2 00       		.byte	0
 5757 16a3 14       		.uleb128 0x14
 5758 16a4 18150000 		.4byte	0x1518
 5759 16a8 15       		.uleb128 0x15
 5760 16a9 8D030000 		.4byte	.LASF45
 5761 16ad 04       		.byte	0x4
 5762 16ae E5       		.byte	0xe5
 5763 16af CB160000 		.4byte	0x16cb
 5764 16b3 17       		.byte	0x17
 5765 16b4 04       		.byte	0x4
 5766 16b5 00       		.byte	0
 5767 16b6 01       		.byte	0x1
 5768 16b7 02       		.byte	0x2
 5769 16b8 03       		.byte	0x3
 5770 16b9 02       		.byte	0x2
 5771 16ba 00       		.byte	0
 5772 16bb 04       		.byte	0x4
 5773 16bc 02       		.byte	0x2
 5774 16bd 00       		.byte	0
 5775 16be 04       		.byte	0x4
 5776 16bf 03       		.byte	0x3
 5777 16c0 00       		.byte	0
 5778 16c1 01       		.byte	0x1
 5779 16c2 04       		.byte	0x4
 5780 16c3 03       		.byte	0x3
 5781 16c4 00       		.byte	0
 5782 16c5 02       		.byte	0x2
 5783 16c6 03       		.byte	0x3
 5784 16c7 01       		.byte	0x1
 5785 16c8 00       		.byte	0
 5786 16c9 01       		.byte	0x1
 5787 16ca 00       		.byte	0
 5788 16cb 14       		.uleb128 0x14
 5789 16cc E0140000 		.4byte	0x14e0
 5790 16d0 12       		.uleb128 0x12
 5791 16d1 7C140000 		.4byte	0x147c
 5792 16d5 E0160000 		.4byte	0x16e0
 5793 16d9 13       		.uleb128 0x13
ARM GAS  C:\Users\JACOB-~1\AppData\Local\Temp\cchboK4P.s 			page 111


 5794 16da B3000000 		.4byte	0xb3
 5795 16de 11       		.byte	0x11
 5796 16df 00       		.byte	0
 5797 16e0 15       		.uleb128 0x15
 5798 16e1 94030000 		.4byte	.LASF46
 5799 16e5 04       		.byte	0x4
 5800 16e6 F7       		.byte	0xf7
 5801 16e7 FE160000 		.4byte	0x16fe
 5802 16eb 12       		.byte	0x12
 5803 16ec 03       		.byte	0x3
 5804 16ed 01       		.byte	0x1
 5805 16ee 02       		.byte	0x2
 5806 16ef 03       		.byte	0x3
 5807 16f0 02       		.byte	0x2
 5808 16f1 00       		.byte	0
 5809 16f2 04       		.byte	0x4
 5810 16f3 01       		.byte	0x1
 5811 16f4 00       		.byte	0
 5812 16f5 02       		.byte	0x2
 5813 16f6 00       		.byte	0
 5814 16f7 04       		.byte	0x4
 5815 16f8 03       		.byte	0x3
 5816 16f9 01       		.byte	0x1
 5817 16fa 02       		.byte	0x2
 5818 16fb 03       		.byte	0x3
 5819 16fc 00       		.byte	0
 5820 16fd 00       		.byte	0
 5821 16fe 14       		.uleb128 0x14
 5822 16ff D0160000 		.4byte	0x16d0
 5823 1703 16       		.uleb128 0x16
 5824 1704 9B030000 		.4byte	.LASF47
 5825 1708 04       		.byte	0x4
 5826 1709 0801     		.2byte	0x108
 5827 170b 27170000 		.4byte	0x1727
 5828 170f 17       		.byte	0x17
 5829 1710 04       		.byte	0x4
 5830 1711 01       		.byte	0x1
 5831 1712 02       		.byte	0x2
 5832 1713 03       		.byte	0x3
 5833 1714 04       		.byte	0x4
 5834 1715 02       		.byte	0x2
 5835 1716 00       		.byte	0
 5836 1717 04       		.byte	0x4
 5837 1718 02       		.byte	0x2
 5838 1719 00       		.byte	0
 5839 171a 04       		.byte	0x4
 5840 171b 03       		.byte	0x3
 5841 171c 00       		.byte	0
 5842 171d 03       		.byte	0x3
 5843 171e 04       		.byte	0x4
 5844 171f 03       		.byte	0x3
 5845 1720 01       		.byte	0x1
 5846 1721 02       		.byte	0x2
 5847 1722 04       		.byte	0x4
 5848 1723 01       		.byte	0x1
 5849 1724 04       		.byte	0x4
 5850 1725 01       		.byte	0x1
ARM GAS  C:\Users\JACOB-~1\AppData\Local\Temp\cchboK4P.s 			page 112


 5851 1726 04       		.byte	0x4
 5852 1727 14       		.uleb128 0x14
 5853 1728 E0140000 		.4byte	0x14e0
 5854 172c 16       		.uleb128 0x16
 5855 172d A2030000 		.4byte	.LASF48
 5856 1731 04       		.byte	0x4
 5857 1732 1A01     		.2byte	0x11a
 5858 1734 4F170000 		.4byte	0x174f
 5859 1738 16       		.byte	0x16
 5860 1739 04       		.byte	0x4
 5861 173a 01       		.byte	0x1
 5862 173b 02       		.byte	0x2
 5863 173c 03       		.byte	0x3
 5864 173d 04       		.byte	0x4
 5865 173e 01       		.byte	0x1
 5866 173f 00       		.byte	0
 5867 1740 05       		.byte	0x5
 5868 1741 00       		.byte	0
 5869 1742 01       		.byte	0x1
 5870 1743 02       		.byte	0x2
 5871 1744 03       		.byte	0x3
 5872 1745 04       		.byte	0x4
 5873 1746 02       		.byte	0x2
 5874 1747 00       		.byte	0
 5875 1748 04       		.byte	0x4
 5876 1749 03       		.byte	0x3
 5877 174a 01       		.byte	0x1
 5878 174b 02       		.byte	0x2
 5879 174c 03       		.byte	0x3
 5880 174d 00       		.byte	0
 5881 174e 00       		.byte	0
 5882 174f 14       		.uleb128 0x14
 5883 1750 4E150000 		.4byte	0x154e
 5884 1754 16       		.uleb128 0x16
 5885 1755 A9030000 		.4byte	.LASF49
 5886 1759 04       		.byte	0x4
 5887 175a 2B01     		.2byte	0x12b
 5888 175c 73170000 		.4byte	0x1773
 5889 1760 12       		.byte	0x12
 5890 1761 01       		.byte	0x1
 5891 1762 02       		.byte	0x2
 5892 1763 01       		.byte	0x1
 5893 1764 02       		.byte	0x2
 5894 1765 01       		.byte	0x1
 5895 1766 02       		.byte	0x2
 5896 1767 01       		.byte	0x1
 5897 1768 02       		.byte	0x2
 5898 1769 04       		.byte	0x4
 5899 176a 01       		.byte	0x1
 5900 176b 02       		.byte	0x2
 5901 176c 03       		.byte	0x3
 5902 176d 04       		.byte	0x4
 5903 176e 01       		.byte	0x1
 5904 176f 02       		.byte	0x2
 5905 1770 02       		.byte	0x2
 5906 1771 03       		.byte	0x3
 5907 1772 04       		.byte	0x4
ARM GAS  C:\Users\JACOB-~1\AppData\Local\Temp\cchboK4P.s 			page 113


 5908 1773 14       		.uleb128 0x14
 5909 1774 D0160000 		.4byte	0x16d0
 5910 1778 16       		.uleb128 0x16
 5911 1779 B0030000 		.4byte	.LASF50
 5912 177d 04       		.byte	0x4
 5913 177e 3F01     		.2byte	0x13f
 5914 1780 9D170000 		.4byte	0x179d
 5915 1784 18       		.byte	0x18
 5916 1785 04       		.byte	0x4
 5917 1786 00       		.byte	0
 5918 1787 01       		.byte	0x1
 5919 1788 02       		.byte	0x2
 5920 1789 03       		.byte	0x3
 5921 178a 01       		.byte	0x1
 5922 178b 04       		.byte	0x4
 5923 178c 04       		.byte	0x4
 5924 178d 01       		.byte	0x1
 5925 178e 02       		.byte	0x2
 5926 178f 03       		.byte	0x3
 5927 1790 04       		.byte	0x4
 5928 1791 02       		.byte	0x2
 5929 1792 00       		.byte	0
 5930 1793 04       		.byte	0x4
 5931 1794 02       		.byte	0x2
 5932 1795 00       		.byte	0
 5933 1796 04       		.byte	0x4
 5934 1797 04       		.byte	0x4
 5935 1798 01       		.byte	0x1
 5936 1799 02       		.byte	0x2
 5937 179a 03       		.byte	0x3
 5938 179b 04       		.byte	0x4
 5939 179c 00       		.byte	0
 5940 179d 14       		.uleb128 0x14
 5941 179e 85150000 		.4byte	0x1585
 5942 17a2 16       		.uleb128 0x16
 5943 17a3 B7030000 		.4byte	.LASF51
 5944 17a7 04       		.byte	0x4
 5945 17a8 5001     		.2byte	0x150
 5946 17aa C4170000 		.4byte	0x17c4
 5947 17ae 15       		.byte	0x15
 5948 17af 02       		.byte	0x2
 5949 17b0 00       		.byte	0
 5950 17b1 04       		.byte	0x4
 5951 17b2 02       		.byte	0x2
 5952 17b3 00       		.byte	0
 5953 17b4 04       		.byte	0x4
 5954 17b5 02       		.byte	0x2
 5955 17b6 00       		.byte	0
 5956 17b7 04       		.byte	0x4
 5957 17b8 03       		.byte	0x3
 5958 17b9 00       		.byte	0
 5959 17ba 01       		.byte	0x1
 5960 17bb 04       		.byte	0x4
 5961 17bc 03       		.byte	0x3
 5962 17bd 00       		.byte	0
 5963 17be 02       		.byte	0x2
 5964 17bf 03       		.byte	0x3
ARM GAS  C:\Users\JACOB-~1\AppData\Local\Temp\cchboK4P.s 			page 114


 5965 17c0 01       		.byte	0x1
 5966 17c1 00       		.byte	0
 5967 17c2 01       		.byte	0x1
 5968 17c3 00       		.byte	0
 5969 17c4 14       		.uleb128 0x14
 5970 17c5 18150000 		.4byte	0x1518
 5971 17c9 12       		.uleb128 0x12
 5972 17ca 7C140000 		.4byte	0x147c
 5973 17ce D9170000 		.4byte	0x17d9
 5974 17d2 13       		.uleb128 0x13
 5975 17d3 B3000000 		.4byte	0xb3
 5976 17d7 0C       		.byte	0xc
 5977 17d8 00       		.byte	0
 5978 17d9 16       		.uleb128 0x16
 5979 17da BE030000 		.4byte	.LASF52
 5980 17de 04       		.byte	0x4
 5981 17df 6201     		.2byte	0x162
 5982 17e1 F3170000 		.4byte	0x17f3
 5983 17e5 0D       		.byte	0xd
 5984 17e6 01       		.byte	0x1
 5985 17e7 02       		.byte	0x2
 5986 17e8 01       		.byte	0x1
 5987 17e9 02       		.byte	0x2
 5988 17ea 01       		.byte	0x1
 5989 17eb 02       		.byte	0x2
 5990 17ec 01       		.byte	0x1
 5991 17ed 02       		.byte	0x2
 5992 17ee 01       		.byte	0x1
 5993 17ef 02       		.byte	0x2
 5994 17f0 00       		.byte	0
 5995 17f1 01       		.byte	0x1
 5996 17f2 02       		.byte	0x2
 5997 17f3 14       		.uleb128 0x14
 5998 17f4 C9170000 		.4byte	0x17c9
 5999 17f8 12       		.uleb128 0x12
 6000 17f9 7C140000 		.4byte	0x147c
 6001 17fd 08180000 		.4byte	0x1808
 6002 1801 17       		.uleb128 0x17
 6003 1802 08180000 		.4byte	0x1808
 6004 1806 7F       		.sleb128 -1
 6005 1807 00       		.byte	0
 6006 1808 02       		.uleb128 0x2
 6007 1809 04       		.byte	0x4
 6008 180a 05       		.byte	0x5
 6009 180b 6B000000 		.4byte	.LASF53
 6010 180f 18       		.uleb128 0x18
 6011 1810 C5030000 		.4byte	.LASF79
 6012 1814 04       		.byte	0x4
 6013 1815 7501     		.2byte	0x175
 6014 1817 1B180000 		.4byte	0x181b
 6015 181b 14       		.uleb128 0x14
 6016 181c F8170000 		.4byte	0x17f8
 6017 1820 12       		.uleb128 0x12
 6018 1821 7C140000 		.4byte	0x147c
 6019 1825 30180000 		.4byte	0x1830
 6020 1829 13       		.uleb128 0x13
 6021 182a B3000000 		.4byte	0xb3
ARM GAS  C:\Users\JACOB-~1\AppData\Local\Temp\cchboK4P.s 			page 115


 6022 182e 1B       		.byte	0x1b
 6023 182f 00       		.byte	0
 6024 1830 16       		.uleb128 0x16
 6025 1831 32030000 		.4byte	.LASF54
 6026 1835 04       		.byte	0x4
 6027 1836 7C01     		.2byte	0x17c
 6028 1838 59180000 		.4byte	0x1859
 6029 183c 1C       		.byte	0x1c
 6030 183d 02       		.byte	0x2
 6031 183e 00       		.byte	0
 6032 183f 04       		.byte	0x4
 6033 1840 02       		.byte	0x2
 6034 1841 00       		.byte	0
 6035 1842 04       		.byte	0x4
 6036 1843 02       		.byte	0x2
 6037 1844 00       		.byte	0
 6038 1845 04       		.byte	0x4
 6039 1846 02       		.byte	0x2
 6040 1847 00       		.byte	0
 6041 1848 04       		.byte	0x4
 6042 1849 02       		.byte	0x2
 6043 184a 00       		.byte	0
 6044 184b 04       		.byte	0x4
 6045 184c 05       		.byte	0x5
 6046 184d 00       		.byte	0
 6047 184e 01       		.byte	0x1
 6048 184f 02       		.byte	0x2
 6049 1850 03       		.byte	0x3
 6050 1851 04       		.byte	0x4
 6051 1852 02       		.byte	0x2
 6052 1853 00       		.byte	0
 6053 1854 04       		.byte	0x4
 6054 1855 03       		.byte	0x3
 6055 1856 01       		.byte	0x1
 6056 1857 02       		.byte	0x2
 6057 1858 03       		.byte	0x3
 6058 1859 14       		.uleb128 0x14
 6059 185a 20180000 		.4byte	0x1820
 6060 185e 12       		.uleb128 0x12
 6061 185f 7C140000 		.4byte	0x147c
 6062 1863 6E180000 		.4byte	0x186e
 6063 1867 13       		.uleb128 0x13
 6064 1868 B3000000 		.4byte	0xb3
 6065 186c 1A       		.byte	0x1a
 6066 186d 00       		.byte	0
 6067 186e 16       		.uleb128 0x16
 6068 186f 39030000 		.4byte	.LASF55
 6069 1873 04       		.byte	0x4
 6070 1874 9001     		.2byte	0x190
 6071 1876 96180000 		.4byte	0x1896
 6072 187a 1B       		.byte	0x1b
 6073 187b 04       		.byte	0x4
 6074 187c 00       		.byte	0
 6075 187d 01       		.byte	0x1
 6076 187e 02       		.byte	0x2
 6077 187f 03       		.byte	0x3
 6078 1880 02       		.byte	0x2
ARM GAS  C:\Users\JACOB-~1\AppData\Local\Temp\cchboK4P.s 			page 116


 6079 1881 00       		.byte	0
 6080 1882 04       		.byte	0x4
 6081 1883 02       		.byte	0x2
 6082 1884 00       		.byte	0
 6083 1885 04       		.byte	0x4
 6084 1886 02       		.byte	0x2
 6085 1887 00       		.byte	0
 6086 1888 04       		.byte	0x4
 6087 1889 04       		.byte	0x4
 6088 188a 00       		.byte	0
 6089 188b 01       		.byte	0x1
 6090 188c 02       		.byte	0x2
 6091 188d 03       		.byte	0x3
 6092 188e 02       		.byte	0x2
 6093 188f 00       		.byte	0
 6094 1890 04       		.byte	0x4
 6095 1891 04       		.byte	0x4
 6096 1892 00       		.byte	0
 6097 1893 01       		.byte	0x1
 6098 1894 02       		.byte	0x2
 6099 1895 03       		.byte	0x3
 6100 1896 14       		.uleb128 0x14
 6101 1897 5E180000 		.4byte	0x185e
 6102 189b 12       		.uleb128 0x12
 6103 189c 7C140000 		.4byte	0x147c
 6104 18a0 AB180000 		.4byte	0x18ab
 6105 18a4 13       		.uleb128 0x13
 6106 18a5 B3000000 		.4byte	0xb3
 6107 18a9 13       		.byte	0x13
 6108 18aa 00       		.byte	0
 6109 18ab 16       		.uleb128 0x16
 6110 18ac 40030000 		.4byte	.LASF56
 6111 18b0 04       		.byte	0x4
 6112 18b1 A201     		.2byte	0x1a2
 6113 18b3 CC180000 		.4byte	0x18cc
 6114 18b7 14       		.byte	0x14
 6115 18b8 03       		.byte	0x3
 6116 18b9 01       		.byte	0x1
 6117 18ba 02       		.byte	0x2
 6118 18bb 03       		.byte	0x3
 6119 18bc 02       		.byte	0x2
 6120 18bd 00       		.byte	0
 6121 18be 04       		.byte	0x4
 6122 18bf 01       		.byte	0x1
 6123 18c0 00       		.byte	0
 6124 18c1 01       		.byte	0x1
 6125 18c2 00       		.byte	0
 6126 18c3 01       		.byte	0x1
 6127 18c4 00       		.byte	0
 6128 18c5 02       		.byte	0x2
 6129 18c6 00       		.byte	0
 6130 18c7 04       		.byte	0x4
 6131 18c8 03       		.byte	0x3
 6132 18c9 01       		.byte	0x1
 6133 18ca 02       		.byte	0x2
 6134 18cb 03       		.byte	0x3
 6135 18cc 14       		.uleb128 0x14
ARM GAS  C:\Users\JACOB-~1\AppData\Local\Temp\cchboK4P.s 			page 117


 6136 18cd 9B180000 		.4byte	0x189b
 6137 18d1 12       		.uleb128 0x12
 6138 18d2 7C140000 		.4byte	0x147c
 6139 18d6 E1180000 		.4byte	0x18e1
 6140 18da 13       		.uleb128 0x13
 6141 18db B3000000 		.4byte	0xb3
 6142 18df 18       		.byte	0x18
 6143 18e0 00       		.byte	0
 6144 18e1 16       		.uleb128 0x16
 6145 18e2 47030000 		.4byte	.LASF57
 6146 18e6 04       		.byte	0x4
 6147 18e7 B401     		.2byte	0x1b4
 6148 18e9 07190000 		.4byte	0x1907
 6149 18ed 19       		.byte	0x19
 6150 18ee 04       		.byte	0x4
 6151 18ef 00       		.byte	0
 6152 18f0 01       		.byte	0x1
 6153 18f1 02       		.byte	0x2
 6154 18f2 03       		.byte	0x3
 6155 18f3 02       		.byte	0x2
 6156 18f4 00       		.byte	0
 6157 18f5 04       		.byte	0x4
 6158 18f6 02       		.byte	0x2
 6159 18f7 00       		.byte	0
 6160 18f8 04       		.byte	0x4
 6161 18f9 02       		.byte	0x2
 6162 18fa 00       		.byte	0
 6163 18fb 04       		.byte	0x4
 6164 18fc 02       		.byte	0x2
 6165 18fd 00       		.byte	0
 6166 18fe 04       		.byte	0x4
 6167 18ff 02       		.byte	0x2
 6168 1900 00       		.byte	0
 6169 1901 04       		.byte	0x4
 6170 1902 04       		.byte	0x4
 6171 1903 00       		.byte	0
 6172 1904 01       		.byte	0x1
 6173 1905 02       		.byte	0x2
 6174 1906 03       		.byte	0x3
 6175 1907 14       		.uleb128 0x14
 6176 1908 D1180000 		.4byte	0x18d1
 6177 190c 16       		.uleb128 0x16
 6178 190d 4E030000 		.4byte	.LASF58
 6179 1911 04       		.byte	0x4
 6180 1912 C701     		.2byte	0x1c7
 6181 1914 32190000 		.4byte	0x1932
 6182 1918 19       		.byte	0x19
 6183 1919 05       		.byte	0x5
 6184 191a 00       		.byte	0
 6185 191b 01       		.byte	0x1
 6186 191c 02       		.byte	0x2
 6187 191d 03       		.byte	0x3
 6188 191e 04       		.byte	0x4
 6189 191f 01       		.byte	0x1
 6190 1920 00       		.byte	0
 6191 1921 01       		.byte	0x1
 6192 1922 00       		.byte	0
ARM GAS  C:\Users\JACOB-~1\AppData\Local\Temp\cchboK4P.s 			page 118


 6193 1923 04       		.byte	0x4
 6194 1924 00       		.byte	0
 6195 1925 01       		.byte	0x1
 6196 1926 02       		.byte	0x2
 6197 1927 03       		.byte	0x3
 6198 1928 01       		.byte	0x1
 6199 1929 00       		.byte	0
 6200 192a 01       		.byte	0x1
 6201 192b 00       		.byte	0
 6202 192c 05       		.byte	0x5
 6203 192d 00       		.byte	0
 6204 192e 01       		.byte	0x1
 6205 192f 02       		.byte	0x2
 6206 1930 03       		.byte	0x3
 6207 1931 04       		.byte	0x4
 6208 1932 14       		.uleb128 0x14
 6209 1933 D1180000 		.4byte	0x18d1
 6210 1937 16       		.uleb128 0x16
 6211 1938 55030000 		.4byte	.LASF59
 6212 193c 04       		.byte	0x4
 6213 193d D901     		.2byte	0x1d9
 6214 193f 58190000 		.4byte	0x1958
 6215 1943 14       		.byte	0x14
 6216 1944 01       		.byte	0x1
 6217 1945 00       		.byte	0
 6218 1946 01       		.byte	0x1
 6219 1947 00       		.byte	0
 6220 1948 01       		.byte	0x1
 6221 1949 00       		.byte	0
 6222 194a 01       		.byte	0x1
 6223 194b 00       		.byte	0
 6224 194c 03       		.byte	0x3
 6225 194d 00       		.byte	0
 6226 194e 01       		.byte	0x1
 6227 194f 02       		.byte	0x2
 6228 1950 01       		.byte	0x1
 6229 1951 00       		.byte	0
 6230 1952 05       		.byte	0x5
 6231 1953 00       		.byte	0
 6232 1954 01       		.byte	0x1
 6233 1955 02       		.byte	0x2
 6234 1956 03       		.byte	0x3
 6235 1957 04       		.byte	0x4
 6236 1958 14       		.uleb128 0x14
 6237 1959 9B180000 		.4byte	0x189b
 6238 195d 16       		.uleb128 0x16
 6239 195e 5C030000 		.4byte	.LASF60
 6240 1962 04       		.byte	0x4
 6241 1963 EB01     		.2byte	0x1eb
 6242 1965 82190000 		.4byte	0x1982
 6243 1969 18       		.byte	0x18
 6244 196a 03       		.byte	0x3
 6245 196b 01       		.byte	0x1
 6246 196c 02       		.byte	0x2
 6247 196d 03       		.byte	0x3
 6248 196e 02       		.byte	0x2
 6249 196f 00       		.byte	0
ARM GAS  C:\Users\JACOB-~1\AppData\Local\Temp\cchboK4P.s 			page 119


 6250 1970 04       		.byte	0x4
 6251 1971 02       		.byte	0x2
 6252 1972 00       		.byte	0
 6253 1973 04       		.byte	0x4
 6254 1974 02       		.byte	0x2
 6255 1975 00       		.byte	0
 6256 1976 04       		.byte	0x4
 6257 1977 03       		.byte	0x3
 6258 1978 00       		.byte	0
 6259 1979 03       		.byte	0x3
 6260 197a 04       		.byte	0x4
 6261 197b 01       		.byte	0x1
 6262 197c 00       		.byte	0
 6263 197d 04       		.byte	0x4
 6264 197e 01       		.byte	0x1
 6265 197f 02       		.byte	0x2
 6266 1980 03       		.byte	0x3
 6267 1981 04       		.byte	0x4
 6268 1982 14       		.uleb128 0x14
 6269 1983 85150000 		.4byte	0x1585
 6270 1987 19       		.uleb128 0x19
 6271 1988 79030000 		.4byte	.LASF61
 6272 198c 01       		.byte	0x1
 6273 198d 0C       		.byte	0xc
 6274 198e 73000000 		.4byte	0x73
 6275 1992 05       		.uleb128 0x5
 6276 1993 03       		.byte	0x3
 6277 1994 00000000 		.4byte	screen_state
 6278 1998 19       		.uleb128 0x19
 6279 1999 33000000 		.4byte	.LASF62
 6280 199d 01       		.byte	0x1
 6281 199e 0D       		.byte	0xd
 6282 199f 73000000 		.4byte	0x73
 6283 19a3 05       		.uleb128 0x5
 6284 19a4 03       		.byte	0x3
 6285 19a5 00000000 		.4byte	device_selection
 6286 19a9 19       		.uleb128 0x19
 6287 19aa AF010000 		.4byte	.LASF63
 6288 19ae 01       		.byte	0x1
 6289 19af 0E       		.byte	0xe
 6290 19b0 73000000 		.4byte	0x73
 6291 19b4 05       		.uleb128 0x5
 6292 19b5 03       		.byte	0x3
 6293 19b6 00000000 		.4byte	curve_nums
 6294 19ba 19       		.uleb128 0x19
 6295 19bb 57000000 		.4byte	.LASF64
 6296 19bf 01       		.byte	0x1
 6297 19c0 0F       		.byte	0xf
 6298 19c1 73000000 		.4byte	0x73
 6299 19c5 05       		.uleb128 0x5
 6300 19c6 03       		.byte	0x3
 6301 19c7 00000000 		.4byte	write_sd
 6302 19cb 19       		.uleb128 0x19
 6303 19cc CC030000 		.4byte	.LASF65
 6304 19d0 01       		.byte	0x1
 6305 19d1 10       		.byte	0x10
 6306 19d2 73000000 		.4byte	0x73
ARM GAS  C:\Users\JACOB-~1\AppData\Local\Temp\cchboK4P.s 			page 120


 6307 19d6 05       		.uleb128 0x5
 6308 19d7 03       		.byte	0x3
 6309 19d8 00000000 		.4byte	num_avg
 6310 19dc 19       		.uleb128 0x19
 6311 19dd 62040000 		.4byte	.LASF66
 6312 19e1 01       		.byte	0x1
 6313 19e2 11       		.byte	0x11
 6314 19e3 73000000 		.4byte	0x73
 6315 19e7 05       		.uleb128 0x5
 6316 19e8 03       		.byte	0x3
 6317 19e9 00000000 		.4byte	draw_grid
 6318 19ed 19       		.uleb128 0x19
 6319 19ee 08000000 		.4byte	.LASF67
 6320 19f2 01       		.byte	0x1
 6321 19f3 12       		.byte	0x12
 6322 19f4 73000000 		.4byte	0x73
 6323 19f8 05       		.uleb128 0x5
 6324 19f9 03       		.byte	0x3
 6325 19fa 00000000 		.4byte	rand_num_1
 6326 19fe 19       		.uleb128 0x19
 6327 19ff 1A000000 		.4byte	.LASF68
 6328 1a03 01       		.byte	0x1
 6329 1a04 13       		.byte	0x13
 6330 1a05 73000000 		.4byte	0x73
 6331 1a09 05       		.uleb128 0x5
 6332 1a0a 03       		.byte	0x3
 6333 1a0b 00000000 		.4byte	rand_num_2
 6334 1a0f 19       		.uleb128 0x19
 6335 1a10 92000000 		.4byte	.LASF69
 6336 1a14 01       		.byte	0x1
 6337 1a15 14       		.byte	0x14
 6338 1a16 73000000 		.4byte	0x73
 6339 1a1a 05       		.uleb128 0x5
 6340 1a1b 03       		.byte	0x3
 6341 1a1c 00000000 		.4byte	cooldown_time
 6342 1a20 19       		.uleb128 0x19
 6343 1a21 75000000 		.4byte	.LASF70
 6344 1a25 01       		.byte	0x1
 6345 1a26 15       		.byte	0x15
 6346 1a27 73000000 		.4byte	0x73
 6347 1a2b 05       		.uleb128 0x5
 6348 1a2c 03       		.byte	0x3
 6349 1a2d 00000000 		.4byte	vds_high
 6350 1a31 19       		.uleb128 0x19
 6351 1a32 BD020000 		.4byte	.LASF71
 6352 1a36 01       		.byte	0x1
 6353 1a37 16       		.byte	0x16
 6354 1a38 73000000 		.4byte	0x73
 6355 1a3c 05       		.uleb128 0x5
 6356 1a3d 03       		.byte	0x3
 6357 1a3e 00000000 		.4byte	vds_high_vdac_code
 6358 1a42 1A       		.uleb128 0x1a
 6359 1a43 D0020000 		.4byte	.LASF18
 6360 1a47 D0020000 		.4byte	.LASF18
 6361 1a4b 01       		.byte	0x1
 6362 1a4c 29       		.byte	0x29
 6363 1a4d 1A       		.uleb128 0x1a
ARM GAS  C:\Users\JACOB-~1\AppData\Local\Temp\cchboK4P.s 			page 121


 6364 1a4e 79020000 		.4byte	.LASF19
 6365 1a52 79020000 		.4byte	.LASF19
 6366 1a56 01       		.byte	0x1
 6367 1a57 50       		.byte	0x50
 6368 1a58 1A       		.uleb128 0x1a
 6369 1a59 DD000000 		.4byte	.LASF20
 6370 1a5d DD000000 		.4byte	.LASF20
 6371 1a61 01       		.byte	0x1
 6372 1a62 54       		.byte	0x54
 6373 1a63 1A       		.uleb128 0x1a
 6374 1a64 6C040000 		.4byte	.LASF21
 6375 1a68 6C040000 		.4byte	.LASF21
 6376 1a6c 01       		.byte	0x1
 6377 1a6d 58       		.byte	0x58
 6378 1a6e 1A       		.uleb128 0x1a
 6379 1a6f A6000000 		.4byte	.LASF22
 6380 1a73 A6000000 		.4byte	.LASF22
 6381 1a77 01       		.byte	0x1
 6382 1a78 5C       		.byte	0x5c
 6383 1a79 1A       		.uleb128 0x1a
 6384 1a7a 0A010000 		.4byte	.LASF23
 6385 1a7e 0A010000 		.4byte	.LASF23
 6386 1a82 01       		.byte	0x1
 6387 1a83 60       		.byte	0x60
 6388 1a84 1A       		.uleb128 0x1a
 6389 1a85 63030000 		.4byte	.LASF24
 6390 1a89 63030000 		.4byte	.LASF24
 6391 1a8d 01       		.byte	0x1
 6392 1a8e 7F       		.byte	0x7f
 6393 1a8f 1A       		.uleb128 0x1a
 6394 1a90 46010000 		.4byte	.LASF72
 6395 1a94 46010000 		.4byte	.LASF72
 6396 1a98 05       		.byte	0x5
 6397 1a99 CB       		.byte	0xcb
 6398 1a9a 1A       		.uleb128 0x1a
 6399 1a9b FE000000 		.4byte	.LASF25
 6400 1a9f FE000000 		.4byte	.LASF25
 6401 1aa3 01       		.byte	0x1
 6402 1aa4 84       		.byte	0x84
 6403 1aa5 1A       		.uleb128 0x1a
 6404 1aa6 86000000 		.4byte	.LASF27
 6405 1aaa 86000000 		.4byte	.LASF27
 6406 1aae 01       		.byte	0x1
 6407 1aaf D4       		.byte	0xd4
 6408 1ab0 1A       		.uleb128 0x1a
 6409 1ab1 72010000 		.4byte	.LASF73
 6410 1ab5 72010000 		.4byte	.LASF73
 6411 1ab9 06       		.byte	0x6
 6412 1aba 32       		.byte	0x32
 6413 1abb 1A       		.uleb128 0x1a
 6414 1abc AE020000 		.4byte	.LASF74
 6415 1ac0 AE020000 		.4byte	.LASF74
 6416 1ac4 06       		.byte	0x6
 6417 1ac5 31       		.byte	0x31
 6418 1ac6 1B       		.uleb128 0x1b
 6419 1ac7 96020000 		.4byte	.LASF29
 6420 1acb 96020000 		.4byte	.LASF29
ARM GAS  C:\Users\JACOB-~1\AppData\Local\Temp\cchboK4P.s 			page 122


 6421 1acf 01       		.byte	0x1
 6422 1ad0 3201     		.2byte	0x132
 6423 1ad2 1B       		.uleb128 0x1b
 6424 1ad3 59010000 		.4byte	.LASF30
 6425 1ad7 59010000 		.4byte	.LASF30
 6426 1adb 01       		.byte	0x1
 6427 1adc 3601     		.2byte	0x136
 6428 1ade 1B       		.uleb128 0x1b
 6429 1adf 1D010000 		.4byte	.LASF31
 6430 1ae3 1D010000 		.4byte	.LASF31
 6431 1ae7 01       		.byte	0x1
 6432 1ae8 3A01     		.2byte	0x13a
 6433 1aea 00       		.byte	0
 6434              		.section	.debug_abbrev,"",%progbits
 6435              	.Ldebug_abbrev0:
 6436 0000 01       		.uleb128 0x1
 6437 0001 11       		.uleb128 0x11
 6438 0002 01       		.byte	0x1
 6439 0003 25       		.uleb128 0x25
 6440 0004 0E       		.uleb128 0xe
 6441 0005 13       		.uleb128 0x13
 6442 0006 0B       		.uleb128 0xb
 6443 0007 03       		.uleb128 0x3
 6444 0008 0E       		.uleb128 0xe
 6445 0009 1B       		.uleb128 0x1b
 6446 000a 0E       		.uleb128 0xe
 6447 000b 55       		.uleb128 0x55
 6448 000c 17       		.uleb128 0x17
 6449 000d 11       		.uleb128 0x11
 6450 000e 01       		.uleb128 0x1
 6451 000f 10       		.uleb128 0x10
 6452 0010 17       		.uleb128 0x17
 6453 0011 00       		.byte	0
 6454 0012 00       		.byte	0
 6455 0013 02       		.uleb128 0x2
 6456 0014 24       		.uleb128 0x24
 6457 0015 00       		.byte	0
 6458 0016 0B       		.uleb128 0xb
 6459 0017 0B       		.uleb128 0xb
 6460 0018 3E       		.uleb128 0x3e
 6461 0019 0B       		.uleb128 0xb
 6462 001a 03       		.uleb128 0x3
 6463 001b 0E       		.uleb128 0xe
 6464 001c 00       		.byte	0
 6465 001d 00       		.byte	0
 6466 001e 03       		.uleb128 0x3
 6467 001f 16       		.uleb128 0x16
 6468 0020 00       		.byte	0
 6469 0021 03       		.uleb128 0x3
 6470 0022 0E       		.uleb128 0xe
 6471 0023 3A       		.uleb128 0x3a
 6472 0024 0B       		.uleb128 0xb
 6473 0025 3B       		.uleb128 0x3b
 6474 0026 0B       		.uleb128 0xb
 6475 0027 49       		.uleb128 0x49
 6476 0028 13       		.uleb128 0x13
 6477 0029 00       		.byte	0
ARM GAS  C:\Users\JACOB-~1\AppData\Local\Temp\cchboK4P.s 			page 123


 6478 002a 00       		.byte	0
 6479 002b 04       		.uleb128 0x4
 6480 002c 24       		.uleb128 0x24
 6481 002d 00       		.byte	0
 6482 002e 0B       		.uleb128 0xb
 6483 002f 0B       		.uleb128 0xb
 6484 0030 3E       		.uleb128 0x3e
 6485 0031 0B       		.uleb128 0xb
 6486 0032 03       		.uleb128 0x3
 6487 0033 08       		.uleb128 0x8
 6488 0034 00       		.byte	0
 6489 0035 00       		.byte	0
 6490 0036 05       		.uleb128 0x5
 6491 0037 2E       		.uleb128 0x2e
 6492 0038 01       		.byte	0x1
 6493 0039 3F       		.uleb128 0x3f
 6494 003a 19       		.uleb128 0x19
 6495 003b 03       		.uleb128 0x3
 6496 003c 0E       		.uleb128 0xe
 6497 003d 3A       		.uleb128 0x3a
 6498 003e 0B       		.uleb128 0xb
 6499 003f 3B       		.uleb128 0x3b
 6500 0040 0B       		.uleb128 0xb
 6501 0041 27       		.uleb128 0x27
 6502 0042 19       		.uleb128 0x19
 6503 0043 11       		.uleb128 0x11
 6504 0044 01       		.uleb128 0x1
 6505 0045 12       		.uleb128 0x12
 6506 0046 06       		.uleb128 0x6
 6507 0047 40       		.uleb128 0x40
 6508 0048 18       		.uleb128 0x18
 6509 0049 9642     		.uleb128 0x2116
 6510 004b 19       		.uleb128 0x19
 6511 004c 01       		.uleb128 0x1
 6512 004d 13       		.uleb128 0x13
 6513 004e 00       		.byte	0
 6514 004f 00       		.byte	0
 6515 0050 06       		.uleb128 0x6
 6516 0051 05       		.uleb128 0x5
 6517 0052 00       		.byte	0
 6518 0053 03       		.uleb128 0x3
 6519 0054 08       		.uleb128 0x8
 6520 0055 3A       		.uleb128 0x3a
 6521 0056 0B       		.uleb128 0xb
 6522 0057 3B       		.uleb128 0x3b
 6523 0058 0B       		.uleb128 0xb
 6524 0059 49       		.uleb128 0x49
 6525 005a 13       		.uleb128 0x13
 6526 005b 02       		.uleb128 0x2
 6527 005c 17       		.uleb128 0x17
 6528 005d 00       		.byte	0
 6529 005e 00       		.byte	0
 6530 005f 07       		.uleb128 0x7
 6531 0060 0B       		.uleb128 0xb
 6532 0061 01       		.byte	0x1
 6533 0062 11       		.uleb128 0x11
 6534 0063 01       		.uleb128 0x1
ARM GAS  C:\Users\JACOB-~1\AppData\Local\Temp\cchboK4P.s 			page 124


 6535 0064 12       		.uleb128 0x12
 6536 0065 06       		.uleb128 0x6
 6537 0066 01       		.uleb128 0x1
 6538 0067 13       		.uleb128 0x13
 6539 0068 00       		.byte	0
 6540 0069 00       		.byte	0
 6541 006a 08       		.uleb128 0x8
 6542 006b 2E       		.uleb128 0x2e
 6543 006c 01       		.byte	0x1
 6544 006d 3F       		.uleb128 0x3f
 6545 006e 19       		.uleb128 0x19
 6546 006f 03       		.uleb128 0x3
 6547 0070 0E       		.uleb128 0xe
 6548 0071 3A       		.uleb128 0x3a
 6549 0072 0B       		.uleb128 0xb
 6550 0073 3B       		.uleb128 0x3b
 6551 0074 0B       		.uleb128 0xb
 6552 0075 49       		.uleb128 0x49
 6553 0076 13       		.uleb128 0x13
 6554 0077 3C       		.uleb128 0x3c
 6555 0078 19       		.uleb128 0x19
 6556 0079 01       		.uleb128 0x1
 6557 007a 13       		.uleb128 0x13
 6558 007b 00       		.byte	0
 6559 007c 00       		.byte	0
 6560 007d 09       		.uleb128 0x9
 6561 007e 18       		.uleb128 0x18
 6562 007f 00       		.byte	0
 6563 0080 00       		.byte	0
 6564 0081 00       		.byte	0
 6565 0082 0A       		.uleb128 0xa
 6566 0083 898201   		.uleb128 0x4109
 6567 0086 00       		.byte	0
 6568 0087 11       		.uleb128 0x11
 6569 0088 01       		.uleb128 0x1
 6570 0089 31       		.uleb128 0x31
 6571 008a 13       		.uleb128 0x13
 6572 008b 00       		.byte	0
 6573 008c 00       		.byte	0
 6574 008d 0B       		.uleb128 0xb
 6575 008e 34       		.uleb128 0x34
 6576 008f 00       		.byte	0
 6577 0090 03       		.uleb128 0x3
 6578 0091 0E       		.uleb128 0xe
 6579 0092 3A       		.uleb128 0x3a
 6580 0093 0B       		.uleb128 0xb
 6581 0094 3B       		.uleb128 0x3b
 6582 0095 0B       		.uleb128 0xb
 6583 0096 49       		.uleb128 0x49
 6584 0097 13       		.uleb128 0x13
 6585 0098 02       		.uleb128 0x2
 6586 0099 18       		.uleb128 0x18
 6587 009a 00       		.byte	0
 6588 009b 00       		.byte	0
 6589 009c 0C       		.uleb128 0xc
 6590 009d 898201   		.uleb128 0x4109
 6591 00a0 01       		.byte	0x1
ARM GAS  C:\Users\JACOB-~1\AppData\Local\Temp\cchboK4P.s 			page 125


 6592 00a1 11       		.uleb128 0x11
 6593 00a2 01       		.uleb128 0x1
 6594 00a3 31       		.uleb128 0x31
 6595 00a4 13       		.uleb128 0x13
 6596 00a5 01       		.uleb128 0x1
 6597 00a6 13       		.uleb128 0x13
 6598 00a7 00       		.byte	0
 6599 00a8 00       		.byte	0
 6600 00a9 0D       		.uleb128 0xd
 6601 00aa 8A8201   		.uleb128 0x410a
 6602 00ad 00       		.byte	0
 6603 00ae 02       		.uleb128 0x2
 6604 00af 18       		.uleb128 0x18
 6605 00b0 9142     		.uleb128 0x2111
 6606 00b2 18       		.uleb128 0x18
 6607 00b3 00       		.byte	0
 6608 00b4 00       		.byte	0
 6609 00b5 0E       		.uleb128 0xe
 6610 00b6 898201   		.uleb128 0x4109
 6611 00b9 01       		.byte	0x1
 6612 00ba 11       		.uleb128 0x11
 6613 00bb 01       		.uleb128 0x1
 6614 00bc 31       		.uleb128 0x31
 6615 00bd 13       		.uleb128 0x13
 6616 00be 00       		.byte	0
 6617 00bf 00       		.byte	0
 6618 00c0 0F       		.uleb128 0xf
 6619 00c1 34       		.uleb128 0x34
 6620 00c2 00       		.byte	0
 6621 00c3 03       		.uleb128 0x3
 6622 00c4 0E       		.uleb128 0xe
 6623 00c5 3A       		.uleb128 0x3a
 6624 00c6 0B       		.uleb128 0xb
 6625 00c7 3B       		.uleb128 0x3b
 6626 00c8 05       		.uleb128 0x5
 6627 00c9 49       		.uleb128 0x49
 6628 00ca 13       		.uleb128 0x13
 6629 00cb 02       		.uleb128 0x2
 6630 00cc 18       		.uleb128 0x18
 6631 00cd 00       		.byte	0
 6632 00ce 00       		.byte	0
 6633 00cf 10       		.uleb128 0x10
 6634 00d0 2E       		.uleb128 0x2e
 6635 00d1 01       		.byte	0x1
 6636 00d2 3F       		.uleb128 0x3f
 6637 00d3 19       		.uleb128 0x19
 6638 00d4 03       		.uleb128 0x3
 6639 00d5 0E       		.uleb128 0xe
 6640 00d6 3A       		.uleb128 0x3a
 6641 00d7 0B       		.uleb128 0xb
 6642 00d8 3B       		.uleb128 0x3b
 6643 00d9 05       		.uleb128 0x5
 6644 00da 49       		.uleb128 0x49
 6645 00db 13       		.uleb128 0x13
 6646 00dc 3C       		.uleb128 0x3c
 6647 00dd 19       		.uleb128 0x19
 6648 00de 01       		.uleb128 0x1
ARM GAS  C:\Users\JACOB-~1\AppData\Local\Temp\cchboK4P.s 			page 126


 6649 00df 13       		.uleb128 0x13
 6650 00e0 00       		.byte	0
 6651 00e1 00       		.byte	0
 6652 00e2 11       		.uleb128 0x11
 6653 00e3 0B       		.uleb128 0xb
 6654 00e4 01       		.byte	0x1
 6655 00e5 11       		.uleb128 0x11
 6656 00e6 01       		.uleb128 0x1
 6657 00e7 12       		.uleb128 0x12
 6658 00e8 06       		.uleb128 0x6
 6659 00e9 00       		.byte	0
 6660 00ea 00       		.byte	0
 6661 00eb 12       		.uleb128 0x12
 6662 00ec 01       		.uleb128 0x1
 6663 00ed 01       		.byte	0x1
 6664 00ee 49       		.uleb128 0x49
 6665 00ef 13       		.uleb128 0x13
 6666 00f0 01       		.uleb128 0x1
 6667 00f1 13       		.uleb128 0x13
 6668 00f2 00       		.byte	0
 6669 00f3 00       		.byte	0
 6670 00f4 13       		.uleb128 0x13
 6671 00f5 21       		.uleb128 0x21
 6672 00f6 00       		.byte	0
 6673 00f7 49       		.uleb128 0x49
 6674 00f8 13       		.uleb128 0x13
 6675 00f9 2F       		.uleb128 0x2f
 6676 00fa 0B       		.uleb128 0xb
 6677 00fb 00       		.byte	0
 6678 00fc 00       		.byte	0
 6679 00fd 14       		.uleb128 0x14
 6680 00fe 26       		.uleb128 0x26
 6681 00ff 00       		.byte	0
 6682 0100 49       		.uleb128 0x49
 6683 0101 13       		.uleb128 0x13
 6684 0102 00       		.byte	0
 6685 0103 00       		.byte	0
 6686 0104 15       		.uleb128 0x15
 6687 0105 34       		.uleb128 0x34
 6688 0106 00       		.byte	0
 6689 0107 03       		.uleb128 0x3
 6690 0108 0E       		.uleb128 0xe
 6691 0109 3A       		.uleb128 0x3a
 6692 010a 0B       		.uleb128 0xb
 6693 010b 3B       		.uleb128 0x3b
 6694 010c 0B       		.uleb128 0xb
 6695 010d 49       		.uleb128 0x49
 6696 010e 13       		.uleb128 0x13
 6697 010f 1C       		.uleb128 0x1c
 6698 0110 0A       		.uleb128 0xa
 6699 0111 00       		.byte	0
 6700 0112 00       		.byte	0
 6701 0113 16       		.uleb128 0x16
 6702 0114 34       		.uleb128 0x34
 6703 0115 00       		.byte	0
 6704 0116 03       		.uleb128 0x3
 6705 0117 0E       		.uleb128 0xe
ARM GAS  C:\Users\JACOB-~1\AppData\Local\Temp\cchboK4P.s 			page 127


 6706 0118 3A       		.uleb128 0x3a
 6707 0119 0B       		.uleb128 0xb
 6708 011a 3B       		.uleb128 0x3b
 6709 011b 05       		.uleb128 0x5
 6710 011c 49       		.uleb128 0x49
 6711 011d 13       		.uleb128 0x13
 6712 011e 1C       		.uleb128 0x1c
 6713 011f 0A       		.uleb128 0xa
 6714 0120 00       		.byte	0
 6715 0121 00       		.byte	0
 6716 0122 17       		.uleb128 0x17
 6717 0123 21       		.uleb128 0x21
 6718 0124 00       		.byte	0
 6719 0125 49       		.uleb128 0x49
 6720 0126 13       		.uleb128 0x13
 6721 0127 2F       		.uleb128 0x2f
 6722 0128 0D       		.uleb128 0xd
 6723 0129 00       		.byte	0
 6724 012a 00       		.byte	0
 6725 012b 18       		.uleb128 0x18
 6726 012c 34       		.uleb128 0x34
 6727 012d 00       		.byte	0
 6728 012e 03       		.uleb128 0x3
 6729 012f 0E       		.uleb128 0xe
 6730 0130 3A       		.uleb128 0x3a
 6731 0131 0B       		.uleb128 0xb
 6732 0132 3B       		.uleb128 0x3b
 6733 0133 05       		.uleb128 0x5
 6734 0134 49       		.uleb128 0x49
 6735 0135 13       		.uleb128 0x13
 6736 0136 00       		.byte	0
 6737 0137 00       		.byte	0
 6738 0138 19       		.uleb128 0x19
 6739 0139 34       		.uleb128 0x34
 6740 013a 00       		.byte	0
 6741 013b 03       		.uleb128 0x3
 6742 013c 0E       		.uleb128 0xe
 6743 013d 3A       		.uleb128 0x3a
 6744 013e 0B       		.uleb128 0xb
 6745 013f 3B       		.uleb128 0x3b
 6746 0140 0B       		.uleb128 0xb
 6747 0141 49       		.uleb128 0x49
 6748 0142 13       		.uleb128 0x13
 6749 0143 3F       		.uleb128 0x3f
 6750 0144 19       		.uleb128 0x19
 6751 0145 02       		.uleb128 0x2
 6752 0146 18       		.uleb128 0x18
 6753 0147 00       		.byte	0
 6754 0148 00       		.byte	0
 6755 0149 1A       		.uleb128 0x1a
 6756 014a 2E       		.uleb128 0x2e
 6757 014b 00       		.byte	0
 6758 014c 3F       		.uleb128 0x3f
 6759 014d 19       		.uleb128 0x19
 6760 014e 3C       		.uleb128 0x3c
 6761 014f 19       		.uleb128 0x19
 6762 0150 6E       		.uleb128 0x6e
ARM GAS  C:\Users\JACOB-~1\AppData\Local\Temp\cchboK4P.s 			page 128


 6763 0151 0E       		.uleb128 0xe
 6764 0152 03       		.uleb128 0x3
 6765 0153 0E       		.uleb128 0xe
 6766 0154 3A       		.uleb128 0x3a
 6767 0155 0B       		.uleb128 0xb
 6768 0156 3B       		.uleb128 0x3b
 6769 0157 0B       		.uleb128 0xb
 6770 0158 00       		.byte	0
 6771 0159 00       		.byte	0
 6772 015a 1B       		.uleb128 0x1b
 6773 015b 2E       		.uleb128 0x2e
 6774 015c 00       		.byte	0
 6775 015d 3F       		.uleb128 0x3f
 6776 015e 19       		.uleb128 0x19
 6777 015f 3C       		.uleb128 0x3c
 6778 0160 19       		.uleb128 0x19
 6779 0161 6E       		.uleb128 0x6e
 6780 0162 0E       		.uleb128 0xe
 6781 0163 03       		.uleb128 0x3
 6782 0164 0E       		.uleb128 0xe
 6783 0165 3A       		.uleb128 0x3a
 6784 0166 0B       		.uleb128 0xb
 6785 0167 3B       		.uleb128 0x3b
 6786 0168 05       		.uleb128 0x5
 6787 0169 00       		.byte	0
 6788 016a 00       		.byte	0
 6789 016b 00       		.byte	0
 6790              		.section	.debug_loc,"",%progbits
 6791              	.Ldebug_loc0:
 6792              	.LLST0:
 6793 0000 00000000 		.4byte	.LVL0
 6794 0004 65000000 		.4byte	.LVL1-1
 6795 0008 0100     		.2byte	0x1
 6796 000a 50       		.byte	0x50
 6797 000b 65000000 		.4byte	.LVL1-1
 6798 000f 68000000 		.4byte	.LVL2
 6799 0013 0400     		.2byte	0x4
 6800 0015 F3       		.byte	0xf3
 6801 0016 01       		.uleb128 0x1
 6802 0017 50       		.byte	0x50
 6803 0018 9F       		.byte	0x9f
 6804 0019 68000000 		.4byte	.LVL2
 6805 001d 81000000 		.4byte	.LVL3-1
 6806 0021 0100     		.2byte	0x1
 6807 0023 50       		.byte	0x50
 6808 0024 81000000 		.4byte	.LVL3-1
 6809 0028 84000000 		.4byte	.LVL4
 6810 002c 0400     		.2byte	0x4
 6811 002e F3       		.byte	0xf3
 6812 002f 01       		.uleb128 0x1
 6813 0030 50       		.byte	0x50
 6814 0031 9F       		.byte	0x9f
 6815 0032 84000000 		.4byte	.LVL4
 6816 0036 A3000000 		.4byte	.LVL5-1
 6817 003a 0100     		.2byte	0x1
 6818 003c 50       		.byte	0x50
 6819 003d A3000000 		.4byte	.LVL5-1
ARM GAS  C:\Users\JACOB-~1\AppData\Local\Temp\cchboK4P.s 			page 129


 6820 0041 A6000000 		.4byte	.LVL6
 6821 0045 0400     		.2byte	0x4
 6822 0047 F3       		.byte	0xf3
 6823 0048 01       		.uleb128 0x1
 6824 0049 50       		.byte	0x50
 6825 004a 9F       		.byte	0x9f
 6826 004b A6000000 		.4byte	.LVL6
 6827 004f BF000000 		.4byte	.LVL7-1
 6828 0053 0100     		.2byte	0x1
 6829 0055 50       		.byte	0x50
 6830 0056 BF000000 		.4byte	.LVL7-1
 6831 005a E2000000 		.4byte	.LVL8
 6832 005e 0400     		.2byte	0x4
 6833 0060 F3       		.byte	0xf3
 6834 0061 01       		.uleb128 0x1
 6835 0062 50       		.byte	0x50
 6836 0063 9F       		.byte	0x9f
 6837 0064 E2000000 		.4byte	.LVL8
 6838 0068 ED000000 		.4byte	.LVL9-1
 6839 006c 0100     		.2byte	0x1
 6840 006e 50       		.byte	0x50
 6841 006f ED000000 		.4byte	.LVL9-1
 6842 0073 F2000000 		.4byte	.LVL10
 6843 0077 0400     		.2byte	0x4
 6844 0079 F3       		.byte	0xf3
 6845 007a 01       		.uleb128 0x1
 6846 007b 50       		.byte	0x50
 6847 007c 9F       		.byte	0x9f
 6848 007d F2000000 		.4byte	.LVL10
 6849 0081 01010000 		.4byte	.LVL11-1
 6850 0085 0100     		.2byte	0x1
 6851 0087 50       		.byte	0x50
 6852 0088 01010000 		.4byte	.LVL11-1
 6853 008c 06010000 		.4byte	.LVL12
 6854 0090 0400     		.2byte	0x4
 6855 0092 F3       		.byte	0xf3
 6856 0093 01       		.uleb128 0x1
 6857 0094 50       		.byte	0x50
 6858 0095 9F       		.byte	0x9f
 6859 0096 06010000 		.4byte	.LVL12
 6860 009a 17010000 		.4byte	.LVL13-1
 6861 009e 0100     		.2byte	0x1
 6862 00a0 50       		.byte	0x50
 6863 00a1 17010000 		.4byte	.LVL13-1
 6864 00a5 1C010000 		.4byte	.LVL14
 6865 00a9 0400     		.2byte	0x4
 6866 00ab F3       		.byte	0xf3
 6867 00ac 01       		.uleb128 0x1
 6868 00ad 50       		.byte	0x50
 6869 00ae 9F       		.byte	0x9f
 6870 00af 1C010000 		.4byte	.LVL14
 6871 00b3 2B010000 		.4byte	.LVL15-1
 6872 00b7 0100     		.2byte	0x1
 6873 00b9 50       		.byte	0x50
 6874 00ba 2B010000 		.4byte	.LVL15-1
 6875 00be 30010000 		.4byte	.LVL16
 6876 00c2 0400     		.2byte	0x4
ARM GAS  C:\Users\JACOB-~1\AppData\Local\Temp\cchboK4P.s 			page 130


 6877 00c4 F3       		.byte	0xf3
 6878 00c5 01       		.uleb128 0x1
 6879 00c6 50       		.byte	0x50
 6880 00c7 9F       		.byte	0x9f
 6881 00c8 30010000 		.4byte	.LVL16
 6882 00cc 3F010000 		.4byte	.LVL17-1
 6883 00d0 0100     		.2byte	0x1
 6884 00d2 50       		.byte	0x50
 6885 00d3 3F010000 		.4byte	.LVL17-1
 6886 00d7 44010000 		.4byte	.LVL18
 6887 00db 0400     		.2byte	0x4
 6888 00dd F3       		.byte	0xf3
 6889 00de 01       		.uleb128 0x1
 6890 00df 50       		.byte	0x50
 6891 00e0 9F       		.byte	0x9f
 6892 00e1 44010000 		.4byte	.LVL18
 6893 00e5 B5010000 		.4byte	.LVL19-1
 6894 00e9 0100     		.2byte	0x1
 6895 00eb 50       		.byte	0x50
 6896 00ec B5010000 		.4byte	.LVL19-1
 6897 00f0 BA010000 		.4byte	.LVL20
 6898 00f4 0400     		.2byte	0x4
 6899 00f6 F3       		.byte	0xf3
 6900 00f7 01       		.uleb128 0x1
 6901 00f8 50       		.byte	0x50
 6902 00f9 9F       		.byte	0x9f
 6903 00fa BA010000 		.4byte	.LVL20
 6904 00fe EE010000 		.4byte	.LVL22
 6905 0102 0100     		.2byte	0x1
 6906 0104 50       		.byte	0x50
 6907 0105 EE010000 		.4byte	.LVL22
 6908 0109 14020000 		.4byte	.LVL26
 6909 010d 0400     		.2byte	0x4
 6910 010f F3       		.byte	0xf3
 6911 0110 01       		.uleb128 0x1
 6912 0111 50       		.byte	0x50
 6913 0112 9F       		.byte	0x9f
 6914 0113 14020000 		.4byte	.LVL26
 6915 0117 42020000 		.4byte	.LVL28
 6916 011b 0100     		.2byte	0x1
 6917 011d 50       		.byte	0x50
 6918 011e 42020000 		.4byte	.LVL28
 6919 0122 68020000 		.4byte	.LVL32
 6920 0126 0400     		.2byte	0x4
 6921 0128 F3       		.byte	0xf3
 6922 0129 01       		.uleb128 0x1
 6923 012a 50       		.byte	0x50
 6924 012b 9F       		.byte	0x9f
 6925 012c 68020000 		.4byte	.LVL32
 6926 0130 96020000 		.4byte	.LVL34
 6927 0134 0100     		.2byte	0x1
 6928 0136 50       		.byte	0x50
 6929 0137 96020000 		.4byte	.LVL34
 6930 013b C4020000 		.4byte	.LVL38
 6931 013f 0400     		.2byte	0x4
 6932 0141 F3       		.byte	0xf3
 6933 0142 01       		.uleb128 0x1
ARM GAS  C:\Users\JACOB-~1\AppData\Local\Temp\cchboK4P.s 			page 131


 6934 0143 50       		.byte	0x50
 6935 0144 9F       		.byte	0x9f
 6936 0145 C4020000 		.4byte	.LVL38
 6937 0149 F2020000 		.4byte	.LVL40
 6938 014d 0100     		.2byte	0x1
 6939 014f 50       		.byte	0x50
 6940 0150 F2020000 		.4byte	.LVL40
 6941 0154 16030000 		.4byte	.LVL44
 6942 0158 0400     		.2byte	0x4
 6943 015a F3       		.byte	0xf3
 6944 015b 01       		.uleb128 0x1
 6945 015c 50       		.byte	0x50
 6946 015d 9F       		.byte	0x9f
 6947 015e 16030000 		.4byte	.LVL44
 6948 0162 40030000 		.4byte	.LVL46
 6949 0166 0100     		.2byte	0x1
 6950 0168 50       		.byte	0x50
 6951 0169 40030000 		.4byte	.LVL46
 6952 016d 64030000 		.4byte	.LVL50
 6953 0171 0400     		.2byte	0x4
 6954 0173 F3       		.byte	0xf3
 6955 0174 01       		.uleb128 0x1
 6956 0175 50       		.byte	0x50
 6957 0176 9F       		.byte	0x9f
 6958 0177 64030000 		.4byte	.LVL50
 6959 017b 94030000 		.4byte	.LVL52
 6960 017f 0100     		.2byte	0x1
 6961 0181 50       		.byte	0x50
 6962 0182 94030000 		.4byte	.LVL52
 6963 0186 B8030000 		.4byte	.LVL56
 6964 018a 0400     		.2byte	0x4
 6965 018c F3       		.byte	0xf3
 6966 018d 01       		.uleb128 0x1
 6967 018e 50       		.byte	0x50
 6968 018f 9F       		.byte	0x9f
 6969 0190 B8030000 		.4byte	.LVL56
 6970 0194 C9030000 		.4byte	.LVL57-1
 6971 0198 0100     		.2byte	0x1
 6972 019a 50       		.byte	0x50
 6973 019b C9030000 		.4byte	.LVL57-1
 6974 019f CC030000 		.4byte	.LVL58
 6975 01a3 0400     		.2byte	0x4
 6976 01a5 F3       		.byte	0xf3
 6977 01a6 01       		.uleb128 0x1
 6978 01a7 50       		.byte	0x50
 6979 01a8 9F       		.byte	0x9f
 6980 01a9 CC030000 		.4byte	.LVL58
 6981 01ad F4030000 		.4byte	.LVL60
 6982 01b1 0100     		.2byte	0x1
 6983 01b3 50       		.byte	0x50
 6984 01b4 F4030000 		.4byte	.LVL60
 6985 01b8 1C040000 		.4byte	.LVL64
 6986 01bc 0400     		.2byte	0x4
 6987 01be F3       		.byte	0xf3
 6988 01bf 01       		.uleb128 0x1
 6989 01c0 50       		.byte	0x50
 6990 01c1 9F       		.byte	0x9f
ARM GAS  C:\Users\JACOB-~1\AppData\Local\Temp\cchboK4P.s 			page 132


 6991 01c2 1C040000 		.4byte	.LVL64
 6992 01c6 48040000 		.4byte	.LVL66
 6993 01ca 0100     		.2byte	0x1
 6994 01cc 50       		.byte	0x50
 6995 01cd 48040000 		.4byte	.LVL66
 6996 01d1 6E040000 		.4byte	.LVL70
 6997 01d5 0400     		.2byte	0x4
 6998 01d7 F3       		.byte	0xf3
 6999 01d8 01       		.uleb128 0x1
 7000 01d9 50       		.byte	0x50
 7001 01da 9F       		.byte	0x9f
 7002 01db 6E040000 		.4byte	.LVL70
 7003 01df 7F040000 		.4byte	.LVL71-1
 7004 01e3 0100     		.2byte	0x1
 7005 01e5 50       		.byte	0x50
 7006 01e6 7F040000 		.4byte	.LVL71-1
 7007 01ea 82040000 		.4byte	.LVL72
 7008 01ee 0400     		.2byte	0x4
 7009 01f0 F3       		.byte	0xf3
 7010 01f1 01       		.uleb128 0x1
 7011 01f2 50       		.byte	0x50
 7012 01f3 9F       		.byte	0x9f
 7013 01f4 82040000 		.4byte	.LVL72
 7014 01f8 B4040000 		.4byte	.LVL74
 7015 01fc 0100     		.2byte	0x1
 7016 01fe 50       		.byte	0x50
 7017 01ff B4040000 		.4byte	.LVL74
 7018 0203 D8040000 		.4byte	.LVL78
 7019 0207 0400     		.2byte	0x4
 7020 0209 F3       		.byte	0xf3
 7021 020a 01       		.uleb128 0x1
 7022 020b 50       		.byte	0x50
 7023 020c 9F       		.byte	0x9f
 7024 020d D8040000 		.4byte	.LVL78
 7025 0211 0C050000 		.4byte	.LVL80
 7026 0215 0100     		.2byte	0x1
 7027 0217 50       		.byte	0x50
 7028 0218 0C050000 		.4byte	.LVL80
 7029 021c 30050000 		.4byte	.LVL84
 7030 0220 0400     		.2byte	0x4
 7031 0222 F3       		.byte	0xf3
 7032 0223 01       		.uleb128 0x1
 7033 0224 50       		.byte	0x50
 7034 0225 9F       		.byte	0x9f
 7035 0226 30050000 		.4byte	.LVL84
 7036 022a 41050000 		.4byte	.LVL85-1
 7037 022e 0100     		.2byte	0x1
 7038 0230 50       		.byte	0x50
 7039 0231 41050000 		.4byte	.LVL85-1
 7040 0235 44050000 		.4byte	.LVL86
 7041 0239 0400     		.2byte	0x4
 7042 023b F3       		.byte	0xf3
 7043 023c 01       		.uleb128 0x1
 7044 023d 50       		.byte	0x50
 7045 023e 9F       		.byte	0x9f
 7046 023f 44050000 		.4byte	.LVL86
 7047 0243 6C050000 		.4byte	.LVL88
ARM GAS  C:\Users\JACOB-~1\AppData\Local\Temp\cchboK4P.s 			page 133


 7048 0247 0100     		.2byte	0x1
 7049 0249 50       		.byte	0x50
 7050 024a 6C050000 		.4byte	.LVL88
 7051 024e 9C050000 		.4byte	.LVL91
 7052 0252 0400     		.2byte	0x4
 7053 0254 F3       		.byte	0xf3
 7054 0255 01       		.uleb128 0x1
 7055 0256 50       		.byte	0x50
 7056 0257 9F       		.byte	0x9f
 7057 0258 9C050000 		.4byte	.LVL91
 7058 025c C8050000 		.4byte	.LVL93
 7059 0260 0100     		.2byte	0x1
 7060 0262 50       		.byte	0x50
 7061 0263 C8050000 		.4byte	.LVL93
 7062 0267 EA050000 		.4byte	.LVL96
 7063 026b 0400     		.2byte	0x4
 7064 026d F3       		.byte	0xf3
 7065 026e 01       		.uleb128 0x1
 7066 026f 50       		.byte	0x50
 7067 0270 9F       		.byte	0x9f
 7068 0271 EA050000 		.4byte	.LVL96
 7069 0275 0B060000 		.4byte	.LVL97-1
 7070 0279 0100     		.2byte	0x1
 7071 027b 50       		.byte	0x50
 7072 027c 0B060000 		.4byte	.LVL97-1
 7073 0280 0E060000 		.4byte	.LVL98
 7074 0284 0400     		.2byte	0x4
 7075 0286 F3       		.byte	0xf3
 7076 0287 01       		.uleb128 0x1
 7077 0288 50       		.byte	0x50
 7078 0289 9F       		.byte	0x9f
 7079 028a 0E060000 		.4byte	.LVL98
 7080 028e 1D060000 		.4byte	.LVL99-1
 7081 0292 0100     		.2byte	0x1
 7082 0294 50       		.byte	0x50
 7083 0295 1D060000 		.4byte	.LVL99-1
 7084 0299 20060000 		.4byte	.LVL100
 7085 029d 0400     		.2byte	0x4
 7086 029f F3       		.byte	0xf3
 7087 02a0 01       		.uleb128 0x1
 7088 02a1 50       		.byte	0x50
 7089 02a2 9F       		.byte	0x9f
 7090 02a3 20060000 		.4byte	.LVL100
 7091 02a7 35060000 		.4byte	.LVL101-1
 7092 02ab 0100     		.2byte	0x1
 7093 02ad 50       		.byte	0x50
 7094 02ae 35060000 		.4byte	.LVL101-1
 7095 02b2 38060000 		.4byte	.LVL102
 7096 02b6 0400     		.2byte	0x4
 7097 02b8 F3       		.byte	0xf3
 7098 02b9 01       		.uleb128 0x1
 7099 02ba 50       		.byte	0x50
 7100 02bb 9F       		.byte	0x9f
 7101 02bc 38060000 		.4byte	.LVL102
 7102 02c0 47060000 		.4byte	.LVL103-1
 7103 02c4 0100     		.2byte	0x1
 7104 02c6 50       		.byte	0x50
ARM GAS  C:\Users\JACOB-~1\AppData\Local\Temp\cchboK4P.s 			page 134


 7105 02c7 47060000 		.4byte	.LVL103-1
 7106 02cb 4A060000 		.4byte	.LVL104
 7107 02cf 0400     		.2byte	0x4
 7108 02d1 F3       		.byte	0xf3
 7109 02d2 01       		.uleb128 0x1
 7110 02d3 50       		.byte	0x50
 7111 02d4 9F       		.byte	0x9f
 7112 02d5 4A060000 		.4byte	.LVL104
 7113 02d9 75060000 		.4byte	.LVL105-1
 7114 02dd 0100     		.2byte	0x1
 7115 02df 50       		.byte	0x50
 7116 02e0 75060000 		.4byte	.LVL105-1
 7117 02e4 78060000 		.4byte	.LVL106
 7118 02e8 0400     		.2byte	0x4
 7119 02ea F3       		.byte	0xf3
 7120 02eb 01       		.uleb128 0x1
 7121 02ec 50       		.byte	0x50
 7122 02ed 9F       		.byte	0x9f
 7123 02ee 78060000 		.4byte	.LVL106
 7124 02f2 A6060000 		.4byte	.LVL108
 7125 02f6 0100     		.2byte	0x1
 7126 02f8 50       		.byte	0x50
 7127 02f9 A6060000 		.4byte	.LVL108
 7128 02fd 00070000 		.4byte	.LVL114
 7129 0301 0400     		.2byte	0x4
 7130 0303 F3       		.byte	0xf3
 7131 0304 01       		.uleb128 0x1
 7132 0305 50       		.byte	0x50
 7133 0306 9F       		.byte	0x9f
 7134 0307 00070000 		.4byte	.LVL114
 7135 030b 2E070000 		.4byte	.LVL116
 7136 030f 0100     		.2byte	0x1
 7137 0311 50       		.byte	0x50
 7138 0312 2E070000 		.4byte	.LVL116
 7139 0316 88070000 		.4byte	.LVL122
 7140 031a 0400     		.2byte	0x4
 7141 031c F3       		.byte	0xf3
 7142 031d 01       		.uleb128 0x1
 7143 031e 50       		.byte	0x50
 7144 031f 9F       		.byte	0x9f
 7145 0320 88070000 		.4byte	.LVL122
 7146 0324 B0070000 		.4byte	.LVL124
 7147 0328 0100     		.2byte	0x1
 7148 032a 50       		.byte	0x50
 7149 032b B0070000 		.4byte	.LVL124
 7150 032f 30080000 		.4byte	.LVL130
 7151 0333 0400     		.2byte	0x4
 7152 0335 F3       		.byte	0xf3
 7153 0336 01       		.uleb128 0x1
 7154 0337 50       		.byte	0x50
 7155 0338 9F       		.byte	0x9f
 7156 0339 30080000 		.4byte	.LVL130
 7157 033d 58080000 		.4byte	.LVL132
 7158 0341 0100     		.2byte	0x1
 7159 0343 50       		.byte	0x50
 7160 0344 58080000 		.4byte	.LVL132
 7161 0348 B2080000 		.4byte	.LVL138
ARM GAS  C:\Users\JACOB-~1\AppData\Local\Temp\cchboK4P.s 			page 135


 7162 034c 0400     		.2byte	0x4
 7163 034e F3       		.byte	0xf3
 7164 034f 01       		.uleb128 0x1
 7165 0350 50       		.byte	0x50
 7166 0351 9F       		.byte	0x9f
 7167 0352 B2080000 		.4byte	.LVL138
 7168 0356 E2080000 		.4byte	.LVL140
 7169 035a 0100     		.2byte	0x1
 7170 035c 50       		.byte	0x50
 7171 035d E2080000 		.4byte	.LVL140
 7172 0361 3C090000 		.4byte	.LVL146
 7173 0365 0400     		.2byte	0x4
 7174 0367 F3       		.byte	0xf3
 7175 0368 01       		.uleb128 0x1
 7176 0369 50       		.byte	0x50
 7177 036a 9F       		.byte	0x9f
 7178 036b 3C090000 		.4byte	.LVL146
 7179 036f 4D090000 		.4byte	.LVL147-1
 7180 0373 0100     		.2byte	0x1
 7181 0375 50       		.byte	0x50
 7182 0376 4D090000 		.4byte	.LVL147-1
 7183 037a 50090000 		.4byte	.LVL148
 7184 037e 0400     		.2byte	0x4
 7185 0380 F3       		.byte	0xf3
 7186 0381 01       		.uleb128 0x1
 7187 0382 50       		.byte	0x50
 7188 0383 9F       		.byte	0x9f
 7189 0384 50090000 		.4byte	.LVL148
 7190 0388 82090000 		.4byte	.LVL150
 7191 038c 0100     		.2byte	0x1
 7192 038e 50       		.byte	0x50
 7193 038f 82090000 		.4byte	.LVL150
 7194 0393 A6090000 		.4byte	.LVL154
 7195 0397 0400     		.2byte	0x4
 7196 0399 F3       		.byte	0xf3
 7197 039a 01       		.uleb128 0x1
 7198 039b 50       		.byte	0x50
 7199 039c 9F       		.byte	0x9f
 7200 039d A6090000 		.4byte	.LVL154
 7201 03a1 DC090000 		.4byte	.LVL156
 7202 03a5 0100     		.2byte	0x1
 7203 03a7 50       		.byte	0x50
 7204 03a8 DC090000 		.4byte	.LVL156
 7205 03ac 000A0000 		.4byte	.LVL160
 7206 03b0 0400     		.2byte	0x4
 7207 03b2 F3       		.byte	0xf3
 7208 03b3 01       		.uleb128 0x1
 7209 03b4 50       		.byte	0x50
 7210 03b5 9F       		.byte	0x9f
 7211 03b6 000A0000 		.4byte	.LVL160
 7212 03ba 220A0000 		.4byte	.LVL162
 7213 03be 0100     		.2byte	0x1
 7214 03c0 50       		.byte	0x50
 7215 03c1 220A0000 		.4byte	.LVL162
 7216 03c5 D40A0000 		.4byte	.LFE1
 7217 03c9 0400     		.2byte	0x4
 7218 03cb F3       		.byte	0xf3
ARM GAS  C:\Users\JACOB-~1\AppData\Local\Temp\cchboK4P.s 			page 136


 7219 03cc 01       		.uleb128 0x1
 7220 03cd 50       		.byte	0x50
 7221 03ce 9F       		.byte	0x9f
 7222 03cf 00000000 		.4byte	0
 7223 03d3 00000000 		.4byte	0
 7224              	.LLST1:
 7225 03d7 00000000 		.4byte	.LVL0
 7226 03db 65000000 		.4byte	.LVL1-1
 7227 03df 0100     		.2byte	0x1
 7228 03e1 51       		.byte	0x51
 7229 03e2 65000000 		.4byte	.LVL1-1
 7230 03e6 68000000 		.4byte	.LVL2
 7231 03ea 0400     		.2byte	0x4
 7232 03ec F3       		.byte	0xf3
 7233 03ed 01       		.uleb128 0x1
 7234 03ee 51       		.byte	0x51
 7235 03ef 9F       		.byte	0x9f
 7236 03f0 68000000 		.4byte	.LVL2
 7237 03f4 81000000 		.4byte	.LVL3-1
 7238 03f8 0100     		.2byte	0x1
 7239 03fa 51       		.byte	0x51
 7240 03fb 81000000 		.4byte	.LVL3-1
 7241 03ff 84000000 		.4byte	.LVL4
 7242 0403 0400     		.2byte	0x4
 7243 0405 F3       		.byte	0xf3
 7244 0406 01       		.uleb128 0x1
 7245 0407 51       		.byte	0x51
 7246 0408 9F       		.byte	0x9f
 7247 0409 84000000 		.4byte	.LVL4
 7248 040d A3000000 		.4byte	.LVL5-1
 7249 0411 0100     		.2byte	0x1
 7250 0413 51       		.byte	0x51
 7251 0414 A3000000 		.4byte	.LVL5-1
 7252 0418 A6000000 		.4byte	.LVL6
 7253 041c 0400     		.2byte	0x4
 7254 041e F3       		.byte	0xf3
 7255 041f 01       		.uleb128 0x1
 7256 0420 51       		.byte	0x51
 7257 0421 9F       		.byte	0x9f
 7258 0422 A6000000 		.4byte	.LVL6
 7259 0426 BF000000 		.4byte	.LVL7-1
 7260 042a 0100     		.2byte	0x1
 7261 042c 51       		.byte	0x51
 7262 042d BF000000 		.4byte	.LVL7-1
 7263 0431 E2000000 		.4byte	.LVL8
 7264 0435 0400     		.2byte	0x4
 7265 0437 F3       		.byte	0xf3
 7266 0438 01       		.uleb128 0x1
 7267 0439 51       		.byte	0x51
 7268 043a 9F       		.byte	0x9f
 7269 043b E2000000 		.4byte	.LVL8
 7270 043f ED000000 		.4byte	.LVL9-1
 7271 0443 0100     		.2byte	0x1
 7272 0445 51       		.byte	0x51
 7273 0446 ED000000 		.4byte	.LVL9-1
 7274 044a F2000000 		.4byte	.LVL10
 7275 044e 0400     		.2byte	0x4
ARM GAS  C:\Users\JACOB-~1\AppData\Local\Temp\cchboK4P.s 			page 137


 7276 0450 F3       		.byte	0xf3
 7277 0451 01       		.uleb128 0x1
 7278 0452 51       		.byte	0x51
 7279 0453 9F       		.byte	0x9f
 7280 0454 F2000000 		.4byte	.LVL10
 7281 0458 01010000 		.4byte	.LVL11-1
 7282 045c 0100     		.2byte	0x1
 7283 045e 51       		.byte	0x51
 7284 045f 01010000 		.4byte	.LVL11-1
 7285 0463 06010000 		.4byte	.LVL12
 7286 0467 0400     		.2byte	0x4
 7287 0469 F3       		.byte	0xf3
 7288 046a 01       		.uleb128 0x1
 7289 046b 51       		.byte	0x51
 7290 046c 9F       		.byte	0x9f
 7291 046d 06010000 		.4byte	.LVL12
 7292 0471 17010000 		.4byte	.LVL13-1
 7293 0475 0100     		.2byte	0x1
 7294 0477 51       		.byte	0x51
 7295 0478 17010000 		.4byte	.LVL13-1
 7296 047c 1C010000 		.4byte	.LVL14
 7297 0480 0400     		.2byte	0x4
 7298 0482 F3       		.byte	0xf3
 7299 0483 01       		.uleb128 0x1
 7300 0484 51       		.byte	0x51
 7301 0485 9F       		.byte	0x9f
 7302 0486 1C010000 		.4byte	.LVL14
 7303 048a 2B010000 		.4byte	.LVL15-1
 7304 048e 0100     		.2byte	0x1
 7305 0490 51       		.byte	0x51
 7306 0491 2B010000 		.4byte	.LVL15-1
 7307 0495 30010000 		.4byte	.LVL16
 7308 0499 0400     		.2byte	0x4
 7309 049b F3       		.byte	0xf3
 7310 049c 01       		.uleb128 0x1
 7311 049d 51       		.byte	0x51
 7312 049e 9F       		.byte	0x9f
 7313 049f 30010000 		.4byte	.LVL16
 7314 04a3 3F010000 		.4byte	.LVL17-1
 7315 04a7 0100     		.2byte	0x1
 7316 04a9 51       		.byte	0x51
 7317 04aa 3F010000 		.4byte	.LVL17-1
 7318 04ae 44010000 		.4byte	.LVL18
 7319 04b2 0400     		.2byte	0x4
 7320 04b4 F3       		.byte	0xf3
 7321 04b5 01       		.uleb128 0x1
 7322 04b6 51       		.byte	0x51
 7323 04b7 9F       		.byte	0x9f
 7324 04b8 44010000 		.4byte	.LVL18
 7325 04bc B5010000 		.4byte	.LVL19-1
 7326 04c0 0100     		.2byte	0x1
 7327 04c2 51       		.byte	0x51
 7328 04c3 B5010000 		.4byte	.LVL19-1
 7329 04c7 BA010000 		.4byte	.LVL20
 7330 04cb 0400     		.2byte	0x4
 7331 04cd F3       		.byte	0xf3
 7332 04ce 01       		.uleb128 0x1
ARM GAS  C:\Users\JACOB-~1\AppData\Local\Temp\cchboK4P.s 			page 138


 7333 04cf 51       		.byte	0x51
 7334 04d0 9F       		.byte	0x9f
 7335 04d1 BA010000 		.4byte	.LVL20
 7336 04d5 EC010000 		.4byte	.LVL21
 7337 04d9 0100     		.2byte	0x1
 7338 04db 51       		.byte	0x51
 7339 04dc EC010000 		.4byte	.LVL21
 7340 04e0 14020000 		.4byte	.LVL26
 7341 04e4 0400     		.2byte	0x4
 7342 04e6 F3       		.byte	0xf3
 7343 04e7 01       		.uleb128 0x1
 7344 04e8 51       		.byte	0x51
 7345 04e9 9F       		.byte	0x9f
 7346 04ea 14020000 		.4byte	.LVL26
 7347 04ee 40020000 		.4byte	.LVL27
 7348 04f2 0100     		.2byte	0x1
 7349 04f4 51       		.byte	0x51
 7350 04f5 40020000 		.4byte	.LVL27
 7351 04f9 68020000 		.4byte	.LVL32
 7352 04fd 0400     		.2byte	0x4
 7353 04ff F3       		.byte	0xf3
 7354 0500 01       		.uleb128 0x1
 7355 0501 51       		.byte	0x51
 7356 0502 9F       		.byte	0x9f
 7357 0503 68020000 		.4byte	.LVL32
 7358 0507 94020000 		.4byte	.LVL33
 7359 050b 0100     		.2byte	0x1
 7360 050d 51       		.byte	0x51
 7361 050e 94020000 		.4byte	.LVL33
 7362 0512 C4020000 		.4byte	.LVL38
 7363 0516 0400     		.2byte	0x4
 7364 0518 F3       		.byte	0xf3
 7365 0519 01       		.uleb128 0x1
 7366 051a 51       		.byte	0x51
 7367 051b 9F       		.byte	0x9f
 7368 051c C4020000 		.4byte	.LVL38
 7369 0520 F0020000 		.4byte	.LVL39
 7370 0524 0100     		.2byte	0x1
 7371 0526 51       		.byte	0x51
 7372 0527 F0020000 		.4byte	.LVL39
 7373 052b 16030000 		.4byte	.LVL44
 7374 052f 0400     		.2byte	0x4
 7375 0531 F3       		.byte	0xf3
 7376 0532 01       		.uleb128 0x1
 7377 0533 51       		.byte	0x51
 7378 0534 9F       		.byte	0x9f
 7379 0535 16030000 		.4byte	.LVL44
 7380 0539 3E030000 		.4byte	.LVL45
 7381 053d 0100     		.2byte	0x1
 7382 053f 51       		.byte	0x51
 7383 0540 3E030000 		.4byte	.LVL45
 7384 0544 64030000 		.4byte	.LVL50
 7385 0548 0400     		.2byte	0x4
 7386 054a F3       		.byte	0xf3
 7387 054b 01       		.uleb128 0x1
 7388 054c 51       		.byte	0x51
 7389 054d 9F       		.byte	0x9f
ARM GAS  C:\Users\JACOB-~1\AppData\Local\Temp\cchboK4P.s 			page 139


 7390 054e 64030000 		.4byte	.LVL50
 7391 0552 92030000 		.4byte	.LVL51
 7392 0556 0100     		.2byte	0x1
 7393 0558 51       		.byte	0x51
 7394 0559 92030000 		.4byte	.LVL51
 7395 055d B8030000 		.4byte	.LVL56
 7396 0561 0400     		.2byte	0x4
 7397 0563 F3       		.byte	0xf3
 7398 0564 01       		.uleb128 0x1
 7399 0565 51       		.byte	0x51
 7400 0566 9F       		.byte	0x9f
 7401 0567 B8030000 		.4byte	.LVL56
 7402 056b C9030000 		.4byte	.LVL57-1
 7403 056f 0100     		.2byte	0x1
 7404 0571 51       		.byte	0x51
 7405 0572 C9030000 		.4byte	.LVL57-1
 7406 0576 CC030000 		.4byte	.LVL58
 7407 057a 0400     		.2byte	0x4
 7408 057c F3       		.byte	0xf3
 7409 057d 01       		.uleb128 0x1
 7410 057e 51       		.byte	0x51
 7411 057f 9F       		.byte	0x9f
 7412 0580 CC030000 		.4byte	.LVL58
 7413 0584 F2030000 		.4byte	.LVL59
 7414 0588 0100     		.2byte	0x1
 7415 058a 51       		.byte	0x51
 7416 058b F2030000 		.4byte	.LVL59
 7417 058f 1C040000 		.4byte	.LVL64
 7418 0593 0400     		.2byte	0x4
 7419 0595 F3       		.byte	0xf3
 7420 0596 01       		.uleb128 0x1
 7421 0597 51       		.byte	0x51
 7422 0598 9F       		.byte	0x9f
 7423 0599 1C040000 		.4byte	.LVL64
 7424 059d 46040000 		.4byte	.LVL65
 7425 05a1 0100     		.2byte	0x1
 7426 05a3 51       		.byte	0x51
 7427 05a4 46040000 		.4byte	.LVL65
 7428 05a8 6E040000 		.4byte	.LVL70
 7429 05ac 0400     		.2byte	0x4
 7430 05ae F3       		.byte	0xf3
 7431 05af 01       		.uleb128 0x1
 7432 05b0 51       		.byte	0x51
 7433 05b1 9F       		.byte	0x9f
 7434 05b2 6E040000 		.4byte	.LVL70
 7435 05b6 7F040000 		.4byte	.LVL71-1
 7436 05ba 0100     		.2byte	0x1
 7437 05bc 51       		.byte	0x51
 7438 05bd 7F040000 		.4byte	.LVL71-1
 7439 05c1 82040000 		.4byte	.LVL72
 7440 05c5 0400     		.2byte	0x4
 7441 05c7 F3       		.byte	0xf3
 7442 05c8 01       		.uleb128 0x1
 7443 05c9 51       		.byte	0x51
 7444 05ca 9F       		.byte	0x9f
 7445 05cb 82040000 		.4byte	.LVL72
 7446 05cf B2040000 		.4byte	.LVL73
ARM GAS  C:\Users\JACOB-~1\AppData\Local\Temp\cchboK4P.s 			page 140


 7447 05d3 0100     		.2byte	0x1
 7448 05d5 51       		.byte	0x51
 7449 05d6 B2040000 		.4byte	.LVL73
 7450 05da D8040000 		.4byte	.LVL78
 7451 05de 0400     		.2byte	0x4
 7452 05e0 F3       		.byte	0xf3
 7453 05e1 01       		.uleb128 0x1
 7454 05e2 51       		.byte	0x51
 7455 05e3 9F       		.byte	0x9f
 7456 05e4 D8040000 		.4byte	.LVL78
 7457 05e8 0A050000 		.4byte	.LVL79
 7458 05ec 0100     		.2byte	0x1
 7459 05ee 51       		.byte	0x51
 7460 05ef 0A050000 		.4byte	.LVL79
 7461 05f3 30050000 		.4byte	.LVL84
 7462 05f7 0400     		.2byte	0x4
 7463 05f9 F3       		.byte	0xf3
 7464 05fa 01       		.uleb128 0x1
 7465 05fb 51       		.byte	0x51
 7466 05fc 9F       		.byte	0x9f
 7467 05fd 30050000 		.4byte	.LVL84
 7468 0601 41050000 		.4byte	.LVL85-1
 7469 0605 0100     		.2byte	0x1
 7470 0607 51       		.byte	0x51
 7471 0608 41050000 		.4byte	.LVL85-1
 7472 060c 44050000 		.4byte	.LVL86
 7473 0610 0400     		.2byte	0x4
 7474 0612 F3       		.byte	0xf3
 7475 0613 01       		.uleb128 0x1
 7476 0614 51       		.byte	0x51
 7477 0615 9F       		.byte	0x9f
 7478 0616 44050000 		.4byte	.LVL86
 7479 061a 6A050000 		.4byte	.LVL87
 7480 061e 0100     		.2byte	0x1
 7481 0620 51       		.byte	0x51
 7482 0621 6A050000 		.4byte	.LVL87
 7483 0625 9C050000 		.4byte	.LVL91
 7484 0629 0400     		.2byte	0x4
 7485 062b F3       		.byte	0xf3
 7486 062c 01       		.uleb128 0x1
 7487 062d 51       		.byte	0x51
 7488 062e 9F       		.byte	0x9f
 7489 062f 9C050000 		.4byte	.LVL91
 7490 0633 C6050000 		.4byte	.LVL92
 7491 0637 0100     		.2byte	0x1
 7492 0639 51       		.byte	0x51
 7493 063a C6050000 		.4byte	.LVL92
 7494 063e EA050000 		.4byte	.LVL96
 7495 0642 0400     		.2byte	0x4
 7496 0644 F3       		.byte	0xf3
 7497 0645 01       		.uleb128 0x1
 7498 0646 51       		.byte	0x51
 7499 0647 9F       		.byte	0x9f
 7500 0648 EA050000 		.4byte	.LVL96
 7501 064c 0B060000 		.4byte	.LVL97-1
 7502 0650 0100     		.2byte	0x1
 7503 0652 51       		.byte	0x51
ARM GAS  C:\Users\JACOB-~1\AppData\Local\Temp\cchboK4P.s 			page 141


 7504 0653 0B060000 		.4byte	.LVL97-1
 7505 0657 0E060000 		.4byte	.LVL98
 7506 065b 0400     		.2byte	0x4
 7507 065d F3       		.byte	0xf3
 7508 065e 01       		.uleb128 0x1
 7509 065f 51       		.byte	0x51
 7510 0660 9F       		.byte	0x9f
 7511 0661 0E060000 		.4byte	.LVL98
 7512 0665 1D060000 		.4byte	.LVL99-1
 7513 0669 0100     		.2byte	0x1
 7514 066b 51       		.byte	0x51
 7515 066c 1D060000 		.4byte	.LVL99-1
 7516 0670 20060000 		.4byte	.LVL100
 7517 0674 0400     		.2byte	0x4
 7518 0676 F3       		.byte	0xf3
 7519 0677 01       		.uleb128 0x1
 7520 0678 51       		.byte	0x51
 7521 0679 9F       		.byte	0x9f
 7522 067a 20060000 		.4byte	.LVL100
 7523 067e 35060000 		.4byte	.LVL101-1
 7524 0682 0100     		.2byte	0x1
 7525 0684 51       		.byte	0x51
 7526 0685 35060000 		.4byte	.LVL101-1
 7527 0689 38060000 		.4byte	.LVL102
 7528 068d 0400     		.2byte	0x4
 7529 068f F3       		.byte	0xf3
 7530 0690 01       		.uleb128 0x1
 7531 0691 51       		.byte	0x51
 7532 0692 9F       		.byte	0x9f
 7533 0693 38060000 		.4byte	.LVL102
 7534 0697 47060000 		.4byte	.LVL103-1
 7535 069b 0100     		.2byte	0x1
 7536 069d 51       		.byte	0x51
 7537 069e 47060000 		.4byte	.LVL103-1
 7538 06a2 4A060000 		.4byte	.LVL104
 7539 06a6 0400     		.2byte	0x4
 7540 06a8 F3       		.byte	0xf3
 7541 06a9 01       		.uleb128 0x1
 7542 06aa 51       		.byte	0x51
 7543 06ab 9F       		.byte	0x9f
 7544 06ac 4A060000 		.4byte	.LVL104
 7545 06b0 75060000 		.4byte	.LVL105-1
 7546 06b4 0100     		.2byte	0x1
 7547 06b6 51       		.byte	0x51
 7548 06b7 75060000 		.4byte	.LVL105-1
 7549 06bb 78060000 		.4byte	.LVL106
 7550 06bf 0400     		.2byte	0x4
 7551 06c1 F3       		.byte	0xf3
 7552 06c2 01       		.uleb128 0x1
 7553 06c3 51       		.byte	0x51
 7554 06c4 9F       		.byte	0x9f
 7555 06c5 78060000 		.4byte	.LVL106
 7556 06c9 A4060000 		.4byte	.LVL107
 7557 06cd 0100     		.2byte	0x1
 7558 06cf 51       		.byte	0x51
 7559 06d0 A4060000 		.4byte	.LVL107
 7560 06d4 00070000 		.4byte	.LVL114
ARM GAS  C:\Users\JACOB-~1\AppData\Local\Temp\cchboK4P.s 			page 142


 7561 06d8 0400     		.2byte	0x4
 7562 06da F3       		.byte	0xf3
 7563 06db 01       		.uleb128 0x1
 7564 06dc 51       		.byte	0x51
 7565 06dd 9F       		.byte	0x9f
 7566 06de 00070000 		.4byte	.LVL114
 7567 06e2 2C070000 		.4byte	.LVL115
 7568 06e6 0100     		.2byte	0x1
 7569 06e8 51       		.byte	0x51
 7570 06e9 2C070000 		.4byte	.LVL115
 7571 06ed 88070000 		.4byte	.LVL122
 7572 06f1 0400     		.2byte	0x4
 7573 06f3 F3       		.byte	0xf3
 7574 06f4 01       		.uleb128 0x1
 7575 06f5 51       		.byte	0x51
 7576 06f6 9F       		.byte	0x9f
 7577 06f7 88070000 		.4byte	.LVL122
 7578 06fb AE070000 		.4byte	.LVL123
 7579 06ff 0100     		.2byte	0x1
 7580 0701 51       		.byte	0x51
 7581 0702 AE070000 		.4byte	.LVL123
 7582 0706 30080000 		.4byte	.LVL130
 7583 070a 0400     		.2byte	0x4
 7584 070c F3       		.byte	0xf3
 7585 070d 01       		.uleb128 0x1
 7586 070e 51       		.byte	0x51
 7587 070f 9F       		.byte	0x9f
 7588 0710 30080000 		.4byte	.LVL130
 7589 0714 56080000 		.4byte	.LVL131
 7590 0718 0100     		.2byte	0x1
 7591 071a 51       		.byte	0x51
 7592 071b 56080000 		.4byte	.LVL131
 7593 071f B2080000 		.4byte	.LVL138
 7594 0723 0400     		.2byte	0x4
 7595 0725 F3       		.byte	0xf3
 7596 0726 01       		.uleb128 0x1
 7597 0727 51       		.byte	0x51
 7598 0728 9F       		.byte	0x9f
 7599 0729 B2080000 		.4byte	.LVL138
 7600 072d E0080000 		.4byte	.LVL139
 7601 0731 0100     		.2byte	0x1
 7602 0733 51       		.byte	0x51
 7603 0734 E0080000 		.4byte	.LVL139
 7604 0738 3C090000 		.4byte	.LVL146
 7605 073c 0400     		.2byte	0x4
 7606 073e F3       		.byte	0xf3
 7607 073f 01       		.uleb128 0x1
 7608 0740 51       		.byte	0x51
 7609 0741 9F       		.byte	0x9f
 7610 0742 3C090000 		.4byte	.LVL146
 7611 0746 4D090000 		.4byte	.LVL147-1
 7612 074a 0100     		.2byte	0x1
 7613 074c 51       		.byte	0x51
 7614 074d 4D090000 		.4byte	.LVL147-1
 7615 0751 50090000 		.4byte	.LVL148
 7616 0755 0400     		.2byte	0x4
 7617 0757 F3       		.byte	0xf3
ARM GAS  C:\Users\JACOB-~1\AppData\Local\Temp\cchboK4P.s 			page 143


 7618 0758 01       		.uleb128 0x1
 7619 0759 51       		.byte	0x51
 7620 075a 9F       		.byte	0x9f
 7621 075b 50090000 		.4byte	.LVL148
 7622 075f 80090000 		.4byte	.LVL149
 7623 0763 0100     		.2byte	0x1
 7624 0765 51       		.byte	0x51
 7625 0766 80090000 		.4byte	.LVL149
 7626 076a A6090000 		.4byte	.LVL154
 7627 076e 0400     		.2byte	0x4
 7628 0770 F3       		.byte	0xf3
 7629 0771 01       		.uleb128 0x1
 7630 0772 51       		.byte	0x51
 7631 0773 9F       		.byte	0x9f
 7632 0774 A6090000 		.4byte	.LVL154
 7633 0778 DA090000 		.4byte	.LVL155
 7634 077c 0100     		.2byte	0x1
 7635 077e 51       		.byte	0x51
 7636 077f DA090000 		.4byte	.LVL155
 7637 0783 000A0000 		.4byte	.LVL160
 7638 0787 0400     		.2byte	0x4
 7639 0789 F3       		.byte	0xf3
 7640 078a 01       		.uleb128 0x1
 7641 078b 51       		.byte	0x51
 7642 078c 9F       		.byte	0x9f
 7643 078d 000A0000 		.4byte	.LVL160
 7644 0791 200A0000 		.4byte	.LVL161
 7645 0795 0100     		.2byte	0x1
 7646 0797 51       		.byte	0x51
 7647 0798 200A0000 		.4byte	.LVL161
 7648 079c D40A0000 		.4byte	.LFE1
 7649 07a0 0400     		.2byte	0x4
 7650 07a2 F3       		.byte	0xf3
 7651 07a3 01       		.uleb128 0x1
 7652 07a4 51       		.byte	0x51
 7653 07a5 9F       		.byte	0x9f
 7654 07a6 00000000 		.4byte	0
 7655 07aa 00000000 		.4byte	0
 7656              		.section	.debug_aranges,"",%progbits
 7657 0000 1C000000 		.4byte	0x1c
 7658 0004 0200     		.2byte	0x2
 7659 0006 00000000 		.4byte	.Ldebug_info0
 7660 000a 04       		.byte	0x4
 7661 000b 00       		.byte	0
 7662 000c 0000     		.2byte	0
 7663 000e 0000     		.2byte	0
 7664 0010 00000000 		.4byte	.LFB1
 7665 0014 D40A0000 		.4byte	.LFE1-.LFB1
 7666 0018 00000000 		.4byte	0
 7667 001c 00000000 		.4byte	0
 7668              		.section	.debug_ranges,"",%progbits
 7669              	.Ldebug_ranges0:
 7670 0000 00000000 		.4byte	.LFB1
 7671 0004 D40A0000 		.4byte	.LFE1
 7672 0008 00000000 		.4byte	0
 7673 000c 00000000 		.4byte	0
 7674              		.section	.debug_line,"",%progbits
ARM GAS  C:\Users\JACOB-~1\AppData\Local\Temp\cchboK4P.s 			page 144


 7675              	.Ldebug_line0:
 7676 0000 15050000 		.section	.debug_str,"MS",%progbits,1
 7676      0200C401 
 7676      00000201 
 7676      FB0E0D00 
 7676      01010101 
 7677              	.LASF26:
 7678 0000 6176675F 		.ascii	"avg_num\000"
 7678      6E756D00 
 7679              	.LASF67:
 7680 0008 72616E64 		.ascii	"rand_num_1\000"
 7680      5F6E756D 
 7680      5F3100
 7681              	.LASF14:
 7682 0013 646F7562 		.ascii	"double\000"
 7682      6C6500
 7683              	.LASF68:
 7684 001a 72616E64 		.ascii	"rand_num_2\000"
 7684      5F6E756D 
 7684      5F3200
 7685              	.LASF76:
 7686 0025 75696675 		.ascii	"uifunctions.c\000"
 7686      6E637469 
 7686      6F6E732E 
 7686      6300
 7687              	.LASF62:
 7688 0033 64657669 		.ascii	"device_selection\000"
 7688      63655F73 
 7688      656C6563 
 7688      74696F6E 
 7688      00
 7689              	.LASF2:
 7690 0044 73686F72 		.ascii	"short int\000"
 7690      7420696E 
 7690      7400
 7691              	.LASF17:
 7692 004e 73697A65 		.ascii	"sizetype\000"
 7692      74797065 
 7692      00
 7693              	.LASF64:
 7694 0057 77726974 		.ascii	"write_sd\000"
 7694      655F7364 
 7694      00
 7695              	.LASF4:
 7696 0060 5F5F7569 		.ascii	"__uint16_t\000"
 7696      6E743136 
 7696      5F7400
 7697              	.LASF53:
 7698 006b 7373697A 		.ascii	"ssizetype\000"
 7698      65747970 
 7698      6500
 7699              	.LASF70:
 7700 0075 7664735F 		.ascii	"vds_high\000"
 7700      68696768 
 7700      00
 7701              	.LASF11:
 7702 007e 75696E74 		.ascii	"uint8_t\000"
ARM GAS  C:\Users\JACOB-~1\AppData\Local\Temp\cchboK4P.s 			page 145


 7702      385F7400 
 7703              	.LASF27:
 7704 0086 64726177 		.ascii	"draw_button\000"
 7704      5F627574 
 7704      746F6E00 
 7705              	.LASF69:
 7706 0092 636F6F6C 		.ascii	"cooldown_time\000"
 7706      646F776E 
 7706      5F74696D 
 7706      6500
 7707              	.LASF13:
 7708 00a0 666C6F61 		.ascii	"float\000"
 7708      7400
 7709              	.LASF22:
 7710 00a6 64726177 		.ascii	"draw_options_curves_screen\000"
 7710      5F6F7074 
 7710      696F6E73 
 7710      5F637572 
 7710      7665735F 
 7711              	.LASF8:
 7712 00c1 6C6F6E67 		.ascii	"long long int\000"
 7712      206C6F6E 
 7712      6720696E 
 7712      7400
 7713              	.LASF15:
 7714 00cf 63686172 		.ascii	"char\000"
 7714      00
 7715              	.LASF6:
 7716 00d4 6C6F6E67 		.ascii	"long int\000"
 7716      20696E74 
 7716      00
 7717              	.LASF20:
 7718 00dd 64726177 		.ascii	"draw_options_sd_screen\000"
 7718      5F6F7074 
 7718      696F6E73 
 7718      5F73645F 
 7718      73637265 
 7719              	.LASF3:
 7720 00f4 5F5F7569 		.ascii	"__uint8_t\000"
 7720      6E74385F 
 7720      7400
 7721              	.LASF25:
 7722 00fe 64726177 		.ascii	"draw_string\000"
 7722      5F737472 
 7722      696E6700 
 7723              	.LASF23:
 7724 010a 64726177 		.ascii	"draw_choose_screen\000"
 7724      5F63686F 
 7724      6F73655F 
 7724      73637265 
 7724      656E00
 7725              	.LASF31:
 7726 011d 64726177 		.ascii	"draw_options_cooldown_screen\000"
 7726      5F6F7074 
 7726      696F6E73 
 7726      5F636F6F 
 7726      6C646F77 
ARM GAS  C:\Users\JACOB-~1\AppData\Local\Temp\cchboK4P.s 			page 146


 7727              	.LASF16:
 7728 013a 6C6F6E67 		.ascii	"long double\000"
 7728      20646F75 
 7728      626C6500 
 7729              	.LASF72:
 7730 0146 69746F61 		.ascii	"itoa\000"
 7730      00
 7731              	.LASF1:
 7732 014b 756E7369 		.ascii	"unsigned char\000"
 7732      676E6564 
 7732      20636861 
 7732      7200
 7733              	.LASF30:
 7734 0159 64726177 		.ascii	"draw_options_grid_screen\000"
 7734      5F6F7074 
 7734      696F6E73 
 7734      5F677269 
 7734      645F7363 
 7735              	.LASF73:
 7736 0172 656D4669 		.ascii	"emFile_1_Wakeup\000"
 7736      6C655F31 
 7736      5F57616B 
 7736      65757000 
 7737              	.LASF28:
 7738 0182 6E756D5F 		.ascii	"num_curve\000"
 7738      63757276 
 7738      6500
 7739              	.LASF0:
 7740 018c 7369676E 		.ascii	"signed char\000"
 7740      65642063 
 7740      68617200 
 7741              	.LASF9:
 7742 0198 6C6F6E67 		.ascii	"long long unsigned int\000"
 7742      206C6F6E 
 7742      6720756E 
 7742      7369676E 
 7742      65642069 
 7743              	.LASF63:
 7744 01af 63757276 		.ascii	"curve_nums\000"
 7744      655F6E75 
 7744      6D7300
 7745              	.LASF10:
 7746 01ba 756E7369 		.ascii	"unsigned int\000"
 7746      676E6564 
 7746      20696E74 
 7746      00
 7747              	.LASF12:
 7748 01c7 75696E74 		.ascii	"uint16_t\000"
 7748      31365F74 
 7748      00
 7749              	.LASF7:
 7750 01d0 6C6F6E67 		.ascii	"long unsigned int\000"
 7750      20756E73 
 7750      69676E65 
 7750      6420696E 
 7750      7400
 7751              	.LASF78:
ARM GAS  C:\Users\JACOB-~1\AppData\Local\Temp\cchboK4P.s 			page 147


 7752 01e2 75695F63 		.ascii	"ui_control\000"
 7752      6F6E7472 
 7752      6F6C00
 7753              	.LASF5:
 7754 01ed 73686F72 		.ascii	"short unsigned int\000"
 7754      7420756E 
 7754      7369676E 
 7754      65642069 
 7754      6E7400
 7755              	.LASF77:
 7756 0200 433A5C55 		.ascii	"C:\\Users\\Jacob-Laptop\\Documents\\PSoC Creator\\S"
 7756      73657273 
 7756      5C4A6163 
 7756      6F622D4C 
 7756      6170746F 
 7757 022e 656E696F 		.ascii	"enior Project Stuff Backup - Copy\\Senior Project I"
 7757      72205072 
 7757      6F6A6563 
 7757      74205374 
 7757      75666620 
 7758 0260 6E746567 		.ascii	"ntegrated\\Design01.cydsn\000"
 7758      72617465 
 7758      645C4465 
 7758      7369676E 
 7758      30312E63 
 7759              	.LASF19:
 7760 0279 64726177 		.ascii	"draw_options_averages_screen\000"
 7760      5F6F7074 
 7760      696F6E73 
 7760      5F617665 
 7760      72616765 
 7761              	.LASF29:
 7762 0296 64726177 		.ascii	"draw_vds_options_screen\000"
 7762      5F766473 
 7762      5F6F7074 
 7762      696F6E73 
 7762      5F736372 
 7763              	.LASF74:
 7764 02ae 656D4669 		.ascii	"emFile_1_Sleep\000"
 7764      6C655F31 
 7764      5F536C65 
 7764      657000
 7765              	.LASF71:
 7766 02bd 7664735F 		.ascii	"vds_high_vdac_code\000"
 7766      68696768 
 7766      5F766461 
 7766      635F636F 
 7766      646500
 7767              	.LASF18:
 7768 02d0 64726177 		.ascii	"draw_options_screen\000"
 7768      5F6F7074 
 7768      696F6E73 
 7768      5F736372 
 7768      65656E00 
 7769              	.LASF33:
 7770 02e4 666F6E74 		.ascii	"font_0\000"
 7770      5F3000
ARM GAS  C:\Users\JACOB-~1\AppData\Local\Temp\cchboK4P.s 			page 148


 7771              	.LASF34:
 7772 02eb 666F6E74 		.ascii	"font_1\000"
 7772      5F3100
 7773              	.LASF35:
 7774 02f2 666F6E74 		.ascii	"font_2\000"
 7774      5F3200
 7775              	.LASF36:
 7776 02f9 666F6E74 		.ascii	"font_3\000"
 7776      5F3300
 7777              	.LASF37:
 7778 0300 666F6E74 		.ascii	"font_4\000"
 7778      5F3400
 7779              	.LASF38:
 7780 0307 666F6E74 		.ascii	"font_5\000"
 7780      5F3500
 7781              	.LASF39:
 7782 030e 666F6E74 		.ascii	"font_6\000"
 7782      5F3600
 7783              	.LASF40:
 7784 0315 666F6E74 		.ascii	"font_7\000"
 7784      5F3700
 7785              	.LASF41:
 7786 031c 666F6E74 		.ascii	"font_8\000"
 7786      5F3800
 7787              	.LASF42:
 7788 0323 666F6E74 		.ascii	"font_9\000"
 7788      5F3900
 7789              	.LASF32:
 7790 032a 6E756D5F 		.ascii	"num_vds\000"
 7790      76647300 
 7791              	.LASF54:
 7792 0332 666F6E74 		.ascii	"font_A\000"
 7792      5F4100
 7793              	.LASF55:
 7794 0339 666F6E74 		.ascii	"font_B\000"
 7794      5F4200
 7795              	.LASF56:
 7796 0340 666F6E74 		.ascii	"font_C\000"
 7796      5F4300
 7797              	.LASF57:
 7798 0347 666F6E74 		.ascii	"font_D\000"
 7798      5F4400
 7799              	.LASF58:
 7800 034e 666F6E74 		.ascii	"font_E\000"
 7800      5F4500
 7801              	.LASF59:
 7802 0355 666F6E74 		.ascii	"font_F\000"
 7802      5F4600
 7803              	.LASF60:
 7804 035c 666F6E74 		.ascii	"font_G\000"
 7804      5F4700
 7805              	.LASF24:
 7806 0363 66696C6C 		.ascii	"fill_rect\000"
 7806      5F726563 
 7806      7400
 7807              	.LASF43:
 7808 036d 666F6E74 		.ascii	"font_period\000"
ARM GAS  C:\Users\JACOB-~1\AppData\Local\Temp\cchboK4P.s 			page 149


 7808      5F706572 
 7808      696F6400 
 7809              	.LASF61:
 7810 0379 73637265 		.ascii	"screen_state\000"
 7810      656E5F73 
 7810      74617465 
 7810      00
 7811              	.LASF44:
 7812 0386 666F6E74 		.ascii	"font_a\000"
 7812      5F6100
 7813              	.LASF45:
 7814 038d 666F6E74 		.ascii	"font_b\000"
 7814      5F6200
 7815              	.LASF46:
 7816 0394 666F6E74 		.ascii	"font_c\000"
 7816      5F6300
 7817              	.LASF47:
 7818 039b 666F6E74 		.ascii	"font_d\000"
 7818      5F6400
 7819              	.LASF48:
 7820 03a2 666F6E74 		.ascii	"font_e\000"
 7820      5F6500
 7821              	.LASF49:
 7822 03a9 666F6E74 		.ascii	"font_f\000"
 7822      5F6600
 7823              	.LASF50:
 7824 03b0 666F6E74 		.ascii	"font_g\000"
 7824      5F6700
 7825              	.LASF51:
 7826 03b7 666F6E74 		.ascii	"font_h\000"
 7826      5F6800
 7827              	.LASF52:
 7828 03be 666F6E74 		.ascii	"font_i\000"
 7828      5F6900
 7829              	.LASF79:
 7830 03c5 666F6E74 		.ascii	"font_j\000"
 7830      5F6A00
 7831              	.LASF65:
 7832 03cc 6E756D5F 		.ascii	"num_avg\000"
 7832      61766700 
 7833              	.LASF75:
 7834 03d4 474E5520 		.ascii	"GNU C11 5.4.1 20160609 (release) [ARM/embedded-5-br"
 7834      43313120 
 7834      352E342E 
 7834      31203230 
 7834      31363036 
 7835 0407 616E6368 		.ascii	"anch revision 237715] -mcpu=cortex-m3 -mthumb -g -O"
 7835      20726576 
 7835      6973696F 
 7835      6E203233 
 7835      37373135 
 7836 043a 67202D66 		.ascii	"g -ffunction-sections -ffat-lto-objects\000"
 7836      66756E63 
 7836      74696F6E 
 7836      2D736563 
 7836      74696F6E 
 7837              	.LASF66:
ARM GAS  C:\Users\JACOB-~1\AppData\Local\Temp\cchboK4P.s 			page 150


 7838 0462 64726177 		.ascii	"draw_grid\000"
 7838      5F677269 
 7838      6400
 7839              	.LASF21:
 7840 046c 64726177 		.ascii	"draw_more_options_screen\000"
 7840      5F6D6F72 
 7840      655F6F70 
 7840      74696F6E 
 7840      735F7363 
 7841              		.ident	"GCC: (GNU Tools for ARM Embedded Processors) 5.4.1 20160609 (release) [ARM/embedded-5-bran
