ARM GAS  C:\Users\JACOB-~1\AppData\Local\Temp\ccjXL5Wn.s 			page 1


   1              		.syntax unified
   2              		.cpu cortex-m3
   3              		.fpu softvfp
   4              		.eabi_attribute 20, 1
   5              		.eabi_attribute 21, 1
   6              		.eabi_attribute 23, 3
   7              		.eabi_attribute 24, 1
   8              		.eabi_attribute 25, 1
   9              		.eabi_attribute 26, 1
  10              		.eabi_attribute 30, 1
  11              		.eabi_attribute 34, 1
  12              		.eabi_attribute 18, 4
  13              		.thumb
  14              		.syntax unified
  15              		.file	"main.c"
  16              		.text
  17              	.Ltext0:
  18              		.cfi_sections	.debug_frame
  19              		.section	.text.vgs_th_find,"ax",%progbits
  20              		.align	2
  21              		.global	vgs_th_find
  22              		.thumb
  23              		.thumb_func
  24              		.type	vgs_th_find, %function
  25              	vgs_th_find:
  26              	.LFB64:
  27              		.file 1 "main.c"
   1:main.c        **** /* ========================================
   2:main.c        ****  *
   3:main.c        ****  * Copyright YOUR COMPANY, THE YEAR
   4:main.c        ****  * All Rights Reserved
   5:main.c        ****  * UNPUBLISHED, LICENSED SOFTWARE.
   6:main.c        ****  *
   7:main.c        ****  * CONFIDENTIAL AND PROPRIETARY INFORMATION
   8:main.c        ****  * WHICH IS THE PROPERTY OF your company.
   9:main.c        ****  *
  10:main.c        ****  * ========================================
  11:main.c        **** */
  12:main.c        **** #include "project.h"
  13:main.c        **** #include "stdio.h"
  14:main.c        **** #include "math.h"
  15:main.c        **** #define Vgs_step 51
  16:main.c        **** #define Vds_step_slow 1
  17:main.c        **** #define Vds_step_fast 5
  18:main.c        **** #define VDAC_GS_MAX 255
  19:main.c        **** #define VDAC_DS_MAX 188
  20:main.c        **** 
  21:main.c        **** unsigned char vgs_th_find()
  22:main.c        **** {
  28              		.loc 1 22 0
  29              		.cfi_startproc
  30              		@ args = 0, pretend = 0, frame = 0
  31              		@ frame_needed = 0, uses_anonymous_args = 0
  32 0000 08B5     		push	{r3, lr}
  33              		.cfi_def_cfa_offset 8
  34              		.cfi_offset 3, -8
  35              		.cfi_offset 14, -4
ARM GAS  C:\Users\JACOB-~1\AppData\Local\Temp\ccjXL5Wn.s 			page 2


  36              	.LVL0:
  23:main.c        ****     unsigned char Vgs;
  24:main.c        ****     unsigned char Vds = 50;
  25:main.c        ****     int ADC_code;
  26:main.c        ****     double Id;
  27:main.c        ****     double Id_th = 20;
  28:main.c        ****     
  29:main.c        ****     VDAC8_DS_SetValue(Vds);
  37              		.loc 1 29 0
  38 0002 3220     		movs	r0, #50
  39 0004 FFF7FEFF 		bl	VDAC8_DS_SetValue
  40              	.LVL1:
  30:main.c        ****     /*
  31:main.c        ****     for(Vgs = 0; Vgs <= VDAC_GS_MAX; Vgs++)
  32:main.c        ****     {
  33:main.c        ****         VDAC8_GS_SetValue(Vgs);
  34:main.c        ****         ADC_SAR_1_StartConvert();
  35:main.c        ****         ADC_SAR_1_IsEndConversion(ADC_SAR_1_WAIT_FOR_RESULT);
  36:main.c        ****         ADC_SAR_1_StopConvert();
  37:main.c        ****         ADC_code = ADC_SAR_1_GetResult16();
  38:main.c        ****         Id = ADC_SAR_1_CountsTo_mVolts(ADC_code);
  39:main.c        ****         if(Id > Id_th)
  40:main.c        ****         {
  41:main.c        ****             return Vgs;    
  42:main.c        ****         }
  43:main.c        ****     }
  44:main.c        ****     //return -1;
  45:main.c        ****     */
  46:main.c        ****     return 64;
  47:main.c        **** }
  41              		.loc 1 47 0
  42 0008 4020     		movs	r0, #64
  43 000a 08BD     		pop	{r3, pc}
  44              		.cfi_endproc
  45              	.LFE64:
  46              		.size	vgs_th_find, .-vgs_th_find
  47              		.global	__aeabi_ui2d
  48              		.global	__aeabi_dmul
  49              		.global	__aeabi_i2d
  50              		.section	.text.nmos_sweep_slow,"ax",%progbits
  51              		.align	2
  52              		.global	nmos_sweep_slow
  53              		.thumb
  54              		.thumb_func
  55              		.type	nmos_sweep_slow, %function
  56              	nmos_sweep_slow:
  57              	.LFB65:
  48:main.c        **** 
  49:main.c        **** double *nmos_sweep_slow()
  50:main.c        **** {
  58              		.loc 1 50 0
  59              		.cfi_startproc
  60              		@ args = 0, pretend = 0, frame = 18152
  61              		@ frame_needed = 0, uses_anonymous_args = 0
  62 0000 2DE9F047 		push	{r4, r5, r6, r7, r8, r9, r10, lr}
  63              		.cfi_def_cfa_offset 32
  64              		.cfi_offset 4, -32
ARM GAS  C:\Users\JACOB-~1\AppData\Local\Temp\ccjXL5Wn.s 			page 3


  65              		.cfi_offset 5, -28
  66              		.cfi_offset 6, -24
  67              		.cfi_offset 7, -20
  68              		.cfi_offset 8, -16
  69              		.cfi_offset 9, -12
  70              		.cfi_offset 10, -8
  71              		.cfi_offset 14, -4
  72 0004 ADF58D4D 		sub	sp, sp, #18048
  73              		.cfi_def_cfa_offset 18080
  74 0008 9AB0     		sub	sp, sp, #104
  75              		.cfi_def_cfa_offset 18184
  76              	.LVL2:
  51:main.c        ****     //returning a pointer to the array because C doesn't allow the 
  52:main.c        ****     //returning of arrays.
  53:main.c        ****     unsigned char i=0;
  54:main.c        ****     unsigned char j=1;
  55:main.c        ****     unsigned char k;
  56:main.c        ****     unsigned char Vds;
  57:main.c        ****     int ADC_code;
  58:main.c        ****     unsigned char Vgs_th;
  59:main.c        ****     double Output_data_nmos_slow_mat[2][6][VDAC_DS_MAX/Vds_step_slow + 1];
  60:main.c        ****     //Because local variables die after being called, the array has to be static or else
  61:main.c        ****     //the returning pointer will point to junk
  62:main.c        ****     unsigned char Vgs_test_points[6];
  63:main.c        ****     double *Output_data;
  64:main.c        ****     Vgs_th = vgs_th_find();
  77              		.loc 1 64 0
  78 000a FFF7FEFF 		bl	vgs_th_find
  79              	.LVL3:
  65:main.c        ****     
  66:main.c        ****     Vgs_test_points[0] = (unsigned char) Vgs_th/2;
  80              		.loc 1 66 0
  81 000e 4308     		lsrs	r3, r0, #1
  82 0010 8DF80030 		strb	r3, [sp, #0]
  67:main.c        ****     Vgs_test_points[1] = (unsigned char) 4*Vgs_th/5;
  83              		.loc 1 67 0
  84 0014 8300     		lsls	r3, r0, #2
  85 0016 404A     		ldr	r2, .L9+8
  86 0018 82FB0341 		smull	r4, r1, r2, r3
  87 001c DB17     		asrs	r3, r3, #31
  88 001e C3EB6103 		rsb	r3, r3, r1, asr #1
  89 0022 8DF80130 		strb	r3, [sp, #1]
  68:main.c        ****     Vgs_test_points[2] = (unsigned char) Vgs_th;
  90              		.loc 1 68 0
  91 0026 8DF80200 		strb	r0, [sp, #2]
  69:main.c        ****     Vgs_test_points[3] = (unsigned char) 6*Vgs_th/5;
  92              		.loc 1 69 0
  93 002a 4100     		lsls	r1, r0, #1
  94 002c 0C18     		adds	r4, r1, r0
  95 002e 6300     		lsls	r3, r4, #1
  96 0030 82FB0342 		smull	r4, r2, r2, r3
  97 0034 DB17     		asrs	r3, r3, #31
  98 0036 C3EB6203 		rsb	r3, r3, r2, asr #1
  99 003a 8DF80330 		strb	r3, [sp, #3]
  70:main.c        ****     Vgs_test_points[4] = (unsigned char) 2*Vgs_th;
 100              		.loc 1 70 0
 101 003e 8DF80410 		strb	r1, [sp, #4]
ARM GAS  C:\Users\JACOB-~1\AppData\Local\Temp\ccjXL5Wn.s 			page 4


  71:main.c        ****     Vgs_test_points[5] = (unsigned char) 3*Vgs_th;
 102              		.loc 1 71 0
 103 0042 00EB4000 		add	r0, r0, r0, lsl #1
 104              	.LVL4:
 105 0046 8DF80500 		strb	r0, [sp, #5]
 106              	.LVL5:
  72:main.c        ****     
  73:main.c        ****     /*
  74:main.c        ****     for(Vgs = 0; Vgs < VDAC_GS_MAX ; Vgs += Vgs_step)
  75:main.c        ****     {
  76:main.c        ****         VDAC8_GS_SetValue(Vgs);
  77:main.c        ****         for(Vds = 0;Vds <= VDAC_DS_MAX; Vds += Vds_step_slow)
  78:main.c        ****         {
  79:main.c        ****             VDAC8_DS_SetValue(Vds);
  80:main.c        ****             
  81:main.c        ****             Output_data_nmos_slow_mat[0][i][0] = (double) Vgs;
  82:main.c        ****             Output_data_nmos_slow_mat[1][i][0] = (double) Vgs;
  83:main.c        ****             
  84:main.c        ****             Output_data_nmos_slow_mat[0][i][j] = (double) Vds/256 * 4.096 * 3;
  85:main.c        ****             
  86:main.c        ****             ADC_SAR_1_StartConvert();
  87:main.c        ****             ADC_SAR_1_IsEndConversion(ADC_SAR_1_WAIT_FOR_RESULT);
  88:main.c        ****             ADC_code = ADC_SAR_1_GetResult16();
  89:main.c        ****             ADC_SAR_1_StopConvert();
  90:main.c        ****             Output_data_nmos_slow_mat[1][i][j] = (double) ADC_SAR_1_CountsTo_mVolts(ADC_code);
  91:main.c        ****             j++;
  92:main.c        ****         }
  93:main.c        ****         i++;
  94:main.c        ****     }
  95:main.c        ****     */
  96:main.c        ****     for(k=0; k < 6; k++)
 107              		.loc 1 96 0
 108 004a 4FF00009 		mov	r9, #0
  54:main.c        ****     unsigned char k;
 109              		.loc 1 54 0
 110 004e 0126     		movs	r6, #1
  53:main.c        ****     unsigned char j=1;
 111              		.loc 1 53 0
 112 0050 4F46     		mov	r7, r9
 113              		.loc 1 96 0
 114 0052 53E0     		b	.L4
 115              	.LVL6:
 116              	.L7:
  97:main.c        ****     {
  98:main.c        ****         VDAC8_GS_SetValue(Vgs_test_points[k]);
 117              		.loc 1 98 0
 118 0054 1DF80980 		ldrb	r8, [sp, r9]	@ zero_extendqisi2
 119 0058 4046     		mov	r0, r8
 120 005a FFF7FEFF 		bl	VDAC8_GS_SetValue
 121              	.LVL7:
  99:main.c        ****         for(Vds = 0;Vds <= VDAC_DS_MAX; Vds += Vds_step_slow)
 122              		.loc 1 99 0
 123 005e 0025     		movs	r5, #0
 124 0060 44E0     		b	.L5
 125              	.LVL8:
 126              	.L6:
 100:main.c        ****         {
ARM GAS  C:\Users\JACOB-~1\AppData\Local\Temp\ccjXL5Wn.s 			page 5


 101:main.c        ****             VDAC8_DS_SetValue(Vds);
 127              		.loc 1 101 0 discriminator 3
 128 0062 2846     		mov	r0, r5
 129 0064 FFF7FEFF 		bl	VDAC8_DS_SetValue
 130              	.LVL9:
 102:main.c        ****             
 103:main.c        ****             Output_data_nmos_slow_mat[0][i][0] = (double) Vgs_test_points[k];
 131              		.loc 1 103 0 discriminator 3
 132 0068 4046     		mov	r0, r8
 133 006a FFF7FEFF 		bl	__aeabi_ui2d
 134              	.LVL10:
 135 006e 4FF4BD63 		mov	r3, #1512
 136 0072 02AA     		add	r2, sp, #8
 137 0074 03FB0723 		mla	r3, r3, r7, r2
 138 0078 C3E90001 		strd	r0, [r3]
 104:main.c        ****             Output_data_nmos_slow_mat[1][i][0] = (double) Vgs_test_points[k];
 139              		.loc 1 104 0 discriminator 3
 140 007c 03F50D53 		add	r3, r3, #9024
 141 0080 C3E90C01 		strd	r0, [r3, #48]
 105:main.c        ****             
 106:main.c        ****             Output_data_nmos_slow_mat[0][i][j] = (double) Vds/256 * 4.096 * 3;
 142              		.loc 1 106 0 discriminator 3
 143 0084 2846     		mov	r0, r5
 144 0086 FFF7FEFF 		bl	__aeabi_ui2d
 145              	.LVL11:
 146 008a 0022     		movs	r2, #0
 147 008c 234B     		ldr	r3, .L9+12
 148 008e FFF7FEFF 		bl	__aeabi_dmul
 149              	.LVL12:
 150 0092 1FA3     		adr	r3, .L9
 151 0094 D3E90023 		ldrd	r2, [r3]
 152 0098 FFF7FEFF 		bl	__aeabi_dmul
 153              	.LVL13:
 154 009c 0022     		movs	r2, #0
 155 009e 204B     		ldr	r3, .L9+16
 156 00a0 FFF7FEFF 		bl	__aeabi_dmul
 157              	.LVL14:
 158 00a4 07EB4704 		add	r4, r7, r7, lsl #1
 159 00a8 C4EB8414 		rsb	r4, r4, r4, lsl #6
 160 00ac 3444     		add	r4, r4, r6
 161 00ae 02AB     		add	r3, sp, #8
 162 00b0 03EBC403 		add	r3, r3, r4, lsl #3
 163 00b4 C3E90001 		strd	r0, [r3]
 107:main.c        ****             
 108:main.c        ****             ADC_SAR_1_StartConvert();
 164              		.loc 1 108 0 discriminator 3
 165 00b8 FFF7FEFF 		bl	ADC_SAR_1_StartConvert
 166              	.LVL15:
 109:main.c        ****             ADC_SAR_1_IsEndConversion(ADC_SAR_1_WAIT_FOR_RESULT);
 167              		.loc 1 109 0 discriminator 3
 168 00bc 0020     		movs	r0, #0
 169 00be FFF7FEFF 		bl	ADC_SAR_1_IsEndConversion
 170              	.LVL16:
 110:main.c        ****             ADC_code = ADC_SAR_1_GetResult16();
 171              		.loc 1 110 0 discriminator 3
 172 00c2 FFF7FEFF 		bl	ADC_SAR_1_GetResult16
 173              	.LVL17:
ARM GAS  C:\Users\JACOB-~1\AppData\Local\Temp\ccjXL5Wn.s 			page 6


 174 00c6 8246     		mov	r10, r0
 175              	.LVL18:
 111:main.c        ****             ADC_SAR_1_StopConvert();
 176              		.loc 1 111 0 discriminator 3
 177 00c8 FFF7FEFF 		bl	ADC_SAR_1_StopConvert
 178              	.LVL19:
 112:main.c        ****             Output_data_nmos_slow_mat[1][i][j] = (double) ADC_SAR_1_CountsTo_mVolts(ADC_code);
 179              		.loc 1 112 0 discriminator 3
 180 00cc 5046     		mov	r0, r10
 181 00ce FFF7FEFF 		bl	ADC_SAR_1_CountsTo_mVolts
 182              	.LVL20:
 183 00d2 FFF7FEFF 		bl	__aeabi_i2d
 184              	.LVL21:
 185 00d6 04F26E44 		addw	r4, r4, #1134
 186 00da 02AB     		add	r3, sp, #8
 187 00dc 03EBC404 		add	r4, r3, r4, lsl #3
 188 00e0 C4E90001 		strd	r0, [r4]
 113:main.c        ****             j++;
 189              		.loc 1 113 0 discriminator 3
 190 00e4 0136     		adds	r6, r6, #1
 191              	.LVL22:
 192 00e6 F6B2     		uxtb	r6, r6
 193              	.LVL23:
  99:main.c        ****         {
 194              		.loc 1 99 0 discriminator 3
 195 00e8 0135     		adds	r5, r5, #1
 196              	.LVL24:
 197 00ea EDB2     		uxtb	r5, r5
 198              	.LVL25:
 199              	.L5:
  99:main.c        ****         {
 200              		.loc 1 99 0 is_stmt 0 discriminator 1
 201 00ec BC2D     		cmp	r5, #188
 202 00ee B8D9     		bls	.L6
 114:main.c        ****         }
 115:main.c        ****         i++;
 203              		.loc 1 115 0 is_stmt 1 discriminator 2
 204 00f0 0137     		adds	r7, r7, #1
 205              	.LVL26:
 206 00f2 FFB2     		uxtb	r7, r7
 207              	.LVL27:
  96:main.c        ****     {
 208              		.loc 1 96 0 discriminator 2
 209 00f4 09F10109 		add	r9, r9, #1
 210              	.LVL28:
 211 00f8 5FFA89F9 		uxtb	r9, r9
 212              	.LVL29:
 213              	.L4:
  96:main.c        ****     {
 214              		.loc 1 96 0 is_stmt 0 discriminator 1
 215 00fc B9F1050F 		cmp	r9, #5
 216 0100 A8D9     		bls	.L7
 217              	.LVL30:
 116:main.c        ****     }
 117:main.c        ****     /*
 118:main.c        ****     for(Vgs = Vgs_th - 10; Vgs < Vgs_th + 11; Vgs += Vgs_th + 10 ) 
 119:main.c        ****     {
ARM GAS  C:\Users\JACOB-~1\AppData\Local\Temp\ccjXL5Wn.s 			page 7


 120:main.c        ****         VDAC8_GS_SetValue(Vgs);
 121:main.c        ****         for(Vds = 0;Vds <= VDAC_DS_MAX; Vds += Vds_step_slow)
 122:main.c        ****         {
 123:main.c        ****             VDAC8_DS_SetValue(Vds);
 124:main.c        ****             
 125:main.c        ****             Output_data_nmos_slow_mat[0][i][0] = (double) Vgs;
 126:main.c        ****             Output_data_nmos_slow_mat[1][i][0] = (double) Vgs;
 127:main.c        ****             
 128:main.c        ****             Output_data_nmos_slow_mat[0][i][j] = (double) Vds/256 * 4.096 * 3;
 129:main.c        ****             
 130:main.c        ****             ADC_SAR_1_StartConvert();
 131:main.c        ****             ADC_SAR_1_IsEndConversion(ADC_SAR_1_WAIT_FOR_RESULT);
 132:main.c        ****             ADC_code = ADC_SAR_1_GetResult16();
 133:main.c        ****             ADC_SAR_1_StopConvert();
 134:main.c        ****             Output_data_nmos_slow_mat[1][i][j] = (double) ADC_SAR_1_CountsTo_mVolts(ADC_code);
 135:main.c        ****             j++;
 136:main.c        ****         }
 137:main.c        ****         i++;    
 138:main.c        ****     }
 139:main.c        ****     */
 140:main.c        ****     
 141:main.c        ****     
 142:main.c        ****     Output_data = &Output_data_nmos_slow_mat[0][0][0];
 143:main.c        ****     return Output_data;
 144:main.c        **** }
 218              		.loc 1 144 0 is_stmt 1
 219 0102 02A8     		add	r0, sp, #8
 220              	.LVL31:
 221 0104 0DF58D4D 		add	sp, sp, #18048
 222 0108 1AB0     		add	sp, sp, #104
 223              		.cfi_def_cfa_offset 32
 224              		@ sp needed
 225 010a BDE8F087 		pop	{r4, r5, r6, r7, r8, r9, r10, pc}
 226              	.LVL32:
 227              	.L10:
 228 010e 00BF     		.align	3
 229              	.L9:
 230 0110 FCA9F1D2 		.word	-755914244
 231 0114 4D621040 		.word	1074815565
 232 0118 67666666 		.word	1717986919
 233 011c 0000703F 		.word	1064304640
 234 0120 00000840 		.word	1074266112
 235              		.cfi_endproc
 236              	.LFE65:
 237              		.size	nmos_sweep_slow, .-nmos_sweep_slow
 238              		.section	.text.threedim_matrix_element_retrival,"ax",%progbits
 239              		.align	2
 240              		.global	threedim_matrix_element_retrival
 241              		.thumb
 242              		.thumb_func
 243              		.type	threedim_matrix_element_retrival, %function
 244              	threedim_matrix_element_retrival:
 245              	.LFB66:
 145:main.c        **** 
 146:main.c        **** int threedim_matrix_element_retrival(int *pointer, int row_size, int column_size, int depth_index, 
 147:main.c        **** {
 246              		.loc 1 147 0
ARM GAS  C:\Users\JACOB-~1\AppData\Local\Temp\ccjXL5Wn.s 			page 8


 247              		.cfi_startproc
 248              		@ args = 8, pretend = 0, frame = 0
 249              		@ frame_needed = 0, uses_anonymous_args = 0
 250              		@ link register save eliminated.
 251              	.LVL33:
 252 0000 10B4     		push	{r4}
 253              		.cfi_def_cfa_offset 4
 254              		.cfi_offset 4, -4
 148:main.c        ****     return *(pointer + ( (row_size * column_size * depth_index) + (column_size * row_index) + colum
 255              		.loc 1 148 0
 256 0002 02FB01F1 		mul	r1, r2, r1
 257              	.LVL34:
 258 0006 019C     		ldr	r4, [sp, #4]
 259 0008 04FB02F4 		mul	r4, r4, r2
 260 000c 03FB0143 		mla	r3, r3, r1, r4
 261              	.LVL35:
 262 0010 029C     		ldr	r4, [sp, #8]
 263 0012 1C44     		add	r4, r4, r3
 149:main.c        ****     //Because 3d arrays are stored "one-dimensionally" they can be accessed by a single pointer
 150:main.c        ****     //This pointer however has to be adjusted according to the dimensions of the array as well as i
 151:main.c        **** }
 264              		.loc 1 151 0
 265 0014 50F82400 		ldr	r0, [r0, r4, lsl #2]
 266              	.LVL36:
 267 0018 10BC     		pop	{r4}
 268              		.cfi_restore 4
 269              		.cfi_def_cfa_offset 0
 270              	.LVL37:
 271 001a 7047     		bx	lr
 272              		.cfi_endproc
 273              	.LFE66:
 274              		.size	threedim_matrix_element_retrival, .-threedim_matrix_element_retrival
 275              		.section	.text.main,"ax",%progbits
 276              		.align	2
 277              		.global	main
 278              		.thumb
 279              		.thumb_func
 280              		.type	main, %function
 281              	main:
 282              	.LFB67:
 152:main.c        **** 
 153:main.c        **** int main(void)
 154:main.c        **** {
 283              		.loc 1 154 0
 284              		.cfi_startproc
 285              		@ args = 0, pretend = 0, frame = 0
 286              		@ frame_needed = 0, uses_anonymous_args = 0
 287 0000 08B5     		push	{r3, lr}
 288              		.cfi_def_cfa_offset 8
 289              		.cfi_offset 3, -8
 290              		.cfi_offset 14, -4
 155:main.c        ****     
 156:main.c        ****     /* Place your initialization/startup code here (e.g. MyInst_Start()) */
 157:main.c        ****     VDAC8_GS_Start();
 291              		.loc 1 157 0
 292 0002 FFF7FEFF 		bl	VDAC8_GS_Start
 293              	.LVL38:
ARM GAS  C:\Users\JACOB-~1\AppData\Local\Temp\ccjXL5Wn.s 			page 9


 158:main.c        ****     VDAC8_DS_Start();
 294              		.loc 1 158 0
 295 0006 FFF7FEFF 		bl	VDAC8_DS_Start
 296              	.LVL39:
 159:main.c        ****     ADC_SAR_1_Start();
 297              		.loc 1 159 0
 298 000a FFF7FEFF 		bl	ADC_SAR_1_Start
 299              	.LVL40:
 300              	.L14:
 160:main.c        ****     double *data;
 161:main.c        ****     
 162:main.c        ****     for(;;)
 163:main.c        ****     {
 164:main.c        ****         data = nmos_sweep_slow();
 301              		.loc 1 164 0 discriminator 1
 302 000e FFF7FEFF 		bl	nmos_sweep_slow
 303              	.LVL41:
 304 0012 FCE7     		b	.L14
 305              		.cfi_endproc
 306              	.LFE67:
 307              		.size	main, .-main
 308              		.text
 309              	.Letext0:
 310              		.file 2 "c:\\program files (x86)\\cypress\\psoc creator\\4.2\\psoc creator\\import\\gnu\\arm\\5.4.
 311              		.file 3 "c:\\program files (x86)\\cypress\\psoc creator\\4.2\\psoc creator\\import\\gnu\\arm\\5.4.
 312              		.file 4 "Generated_Source\\PSoC5/VDAC8_DS.h"
 313              		.file 5 "Generated_Source\\PSoC5/VDAC8_GS.h"
 314              		.file 6 "Generated_Source\\PSoC5/ADC_SAR_1.h"
 315              		.file 7 "Generated_Source\\PSoC5/core_cm3.h"